ARM GAS  C:\Users\Antonio\AppData\Local\Temp\cctb8Qoi.s 			page 1


   1              		.arch armv8.1-m.main
   2              		.fpu fpv5-d16
   3              		.arch_extension dsp
   4              		.arch_extension fp
   5              		.arch_extension fp.dp
   6              		.arch_extension mve
   7              		.arch_extension mve.fp
   8              		.eabi_attribute 5, "cortex-m55"
   9              		.eabi_attribute 28, 1
  10              		.eabi_attribute 20, 1
  11              		.eabi_attribute 21, 1
  12              		.eabi_attribute 23, 3
  13              		.eabi_attribute 24, 1
  14              		.eabi_attribute 25, 1
  15              		.eabi_attribute 26, 1
  16              		.eabi_attribute 30, 4
  17              		.eabi_attribute 34, 1
  18              		.eabi_attribute 38, 1
  19              		.eabi_attribute 18, 4
  20              		.file	"app_postprocess_spe_movenet_uf.c"
  21              		.text
  22              	.Ltext0:
  23              		.cfi_sections	.debug_frame
  24              		.file 1 "../../Middlewares/ai-postprocessing-wrapper/app_postprocess_spe_movenet_uf.c"
  25              		.section	.text.app_postprocess_init,"ax",%progbits
  26              		.align	1
  27              		.global	app_postprocess_init
  28              		.syntax unified
  29              		.thumb
  30              		.thumb_func
  32              	app_postprocess_init:
  33              	.LVL0:
  34              	.LFB2645:
   1:../../Middlewares/ai-postprocessing-wrapper/app_postprocess_spe_movenet_uf.c ****  /**
   2:../../Middlewares/ai-postprocessing-wrapper/app_postprocess_spe_movenet_uf.c ****  ******************************************************************************
   3:../../Middlewares/ai-postprocessing-wrapper/app_postprocess_spe_movenet_uf.c ****  * @file    app_postprocess_spe_movenet_uf.c
   4:../../Middlewares/ai-postprocessing-wrapper/app_postprocess_spe_movenet_uf.c ****  * @author  GPM Application Team
   5:../../Middlewares/ai-postprocessing-wrapper/app_postprocess_spe_movenet_uf.c ****  *
   6:../../Middlewares/ai-postprocessing-wrapper/app_postprocess_spe_movenet_uf.c ****  ******************************************************************************
   7:../../Middlewares/ai-postprocessing-wrapper/app_postprocess_spe_movenet_uf.c ****  * @attention
   8:../../Middlewares/ai-postprocessing-wrapper/app_postprocess_spe_movenet_uf.c ****  *
   9:../../Middlewares/ai-postprocessing-wrapper/app_postprocess_spe_movenet_uf.c ****  * Copyright (c) 2023 STMicroelectronics.
  10:../../Middlewares/ai-postprocessing-wrapper/app_postprocess_spe_movenet_uf.c ****  * All rights reserved.
  11:../../Middlewares/ai-postprocessing-wrapper/app_postprocess_spe_movenet_uf.c ****  *
  12:../../Middlewares/ai-postprocessing-wrapper/app_postprocess_spe_movenet_uf.c ****  * This software is licensed under terms that can be found in the LICENSE file
  13:../../Middlewares/ai-postprocessing-wrapper/app_postprocess_spe_movenet_uf.c ****  * in the root directory of this software component.
  14:../../Middlewares/ai-postprocessing-wrapper/app_postprocess_spe_movenet_uf.c ****  * If no LICENSE file comes with this software, it is provided AS-IS.
  15:../../Middlewares/ai-postprocessing-wrapper/app_postprocess_spe_movenet_uf.c ****  *
  16:../../Middlewares/ai-postprocessing-wrapper/app_postprocess_spe_movenet_uf.c ****  ******************************************************************************
  17:../../Middlewares/ai-postprocessing-wrapper/app_postprocess_spe_movenet_uf.c ****  */
  18:../../Middlewares/ai-postprocessing-wrapper/app_postprocess_spe_movenet_uf.c **** 
  19:../../Middlewares/ai-postprocessing-wrapper/app_postprocess_spe_movenet_uf.c **** 
  20:../../Middlewares/ai-postprocessing-wrapper/app_postprocess_spe_movenet_uf.c **** #include "app_postprocess.h"
  21:../../Middlewares/ai-postprocessing-wrapper/app_postprocess_spe_movenet_uf.c **** #include "app_config.h"
  22:../../Middlewares/ai-postprocessing-wrapper/app_postprocess_spe_movenet_uf.c **** #include <assert.h>
  23:../../Middlewares/ai-postprocessing-wrapper/app_postprocess_spe_movenet_uf.c **** 
  24:../../Middlewares/ai-postprocessing-wrapper/app_postprocess_spe_movenet_uf.c **** 
ARM GAS  C:\Users\Antonio\AppData\Local\Temp\cctb8Qoi.s 			page 2


  25:../../Middlewares/ai-postprocessing-wrapper/app_postprocess_spe_movenet_uf.c **** #if POSTPROCESS_TYPE == POSTPROCESS_SPE_MOVENET_UF
  26:../../Middlewares/ai-postprocessing-wrapper/app_postprocess_spe_movenet_uf.c **** static spe_pp_outBuffer_t out_detections[AI_POSE_PP_POSE_KEYPOINTS_NB];
  27:../../Middlewares/ai-postprocessing-wrapper/app_postprocess_spe_movenet_uf.c **** 
  28:../../Middlewares/ai-postprocessing-wrapper/app_postprocess_spe_movenet_uf.c **** int32_t app_postprocess_init(void *params_postprocess)
  29:../../Middlewares/ai-postprocessing-wrapper/app_postprocess_spe_movenet_uf.c **** {
  35              		.loc 1 29 1 view -0
  36              		.cfi_startproc
  37              		@ args = 0, pretend = 0, frame = 0
  38              		@ frame_needed = 0, uses_anonymous_args = 0
  39              		@ link register save eliminated.
  30:../../Middlewares/ai-postprocessing-wrapper/app_postprocess_spe_movenet_uf.c ****   int32_t error = AI_SPE_POSTPROCESS_ERROR_NO;
  40              		.loc 1 30 3 view .LVU1
  31:../../Middlewares/ai-postprocessing-wrapper/app_postprocess_spe_movenet_uf.c ****   spe_movenet_pp_static_param_t *params = (spe_movenet_pp_static_param_t *) params_postprocess;
  41              		.loc 1 31 3 view .LVU2
  32:../../Middlewares/ai-postprocessing-wrapper/app_postprocess_spe_movenet_uf.c ****   params->heatmap_width = AI_SPE_MOVENET_POSTPROC_HEATMAP_WIDTH;
  42              		.loc 1 32 3 view .LVU3
  43              		.loc 1 32 25 is_stmt 0 view .LVU4
  44 0000 3022     		movs	r2, #48
  33:../../Middlewares/ai-postprocessing-wrapper/app_postprocess_spe_movenet_uf.c ****   params->heatmap_height = AI_SPE_MOVENET_POSTPROC_HEATMAP_HEIGHT;
  45              		.loc 1 33 26 view .LVU5
  46 0002 C0E90022 		strd	r2, r2, [r0]
  34:../../Middlewares/ai-postprocessing-wrapper/app_postprocess_spe_movenet_uf.c ****   params->nb_keypoints = AI_POSE_PP_POSE_KEYPOINTS_NB;
  47              		.loc 1 34 3 is_stmt 1 view .LVU6
  48              		.loc 1 34 24 is_stmt 0 view .LVU7
  49 0006 0D22     		movs	r2, #13
  50 0008 8260     		str	r2, [r0, #8]
  35:../../Middlewares/ai-postprocessing-wrapper/app_postprocess_spe_movenet_uf.c ****   error = spe_movenet_pp_reset(params);
  51              		.loc 1 35 3 is_stmt 1 view .LVU8
  52              		.loc 1 35 11 is_stmt 0 view .LVU9
  53 000a FFF7FEBF 		b	spe_movenet_pp_reset
  54              	.LVL1:
  55              		.loc 1 35 11 view .LVU10
  56              		.cfi_endproc
  57              	.LFE2645:
  59              		.section	.rodata.app_postprocess_run.str1.1,"aMS",%progbits,1
  60              	.LC0:
  61 0000 6E625F69 		.ascii	"nb_input == 1\000"
  61      6E707574 
  61      203D3D20 
  61      3100
  62              	.LC1:
  63 000e 2E2E2F2E 		.ascii	"../../Middlewares/ai-postprocessing-wrapper/app_pos"
  63      2E2F4D69 
  63      64646C65 
  63      77617265 
  63      732F6169 
  64 0041 7470726F 		.ascii	"tprocess_spe_movenet_uf.c\000"
  64      63657373 
  64      5F737065 
  64      5F6D6F76 
  64      656E6574 
  65              		.section	.text.app_postprocess_run,"ax",%progbits
  66              		.align	1
  67              		.global	app_postprocess_run
  68              		.syntax unified
  69              		.thumb
  70              		.thumb_func
ARM GAS  C:\Users\Antonio\AppData\Local\Temp\cctb8Qoi.s 			page 3


  72              	app_postprocess_run:
  73              	.LVL2:
  74              	.LFB2646:
  36:../../Middlewares/ai-postprocessing-wrapper/app_postprocess_spe_movenet_uf.c ****   return error;
  37:../../Middlewares/ai-postprocessing-wrapper/app_postprocess_spe_movenet_uf.c **** }
  38:../../Middlewares/ai-postprocessing-wrapper/app_postprocess_spe_movenet_uf.c **** 
  39:../../Middlewares/ai-postprocessing-wrapper/app_postprocess_spe_movenet_uf.c **** int32_t app_postprocess_run(void *pInput[], int nb_input, void *pOutput, void *pInput_param)
  40:../../Middlewares/ai-postprocessing-wrapper/app_postprocess_spe_movenet_uf.c **** {
  75              		.loc 1 40 1 is_stmt 1 view -0
  76              		.cfi_startproc
  77              		@ args = 0, pretend = 0, frame = 8
  78              		@ frame_needed = 0, uses_anonymous_args = 0
  41:../../Middlewares/ai-postprocessing-wrapper/app_postprocess_spe_movenet_uf.c ****   assert(nb_input == 1);
  79              		.loc 1 41 3 view .LVU12
  40:../../Middlewares/ai-postprocessing-wrapper/app_postprocess_spe_movenet_uf.c ****   assert(nb_input == 1);
  80              		.loc 1 40 1 is_stmt 0 view .LVU13
  81 0000 13B5     		push	{r0, r1, r4, lr}
  82              		.cfi_def_cfa_offset 16
  83              		.cfi_offset 4, -8
  84              		.cfi_offset 14, -4
  40:../../Middlewares/ai-postprocessing-wrapper/app_postprocess_spe_movenet_uf.c ****   assert(nb_input == 1);
  85              		.loc 1 40 1 view .LVU14
  86 0002 0C46     		mov	r4, r1
  87              		.loc 1 41 3 view .LVU15
  88 0004 012C     		cmp	r4, #1
  40:../../Middlewares/ai-postprocessing-wrapper/app_postprocess_spe_movenet_uf.c ****   assert(nb_input == 1);
  89              		.loc 1 40 1 view .LVU16
  90 0006 1146     		mov	r1, r2
  91              	.LVL3:
  40:../../Middlewares/ai-postprocessing-wrapper/app_postprocess_spe_movenet_uf.c ****   assert(nb_input == 1);
  92              		.loc 1 40 1 view .LVU17
  93 0008 1A46     		mov	r2, r3
  94              	.LVL4:
  95              		.loc 1 41 3 view .LVU18
  96 000a 05D0     		beq	.L3
  97              		.loc 1 41 3 discriminator 1 view .LVU19
  98 000c 2921     		movs	r1, #41
  99              	.LVL5:
 100              		.loc 1 41 3 discriminator 1 view .LVU20
 101 000e 074B     		ldr	r3, .L4
 102              	.LVL6:
 103              		.loc 1 41 3 discriminator 1 view .LVU21
 104 0010 074A     		ldr	r2, .L4+4
 105              	.LVL7:
 106              		.loc 1 41 3 discriminator 1 view .LVU22
 107 0012 0848     		ldr	r0, .L4+8
 108              	.LVL8:
 109              		.loc 1 41 3 discriminator 1 view .LVU23
 110 0014 FFF7FEFF 		bl	__assert_func
 111              	.LVL9:
 112              	.L3:
  42:../../Middlewares/ai-postprocessing-wrapper/app_postprocess_spe_movenet_uf.c ****   int32_t error = AI_SPE_POSTPROCESS_ERROR_NO;
 113              		.loc 1 42 3 is_stmt 1 view .LVU24
  43:../../Middlewares/ai-postprocessing-wrapper/app_postprocess_spe_movenet_uf.c ****   spe_pp_out_t *pPoseOutput = (spe_pp_out_t *) pOutput;
 114              		.loc 1 43 3 view .LVU25
  44:../../Middlewares/ai-postprocessing-wrapper/app_postprocess_spe_movenet_uf.c ****   pPoseOutput->pOutBuff = out_detections;
 115              		.loc 1 44 3 view .LVU26
ARM GAS  C:\Users\Antonio\AppData\Local\Temp\cctb8Qoi.s 			page 4


 116              		.loc 1 44 25 is_stmt 0 view .LVU27
 117 0018 074B     		ldr	r3, .L4+12
 118 001a 0B60     		str	r3, [r1]
  45:../../Middlewares/ai-postprocessing-wrapper/app_postprocess_spe_movenet_uf.c ****   spe_movenet_pp_in_t pp_input =
 119              		.loc 1 45 3 is_stmt 1 view .LVU28
 120              		.loc 1 45 23 is_stmt 0 view .LVU29
 121 001c 0368     		ldr	r3, [r0]
  46:../../Middlewares/ai-postprocessing-wrapper/app_postprocess_spe_movenet_uf.c ****   {
  47:../../Middlewares/ai-postprocessing-wrapper/app_postprocess_spe_movenet_uf.c ****       .inBuff = (float32_t *) pInput[0]
  48:../../Middlewares/ai-postprocessing-wrapper/app_postprocess_spe_movenet_uf.c ****   };
  49:../../Middlewares/ai-postprocessing-wrapper/app_postprocess_spe_movenet_uf.c ****   error = spe_movenet_pp_process(&pp_input, pPoseOutput,
 122              		.loc 1 49 11 view .LVU30
 123 001e 01A8     		add	r0, sp, #4
 124              	.LVL10:
  45:../../Middlewares/ai-postprocessing-wrapper/app_postprocess_spe_movenet_uf.c ****   spe_movenet_pp_in_t pp_input =
 125              		.loc 1 45 23 view .LVU31
 126 0020 0193     		str	r3, [sp, #4]
 127              		.loc 1 49 3 is_stmt 1 view .LVU32
 128              		.loc 1 49 11 is_stmt 0 view .LVU33
 129 0022 FFF7FEFF 		bl	spe_movenet_pp_process
 130              	.LVL11:
  50:../../Middlewares/ai-postprocessing-wrapper/app_postprocess_spe_movenet_uf.c ****                                  (spe_movenet_pp_static_param_t *) pInput_param);
  51:../../Middlewares/ai-postprocessing-wrapper/app_postprocess_spe_movenet_uf.c ****   return error;
 131              		.loc 1 51 3 is_stmt 1 view .LVU34
  52:../../Middlewares/ai-postprocessing-wrapper/app_postprocess_spe_movenet_uf.c **** }
 132              		.loc 1 52 1 is_stmt 0 view .LVU35
 133 0026 02B0     		add	sp, sp, #8
 134              		.cfi_def_cfa_offset 8
 135              		@ sp needed
 136 0028 10BD     		pop	{r4, pc}
 137              	.LVL12:
 138              	.L5:
 139              		.loc 1 52 1 view .LVU36
 140 002a 00BF     		.align	2
 141              	.L4:
 142 002c 00000000 		.word	.LC0
 143 0030 00000000 		.word	__func__.0
 144 0034 0E000000 		.word	.LC1
 145 0038 00000000 		.word	out_detections
 146              		.cfi_endproc
 147              	.LFE2646:
 149              		.section	.rodata.__func__.0,"a"
 152              	__func__.0:
 153 0000 6170705F 		.ascii	"app_postprocess_run\000"
 153      706F7374 
 153      70726F63 
 153      6573735F 
 153      72756E00 
 154              		.section	.bss.out_detections,"aw",%nobits
 155              		.align	2
 158              	out_detections:
 159 0000 00000000 		.space	156
 159      00000000 
 159      00000000 
 159      00000000 
 159      00000000 
 160              		.text
ARM GAS  C:\Users\Antonio\AppData\Local\Temp\cctb8Qoi.s 			page 5


 161              	.Letext0:
 162              		.file 2 "C:\\ST\\STM32CubeIDE_1.19.0\\STM32CubeIDE\\plugins\\com.st.stm32cube.ide.mcu.externaltool
 163              		.file 3 "C:\\ST\\STM32CubeIDE_1.19.0\\STM32CubeIDE\\plugins\\com.st.stm32cube.ide.mcu.externaltool
 164              		.file 4 "C:\\ST\\STM32CubeIDE_1.19.0\\STM32CubeIDE\\plugins\\com.st.stm32cube.ide.mcu.externaltool
 165              		.file 5 "../../Middlewares/lib_vision_models_pp/lib_vision_models_pp/Inc/spe_pp_output_if.h"
 166              		.file 6 "../../Middlewares/lib_vision_models_pp/lib_vision_models_pp/Inc/spe_movenet_pp_if.h"
 167              		.file 7 "C:\\ST\\STM32CubeIDE_1.19.0\\STM32CubeIDE\\plugins\\com.st.stm32cube.ide.mcu.externaltool
ARM GAS  C:\Users\Antonio\AppData\Local\Temp\cctb8Qoi.s 			page 6


DEFINED SYMBOLS
                            *ABS*:00000000 app_postprocess_spe_movenet_uf.c
C:\Users\Antonio\AppData\Local\Temp\cctb8Qoi.s:26     .text.app_postprocess_init:00000000 $t
C:\Users\Antonio\AppData\Local\Temp\cctb8Qoi.s:32     .text.app_postprocess_init:00000000 app_postprocess_init
C:\Users\Antonio\AppData\Local\Temp\cctb8Qoi.s:66     .text.app_postprocess_run:00000000 $t
C:\Users\Antonio\AppData\Local\Temp\cctb8Qoi.s:72     .text.app_postprocess_run:00000000 app_postprocess_run
C:\Users\Antonio\AppData\Local\Temp\cctb8Qoi.s:142    .text.app_postprocess_run:0000002c $d
C:\Users\Antonio\AppData\Local\Temp\cctb8Qoi.s:152    .rodata.__func__.0:00000000 __func__.0
C:\Users\Antonio\AppData\Local\Temp\cctb8Qoi.s:158    .bss.out_detections:00000000 out_detections
C:\Users\Antonio\AppData\Local\Temp\cctb8Qoi.s:155    .bss.out_detections:00000000 $d
                           .group:00000000 wm4.0.edffc6ad2f5eb1e671bbefdf8c481eb3
                           .group:00000000 wm4.od_pp_output_if.h.11.62a3da738caf687aa42d96759c237b2c
                           .group:00000000 wm4._newlib_version.h.4.411db44ea2338a62eca2f0777f81481b
                           .group:00000000 wm4.features.h.33.e0c9f337c65cb9f22ed5f23d082bc78b
                           .group:00000000 wm4._default_types.h.15.247e5cd201eca3442cbf5404108c4935
                           .group:00000000 wm4._intsup.h.10.48bafbb683905c4daa4565a85aeeb264
                           .group:00000000 wm4._stdint.h.10.c24fa3af3bc1706662bb5593a907e841
                           .group:00000000 wm4.stdint.h.23.d53047a68f4a85177f80b422d52785ed
                           .group:00000000 wm4.cmsis_gcc.h.26.7a5fd1a99dbedde687044a4433ab3e15
                           .group:00000000 wm4.newlib.h.7.a37ffbe9e5aff74303f4e60b1cc1c01b
                           .group:00000000 wm4.ieeefp.h.77.bd5feb87d9990dd328793ced294f6a87
                           .group:00000000 wm4.config.h.224.10ee1ad185d877c6e334e6581faab44d
                           .group:00000000 wm4._ansi.h.31.de524f58584151836e90d8620a16f8e8
                           .group:00000000 wm4.stddef.h.39.0dc9006b34572d4d9cae4c8b422c4971
                           .group:00000000 wm4.cdefs.h.49.70fc7af612f78ddcace70fdd90b5623b
                           .group:00000000 wm4._types.h.20.dd0d04dca3800a0d2a6129b87f3adbb2
                           .group:00000000 wm4.stddef.h.158.6f8e08a347b1cff664332fa350bfceb3
                           .group:00000000 wm4._types.h.127.3bdfe3ff8ea2d0985b03d9cbe93480e3
                           .group:00000000 wm4.reent.h.18.25503cdc8b7e55dd0d6ea7b3e5af7a03
                           .group:00000000 wm4.lock.h.2.1461d1fff82dffe8bfddc23307f6484f
                           .group:00000000 wm4.reent.h.78.6b87466b04591b1f1cb88c14fdf2ba9e
                           .group:00000000 wm4.string.h.15.dab3980bf35408a4c507182805e2de3a
                           .group:00000000 wm4.stddef.h.158.eec8bf00b5213f43d095cb984c5f22e3
                           .group:00000000 wm4.string.h.177.59a005921fa78485abc80a0267de5752
                           .group:00000000 wm4.math.h.13.47cfc34cae8a1153323939c4d32cf7c2
                           .group:00000000 wm4.float.h.29.0e9d9baf95ec39f9555dc80c6e28186b
                           .group:00000000 wm4.syslimits.h.34.de5cbd310098bc5895998b6bde577ed2
                           .group:00000000 wm4.limits.h.9.70fb0ada6f71b16202a66baaa6d8ea70
                           .group:00000000 wm4.limits.h.60.56a1ae353e2028a24298ec6463b8b593
                           .group:00000000 wm4.arm_math_types.h.94.a6c8422e2657ad4cd95bd8be69ba02aa
                           .group:00000000 wm4.stdbool.h.29.c08aa3eec75cf5b9b5003883f43253f0
                           .group:00000000 wm4.arm_mve.h.38.47b22bbd301ce82bc6dafd1a387f65a3
                           .group:00000000 wm4.arm_math_types.h.559.cab78f278b684a3ea2271947c7aea680
                           .group:00000000 wm4.arm_math_memory.h.28.fe8a81c6a9ac13061a5f748732089249
                           .group:00000000 wm4.none.h.185.db055cca83e83f96d8d0bb450fbdf4bb
                           .group:00000000 wm4.utils.h.27.57524573fe37b04009eecf3582a4c591
                           .group:00000000 wm4.fast_math_functions.h.28.8eb7477260c1d6b62047c49a01c4cbaa
                           .group:00000000 wm4.controller_functions.h.28.7bed7d7a726df2f65b8a3d89cff01247
                           .group:00000000 wm4.filtering_functions.h.46.6cf1424fb1f86d5f9958d208b83340a1
                           .group:00000000 wm4.mpe_pp_output_if.h.11.db0dd5ceb87072354c56b51e8f9b2a0d
                           .group:00000000 wm4.pd_pp_output_if.h.19.b7de9bd1876930668a82409743b6dbf4
                           .group:00000000 wm4.spe_pp_output_if.h.11.7212d2990e83c8afeadfa97fa05d17c4
                           .group:00000000 wm4.iseg_pp_output_if.h.11.94ad86e1bcba0c03902fb099324716f2
                           .group:00000000 wm4.sseg_pp_output_if.h.11.caf00fb1ae24f8dc9c80bee7827b96f2
                           .group:00000000 wm4.app_postprocess.h.46.5719832142b7cbde626021bdb2b1e6d5
                           .group:00000000 wm4.app_config.h.20.61424149ecd1a4cefcbf5206f0c11dcb
                           .group:00000000 wm4.assert.h.11.db24e541f16414db224bf986d21017e2
ARM GAS  C:\Users\Antonio\AppData\Local\Temp\cctb8Qoi.s 			page 7



UNDEFINED SYMBOLS
spe_movenet_pp_reset
__assert_func
spe_movenet_pp_process
