ARM GAS  C:\Users\Antonio\AppData\Local\Temp\cczUmp0b.s 			page 1


   1              		.arch armv8.1-m.main
   2              		.fpu fpv5-d16
   3              		.arch_extension dsp
   4              		.arch_extension fp
   5              		.arch_extension fp.dp
   6              		.arch_extension mve
   7              		.arch_extension mve.fp
   8              		.eabi_attribute 5, "cortex-m55"
   9              		.eabi_attribute 28, 1
  10              		.eabi_attribute 20, 1
  11              		.eabi_attribute 21, 1
  12              		.eabi_attribute 23, 3
  13              		.eabi_attribute 24, 1
  14              		.eabi_attribute 25, 1
  15              		.eabi_attribute 26, 1
  16              		.eabi_attribute 30, 4
  17              		.eabi_attribute 34, 1
  18              		.eabi_attribute 38, 1
  19              		.eabi_attribute 18, 4
  20              		.file	"app_camerapipeline.c"
  21              		.text
  22              	.Ltext0:
  23              		.cfi_sections	.debug_frame
  24              		.file 1 "Src/app_camerapipeline.c"
  25              		.section	.rodata.CameraPipeline_Init.str1.1,"aMS",%progbits,1
  26              	.LC0:
  27 0000 72657420 		.ascii	"ret == CMW_ERROR_NONE\000"
  27      3D3D2043 
  27      4D575F45 
  27      52524F52 
  27      5F4E4F4E 
  28              	.LC1:
  29 0016 5372632F 		.ascii	"Src/app_camerapipeline.c\000"
  29      6170705F 
  29      63616D65 
  29      72617069 
  29      70656C69 
  30              	.LC2:
  31 002f 72657420 		.ascii	"ret == HAL_OK\000"
  31      3D3D2048 
  31      414C5F4F 
  31      4B00
  32              	.LC3:
  33 003d 64636D69 		.ascii	"dcmipp_conf.output_width * dcmipp_conf.output_bpp ="
  33      70705F63 
  33      6F6E662E 
  33      6F757470 
  33      75745F77 
  34 0070 3D207069 		.ascii	"= pitch\000"
  34      74636800 
  35              		.section	.text.CameraPipeline_Init,"ax",%progbits
  36              		.align	1
  37              		.global	CameraPipeline_Init
  38              		.syntax unified
  39              		.thumb
  40              		.thumb_func
  42              	CameraPipeline_Init:
ARM GAS  C:\Users\Antonio\AppData\Local\Temp\cczUmp0b.s 			page 2


  43              	.LVL0:
  44              	.LFB3344:
   1:Src/app_camerapipeline.c ****  /**
   2:Src/app_camerapipeline.c ****  ******************************************************************************
   3:Src/app_camerapipeline.c ****  * @file    app_camerapipeline.c
   4:Src/app_camerapipeline.c ****  * @author  GPM Application Team
   5:Src/app_camerapipeline.c ****  *
   6:Src/app_camerapipeline.c ****  ******************************************************************************
   7:Src/app_camerapipeline.c ****  * @attention
   8:Src/app_camerapipeline.c ****  *
   9:Src/app_camerapipeline.c ****  * Copyright (c) 2023 STMicroelectronics.
  10:Src/app_camerapipeline.c ****  * All rights reserved.
  11:Src/app_camerapipeline.c ****  *
  12:Src/app_camerapipeline.c ****  * This software is licensed under terms that can be found in the LICENSE file
  13:Src/app_camerapipeline.c ****  * in the root directory of this software component.
  14:Src/app_camerapipeline.c ****  * If no LICENSE file comes with this software, it is provided AS-IS.
  15:Src/app_camerapipeline.c ****  *
  16:Src/app_camerapipeline.c ****  ******************************************************************************
  17:Src/app_camerapipeline.c ****  */
  18:Src/app_camerapipeline.c **** 
  19:Src/app_camerapipeline.c **** #include <assert.h>
  20:Src/app_camerapipeline.c **** #include "cmw_camera.h"
  21:Src/app_camerapipeline.c **** #include "app_camerapipeline.h"
  22:Src/app_camerapipeline.c **** #include "app_config.h"
  23:Src/app_camerapipeline.c **** #include "crop_img.h"
  24:Src/app_camerapipeline.c **** 
  25:Src/app_camerapipeline.c **** #if defined(USE_IMX335_SENSOR)
  26:Src/app_camerapipeline.c ****   #define GAMMA_CONVERSION 0
  27:Src/app_camerapipeline.c **** #elif defined(USE_VD66GY_SENSOR)
  28:Src/app_camerapipeline.c ****   #define GAMMA_CONVERSION 0
  29:Src/app_camerapipeline.c **** #elif defined(USE_VD55G1_SENSOR)
  30:Src/app_camerapipeline.c ****   #define GAMMA_CONVERSION 0
  31:Src/app_camerapipeline.c **** #endif
  32:Src/app_camerapipeline.c **** 
  33:Src/app_camerapipeline.c **** /* Leave the driver use the default resolution */
  34:Src/app_camerapipeline.c **** #define CAMERA_WIDTH 0
  35:Src/app_camerapipeline.c **** #define CAMERA_HEIGHT 0
  36:Src/app_camerapipeline.c **** #define CAMERA_FPS 30
  37:Src/app_camerapipeline.c **** 
  38:Src/app_camerapipeline.c **** extern int32_t cameraFrameReceived;
  39:Src/app_camerapipeline.c **** 
  40:Src/app_camerapipeline.c **** static void DCMIPP_PipeInitDisplay(CMW_CameraInit_t *camConf, uint32_t *bg_width, uint32_t *bg_heig
  41:Src/app_camerapipeline.c **** {
  42:Src/app_camerapipeline.c ****   CMW_Aspect_Ratio_Mode_t aspect_ratio;
  43:Src/app_camerapipeline.c ****   CMW_DCMIPP_Conf_t dcmipp_conf = {0};
  44:Src/app_camerapipeline.c ****   int ret;
  45:Src/app_camerapipeline.c **** 
  46:Src/app_camerapipeline.c ****   if (ASPECT_RATIO_MODE == ASPECT_RATIO_CROP)
  47:Src/app_camerapipeline.c ****   {
  48:Src/app_camerapipeline.c ****     aspect_ratio = CMW_Aspect_ratio_crop;
  49:Src/app_camerapipeline.c ****   }
  50:Src/app_camerapipeline.c ****   else if (ASPECT_RATIO_MODE == ASPECT_RATIO_FIT)
  51:Src/app_camerapipeline.c ****   {
  52:Src/app_camerapipeline.c ****     aspect_ratio = CMW_Aspect_ratio_fit;
  53:Src/app_camerapipeline.c ****   }
  54:Src/app_camerapipeline.c ****   else if (ASPECT_RATIO_MODE == ASPECT_RATIO_FULLSCREEN)
  55:Src/app_camerapipeline.c ****   {
ARM GAS  C:\Users\Antonio\AppData\Local\Temp\cczUmp0b.s 			page 3


  56:Src/app_camerapipeline.c ****     aspect_ratio = CMW_Aspect_ratio_fullscreen;
  57:Src/app_camerapipeline.c ****   }
  58:Src/app_camerapipeline.c **** 
  59:Src/app_camerapipeline.c ****   int lcd_bg_width;
  60:Src/app_camerapipeline.c ****   int lcd_bg_height;
  61:Src/app_camerapipeline.c **** 
  62:Src/app_camerapipeline.c ****   lcd_bg_height = (camConf->height <= SCREEN_HEIGHT) ? camConf->height : SCREEN_HEIGHT;
  63:Src/app_camerapipeline.c **** 
  64:Src/app_camerapipeline.c **** #if ASPECT_RATIO_MODE == ASPECT_RATIO_FULLSCREEN
  65:Src/app_camerapipeline.c ****   lcd_bg_width = (((camConf->width*lcd_bg_height)/camConf->height) - ((camConf->width*lcd_bg_height
  66:Src/app_camerapipeline.c **** #else
  67:Src/app_camerapipeline.c ****   lcd_bg_width = (camConf->height <= SCREEN_HEIGHT) ? camConf->height : SCREEN_HEIGHT;
  68:Src/app_camerapipeline.c **** #endif
  69:Src/app_camerapipeline.c **** 
  70:Src/app_camerapipeline.c ****   *bg_width = lcd_bg_width;
  71:Src/app_camerapipeline.c ****   *bg_height = lcd_bg_height;
  72:Src/app_camerapipeline.c **** 
  73:Src/app_camerapipeline.c ****   dcmipp_conf.output_width = lcd_bg_width;
  74:Src/app_camerapipeline.c ****   dcmipp_conf.output_height = lcd_bg_height;
  75:Src/app_camerapipeline.c ****   dcmipp_conf.output_format = DCMIPP_PIXEL_PACKER_FORMAT_RGB565_1;
  76:Src/app_camerapipeline.c ****   dcmipp_conf.output_bpp = 2;
  77:Src/app_camerapipeline.c ****   dcmipp_conf.mode = aspect_ratio;
  78:Src/app_camerapipeline.c ****   dcmipp_conf.enable_gamma_conversion = GAMMA_CONVERSION;
  79:Src/app_camerapipeline.c ****   uint32_t pitch;
  80:Src/app_camerapipeline.c ****   ret = CMW_CAMERA_SetPipeConfig(DCMIPP_PIPE1, &dcmipp_conf, &pitch);
  81:Src/app_camerapipeline.c ****   assert(ret == HAL_OK);
  82:Src/app_camerapipeline.c ****   assert(dcmipp_conf.output_width * dcmipp_conf.output_bpp == pitch);
  83:Src/app_camerapipeline.c **** }
  84:Src/app_camerapipeline.c **** 
  85:Src/app_camerapipeline.c **** static void DCMIPP_PipeInitNn(uint32_t *pitch)
  86:Src/app_camerapipeline.c **** {
  87:Src/app_camerapipeline.c ****   CMW_Aspect_Ratio_Mode_t aspect_ratio;
  88:Src/app_camerapipeline.c ****   CMW_DCMIPP_Conf_t dcmipp_conf;
  89:Src/app_camerapipeline.c ****   int ret;
  90:Src/app_camerapipeline.c **** 
  91:Src/app_camerapipeline.c ****   if (ASPECT_RATIO_MODE == ASPECT_RATIO_CROP)
  92:Src/app_camerapipeline.c ****   {
  93:Src/app_camerapipeline.c ****     aspect_ratio = CMW_Aspect_ratio_crop;
  94:Src/app_camerapipeline.c ****   }
  95:Src/app_camerapipeline.c ****   else if (ASPECT_RATIO_MODE == ASPECT_RATIO_FIT)
  96:Src/app_camerapipeline.c ****   {
  97:Src/app_camerapipeline.c ****     aspect_ratio = CMW_Aspect_ratio_fit;
  98:Src/app_camerapipeline.c ****   }
  99:Src/app_camerapipeline.c ****   else if (ASPECT_RATIO_MODE == ASPECT_RATIO_FULLSCREEN)
 100:Src/app_camerapipeline.c ****   {
 101:Src/app_camerapipeline.c ****     aspect_ratio = CMW_Aspect_ratio_fit;
 102:Src/app_camerapipeline.c ****   }
 103:Src/app_camerapipeline.c **** 
 104:Src/app_camerapipeline.c ****   dcmipp_conf.output_width = NN_WIDTH;
 105:Src/app_camerapipeline.c ****   dcmipp_conf.output_height = NN_HEIGHT;
 106:Src/app_camerapipeline.c ****   dcmipp_conf.output_format = DCMIPP_PIXEL_PACKER_FORMAT_RGB888_YUV444_1;
 107:Src/app_camerapipeline.c ****   dcmipp_conf.output_bpp = NN_BPP;
 108:Src/app_camerapipeline.c ****   dcmipp_conf.mode = aspect_ratio;
 109:Src/app_camerapipeline.c ****   dcmipp_conf.enable_swap = COLOR_MODE;
 110:Src/app_camerapipeline.c ****   dcmipp_conf.enable_gamma_conversion = GAMMA_CONVERSION;
 111:Src/app_camerapipeline.c ****   ret = CMW_CAMERA_SetPipeConfig(DCMIPP_PIPE2, &dcmipp_conf, pitch);
 112:Src/app_camerapipeline.c ****   assert(ret == HAL_OK);
ARM GAS  C:\Users\Antonio\AppData\Local\Temp\cczUmp0b.s 			page 4


 113:Src/app_camerapipeline.c **** }
 114:Src/app_camerapipeline.c **** 
 115:Src/app_camerapipeline.c **** /**
 116:Src/app_camerapipeline.c **** * @brief Init the camera and the 2 DCMIPP pipes
 117:Src/app_camerapipeline.c **** * @param lcd_bg_width display width
 118:Src/app_camerapipeline.c **** * @param lcd_bg_height display height
 119:Src/app_camerapipeline.c **** * @param pitch_nn output pitch computed by the CMW
 120:Src/app_camerapipeline.c **** */
 121:Src/app_camerapipeline.c **** void CameraPipeline_Init(uint32_t *lcd_bg_width, uint32_t *lcd_bg_height, uint32_t *pitch_nn)
 122:Src/app_camerapipeline.c **** {
  45              		.loc 1 122 1 view -0
  46              		.cfi_startproc
  47              		@ args = 0, pretend = 0, frame = 72
  48              		@ frame_needed = 0, uses_anonymous_args = 0
 123:Src/app_camerapipeline.c ****   int ret;
  49              		.loc 1 123 3 view .LVU1
 124:Src/app_camerapipeline.c ****   CMW_CameraInit_t cam_conf;
  50              		.loc 1 124 3 view .LVU2
 125:Src/app_camerapipeline.c **** 
 126:Src/app_camerapipeline.c ****   cam_conf.width = CAMERA_WIDTH;
  51              		.loc 1 126 3 view .LVU3
 122:Src/app_camerapipeline.c ****   int ret;
  52              		.loc 1 122 1 is_stmt 0 view .LVU4
  53 0000 F0B5     		push	{r4, r5, r6, r7, lr}
  54              		.cfi_def_cfa_offset 20
  55              		.cfi_offset 4, -20
  56              		.cfi_offset 5, -16
  57              		.cfi_offset 6, -12
  58              		.cfi_offset 7, -8
  59              		.cfi_offset 14, -4
  60              		.loc 1 126 18 view .LVU5
  61 0002 0023     		movs	r3, #0
 122:Src/app_camerapipeline.c ****   int ret;
  62              		.loc 1 122 1 view .LVU6
  63 0004 1546     		mov	r5, r2
 127:Src/app_camerapipeline.c ****   cam_conf.height = CAMERA_HEIGHT;
 128:Src/app_camerapipeline.c ****   cam_conf.fps = CAMERA_FPS;
  64              		.loc 1 128 16 view .LVU7
  65 0006 1E22     		movs	r2, #30
  66              	.LVL1:
 122:Src/app_camerapipeline.c ****   int ret;
  67              		.loc 1 122 1 view .LVU8
  68 0008 93B0     		sub	sp, sp, #76
  69              		.cfi_def_cfa_offset 96
 122:Src/app_camerapipeline.c ****   int ret;
  70              		.loc 1 122 1 view .LVU9
  71 000a 0746     		mov	r7, r0
 129:Src/app_camerapipeline.c ****   cam_conf.pixel_format = 0; /* Default; Not implemented yet */
 130:Src/app_camerapipeline.c ****   cam_conf.anti_flicker = 0;
 131:Src/app_camerapipeline.c ****   cam_conf.mirror_flip = CAMERA_FLIP;
 132:Src/app_camerapipeline.c **** 
 133:Src/app_camerapipeline.c ****   ret = CMW_CAMERA_Init(&cam_conf);
  72              		.loc 1 133 9 view .LVU10
  73 000c 01A8     		add	r0, sp, #4
  74              	.LVL2:
 122:Src/app_camerapipeline.c ****   int ret;
  75              		.loc 1 122 1 view .LVU11
ARM GAS  C:\Users\Antonio\AppData\Local\Temp\cczUmp0b.s 			page 5


  76 000e 0E46     		mov	r6, r1
 127:Src/app_camerapipeline.c ****   cam_conf.height = CAMERA_HEIGHT;
  77              		.loc 1 127 19 view .LVU12
  78 0010 CDE90133 		strd	r3, r3, [sp, #4]
 128:Src/app_camerapipeline.c ****   cam_conf.pixel_format = 0; /* Default; Not implemented yet */
  79              		.loc 1 128 3 is_stmt 1 view .LVU13
 129:Src/app_camerapipeline.c ****   cam_conf.pixel_format = 0; /* Default; Not implemented yet */
  80              		.loc 1 129 25 is_stmt 0 view .LVU14
  81 0014 CDE90323 		strd	r2, r3, [sp, #12]
 130:Src/app_camerapipeline.c ****   cam_conf.mirror_flip = CAMERA_FLIP;
  82              		.loc 1 130 3 is_stmt 1 view .LVU15
 131:Src/app_camerapipeline.c **** 
  83              		.loc 1 131 24 is_stmt 0 view .LVU16
  84 0018 CDE90533 		strd	r3, r3, [sp, #20]
  85              		.loc 1 133 3 is_stmt 1 view .LVU17
  86              		.loc 1 133 9 is_stmt 0 view .LVU18
  87 001c FFF7FEFF 		bl	CMW_CAMERA_Init
  88              	.LVL3:
 134:Src/app_camerapipeline.c ****   assert(ret == CMW_ERROR_NONE);
  89              		.loc 1 134 3 is_stmt 1 view .LVU19
  90 0020 0146     		mov	r1, r0
  91 0022 28B1     		cbz	r0, .L2
  92              		.loc 1 134 3 is_stmt 0 discriminator 1 view .LVU20
  93 0024 8621     		movs	r1, #134
  94 0026 204B     		ldr	r3, .L7
  95 0028 204A     		ldr	r2, .L7+4
  96              	.LVL4:
  97              	.L6:
  98              	.LBB6:
  99              	.LBB7:
  81:Src/app_camerapipeline.c ****   assert(dcmipp_conf.output_width * dcmipp_conf.output_bpp == pitch);
 100              		.loc 1 81 3 discriminator 1 view .LVU21
 101 002a 2148     		ldr	r0, .L7+8
 102 002c FFF7FEFF 		bl	__assert_func
 103              	.LVL5:
 104              	.L2:
  81:Src/app_camerapipeline.c ****   assert(dcmipp_conf.output_width * dcmipp_conf.output_bpp == pitch);
 105              		.loc 1 81 3 discriminator 1 view .LVU22
 106              	.LBE7:
 107              	.LBE6:
 135:Src/app_camerapipeline.c ****   DCMIPP_PipeInitDisplay(&cam_conf, lcd_bg_width, lcd_bg_height);
 108              		.loc 1 135 3 is_stmt 1 view .LVU23
 109 0030 029C     		ldr	r4, [sp, #8]
 110              	.LVL6:
 111              	.LBB9:
 112              	.LBI6:
  40:Src/app_camerapipeline.c **** {
 113              		.loc 1 40 13 view .LVU24
 114              	.LBB8:
  42:Src/app_camerapipeline.c ****   CMW_DCMIPP_Conf_t dcmipp_conf = {0};
 115              		.loc 1 42 3 view .LVU25
  43:Src/app_camerapipeline.c ****   int ret;
 116              		.loc 1 43 3 view .LVU26
  43:Src/app_camerapipeline.c ****   int ret;
 117              		.loc 1 43 21 is_stmt 0 view .LVU27
 118 0032 1C22     		movs	r2, #28
 119 0034 0BA8     		add	r0, sp, #44
ARM GAS  C:\Users\Antonio\AppData\Local\Temp\cczUmp0b.s 			page 6


 120              	.LVL7:
  43:Src/app_camerapipeline.c ****   int ret;
 121              		.loc 1 43 21 view .LVU28
 122 0036 FFF7FEFF 		bl	memset
 123              	.LVL8:
  44:Src/app_camerapipeline.c **** 
 124              		.loc 1 44 3 is_stmt 1 view .LVU29
  46:Src/app_camerapipeline.c ****   {
 125              		.loc 1 46 3 view .LVU30
  48:Src/app_camerapipeline.c ****   }
 126              		.loc 1 48 5 view .LVU31
  59:Src/app_camerapipeline.c ****   int lcd_bg_height;
 127              		.loc 1 59 3 view .LVU32
  60:Src/app_camerapipeline.c **** 
 128              		.loc 1 60 3 view .LVU33
  62:Src/app_camerapipeline.c **** 
 129              		.loc 1 62 3 view .LVU34
  62:Src/app_camerapipeline.c **** 
 130              		.loc 1 62 72 is_stmt 0 view .LVU35
 131 003a B4F5F07F 		cmp	r4, #480
 132 003e 28BF     		it	cs
 133 0040 4FF4F074 		movcs	r4, #480
 134              	.LVL9:
  67:Src/app_camerapipeline.c **** #endif
 135              		.loc 1 67 3 is_stmt 1 view .LVU36
  70:Src/app_camerapipeline.c ****   *bg_height = lcd_bg_height;
 136              		.loc 1 70 3 view .LVU37
  70:Src/app_camerapipeline.c ****   *bg_height = lcd_bg_height;
 137              		.loc 1 70 13 is_stmt 0 view .LVU38
 138 0044 3C60     		str	r4, [r7]
  71:Src/app_camerapipeline.c **** 
 139              		.loc 1 71 3 is_stmt 1 view .LVU39
  74:Src/app_camerapipeline.c ****   dcmipp_conf.output_format = DCMIPP_PIXEL_PACKER_FORMAT_RGB565_1;
 140              		.loc 1 74 29 is_stmt 0 view .LVU40
 141 0046 CDE90744 		strd	r4, r4, [sp, #28]
  71:Src/app_camerapipeline.c **** 
 142              		.loc 1 71 14 view .LVU41
 143 004a 3460     		str	r4, [r6]
  73:Src/app_camerapipeline.c ****   dcmipp_conf.output_height = lcd_bg_height;
 144              		.loc 1 73 3 is_stmt 1 view .LVU42
  75:Src/app_camerapipeline.c ****   dcmipp_conf.output_bpp = 2;
 145              		.loc 1 75 3 view .LVU43
  76:Src/app_camerapipeline.c ****   dcmipp_conf.mode = aspect_ratio;
 146              		.loc 1 76 26 is_stmt 0 view .LVU44
 147 004c 0124     		movs	r4, #1
 148              	.LVL10:
  76:Src/app_camerapipeline.c ****   dcmipp_conf.mode = aspect_ratio;
 149              		.loc 1 76 26 view .LVU45
 150 004e 0226     		movs	r6, #2
 151              	.LVL11:
  80:Src/app_camerapipeline.c ****   assert(ret == HAL_OK);
 152              		.loc 1 80 9 view .LVU46
 153 0050 6A46     		mov	r2, sp
 154 0052 2046     		mov	r0, r4
 155 0054 07A9     		add	r1, sp, #28
  76:Src/app_camerapipeline.c ****   dcmipp_conf.mode = aspect_ratio;
 156              		.loc 1 76 26 view .LVU47
ARM GAS  C:\Users\Antonio\AppData\Local\Temp\cczUmp0b.s 			page 7


 157 0056 CDE90946 		strd	r4, r6, [sp, #36]
  77:Src/app_camerapipeline.c ****   dcmipp_conf.enable_gamma_conversion = GAMMA_CONVERSION;
 158              		.loc 1 77 3 is_stmt 1 view .LVU48
  78:Src/app_camerapipeline.c ****   uint32_t pitch;
 159              		.loc 1 78 3 view .LVU49
  79:Src/app_camerapipeline.c ****   ret = CMW_CAMERA_SetPipeConfig(DCMIPP_PIPE1, &dcmipp_conf, &pitch);
 160              		.loc 1 79 3 view .LVU50
  80:Src/app_camerapipeline.c ****   assert(ret == HAL_OK);
 161              		.loc 1 80 3 view .LVU51
  80:Src/app_camerapipeline.c ****   assert(ret == HAL_OK);
 162              		.loc 1 80 9 is_stmt 0 view .LVU52
 163 005a FFF7FEFF 		bl	CMW_CAMERA_SetPipeConfig
 164              	.LVL12:
  81:Src/app_camerapipeline.c ****   assert(dcmipp_conf.output_width * dcmipp_conf.output_bpp == pitch);
 165              		.loc 1 81 3 is_stmt 1 view .LVU53
 166 005e 18B1     		cbz	r0, .L3
  81:Src/app_camerapipeline.c ****   assert(dcmipp_conf.output_width * dcmipp_conf.output_bpp == pitch);
 167              		.loc 1 81 3 is_stmt 0 discriminator 1 view .LVU54
 168 0060 5121     		movs	r1, #81
 169 0062 144B     		ldr	r3, .L7+12
 170 0064 144A     		ldr	r2, .L7+16
 171 0066 E0E7     		b	.L6
 172              	.L3:
  82:Src/app_camerapipeline.c **** }
 173              		.loc 1 82 3 is_stmt 1 view .LVU55
 174 0068 0A9A     		ldr	r2, [sp, #40]
 175 006a 079B     		ldr	r3, [sp, #28]
 176 006c 5343     		muls	r3, r2, r3
 177 006e 009A     		ldr	r2, [sp]
 178 0070 9342     		cmp	r3, r2
 179 0072 03D0     		beq	.L4
  82:Src/app_camerapipeline.c **** }
 180              		.loc 1 82 3 is_stmt 0 discriminator 1 view .LVU56
 181 0074 5221     		movs	r1, #82
 182 0076 114B     		ldr	r3, .L7+20
 183 0078 0F4A     		ldr	r2, .L7+16
 184 007a D6E7     		b	.L6
 185              	.L4:
 186              	.LVL13:
  82:Src/app_camerapipeline.c **** }
 187              		.loc 1 82 3 discriminator 1 view .LVU57
 188              	.LBE8:
 189              	.LBE9:
 136:Src/app_camerapipeline.c ****   DCMIPP_PipeInitNn(pitch_nn);
 190              		.loc 1 136 3 is_stmt 1 view .LVU58
 191              	.LBB10:
 192              	.LBI10:
  85:Src/app_camerapipeline.c **** {
 193              		.loc 1 85 13 view .LVU59
 194              	.LBB11:
  87:Src/app_camerapipeline.c ****   CMW_DCMIPP_Conf_t dcmipp_conf;
 195              		.loc 1 87 3 view .LVU60
  88:Src/app_camerapipeline.c ****   int ret;
 196              		.loc 1 88 3 view .LVU61
  89:Src/app_camerapipeline.c **** 
 197              		.loc 1 89 3 view .LVU62
  91:Src/app_camerapipeline.c ****   {
ARM GAS  C:\Users\Antonio\AppData\Local\Temp\cczUmp0b.s 			page 8


 198              		.loc 1 91 3 view .LVU63
  93:Src/app_camerapipeline.c ****   }
 199              		.loc 1 93 5 view .LVU64
 104:Src/app_camerapipeline.c ****   dcmipp_conf.output_height = NN_HEIGHT;
 200              		.loc 1 104 3 view .LVU65
 104:Src/app_camerapipeline.c ****   dcmipp_conf.output_height = NN_HEIGHT;
 201              		.loc 1 104 28 is_stmt 0 view .LVU66
 202 007c C023     		movs	r3, #192
 105:Src/app_camerapipeline.c ****   dcmipp_conf.output_format = DCMIPP_PIXEL_PACKER_FORMAT_RGB888_YUV444_1;
 203              		.loc 1 105 29 view .LVU67
 204 007e CDE90733 		strd	r3, r3, [sp, #28]
 106:Src/app_camerapipeline.c ****   dcmipp_conf.output_bpp = NN_BPP;
 205              		.loc 1 106 3 is_stmt 1 view .LVU68
 107:Src/app_camerapipeline.c ****   dcmipp_conf.mode = aspect_ratio;
 206              		.loc 1 107 26 is_stmt 0 view .LVU69
 207 0082 0323     		movs	r3, #3
 110:Src/app_camerapipeline.c ****   ret = CMW_CAMERA_SetPipeConfig(DCMIPP_PIPE2, &dcmipp_conf, pitch);
 208              		.loc 1 110 39 view .LVU70
 209 0084 CDE90B40 		strd	r4, r0, [sp, #44]
 106:Src/app_camerapipeline.c ****   dcmipp_conf.output_bpp = NN_BPP;
 210              		.loc 1 106 29 view .LVU71
 211 0088 0990     		str	r0, [sp, #36]
 107:Src/app_camerapipeline.c ****   dcmipp_conf.mode = aspect_ratio;
 212              		.loc 1 107 3 is_stmt 1 view .LVU72
 108:Src/app_camerapipeline.c ****   dcmipp_conf.enable_swap = COLOR_MODE;
 213              		.loc 1 108 20 is_stmt 0 view .LVU73
 214 008a 0D90     		str	r0, [sp, #52]
 111:Src/app_camerapipeline.c ****   assert(ret == HAL_OK);
 215              		.loc 1 111 9 view .LVU74
 216 008c 2A46     		mov	r2, r5
 217 008e 3046     		mov	r0, r6
 218 0090 07A9     		add	r1, sp, #28
 107:Src/app_camerapipeline.c ****   dcmipp_conf.mode = aspect_ratio;
 219              		.loc 1 107 26 view .LVU75
 220 0092 0A93     		str	r3, [sp, #40]
 108:Src/app_camerapipeline.c ****   dcmipp_conf.enable_swap = COLOR_MODE;
 221              		.loc 1 108 3 is_stmt 1 view .LVU76
 109:Src/app_camerapipeline.c ****   dcmipp_conf.enable_gamma_conversion = GAMMA_CONVERSION;
 222              		.loc 1 109 3 view .LVU77
 111:Src/app_camerapipeline.c ****   assert(ret == HAL_OK);
 223              		.loc 1 111 3 view .LVU78
 111:Src/app_camerapipeline.c ****   assert(ret == HAL_OK);
 224              		.loc 1 111 9 is_stmt 0 view .LVU79
 225 0094 FFF7FEFF 		bl	CMW_CAMERA_SetPipeConfig
 226              	.LVL14:
 112:Src/app_camerapipeline.c **** }
 227              		.loc 1 112 3 is_stmt 1 view .LVU80
 228 0098 18B1     		cbz	r0, .L1
 112:Src/app_camerapipeline.c **** }
 229              		.loc 1 112 3 is_stmt 0 discriminator 1 view .LVU81
 230 009a 7021     		movs	r1, #112
 231 009c 054B     		ldr	r3, .L7+12
 232 009e 084A     		ldr	r2, .L7+24
 233 00a0 C3E7     		b	.L6
 234              	.L1:
 235              	.LBE11:
 236              	.LBE10:
ARM GAS  C:\Users\Antonio\AppData\Local\Temp\cczUmp0b.s 			page 9


 137:Src/app_camerapipeline.c **** }
 237              		.loc 1 137 1 view .LVU82
 238 00a2 13B0     		add	sp, sp, #76
 239              		.cfi_def_cfa_offset 20
 240              		@ sp needed
 241 00a4 F0BD     		pop	{r4, r5, r6, r7, pc}
 242              	.LVL15:
 243              	.L8:
 244              		.loc 1 137 1 view .LVU83
 245 00a6 00BF     		.align	2
 246              	.L7:
 247 00a8 00000000 		.word	.LC0
 248 00ac 00000000 		.word	__func__.7
 249 00b0 16000000 		.word	.LC1
 250 00b4 2F000000 		.word	.LC2
 251 00b8 00000000 		.word	__func__.6
 252 00bc 3D000000 		.word	.LC3
 253 00c0 00000000 		.word	__func__.5
 254              		.cfi_endproc
 255              	.LFE3344:
 257              		.section	.text.CameraPipeline_DeInit,"ax",%progbits
 258              		.align	1
 259              		.global	CameraPipeline_DeInit
 260              		.syntax unified
 261              		.thumb
 262              		.thumb_func
 264              	CameraPipeline_DeInit:
 265              	.LFB3345:
 138:Src/app_camerapipeline.c **** 
 139:Src/app_camerapipeline.c **** void CameraPipeline_DeInit(void)
 140:Src/app_camerapipeline.c **** {
 266              		.loc 1 140 1 is_stmt 1 view -0
 267              		.cfi_startproc
 268              		@ args = 0, pretend = 0, frame = 0
 269              		@ frame_needed = 0, uses_anonymous_args = 0
 141:Src/app_camerapipeline.c ****   int ret;
 270              		.loc 1 141 3 view .LVU85
 142:Src/app_camerapipeline.c ****   ret = CMW_CAMERA_DeInit();
 271              		.loc 1 142 3 view .LVU86
 140:Src/app_camerapipeline.c ****   int ret;
 272              		.loc 1 140 1 is_stmt 0 view .LVU87
 273 0000 08B5     		push	{r3, lr}
 274              		.cfi_def_cfa_offset 8
 275              		.cfi_offset 3, -8
 276              		.cfi_offset 14, -4
 277              		.loc 1 142 9 view .LVU88
 278 0002 FFF7FEFF 		bl	CMW_CAMERA_DeInit
 279              	.LVL16:
 143:Src/app_camerapipeline.c ****   assert(ret == CMW_ERROR_NONE);
 280              		.loc 1 143 3 is_stmt 1 view .LVU89
 281 0006 28B1     		cbz	r0, .L9
 282              		.loc 1 143 3 is_stmt 0 discriminator 1 view .LVU90
 283 0008 8F21     		movs	r1, #143
 284 000a 034B     		ldr	r3, .L11
 285 000c 034A     		ldr	r2, .L11+4
 286 000e 0448     		ldr	r0, .L11+8
 287              	.LVL17:
ARM GAS  C:\Users\Antonio\AppData\Local\Temp\cczUmp0b.s 			page 10


 288              		.loc 1 143 3 discriminator 1 view .LVU91
 289 0010 FFF7FEFF 		bl	__assert_func
 290              	.LVL18:
 291              	.L9:
 144:Src/app_camerapipeline.c **** }
 292              		.loc 1 144 1 view .LVU92
 293 0014 08BD     		pop	{r3, pc}
 294              	.L12:
 295 0016 00BF     		.align	2
 296              	.L11:
 297 0018 00000000 		.word	.LC0
 298 001c 00000000 		.word	__func__.4
 299 0020 16000000 		.word	.LC1
 300              		.cfi_endproc
 301              	.LFE3345:
 303              		.section	.text.CameraPipeline_DisplayPipe_Start,"ax",%progbits
 304              		.align	1
 305              		.global	CameraPipeline_DisplayPipe_Start
 306              		.syntax unified
 307              		.thumb
 308              		.thumb_func
 310              	CameraPipeline_DisplayPipe_Start:
 311              	.LVL19:
 312              	.LFB3346:
 145:Src/app_camerapipeline.c **** 
 146:Src/app_camerapipeline.c **** void CameraPipeline_DisplayPipe_Start(uint8_t *display_pipe_dst, uint32_t cam_mode)
 147:Src/app_camerapipeline.c **** {
 313              		.loc 1 147 1 is_stmt 1 view -0
 314              		.cfi_startproc
 315              		@ args = 0, pretend = 0, frame = 0
 316              		@ frame_needed = 0, uses_anonymous_args = 0
 148:Src/app_camerapipeline.c ****   int ret;
 317              		.loc 1 148 3 view .LVU94
 149:Src/app_camerapipeline.c ****   ret = CMW_CAMERA_Start(DCMIPP_PIPE1, display_pipe_dst, cam_mode);
 318              		.loc 1 149 3 view .LVU95
 147:Src/app_camerapipeline.c ****   int ret;
 319              		.loc 1 147 1 is_stmt 0 view .LVU96
 320 0000 0A46     		mov	r2, r1
 321 0002 08B5     		push	{r3, lr}
 322              		.cfi_def_cfa_offset 8
 323              		.cfi_offset 3, -8
 324              		.cfi_offset 14, -4
 325              		.loc 1 149 9 view .LVU97
 326 0004 0146     		mov	r1, r0
 327              	.LVL20:
 328              		.loc 1 149 9 view .LVU98
 329 0006 0120     		movs	r0, #1
 330              	.LVL21:
 331              		.loc 1 149 9 view .LVU99
 332 0008 FFF7FEFF 		bl	CMW_CAMERA_Start
 333              	.LVL22:
 150:Src/app_camerapipeline.c ****   assert(ret == CMW_ERROR_NONE);
 334              		.loc 1 150 3 is_stmt 1 view .LVU100
 335 000c 28B1     		cbz	r0, .L13
 336              		.loc 1 150 3 is_stmt 0 discriminator 1 view .LVU101
 337 000e 9621     		movs	r1, #150
 338 0010 024B     		ldr	r3, .L15
ARM GAS  C:\Users\Antonio\AppData\Local\Temp\cczUmp0b.s 			page 11


 339 0012 034A     		ldr	r2, .L15+4
 340 0014 0348     		ldr	r0, .L15+8
 341              	.LVL23:
 342              		.loc 1 150 3 discriminator 1 view .LVU102
 343 0016 FFF7FEFF 		bl	__assert_func
 344              	.LVL24:
 345              	.L13:
 151:Src/app_camerapipeline.c **** }
 346              		.loc 1 151 1 view .LVU103
 347 001a 08BD     		pop	{r3, pc}
 348              	.L16:
 349              		.align	2
 350              	.L15:
 351 001c 00000000 		.word	.LC0
 352 0020 00000000 		.word	__func__.3
 353 0024 16000000 		.word	.LC1
 354              		.cfi_endproc
 355              	.LFE3346:
 357              		.section	.text.CameraPipeline_NNPipe_Start,"ax",%progbits
 358              		.align	1
 359              		.global	CameraPipeline_NNPipe_Start
 360              		.syntax unified
 361              		.thumb
 362              		.thumb_func
 364              	CameraPipeline_NNPipe_Start:
 365              	.LVL25:
 366              	.LFB3347:
 152:Src/app_camerapipeline.c **** 
 153:Src/app_camerapipeline.c **** void CameraPipeline_NNPipe_Start(uint8_t *nn_pipe_dst, uint32_t cam_mode)
 154:Src/app_camerapipeline.c **** {
 367              		.loc 1 154 1 is_stmt 1 view -0
 368              		.cfi_startproc
 369              		@ args = 0, pretend = 0, frame = 0
 370              		@ frame_needed = 0, uses_anonymous_args = 0
 155:Src/app_camerapipeline.c ****   int ret;
 371              		.loc 1 155 3 view .LVU105
 156:Src/app_camerapipeline.c **** 
 157:Src/app_camerapipeline.c ****   ret = CMW_CAMERA_Start(DCMIPP_PIPE2, nn_pipe_dst, cam_mode);
 372              		.loc 1 157 3 view .LVU106
 154:Src/app_camerapipeline.c ****   int ret;
 373              		.loc 1 154 1 is_stmt 0 view .LVU107
 374 0000 0A46     		mov	r2, r1
 375 0002 08B5     		push	{r3, lr}
 376              		.cfi_def_cfa_offset 8
 377              		.cfi_offset 3, -8
 378              		.cfi_offset 14, -4
 379              		.loc 1 157 9 view .LVU108
 380 0004 0146     		mov	r1, r0
 381              	.LVL26:
 382              		.loc 1 157 9 view .LVU109
 383 0006 0220     		movs	r0, #2
 384              	.LVL27:
 385              		.loc 1 157 9 view .LVU110
 386 0008 FFF7FEFF 		bl	CMW_CAMERA_Start
 387              	.LVL28:
 158:Src/app_camerapipeline.c ****   assert(ret == CMW_ERROR_NONE);
 388              		.loc 1 158 3 is_stmt 1 view .LVU111
ARM GAS  C:\Users\Antonio\AppData\Local\Temp\cczUmp0b.s 			page 12


 389 000c 28B1     		cbz	r0, .L17
 390              		.loc 1 158 3 is_stmt 0 discriminator 1 view .LVU112
 391 000e 9E21     		movs	r1, #158
 392 0010 024B     		ldr	r3, .L19
 393 0012 034A     		ldr	r2, .L19+4
 394 0014 0348     		ldr	r0, .L19+8
 395              	.LVL29:
 396              		.loc 1 158 3 discriminator 1 view .LVU113
 397 0016 FFF7FEFF 		bl	__assert_func
 398              	.LVL30:
 399              	.L17:
 159:Src/app_camerapipeline.c **** }
 400              		.loc 1 159 1 view .LVU114
 401 001a 08BD     		pop	{r3, pc}
 402              	.L20:
 403              		.align	2
 404              	.L19:
 405 001c 00000000 		.word	.LC0
 406 0020 00000000 		.word	__func__.2
 407 0024 16000000 		.word	.LC1
 408              		.cfi_endproc
 409              	.LFE3347:
 411              		.section	.text.CameraPipeline_DisplayPipe_Stop,"ax",%progbits
 412              		.align	1
 413              		.global	CameraPipeline_DisplayPipe_Stop
 414              		.syntax unified
 415              		.thumb
 416              		.thumb_func
 418              	CameraPipeline_DisplayPipe_Stop:
 419              	.LFB3348:
 160:Src/app_camerapipeline.c **** 
 161:Src/app_camerapipeline.c **** void CameraPipeline_DisplayPipe_Stop()
 162:Src/app_camerapipeline.c **** {
 420              		.loc 1 162 1 is_stmt 1 view -0
 421              		.cfi_startproc
 422              		@ args = 0, pretend = 0, frame = 0
 423              		@ frame_needed = 0, uses_anonymous_args = 0
 163:Src/app_camerapipeline.c ****   int ret;
 424              		.loc 1 163 3 view .LVU116
 164:Src/app_camerapipeline.c ****   ret = CMW_CAMERA_Suspend(DCMIPP_PIPE1);
 425              		.loc 1 164 3 view .LVU117
 162:Src/app_camerapipeline.c ****   int ret;
 426              		.loc 1 162 1 is_stmt 0 view .LVU118
 427 0000 08B5     		push	{r3, lr}
 428              		.cfi_def_cfa_offset 8
 429              		.cfi_offset 3, -8
 430              		.cfi_offset 14, -4
 431              		.loc 1 164 9 view .LVU119
 432 0002 0120     		movs	r0, #1
 433 0004 FFF7FEFF 		bl	CMW_CAMERA_Suspend
 434              	.LVL31:
 165:Src/app_camerapipeline.c ****   assert(ret == CMW_ERROR_NONE);
 435              		.loc 1 165 3 is_stmt 1 view .LVU120
 436 0008 28B1     		cbz	r0, .L21
 437              		.loc 1 165 3 is_stmt 0 discriminator 1 view .LVU121
 438 000a A521     		movs	r1, #165
 439 000c 024B     		ldr	r3, .L23
ARM GAS  C:\Users\Antonio\AppData\Local\Temp\cczUmp0b.s 			page 13


 440 000e 034A     		ldr	r2, .L23+4
 441 0010 0348     		ldr	r0, .L23+8
 442              	.LVL32:
 443              		.loc 1 165 3 discriminator 1 view .LVU122
 444 0012 FFF7FEFF 		bl	__assert_func
 445              	.LVL33:
 446              	.L21:
 166:Src/app_camerapipeline.c **** }
 447              		.loc 1 166 1 view .LVU123
 448 0016 08BD     		pop	{r3, pc}
 449              	.L24:
 450              		.align	2
 451              	.L23:
 452 0018 00000000 		.word	.LC0
 453 001c 00000000 		.word	__func__.1
 454 0020 16000000 		.word	.LC1
 455              		.cfi_endproc
 456              	.LFE3348:
 458              		.section	.text.CameraPipeline_IspUpdate,"ax",%progbits
 459              		.align	1
 460              		.global	CameraPipeline_IspUpdate
 461              		.syntax unified
 462              		.thumb
 463              		.thumb_func
 465              	CameraPipeline_IspUpdate:
 466              	.LFB3349:
 167:Src/app_camerapipeline.c **** 
 168:Src/app_camerapipeline.c **** void CameraPipeline_IspUpdate(void)
 169:Src/app_camerapipeline.c **** {
 467              		.loc 1 169 1 is_stmt 1 view -0
 468              		.cfi_startproc
 469              		@ args = 0, pretend = 0, frame = 0
 470              		@ frame_needed = 0, uses_anonymous_args = 0
 170:Src/app_camerapipeline.c ****   int ret = CMW_ERROR_NONE;
 471              		.loc 1 170 3 view .LVU125
 472              	.LVL34:
 171:Src/app_camerapipeline.c ****   ret = CMW_CAMERA_Run();
 473              		.loc 1 171 3 view .LVU126
 169:Src/app_camerapipeline.c ****   int ret = CMW_ERROR_NONE;
 474              		.loc 1 169 1 is_stmt 0 view .LVU127
 475 0000 08B5     		push	{r3, lr}
 476              		.cfi_def_cfa_offset 8
 477              		.cfi_offset 3, -8
 478              		.cfi_offset 14, -4
 479              		.loc 1 171 9 view .LVU128
 480 0002 FFF7FEFF 		bl	CMW_CAMERA_Run
 481              	.LVL35:
 172:Src/app_camerapipeline.c ****   assert(ret == CMW_ERROR_NONE);
 482              		.loc 1 172 3 is_stmt 1 view .LVU129
 483 0006 28B1     		cbz	r0, .L25
 484              		.loc 1 172 3 is_stmt 0 discriminator 1 view .LVU130
 485 0008 AC21     		movs	r1, #172
 486 000a 034B     		ldr	r3, .L27
 487 000c 034A     		ldr	r2, .L27+4
 488 000e 0448     		ldr	r0, .L27+8
 489              	.LVL36:
 490              		.loc 1 172 3 discriminator 1 view .LVU131
ARM GAS  C:\Users\Antonio\AppData\Local\Temp\cczUmp0b.s 			page 14


 491 0010 FFF7FEFF 		bl	__assert_func
 492              	.LVL37:
 493              	.L25:
 173:Src/app_camerapipeline.c **** }
 494              		.loc 1 173 1 view .LVU132
 495 0014 08BD     		pop	{r3, pc}
 496              	.L28:
 497 0016 00BF     		.align	2
 498              	.L27:
 499 0018 00000000 		.word	.LC0
 500 001c 00000000 		.word	__func__.0
 501 0020 16000000 		.word	.LC1
 502              		.cfi_endproc
 503              	.LFE3349:
 505              		.section	.text.CMW_CAMERA_PIPE_FrameEventCallback,"ax",%progbits
 506              		.align	1
 507              		.global	CMW_CAMERA_PIPE_FrameEventCallback
 508              		.syntax unified
 509              		.thumb
 510              		.thumb_func
 512              	CMW_CAMERA_PIPE_FrameEventCallback:
 513              	.LVL38:
 514              	.LFB3350:
 174:Src/app_camerapipeline.c **** 
 175:Src/app_camerapipeline.c **** /**
 176:Src/app_camerapipeline.c ****   * @brief  Frame event callback
 177:Src/app_camerapipeline.c ****   * @param  hdcmipp pointer to the DCMIPP handle
 178:Src/app_camerapipeline.c ****   * @retval None
 179:Src/app_camerapipeline.c ****   */
 180:Src/app_camerapipeline.c **** int CMW_CAMERA_PIPE_FrameEventCallback(uint32_t pipe)
 181:Src/app_camerapipeline.c **** {
 515              		.loc 1 181 1 is_stmt 1 view -0
 516              		.cfi_startproc
 517              		@ args = 0, pretend = 0, frame = 0
 518              		@ frame_needed = 0, uses_anonymous_args = 0
 519              		@ link register save eliminated.
 182:Src/app_camerapipeline.c ****   switch (pipe)
 520              		.loc 1 182 3 view .LVU134
 521 0000 0228     		cmp	r0, #2
 183:Src/app_camerapipeline.c ****   {
 184:Src/app_camerapipeline.c ****     case DCMIPP_PIPE2 :
 185:Src/app_camerapipeline.c ****       cameraFrameReceived++;
 522              		.loc 1 185 7 view .LVU135
 523              		.loc 1 185 26 is_stmt 0 view .LVU136
 524 0002 08BF     		it	eq
 525 0004 034A     		ldreq	r2, .L31
 186:Src/app_camerapipeline.c ****       break;
 187:Src/app_camerapipeline.c ****   }
 188:Src/app_camerapipeline.c ****   return 0;
 189:Src/app_camerapipeline.c **** }
 526              		.loc 1 189 1 view .LVU137
 527 0006 4FF00000 		mov	r0, #0
 528              	.LVL39:
 185:Src/app_camerapipeline.c ****       break;
 529              		.loc 1 185 26 view .LVU138
 530 000a 02BF     		ittt	eq
 531 000c 1368     		ldreq	r3, [r2]
ARM GAS  C:\Users\Antonio\AppData\Local\Temp\cczUmp0b.s 			page 15


 532 000e 0133     		addeq	r3, r3, #1
 533 0010 1360     		streq	r3, [r2]
 186:Src/app_camerapipeline.c ****       break;
 534              		.loc 1 186 7 is_stmt 1 view .LVU139
 188:Src/app_camerapipeline.c **** }
 535              		.loc 1 188 3 view .LVU140
 536              		.loc 1 189 1 is_stmt 0 view .LVU141
 537 0012 7047     		bx	lr
 538              	.L32:
 539              		.align	2
 540              	.L31:
 541 0014 00000000 		.word	cameraFrameReceived
 542              		.cfi_endproc
 543              	.LFE3350:
 545              		.section	.rodata.__func__.0,"a"
 548              	__func__.0:
 549 0000 43616D65 		.ascii	"CameraPipeline_IspUpdate\000"
 549      72615069 
 549      70656C69 
 549      6E655F49 
 549      73705570 
 550              		.section	.rodata.__func__.1,"a"
 553              	__func__.1:
 554 0000 43616D65 		.ascii	"CameraPipeline_DisplayPipe_Stop\000"
 554      72615069 
 554      70656C69 
 554      6E655F44 
 554      6973706C 
 555              		.section	.rodata.__func__.2,"a"
 558              	__func__.2:
 559 0000 43616D65 		.ascii	"CameraPipeline_NNPipe_Start\000"
 559      72615069 
 559      70656C69 
 559      6E655F4E 
 559      4E506970 
 560              		.section	.rodata.__func__.3,"a"
 563              	__func__.3:
 564 0000 43616D65 		.ascii	"CameraPipeline_DisplayPipe_Start\000"
 564      72615069 
 564      70656C69 
 564      6E655F44 
 564      6973706C 
 565              		.section	.rodata.__func__.4,"a"
 568              	__func__.4:
 569 0000 43616D65 		.ascii	"CameraPipeline_DeInit\000"
 569      72615069 
 569      70656C69 
 569      6E655F44 
 569      65496E69 
 570              		.section	.rodata.__func__.5,"a"
 573              	__func__.5:
 574 0000 44434D49 		.ascii	"DCMIPP_PipeInitNn\000"
 574      50505F50 
 574      69706549 
 574      6E69744E 
 574      6E00
 575              		.section	.rodata.__func__.6,"a"
ARM GAS  C:\Users\Antonio\AppData\Local\Temp\cczUmp0b.s 			page 16


 578              	__func__.6:
 579 0000 44434D49 		.ascii	"DCMIPP_PipeInitDisplay\000"
 579      50505F50 
 579      69706549 
 579      6E697444 
 579      6973706C 
 580              		.section	.rodata.__func__.7,"a"
 583              	__func__.7:
 584 0000 43616D65 		.ascii	"CameraPipeline_Init\000"
 584      72615069 
 584      70656C69 
 584      6E655F49 
 584      6E697400 
 585              		.text
 586              	.Letext0:
 587              		.file 2 "C:\\ST\\STM32CubeIDE_1.19.0\\STM32CubeIDE\\plugins\\com.st.stm32cube.ide.mcu.externaltool
 588              		.file 3 "C:\\ST\\STM32CubeIDE_1.19.0\\STM32CubeIDE\\plugins\\com.st.stm32cube.ide.mcu.externaltool
 589              		.file 4 "../../STM32Cube_FW_N6/Drivers/STM32N6xx_HAL_Driver/Inc/stm32n6xx_hal_def.h"
 590              		.file 5 "../../Middlewares/Camera_Middleware/cmw_camera.h"
 591              		.file 6 "C:\\ST\\STM32CubeIDE_1.19.0\\STM32CubeIDE\\plugins\\com.st.stm32cube.ide.mcu.externaltool
 592              		.file 7 "<built-in>"
ARM GAS  C:\Users\Antonio\AppData\Local\Temp\cczUmp0b.s 			page 17

