ARM GAS  C:\Users\Antonio\AppData\Local\Temp\ccO3q7yr.s 			page 1


   1              		.arch armv8.1-m.main
   2              		.fpu fpv5-d16
   3              		.arch_extension dsp
   4              		.arch_extension fp
   5              		.arch_extension fp.dp
   6              		.arch_extension mve
   7              		.arch_extension mve.fp
   8              		.eabi_attribute 5, "cortex-m55"
   9              		.eabi_attribute 28, 1
  10              		.eabi_attribute 20, 1
  11              		.eabi_attribute 21, 1
  12              		.eabi_attribute 23, 3
  13              		.eabi_attribute 24, 1
  14              		.eabi_attribute 25, 1
  15              		.eabi_attribute 26, 1
  16              		.eabi_attribute 30, 4
  17              		.eabi_attribute 34, 1
  18              		.eabi_attribute 38, 1
  19              		.eabi_attribute 18, 4
  20              		.file	"cmw_vd66gy.c"
  21              		.text
  22              	.Ltext0:
  23              		.cfi_sections	.debug_frame
  24              		.file 1 "../../Middlewares/Camera_Middleware/sensors/cmw_vd66gy.c"
  25              		.section	.text.CMW_VD66GY_Read16,"ax",%progbits
  26              		.align	1
  27              		.syntax unified
  28              		.thumb
  29              		.thumb_func
  31              	CMW_VD66GY_Read16:
  32              	.LVL0:
  33              	.LFB3343:
   1:../../Middlewares/Camera_Middleware/sensors/cmw_vd66gy.c **** /**
   2:../../Middlewares/Camera_Middleware/sensors/cmw_vd66gy.c ****   ******************************************************************************
   3:../../Middlewares/Camera_Middleware/sensors/cmw_vd66gy.c ****   * @file    cmw_vd66gy.c
   4:../../Middlewares/Camera_Middleware/sensors/cmw_vd66gy.c ****   * @author  MDG Application Team
   5:../../Middlewares/Camera_Middleware/sensors/cmw_vd66gy.c ****   ******************************************************************************
   6:../../Middlewares/Camera_Middleware/sensors/cmw_vd66gy.c ****   * @attention
   7:../../Middlewares/Camera_Middleware/sensors/cmw_vd66gy.c ****   *
   8:../../Middlewares/Camera_Middleware/sensors/cmw_vd66gy.c ****   * Copyright (c) 2024 STMicroelectronics.
   9:../../Middlewares/Camera_Middleware/sensors/cmw_vd66gy.c ****   * All rights reserved.
  10:../../Middlewares/Camera_Middleware/sensors/cmw_vd66gy.c ****   *
  11:../../Middlewares/Camera_Middleware/sensors/cmw_vd66gy.c ****   * This software is licensed under terms that can be found in the LICENSE file
  12:../../Middlewares/Camera_Middleware/sensors/cmw_vd66gy.c ****   * in the root directory of this software component.
  13:../../Middlewares/Camera_Middleware/sensors/cmw_vd66gy.c ****   * If no LICENSE file comes with this software, it is provided AS-IS.
  14:../../Middlewares/Camera_Middleware/sensors/cmw_vd66gy.c ****   *
  15:../../Middlewares/Camera_Middleware/sensors/cmw_vd66gy.c ****   ******************************************************************************
  16:../../Middlewares/Camera_Middleware/sensors/cmw_vd66gy.c ****   */
  17:../../Middlewares/Camera_Middleware/sensors/cmw_vd66gy.c **** 
  18:../../Middlewares/Camera_Middleware/sensors/cmw_vd66gy.c **** #include "cmw_vd66gy.h"
  19:../../Middlewares/Camera_Middleware/sensors/cmw_vd66gy.c **** 
  20:../../Middlewares/Camera_Middleware/sensors/cmw_vd66gy.c **** #include <assert.h>
  21:../../Middlewares/Camera_Middleware/sensors/cmw_vd66gy.c **** #include <stdlib.h>
  22:../../Middlewares/Camera_Middleware/sensors/cmw_vd66gy.c **** #include <stdio.h>
  23:../../Middlewares/Camera_Middleware/sensors/cmw_vd66gy.c **** #include <stddef.h>
  24:../../Middlewares/Camera_Middleware/sensors/cmw_vd66gy.c **** #include <string.h>
  25:../../Middlewares/Camera_Middleware/sensors/cmw_vd66gy.c **** #include "cmw_camera.h"
ARM GAS  C:\Users\Antonio\AppData\Local\Temp\ccO3q7yr.s 			page 2


  26:../../Middlewares/Camera_Middleware/sensors/cmw_vd66gy.c **** #ifndef ISP_MW_TUNING_TOOL_SUPPORT
  27:../../Middlewares/Camera_Middleware/sensors/cmw_vd66gy.c **** #include "isp_param_conf.h"
  28:../../Middlewares/Camera_Middleware/sensors/cmw_vd66gy.c **** #endif
  29:../../Middlewares/Camera_Middleware/sensors/cmw_vd66gy.c **** 
  30:../../Middlewares/Camera_Middleware/sensors/cmw_vd66gy.c **** #include "vd6g.h"
  31:../../Middlewares/Camera_Middleware/sensors/cmw_vd66gy.c **** 
  32:../../Middlewares/Camera_Middleware/sensors/cmw_vd66gy.c **** #define VD66GY_REG_MODEL_ID                   0x0000
  33:../../Middlewares/Camera_Middleware/sensors/cmw_vd66gy.c **** 
  34:../../Middlewares/Camera_Middleware/sensors/cmw_vd66gy.c **** #define container_of(ptr, type, member) (type *) ((unsigned char *)ptr - offsetof(type,member))
  35:../../Middlewares/Camera_Middleware/sensors/cmw_vd66gy.c **** 
  36:../../Middlewares/Camera_Middleware/sensors/cmw_vd66gy.c **** #define MIN(a, b)                           ((a) < (b) ?  (a) : (b))
  37:../../Middlewares/Camera_Middleware/sensors/cmw_vd66gy.c **** #define MDECIBEL_TO_LINEAR(mdB)             (pow(10.0, (mdB / 1000.0) / 20.0))
  38:../../Middlewares/Camera_Middleware/sensors/cmw_vd66gy.c **** #define LINEAR_TO_MDECIBEL(linearValue)     (1000 * (20.0 * log10(linearValue)))
  39:../../Middlewares/Camera_Middleware/sensors/cmw_vd66gy.c **** #define FLOAT_TO_FP58(x)                    (((uint16_t)(x) << 8) | ((uint16_t)((x - (uint16_t)(x))
  40:../../Middlewares/Camera_Middleware/sensors/cmw_vd66gy.c **** #define FP58_TO_FLOAT(fp)                   (((fp) >> 8) + ((fp) & 0xFF) / 256.0f)
  41:../../Middlewares/Camera_Middleware/sensors/cmw_vd66gy.c **** 
  42:../../Middlewares/Camera_Middleware/sensors/cmw_vd66gy.c **** static int CMW_VD66GY_Read8(CMW_VD66GY_t *pObj, uint16_t addr, uint8_t *value)
  43:../../Middlewares/Camera_Middleware/sensors/cmw_vd66gy.c **** {
  44:../../Middlewares/Camera_Middleware/sensors/cmw_vd66gy.c ****   return pObj->ReadReg(pObj->Address, addr, value, 1);
  45:../../Middlewares/Camera_Middleware/sensors/cmw_vd66gy.c **** }
  46:../../Middlewares/Camera_Middleware/sensors/cmw_vd66gy.c **** 
  47:../../Middlewares/Camera_Middleware/sensors/cmw_vd66gy.c **** static int CMW_VD66GY_Read16(CMW_VD66GY_t *pObj, uint16_t addr, uint16_t *value)
  48:../../Middlewares/Camera_Middleware/sensors/cmw_vd66gy.c **** {
  34              		.loc 1 48 1 view -0
  35              		.cfi_startproc
  36              		@ args = 0, pretend = 0, frame = 8
  37              		@ frame_needed = 0, uses_anonymous_args = 0
  49:../../Middlewares/Camera_Middleware/sensors/cmw_vd66gy.c ****   uint8_t data[2];
  38              		.loc 1 49 3 view .LVU1
  50:../../Middlewares/Camera_Middleware/sensors/cmw_vd66gy.c ****   int ret;
  39              		.loc 1 50 3 view .LVU2
  51:../../Middlewares/Camera_Middleware/sensors/cmw_vd66gy.c **** 
  52:../../Middlewares/Camera_Middleware/sensors/cmw_vd66gy.c ****   ret = pObj->ReadReg(pObj->Address, addr, data, 2);
  40              		.loc 1 52 3 view .LVU3
  48:../../Middlewares/Camera_Middleware/sensors/cmw_vd66gy.c ****   uint8_t data[2];
  41              		.loc 1 48 1 is_stmt 0 view .LVU4
  42 0000 37B5     		push	{r0, r1, r2, r4, r5, lr}
  43              		.cfi_def_cfa_offset 24
  44              		.cfi_offset 4, -12
  45              		.cfi_offset 5, -8
  46              		.cfi_offset 14, -4
  47              		.loc 1 52 9 view .LVU5
  48 0002 0223     		movs	r3, #2
  48:../../Middlewares/Camera_Middleware/sensors/cmw_vd66gy.c ****   uint8_t data[2];
  49              		.loc 1 48 1 view .LVU6
  50 0004 1446     		mov	r4, r2
  51              		.loc 1 52 9 view .LVU7
  52 0006 D0F83051 		ldr	r5, [r0, #304]
  53 000a 01AA     		add	r2, sp, #4
  54              	.LVL1:
  55              		.loc 1 52 9 view .LVU8
  56 000c 0088     		ldrh	r0, [r0]
  57              	.LVL2:
  58              		.loc 1 52 9 view .LVU9
  59 000e A847     		blx	r5
  60              	.LVL3:
  53:../../Middlewares/Camera_Middleware/sensors/cmw_vd66gy.c ****   if (ret)
ARM GAS  C:\Users\Antonio\AppData\Local\Temp\ccO3q7yr.s 			page 3


  61              		.loc 1 53 3 is_stmt 1 view .LVU10
  62              		.loc 1 53 6 is_stmt 0 view .LVU11
  63 0010 10B9     		cbnz	r0, .L1
  54:../../Middlewares/Camera_Middleware/sensors/cmw_vd66gy.c ****     return ret;
  55:../../Middlewares/Camera_Middleware/sensors/cmw_vd66gy.c **** 
  56:../../Middlewares/Camera_Middleware/sensors/cmw_vd66gy.c ****   *value = (data[1] << 8) | data[0];
  64              		.loc 1 56 3 is_stmt 1 view .LVU12
  65              		.loc 1 56 10 is_stmt 0 view .LVU13
  66 0012 BDF80430 		ldrh	r3, [sp, #4]
  67 0016 2380     		strh	r3, [r4]	@ movhi
  57:../../Middlewares/Camera_Middleware/sensors/cmw_vd66gy.c **** 
  58:../../Middlewares/Camera_Middleware/sensors/cmw_vd66gy.c ****   return CMW_ERROR_NONE;
  68              		.loc 1 58 3 is_stmt 1 view .LVU14
  69              	.L1:
  59:../../Middlewares/Camera_Middleware/sensors/cmw_vd66gy.c **** }
  70              		.loc 1 59 1 is_stmt 0 view .LVU15
  71 0018 03B0     		add	sp, sp, #12
  72              		.cfi_def_cfa_offset 12
  73              		@ sp needed
  74 001a 30BD     		pop	{r4, r5, pc}
  75              		.loc 1 59 1 view .LVU16
  76              		.cfi_endproc
  77              	.LFE3343:
  79              		.section	.text.VD6G_ShutdownPin,"ax",%progbits
  80              		.align	1
  81              		.syntax unified
  82              		.thumb
  83              		.thumb_func
  85              	VD6G_ShutdownPin:
  86              	.LVL4:
  87              	.LFB3348:
  60:../../Middlewares/Camera_Middleware/sensors/cmw_vd66gy.c **** 
  61:../../Middlewares/Camera_Middleware/sensors/cmw_vd66gy.c **** static int CMW_VD66GY_Read32(CMW_VD66GY_t *pObj, uint16_t addr, uint32_t *value)
  62:../../Middlewares/Camera_Middleware/sensors/cmw_vd66gy.c **** {
  63:../../Middlewares/Camera_Middleware/sensors/cmw_vd66gy.c ****   uint8_t data[4];
  64:../../Middlewares/Camera_Middleware/sensors/cmw_vd66gy.c ****   int ret;
  65:../../Middlewares/Camera_Middleware/sensors/cmw_vd66gy.c **** 
  66:../../Middlewares/Camera_Middleware/sensors/cmw_vd66gy.c ****   ret = pObj->ReadReg(pObj->Address, addr, data, 4);
  67:../../Middlewares/Camera_Middleware/sensors/cmw_vd66gy.c ****   if (ret)
  68:../../Middlewares/Camera_Middleware/sensors/cmw_vd66gy.c ****     return ret;
  69:../../Middlewares/Camera_Middleware/sensors/cmw_vd66gy.c **** 
  70:../../Middlewares/Camera_Middleware/sensors/cmw_vd66gy.c ****   *value = (data[3] << 24) | (data[2] << 16) | (data[1] << 8) | data[0];
  71:../../Middlewares/Camera_Middleware/sensors/cmw_vd66gy.c **** 
  72:../../Middlewares/Camera_Middleware/sensors/cmw_vd66gy.c ****   return 0;
  73:../../Middlewares/Camera_Middleware/sensors/cmw_vd66gy.c **** }
  74:../../Middlewares/Camera_Middleware/sensors/cmw_vd66gy.c **** 
  75:../../Middlewares/Camera_Middleware/sensors/cmw_vd66gy.c **** static int CMW_VD66GY_Write8(CMW_VD66GY_t *pObj, uint16_t addr, uint8_t value)
  76:../../Middlewares/Camera_Middleware/sensors/cmw_vd66gy.c **** {
  77:../../Middlewares/Camera_Middleware/sensors/cmw_vd66gy.c ****   return pObj->WriteReg(pObj->Address, addr, &value, 1);
  78:../../Middlewares/Camera_Middleware/sensors/cmw_vd66gy.c **** }
  79:../../Middlewares/Camera_Middleware/sensors/cmw_vd66gy.c **** 
  80:../../Middlewares/Camera_Middleware/sensors/cmw_vd66gy.c **** static int CMW_VD66GY_Write16(CMW_VD66GY_t *pObj, uint16_t addr, uint16_t value)
  81:../../Middlewares/Camera_Middleware/sensors/cmw_vd66gy.c **** {
  82:../../Middlewares/Camera_Middleware/sensors/cmw_vd66gy.c ****   return pObj->WriteReg(pObj->Address, addr, (uint8_t *) &value, 2);
  83:../../Middlewares/Camera_Middleware/sensors/cmw_vd66gy.c **** }
  84:../../Middlewares/Camera_Middleware/sensors/cmw_vd66gy.c **** 
  85:../../Middlewares/Camera_Middleware/sensors/cmw_vd66gy.c **** static int CMW_VD66GY_Write32(CMW_VD66GY_t *pObj, uint16_t addr, uint32_t value)
ARM GAS  C:\Users\Antonio\AppData\Local\Temp\ccO3q7yr.s 			page 4


  86:../../Middlewares/Camera_Middleware/sensors/cmw_vd66gy.c **** {
  87:../../Middlewares/Camera_Middleware/sensors/cmw_vd66gy.c ****   return pObj->WriteReg(pObj->Address, addr, (uint8_t *) &value, 4);
  88:../../Middlewares/Camera_Middleware/sensors/cmw_vd66gy.c **** }
  89:../../Middlewares/Camera_Middleware/sensors/cmw_vd66gy.c **** 
  90:../../Middlewares/Camera_Middleware/sensors/cmw_vd66gy.c **** static void VD6G_ShutdownPin(struct VD6G_Ctx *ctx, int value)
  91:../../Middlewares/Camera_Middleware/sensors/cmw_vd66gy.c **** {
  88              		.loc 1 91 1 is_stmt 1 view -0
  89              		.cfi_startproc
  90              		@ args = 0, pretend = 0, frame = 0
  91              		@ frame_needed = 0, uses_anonymous_args = 0
  92              		@ link register save eliminated.
  92:../../Middlewares/Camera_Middleware/sensors/cmw_vd66gy.c ****   CMW_VD66GY_t *p_ctx = container_of(ctx, CMW_VD66GY_t, ctx_driver);
  93              		.loc 1 92 3 view .LVU18
  93:../../Middlewares/Camera_Middleware/sensors/cmw_vd66gy.c **** 
  94:../../Middlewares/Camera_Middleware/sensors/cmw_vd66gy.c ****   p_ctx->ShutdownPin(value);
  94              		.loc 1 94 3 view .LVU19
  95 0000 D0F83431 		ldr	r3, [r0, #308]
  96 0004 0846     		mov	r0, r1
  97              	.LVL5:
  98              		.loc 1 94 3 is_stmt 0 view .LVU20
  99 0006 1847     		bx	r3	@ indirect register sibling call
 100              	.LVL6:
 101              		.loc 1 94 3 view .LVU21
 102              		.cfi_endproc
 103              	.LFE3348:
 105              		.section	.text.VD6G_Read8,"ax",%progbits
 106              		.align	1
 107              		.syntax unified
 108              		.thumb
 109              		.thumb_func
 111              	VD6G_Read8:
 112              	.LVL7:
 113              	.LFB3349:
  95:../../Middlewares/Camera_Middleware/sensors/cmw_vd66gy.c **** }
  96:../../Middlewares/Camera_Middleware/sensors/cmw_vd66gy.c **** 
  97:../../Middlewares/Camera_Middleware/sensors/cmw_vd66gy.c **** static int VD6G_Read8(struct VD6G_Ctx *ctx, uint16_t addr, uint8_t *value)
  98:../../Middlewares/Camera_Middleware/sensors/cmw_vd66gy.c **** {
 114              		.loc 1 98 1 is_stmt 1 view -0
 115              		.cfi_startproc
 116              		@ args = 0, pretend = 0, frame = 0
 117              		@ frame_needed = 0, uses_anonymous_args = 0
 118              		@ link register save eliminated.
  99:../../Middlewares/Camera_Middleware/sensors/cmw_vd66gy.c ****   CMW_VD66GY_t *p_ctx = container_of(ctx, CMW_VD66GY_t, ctx_driver);
 119              		.loc 1 99 3 view .LVU23
 100:../../Middlewares/Camera_Middleware/sensors/cmw_vd66gy.c **** 
 101:../../Middlewares/Camera_Middleware/sensors/cmw_vd66gy.c ****   return CMW_VD66GY_Read8(p_ctx, addr, value);
 120              		.loc 1 101 3 view .LVU24
 121              	.LBB6:
 122              	.LBI6:
  42:../../Middlewares/Camera_Middleware/sensors/cmw_vd66gy.c **** {
 123              		.loc 1 42 12 view .LVU25
 124              	.LBB7:
  44:../../Middlewares/Camera_Middleware/sensors/cmw_vd66gy.c **** }
 125              		.loc 1 44 3 view .LVU26
 126              	.LBE7:
 127              	.LBE6:
  98:../../Middlewares/Camera_Middleware/sensors/cmw_vd66gy.c ****   CMW_VD66GY_t *p_ctx = container_of(ctx, CMW_VD66GY_t, ctx_driver);
ARM GAS  C:\Users\Antonio\AppData\Local\Temp\ccO3q7yr.s 			page 5


 128              		.loc 1 98 1 is_stmt 0 view .LVU27
 129 0000 10B4     		push	{r4}
 130              		.cfi_def_cfa_offset 4
 131              		.cfi_offset 4, -4
 132              	.LBB10:
 133              	.LBB8:
  44:../../Middlewares/Camera_Middleware/sensors/cmw_vd66gy.c **** }
 134              		.loc 1 44 10 view .LVU28
 135 0002 D0F82841 		ldr	r4, [r0, #296]
 136 0006 0123     		movs	r3, #1
 137 0008 A446     		mov	ip, r4
 138 000a 30F8080C 		ldrh	r0, [r0, #-8]
 139              	.LVL8:
  44:../../Middlewares/Camera_Middleware/sensors/cmw_vd66gy.c **** }
 140              		.loc 1 44 10 view .LVU29
 141              	.LBE8:
 142              	.LBE10:
 102:../../Middlewares/Camera_Middleware/sensors/cmw_vd66gy.c **** }
 143              		.loc 1 102 1 view .LVU30
 144 000e 5DF8044B 		ldr	r4, [sp], #4
 145              		.cfi_restore 4
 146              		.cfi_def_cfa_offset 0
 147              	.LBB11:
 148              	.LBB9:
  44:../../Middlewares/Camera_Middleware/sensors/cmw_vd66gy.c **** }
 149              		.loc 1 44 10 view .LVU31
 150 0012 6047     		bx	ip
 151              	.LVL9:
  44:../../Middlewares/Camera_Middleware/sensors/cmw_vd66gy.c **** }
 152              		.loc 1 44 10 view .LVU32
 153              	.LBE9:
 154              	.LBE11:
 155              		.cfi_endproc
 156              	.LFE3349:
 158              		.section	.text.VD6G_Read16,"ax",%progbits
 159              		.align	1
 160              		.syntax unified
 161              		.thumb
 162              		.thumb_func
 164              	VD6G_Read16:
 165              	.LVL10:
 166              	.LFB3350:
 103:../../Middlewares/Camera_Middleware/sensors/cmw_vd66gy.c **** 
 104:../../Middlewares/Camera_Middleware/sensors/cmw_vd66gy.c **** static int VD6G_Read16(struct VD6G_Ctx *ctx, uint16_t addr, uint16_t *value)
 105:../../Middlewares/Camera_Middleware/sensors/cmw_vd66gy.c **** {
 167              		.loc 1 105 1 is_stmt 1 view -0
 168              		.cfi_startproc
 169              		@ args = 0, pretend = 0, frame = 0
 170              		@ frame_needed = 0, uses_anonymous_args = 0
 171              		@ link register save eliminated.
 106:../../Middlewares/Camera_Middleware/sensors/cmw_vd66gy.c ****   CMW_VD66GY_t *p_ctx = container_of(ctx, CMW_VD66GY_t, ctx_driver);
 172              		.loc 1 106 3 view .LVU34
 107:../../Middlewares/Camera_Middleware/sensors/cmw_vd66gy.c **** 
 108:../../Middlewares/Camera_Middleware/sensors/cmw_vd66gy.c ****   return CMW_VD66GY_Read16(p_ctx, addr, value);
 173              		.loc 1 108 3 view .LVU35
 174              		.loc 1 108 10 is_stmt 0 view .LVU36
 175 0000 0838     		subs	r0, r0, #8
ARM GAS  C:\Users\Antonio\AppData\Local\Temp\ccO3q7yr.s 			page 6


 176              	.LVL11:
 177              		.loc 1 108 10 view .LVU37
 178 0002 FFF7FEBF 		b	CMW_VD66GY_Read16
 179              	.LVL12:
 180              		.loc 1 108 10 view .LVU38
 181              		.cfi_endproc
 182              	.LFE3350:
 184              		.section	.text.VD6G_Read32,"ax",%progbits
 185              		.align	1
 186              		.syntax unified
 187              		.thumb
 188              		.thumb_func
 190              	VD6G_Read32:
 191              	.LVL13:
 192              	.LFB3351:
 109:../../Middlewares/Camera_Middleware/sensors/cmw_vd66gy.c **** }
 110:../../Middlewares/Camera_Middleware/sensors/cmw_vd66gy.c **** 
 111:../../Middlewares/Camera_Middleware/sensors/cmw_vd66gy.c **** static int VD6G_Read32(struct VD6G_Ctx *ctx, uint16_t addr, uint32_t *value)
 112:../../Middlewares/Camera_Middleware/sensors/cmw_vd66gy.c **** {
 193              		.loc 1 112 1 is_stmt 1 view -0
 194              		.cfi_startproc
 195              		@ args = 0, pretend = 0, frame = 8
 196              		@ frame_needed = 0, uses_anonymous_args = 0
 113:../../Middlewares/Camera_Middleware/sensors/cmw_vd66gy.c ****   CMW_VD66GY_t *p_ctx = container_of(ctx, CMW_VD66GY_t, ctx_driver);
 197              		.loc 1 113 3 view .LVU40
 114:../../Middlewares/Camera_Middleware/sensors/cmw_vd66gy.c **** 
 115:../../Middlewares/Camera_Middleware/sensors/cmw_vd66gy.c ****   return CMW_VD66GY_Read32(p_ctx, addr, value);
 198              		.loc 1 115 3 view .LVU41
 199              	.LBB14:
 200              	.LBB15:
  66:../../Middlewares/Camera_Middleware/sensors/cmw_vd66gy.c ****   if (ret)
 201              		.loc 1 66 9 is_stmt 0 view .LVU42
 202 0000 0423     		movs	r3, #4
 203              	.LBE15:
 204              	.LBE14:
 112:../../Middlewares/Camera_Middleware/sensors/cmw_vd66gy.c ****   CMW_VD66GY_t *p_ctx = container_of(ctx, CMW_VD66GY_t, ctx_driver);
 205              		.loc 1 112 1 view .LVU43
 206 0002 37B5     		push	{r0, r1, r2, r4, r5, lr}
 207              		.cfi_def_cfa_offset 24
 208              		.cfi_offset 4, -12
 209              		.cfi_offset 5, -8
 210              		.cfi_offset 14, -4
 112:../../Middlewares/Camera_Middleware/sensors/cmw_vd66gy.c ****   CMW_VD66GY_t *p_ctx = container_of(ctx, CMW_VD66GY_t, ctx_driver);
 211              		.loc 1 112 1 view .LVU44
 212 0004 1446     		mov	r4, r2
 213              	.LVL14:
 214              	.LBB17:
 215              	.LBI14:
  61:../../Middlewares/Camera_Middleware/sensors/cmw_vd66gy.c **** {
 216              		.loc 1 61 12 is_stmt 1 view .LVU45
 217              	.LBB16:
  63:../../Middlewares/Camera_Middleware/sensors/cmw_vd66gy.c ****   int ret;
 218              		.loc 1 63 3 view .LVU46
  64:../../Middlewares/Camera_Middleware/sensors/cmw_vd66gy.c **** 
 219              		.loc 1 64 3 view .LVU47
  66:../../Middlewares/Camera_Middleware/sensors/cmw_vd66gy.c ****   if (ret)
 220              		.loc 1 66 3 view .LVU48
ARM GAS  C:\Users\Antonio\AppData\Local\Temp\ccO3q7yr.s 			page 7


  66:../../Middlewares/Camera_Middleware/sensors/cmw_vd66gy.c ****   if (ret)
 221              		.loc 1 66 9 is_stmt 0 view .LVU49
 222 0006 D0F82851 		ldr	r5, [r0, #296]
 223 000a 0DEB0302 		add	r2, sp, r3
 224              	.LVL15:
  66:../../Middlewares/Camera_Middleware/sensors/cmw_vd66gy.c ****   if (ret)
 225              		.loc 1 66 9 view .LVU50
 226 000e 30F8080C 		ldrh	r0, [r0, #-8]
 227              	.LVL16:
  66:../../Middlewares/Camera_Middleware/sensors/cmw_vd66gy.c ****   if (ret)
 228              		.loc 1 66 9 view .LVU51
 229 0012 A847     		blx	r5
 230              	.LVL17:
  67:../../Middlewares/Camera_Middleware/sensors/cmw_vd66gy.c ****     return ret;
 231              		.loc 1 67 3 is_stmt 1 view .LVU52
  67:../../Middlewares/Camera_Middleware/sensors/cmw_vd66gy.c ****     return ret;
 232              		.loc 1 67 6 is_stmt 0 view .LVU53
 233 0014 08B9     		cbnz	r0, .L6
  70:../../Middlewares/Camera_Middleware/sensors/cmw_vd66gy.c **** 
 234              		.loc 1 70 3 is_stmt 1 view .LVU54
  70:../../Middlewares/Camera_Middleware/sensors/cmw_vd66gy.c **** 
 235              		.loc 1 70 10 is_stmt 0 view .LVU55
 236 0016 019B     		ldr	r3, [sp, #4]
 237 0018 2360     		str	r3, [r4]
  72:../../Middlewares/Camera_Middleware/sensors/cmw_vd66gy.c **** }
 238              		.loc 1 72 3 is_stmt 1 view .LVU56
 239              	.LVL18:
 240              	.L6:
  72:../../Middlewares/Camera_Middleware/sensors/cmw_vd66gy.c **** }
 241              		.loc 1 72 3 is_stmt 0 view .LVU57
 242              	.LBE16:
 243              	.LBE17:
 116:../../Middlewares/Camera_Middleware/sensors/cmw_vd66gy.c **** }
 244              		.loc 1 116 1 view .LVU58
 245 001a 03B0     		add	sp, sp, #12
 246              		.cfi_def_cfa_offset 12
 247              		@ sp needed
 248 001c 30BD     		pop	{r4, r5, pc}
 249              		.loc 1 116 1 view .LVU59
 250              		.cfi_endproc
 251              	.LFE3351:
 253              		.section	.text.VD6G_Write8,"ax",%progbits
 254              		.align	1
 255              		.syntax unified
 256              		.thumb
 257              		.thumb_func
 259              	VD6G_Write8:
 260              	.LVL19:
 261              	.LFB3352:
 117:../../Middlewares/Camera_Middleware/sensors/cmw_vd66gy.c **** 
 118:../../Middlewares/Camera_Middleware/sensors/cmw_vd66gy.c **** static int VD6G_Write8(struct VD6G_Ctx *ctx, uint16_t addr, uint8_t value)
 119:../../Middlewares/Camera_Middleware/sensors/cmw_vd66gy.c **** {
 262              		.loc 1 119 1 is_stmt 1 view -0
 263              		.cfi_startproc
 264              		@ args = 0, pretend = 0, frame = 8
 265              		@ frame_needed = 0, uses_anonymous_args = 0
 120:../../Middlewares/Camera_Middleware/sensors/cmw_vd66gy.c ****   CMW_VD66GY_t *p_ctx = container_of(ctx, CMW_VD66GY_t, ctx_driver);
ARM GAS  C:\Users\Antonio\AppData\Local\Temp\ccO3q7yr.s 			page 8


 266              		.loc 1 120 3 view .LVU61
 121:../../Middlewares/Camera_Middleware/sensors/cmw_vd66gy.c **** 
 122:../../Middlewares/Camera_Middleware/sensors/cmw_vd66gy.c ****   return CMW_VD66GY_Write8(p_ctx, addr, value);
 267              		.loc 1 122 3 view .LVU62
 119:../../Middlewares/Camera_Middleware/sensors/cmw_vd66gy.c ****   CMW_VD66GY_t *p_ctx = container_of(ctx, CMW_VD66GY_t, ctx_driver);
 268              		.loc 1 119 1 is_stmt 0 view .LVU63
 269 0000 13B5     		push	{r0, r1, r4, lr}
 270              		.cfi_def_cfa_offset 16
 271              		.cfi_offset 4, -8
 272              		.cfi_offset 14, -4
 273              	.LBB20:
 274              	.LBB21:
  77:../../Middlewares/Camera_Middleware/sensors/cmw_vd66gy.c **** }
 275              		.loc 1 77 10 view .LVU64
 276 0002 0123     		movs	r3, #1
 277 0004 D0F82441 		ldr	r4, [r0, #292]
 278 0008 8DF80720 		strb	r2, [sp, #7]
 279              	.LVL20:
  77:../../Middlewares/Camera_Middleware/sensors/cmw_vd66gy.c **** }
 280              		.loc 1 77 10 view .LVU65
 281              	.LBE21:
 282              	.LBI20:
  75:../../Middlewares/Camera_Middleware/sensors/cmw_vd66gy.c **** {
 283              		.loc 1 75 12 is_stmt 1 view .LVU66
 284              	.LBB22:
  77:../../Middlewares/Camera_Middleware/sensors/cmw_vd66gy.c **** }
 285              		.loc 1 77 3 view .LVU67
  77:../../Middlewares/Camera_Middleware/sensors/cmw_vd66gy.c **** }
 286              		.loc 1 77 10 is_stmt 0 view .LVU68
 287 000c 30F8080C 		ldrh	r0, [r0, #-8]
 288              	.LVL21:
  77:../../Middlewares/Camera_Middleware/sensors/cmw_vd66gy.c **** }
 289              		.loc 1 77 10 view .LVU69
 290 0010 0DF10702 		add	r2, sp, #7
 291              	.LVL22:
  77:../../Middlewares/Camera_Middleware/sensors/cmw_vd66gy.c **** }
 292              		.loc 1 77 10 view .LVU70
 293 0014 A047     		blx	r4
 294              	.LVL23:
  77:../../Middlewares/Camera_Middleware/sensors/cmw_vd66gy.c **** }
 295              		.loc 1 77 10 view .LVU71
 296              	.LBE22:
 297              	.LBE20:
 123:../../Middlewares/Camera_Middleware/sensors/cmw_vd66gy.c **** }
 298              		.loc 1 123 1 view .LVU72
 299 0016 02B0     		add	sp, sp, #8
 300              		.cfi_def_cfa_offset 8
 301              		@ sp needed
 302 0018 10BD     		pop	{r4, pc}
 303              		.cfi_endproc
 304              	.LFE3352:
 306              		.section	.text.VD6G_Write16,"ax",%progbits
 307              		.align	1
 308              		.syntax unified
 309              		.thumb
 310              		.thumb_func
 312              	VD6G_Write16:
ARM GAS  C:\Users\Antonio\AppData\Local\Temp\ccO3q7yr.s 			page 9


 313              	.LVL24:
 314              	.LFB3353:
 124:../../Middlewares/Camera_Middleware/sensors/cmw_vd66gy.c **** 
 125:../../Middlewares/Camera_Middleware/sensors/cmw_vd66gy.c **** static int VD6G_Write16(struct VD6G_Ctx *ctx, uint16_t addr, uint16_t value)
 126:../../Middlewares/Camera_Middleware/sensors/cmw_vd66gy.c **** {
 315              		.loc 1 126 1 is_stmt 1 view -0
 316              		.cfi_startproc
 317              		@ args = 0, pretend = 0, frame = 8
 318              		@ frame_needed = 0, uses_anonymous_args = 0
 127:../../Middlewares/Camera_Middleware/sensors/cmw_vd66gy.c ****   CMW_VD66GY_t *p_ctx = container_of(ctx, CMW_VD66GY_t, ctx_driver);
 319              		.loc 1 127 3 view .LVU74
 128:../../Middlewares/Camera_Middleware/sensors/cmw_vd66gy.c **** 
 129:../../Middlewares/Camera_Middleware/sensors/cmw_vd66gy.c ****   return CMW_VD66GY_Write16(p_ctx, addr, value);
 320              		.loc 1 129 3 view .LVU75
 126:../../Middlewares/Camera_Middleware/sensors/cmw_vd66gy.c ****   CMW_VD66GY_t *p_ctx = container_of(ctx, CMW_VD66GY_t, ctx_driver);
 321              		.loc 1 126 1 is_stmt 0 view .LVU76
 322 0000 13B5     		push	{r0, r1, r4, lr}
 323              		.cfi_def_cfa_offset 16
 324              		.cfi_offset 4, -8
 325              		.cfi_offset 14, -4
 326              	.LBB25:
 327              	.LBB26:
  82:../../Middlewares/Camera_Middleware/sensors/cmw_vd66gy.c **** }
 328              		.loc 1 82 10 view .LVU77
 329 0002 0223     		movs	r3, #2
 330 0004 D0F82441 		ldr	r4, [r0, #292]
 331 0008 ADF80620 		strh	r2, [sp, #6]	@ movhi
 332              	.LVL25:
  82:../../Middlewares/Camera_Middleware/sensors/cmw_vd66gy.c **** }
 333              		.loc 1 82 10 view .LVU78
 334              	.LBE26:
 335              	.LBI25:
  80:../../Middlewares/Camera_Middleware/sensors/cmw_vd66gy.c **** {
 336              		.loc 1 80 12 is_stmt 1 view .LVU79
 337              	.LBB27:
  82:../../Middlewares/Camera_Middleware/sensors/cmw_vd66gy.c **** }
 338              		.loc 1 82 3 view .LVU80
  82:../../Middlewares/Camera_Middleware/sensors/cmw_vd66gy.c **** }
 339              		.loc 1 82 10 is_stmt 0 view .LVU81
 340 000c 30F8080C 		ldrh	r0, [r0, #-8]
 341              	.LVL26:
  82:../../Middlewares/Camera_Middleware/sensors/cmw_vd66gy.c **** }
 342              		.loc 1 82 10 view .LVU82
 343 0010 0DF10602 		add	r2, sp, #6
 344              	.LVL27:
  82:../../Middlewares/Camera_Middleware/sensors/cmw_vd66gy.c **** }
 345              		.loc 1 82 10 view .LVU83
 346 0014 A047     		blx	r4
 347              	.LVL28:
  82:../../Middlewares/Camera_Middleware/sensors/cmw_vd66gy.c **** }
 348              		.loc 1 82 10 view .LVU84
 349              	.LBE27:
 350              	.LBE25:
 130:../../Middlewares/Camera_Middleware/sensors/cmw_vd66gy.c **** }
 351              		.loc 1 130 1 view .LVU85
 352 0016 02B0     		add	sp, sp, #8
 353              		.cfi_def_cfa_offset 8
ARM GAS  C:\Users\Antonio\AppData\Local\Temp\ccO3q7yr.s 			page 10


 354              		@ sp needed
 355 0018 10BD     		pop	{r4, pc}
 356              		.cfi_endproc
 357              	.LFE3353:
 359              		.section	.text.VD6G_Write32,"ax",%progbits
 360              		.align	1
 361              		.syntax unified
 362              		.thumb
 363              		.thumb_func
 365              	VD6G_Write32:
 366              	.LVL29:
 367              	.LFB3354:
 131:../../Middlewares/Camera_Middleware/sensors/cmw_vd66gy.c **** 
 132:../../Middlewares/Camera_Middleware/sensors/cmw_vd66gy.c **** static int VD6G_Write32(struct VD6G_Ctx *ctx, uint16_t addr, uint32_t value)
 133:../../Middlewares/Camera_Middleware/sensors/cmw_vd66gy.c **** {
 368              		.loc 1 133 1 is_stmt 1 view -0
 369              		.cfi_startproc
 370              		@ args = 0, pretend = 0, frame = 8
 371              		@ frame_needed = 0, uses_anonymous_args = 0
 134:../../Middlewares/Camera_Middleware/sensors/cmw_vd66gy.c ****   CMW_VD66GY_t *p_ctx = container_of(ctx, CMW_VD66GY_t, ctx_driver);
 372              		.loc 1 134 3 view .LVU87
 135:../../Middlewares/Camera_Middleware/sensors/cmw_vd66gy.c **** 
 136:../../Middlewares/Camera_Middleware/sensors/cmw_vd66gy.c ****   return CMW_VD66GY_Write32(p_ctx, addr, value);
 373              		.loc 1 136 3 view .LVU88
 374              	.LBB30:
 375              	.LBB31:
  87:../../Middlewares/Camera_Middleware/sensors/cmw_vd66gy.c **** }
 376              		.loc 1 87 10 is_stmt 0 view .LVU89
 377 0000 0423     		movs	r3, #4
 378              	.LBE31:
 379              	.LBE30:
 133:../../Middlewares/Camera_Middleware/sensors/cmw_vd66gy.c ****   CMW_VD66GY_t *p_ctx = container_of(ctx, CMW_VD66GY_t, ctx_driver);
 380              		.loc 1 133 1 view .LVU90
 381 0002 13B5     		push	{r0, r1, r4, lr}
 382              		.cfi_def_cfa_offset 16
 383              		.cfi_offset 4, -8
 384              		.cfi_offset 14, -4
 385              	.LBB34:
 386              	.LBB32:
  87:../../Middlewares/Camera_Middleware/sensors/cmw_vd66gy.c **** }
 387              		.loc 1 87 10 view .LVU91
 388 0004 D0F82441 		ldr	r4, [r0, #292]
 389 0008 0192     		str	r2, [sp, #4]
 390              	.LVL30:
  87:../../Middlewares/Camera_Middleware/sensors/cmw_vd66gy.c **** }
 391              		.loc 1 87 10 view .LVU92
 392              	.LBE32:
 393              	.LBI30:
  85:../../Middlewares/Camera_Middleware/sensors/cmw_vd66gy.c **** {
 394              		.loc 1 85 12 is_stmt 1 view .LVU93
 395              	.LBB33:
  87:../../Middlewares/Camera_Middleware/sensors/cmw_vd66gy.c **** }
 396              		.loc 1 87 3 view .LVU94
  87:../../Middlewares/Camera_Middleware/sensors/cmw_vd66gy.c **** }
 397              		.loc 1 87 10 is_stmt 0 view .LVU95
 398 000a 30F8080C 		ldrh	r0, [r0, #-8]
 399              	.LVL31:
ARM GAS  C:\Users\Antonio\AppData\Local\Temp\ccO3q7yr.s 			page 11


  87:../../Middlewares/Camera_Middleware/sensors/cmw_vd66gy.c **** }
 400              		.loc 1 87 10 view .LVU96
 401 000e 0DEB0302 		add	r2, sp, r3
 402              	.LVL32:
  87:../../Middlewares/Camera_Middleware/sensors/cmw_vd66gy.c **** }
 403              		.loc 1 87 10 view .LVU97
 404 0012 A047     		blx	r4
 405              	.LVL33:
  87:../../Middlewares/Camera_Middleware/sensors/cmw_vd66gy.c **** }
 406              		.loc 1 87 10 view .LVU98
 407              	.LBE33:
 408              	.LBE34:
 137:../../Middlewares/Camera_Middleware/sensors/cmw_vd66gy.c **** }
 409              		.loc 1 137 1 view .LVU99
 410 0014 02B0     		add	sp, sp, #8
 411              		.cfi_def_cfa_offset 8
 412              		@ sp needed
 413 0016 10BD     		pop	{r4, pc}
 414              		.cfi_endproc
 415              	.LFE3354:
 417              		.section	.text.VD6G_WriteArray,"ax",%progbits
 418              		.align	1
 419              		.syntax unified
 420              		.thumb
 421              		.thumb_func
 423              	VD6G_WriteArray:
 424              	.LVL34:
 425              	.LFB3355:
 138:../../Middlewares/Camera_Middleware/sensors/cmw_vd66gy.c **** 
 139:../../Middlewares/Camera_Middleware/sensors/cmw_vd66gy.c **** static int VD6G_WriteArray(struct VD6G_Ctx *ctx, uint16_t addr, uint8_t *data, int data_len)
 140:../../Middlewares/Camera_Middleware/sensors/cmw_vd66gy.c **** {
 426              		.loc 1 140 1 is_stmt 1 view -0
 427              		.cfi_startproc
 428              		@ args = 0, pretend = 0, frame = 0
 429              		@ frame_needed = 0, uses_anonymous_args = 0
 430              		.loc 1 140 1 is_stmt 0 view .LVU101
 431 0000 2DE9F047 		push	{r4, r5, r6, r7, r8, r9, r10, lr}
 432              		.cfi_def_cfa_offset 32
 433              		.cfi_offset 4, -32
 434              		.cfi_offset 5, -28
 435              		.cfi_offset 6, -24
 436              		.cfi_offset 7, -20
 437              		.cfi_offset 8, -16
 438              		.cfi_offset 9, -12
 439              		.cfi_offset 10, -8
 440              		.cfi_offset 14, -4
 441 0004 8046     		mov	r8, r0
 442 0006 0D46     		mov	r5, r1
 443 0008 1646     		mov	r6, r2
 444 000a 1C46     		mov	r4, r3
 141:../../Middlewares/Camera_Middleware/sensors/cmw_vd66gy.c ****   CMW_VD66GY_t *p_ctx = container_of(ctx, CMW_VD66GY_t, ctx_driver);
 445              		.loc 1 141 3 is_stmt 1 view .LVU102
 446              	.LVL35:
 142:../../Middlewares/Camera_Middleware/sensors/cmw_vd66gy.c ****   const unsigned int chunk_size = 128;
 447              		.loc 1 142 3 view .LVU103
 143:../../Middlewares/Camera_Middleware/sensors/cmw_vd66gy.c ****   uint16_t sz;
 448              		.loc 1 143 3 view .LVU104
ARM GAS  C:\Users\Antonio\AppData\Local\Temp\ccO3q7yr.s 			page 12


 144:../../Middlewares/Camera_Middleware/sensors/cmw_vd66gy.c ****   int ret;
 449              		.loc 1 144 3 view .LVU105
 145:../../Middlewares/Camera_Middleware/sensors/cmw_vd66gy.c **** 
 146:../../Middlewares/Camera_Middleware/sensors/cmw_vd66gy.c ****   while (data_len) {
 450              		.loc 1 146 3 view .LVU106
 451              	.L12:
 452              		.loc 1 146 10 view .LVU107
 453 000c 14B9     		cbnz	r4, .L14
 147:../../Middlewares/Camera_Middleware/sensors/cmw_vd66gy.c ****     sz = MIN(data_len, chunk_size);
 148:../../Middlewares/Camera_Middleware/sensors/cmw_vd66gy.c ****     ret = p_ctx->WriteReg(p_ctx->Address, addr, data, sz);
 149:../../Middlewares/Camera_Middleware/sensors/cmw_vd66gy.c ****     if (ret)
 150:../../Middlewares/Camera_Middleware/sensors/cmw_vd66gy.c ****       return ret;
 151:../../Middlewares/Camera_Middleware/sensors/cmw_vd66gy.c ****     data_len -= sz;
 152:../../Middlewares/Camera_Middleware/sensors/cmw_vd66gy.c ****     addr += sz;
 153:../../Middlewares/Camera_Middleware/sensors/cmw_vd66gy.c ****     data += sz;
 154:../../Middlewares/Camera_Middleware/sensors/cmw_vd66gy.c ****   }
 155:../../Middlewares/Camera_Middleware/sensors/cmw_vd66gy.c **** 
 156:../../Middlewares/Camera_Middleware/sensors/cmw_vd66gy.c ****   return 0;
 454              		.loc 1 156 10 is_stmt 0 view .LVU108
 455 000e 2046     		mov	r0, r4
 456              	.L11:
 157:../../Middlewares/Camera_Middleware/sensors/cmw_vd66gy.c **** }
 457              		.loc 1 157 1 view .LVU109
 458 0010 BDE8F087 		pop	{r4, r5, r6, r7, r8, r9, r10, pc}
 459              	.LVL36:
 460              	.L14:
 147:../../Middlewares/Camera_Middleware/sensors/cmw_vd66gy.c ****     sz = MIN(data_len, chunk_size);
 461              		.loc 1 147 5 is_stmt 1 view .LVU110
 147:../../Middlewares/Camera_Middleware/sensors/cmw_vd66gy.c ****     sz = MIN(data_len, chunk_size);
 462              		.loc 1 147 10 is_stmt 0 view .LVU111
 463 0014 802C     		cmp	r4, #128
 464 0016 A146     		mov	r9, r4
 465 0018 28BF     		it	cs
 466 001a 4FF08009 		movcs	r9, #128
 147:../../Middlewares/Camera_Middleware/sensors/cmw_vd66gy.c ****     sz = MIN(data_len, chunk_size);
 467              		.loc 1 147 8 view .LVU112
 468 001e 1FFA89FA 		uxth	r10, r9
 469              	.LVL37:
 148:../../Middlewares/Camera_Middleware/sensors/cmw_vd66gy.c ****     if (ret)
 470              		.loc 1 148 5 is_stmt 1 view .LVU113
 148:../../Middlewares/Camera_Middleware/sensors/cmw_vd66gy.c ****     if (ret)
 471              		.loc 1 148 11 is_stmt 0 view .LVU114
 472 0022 5346     		mov	r3, r10
 473 0024 3246     		mov	r2, r6
 474 0026 2946     		mov	r1, r5
 475 0028 D8F82471 		ldr	r7, [r8, #292]
 476 002c 38F8080C 		ldrh	r0, [r8, #-8]
 477 0030 B847     		blx	r7
 478              	.LVL38:
 149:../../Middlewares/Camera_Middleware/sensors/cmw_vd66gy.c ****       return ret;
 479              		.loc 1 149 5 is_stmt 1 view .LVU115
 149:../../Middlewares/Camera_Middleware/sensors/cmw_vd66gy.c ****       return ret;
 480              		.loc 1 149 8 is_stmt 0 view .LVU116
 481 0032 0028     		cmp	r0, #0
 482 0034 ECD1     		bne	.L11
 151:../../Middlewares/Camera_Middleware/sensors/cmw_vd66gy.c ****     addr += sz;
 483              		.loc 1 151 5 is_stmt 1 view .LVU117
ARM GAS  C:\Users\Antonio\AppData\Local\Temp\ccO3q7yr.s 			page 13


 152:../../Middlewares/Camera_Middleware/sensors/cmw_vd66gy.c ****     data += sz;
 484              		.loc 1 152 10 is_stmt 0 view .LVU118
 485 0036 AA44     		add	r10, r10, r5
 486              	.LVL39:
 151:../../Middlewares/Camera_Middleware/sensors/cmw_vd66gy.c ****     addr += sz;
 487              		.loc 1 151 14 view .LVU119
 488 0038 A4EB0904 		sub	r4, r4, r9
 489              	.LVL40:
 152:../../Middlewares/Camera_Middleware/sensors/cmw_vd66gy.c ****     data += sz;
 490              		.loc 1 152 5 is_stmt 1 view .LVU120
 152:../../Middlewares/Camera_Middleware/sensors/cmw_vd66gy.c ****     data += sz;
 491              		.loc 1 152 10 is_stmt 0 view .LVU121
 492 003c 1FFA8AF5 		uxth	r5, r10
 493              	.LVL41:
 153:../../Middlewares/Camera_Middleware/sensors/cmw_vd66gy.c ****   }
 494              		.loc 1 153 5 is_stmt 1 view .LVU122
 153:../../Middlewares/Camera_Middleware/sensors/cmw_vd66gy.c ****   }
 495              		.loc 1 153 10 is_stmt 0 view .LVU123
 496 0040 4E44     		add	r6, r6, r9
 497              	.LVL42:
 153:../../Middlewares/Camera_Middleware/sensors/cmw_vd66gy.c ****   }
 498              		.loc 1 153 10 view .LVU124
 499 0042 E3E7     		b	.L12
 500              		.cfi_endproc
 501              	.LFE3355:
 503              		.section	.text.VD6G_Delay,"ax",%progbits
 504              		.align	1
 505              		.syntax unified
 506              		.thumb
 507              		.thumb_func
 509              	VD6G_Delay:
 510              	.LVL43:
 511              	.LFB3356:
 158:../../Middlewares/Camera_Middleware/sensors/cmw_vd66gy.c **** 
 159:../../Middlewares/Camera_Middleware/sensors/cmw_vd66gy.c **** static void VD6G_Delay(struct VD6G_Ctx *ctx, uint32_t delay_in_ms)
 160:../../Middlewares/Camera_Middleware/sensors/cmw_vd66gy.c **** {
 512              		.loc 1 160 1 is_stmt 1 view -0
 513              		.cfi_startproc
 514              		@ args = 0, pretend = 0, frame = 0
 515              		@ frame_needed = 0, uses_anonymous_args = 0
 516              		@ link register save eliminated.
 161:../../Middlewares/Camera_Middleware/sensors/cmw_vd66gy.c ****   CMW_VD66GY_t *p_ctx = container_of(ctx, CMW_VD66GY_t, ctx_driver);
 517              		.loc 1 161 3 view .LVU126
 162:../../Middlewares/Camera_Middleware/sensors/cmw_vd66gy.c **** 
 163:../../Middlewares/Camera_Middleware/sensors/cmw_vd66gy.c ****   p_ctx->Delay(delay_in_ms);
 518              		.loc 1 163 3 view .LVU127
 519 0000 D0F83031 		ldr	r3, [r0, #304]
 520 0004 0846     		mov	r0, r1
 521              	.LVL44:
 522              		.loc 1 163 3 is_stmt 0 view .LVU128
 523 0006 1847     		bx	r3	@ indirect register sibling call
 524              	.LVL45:
 525              		.loc 1 163 3 view .LVU129
 526              		.cfi_endproc
 527              	.LFE3356:
 529              		.section	.text.VD6G_Log,"ax",%progbits
 530              		.align	1
ARM GAS  C:\Users\Antonio\AppData\Local\Temp\ccO3q7yr.s 			page 14


 531              		.syntax unified
 532              		.thumb
 533              		.thumb_func
 535              	VD6G_Log:
 536              	.LVL46:
 537              	.LFB3357:
 164:../../Middlewares/Camera_Middleware/sensors/cmw_vd66gy.c **** }
 165:../../Middlewares/Camera_Middleware/sensors/cmw_vd66gy.c **** 
 166:../../Middlewares/Camera_Middleware/sensors/cmw_vd66gy.c **** static void VD6G_Log(struct VD6G_Ctx *ctx, int lvl, const char *format, va_list ap)
 167:../../Middlewares/Camera_Middleware/sensors/cmw_vd66gy.c **** {
 538              		.loc 1 167 1 is_stmt 1 view -0
 539              		.cfi_startproc
 540              		@ args = 0, pretend = 0, frame = 0
 541              		@ frame_needed = 0, uses_anonymous_args = 0
 542              		@ link register save eliminated.
 168:../../Middlewares/Camera_Middleware/sensors/cmw_vd66gy.c **** #if 0
 169:../../Middlewares/Camera_Middleware/sensors/cmw_vd66gy.c ****   const int current_lvl = VD6G_LVL_DBG(0);
 170:../../Middlewares/Camera_Middleware/sensors/cmw_vd66gy.c **** 
 171:../../Middlewares/Camera_Middleware/sensors/cmw_vd66gy.c ****   if (lvl > current_lvl)
 172:../../Middlewares/Camera_Middleware/sensors/cmw_vd66gy.c ****     return ;
 173:../../Middlewares/Camera_Middleware/sensors/cmw_vd66gy.c **** 
 174:../../Middlewares/Camera_Middleware/sensors/cmw_vd66gy.c ****   vprintf(format, ap);
 175:../../Middlewares/Camera_Middleware/sensors/cmw_vd66gy.c **** #endif
 176:../../Middlewares/Camera_Middleware/sensors/cmw_vd66gy.c **** }
 543              		.loc 1 176 1 view .LVU131
 544 0000 7047     		bx	lr
 545              		.cfi_endproc
 546              	.LFE3357:
 548              		.section	.text.CMW_VD66GY_FrameEventCallback,"ax",%progbits
 549              		.align	1
 550              		.syntax unified
 551              		.thumb
 552              		.thumb_func
 554              	CMW_VD66GY_FrameEventCallback:
 555              	.LVL47:
 556              	.LFB3372:
 177:../../Middlewares/Camera_Middleware/sensors/cmw_vd66gy.c **** 
 178:../../Middlewares/Camera_Middleware/sensors/cmw_vd66gy.c **** static int CMW_VD66GY_GetResType(uint32_t width, uint32_t height, VD6G_Res_t *res)
 179:../../Middlewares/Camera_Middleware/sensors/cmw_vd66gy.c **** {
 180:../../Middlewares/Camera_Middleware/sensors/cmw_vd66gy.c ****   if (width == 320 && height == 240)
 181:../../Middlewares/Camera_Middleware/sensors/cmw_vd66gy.c ****   {
 182:../../Middlewares/Camera_Middleware/sensors/cmw_vd66gy.c ****     *res = VD6G_RES_QVGA_320_240;
 183:../../Middlewares/Camera_Middleware/sensors/cmw_vd66gy.c ****   }
 184:../../Middlewares/Camera_Middleware/sensors/cmw_vd66gy.c ****   else if (width == 640 && height == 480)
 185:../../Middlewares/Camera_Middleware/sensors/cmw_vd66gy.c ****   {
 186:../../Middlewares/Camera_Middleware/sensors/cmw_vd66gy.c ****     *res = VD6G_RES_VGA_640_480;
 187:../../Middlewares/Camera_Middleware/sensors/cmw_vd66gy.c ****   }
 188:../../Middlewares/Camera_Middleware/sensors/cmw_vd66gy.c ****   else if (width == 1024 && height == 768)
 189:../../Middlewares/Camera_Middleware/sensors/cmw_vd66gy.c ****   {
 190:../../Middlewares/Camera_Middleware/sensors/cmw_vd66gy.c ****     *res = VD6G_RES_XGA_1024_768;
 191:../../Middlewares/Camera_Middleware/sensors/cmw_vd66gy.c ****   }
 192:../../Middlewares/Camera_Middleware/sensors/cmw_vd66gy.c ****   else if (width == 1120 && height == 720)
 193:../../Middlewares/Camera_Middleware/sensors/cmw_vd66gy.c ****   {
 194:../../Middlewares/Camera_Middleware/sensors/cmw_vd66gy.c ****     *res = VD6G_RES_PORTRAIT_1120_720;
 195:../../Middlewares/Camera_Middleware/sensors/cmw_vd66gy.c ****   }
 196:../../Middlewares/Camera_Middleware/sensors/cmw_vd66gy.c ****   else if (width == 1120 && height == 1364)
 197:../../Middlewares/Camera_Middleware/sensors/cmw_vd66gy.c ****   {
ARM GAS  C:\Users\Antonio\AppData\Local\Temp\ccO3q7yr.s 			page 15


 198:../../Middlewares/Camera_Middleware/sensors/cmw_vd66gy.c ****     *res = VD6G_RES_FULL_1120_1364;
 199:../../Middlewares/Camera_Middleware/sensors/cmw_vd66gy.c ****   }
 200:../../Middlewares/Camera_Middleware/sensors/cmw_vd66gy.c ****   else
 201:../../Middlewares/Camera_Middleware/sensors/cmw_vd66gy.c ****   {
 202:../../Middlewares/Camera_Middleware/sensors/cmw_vd66gy.c ****     return CMW_ERROR_WRONG_PARAM;
 203:../../Middlewares/Camera_Middleware/sensors/cmw_vd66gy.c ****   }
 204:../../Middlewares/Camera_Middleware/sensors/cmw_vd66gy.c ****   return 0;
 205:../../Middlewares/Camera_Middleware/sensors/cmw_vd66gy.c **** }
 206:../../Middlewares/Camera_Middleware/sensors/cmw_vd66gy.c **** 
 207:../../Middlewares/Camera_Middleware/sensors/cmw_vd66gy.c **** static VD6G_MirrorFlip_t CMW_VD66GY_getMirrorFlipConfig(uint32_t Config)
 208:../../Middlewares/Camera_Middleware/sensors/cmw_vd66gy.c **** {
 209:../../Middlewares/Camera_Middleware/sensors/cmw_vd66gy.c ****   VD6G_MirrorFlip_t ret;
 210:../../Middlewares/Camera_Middleware/sensors/cmw_vd66gy.c **** 
 211:../../Middlewares/Camera_Middleware/sensors/cmw_vd66gy.c ****   switch (Config)
 212:../../Middlewares/Camera_Middleware/sensors/cmw_vd66gy.c ****   {
 213:../../Middlewares/Camera_Middleware/sensors/cmw_vd66gy.c ****     case CMW_MIRRORFLIP_NONE:
 214:../../Middlewares/Camera_Middleware/sensors/cmw_vd66gy.c ****       ret = VD6G_MIRROR_FLIP_NONE;
 215:../../Middlewares/Camera_Middleware/sensors/cmw_vd66gy.c ****       break;
 216:../../Middlewares/Camera_Middleware/sensors/cmw_vd66gy.c ****     case CMW_MIRRORFLIP_FLIP:
 217:../../Middlewares/Camera_Middleware/sensors/cmw_vd66gy.c ****       ret = VD6G_FLIP;
 218:../../Middlewares/Camera_Middleware/sensors/cmw_vd66gy.c ****       break;
 219:../../Middlewares/Camera_Middleware/sensors/cmw_vd66gy.c ****     case CMW_MIRRORFLIP_MIRROR:
 220:../../Middlewares/Camera_Middleware/sensors/cmw_vd66gy.c ****       ret = VD6G_MIRROR;
 221:../../Middlewares/Camera_Middleware/sensors/cmw_vd66gy.c ****       break;
 222:../../Middlewares/Camera_Middleware/sensors/cmw_vd66gy.c ****     case CMW_MIRRORFLIP_FLIP_MIRROR:
 223:../../Middlewares/Camera_Middleware/sensors/cmw_vd66gy.c ****     default:
 224:../../Middlewares/Camera_Middleware/sensors/cmw_vd66gy.c ****       ret = VD6G_MIRROR_FLIP;
 225:../../Middlewares/Camera_Middleware/sensors/cmw_vd66gy.c ****       break;
 226:../../Middlewares/Camera_Middleware/sensors/cmw_vd66gy.c ****   }
 227:../../Middlewares/Camera_Middleware/sensors/cmw_vd66gy.c **** 
 228:../../Middlewares/Camera_Middleware/sensors/cmw_vd66gy.c ****   return ret;
 229:../../Middlewares/Camera_Middleware/sensors/cmw_vd66gy.c **** }
 230:../../Middlewares/Camera_Middleware/sensors/cmw_vd66gy.c **** 
 231:../../Middlewares/Camera_Middleware/sensors/cmw_vd66gy.c **** static int32_t CMW_VD66GY_Init(void *io_ctx, CMW_Sensor_Init_t *initSensor)
 232:../../Middlewares/Camera_Middleware/sensors/cmw_vd66gy.c **** {
 233:../../Middlewares/Camera_Middleware/sensors/cmw_vd66gy.c ****   VD6G_Config_t config = { 0 };
 234:../../Middlewares/Camera_Middleware/sensors/cmw_vd66gy.c ****   int ret;
 235:../../Middlewares/Camera_Middleware/sensors/cmw_vd66gy.c ****   int i;
 236:../../Middlewares/Camera_Middleware/sensors/cmw_vd66gy.c **** 
 237:../../Middlewares/Camera_Middleware/sensors/cmw_vd66gy.c ****   if (((CMW_VD66GY_t *)io_ctx)->IsInitialized)
 238:../../Middlewares/Camera_Middleware/sensors/cmw_vd66gy.c ****   {
 239:../../Middlewares/Camera_Middleware/sensors/cmw_vd66gy.c ****     return CMW_ERROR_NONE;
 240:../../Middlewares/Camera_Middleware/sensors/cmw_vd66gy.c ****   }
 241:../../Middlewares/Camera_Middleware/sensors/cmw_vd66gy.c **** 
 242:../../Middlewares/Camera_Middleware/sensors/cmw_vd66gy.c **** 
 243:../../Middlewares/Camera_Middleware/sensors/cmw_vd66gy.c ****   config.frame_rate = initSensor->fps;
 244:../../Middlewares/Camera_Middleware/sensors/cmw_vd66gy.c ****   ret = CMW_VD66GY_GetResType(initSensor->width, initSensor->height, &config.resolution);
 245:../../Middlewares/Camera_Middleware/sensors/cmw_vd66gy.c ****   if (ret)
 246:../../Middlewares/Camera_Middleware/sensors/cmw_vd66gy.c ****   {
 247:../../Middlewares/Camera_Middleware/sensors/cmw_vd66gy.c ****     return CMW_ERROR_WRONG_PARAM;
 248:../../Middlewares/Camera_Middleware/sensors/cmw_vd66gy.c ****   }
 249:../../Middlewares/Camera_Middleware/sensors/cmw_vd66gy.c ****   config.ext_clock_freq_in_hz = ((CMW_VD66GY_t *)io_ctx)->ClockInHz;
 250:../../Middlewares/Camera_Middleware/sensors/cmw_vd66gy.c ****   config.flip_mirror_mode = CMW_VD66GY_getMirrorFlipConfig(initSensor->mirrorFlip);
 251:../../Middlewares/Camera_Middleware/sensors/cmw_vd66gy.c ****   config.line_len = 0;
 252:../../Middlewares/Camera_Middleware/sensors/cmw_vd66gy.c ****   config.patgen = VD6G_PATGEN_DISABLE;
 253:../../Middlewares/Camera_Middleware/sensors/cmw_vd66gy.c ****   config.flicker = VD6G_FLICKER_FREE_NONE;
 254:../../Middlewares/Camera_Middleware/sensors/cmw_vd66gy.c ****   config.out_itf.datalane_nb = 2;
ARM GAS  C:\Users\Antonio\AppData\Local\Temp\ccO3q7yr.s 			page 16


 255:../../Middlewares/Camera_Middleware/sensors/cmw_vd66gy.c ****   config.out_itf.clock_lane_swap_enable = 1;
 256:../../Middlewares/Camera_Middleware/sensors/cmw_vd66gy.c ****   config.out_itf.data_lane0_swap_enable = 1;
 257:../../Middlewares/Camera_Middleware/sensors/cmw_vd66gy.c ****   config.out_itf.data_lane1_swap_enable = 1;
 258:../../Middlewares/Camera_Middleware/sensors/cmw_vd66gy.c ****   config.out_itf.data_lanes_mapping_swap_enable = 0;
 259:../../Middlewares/Camera_Middleware/sensors/cmw_vd66gy.c ****   for (i = 0; i < VD6G_GPIO_NB; i++)
 260:../../Middlewares/Camera_Middleware/sensors/cmw_vd66gy.c ****   {
 261:../../Middlewares/Camera_Middleware/sensors/cmw_vd66gy.c ****     config.gpio_ctrl[i] = VD6G_GPIO_GPIO_IN;
 262:../../Middlewares/Camera_Middleware/sensors/cmw_vd66gy.c ****   }
 263:../../Middlewares/Camera_Middleware/sensors/cmw_vd66gy.c **** 
 264:../../Middlewares/Camera_Middleware/sensors/cmw_vd66gy.c ****   ret = VD6G_Init(&((CMW_VD66GY_t *)io_ctx)->ctx_driver, &config);
 265:../../Middlewares/Camera_Middleware/sensors/cmw_vd66gy.c ****   if (ret)
 266:../../Middlewares/Camera_Middleware/sensors/cmw_vd66gy.c ****   {
 267:../../Middlewares/Camera_Middleware/sensors/cmw_vd66gy.c ****     return CMW_ERROR_PERIPH_FAILURE;
 268:../../Middlewares/Camera_Middleware/sensors/cmw_vd66gy.c ****   }
 269:../../Middlewares/Camera_Middleware/sensors/cmw_vd66gy.c **** 
 270:../../Middlewares/Camera_Middleware/sensors/cmw_vd66gy.c ****   if (((CMW_VD66GY_t *)io_ctx)->ctx_driver.bayer == VD6G_BAYER_NONE)
 271:../../Middlewares/Camera_Middleware/sensors/cmw_vd66gy.c ****   {
 272:../../Middlewares/Camera_Middleware/sensors/cmw_vd66gy.c ****     VD6G_DeInit(&((CMW_VD66GY_t *)io_ctx)->ctx_driver);
 273:../../Middlewares/Camera_Middleware/sensors/cmw_vd66gy.c ****     return CMW_ERROR_PERIPH_FAILURE;
 274:../../Middlewares/Camera_Middleware/sensors/cmw_vd66gy.c ****   }
 275:../../Middlewares/Camera_Middleware/sensors/cmw_vd66gy.c **** 
 276:../../Middlewares/Camera_Middleware/sensors/cmw_vd66gy.c ****   ((CMW_VD66GY_t *)io_ctx)->IsInitialized = 1;
 277:../../Middlewares/Camera_Middleware/sensors/cmw_vd66gy.c ****   return CMW_ERROR_NONE;
 278:../../Middlewares/Camera_Middleware/sensors/cmw_vd66gy.c **** }
 279:../../Middlewares/Camera_Middleware/sensors/cmw_vd66gy.c **** 
 280:../../Middlewares/Camera_Middleware/sensors/cmw_vd66gy.c **** static int32_t CMW_VD66GY_Start(void *io_ctx)
 281:../../Middlewares/Camera_Middleware/sensors/cmw_vd66gy.c **** {
 282:../../Middlewares/Camera_Middleware/sensors/cmw_vd66gy.c ****   int ret = CMW_ERROR_NONE;
 283:../../Middlewares/Camera_Middleware/sensors/cmw_vd66gy.c **** 
 284:../../Middlewares/Camera_Middleware/sensors/cmw_vd66gy.c **** #ifndef ISP_MW_TUNING_TOOL_SUPPORT
 285:../../Middlewares/Camera_Middleware/sensors/cmw_vd66gy.c ****   /* Statistic area is provided with null value so that it force the ISP Library to get the statist
 286:../../Middlewares/Camera_Middleware/sensors/cmw_vd66gy.c ****    * area information from the tuning file.
 287:../../Middlewares/Camera_Middleware/sensors/cmw_vd66gy.c ****    */
 288:../../Middlewares/Camera_Middleware/sensors/cmw_vd66gy.c ****   (void) ISP_IQParamCacheInit; /* unused */
 289:../../Middlewares/Camera_Middleware/sensors/cmw_vd66gy.c ****   ret = ISP_Init(&((CMW_VD66GY_t *)io_ctx)->hIsp, ((CMW_VD66GY_t *)io_ctx)->hdcmipp, 0, &((CMW_VD66
 290:../../Middlewares/Camera_Middleware/sensors/cmw_vd66gy.c ****   if (ret != ISP_OK)
 291:../../Middlewares/Camera_Middleware/sensors/cmw_vd66gy.c ****   {
 292:../../Middlewares/Camera_Middleware/sensors/cmw_vd66gy.c ****     return CMW_ERROR_COMPONENT_FAILURE;
 293:../../Middlewares/Camera_Middleware/sensors/cmw_vd66gy.c ****   }
 294:../../Middlewares/Camera_Middleware/sensors/cmw_vd66gy.c **** 
 295:../../Middlewares/Camera_Middleware/sensors/cmw_vd66gy.c ****   ret = ISP_Start(&((CMW_VD66GY_t *)io_ctx)->hIsp);
 296:../../Middlewares/Camera_Middleware/sensors/cmw_vd66gy.c ****   if (ret != ISP_OK)
 297:../../Middlewares/Camera_Middleware/sensors/cmw_vd66gy.c ****   {
 298:../../Middlewares/Camera_Middleware/sensors/cmw_vd66gy.c ****       return CMW_ERROR_PERIPH_FAILURE;
 299:../../Middlewares/Camera_Middleware/sensors/cmw_vd66gy.c ****   }
 300:../../Middlewares/Camera_Middleware/sensors/cmw_vd66gy.c **** #endif
 301:../../Middlewares/Camera_Middleware/sensors/cmw_vd66gy.c ****   ret = VD6G_Start(&((CMW_VD66GY_t *)io_ctx)->ctx_driver);
 302:../../Middlewares/Camera_Middleware/sensors/cmw_vd66gy.c ****   if (ret) {
 303:../../Middlewares/Camera_Middleware/sensors/cmw_vd66gy.c ****     VD6G_DeInit(&((CMW_VD66GY_t *)io_ctx)->ctx_driver);
 304:../../Middlewares/Camera_Middleware/sensors/cmw_vd66gy.c ****     return CMW_ERROR_PERIPH_FAILURE;
 305:../../Middlewares/Camera_Middleware/sensors/cmw_vd66gy.c ****   }
 306:../../Middlewares/Camera_Middleware/sensors/cmw_vd66gy.c ****   return CMW_ERROR_NONE;
 307:../../Middlewares/Camera_Middleware/sensors/cmw_vd66gy.c **** }
 308:../../Middlewares/Camera_Middleware/sensors/cmw_vd66gy.c **** 
 309:../../Middlewares/Camera_Middleware/sensors/cmw_vd66gy.c **** static int32_t CMW_VD66GY_Run(void *io_ctx)
 310:../../Middlewares/Camera_Middleware/sensors/cmw_vd66gy.c **** {
 311:../../Middlewares/Camera_Middleware/sensors/cmw_vd66gy.c **** #ifndef ISP_MW_TUNING_TOOL_SUPPORT
ARM GAS  C:\Users\Antonio\AppData\Local\Temp\ccO3q7yr.s 			page 17


 312:../../Middlewares/Camera_Middleware/sensors/cmw_vd66gy.c ****   int ret;
 313:../../Middlewares/Camera_Middleware/sensors/cmw_vd66gy.c ****   ret = ISP_BackgroundProcess(&((CMW_VD66GY_t *)io_ctx)->hIsp);
 314:../../Middlewares/Camera_Middleware/sensors/cmw_vd66gy.c ****   if (ret != ISP_OK)
 315:../../Middlewares/Camera_Middleware/sensors/cmw_vd66gy.c ****   {
 316:../../Middlewares/Camera_Middleware/sensors/cmw_vd66gy.c ****       return CMW_ERROR_PERIPH_FAILURE;
 317:../../Middlewares/Camera_Middleware/sensors/cmw_vd66gy.c ****   }
 318:../../Middlewares/Camera_Middleware/sensors/cmw_vd66gy.c **** #endif
 319:../../Middlewares/Camera_Middleware/sensors/cmw_vd66gy.c ****   return CMW_ERROR_NONE;
 320:../../Middlewares/Camera_Middleware/sensors/cmw_vd66gy.c **** }
 321:../../Middlewares/Camera_Middleware/sensors/cmw_vd66gy.c **** 
 322:../../Middlewares/Camera_Middleware/sensors/cmw_vd66gy.c **** static int32_t CMW_VD66GY_Stop(void *io_ctx)
 323:../../Middlewares/Camera_Middleware/sensors/cmw_vd66gy.c **** {
 324:../../Middlewares/Camera_Middleware/sensors/cmw_vd66gy.c ****   int ret = CMW_ERROR_NONE;
 325:../../Middlewares/Camera_Middleware/sensors/cmw_vd66gy.c **** 
 326:../../Middlewares/Camera_Middleware/sensors/cmw_vd66gy.c ****   ret = VD6G_Stop(&((CMW_VD66GY_t *)io_ctx)->ctx_driver);
 327:../../Middlewares/Camera_Middleware/sensors/cmw_vd66gy.c ****   if (ret)
 328:../../Middlewares/Camera_Middleware/sensors/cmw_vd66gy.c ****   {
 329:../../Middlewares/Camera_Middleware/sensors/cmw_vd66gy.c ****     return CMW_ERROR_PERIPH_FAILURE;
 330:../../Middlewares/Camera_Middleware/sensors/cmw_vd66gy.c ****   }
 331:../../Middlewares/Camera_Middleware/sensors/cmw_vd66gy.c ****   return CMW_ERROR_NONE;
 332:../../Middlewares/Camera_Middleware/sensors/cmw_vd66gy.c **** }
 333:../../Middlewares/Camera_Middleware/sensors/cmw_vd66gy.c **** 
 334:../../Middlewares/Camera_Middleware/sensors/cmw_vd66gy.c **** static int32_t CMW_VD66GY_DeInit(void *io_ctx)
 335:../../Middlewares/Camera_Middleware/sensors/cmw_vd66gy.c **** {
 336:../../Middlewares/Camera_Middleware/sensors/cmw_vd66gy.c ****   int ret = CMW_ERROR_NONE;
 337:../../Middlewares/Camera_Middleware/sensors/cmw_vd66gy.c **** 
 338:../../Middlewares/Camera_Middleware/sensors/cmw_vd66gy.c ****   ret = VD6G_Stop(&((CMW_VD66GY_t *)io_ctx)->ctx_driver);
 339:../../Middlewares/Camera_Middleware/sensors/cmw_vd66gy.c ****   if (ret)
 340:../../Middlewares/Camera_Middleware/sensors/cmw_vd66gy.c ****   {
 341:../../Middlewares/Camera_Middleware/sensors/cmw_vd66gy.c ****     return CMW_ERROR_PERIPH_FAILURE;
 342:../../Middlewares/Camera_Middleware/sensors/cmw_vd66gy.c ****   }
 343:../../Middlewares/Camera_Middleware/sensors/cmw_vd66gy.c **** 
 344:../../Middlewares/Camera_Middleware/sensors/cmw_vd66gy.c ****   ret = VD6G_DeInit(&((CMW_VD66GY_t *)io_ctx)->ctx_driver);
 345:../../Middlewares/Camera_Middleware/sensors/cmw_vd66gy.c ****   if (ret)
 346:../../Middlewares/Camera_Middleware/sensors/cmw_vd66gy.c ****   {
 347:../../Middlewares/Camera_Middleware/sensors/cmw_vd66gy.c ****     return CMW_ERROR_PERIPH_FAILURE;
 348:../../Middlewares/Camera_Middleware/sensors/cmw_vd66gy.c ****   }
 349:../../Middlewares/Camera_Middleware/sensors/cmw_vd66gy.c **** 
 350:../../Middlewares/Camera_Middleware/sensors/cmw_vd66gy.c ****   ((CMW_VD66GY_t *)io_ctx)->IsInitialized = 0;
 351:../../Middlewares/Camera_Middleware/sensors/cmw_vd66gy.c ****   return CMW_ERROR_NONE;
 352:../../Middlewares/Camera_Middleware/sensors/cmw_vd66gy.c **** }
 353:../../Middlewares/Camera_Middleware/sensors/cmw_vd66gy.c **** 
 354:../../Middlewares/Camera_Middleware/sensors/cmw_vd66gy.c **** /**
 355:../../Middlewares/Camera_Middleware/sensors/cmw_vd66gy.c ****   * @brief  Set the gain
 356:../../Middlewares/Camera_Middleware/sensors/cmw_vd66gy.c ****   * @param  pObj  pointer to component object
 357:../../Middlewares/Camera_Middleware/sensors/cmw_vd66gy.c ****   * @param  Gain Gain in mdB
 358:../../Middlewares/Camera_Middleware/sensors/cmw_vd66gy.c ****   * @retval Component status
 359:../../Middlewares/Camera_Middleware/sensors/cmw_vd66gy.c ****   */
 360:../../Middlewares/Camera_Middleware/sensors/cmw_vd66gy.c **** int32_t CMW_VD66GY_SetGain(void *io_ctx, int32_t gain)
 361:../../Middlewares/Camera_Middleware/sensors/cmw_vd66gy.c **** {
 362:../../Middlewares/Camera_Middleware/sensors/cmw_vd66gy.c ****   int32_t ret;
 363:../../Middlewares/Camera_Middleware/sensors/cmw_vd66gy.c ****   uint8_t again_regmin, again_regmax;
 364:../../Middlewares/Camera_Middleware/sensors/cmw_vd66gy.c ****   uint16_t dgain_regmin, dgain_regmax;
 365:../../Middlewares/Camera_Middleware/sensors/cmw_vd66gy.c ****   uint32_t again_min_mdB, again_max_mdB;
 366:../../Middlewares/Camera_Middleware/sensors/cmw_vd66gy.c ****   uint32_t dgain_min_mdB, dgain_max_mdB;
 367:../../Middlewares/Camera_Middleware/sensors/cmw_vd66gy.c ****   double analog_linear_gain, digital_linear_gain;
 368:../../Middlewares/Camera_Middleware/sensors/cmw_vd66gy.c **** 
ARM GAS  C:\Users\Antonio\AppData\Local\Temp\ccO3q7yr.s 			page 18


 369:../../Middlewares/Camera_Middleware/sensors/cmw_vd66gy.c ****   ret = VD6G_GetAnalogGainRegRange(&((CMW_VD66GY_t *)io_ctx)->ctx_driver, &again_regmin, &again_reg
 370:../../Middlewares/Camera_Middleware/sensors/cmw_vd66gy.c ****   if (ret)
 371:../../Middlewares/Camera_Middleware/sensors/cmw_vd66gy.c ****     return ret;
 372:../../Middlewares/Camera_Middleware/sensors/cmw_vd66gy.c **** 
 373:../../Middlewares/Camera_Middleware/sensors/cmw_vd66gy.c ****   ret = VD6G_GetDigitalGainRegRange(&((CMW_VD66GY_t *)io_ctx)->ctx_driver, &dgain_regmin, &dgain_re
 374:../../Middlewares/Camera_Middleware/sensors/cmw_vd66gy.c ****   if (ret)
 375:../../Middlewares/Camera_Middleware/sensors/cmw_vd66gy.c ****     return ret;
 376:../../Middlewares/Camera_Middleware/sensors/cmw_vd66gy.c **** 
 377:../../Middlewares/Camera_Middleware/sensors/cmw_vd66gy.c ****   again_min_mdB = (uint32_t) LINEAR_TO_MDECIBEL(32 / (32 - again_regmin));
 378:../../Middlewares/Camera_Middleware/sensors/cmw_vd66gy.c ****   again_max_mdB = (uint32_t) LINEAR_TO_MDECIBEL(32 / (32 - again_regmax));
 379:../../Middlewares/Camera_Middleware/sensors/cmw_vd66gy.c ****   dgain_min_mdB = (uint32_t) LINEAR_TO_MDECIBEL(FP58_TO_FLOAT(dgain_regmin));
 380:../../Middlewares/Camera_Middleware/sensors/cmw_vd66gy.c ****   dgain_max_mdB = (uint32_t) LINEAR_TO_MDECIBEL(FP58_TO_FLOAT(dgain_regmax));
 381:../../Middlewares/Camera_Middleware/sensors/cmw_vd66gy.c **** 
 382:../../Middlewares/Camera_Middleware/sensors/cmw_vd66gy.c ****   if ((gain < dgain_min_mdB + again_min_mdB)
 383:../../Middlewares/Camera_Middleware/sensors/cmw_vd66gy.c ****       || (gain > dgain_max_mdB + again_max_mdB))
 384:../../Middlewares/Camera_Middleware/sensors/cmw_vd66gy.c ****     return -1;
 385:../../Middlewares/Camera_Middleware/sensors/cmw_vd66gy.c **** 
 386:../../Middlewares/Camera_Middleware/sensors/cmw_vd66gy.c ****   if (gain <= again_max_mdB)
 387:../../Middlewares/Camera_Middleware/sensors/cmw_vd66gy.c ****   {
 388:../../Middlewares/Camera_Middleware/sensors/cmw_vd66gy.c ****     /* Use analog gain only and set digital gain to its minimum */
 389:../../Middlewares/Camera_Middleware/sensors/cmw_vd66gy.c ****     analog_linear_gain = MDECIBEL_TO_LINEAR((double)(gain - dgain_min_mdB));
 390:../../Middlewares/Camera_Middleware/sensors/cmw_vd66gy.c ****     digital_linear_gain = MDECIBEL_TO_LINEAR((double)dgain_min_mdB);
 391:../../Middlewares/Camera_Middleware/sensors/cmw_vd66gy.c ****   }
 392:../../Middlewares/Camera_Middleware/sensors/cmw_vd66gy.c ****   else
 393:../../Middlewares/Camera_Middleware/sensors/cmw_vd66gy.c ****   {
 394:../../Middlewares/Camera_Middleware/sensors/cmw_vd66gy.c ****     /* For higher gain values, add digital gain */
 395:../../Middlewares/Camera_Middleware/sensors/cmw_vd66gy.c ****     analog_linear_gain = MDECIBEL_TO_LINEAR((double)again_max_mdB);
 396:../../Middlewares/Camera_Middleware/sensors/cmw_vd66gy.c ****     digital_linear_gain = MDECIBEL_TO_LINEAR((double)(gain - again_max_mdB));
 397:../../Middlewares/Camera_Middleware/sensors/cmw_vd66gy.c ****   }
 398:../../Middlewares/Camera_Middleware/sensors/cmw_vd66gy.c **** 
 399:../../Middlewares/Camera_Middleware/sensors/cmw_vd66gy.c ****   ret = VD6G_SetAnalogGain(&((CMW_VD66GY_t *)io_ctx)->ctx_driver, (int) (32 - (32 / analog_linear_g
 400:../../Middlewares/Camera_Middleware/sensors/cmw_vd66gy.c ****   if (ret)
 401:../../Middlewares/Camera_Middleware/sensors/cmw_vd66gy.c ****     return ret;
 402:../../Middlewares/Camera_Middleware/sensors/cmw_vd66gy.c **** 
 403:../../Middlewares/Camera_Middleware/sensors/cmw_vd66gy.c ****   ret = VD6G_SetDigitalGain(&((CMW_VD66GY_t *)io_ctx)->ctx_driver, FLOAT_TO_FP58(digital_linear_gai
 404:../../Middlewares/Camera_Middleware/sensors/cmw_vd66gy.c ****   if (ret)
 405:../../Middlewares/Camera_Middleware/sensors/cmw_vd66gy.c ****     return ret;
 406:../../Middlewares/Camera_Middleware/sensors/cmw_vd66gy.c **** 
 407:../../Middlewares/Camera_Middleware/sensors/cmw_vd66gy.c ****   return 0;
 408:../../Middlewares/Camera_Middleware/sensors/cmw_vd66gy.c **** }
 409:../../Middlewares/Camera_Middleware/sensors/cmw_vd66gy.c **** 
 410:../../Middlewares/Camera_Middleware/sensors/cmw_vd66gy.c **** /**
 411:../../Middlewares/Camera_Middleware/sensors/cmw_vd66gy.c ****   * @brief  Set the exposure
 412:../../Middlewares/Camera_Middleware/sensors/cmw_vd66gy.c ****   * @param  pObj  pointer to component object
 413:../../Middlewares/Camera_Middleware/sensors/cmw_vd66gy.c ****   * @param  Exposure Exposure in micro seconds
 414:../../Middlewares/Camera_Middleware/sensors/cmw_vd66gy.c ****   * @retval Component status
 415:../../Middlewares/Camera_Middleware/sensors/cmw_vd66gy.c ****   */
 416:../../Middlewares/Camera_Middleware/sensors/cmw_vd66gy.c **** int32_t CMW_VD66GY_SetExposure(void *io_ctx, int32_t exposure)
 417:../../Middlewares/Camera_Middleware/sensors/cmw_vd66gy.c **** {
 418:../../Middlewares/Camera_Middleware/sensors/cmw_vd66gy.c ****   return VD6G_SetExposureTime(&((CMW_VD66GY_t *)io_ctx)->ctx_driver, exposure);
 419:../../Middlewares/Camera_Middleware/sensors/cmw_vd66gy.c **** }
 420:../../Middlewares/Camera_Middleware/sensors/cmw_vd66gy.c **** 
 421:../../Middlewares/Camera_Middleware/sensors/cmw_vd66gy.c **** /**
 422:../../Middlewares/Camera_Middleware/sensors/cmw_vd66gy.c ****   * @brief  Set the exposure mode
 423:../../Middlewares/Camera_Middleware/sensors/cmw_vd66gy.c ****   * @param  pObj  pointer to component object
 424:../../Middlewares/Camera_Middleware/sensors/cmw_vd66gy.c ****   * @param  Exposure Exposure mode
 425:../../Middlewares/Camera_Middleware/sensors/cmw_vd66gy.c ****   * @retval Component status
ARM GAS  C:\Users\Antonio\AppData\Local\Temp\ccO3q7yr.s 			page 19


 426:../../Middlewares/Camera_Middleware/sensors/cmw_vd66gy.c ****   */
 427:../../Middlewares/Camera_Middleware/sensors/cmw_vd66gy.c **** int32_t CMW_VD66GY_SetExposureMode(void *io_ctx, int32_t mode)
 428:../../Middlewares/Camera_Middleware/sensors/cmw_vd66gy.c **** {
 429:../../Middlewares/Camera_Middleware/sensors/cmw_vd66gy.c ****   int ret = -1;
 430:../../Middlewares/Camera_Middleware/sensors/cmw_vd66gy.c **** 
 431:../../Middlewares/Camera_Middleware/sensors/cmw_vd66gy.c ****   switch (mode)
 432:../../Middlewares/Camera_Middleware/sensors/cmw_vd66gy.c ****   {
 433:../../Middlewares/Camera_Middleware/sensors/cmw_vd66gy.c ****     case CMW_EXPOSUREMODE_MANUAL:
 434:../../Middlewares/Camera_Middleware/sensors/cmw_vd66gy.c ****       ret = VD6G_SetExposureMode(&((CMW_VD66GY_t *)io_ctx)->ctx_driver, VD6G_EXPOSURE_MANUAL);
 435:../../Middlewares/Camera_Middleware/sensors/cmw_vd66gy.c ****       break;
 436:../../Middlewares/Camera_Middleware/sensors/cmw_vd66gy.c ****     case CMW_EXPOSUREMODE_AUTOFREEZE:
 437:../../Middlewares/Camera_Middleware/sensors/cmw_vd66gy.c ****       ret = VD6G_SetExposureMode(&((CMW_VD66GY_t *)io_ctx)->ctx_driver, VD6G_EXPOSURE_FREEZE_AEALGO
 438:../../Middlewares/Camera_Middleware/sensors/cmw_vd66gy.c ****       break;
 439:../../Middlewares/Camera_Middleware/sensors/cmw_vd66gy.c ****     case CMW_EXPOSUREMODE_AUTO:
 440:../../Middlewares/Camera_Middleware/sensors/cmw_vd66gy.c ****     default:
 441:../../Middlewares/Camera_Middleware/sensors/cmw_vd66gy.c ****       ret = VD6G_SetExposureMode(&((CMW_VD66GY_t *)io_ctx)->ctx_driver, VD6G_EXPOSURE_AUTO);
 442:../../Middlewares/Camera_Middleware/sensors/cmw_vd66gy.c ****       break;
 443:../../Middlewares/Camera_Middleware/sensors/cmw_vd66gy.c ****   }
 444:../../Middlewares/Camera_Middleware/sensors/cmw_vd66gy.c **** 
 445:../../Middlewares/Camera_Middleware/sensors/cmw_vd66gy.c ****   return (ret == 0) ? CMW_ERROR_NONE : CMW_ERROR_UNKNOWN_FAILURE;
 446:../../Middlewares/Camera_Middleware/sensors/cmw_vd66gy.c **** }
 447:../../Middlewares/Camera_Middleware/sensors/cmw_vd66gy.c **** 
 448:../../Middlewares/Camera_Middleware/sensors/cmw_vd66gy.c **** /**
 449:../../Middlewares/Camera_Middleware/sensors/cmw_vd66gy.c ****   * @brief  Set the sensor white balance mode
 450:../../Middlewares/Camera_Middleware/sensors/cmw_vd66gy.c ****   * @param  io_ctx  pointer to component object
 451:../../Middlewares/Camera_Middleware/sensors/cmw_vd66gy.c ****   * @param  Automatic automatic mode enable/disable
 452:../../Middlewares/Camera_Middleware/sensors/cmw_vd66gy.c ****   * @param  RefColorTemp color temperature if automatic mode is disabled
 453:../../Middlewares/Camera_Middleware/sensors/cmw_vd66gy.c ****   * @retval Component status
 454:../../Middlewares/Camera_Middleware/sensors/cmw_vd66gy.c ****   */
 455:../../Middlewares/Camera_Middleware/sensors/cmw_vd66gy.c **** int32_t CMW_VD66GY_SetWBRefMode(void *io_ctx, uint8_t Automatic, uint32_t RefColorTemp)
 456:../../Middlewares/Camera_Middleware/sensors/cmw_vd66gy.c **** {
 457:../../Middlewares/Camera_Middleware/sensors/cmw_vd66gy.c ****   int ret = CMW_ERROR_NONE;
 458:../../Middlewares/Camera_Middleware/sensors/cmw_vd66gy.c **** 
 459:../../Middlewares/Camera_Middleware/sensors/cmw_vd66gy.c ****   ret = ISP_SetWBRefMode(&((CMW_VD66GY_t *)io_ctx)->hIsp, Automatic, RefColorTemp);
 460:../../Middlewares/Camera_Middleware/sensors/cmw_vd66gy.c ****   if (ret)
 461:../../Middlewares/Camera_Middleware/sensors/cmw_vd66gy.c ****   {
 462:../../Middlewares/Camera_Middleware/sensors/cmw_vd66gy.c ****     return CMW_ERROR_PERIPH_FAILURE;
 463:../../Middlewares/Camera_Middleware/sensors/cmw_vd66gy.c ****   }
 464:../../Middlewares/Camera_Middleware/sensors/cmw_vd66gy.c **** 
 465:../../Middlewares/Camera_Middleware/sensors/cmw_vd66gy.c ****   return CMW_ERROR_NONE;
 466:../../Middlewares/Camera_Middleware/sensors/cmw_vd66gy.c **** }
 467:../../Middlewares/Camera_Middleware/sensors/cmw_vd66gy.c **** 
 468:../../Middlewares/Camera_Middleware/sensors/cmw_vd66gy.c **** /**
 469:../../Middlewares/Camera_Middleware/sensors/cmw_vd66gy.c ****   * @brief  List the sensor white balance modes
 470:../../Middlewares/Camera_Middleware/sensors/cmw_vd66gy.c ****   * @param  io_ctx  pointer to component object
 471:../../Middlewares/Camera_Middleware/sensors/cmw_vd66gy.c ****   * @param  RefColorTemp color temperature list
 472:../../Middlewares/Camera_Middleware/sensors/cmw_vd66gy.c ****   * @retval Component status
 473:../../Middlewares/Camera_Middleware/sensors/cmw_vd66gy.c ****   */
 474:../../Middlewares/Camera_Middleware/sensors/cmw_vd66gy.c **** int32_t CMW_VD66GY_ListWBRefModes(void *io_ctx, uint32_t RefColorTemp[])
 475:../../Middlewares/Camera_Middleware/sensors/cmw_vd66gy.c **** {
 476:../../Middlewares/Camera_Middleware/sensors/cmw_vd66gy.c ****   int ret = CMW_ERROR_NONE;
 477:../../Middlewares/Camera_Middleware/sensors/cmw_vd66gy.c **** 
 478:../../Middlewares/Camera_Middleware/sensors/cmw_vd66gy.c ****   ret = ISP_ListWBRefModes(&((CMW_VD66GY_t *)io_ctx)->hIsp, RefColorTemp);
 479:../../Middlewares/Camera_Middleware/sensors/cmw_vd66gy.c ****   if (ret)
 480:../../Middlewares/Camera_Middleware/sensors/cmw_vd66gy.c ****   {
 481:../../Middlewares/Camera_Middleware/sensors/cmw_vd66gy.c ****     return CMW_ERROR_PERIPH_FAILURE;
 482:../../Middlewares/Camera_Middleware/sensors/cmw_vd66gy.c ****   }
ARM GAS  C:\Users\Antonio\AppData\Local\Temp\ccO3q7yr.s 			page 20


 483:../../Middlewares/Camera_Middleware/sensors/cmw_vd66gy.c **** 
 484:../../Middlewares/Camera_Middleware/sensors/cmw_vd66gy.c ****   return CMW_ERROR_NONE;
 485:../../Middlewares/Camera_Middleware/sensors/cmw_vd66gy.c **** }
 486:../../Middlewares/Camera_Middleware/sensors/cmw_vd66gy.c **** 
 487:../../Middlewares/Camera_Middleware/sensors/cmw_vd66gy.c **** /**
 488:../../Middlewares/Camera_Middleware/sensors/cmw_vd66gy.c ****   * @brief  Get the sensor info
 489:../../Middlewares/Camera_Middleware/sensors/cmw_vd66gy.c ****   * @param  pObj  pointer to component object
 490:../../Middlewares/Camera_Middleware/sensors/cmw_vd66gy.c ****   * @param  pInfo pointer to sensor info structure
 491:../../Middlewares/Camera_Middleware/sensors/cmw_vd66gy.c ****   * @retval Component status
 492:../../Middlewares/Camera_Middleware/sensors/cmw_vd66gy.c ****   */
 493:../../Middlewares/Camera_Middleware/sensors/cmw_vd66gy.c **** int32_t CMW_VD66GY_GetSensorInfo(void *io_ctx, ISP_SensorInfoTypeDef *info)
 494:../../Middlewares/Camera_Middleware/sensors/cmw_vd66gy.c **** {
 495:../../Middlewares/Camera_Middleware/sensors/cmw_vd66gy.c ****   uint8_t again_regmin, again_regmax;
 496:../../Middlewares/Camera_Middleware/sensors/cmw_vd66gy.c ****   uint16_t dgain_regmin, dgain_regmax;
 497:../../Middlewares/Camera_Middleware/sensors/cmw_vd66gy.c ****   uint32_t again_min_mdB, again_max_mdB;
 498:../../Middlewares/Camera_Middleware/sensors/cmw_vd66gy.c ****   uint32_t dgain_min_mdB, dgain_max_mdB;
 499:../../Middlewares/Camera_Middleware/sensors/cmw_vd66gy.c **** 
 500:../../Middlewares/Camera_Middleware/sensors/cmw_vd66gy.c ****   int ret;
 501:../../Middlewares/Camera_Middleware/sensors/cmw_vd66gy.c **** 
 502:../../Middlewares/Camera_Middleware/sensors/cmw_vd66gy.c ****   if ((!io_ctx) || (info == NULL))
 503:../../Middlewares/Camera_Middleware/sensors/cmw_vd66gy.c ****     return CMW_ERROR_WRONG_PARAM;
 504:../../Middlewares/Camera_Middleware/sensors/cmw_vd66gy.c **** 
 505:../../Middlewares/Camera_Middleware/sensors/cmw_vd66gy.c ****   /* Get sensor name */
 506:../../Middlewares/Camera_Middleware/sensors/cmw_vd66gy.c ****   if (sizeof(info->name) >= strlen(VD66GY_NAME) + 1)
 507:../../Middlewares/Camera_Middleware/sensors/cmw_vd66gy.c ****   {
 508:../../Middlewares/Camera_Middleware/sensors/cmw_vd66gy.c ****     strcpy(info->name, VD66GY_NAME);
 509:../../Middlewares/Camera_Middleware/sensors/cmw_vd66gy.c ****   }
 510:../../Middlewares/Camera_Middleware/sensors/cmw_vd66gy.c ****   else
 511:../../Middlewares/Camera_Middleware/sensors/cmw_vd66gy.c ****   {
 512:../../Middlewares/Camera_Middleware/sensors/cmw_vd66gy.c ****     return CMW_ERROR_WRONG_PARAM;
 513:../../Middlewares/Camera_Middleware/sensors/cmw_vd66gy.c ****   }
 514:../../Middlewares/Camera_Middleware/sensors/cmw_vd66gy.c **** 
 515:../../Middlewares/Camera_Middleware/sensors/cmw_vd66gy.c ****   /* Get isp bayer pattern info */
 516:../../Middlewares/Camera_Middleware/sensors/cmw_vd66gy.c ****   info->bayer_pattern = ((CMW_VD66GY_t *)io_ctx)->ctx_driver.bayer - 1;
 517:../../Middlewares/Camera_Middleware/sensors/cmw_vd66gy.c **** 
 518:../../Middlewares/Camera_Middleware/sensors/cmw_vd66gy.c ****   /* Get color depth */
 519:../../Middlewares/Camera_Middleware/sensors/cmw_vd66gy.c ****   info->color_depth = VD6G_COLOR_DEPTH_RAW8;
 520:../../Middlewares/Camera_Middleware/sensors/cmw_vd66gy.c **** 
 521:../../Middlewares/Camera_Middleware/sensors/cmw_vd66gy.c ****   /* Get resolution info */
 522:../../Middlewares/Camera_Middleware/sensors/cmw_vd66gy.c ****   info->width = VD6G_MAX_WIDTH;
 523:../../Middlewares/Camera_Middleware/sensors/cmw_vd66gy.c ****   info->height = VD6G_MAX_HEIGHT;
 524:../../Middlewares/Camera_Middleware/sensors/cmw_vd66gy.c **** 
 525:../../Middlewares/Camera_Middleware/sensors/cmw_vd66gy.c ****   /* Get gain range */
 526:../../Middlewares/Camera_Middleware/sensors/cmw_vd66gy.c ****   ret = VD6G_GetAnalogGainRegRange(&((CMW_VD66GY_t *)io_ctx)->ctx_driver, &again_regmin, &again_reg
 527:../../Middlewares/Camera_Middleware/sensors/cmw_vd66gy.c ****   if (ret)
 528:../../Middlewares/Camera_Middleware/sensors/cmw_vd66gy.c ****     return ret;
 529:../../Middlewares/Camera_Middleware/sensors/cmw_vd66gy.c **** 
 530:../../Middlewares/Camera_Middleware/sensors/cmw_vd66gy.c ****   ret = VD6G_GetDigitalGainRegRange(&((CMW_VD66GY_t *)io_ctx)->ctx_driver, &dgain_regmin, &dgain_re
 531:../../Middlewares/Camera_Middleware/sensors/cmw_vd66gy.c ****   if (ret)
 532:../../Middlewares/Camera_Middleware/sensors/cmw_vd66gy.c ****     return ret;
 533:../../Middlewares/Camera_Middleware/sensors/cmw_vd66gy.c **** 
 534:../../Middlewares/Camera_Middleware/sensors/cmw_vd66gy.c ****   again_min_mdB = (uint32_t) LINEAR_TO_MDECIBEL(32 / (32 - again_regmin));
 535:../../Middlewares/Camera_Middleware/sensors/cmw_vd66gy.c ****   again_max_mdB = (uint32_t) LINEAR_TO_MDECIBEL(32 / (32 - again_regmax));
 536:../../Middlewares/Camera_Middleware/sensors/cmw_vd66gy.c ****   dgain_min_mdB = (uint32_t) LINEAR_TO_MDECIBEL(FP58_TO_FLOAT(dgain_regmin));
 537:../../Middlewares/Camera_Middleware/sensors/cmw_vd66gy.c ****   dgain_max_mdB = (uint32_t) LINEAR_TO_MDECIBEL(FP58_TO_FLOAT(dgain_regmax));
 538:../../Middlewares/Camera_Middleware/sensors/cmw_vd66gy.c **** 
 539:../../Middlewares/Camera_Middleware/sensors/cmw_vd66gy.c ****   info->gain_min = again_min_mdB + dgain_min_mdB;
ARM GAS  C:\Users\Antonio\AppData\Local\Temp\ccO3q7yr.s 			page 21


 540:../../Middlewares/Camera_Middleware/sensors/cmw_vd66gy.c ****   info->gain_max = again_max_mdB + dgain_max_mdB;
 541:../../Middlewares/Camera_Middleware/sensors/cmw_vd66gy.c **** 
 542:../../Middlewares/Camera_Middleware/sensors/cmw_vd66gy.c ****   /* Get exposure range */
 543:../../Middlewares/Camera_Middleware/sensors/cmw_vd66gy.c ****   ret = VD6G_GetExposureRegRange(&((CMW_VD66GY_t *)io_ctx)->ctx_driver, &info->exposure_min, &info-
 544:../../Middlewares/Camera_Middleware/sensors/cmw_vd66gy.c ****   if (ret)
 545:../../Middlewares/Camera_Middleware/sensors/cmw_vd66gy.c ****     return ret;
 546:../../Middlewares/Camera_Middleware/sensors/cmw_vd66gy.c **** 
 547:../../Middlewares/Camera_Middleware/sensors/cmw_vd66gy.c ****   return CMW_ERROR_NONE;
 548:../../Middlewares/Camera_Middleware/sensors/cmw_vd66gy.c **** }
 549:../../Middlewares/Camera_Middleware/sensors/cmw_vd66gy.c **** 
 550:../../Middlewares/Camera_Middleware/sensors/cmw_vd66gy.c **** static void CMW_VD66GY_VsyncEventCallback(void *io_ctx, uint32_t pipe)
 551:../../Middlewares/Camera_Middleware/sensors/cmw_vd66gy.c **** {
 552:../../Middlewares/Camera_Middleware/sensors/cmw_vd66gy.c **** #ifndef ISP_MW_TUNING_TOOL_SUPPORT
 553:../../Middlewares/Camera_Middleware/sensors/cmw_vd66gy.c ****   /* Update the ISP frame counter and call its statistics handler */
 554:../../Middlewares/Camera_Middleware/sensors/cmw_vd66gy.c ****   switch (pipe)
 555:../../Middlewares/Camera_Middleware/sensors/cmw_vd66gy.c ****   {
 556:../../Middlewares/Camera_Middleware/sensors/cmw_vd66gy.c ****     case DCMIPP_PIPE0 :
 557:../../Middlewares/Camera_Middleware/sensors/cmw_vd66gy.c ****       ISP_IncDumpFrameId(&((CMW_VD66GY_t *)io_ctx)->hIsp);
 558:../../Middlewares/Camera_Middleware/sensors/cmw_vd66gy.c ****       break;
 559:../../Middlewares/Camera_Middleware/sensors/cmw_vd66gy.c ****     case DCMIPP_PIPE1 :
 560:../../Middlewares/Camera_Middleware/sensors/cmw_vd66gy.c ****       ISP_IncMainFrameId(&((CMW_VD66GY_t *)io_ctx)->hIsp);
 561:../../Middlewares/Camera_Middleware/sensors/cmw_vd66gy.c ****       ISP_GatherStatistics(&((CMW_VD66GY_t *)io_ctx)->hIsp);
 562:../../Middlewares/Camera_Middleware/sensors/cmw_vd66gy.c ****       break;
 563:../../Middlewares/Camera_Middleware/sensors/cmw_vd66gy.c ****     case DCMIPP_PIPE2 :
 564:../../Middlewares/Camera_Middleware/sensors/cmw_vd66gy.c ****       ISP_IncAncillaryFrameId(&((CMW_VD66GY_t *)io_ctx)->hIsp);
 565:../../Middlewares/Camera_Middleware/sensors/cmw_vd66gy.c ****       break;
 566:../../Middlewares/Camera_Middleware/sensors/cmw_vd66gy.c ****   }
 567:../../Middlewares/Camera_Middleware/sensors/cmw_vd66gy.c **** #endif
 568:../../Middlewares/Camera_Middleware/sensors/cmw_vd66gy.c **** }
 569:../../Middlewares/Camera_Middleware/sensors/cmw_vd66gy.c **** 
 570:../../Middlewares/Camera_Middleware/sensors/cmw_vd66gy.c **** static void CMW_VD66GY_FrameEventCallback(void *io_ctx, uint32_t pipe)
 571:../../Middlewares/Camera_Middleware/sensors/cmw_vd66gy.c **** {
 557              		.loc 1 571 1 view -0
 558              		.cfi_startproc
 559              		@ args = 0, pretend = 0, frame = 0
 560              		@ frame_needed = 0, uses_anonymous_args = 0
 561              		@ link register save eliminated.
 572:../../Middlewares/Camera_Middleware/sensors/cmw_vd66gy.c **** }
 562              		.loc 1 572 1 view .LVU133
 563 0000 7047     		bx	lr
 564              		.cfi_endproc
 565              	.LFE3372:
 567              		.section	.text.CMW_VD66GY_SetGain,"ax",%progbits
 568              		.align	1
 569              		.global	CMW_VD66GY_SetGain
 570              		.syntax unified
 571              		.thumb
 572              		.thumb_func
 574              	CMW_VD66GY_SetGain:
 575              	.LVL48:
 576              	.LFB3365:
 361:../../Middlewares/Camera_Middleware/sensors/cmw_vd66gy.c ****   int32_t ret;
 577              		.loc 1 361 1 view -0
 578              		.cfi_startproc
 579              		@ args = 0, pretend = 0, frame = 16
 580              		@ frame_needed = 0, uses_anonymous_args = 0
 362:../../Middlewares/Camera_Middleware/sensors/cmw_vd66gy.c ****   uint8_t again_regmin, again_regmax;
ARM GAS  C:\Users\Antonio\AppData\Local\Temp\ccO3q7yr.s 			page 22


 581              		.loc 1 362 3 view .LVU135
 363:../../Middlewares/Camera_Middleware/sensors/cmw_vd66gy.c ****   uint16_t dgain_regmin, dgain_regmax;
 582              		.loc 1 363 3 view .LVU136
 364:../../Middlewares/Camera_Middleware/sensors/cmw_vd66gy.c ****   uint32_t again_min_mdB, again_max_mdB;
 583              		.loc 1 364 3 view .LVU137
 365:../../Middlewares/Camera_Middleware/sensors/cmw_vd66gy.c ****   uint32_t dgain_min_mdB, dgain_max_mdB;
 584              		.loc 1 365 3 view .LVU138
 366:../../Middlewares/Camera_Middleware/sensors/cmw_vd66gy.c ****   double analog_linear_gain, digital_linear_gain;
 585              		.loc 1 366 3 view .LVU139
 367:../../Middlewares/Camera_Middleware/sensors/cmw_vd66gy.c **** 
 586              		.loc 1 367 3 view .LVU140
 369:../../Middlewares/Camera_Middleware/sensors/cmw_vd66gy.c ****   if (ret)
 587              		.loc 1 369 3 view .LVU141
 361:../../Middlewares/Camera_Middleware/sensors/cmw_vd66gy.c ****   int32_t ret;
 588              		.loc 1 361 1 is_stmt 0 view .LVU142
 589 0000 F0B5     		push	{r4, r5, r6, r7, lr}
 590              		.cfi_def_cfa_offset 20
 591              		.cfi_offset 4, -20
 592              		.cfi_offset 5, -16
 593              		.cfi_offset 6, -12
 594              		.cfi_offset 7, -8
 595              		.cfi_offset 14, -4
 596 0002 2DED088B 		vpush.64	{d8, d9, d10, d11}
 597              		.cfi_def_cfa_offset 52
 598              		.cfi_offset 80, -52
 599              		.cfi_offset 81, -48
 600              		.cfi_offset 82, -44
 601              		.cfi_offset 83, -40
 602              		.cfi_offset 84, -36
 603              		.cfi_offset 85, -32
 604              		.cfi_offset 86, -28
 605              		.cfi_offset 87, -24
 369:../../Middlewares/Camera_Middleware/sensors/cmw_vd66gy.c ****   if (ret)
 606              		.loc 1 369 9 view .LVU143
 607 0006 00F10806 		add	r6, r0, #8
 361:../../Middlewares/Camera_Middleware/sensors/cmw_vd66gy.c ****   int32_t ret;
 608              		.loc 1 361 1 view .LVU144
 609 000a 85B0     		sub	sp, sp, #20
 610              		.cfi_def_cfa_offset 72
 361:../../Middlewares/Camera_Middleware/sensors/cmw_vd66gy.c ****   int32_t ret;
 611              		.loc 1 361 1 view .LVU145
 612 000c 0D46     		mov	r5, r1
 369:../../Middlewares/Camera_Middleware/sensors/cmw_vd66gy.c ****   if (ret)
 613              		.loc 1 369 9 view .LVU146
 614 000e 3046     		mov	r0, r6
 615              	.LVL49:
 369:../../Middlewares/Camera_Middleware/sensors/cmw_vd66gy.c ****   if (ret)
 616              		.loc 1 369 9 view .LVU147
 617 0010 0DF10B02 		add	r2, sp, #11
 618 0014 0DF10A01 		add	r1, sp, #10
 619              	.LVL50:
 369:../../Middlewares/Camera_Middleware/sensors/cmw_vd66gy.c ****   if (ret)
 620              		.loc 1 369 9 view .LVU148
 621 0018 FFF7FEFF 		bl	VD6G_GetAnalogGainRegRange
 622              	.LVL51:
 370:../../Middlewares/Camera_Middleware/sensors/cmw_vd66gy.c ****     return ret;
 623              		.loc 1 370 3 is_stmt 1 view .LVU149
ARM GAS  C:\Users\Antonio\AppData\Local\Temp\ccO3q7yr.s 			page 23


 370:../../Middlewares/Camera_Middleware/sensors/cmw_vd66gy.c ****     return ret;
 624              		.loc 1 370 6 is_stmt 0 view .LVU150
 625 001c 0028     		cmp	r0, #0
 626 001e 40F0BC80 		bne	.L18
 373:../../Middlewares/Camera_Middleware/sensors/cmw_vd66gy.c ****   if (ret)
 627              		.loc 1 373 3 is_stmt 1 view .LVU151
 373:../../Middlewares/Camera_Middleware/sensors/cmw_vd66gy.c ****   if (ret)
 628              		.loc 1 373 9 is_stmt 0 view .LVU152
 629 0022 3046     		mov	r0, r6
 630              	.LVL52:
 373:../../Middlewares/Camera_Middleware/sensors/cmw_vd66gy.c ****   if (ret)
 631              		.loc 1 373 9 view .LVU153
 632 0024 0DF10E02 		add	r2, sp, #14
 633 0028 03A9     		add	r1, sp, #12
 634 002a FFF7FEFF 		bl	VD6G_GetDigitalGainRegRange
 635              	.LVL53:
 374:../../Middlewares/Camera_Middleware/sensors/cmw_vd66gy.c ****     return ret;
 636              		.loc 1 374 3 is_stmt 1 view .LVU154
 374:../../Middlewares/Camera_Middleware/sensors/cmw_vd66gy.c ****     return ret;
 637              		.loc 1 374 6 is_stmt 0 view .LVU155
 638 002e 0028     		cmp	r0, #0
 639 0030 40F0B380 		bne	.L18
 377:../../Middlewares/Camera_Middleware/sensors/cmw_vd66gy.c ****   again_max_mdB = (uint32_t) LINEAR_TO_MDECIBEL(32 / (32 - again_regmax));
 640              		.loc 1 377 3 is_stmt 1 view .LVU156
 377:../../Middlewares/Camera_Middleware/sensors/cmw_vd66gy.c ****   again_max_mdB = (uint32_t) LINEAR_TO_MDECIBEL(32 / (32 - again_regmax));
 641              		.loc 1 377 30 is_stmt 0 view .LVU157
 642 0034 2024     		movs	r4, #32
 643 0036 9DF80A30 		ldrb	r3, [sp, #10]	@ zero_extendqisi2
 378:../../Middlewares/Camera_Middleware/sensors/cmw_vd66gy.c ****   dgain_min_mdB = (uint32_t) LINEAR_TO_MDECIBEL(FP58_TO_FLOAT(dgain_regmin));
 644              		.loc 1 378 30 discriminator 1 view .LVU158
 645 003a B3EE04AB 		vmov.f64	d10, #2.0e+1
 377:../../Middlewares/Camera_Middleware/sensors/cmw_vd66gy.c ****   again_max_mdB = (uint32_t) LINEAR_TO_MDECIBEL(32 / (32 - again_regmax));
 646              		.loc 1 377 30 view .LVU159
 647 003e C3F12003 		rsb	r3, r3, #32
 648 0042 94FBF3F3 		sdiv	r3, r4, r3
 649 0046 00EE103A 		vmov	s0, r3	@ int
 650 004a B8EEC00B 		vcvt.f64.s32	d0, s0
 651 004e FFF7FEFF 		bl	log10
 652              	.LVL54:
 378:../../Middlewares/Camera_Middleware/sensors/cmw_vd66gy.c ****   dgain_min_mdB = (uint32_t) LINEAR_TO_MDECIBEL(FP58_TO_FLOAT(dgain_regmin));
 653              		.loc 1 378 30 view .LVU160
 654 0052 9DF80B30 		ldrb	r3, [sp, #11]	@ zero_extendqisi2
 377:../../Middlewares/Camera_Middleware/sensors/cmw_vd66gy.c ****   again_max_mdB = (uint32_t) LINEAR_TO_MDECIBEL(32 / (32 - again_regmax));
 655              		.loc 1 377 30 view .LVU161
 656 0056 B0EE408B 		vmov.f64	d8, d0
 657              	.LVL55:
 378:../../Middlewares/Camera_Middleware/sensors/cmw_vd66gy.c ****   dgain_min_mdB = (uint32_t) LINEAR_TO_MDECIBEL(FP58_TO_FLOAT(dgain_regmin));
 658              		.loc 1 378 3 is_stmt 1 view .LVU162
 378:../../Middlewares/Camera_Middleware/sensors/cmw_vd66gy.c ****   dgain_min_mdB = (uint32_t) LINEAR_TO_MDECIBEL(FP58_TO_FLOAT(dgain_regmin));
 659              		.loc 1 378 30 is_stmt 0 view .LVU163
 660 005a E31A     		subs	r3, r4, r3
 661 005c 94FBF3F3 		sdiv	r3, r4, r3
 662 0060 00EE103A 		vmov	s0, r3	@ int
 663              	.LVL56:
 378:../../Middlewares/Camera_Middleware/sensors/cmw_vd66gy.c ****   dgain_min_mdB = (uint32_t) LINEAR_TO_MDECIBEL(FP58_TO_FLOAT(dgain_regmin));
 664              		.loc 1 378 30 view .LVU164
 665 0064 B8EEC00B 		vcvt.f64.s32	d0, s0
ARM GAS  C:\Users\Antonio\AppData\Local\Temp\ccO3q7yr.s 			page 24


 666 0068 FFF7FEFF 		bl	log10
 667              	.LVL57:
 378:../../Middlewares/Camera_Middleware/sensors/cmw_vd66gy.c ****   dgain_min_mdB = (uint32_t) LINEAR_TO_MDECIBEL(FP58_TO_FLOAT(dgain_regmin));
 668              		.loc 1 378 30 discriminator 1 view .LVU165
 669 006c 9FED58BB 		vldr.64	d11, .L25
 670 0070 20EE0A0B 		vmul.f64	d0, d0, d10
 671 0074 20EE0B0B 		vmul.f64	d0, d0, d11
 378:../../Middlewares/Camera_Middleware/sensors/cmw_vd66gy.c ****   dgain_min_mdB = (uint32_t) LINEAR_TO_MDECIBEL(FP58_TO_FLOAT(dgain_regmin));
 672              		.loc 1 378 17 discriminator 1 view .LVU166
 673 0078 FCEEC07B 		vcvt.u32.f64	s15, d0
 379:../../Middlewares/Camera_Middleware/sensors/cmw_vd66gy.c ****   dgain_max_mdB = (uint32_t) LINEAR_TO_MDECIBEL(FP58_TO_FLOAT(dgain_regmax));
 674              		.loc 1 379 30 view .LVU167
 675 007c BDF80C30 		ldrh	r3, [sp, #12]
 676 0080 9DF80C20 		ldrb	r2, [sp, #12]	@ zero_extendqisi2
 677 0084 1B0A     		lsrs	r3, r3, #8
 678 0086 00EE103A 		vmov	s0, r3	@ int
 378:../../Middlewares/Camera_Middleware/sensors/cmw_vd66gy.c ****   dgain_min_mdB = (uint32_t) LINEAR_TO_MDECIBEL(FP58_TO_FLOAT(dgain_regmin));
 679              		.loc 1 378 17 discriminator 1 view .LVU168
 680 008a 17EE907A 		vmov	r7, s15	@ int
 681              	.LVL58:
 379:../../Middlewares/Camera_Middleware/sensors/cmw_vd66gy.c ****   dgain_max_mdB = (uint32_t) LINEAR_TO_MDECIBEL(FP58_TO_FLOAT(dgain_regmax));
 682              		.loc 1 379 3 is_stmt 1 view .LVU169
 379:../../Middlewares/Camera_Middleware/sensors/cmw_vd66gy.c ****   dgain_max_mdB = (uint32_t) LINEAR_TO_MDECIBEL(FP58_TO_FLOAT(dgain_regmax));
 683              		.loc 1 379 30 is_stmt 0 view .LVU170
 684 008e 07EE902A 		vmov	s15, r2	@ int
 685 0092 9FED559A 		vldr.32	s18, .L25+24
 686 0096 F8EEE77A 		vcvt.f32.s32	s15, s15
 687 009a B8EEC00A 		vcvt.f32.s32	s0, s0
 688 009e A7EE890A 		vfma.f32	s0, s15, s18
 689 00a2 B7EEC00A 		vcvt.f64.f32	d0, s0
 690 00a6 FFF7FEFF 		bl	log10
 691              	.LVL59:
 379:../../Middlewares/Camera_Middleware/sensors/cmw_vd66gy.c ****   dgain_max_mdB = (uint32_t) LINEAR_TO_MDECIBEL(FP58_TO_FLOAT(dgain_regmax));
 692              		.loc 1 379 30 discriminator 1 view .LVU171
 693 00aa 20EE0A0B 		vmul.f64	d0, d0, d10
 694 00ae 20EE0B0B 		vmul.f64	d0, d0, d11
 379:../../Middlewares/Camera_Middleware/sensors/cmw_vd66gy.c ****   dgain_max_mdB = (uint32_t) LINEAR_TO_MDECIBEL(FP58_TO_FLOAT(dgain_regmax));
 695              		.loc 1 379 17 discriminator 1 view .LVU172
 696 00b2 FCEEC07B 		vcvt.u32.f64	s15, d0
 380:../../Middlewares/Camera_Middleware/sensors/cmw_vd66gy.c **** 
 697              		.loc 1 380 30 view .LVU173
 698 00b6 BDF80E30 		ldrh	r3, [sp, #14]
 699 00ba 9DF80E20 		ldrb	r2, [sp, #14]	@ zero_extendqisi2
 700 00be 1B0A     		lsrs	r3, r3, #8
 701 00c0 00EE103A 		vmov	s0, r3	@ int
 379:../../Middlewares/Camera_Middleware/sensors/cmw_vd66gy.c ****   dgain_max_mdB = (uint32_t) LINEAR_TO_MDECIBEL(FP58_TO_FLOAT(dgain_regmax));
 702              		.loc 1 379 17 discriminator 1 view .LVU174
 703 00c4 17EE904A 		vmov	r4, s15	@ int
 704              	.LVL60:
 380:../../Middlewares/Camera_Middleware/sensors/cmw_vd66gy.c **** 
 705              		.loc 1 380 3 is_stmt 1 view .LVU175
 380:../../Middlewares/Camera_Middleware/sensors/cmw_vd66gy.c **** 
 706              		.loc 1 380 30 is_stmt 0 view .LVU176
 707 00c8 07EE902A 		vmov	s15, r2	@ int
 708 00cc B8EEC00A 		vcvt.f32.s32	s0, s0
 709 00d0 F8EEE77A 		vcvt.f32.s32	s15, s15
 710 00d4 A7EE890A 		vfma.f32	s0, s15, s18
ARM GAS  C:\Users\Antonio\AppData\Local\Temp\ccO3q7yr.s 			page 25


 711 00d8 B7EEC00A 		vcvt.f64.f32	d0, s0
 712 00dc FFF7FEFF 		bl	log10
 713              	.LVL61:
 377:../../Middlewares/Camera_Middleware/sensors/cmw_vd66gy.c ****   again_max_mdB = (uint32_t) LINEAR_TO_MDECIBEL(32 / (32 - again_regmax));
 714              		.loc 1 377 30 discriminator 1 view .LVU177
 715 00e0 28EE0A8B 		vmul.f64	d8, d8, d10
 716              	.LVL62:
 377:../../Middlewares/Camera_Middleware/sensors/cmw_vd66gy.c ****   again_max_mdB = (uint32_t) LINEAR_TO_MDECIBEL(32 / (32 - again_regmax));
 717              		.loc 1 377 30 discriminator 1 view .LVU178
 718 00e4 28EE0B8B 		vmul.f64	d8, d8, d11
 377:../../Middlewares/Camera_Middleware/sensors/cmw_vd66gy.c ****   again_max_mdB = (uint32_t) LINEAR_TO_MDECIBEL(32 / (32 - again_regmax));
 719              		.loc 1 377 17 discriminator 1 view .LVU179
 720 00e8 BCEEC88B 		vcvt.u32.f64	s16, d8
 380:../../Middlewares/Camera_Middleware/sensors/cmw_vd66gy.c **** 
 721              		.loc 1 380 30 discriminator 1 view .LVU180
 722 00ec 20EE0A0B 		vmul.f64	d0, d0, d10
 382:../../Middlewares/Camera_Middleware/sensors/cmw_vd66gy.c ****       || (gain > dgain_max_mdB + again_max_mdB))
 723              		.loc 1 382 29 view .LVU181
 724 00f0 18EE103A 		vmov	r3, s16	@ int
 380:../../Middlewares/Camera_Middleware/sensors/cmw_vd66gy.c **** 
 725              		.loc 1 380 30 discriminator 1 view .LVU182
 726 00f4 20EE0B0B 		vmul.f64	d0, d0, d11
 382:../../Middlewares/Camera_Middleware/sensors/cmw_vd66gy.c ****       || (gain > dgain_max_mdB + again_max_mdB))
 727              		.loc 1 382 29 view .LVU183
 728 00f8 2344     		add	r3, r3, r4
 382:../../Middlewares/Camera_Middleware/sensors/cmw_vd66gy.c ****       || (gain > dgain_max_mdB + again_max_mdB))
 729              		.loc 1 382 6 view .LVU184
 730 00fa AB42     		cmp	r3, r5
 380:../../Middlewares/Camera_Middleware/sensors/cmw_vd66gy.c **** 
 731              		.loc 1 380 17 discriminator 1 view .LVU185
 732 00fc BCEEC00B 		vcvt.u32.f64	s0, d0
 733              	.LVL63:
 382:../../Middlewares/Camera_Middleware/sensors/cmw_vd66gy.c ****       || (gain > dgain_max_mdB + again_max_mdB))
 734              		.loc 1 382 3 is_stmt 1 view .LVU186
 382:../../Middlewares/Camera_Middleware/sensors/cmw_vd66gy.c ****       || (gain > dgain_max_mdB + again_max_mdB))
 735              		.loc 1 382 6 is_stmt 0 view .LVU187
 736 0100 61D8     		bhi	.L23
 383:../../Middlewares/Camera_Middleware/sensors/cmw_vd66gy.c ****     return -1;
 737              		.loc 1 383 32 view .LVU188
 738 0102 10EE103A 		vmov	r3, s0	@ int
 739 0106 3B44     		add	r3, r3, r7
 383:../../Middlewares/Camera_Middleware/sensors/cmw_vd66gy.c ****     return -1;
 740              		.loc 1 383 7 view .LVU189
 741 0108 9D42     		cmp	r5, r3
 742 010a 5CD8     		bhi	.L23
 386:../../Middlewares/Camera_Middleware/sensors/cmw_vd66gy.c ****   {
 743              		.loc 1 386 3 is_stmt 1 view .LVU190
 386:../../Middlewares/Camera_Middleware/sensors/cmw_vd66gy.c ****   {
 744              		.loc 1 386 6 is_stmt 0 view .LVU191
 745 010c BD42     		cmp	r5, r7
 746 010e 48D8     		bhi	.L20
 389:../../Middlewares/Camera_Middleware/sensors/cmw_vd66gy.c ****     digital_linear_gain = MDECIBEL_TO_LINEAR((double)dgain_min_mdB);
 747              		.loc 1 389 5 is_stmt 1 view .LVU192
 389:../../Middlewares/Camera_Middleware/sensors/cmw_vd66gy.c ****     digital_linear_gain = MDECIBEL_TO_LINEAR((double)dgain_min_mdB);
 748              		.loc 1 389 26 is_stmt 0 view .LVU193
 749 0110 2D1B     		subs	r5, r5, r4
 750              	.LVL64:
ARM GAS  C:\Users\Antonio\AppData\Local\Temp\ccO3q7yr.s 			page 26


 389:../../Middlewares/Camera_Middleware/sensors/cmw_vd66gy.c ****     digital_linear_gain = MDECIBEL_TO_LINEAR((double)dgain_min_mdB);
 751              		.loc 1 389 26 view .LVU194
 752 0112 07EE905A 		vmov	s15, r5	@ int
 753 0116 B8EE677B 		vcvt.f64.u32	d7, s15
 754 011a 87EE0B1B 		vdiv.f64	d1, d7, d11
 755 011e B2EE040B 		vmov.f64	d0, #1.0e+1
 756              	.LVL65:
 389:../../Middlewares/Camera_Middleware/sensors/cmw_vd66gy.c ****     digital_linear_gain = MDECIBEL_TO_LINEAR((double)dgain_min_mdB);
 757              		.loc 1 389 26 view .LVU195
 758 0122 81EE0A1B 		vdiv.f64	d1, d1, d10
 759 0126 FFF7FEFF 		bl	pow
 760              	.LVL66:
 390:../../Middlewares/Camera_Middleware/sensors/cmw_vd66gy.c ****   }
 761              		.loc 1 390 27 view .LVU196
 762 012a 07EE904A 		vmov	s15, r4	@ int
 389:../../Middlewares/Camera_Middleware/sensors/cmw_vd66gy.c ****     digital_linear_gain = MDECIBEL_TO_LINEAR((double)dgain_min_mdB);
 763              		.loc 1 389 26 view .LVU197
 764 012e B0EE409B 		vmov.f64	d9, d0
 765              	.LVL67:
 390:../../Middlewares/Camera_Middleware/sensors/cmw_vd66gy.c ****   }
 766              		.loc 1 390 5 is_stmt 1 view .LVU198
 767              	.L24:
 396:../../Middlewares/Camera_Middleware/sensors/cmw_vd66gy.c ****   }
 768              		.loc 1 396 27 is_stmt 0 view .LVU199
 769 0132 B8EE677B 		vcvt.f64.u32	d7, s15
 770 0136 87EE0B1B 		vdiv.f64	d1, d7, d11
 771 013a B2EE040B 		vmov.f64	d0, #1.0e+1
 772              	.LVL68:
 396:../../Middlewares/Camera_Middleware/sensors/cmw_vd66gy.c ****   }
 773              		.loc 1 396 27 view .LVU200
 774 013e 81EE0A1B 		vdiv.f64	d1, d1, d10
 775 0142 FFF7FEFF 		bl	pow
 776              	.LVL69:
 399:../../Middlewares/Camera_Middleware/sensors/cmw_vd66gy.c ****   if (ret)
 777              		.loc 1 399 83 view .LVU201
 778 0146 9FED247B 		vldr.64	d7, .L25+8
 779 014a 87EE096B 		vdiv.f64	d6, d7, d9
 399:../../Middlewares/Camera_Middleware/sensors/cmw_vd66gy.c ****   if (ret)
 780              		.loc 1 399 77 view .LVU202
 781 014e 37EE467B 		vsub.f64	d7, d7, d6
 399:../../Middlewares/Camera_Middleware/sensors/cmw_vd66gy.c ****   if (ret)
 782              		.loc 1 399 9 view .LVU203
 783 0152 FDEEC77B 		vcvt.s32.f64	s15, d7
 784 0156 3046     		mov	r0, r6
 785 0158 17EE901A 		vmov	r1, s15	@ int
 396:../../Middlewares/Camera_Middleware/sensors/cmw_vd66gy.c ****   }
 786              		.loc 1 396 27 view .LVU204
 787 015c B0EE408B 		vmov.f64	d8, d0
 788              	.LVL70:
 399:../../Middlewares/Camera_Middleware/sensors/cmw_vd66gy.c ****   if (ret)
 789              		.loc 1 399 3 is_stmt 1 view .LVU205
 399:../../Middlewares/Camera_Middleware/sensors/cmw_vd66gy.c ****   if (ret)
 790              		.loc 1 399 9 is_stmt 0 view .LVU206
 791 0160 FFF7FEFF 		bl	VD6G_SetAnalogGain
 792              	.LVL71:
 400:../../Middlewares/Camera_Middleware/sensors/cmw_vd66gy.c ****     return ret;
 793              		.loc 1 400 3 is_stmt 1 view .LVU207
ARM GAS  C:\Users\Antonio\AppData\Local\Temp\ccO3q7yr.s 			page 27


 400:../../Middlewares/Camera_Middleware/sensors/cmw_vd66gy.c ****     return ret;
 794              		.loc 1 400 6 is_stmt 0 view .LVU208
 795 0164 C8B9     		cbnz	r0, .L18
 403:../../Middlewares/Camera_Middleware/sensors/cmw_vd66gy.c ****   if (ret)
 796              		.loc 1 403 3 is_stmt 1 view .LVU209
 403:../../Middlewares/Camera_Middleware/sensors/cmw_vd66gy.c ****   if (ret)
 797              		.loc 1 403 68 is_stmt 0 view .LVU210
 798 0166 FCEEC87B 		vcvt.u32.f64	s15, d8
 799 016a 17EE903A 		vmov	r3, s15	@ int
 800 016e 99B2     		uxth	r1, r3
 801 0170 07EE901A 		vmov	s15, r1	@ int
 802 0174 B8EEE77B 		vcvt.f64.s32	d7, s15
 803 0178 38EE478B 		vsub.f64	d8, d8, d7
 804              	.LVL72:
 403:../../Middlewares/Camera_Middleware/sensors/cmw_vd66gy.c ****   if (ret)
 805              		.loc 1 403 68 view .LVU211
 806 017c 9FED187B 		vldr.64	d7, .L25+16
 807 0180 28EE078B 		vmul.f64	d8, d8, d7
 808 0184 FCEEC87B 		vcvt.u32.f64	s15, d8
 809 0188 CDED017A 		vstr.32	s15, [sp, #4]	@ int
 810 018c 9DF80430 		ldrb	r3, [sp, #4]	@ zero_extendqisi2
 403:../../Middlewares/Camera_Middleware/sensors/cmw_vd66gy.c ****   if (ret)
 811              		.loc 1 403 9 view .LVU212
 812 0190 3046     		mov	r0, r6
 813              	.LVL73:
 403:../../Middlewares/Camera_Middleware/sensors/cmw_vd66gy.c ****   if (ret)
 814              		.loc 1 403 9 view .LVU213
 815 0192 43EA0121 		orr	r1, r3, r1, lsl #8
 816 0196 FFF7FEFF 		bl	VD6G_SetDigitalGain
 817              	.LVL74:
 404:../../Middlewares/Camera_Middleware/sensors/cmw_vd66gy.c ****     return ret;
 818              		.loc 1 404 3 is_stmt 1 view .LVU214
 819              	.L18:
 408:../../Middlewares/Camera_Middleware/sensors/cmw_vd66gy.c **** 
 820              		.loc 1 408 1 is_stmt 0 view .LVU215
 821 019a 05B0     		add	sp, sp, #20
 822              		.cfi_remember_state
 823              		.cfi_def_cfa_offset 52
 824              		@ sp needed
 825 019c BDEC088B 		vldm	sp!, {d8-d11}
 826              		.cfi_restore 86
 827              		.cfi_restore 87
 828              		.cfi_restore 84
 829              		.cfi_restore 85
 830              		.cfi_restore 82
 831              		.cfi_restore 83
 832              		.cfi_restore 80
 833              		.cfi_restore 81
 834              		.cfi_def_cfa_offset 20
 835 01a0 F0BD     		pop	{r4, r5, r6, r7, pc}
 836              	.LVL75:
 837              	.L20:
 838              		.cfi_restore_state
 395:../../Middlewares/Camera_Middleware/sensors/cmw_vd66gy.c ****     digital_linear_gain = MDECIBEL_TO_LINEAR((double)(gain - again_max_mdB));
 839              		.loc 1 395 5 is_stmt 1 view .LVU216
 395:../../Middlewares/Camera_Middleware/sensors/cmw_vd66gy.c ****     digital_linear_gain = MDECIBEL_TO_LINEAR((double)(gain - again_max_mdB));
 840              		.loc 1 395 26 is_stmt 0 view .LVU217
ARM GAS  C:\Users\Antonio\AppData\Local\Temp\ccO3q7yr.s 			page 28


 841 01a2 07EE907A 		vmov	s15, r7	@ int
 842 01a6 B8EE677B 		vcvt.f64.u32	d7, s15
 843 01aa 87EE0B1B 		vdiv.f64	d1, d7, d11
 844 01ae B2EE040B 		vmov.f64	d0, #1.0e+1
 845              	.LVL76:
 395:../../Middlewares/Camera_Middleware/sensors/cmw_vd66gy.c ****     digital_linear_gain = MDECIBEL_TO_LINEAR((double)(gain - again_max_mdB));
 846              		.loc 1 395 26 view .LVU218
 847 01b2 81EE0A1B 		vdiv.f64	d1, d1, d10
 848 01b6 FFF7FEFF 		bl	pow
 849              	.LVL77:
 396:../../Middlewares/Camera_Middleware/sensors/cmw_vd66gy.c ****   }
 850              		.loc 1 396 27 view .LVU219
 851 01ba ED1B     		subs	r5, r5, r7
 852              	.LVL78:
 395:../../Middlewares/Camera_Middleware/sensors/cmw_vd66gy.c ****     digital_linear_gain = MDECIBEL_TO_LINEAR((double)(gain - again_max_mdB));
 853              		.loc 1 395 26 view .LVU220
 854 01bc B0EE409B 		vmov.f64	d9, d0
 855              	.LVL79:
 396:../../Middlewares/Camera_Middleware/sensors/cmw_vd66gy.c ****   }
 856              		.loc 1 396 5 is_stmt 1 view .LVU221
 396:../../Middlewares/Camera_Middleware/sensors/cmw_vd66gy.c ****   }
 857              		.loc 1 396 27 is_stmt 0 view .LVU222
 858 01c0 07EE905A 		vmov	s15, r5	@ int
 859 01c4 B5E7     		b	.L24
 860              	.LVL80:
 861              	.L23:
 384:../../Middlewares/Camera_Middleware/sensors/cmw_vd66gy.c **** 
 862              		.loc 1 384 12 view .LVU223
 863 01c6 4FF0FF30 		mov	r0, #-1
 864 01ca E6E7     		b	.L18
 865              	.L26:
 866 01cc AFF30080 		.align	3
 867              	.L25:
 868 01d0 00000000 		.word	0
 869 01d4 00408F40 		.word	1083129856
 870 01d8 00000000 		.word	0
 871 01dc 00004040 		.word	1077936128
 872 01e0 00000000 		.word	0
 873 01e4 00007040 		.word	1081081856
 874 01e8 0000803B 		.word	998244352
 875              		.cfi_endproc
 876              	.LFE3365:
 878              		.section	.text.CMW_VD66GY_SetExposure,"ax",%progbits
 879              		.align	1
 880              		.global	CMW_VD66GY_SetExposure
 881              		.syntax unified
 882              		.thumb
 883              		.thumb_func
 885              	CMW_VD66GY_SetExposure:
 886              	.LVL81:
 887              	.LFB3366:
 417:../../Middlewares/Camera_Middleware/sensors/cmw_vd66gy.c ****   return VD6G_SetExposureTime(&((CMW_VD66GY_t *)io_ctx)->ctx_driver, exposure);
 888              		.loc 1 417 1 is_stmt 1 view -0
 889              		.cfi_startproc
 890              		@ args = 0, pretend = 0, frame = 0
 891              		@ frame_needed = 0, uses_anonymous_args = 0
 892              		@ link register save eliminated.
ARM GAS  C:\Users\Antonio\AppData\Local\Temp\ccO3q7yr.s 			page 29


 418:../../Middlewares/Camera_Middleware/sensors/cmw_vd66gy.c **** }
 893              		.loc 1 418 3 view .LVU225
 418:../../Middlewares/Camera_Middleware/sensors/cmw_vd66gy.c **** }
 894              		.loc 1 418 10 is_stmt 0 view .LVU226
 895 0000 0830     		adds	r0, r0, #8
 896              	.LVL82:
 418:../../Middlewares/Camera_Middleware/sensors/cmw_vd66gy.c **** }
 897              		.loc 1 418 10 view .LVU227
 898 0002 FFF7FEBF 		b	VD6G_SetExposureTime
 899              	.LVL83:
 418:../../Middlewares/Camera_Middleware/sensors/cmw_vd66gy.c **** }
 900              		.loc 1 418 10 view .LVU228
 901              		.cfi_endproc
 902              	.LFE3366:
 904              		.section	.text.CMW_VD66GY_SetExposureMode,"ax",%progbits
 905              		.align	1
 906              		.global	CMW_VD66GY_SetExposureMode
 907              		.syntax unified
 908              		.thumb
 909              		.thumb_func
 911              	CMW_VD66GY_SetExposureMode:
 912              	.LVL84:
 913              	.LFB3367:
 428:../../Middlewares/Camera_Middleware/sensors/cmw_vd66gy.c ****   int ret = -1;
 914              		.loc 1 428 1 is_stmt 1 view -0
 915              		.cfi_startproc
 916              		@ args = 0, pretend = 0, frame = 0
 917              		@ frame_needed = 0, uses_anonymous_args = 0
 429:../../Middlewares/Camera_Middleware/sensors/cmw_vd66gy.c **** 
 918              		.loc 1 429 3 view .LVU230
 431:../../Middlewares/Camera_Middleware/sensors/cmw_vd66gy.c ****   {
 919              		.loc 1 431 3 view .LVU231
 920 0000 0129     		cmp	r1, #1
 428:../../Middlewares/Camera_Middleware/sensors/cmw_vd66gy.c ****   int ret = -1;
 921              		.loc 1 428 1 is_stmt 0 view .LVU232
 922 0002 08B5     		push	{r3, lr}
 923              		.cfi_def_cfa_offset 8
 924              		.cfi_offset 3, -8
 925              		.cfi_offset 14, -4
 926 0004 00F10800 		add	r0, r0, #8
 927              	.LVL85:
 431:../../Middlewares/Camera_Middleware/sensors/cmw_vd66gy.c ****   {
 928              		.loc 1 431 3 view .LVU233
 929 0008 02D0     		beq	.L34
 930 000a 0229     		cmp	r1, #2
 434:../../Middlewares/Camera_Middleware/sensors/cmw_vd66gy.c ****       break;
 931              		.loc 1 434 7 is_stmt 1 view .LVU234
 441:../../Middlewares/Camera_Middleware/sensors/cmw_vd66gy.c ****       break;
 932              		.loc 1 441 7 view .LVU235
 441:../../Middlewares/Camera_Middleware/sensors/cmw_vd66gy.c ****       break;
 933              		.loc 1 441 13 is_stmt 0 view .LVU236
 934 000c 18BF     		it	ne
 935 000e 0021     		movne	r1, #0
 936              	.LVL86:
 937              	.L34:
 441:../../Middlewares/Camera_Middleware/sensors/cmw_vd66gy.c ****       break;
 938              		.loc 1 441 13 view .LVU237
ARM GAS  C:\Users\Antonio\AppData\Local\Temp\ccO3q7yr.s 			page 30


 939 0010 FFF7FEFF 		bl	VD6G_SetExposureMode
 940              	.LVL87:
 442:../../Middlewares/Camera_Middleware/sensors/cmw_vd66gy.c ****   }
 941              		.loc 1 442 7 is_stmt 1 view .LVU238
 445:../../Middlewares/Camera_Middleware/sensors/cmw_vd66gy.c **** }
 942              		.loc 1 445 3 view .LVU239
 445:../../Middlewares/Camera_Middleware/sensors/cmw_vd66gy.c **** }
 943              		.loc 1 445 38 is_stmt 0 discriminator 2 view .LVU240
 944 0014 0028     		cmp	r0, #0
 446:../../Middlewares/Camera_Middleware/sensors/cmw_vd66gy.c **** 
 945              		.loc 1 446 1 view .LVU241
 946 0016 18BF     		it	ne
 947 0018 6FF00500 		mvnne	r0, #5
 948              	.LVL88:
 446:../../Middlewares/Camera_Middleware/sensors/cmw_vd66gy.c **** 
 949              		.loc 1 446 1 view .LVU242
 950 001c 08BD     		pop	{r3, pc}
 951              		.cfi_endproc
 952              	.LFE3367:
 954              		.section	.text.CMW_VD66GY_SetWBRefMode,"ax",%progbits
 955              		.align	1
 956              		.global	CMW_VD66GY_SetWBRefMode
 957              		.syntax unified
 958              		.thumb
 959              		.thumb_func
 961              	CMW_VD66GY_SetWBRefMode:
 962              	.LVL89:
 963              	.LFB3368:
 456:../../Middlewares/Camera_Middleware/sensors/cmw_vd66gy.c ****   int ret = CMW_ERROR_NONE;
 964              		.loc 1 456 1 is_stmt 1 view -0
 965              		.cfi_startproc
 966              		@ args = 0, pretend = 0, frame = 0
 967              		@ frame_needed = 0, uses_anonymous_args = 0
 457:../../Middlewares/Camera_Middleware/sensors/cmw_vd66gy.c **** 
 968              		.loc 1 457 3 view .LVU244
 459:../../Middlewares/Camera_Middleware/sensors/cmw_vd66gy.c ****   if (ret)
 969              		.loc 1 459 3 view .LVU245
 456:../../Middlewares/Camera_Middleware/sensors/cmw_vd66gy.c ****   int ret = CMW_ERROR_NONE;
 970              		.loc 1 456 1 is_stmt 0 view .LVU246
 971 0000 08B5     		push	{r3, lr}
 972              		.cfi_def_cfa_offset 8
 973              		.cfi_offset 3, -8
 974              		.cfi_offset 14, -4
 459:../../Middlewares/Camera_Middleware/sensors/cmw_vd66gy.c ****   if (ret)
 975              		.loc 1 459 9 view .LVU247
 976 0002 7030     		adds	r0, r0, #112
 977              	.LVL90:
 459:../../Middlewares/Camera_Middleware/sensors/cmw_vd66gy.c ****   if (ret)
 978              		.loc 1 459 9 view .LVU248
 979 0004 FFF7FEFF 		bl	ISP_SetWBRefMode
 980              	.LVL91:
 460:../../Middlewares/Camera_Middleware/sensors/cmw_vd66gy.c ****   {
 981              		.loc 1 460 3 is_stmt 1 view .LVU249
 465:../../Middlewares/Camera_Middleware/sensors/cmw_vd66gy.c **** }
 982              		.loc 1 465 10 is_stmt 0 view .LVU250
 983 0008 0028     		cmp	r0, #0
 466:../../Middlewares/Camera_Middleware/sensors/cmw_vd66gy.c **** 
ARM GAS  C:\Users\Antonio\AppData\Local\Temp\ccO3q7yr.s 			page 31


 984              		.loc 1 466 1 view .LVU251
 985 000a 14BF     		ite	ne
 986 000c 6FF00300 		mvnne	r0, #3
 987              	.LVL92:
 466:../../Middlewares/Camera_Middleware/sensors/cmw_vd66gy.c **** 
 988              		.loc 1 466 1 view .LVU252
 989 0010 0020     		moveq	r0, #0
 990 0012 08BD     		pop	{r3, pc}
 991              		.cfi_endproc
 992              	.LFE3368:
 994              		.section	.text.CMW_VD66GY_ListWBRefModes,"ax",%progbits
 995              		.align	1
 996              		.global	CMW_VD66GY_ListWBRefModes
 997              		.syntax unified
 998              		.thumb
 999              		.thumb_func
 1001              	CMW_VD66GY_ListWBRefModes:
 1002              	.LVL93:
 1003              	.LFB3369:
 475:../../Middlewares/Camera_Middleware/sensors/cmw_vd66gy.c ****   int ret = CMW_ERROR_NONE;
 1004              		.loc 1 475 1 is_stmt 1 view -0
 1005              		.cfi_startproc
 1006              		@ args = 0, pretend = 0, frame = 0
 1007              		@ frame_needed = 0, uses_anonymous_args = 0
 476:../../Middlewares/Camera_Middleware/sensors/cmw_vd66gy.c **** 
 1008              		.loc 1 476 3 view .LVU254
 478:../../Middlewares/Camera_Middleware/sensors/cmw_vd66gy.c ****   if (ret)
 1009              		.loc 1 478 3 view .LVU255
 475:../../Middlewares/Camera_Middleware/sensors/cmw_vd66gy.c ****   int ret = CMW_ERROR_NONE;
 1010              		.loc 1 475 1 is_stmt 0 view .LVU256
 1011 0000 08B5     		push	{r3, lr}
 1012              		.cfi_def_cfa_offset 8
 1013              		.cfi_offset 3, -8
 1014              		.cfi_offset 14, -4
 478:../../Middlewares/Camera_Middleware/sensors/cmw_vd66gy.c ****   if (ret)
 1015              		.loc 1 478 9 view .LVU257
 1016 0002 7030     		adds	r0, r0, #112
 1017              	.LVL94:
 478:../../Middlewares/Camera_Middleware/sensors/cmw_vd66gy.c ****   if (ret)
 1018              		.loc 1 478 9 view .LVU258
 1019 0004 FFF7FEFF 		bl	ISP_ListWBRefModes
 1020              	.LVL95:
 479:../../Middlewares/Camera_Middleware/sensors/cmw_vd66gy.c ****   {
 1021              		.loc 1 479 3 is_stmt 1 view .LVU259
 484:../../Middlewares/Camera_Middleware/sensors/cmw_vd66gy.c **** }
 1022              		.loc 1 484 10 is_stmt 0 view .LVU260
 1023 0008 0028     		cmp	r0, #0
 485:../../Middlewares/Camera_Middleware/sensors/cmw_vd66gy.c **** 
 1024              		.loc 1 485 1 view .LVU261
 1025 000a 14BF     		ite	ne
 1026 000c 6FF00300 		mvnne	r0, #3
 1027              	.LVL96:
 485:../../Middlewares/Camera_Middleware/sensors/cmw_vd66gy.c **** 
 1028              		.loc 1 485 1 view .LVU262
 1029 0010 0020     		moveq	r0, #0
 1030 0012 08BD     		pop	{r3, pc}
 1031              		.cfi_endproc
ARM GAS  C:\Users\Antonio\AppData\Local\Temp\ccO3q7yr.s 			page 32


 1032              	.LFE3369:
 1034              		.section	.rodata.CMW_VD66GY_GetSensorInfo.str1.1,"aMS",%progbits,1
 1035              	.LC0:
 1036 0000 56443636 		.ascii	"VD66GY\000"
 1036      475900
 1037              		.section	.text.CMW_VD66GY_GetSensorInfo,"ax",%progbits
 1038              		.align	1
 1039              		.global	CMW_VD66GY_GetSensorInfo
 1040              		.syntax unified
 1041              		.thumb
 1042              		.thumb_func
 1044              	CMW_VD66GY_GetSensorInfo:
 1045              	.LVL97:
 1046              	.LFB3370:
 494:../../Middlewares/Camera_Middleware/sensors/cmw_vd66gy.c ****   uint8_t again_regmin, again_regmax;
 1047              		.loc 1 494 1 is_stmt 1 view -0
 1048              		.cfi_startproc
 1049              		@ args = 0, pretend = 0, frame = 8
 1050              		@ frame_needed = 0, uses_anonymous_args = 0
 495:../../Middlewares/Camera_Middleware/sensors/cmw_vd66gy.c ****   uint16_t dgain_regmin, dgain_regmax;
 1051              		.loc 1 495 3 view .LVU264
 496:../../Middlewares/Camera_Middleware/sensors/cmw_vd66gy.c ****   uint32_t again_min_mdB, again_max_mdB;
 1052              		.loc 1 496 3 view .LVU265
 497:../../Middlewares/Camera_Middleware/sensors/cmw_vd66gy.c ****   uint32_t dgain_min_mdB, dgain_max_mdB;
 1053              		.loc 1 497 3 view .LVU266
 498:../../Middlewares/Camera_Middleware/sensors/cmw_vd66gy.c **** 
 1054              		.loc 1 498 3 view .LVU267
 500:../../Middlewares/Camera_Middleware/sensors/cmw_vd66gy.c **** 
 1055              		.loc 1 500 3 view .LVU268
 502:../../Middlewares/Camera_Middleware/sensors/cmw_vd66gy.c ****     return CMW_ERROR_WRONG_PARAM;
 1056              		.loc 1 502 3 view .LVU269
 494:../../Middlewares/Camera_Middleware/sensors/cmw_vd66gy.c ****   uint8_t again_regmin, again_regmax;
 1057              		.loc 1 494 1 is_stmt 0 view .LVU270
 1058 0000 70B5     		push	{r4, r5, r6, lr}
 1059              		.cfi_def_cfa_offset 16
 1060              		.cfi_offset 4, -16
 1061              		.cfi_offset 5, -12
 1062              		.cfi_offset 6, -8
 1063              		.cfi_offset 14, -4
 1064 0002 2DED088B 		vpush.64	{d8, d9, d10, d11}
 1065              		.cfi_def_cfa_offset 48
 1066              		.cfi_offset 80, -48
 1067              		.cfi_offset 81, -44
 1068              		.cfi_offset 82, -40
 1069              		.cfi_offset 83, -36
 1070              		.cfi_offset 84, -32
 1071              		.cfi_offset 85, -28
 1072              		.cfi_offset 86, -24
 1073              		.cfi_offset 87, -20
 1074 0006 0C46     		mov	r4, r1
 502:../../Middlewares/Camera_Middleware/sensors/cmw_vd66gy.c ****     return CMW_ERROR_WRONG_PARAM;
 1075              		.loc 1 502 6 view .LVU271
 1076 0008 0546     		mov	r5, r0
 494:../../Middlewares/Camera_Middleware/sensors/cmw_vd66gy.c ****   uint8_t again_regmin, again_regmax;
 1077              		.loc 1 494 1 view .LVU272
 1078 000a 82B0     		sub	sp, sp, #8
 1079              		.cfi_def_cfa_offset 56
ARM GAS  C:\Users\Antonio\AppData\Local\Temp\ccO3q7yr.s 			page 33


 502:../../Middlewares/Camera_Middleware/sensors/cmw_vd66gy.c ****     return CMW_ERROR_WRONG_PARAM;
 1080              		.loc 1 502 6 view .LVU273
 1081 000c 0028     		cmp	r0, #0
 1082 000e 00F0A080 		beq	.L44
 502:../../Middlewares/Camera_Middleware/sensors/cmw_vd66gy.c ****     return CMW_ERROR_WRONG_PARAM;
 1083              		.loc 1 502 17 discriminator 1 view .LVU274
 1084 0012 0029     		cmp	r1, #0
 1085 0014 00F09D80 		beq	.L44
 506:../../Middlewares/Camera_Middleware/sensors/cmw_vd66gy.c ****   {
 1086              		.loc 1 506 3 is_stmt 1 view .LVU275
 508:../../Middlewares/Camera_Middleware/sensors/cmw_vd66gy.c ****   }
 1087              		.loc 1 508 5 view .LVU276
 1088 0018 5149     		ldr	r1, .L45+8
 1089              	.LVL98:
 508:../../Middlewares/Camera_Middleware/sensors/cmw_vd66gy.c ****   }
 1090              		.loc 1 508 5 is_stmt 0 view .LVU277
 1091 001a 2046     		mov	r0, r4
 1092              	.LVL99:
 508:../../Middlewares/Camera_Middleware/sensors/cmw_vd66gy.c ****   }
 1093              		.loc 1 508 5 view .LVU278
 1094 001c FFF7FEFF 		bl	strcpy
 1095              	.LVL100:
 516:../../Middlewares/Camera_Middleware/sensors/cmw_vd66gy.c **** 
 1096              		.loc 1 516 3 is_stmt 1 view .LVU279
 516:../../Middlewares/Camera_Middleware/sensors/cmw_vd66gy.c **** 
 1097              		.loc 1 516 68 is_stmt 0 view .LVU280
 1098 0020 95F83030 		ldrb	r3, [r5, #48]	@ zero_extendqisi2
 523:../../Middlewares/Camera_Middleware/sensors/cmw_vd66gy.c **** 
 1099              		.loc 1 523 16 view .LVU281
 1100 0024 4FF48C62 		mov	r2, #1120
 516:../../Middlewares/Camera_Middleware/sensors/cmw_vd66gy.c **** 
 1101              		.loc 1 516 68 view .LVU282
 1102 0028 013B     		subs	r3, r3, #1
 516:../../Middlewares/Camera_Middleware/sensors/cmw_vd66gy.c **** 
 1103              		.loc 1 516 23 view .LVU283
 1104 002a 84F82030 		strb	r3, [r4, #32]
 519:../../Middlewares/Camera_Middleware/sensors/cmw_vd66gy.c **** 
 1105              		.loc 1 519 3 is_stmt 1 view .LVU284
 519:../../Middlewares/Camera_Middleware/sensors/cmw_vd66gy.c **** 
 1106              		.loc 1 519 21 is_stmt 0 view .LVU285
 1107 002e 0823     		movs	r3, #8
 1108 0030 84F82130 		strb	r3, [r4, #33]
 522:../../Middlewares/Camera_Middleware/sensors/cmw_vd66gy.c ****   info->height = VD6G_MAX_HEIGHT;
 1109              		.loc 1 522 3 is_stmt 1 view .LVU286
 523:../../Middlewares/Camera_Middleware/sensors/cmw_vd66gy.c **** 
 1110              		.loc 1 523 16 is_stmt 0 view .LVU287
 1111 0034 40F25453 		movw	r3, #1364
 526:../../Middlewares/Camera_Middleware/sensors/cmw_vd66gy.c ****   if (ret)
 1112              		.loc 1 526 9 view .LVU288
 1113 0038 0835     		adds	r5, r5, #8
 1114              	.LVL101:
 523:../../Middlewares/Camera_Middleware/sensors/cmw_vd66gy.c **** 
 1115              		.loc 1 523 16 view .LVU289
 1116 003a C4E90923 		strd	r2, r3, [r4, #36]
 526:../../Middlewares/Camera_Middleware/sensors/cmw_vd66gy.c ****   if (ret)
 1117              		.loc 1 526 3 is_stmt 1 view .LVU290
 526:../../Middlewares/Camera_Middleware/sensors/cmw_vd66gy.c ****   if (ret)
ARM GAS  C:\Users\Antonio\AppData\Local\Temp\ccO3q7yr.s 			page 34


 1118              		.loc 1 526 9 is_stmt 0 view .LVU291
 1119 003e 2846     		mov	r0, r5
 1120 0040 0DF10302 		add	r2, sp, #3
 1121 0044 0DF10201 		add	r1, sp, #2
 1122 0048 FFF7FEFF 		bl	VD6G_GetAnalogGainRegRange
 1123              	.LVL102:
 527:../../Middlewares/Camera_Middleware/sensors/cmw_vd66gy.c ****     return ret;
 1124              		.loc 1 527 3 is_stmt 1 view .LVU292
 527:../../Middlewares/Camera_Middleware/sensors/cmw_vd66gy.c ****     return ret;
 1125              		.loc 1 527 6 is_stmt 0 view .LVU293
 1126 004c 0028     		cmp	r0, #0
 1127 004e 7CD1     		bne	.L41
 530:../../Middlewares/Camera_Middleware/sensors/cmw_vd66gy.c ****   if (ret)
 1128              		.loc 1 530 3 is_stmt 1 view .LVU294
 530:../../Middlewares/Camera_Middleware/sensors/cmw_vd66gy.c ****   if (ret)
 1129              		.loc 1 530 9 is_stmt 0 view .LVU295
 1130 0050 2846     		mov	r0, r5
 1131              	.LVL103:
 530:../../Middlewares/Camera_Middleware/sensors/cmw_vd66gy.c ****   if (ret)
 1132              		.loc 1 530 9 view .LVU296
 1133 0052 0DF10602 		add	r2, sp, #6
 1134 0056 01A9     		add	r1, sp, #4
 1135 0058 FFF7FEFF 		bl	VD6G_GetDigitalGainRegRange
 1136              	.LVL104:
 531:../../Middlewares/Camera_Middleware/sensors/cmw_vd66gy.c ****     return ret;
 1137              		.loc 1 531 3 is_stmt 1 view .LVU297
 531:../../Middlewares/Camera_Middleware/sensors/cmw_vd66gy.c ****     return ret;
 1138              		.loc 1 531 6 is_stmt 0 view .LVU298
 1139 005c 0028     		cmp	r0, #0
 1140 005e 74D1     		bne	.L41
 534:../../Middlewares/Camera_Middleware/sensors/cmw_vd66gy.c ****   again_max_mdB = (uint32_t) LINEAR_TO_MDECIBEL(32 / (32 - again_regmax));
 1141              		.loc 1 534 3 is_stmt 1 view .LVU299
 534:../../Middlewares/Camera_Middleware/sensors/cmw_vd66gy.c ****   again_max_mdB = (uint32_t) LINEAR_TO_MDECIBEL(32 / (32 - again_regmax));
 1142              		.loc 1 534 30 is_stmt 0 view .LVU300
 1143 0060 2026     		movs	r6, #32
 1144 0062 9DF80230 		ldrb	r3, [sp, #2]	@ zero_extendqisi2
 536:../../Middlewares/Camera_Middleware/sensors/cmw_vd66gy.c ****   dgain_max_mdB = (uint32_t) LINEAR_TO_MDECIBEL(FP58_TO_FLOAT(dgain_regmax));
 1145              		.loc 1 536 30 view .LVU301
 1146 0066 9FED3FBA 		vldr.32	s22, .L45+12
 534:../../Middlewares/Camera_Middleware/sensors/cmw_vd66gy.c ****   again_max_mdB = (uint32_t) LINEAR_TO_MDECIBEL(32 / (32 - again_regmax));
 1147              		.loc 1 534 30 view .LVU302
 1148 006a C3F12003 		rsb	r3, r3, #32
 1149 006e 96FBF3F3 		sdiv	r3, r6, r3
 1150 0072 00EE103A 		vmov	s0, r3	@ int
 1151 0076 B8EEC00B 		vcvt.f64.s32	d0, s0
 1152 007a FFF7FEFF 		bl	log10
 1153              	.LVL105:
 535:../../Middlewares/Camera_Middleware/sensors/cmw_vd66gy.c ****   dgain_min_mdB = (uint32_t) LINEAR_TO_MDECIBEL(FP58_TO_FLOAT(dgain_regmin));
 1154              		.loc 1 535 30 view .LVU303
 1155 007e 9DF80330 		ldrb	r3, [sp, #3]	@ zero_extendqisi2
 534:../../Middlewares/Camera_Middleware/sensors/cmw_vd66gy.c ****   again_max_mdB = (uint32_t) LINEAR_TO_MDECIBEL(32 / (32 - again_regmax));
 1156              		.loc 1 534 30 view .LVU304
 1157 0082 B0EE409B 		vmov.f64	d9, d0
 1158              	.LVL106:
 535:../../Middlewares/Camera_Middleware/sensors/cmw_vd66gy.c ****   dgain_min_mdB = (uint32_t) LINEAR_TO_MDECIBEL(FP58_TO_FLOAT(dgain_regmin));
 1159              		.loc 1 535 3 is_stmt 1 view .LVU305
 535:../../Middlewares/Camera_Middleware/sensors/cmw_vd66gy.c ****   dgain_min_mdB = (uint32_t) LINEAR_TO_MDECIBEL(FP58_TO_FLOAT(dgain_regmin));
ARM GAS  C:\Users\Antonio\AppData\Local\Temp\ccO3q7yr.s 			page 35


 1160              		.loc 1 535 30 is_stmt 0 view .LVU306
 1161 0086 F31A     		subs	r3, r6, r3
 1162 0088 96FBF3F3 		sdiv	r3, r6, r3
 1163 008c 00EE103A 		vmov	s0, r3	@ int
 1164              	.LVL107:
 535:../../Middlewares/Camera_Middleware/sensors/cmw_vd66gy.c ****   dgain_min_mdB = (uint32_t) LINEAR_TO_MDECIBEL(FP58_TO_FLOAT(dgain_regmin));
 1165              		.loc 1 535 30 view .LVU307
 1166 0090 B8EEC00B 		vcvt.f64.s32	d0, s0
 1167 0094 FFF7FEFF 		bl	log10
 1168              	.LVL108:
 536:../../Middlewares/Camera_Middleware/sensors/cmw_vd66gy.c ****   dgain_max_mdB = (uint32_t) LINEAR_TO_MDECIBEL(FP58_TO_FLOAT(dgain_regmax));
 1169              		.loc 1 536 30 view .LVU308
 1170 0098 BDF80430 		ldrh	r3, [sp, #4]
 1171 009c 9DF80420 		ldrb	r2, [sp, #4]	@ zero_extendqisi2
 1172 00a0 1B0A     		lsrs	r3, r3, #8
 535:../../Middlewares/Camera_Middleware/sensors/cmw_vd66gy.c ****   dgain_min_mdB = (uint32_t) LINEAR_TO_MDECIBEL(FP58_TO_FLOAT(dgain_regmin));
 1173              		.loc 1 535 30 view .LVU309
 1174 00a2 B0EE408B 		vmov.f64	d8, d0
 1175              	.LVL109:
 536:../../Middlewares/Camera_Middleware/sensors/cmw_vd66gy.c ****   dgain_max_mdB = (uint32_t) LINEAR_TO_MDECIBEL(FP58_TO_FLOAT(dgain_regmax));
 1176              		.loc 1 536 3 is_stmt 1 view .LVU310
 536:../../Middlewares/Camera_Middleware/sensors/cmw_vd66gy.c ****   dgain_max_mdB = (uint32_t) LINEAR_TO_MDECIBEL(FP58_TO_FLOAT(dgain_regmax));
 1177              		.loc 1 536 30 is_stmt 0 view .LVU311
 1178 00a6 07EE902A 		vmov	s15, r2	@ int
 1179 00aa 00EE103A 		vmov	s0, r3	@ int
 1180              	.LVL110:
 536:../../Middlewares/Camera_Middleware/sensors/cmw_vd66gy.c ****   dgain_max_mdB = (uint32_t) LINEAR_TO_MDECIBEL(FP58_TO_FLOAT(dgain_regmax));
 1181              		.loc 1 536 30 view .LVU312
 1182 00ae F8EEE77A 		vcvt.f32.s32	s15, s15
 1183 00b2 B8EEC00A 		vcvt.f32.s32	s0, s0
 1184 00b6 A7EE8B0A 		vfma.f32	s0, s15, s22
 1185 00ba B7EEC00A 		vcvt.f64.f32	d0, s0
 1186 00be FFF7FEFF 		bl	log10
 1187              	.LVL111:
 537:../../Middlewares/Camera_Middleware/sensors/cmw_vd66gy.c **** 
 1188              		.loc 1 537 30 view .LVU313
 1189 00c2 BDF80630 		ldrh	r3, [sp, #6]
 1190 00c6 9DF80620 		ldrb	r2, [sp, #6]	@ zero_extendqisi2
 1191 00ca 1B0A     		lsrs	r3, r3, #8
 536:../../Middlewares/Camera_Middleware/sensors/cmw_vd66gy.c ****   dgain_max_mdB = (uint32_t) LINEAR_TO_MDECIBEL(FP58_TO_FLOAT(dgain_regmax));
 1192              		.loc 1 536 30 view .LVU314
 1193 00cc B0EE40AB 		vmov.f64	d10, d0
 1194              	.LVL112:
 537:../../Middlewares/Camera_Middleware/sensors/cmw_vd66gy.c **** 
 1195              		.loc 1 537 3 is_stmt 1 view .LVU315
 537:../../Middlewares/Camera_Middleware/sensors/cmw_vd66gy.c **** 
 1196              		.loc 1 537 30 is_stmt 0 view .LVU316
 1197 00d0 07EE902A 		vmov	s15, r2	@ int
 1198 00d4 00EE103A 		vmov	s0, r3	@ int
 1199              	.LVL113:
 537:../../Middlewares/Camera_Middleware/sensors/cmw_vd66gy.c **** 
 1200              		.loc 1 537 30 view .LVU317
 1201 00d8 F8EEE77A 		vcvt.f32.s32	s15, s15
 1202 00dc B8EEC00A 		vcvt.f32.s32	s0, s0
 1203 00e0 A7EE8B0A 		vfma.f32	s0, s15, s22
 1204 00e4 B7EEC00A 		vcvt.f64.f32	d0, s0
 1205 00e8 FFF7FEFF 		bl	log10
ARM GAS  C:\Users\Antonio\AppData\Local\Temp\ccO3q7yr.s 			page 36


 1206              	.LVL114:
 539:../../Middlewares/Camera_Middleware/sensors/cmw_vd66gy.c ****   info->gain_max = again_max_mdB + dgain_max_mdB;
 1207              		.loc 1 539 3 is_stmt 1 view .LVU318
 534:../../Middlewares/Camera_Middleware/sensors/cmw_vd66gy.c ****   again_max_mdB = (uint32_t) LINEAR_TO_MDECIBEL(32 / (32 - again_regmax));
 1208              		.loc 1 534 30 is_stmt 0 discriminator 1 view .LVU319
 1209 00ec B3EE047B 		vmov.f64	d7, #2.0e+1
 1210 00f0 9FED196B 		vldr.64	d6, .L45
 1211 00f4 29EE079B 		vmul.f64	d9, d9, d7
 1212              	.LVL115:
 536:../../Middlewares/Camera_Middleware/sensors/cmw_vd66gy.c ****   dgain_max_mdB = (uint32_t) LINEAR_TO_MDECIBEL(FP58_TO_FLOAT(dgain_regmax));
 1213              		.loc 1 536 30 discriminator 1 view .LVU320
 1214 00f8 2AEE07AB 		vmul.f64	d10, d10, d7
 1215              	.LVL116:
 534:../../Middlewares/Camera_Middleware/sensors/cmw_vd66gy.c ****   again_max_mdB = (uint32_t) LINEAR_TO_MDECIBEL(32 / (32 - again_regmax));
 1216              		.loc 1 534 30 discriminator 1 view .LVU321
 1217 00fc 29EE069B 		vmul.f64	d9, d9, d6
 536:../../Middlewares/Camera_Middleware/sensors/cmw_vd66gy.c ****   dgain_max_mdB = (uint32_t) LINEAR_TO_MDECIBEL(FP58_TO_FLOAT(dgain_regmax));
 1218              		.loc 1 536 30 discriminator 1 view .LVU322
 1219 0100 2AEE06AB 		vmul.f64	d10, d10, d6
 535:../../Middlewares/Camera_Middleware/sensors/cmw_vd66gy.c ****   dgain_min_mdB = (uint32_t) LINEAR_TO_MDECIBEL(FP58_TO_FLOAT(dgain_regmin));
 1220              		.loc 1 535 30 discriminator 1 view .LVU323
 1221 0104 28EE078B 		vmul.f64	d8, d8, d7
 1222              	.LVL117:
 537:../../Middlewares/Camera_Middleware/sensors/cmw_vd66gy.c **** 
 1223              		.loc 1 537 30 discriminator 1 view .LVU324
 1224 0108 20EE070B 		vmul.f64	d0, d0, d7
 1225              	.LVL118:
 534:../../Middlewares/Camera_Middleware/sensors/cmw_vd66gy.c ****   again_max_mdB = (uint32_t) LINEAR_TO_MDECIBEL(32 / (32 - again_regmax));
 1226              		.loc 1 534 17 discriminator 1 view .LVU325
 1227 010c BCEEC99B 		vcvt.u32.f64	s18, d9
 536:../../Middlewares/Camera_Middleware/sensors/cmw_vd66gy.c ****   dgain_max_mdB = (uint32_t) LINEAR_TO_MDECIBEL(FP58_TO_FLOAT(dgain_regmax));
 1228              		.loc 1 536 17 discriminator 1 view .LVU326
 1229 0110 BCEECAAB 		vcvt.u32.f64	s20, d10
 535:../../Middlewares/Camera_Middleware/sensors/cmw_vd66gy.c ****   dgain_min_mdB = (uint32_t) LINEAR_TO_MDECIBEL(FP58_TO_FLOAT(dgain_regmin));
 1230              		.loc 1 535 30 discriminator 1 view .LVU327
 1231 0114 28EE068B 		vmul.f64	d8, d8, d6
 537:../../Middlewares/Camera_Middleware/sensors/cmw_vd66gy.c **** 
 1232              		.loc 1 537 30 discriminator 1 view .LVU328
 1233 0118 20EE060B 		vmul.f64	d0, d0, d6
 539:../../Middlewares/Camera_Middleware/sensors/cmw_vd66gy.c ****   info->gain_max = again_max_mdB + dgain_max_mdB;
 1234              		.loc 1 539 34 view .LVU329
 1235 011c 1AEE102A 		vmov	r2, s20	@ int
 1236 0120 19EE103A 		vmov	r3, s18	@ int
 535:../../Middlewares/Camera_Middleware/sensors/cmw_vd66gy.c ****   dgain_min_mdB = (uint32_t) LINEAR_TO_MDECIBEL(FP58_TO_FLOAT(dgain_regmin));
 1237              		.loc 1 535 17 discriminator 1 view .LVU330
 1238 0124 BCEEC88B 		vcvt.u32.f64	s16, d8
 537:../../Middlewares/Camera_Middleware/sensors/cmw_vd66gy.c **** 
 1239              		.loc 1 537 17 discriminator 1 view .LVU331
 1240 0128 BCEEC00B 		vcvt.u32.f64	s0, d0
 539:../../Middlewares/Camera_Middleware/sensors/cmw_vd66gy.c ****   info->gain_max = again_max_mdB + dgain_max_mdB;
 1241              		.loc 1 539 34 view .LVU332
 1242 012c 1344     		add	r3, r3, r2
 539:../../Middlewares/Camera_Middleware/sensors/cmw_vd66gy.c ****   info->gain_max = again_max_mdB + dgain_max_mdB;
 1243              		.loc 1 539 18 view .LVU333
 1244 012e E362     		str	r3, [r4, #44]
 540:../../Middlewares/Camera_Middleware/sensors/cmw_vd66gy.c **** 
 1245              		.loc 1 540 3 is_stmt 1 view .LVU334
ARM GAS  C:\Users\Antonio\AppData\Local\Temp\ccO3q7yr.s 			page 37


 540:../../Middlewares/Camera_Middleware/sensors/cmw_vd66gy.c **** 
 1246              		.loc 1 540 34 is_stmt 0 view .LVU335
 1247 0130 10EE102A 		vmov	r2, s0	@ int
 1248 0134 18EE103A 		vmov	r3, s16	@ int
 1249 0138 1344     		add	r3, r3, r2
 543:../../Middlewares/Camera_Middleware/sensors/cmw_vd66gy.c ****   if (ret)
 1250              		.loc 1 543 9 view .LVU336
 1251 013a 2846     		mov	r0, r5
 540:../../Middlewares/Camera_Middleware/sensors/cmw_vd66gy.c **** 
 1252              		.loc 1 540 18 view .LVU337
 1253 013c 2363     		str	r3, [r4, #48]
 543:../../Middlewares/Camera_Middleware/sensors/cmw_vd66gy.c ****   if (ret)
 1254              		.loc 1 543 3 is_stmt 1 view .LVU338
 543:../../Middlewares/Camera_Middleware/sensors/cmw_vd66gy.c ****   if (ret)
 1255              		.loc 1 543 9 is_stmt 0 view .LVU339
 1256 013e 04F13802 		add	r2, r4, #56
 1257 0142 04F13401 		add	r1, r4, #52
 1258 0146 FFF7FEFF 		bl	VD6G_GetExposureRegRange
 1259              	.LVL119:
 544:../../Middlewares/Camera_Middleware/sensors/cmw_vd66gy.c ****     return ret;
 1260              		.loc 1 544 3 is_stmt 1 view .LVU340
 1261              	.L41:
 548:../../Middlewares/Camera_Middleware/sensors/cmw_vd66gy.c **** 
 1262              		.loc 1 548 1 is_stmt 0 view .LVU341
 1263 014a 02B0     		add	sp, sp, #8
 1264              		.cfi_remember_state
 1265              		.cfi_def_cfa_offset 48
 1266              		@ sp needed
 1267 014c BDEC088B 		vldm	sp!, {d8-d11}
 1268              		.cfi_restore 86
 1269              		.cfi_restore 87
 1270              		.cfi_restore 84
 1271              		.cfi_restore 85
 1272              		.cfi_restore 82
 1273              		.cfi_restore 83
 1274              		.cfi_restore 80
 1275              		.cfi_restore 81
 1276              		.cfi_def_cfa_offset 16
 1277 0150 70BD     		pop	{r4, r5, r6, pc}
 1278              	.LVL120:
 1279              	.L44:
 1280              		.cfi_restore_state
 503:../../Middlewares/Camera_Middleware/sensors/cmw_vd66gy.c **** 
 1281              		.loc 1 503 12 view .LVU342
 1282 0152 6FF00100 		mvn	r0, #1
 1283              	.LVL121:
 503:../../Middlewares/Camera_Middleware/sensors/cmw_vd66gy.c **** 
 1284              		.loc 1 503 12 view .LVU343
 1285 0156 F8E7     		b	.L41
 1286              	.L46:
 1287              		.align	3
 1288              	.L45:
 1289 0158 00000000 		.word	0
 1290 015c 00408F40 		.word	1083129856
 1291 0160 00000000 		.word	.LC0
 1292 0164 0000803B 		.word	998244352
 1293              		.cfi_endproc
ARM GAS  C:\Users\Antonio\AppData\Local\Temp\ccO3q7yr.s 			page 38


 1294              	.LFE3370:
 1296              		.section	.text.CMW_VD66GY_Stop,"ax",%progbits
 1297              		.align	1
 1298              		.syntax unified
 1299              		.thumb
 1300              		.thumb_func
 1302              	CMW_VD66GY_Stop:
 1303              	.LVL122:
 1304              	.LFB3363:
 323:../../Middlewares/Camera_Middleware/sensors/cmw_vd66gy.c ****   int ret = CMW_ERROR_NONE;
 1305              		.loc 1 323 1 is_stmt 1 view -0
 1306              		.cfi_startproc
 1307              		@ args = 0, pretend = 0, frame = 0
 1308              		@ frame_needed = 0, uses_anonymous_args = 0
 324:../../Middlewares/Camera_Middleware/sensors/cmw_vd66gy.c **** 
 1309              		.loc 1 324 3 view .LVU345
 326:../../Middlewares/Camera_Middleware/sensors/cmw_vd66gy.c ****   if (ret)
 1310              		.loc 1 326 3 view .LVU346
 323:../../Middlewares/Camera_Middleware/sensors/cmw_vd66gy.c ****   int ret = CMW_ERROR_NONE;
 1311              		.loc 1 323 1 is_stmt 0 view .LVU347
 1312 0000 08B5     		push	{r3, lr}
 1313              		.cfi_def_cfa_offset 8
 1314              		.cfi_offset 3, -8
 1315              		.cfi_offset 14, -4
 326:../../Middlewares/Camera_Middleware/sensors/cmw_vd66gy.c ****   if (ret)
 1316              		.loc 1 326 9 view .LVU348
 1317 0002 0830     		adds	r0, r0, #8
 1318              	.LVL123:
 326:../../Middlewares/Camera_Middleware/sensors/cmw_vd66gy.c ****   if (ret)
 1319              		.loc 1 326 9 view .LVU349
 1320 0004 FFF7FEFF 		bl	VD6G_Stop
 1321              	.LVL124:
 327:../../Middlewares/Camera_Middleware/sensors/cmw_vd66gy.c ****   {
 1322              		.loc 1 327 3 is_stmt 1 view .LVU350
 329:../../Middlewares/Camera_Middleware/sensors/cmw_vd66gy.c ****   }
 1323              		.loc 1 329 12 is_stmt 0 view .LVU351
 1324 0008 0028     		cmp	r0, #0
 332:../../Middlewares/Camera_Middleware/sensors/cmw_vd66gy.c **** 
 1325              		.loc 1 332 1 view .LVU352
 1326 000a 18BF     		it	ne
 1327 000c 6FF00300 		mvnne	r0, #3
 1328              	.LVL125:
 332:../../Middlewares/Camera_Middleware/sensors/cmw_vd66gy.c **** 
 1329              		.loc 1 332 1 view .LVU353
 1330 0010 08BD     		pop	{r3, pc}
 1331              		.cfi_endproc
 1332              	.LFE3363:
 1334              		.section	.text.CMW_VD66GY_Start,"ax",%progbits
 1335              		.align	1
 1336              		.syntax unified
 1337              		.thumb
 1338              		.thumb_func
 1340              	CMW_VD66GY_Start:
 1341              	.LVL126:
 1342              	.LFB3361:
 281:../../Middlewares/Camera_Middleware/sensors/cmw_vd66gy.c ****   int ret = CMW_ERROR_NONE;
 1343              		.loc 1 281 1 is_stmt 1 view -0
ARM GAS  C:\Users\Antonio\AppData\Local\Temp\ccO3q7yr.s 			page 39


 1344              		.cfi_startproc
 1345              		@ args = 0, pretend = 0, frame = 0
 1346              		@ frame_needed = 0, uses_anonymous_args = 0
 282:../../Middlewares/Camera_Middleware/sensors/cmw_vd66gy.c **** 
 1347              		.loc 1 282 3 view .LVU355
 288:../../Middlewares/Camera_Middleware/sensors/cmw_vd66gy.c ****   ret = ISP_Init(&((CMW_VD66GY_t *)io_ctx)->hIsp, ((CMW_VD66GY_t *)io_ctx)->hdcmipp, 0, &((CMW_VD66
 1348              		.loc 1 288 3 view .LVU356
 289:../../Middlewares/Camera_Middleware/sensors/cmw_vd66gy.c ****   if (ret != ISP_OK)
 1349              		.loc 1 289 3 view .LVU357
 281:../../Middlewares/Camera_Middleware/sensors/cmw_vd66gy.c ****   int ret = CMW_ERROR_NONE;
 1350              		.loc 1 281 1 is_stmt 0 view .LVU358
 1351 0000 37B5     		push	{r0, r1, r2, r4, r5, lr}
 1352              		.cfi_def_cfa_offset 24
 1353              		.cfi_offset 4, -12
 1354              		.cfi_offset 5, -8
 1355              		.cfi_offset 14, -4
 289:../../Middlewares/Camera_Middleware/sensors/cmw_vd66gy.c ****   if (ret != ISP_OK)
 1356              		.loc 1 289 9 view .LVU359
 1357 0002 104B     		ldr	r3, .L57
 1358 0004 00F17005 		add	r5, r0, #112
 1359 0008 0093     		str	r3, [sp]
 281:../../Middlewares/Camera_Middleware/sensors/cmw_vd66gy.c ****   int ret = CMW_ERROR_NONE;
 1360              		.loc 1 281 1 view .LVU360
 1361 000a 0446     		mov	r4, r0
 289:../../Middlewares/Camera_Middleware/sensors/cmw_vd66gy.c ****   if (ret != ISP_OK)
 1362              		.loc 1 289 9 view .LVU361
 1363 000c D0F81C11 		ldr	r1, [r0, #284]
 1364 0010 00F1F803 		add	r3, r0, #248
 1365 0014 0022     		movs	r2, #0
 1366 0016 2846     		mov	r0, r5
 1367              	.LVL127:
 289:../../Middlewares/Camera_Middleware/sensors/cmw_vd66gy.c ****   if (ret != ISP_OK)
 1368              		.loc 1 289 9 view .LVU362
 1369 0018 FFF7FEFF 		bl	ISP_Init
 1370              	.LVL128:
 290:../../Middlewares/Camera_Middleware/sensors/cmw_vd66gy.c ****   {
 1371              		.loc 1 290 3 is_stmt 1 view .LVU363
 290:../../Middlewares/Camera_Middleware/sensors/cmw_vd66gy.c ****   {
 1372              		.loc 1 290 6 is_stmt 0 view .LVU364
 1373 001c 78B9     		cbnz	r0, .L53
 295:../../Middlewares/Camera_Middleware/sensors/cmw_vd66gy.c ****   if (ret != ISP_OK)
 1374              		.loc 1 295 3 is_stmt 1 view .LVU365
 295:../../Middlewares/Camera_Middleware/sensors/cmw_vd66gy.c ****   if (ret != ISP_OK)
 1375              		.loc 1 295 9 is_stmt 0 view .LVU366
 1376 001e 2846     		mov	r0, r5
 1377              	.LVL129:
 295:../../Middlewares/Camera_Middleware/sensors/cmw_vd66gy.c ****   if (ret != ISP_OK)
 1378              		.loc 1 295 9 view .LVU367
 1379 0020 FFF7FEFF 		bl	ISP_Start
 1380              	.LVL130:
 296:../../Middlewares/Camera_Middleware/sensors/cmw_vd66gy.c ****   {
 1381              		.loc 1 296 3 is_stmt 1 view .LVU368
 296:../../Middlewares/Camera_Middleware/sensors/cmw_vd66gy.c ****   {
 1382              		.loc 1 296 6 is_stmt 0 view .LVU369
 1383 0024 38B9     		cbnz	r0, .L52
 301:../../Middlewares/Camera_Middleware/sensors/cmw_vd66gy.c ****   if (ret) {
 1384              		.loc 1 301 3 is_stmt 1 view .LVU370
ARM GAS  C:\Users\Antonio\AppData\Local\Temp\ccO3q7yr.s 			page 40


 301:../../Middlewares/Camera_Middleware/sensors/cmw_vd66gy.c ****   if (ret) {
 1385              		.loc 1 301 9 is_stmt 0 view .LVU371
 1386 0026 0834     		adds	r4, r4, #8
 1387              	.LVL131:
 301:../../Middlewares/Camera_Middleware/sensors/cmw_vd66gy.c ****   if (ret) {
 1388              		.loc 1 301 9 view .LVU372
 1389 0028 2046     		mov	r0, r4
 1390              	.LVL132:
 301:../../Middlewares/Camera_Middleware/sensors/cmw_vd66gy.c ****   if (ret) {
 1391              		.loc 1 301 9 view .LVU373
 1392 002a FFF7FEFF 		bl	VD6G_Start
 1393              	.LVL133:
 302:../../Middlewares/Camera_Middleware/sensors/cmw_vd66gy.c ****     VD6G_DeInit(&((CMW_VD66GY_t *)io_ctx)->ctx_driver);
 1394              		.loc 1 302 3 is_stmt 1 view .LVU374
 302:../../Middlewares/Camera_Middleware/sensors/cmw_vd66gy.c ****     VD6G_DeInit(&((CMW_VD66GY_t *)io_ctx)->ctx_driver);
 1395              		.loc 1 302 6 is_stmt 0 view .LVU375
 1396 002e 20B1     		cbz	r0, .L50
 303:../../Middlewares/Camera_Middleware/sensors/cmw_vd66gy.c ****     return CMW_ERROR_PERIPH_FAILURE;
 1397              		.loc 1 303 5 is_stmt 1 view .LVU376
 1398 0030 2046     		mov	r0, r4
 1399              	.LVL134:
 303:../../Middlewares/Camera_Middleware/sensors/cmw_vd66gy.c ****     return CMW_ERROR_PERIPH_FAILURE;
 1400              		.loc 1 303 5 is_stmt 0 view .LVU377
 1401 0032 FFF7FEFF 		bl	VD6G_DeInit
 1402              	.LVL135:
 304:../../Middlewares/Camera_Middleware/sensors/cmw_vd66gy.c ****   }
 1403              		.loc 1 304 5 is_stmt 1 view .LVU378
 1404              	.L52:
 298:../../Middlewares/Camera_Middleware/sensors/cmw_vd66gy.c ****   }
 1405              		.loc 1 298 14 is_stmt 0 view .LVU379
 1406 0036 6FF00300 		mvn	r0, #3
 1407              	.L50:
 307:../../Middlewares/Camera_Middleware/sensors/cmw_vd66gy.c **** 
 1408              		.loc 1 307 1 view .LVU380
 1409 003a 03B0     		add	sp, sp, #12
 1410              		.cfi_remember_state
 1411              		.cfi_def_cfa_offset 12
 1412              		@ sp needed
 1413 003c 30BD     		pop	{r4, r5, pc}
 1414              	.LVL136:
 1415              	.L53:
 1416              		.cfi_restore_state
 292:../../Middlewares/Camera_Middleware/sensors/cmw_vd66gy.c ****   }
 1417              		.loc 1 292 12 view .LVU381
 1418 003e 6FF00400 		mvn	r0, #4
 1419              	.LVL137:
 292:../../Middlewares/Camera_Middleware/sensors/cmw_vd66gy.c ****   }
 1420              		.loc 1 292 12 view .LVU382
 1421 0042 FAE7     		b	.L50
 1422              	.L58:
 1423              		.align	2
 1424              	.L57:
 1425 0044 00000000 		.word	ISP_IQParamCacheInit_VD66GY
 1426              		.cfi_endproc
 1427              	.LFE3361:
 1429              		.section	.text.CMW_VD66GY_DeInit,"ax",%progbits
 1430              		.align	1
ARM GAS  C:\Users\Antonio\AppData\Local\Temp\ccO3q7yr.s 			page 41


 1431              		.syntax unified
 1432              		.thumb
 1433              		.thumb_func
 1435              	CMW_VD66GY_DeInit:
 1436              	.LVL138:
 1437              	.LFB3364:
 335:../../Middlewares/Camera_Middleware/sensors/cmw_vd66gy.c ****   int ret = CMW_ERROR_NONE;
 1438              		.loc 1 335 1 is_stmt 1 view -0
 1439              		.cfi_startproc
 1440              		@ args = 0, pretend = 0, frame = 0
 1441              		@ frame_needed = 0, uses_anonymous_args = 0
 336:../../Middlewares/Camera_Middleware/sensors/cmw_vd66gy.c **** 
 1442              		.loc 1 336 3 view .LVU384
 338:../../Middlewares/Camera_Middleware/sensors/cmw_vd66gy.c ****   if (ret)
 1443              		.loc 1 338 3 view .LVU385
 335:../../Middlewares/Camera_Middleware/sensors/cmw_vd66gy.c ****   int ret = CMW_ERROR_NONE;
 1444              		.loc 1 335 1 is_stmt 0 view .LVU386
 1445 0000 38B5     		push	{r3, r4, r5, lr}
 1446              		.cfi_def_cfa_offset 16
 1447              		.cfi_offset 3, -16
 1448              		.cfi_offset 4, -12
 1449              		.cfi_offset 5, -8
 1450              		.cfi_offset 14, -4
 338:../../Middlewares/Camera_Middleware/sensors/cmw_vd66gy.c ****   if (ret)
 1451              		.loc 1 338 9 view .LVU387
 1452 0002 00F10805 		add	r5, r0, #8
 335:../../Middlewares/Camera_Middleware/sensors/cmw_vd66gy.c ****   int ret = CMW_ERROR_NONE;
 1453              		.loc 1 335 1 view .LVU388
 1454 0006 0446     		mov	r4, r0
 338:../../Middlewares/Camera_Middleware/sensors/cmw_vd66gy.c ****   if (ret)
 1455              		.loc 1 338 9 view .LVU389
 1456 0008 2846     		mov	r0, r5
 1457              	.LVL139:
 338:../../Middlewares/Camera_Middleware/sensors/cmw_vd66gy.c ****   if (ret)
 1458              		.loc 1 338 9 view .LVU390
 1459 000a FFF7FEFF 		bl	VD6G_Stop
 1460              	.LVL140:
 339:../../Middlewares/Camera_Middleware/sensors/cmw_vd66gy.c ****   {
 1461              		.loc 1 339 3 is_stmt 1 view .LVU391
 339:../../Middlewares/Camera_Middleware/sensors/cmw_vd66gy.c ****   {
 1462              		.loc 1 339 6 is_stmt 0 view .LVU392
 1463 000e 10B1     		cbz	r0, .L60
 1464              	.L62:
 341:../../Middlewares/Camera_Middleware/sensors/cmw_vd66gy.c ****   }
 1465              		.loc 1 341 12 view .LVU393
 1466 0010 6FF00300 		mvn	r0, #3
 1467              	.LVL141:
 1468              	.L59:
 352:../../Middlewares/Camera_Middleware/sensors/cmw_vd66gy.c **** 
 1469              		.loc 1 352 1 view .LVU394
 1470 0014 38BD     		pop	{r3, r4, r5, pc}
 1471              	.LVL142:
 1472              	.L60:
 344:../../Middlewares/Camera_Middleware/sensors/cmw_vd66gy.c ****   if (ret)
 1473              		.loc 1 344 3 is_stmt 1 view .LVU395
 344:../../Middlewares/Camera_Middleware/sensors/cmw_vd66gy.c ****   if (ret)
 1474              		.loc 1 344 9 is_stmt 0 view .LVU396
ARM GAS  C:\Users\Antonio\AppData\Local\Temp\ccO3q7yr.s 			page 42


 1475 0016 2846     		mov	r0, r5
 1476              	.LVL143:
 344:../../Middlewares/Camera_Middleware/sensors/cmw_vd66gy.c ****   if (ret)
 1477              		.loc 1 344 9 view .LVU397
 1478 0018 FFF7FEFF 		bl	VD6G_DeInit
 1479              	.LVL144:
 345:../../Middlewares/Camera_Middleware/sensors/cmw_vd66gy.c ****   {
 1480              		.loc 1 345 3 is_stmt 1 view .LVU398
 345:../../Middlewares/Camera_Middleware/sensors/cmw_vd66gy.c ****   {
 1481              		.loc 1 345 6 is_stmt 0 view .LVU399
 1482 001c 0028     		cmp	r0, #0
 1483 001e F7D1     		bne	.L62
 350:../../Middlewares/Camera_Middleware/sensors/cmw_vd66gy.c ****   return CMW_ERROR_NONE;
 1484              		.loc 1 350 3 is_stmt 1 view .LVU400
 350:../../Middlewares/Camera_Middleware/sensors/cmw_vd66gy.c ****   return CMW_ERROR_NONE;
 1485              		.loc 1 350 43 is_stmt 0 view .LVU401
 1486 0020 84F82001 		strb	r0, [r4, #288]
 351:../../Middlewares/Camera_Middleware/sensors/cmw_vd66gy.c **** }
 1487              		.loc 1 351 3 is_stmt 1 view .LVU402
 351:../../Middlewares/Camera_Middleware/sensors/cmw_vd66gy.c **** }
 1488              		.loc 1 351 10 is_stmt 0 view .LVU403
 1489 0024 F6E7     		b	.L59
 1490              		.cfi_endproc
 1491              	.LFE3364:
 1493              		.section	.text.CMW_VD66GY_Run,"ax",%progbits
 1494              		.align	1
 1495              		.syntax unified
 1496              		.thumb
 1497              		.thumb_func
 1499              	CMW_VD66GY_Run:
 1500              	.LVL145:
 1501              	.LFB3362:
 310:../../Middlewares/Camera_Middleware/sensors/cmw_vd66gy.c **** #ifndef ISP_MW_TUNING_TOOL_SUPPORT
 1502              		.loc 1 310 1 is_stmt 1 view -0
 1503              		.cfi_startproc
 1504              		@ args = 0, pretend = 0, frame = 0
 1505              		@ frame_needed = 0, uses_anonymous_args = 0
 312:../../Middlewares/Camera_Middleware/sensors/cmw_vd66gy.c ****   ret = ISP_BackgroundProcess(&((CMW_VD66GY_t *)io_ctx)->hIsp);
 1506              		.loc 1 312 3 view .LVU405
 313:../../Middlewares/Camera_Middleware/sensors/cmw_vd66gy.c ****   if (ret != ISP_OK)
 1507              		.loc 1 313 3 view .LVU406
 310:../../Middlewares/Camera_Middleware/sensors/cmw_vd66gy.c **** #ifndef ISP_MW_TUNING_TOOL_SUPPORT
 1508              		.loc 1 310 1 is_stmt 0 view .LVU407
 1509 0000 08B5     		push	{r3, lr}
 1510              		.cfi_def_cfa_offset 8
 1511              		.cfi_offset 3, -8
 1512              		.cfi_offset 14, -4
 313:../../Middlewares/Camera_Middleware/sensors/cmw_vd66gy.c ****   if (ret != ISP_OK)
 1513              		.loc 1 313 9 view .LVU408
 1514 0002 7030     		adds	r0, r0, #112
 1515              	.LVL146:
 313:../../Middlewares/Camera_Middleware/sensors/cmw_vd66gy.c ****   if (ret != ISP_OK)
 1516              		.loc 1 313 9 view .LVU409
 1517 0004 FFF7FEFF 		bl	ISP_BackgroundProcess
 1518              	.LVL147:
 314:../../Middlewares/Camera_Middleware/sensors/cmw_vd66gy.c ****   {
 1519              		.loc 1 314 3 is_stmt 1 view .LVU410
ARM GAS  C:\Users\Antonio\AppData\Local\Temp\ccO3q7yr.s 			page 43


 319:../../Middlewares/Camera_Middleware/sensors/cmw_vd66gy.c **** }
 1520              		.loc 1 319 10 is_stmt 0 view .LVU411
 1521 0008 0028     		cmp	r0, #0
 320:../../Middlewares/Camera_Middleware/sensors/cmw_vd66gy.c **** 
 1522              		.loc 1 320 1 view .LVU412
 1523 000a 14BF     		ite	ne
 1524 000c 6FF00300 		mvnne	r0, #3
 1525              	.LVL148:
 320:../../Middlewares/Camera_Middleware/sensors/cmw_vd66gy.c **** 
 1526              		.loc 1 320 1 view .LVU413
 1527 0010 0020     		moveq	r0, #0
 1528 0012 08BD     		pop	{r3, pc}
 1529              		.cfi_endproc
 1530              	.LFE3362:
 1532              		.section	.text.CMW_VD66GY_Init,"ax",%progbits
 1533              		.align	1
 1534              		.syntax unified
 1535              		.thumb
 1536              		.thumb_func
 1538              	CMW_VD66GY_Init:
 1539              	.LVL149:
 1540              	.LFB3360:
 232:../../Middlewares/Camera_Middleware/sensors/cmw_vd66gy.c ****   VD6G_Config_t config = { 0 };
 1541              		.loc 1 232 1 is_stmt 1 view -0
 1542              		.cfi_startproc
 1543              		@ args = 0, pretend = 0, frame = 56
 1544              		@ frame_needed = 0, uses_anonymous_args = 0
 233:../../Middlewares/Camera_Middleware/sensors/cmw_vd66gy.c ****   int ret;
 1545              		.loc 1 233 3 view .LVU415
 232:../../Middlewares/Camera_Middleware/sensors/cmw_vd66gy.c ****   VD6G_Config_t config = { 0 };
 1546              		.loc 1 232 1 is_stmt 0 view .LVU416
 1547 0000 70B5     		push	{r4, r5, r6, lr}
 1548              		.cfi_def_cfa_offset 16
 1549              		.cfi_offset 4, -16
 1550              		.cfi_offset 5, -12
 1551              		.cfi_offset 6, -8
 1552              		.cfi_offset 14, -4
 1553 0002 0446     		mov	r4, r0
 1554 0004 8EB0     		sub	sp, sp, #56
 1555              		.cfi_def_cfa_offset 72
 232:../../Middlewares/Camera_Middleware/sensors/cmw_vd66gy.c ****   VD6G_Config_t config = { 0 };
 1556              		.loc 1 232 1 view .LVU417
 1557 0006 0D46     		mov	r5, r1
 233:../../Middlewares/Camera_Middleware/sensors/cmw_vd66gy.c ****   int ret;
 1558              		.loc 1 233 17 view .LVU418
 1559 0008 3822     		movs	r2, #56
 1560 000a 0021     		movs	r1, #0
 1561              	.LVL150:
 233:../../Middlewares/Camera_Middleware/sensors/cmw_vd66gy.c ****   int ret;
 1562              		.loc 1 233 17 view .LVU419
 1563 000c 6846     		mov	r0, sp
 1564              	.LVL151:
 233:../../Middlewares/Camera_Middleware/sensors/cmw_vd66gy.c ****   int ret;
 1565              		.loc 1 233 17 view .LVU420
 1566 000e FFF7FEFF 		bl	memset
 1567              	.LVL152:
 234:../../Middlewares/Camera_Middleware/sensors/cmw_vd66gy.c ****   int i;
ARM GAS  C:\Users\Antonio\AppData\Local\Temp\ccO3q7yr.s 			page 44


 1568              		.loc 1 234 3 is_stmt 1 view .LVU421
 235:../../Middlewares/Camera_Middleware/sensors/cmw_vd66gy.c **** 
 1569              		.loc 1 235 3 view .LVU422
 237:../../Middlewares/Camera_Middleware/sensors/cmw_vd66gy.c ****   {
 1570              		.loc 1 237 3 view .LVU423
 237:../../Middlewares/Camera_Middleware/sensors/cmw_vd66gy.c ****   {
 1571              		.loc 1 237 6 is_stmt 0 view .LVU424
 1572 0012 94F82031 		ldrb	r3, [r4, #288]	@ zero_extendqisi2
 1573 0016 002B     		cmp	r3, #0
 1574 0018 4FD1     		bne	.L67
 243:../../Middlewares/Camera_Middleware/sensors/cmw_vd66gy.c ****   ret = CMW_VD66GY_GetResType(initSensor->width, initSensor->height, &config.resolution);
 1575              		.loc 1 243 3 is_stmt 1 view .LVU425
 243:../../Middlewares/Camera_Middleware/sensors/cmw_vd66gy.c ****   ret = CMW_VD66GY_GetResType(initSensor->width, initSensor->height, &config.resolution);
 1576              		.loc 1 243 21 is_stmt 0 view .LVU426
 1577 001a AB68     		ldr	r3, [r5, #8]
 1578 001c 0293     		str	r3, [sp, #8]
 244:../../Middlewares/Camera_Middleware/sensors/cmw_vd66gy.c ****   if (ret)
 1579              		.loc 1 244 3 is_stmt 1 view .LVU427
 244:../../Middlewares/Camera_Middleware/sensors/cmw_vd66gy.c ****   if (ret)
 1580              		.loc 1 244 9 is_stmt 0 view .LVU428
 1581 001e D5E90023 		ldrd	r2, r3, [r5]
 1582              	.LVL153:
 1583              	.LBB39:
 1584              	.LBI39:
 178:../../Middlewares/Camera_Middleware/sensors/cmw_vd66gy.c **** {
 1585              		.loc 1 178 12 is_stmt 1 view .LVU429
 1586              	.LBB40:
 180:../../Middlewares/Camera_Middleware/sensors/cmw_vd66gy.c ****   {
 1587              		.loc 1 180 3 view .LVU430
 180:../../Middlewares/Camera_Middleware/sensors/cmw_vd66gy.c ****   {
 1588              		.loc 1 180 6 is_stmt 0 view .LVU431
 1589 0022 B2F5A07F 		cmp	r2, #320
 1590 0026 04D1     		bne	.L68
 180:../../Middlewares/Camera_Middleware/sensors/cmw_vd66gy.c ****   {
 1591              		.loc 1 180 20 discriminator 1 view .LVU432
 1592 0028 F02B     		cmp	r3, #240
 1593 002a 0BD0     		beq	.L69
 1594              	.LVL154:
 1595              	.L79:
 180:../../Middlewares/Camera_Middleware/sensors/cmw_vd66gy.c ****   {
 1596              		.loc 1 180 20 discriminator 1 view .LVU433
 1597              	.LBE40:
 1598              	.LBE39:
 247:../../Middlewares/Camera_Middleware/sensors/cmw_vd66gy.c ****   }
 1599              		.loc 1 247 12 view .LVU434
 1600 002c 6FF00100 		mvn	r0, #1
 1601              	.LVL155:
 247:../../Middlewares/Camera_Middleware/sensors/cmw_vd66gy.c ****   }
 1602              		.loc 1 247 12 view .LVU435
 1603 0030 29E0     		b	.L66
 1604              	.LVL156:
 1605              	.L68:
 1606              	.LBB43:
 1607              	.LBB41:
 184:../../Middlewares/Camera_Middleware/sensors/cmw_vd66gy.c ****   {
 1608              		.loc 1 184 8 is_stmt 1 view .LVU436
 184:../../Middlewares/Camera_Middleware/sensors/cmw_vd66gy.c ****   {
ARM GAS  C:\Users\Antonio\AppData\Local\Temp\ccO3q7yr.s 			page 45


 1609              		.loc 1 184 11 is_stmt 0 view .LVU437
 1610 0032 B2F5207F 		cmp	r2, #640
 1611 0036 28D1     		bne	.L71
 184:../../Middlewares/Camera_Middleware/sensors/cmw_vd66gy.c ****   {
 1612              		.loc 1 184 25 discriminator 1 view .LVU438
 1613 0038 B3F5F07F 		cmp	r3, #480
 1614 003c F6D1     		bne	.L79
 186:../../Middlewares/Camera_Middleware/sensors/cmw_vd66gy.c ****   }
 1615              		.loc 1 186 5 is_stmt 1 view .LVU439
 186:../../Middlewares/Camera_Middleware/sensors/cmw_vd66gy.c ****   }
 1616              		.loc 1 186 10 is_stmt 0 view .LVU440
 1617 003e 0123     		movs	r3, #1
 1618              	.LVL157:
 1619              	.L83:
 198:../../Middlewares/Camera_Middleware/sensors/cmw_vd66gy.c ****   }
 1620              		.loc 1 198 10 view .LVU441
 1621 0040 8DF80430 		strb	r3, [sp, #4]
 1622              	.LVL158:
 198:../../Middlewares/Camera_Middleware/sensors/cmw_vd66gy.c ****   }
 1623              		.loc 1 198 10 view .LVU442
 1624              	.LBE41:
 1625              	.LBE43:
 245:../../Middlewares/Camera_Middleware/sensors/cmw_vd66gy.c ****   {
 1626              		.loc 1 245 3 is_stmt 1 view .LVU443
 1627              	.L69:
 249:../../Middlewares/Camera_Middleware/sensors/cmw_vd66gy.c ****   config.flip_mirror_mode = CMW_VD66GY_getMirrorFlipConfig(initSensor->mirrorFlip);
 1628              		.loc 1 249 3 view .LVU444
 249:../../Middlewares/Camera_Middleware/sensors/cmw_vd66gy.c ****   config.flip_mirror_mode = CMW_VD66GY_getMirrorFlipConfig(initSensor->mirrorFlip);
 1629              		.loc 1 249 31 is_stmt 0 view .LVU445
 1630 0044 6368     		ldr	r3, [r4, #4]
 264:../../Middlewares/Camera_Middleware/sensors/cmw_vd66gy.c ****   if (ret)
 1631              		.loc 1 264 9 view .LVU446
 1632 0046 04F10806 		add	r6, r4, #8
 249:../../Middlewares/Camera_Middleware/sensors/cmw_vd66gy.c ****   config.flip_mirror_mode = CMW_VD66GY_getMirrorFlipConfig(initSensor->mirrorFlip);
 1633              		.loc 1 249 31 view .LVU447
 1634 004a 0093     		str	r3, [sp]
 250:../../Middlewares/Camera_Middleware/sensors/cmw_vd66gy.c ****   config.line_len = 0;
 1635              		.loc 1 250 3 is_stmt 1 view .LVU448
 1636              	.LVL159:
 1637              	.LBB44:
 1638              	.LBI44:
 207:../../Middlewares/Camera_Middleware/sensors/cmw_vd66gy.c **** {
 1639              		.loc 1 207 26 view .LVU449
 1640              	.LBB45:
 209:../../Middlewares/Camera_Middleware/sensors/cmw_vd66gy.c **** 
 1641              		.loc 1 209 3 view .LVU450
 211:../../Middlewares/Camera_Middleware/sensors/cmw_vd66gy.c ****   {
 1642              		.loc 1 211 3 view .LVU451
 228:../../Middlewares/Camera_Middleware/sensors/cmw_vd66gy.c **** }
 1643              		.loc 1 228 3 view .LVU452
 228:../../Middlewares/Camera_Middleware/sensors/cmw_vd66gy.c **** }
 1644              		.loc 1 228 3 is_stmt 0 view .LVU453
 1645              	.LBE45:
 1646              	.LBE44:
 250:../../Middlewares/Camera_Middleware/sensors/cmw_vd66gy.c ****   config.line_len = 0;
 1647              		.loc 1 250 27 discriminator 1 view .LVU454
 1648 004c 2B69     		ldr	r3, [r5, #16]
ARM GAS  C:\Users\Antonio\AppData\Local\Temp\ccO3q7yr.s 			page 46


 255:../../Middlewares/Camera_Middleware/sensors/cmw_vd66gy.c ****   config.out_itf.data_lane0_swap_enable = 1;
 1649              		.loc 1 255 41 view .LVU455
 1650 004e 0125     		movs	r5, #1
 1651              	.LVL160:
 250:../../Middlewares/Camera_Middleware/sensors/cmw_vd66gy.c ****   config.line_len = 0;
 1652              		.loc 1 250 27 discriminator 1 view .LVU456
 1653 0050 032B     		cmp	r3, #3
 1654 0052 28BF     		it	cs
 1655 0054 0323     		movcs	r3, #3
 1656 0056 8DF80C30 		strb	r3, [sp, #12]
 251:../../Middlewares/Camera_Middleware/sensors/cmw_vd66gy.c ****   config.patgen = VD6G_PATGEN_DISABLE;
 1657              		.loc 1 251 3 is_stmt 1 view .LVU457
 252:../../Middlewares/Camera_Middleware/sensors/cmw_vd66gy.c ****   config.flicker = VD6G_FLICKER_FREE_NONE;
 1658              		.loc 1 252 3 view .LVU458
 253:../../Middlewares/Camera_Middleware/sensors/cmw_vd66gy.c ****   config.out_itf.datalane_nb = 2;
 1659              		.loc 1 253 3 view .LVU459
 254:../../Middlewares/Camera_Middleware/sensors/cmw_vd66gy.c ****   config.out_itf.clock_lane_swap_enable = 1;
 1660              		.loc 1 254 3 view .LVU460
 255:../../Middlewares/Camera_Middleware/sensors/cmw_vd66gy.c ****   config.out_itf.data_lane0_swap_enable = 1;
 1661              		.loc 1 255 41 is_stmt 0 view .LVU461
 1662 005a 0223     		movs	r3, #2
 1663 005c CDE90635 		strd	r3, r5, [sp, #24]
 256:../../Middlewares/Camera_Middleware/sensors/cmw_vd66gy.c ****   config.out_itf.data_lane1_swap_enable = 1;
 1664              		.loc 1 256 3 is_stmt 1 view .LVU462
 261:../../Middlewares/Camera_Middleware/sensors/cmw_vd66gy.c ****   }
 1665              		.loc 1 261 25 is_stmt 0 view .LVU463
 1666 0060 4FF00133 		mov	r3, #16843009
 264:../../Middlewares/Camera_Middleware/sensors/cmw_vd66gy.c ****   if (ret)
 1667              		.loc 1 264 9 view .LVU464
 1668 0064 6946     		mov	r1, sp
 1669 0066 3046     		mov	r0, r6
 257:../../Middlewares/Camera_Middleware/sensors/cmw_vd66gy.c ****   config.out_itf.data_lanes_mapping_swap_enable = 0;
 1670              		.loc 1 257 41 view .LVU465
 1671 0068 CDE90855 		strd	r5, r5, [sp, #32]
 258:../../Middlewares/Camera_Middleware/sensors/cmw_vd66gy.c ****   for (i = 0; i < VD6G_GPIO_NB; i++)
 1672              		.loc 1 258 3 is_stmt 1 view .LVU466
 259:../../Middlewares/Camera_Middleware/sensors/cmw_vd66gy.c ****   {
 1673              		.loc 1 259 3 view .LVU467
 1674              	.LVL161:
 259:../../Middlewares/Camera_Middleware/sensors/cmw_vd66gy.c ****   {
 1675              		.loc 1 259 17 discriminator 1 view .LVU468
 261:../../Middlewares/Camera_Middleware/sensors/cmw_vd66gy.c ****   }
 1676              		.loc 1 261 25 is_stmt 0 view .LVU469
 1677 006c CDE90B33 		strd	r3, r3, [sp, #44]
 1678              	.LVL162:
 264:../../Middlewares/Camera_Middleware/sensors/cmw_vd66gy.c ****   if (ret)
 1679              		.loc 1 264 3 is_stmt 1 view .LVU470
 264:../../Middlewares/Camera_Middleware/sensors/cmw_vd66gy.c ****   if (ret)
 1680              		.loc 1 264 9 is_stmt 0 view .LVU471
 1681 0070 FFF7FEFF 		bl	VD6G_Init
 1682              	.LVL163:
 265:../../Middlewares/Camera_Middleware/sensors/cmw_vd66gy.c ****   {
 1683              		.loc 1 265 3 is_stmt 1 view .LVU472
 265:../../Middlewares/Camera_Middleware/sensors/cmw_vd66gy.c ****   {
 1684              		.loc 1 265 6 is_stmt 0 view .LVU473
 1685 0074 28B9     		cbnz	r0, .L74
 270:../../Middlewares/Camera_Middleware/sensors/cmw_vd66gy.c ****   {
ARM GAS  C:\Users\Antonio\AppData\Local\Temp\ccO3q7yr.s 			page 47


 1686              		.loc 1 270 3 is_stmt 1 view .LVU474
 270:../../Middlewares/Camera_Middleware/sensors/cmw_vd66gy.c ****   {
 1687              		.loc 1 270 6 is_stmt 0 view .LVU475
 1688 0076 94F83030 		ldrb	r3, [r4, #48]	@ zero_extendqisi2
 1689 007a E3B9     		cbnz	r3, .L75
 272:../../Middlewares/Camera_Middleware/sensors/cmw_vd66gy.c ****     return CMW_ERROR_PERIPH_FAILURE;
 1690              		.loc 1 272 5 is_stmt 1 view .LVU476
 1691 007c 3046     		mov	r0, r6
 1692              	.LVL164:
 272:../../Middlewares/Camera_Middleware/sensors/cmw_vd66gy.c ****     return CMW_ERROR_PERIPH_FAILURE;
 1693              		.loc 1 272 5 is_stmt 0 view .LVU477
 1694 007e FFF7FEFF 		bl	VD6G_DeInit
 1695              	.LVL165:
 273:../../Middlewares/Camera_Middleware/sensors/cmw_vd66gy.c ****   }
 1696              		.loc 1 273 5 is_stmt 1 view .LVU478
 1697              	.L74:
 267:../../Middlewares/Camera_Middleware/sensors/cmw_vd66gy.c ****   }
 1698              		.loc 1 267 12 is_stmt 0 view .LVU479
 1699 0082 6FF00300 		mvn	r0, #3
 1700              	.LVL166:
 1701              	.L66:
 278:../../Middlewares/Camera_Middleware/sensors/cmw_vd66gy.c **** 
 1702              		.loc 1 278 1 view .LVU480
 1703 0086 0EB0     		add	sp, sp, #56
 1704              		.cfi_remember_state
 1705              		.cfi_def_cfa_offset 16
 1706              		@ sp needed
 1707 0088 70BD     		pop	{r4, r5, r6, pc}
 1708              	.LVL167:
 1709              	.L71:
 1710              		.cfi_restore_state
 1711              	.LBB46:
 1712              	.LBB42:
 188:../../Middlewares/Camera_Middleware/sensors/cmw_vd66gy.c ****   {
 1713              		.loc 1 188 8 is_stmt 1 view .LVU481
 188:../../Middlewares/Camera_Middleware/sensors/cmw_vd66gy.c ****   {
 1714              		.loc 1 188 11 is_stmt 0 view .LVU482
 1715 008a B2F5806F 		cmp	r2, #1024
 1716 008e 04D1     		bne	.L72
 188:../../Middlewares/Camera_Middleware/sensors/cmw_vd66gy.c ****   {
 1717              		.loc 1 188 26 discriminator 1 view .LVU483
 1718 0090 B3F5407F 		cmp	r3, #768
 1719 0094 CAD1     		bne	.L79
 190:../../Middlewares/Camera_Middleware/sensors/cmw_vd66gy.c ****   }
 1720              		.loc 1 190 5 is_stmt 1 view .LVU484
 190:../../Middlewares/Camera_Middleware/sensors/cmw_vd66gy.c ****   }
 1721              		.loc 1 190 10 is_stmt 0 view .LVU485
 1722 0096 0323     		movs	r3, #3
 1723              	.LVL168:
 190:../../Middlewares/Camera_Middleware/sensors/cmw_vd66gy.c ****   }
 1724              		.loc 1 190 10 view .LVU486
 1725 0098 D2E7     		b	.L83
 1726              	.LVL169:
 1727              	.L72:
 192:../../Middlewares/Camera_Middleware/sensors/cmw_vd66gy.c ****   {
 1728              		.loc 1 192 8 is_stmt 1 view .LVU487
 192:../../Middlewares/Camera_Middleware/sensors/cmw_vd66gy.c ****   {
ARM GAS  C:\Users\Antonio\AppData\Local\Temp\ccO3q7yr.s 			page 48


 1729              		.loc 1 192 11 is_stmt 0 view .LVU488
 1730 009a B2F58C6F 		cmp	r2, #1120
 1731 009e C5D1     		bne	.L79
 192:../../Middlewares/Camera_Middleware/sensors/cmw_vd66gy.c ****   {
 1732              		.loc 1 192 26 discriminator 1 view .LVU489
 1733 00a0 B3F5347F 		cmp	r3, #720
 1734 00a4 01D1     		bne	.L73
 194:../../Middlewares/Camera_Middleware/sensors/cmw_vd66gy.c ****   }
 1735              		.loc 1 194 5 is_stmt 1 view .LVU490
 194:../../Middlewares/Camera_Middleware/sensors/cmw_vd66gy.c ****   }
 1736              		.loc 1 194 10 is_stmt 0 view .LVU491
 1737 00a6 0723     		movs	r3, #7
 1738              	.LVL170:
 194:../../Middlewares/Camera_Middleware/sensors/cmw_vd66gy.c ****   }
 1739              		.loc 1 194 10 view .LVU492
 1740 00a8 CAE7     		b	.L83
 1741              	.LVL171:
 1742              	.L73:
 196:../../Middlewares/Camera_Middleware/sensors/cmw_vd66gy.c ****   {
 1743              		.loc 1 196 8 is_stmt 1 view .LVU493
 196:../../Middlewares/Camera_Middleware/sensors/cmw_vd66gy.c ****   {
 1744              		.loc 1 196 26 is_stmt 0 discriminator 1 view .LVU494
 1745 00aa 40F25452 		movw	r2, #1364
 1746              	.LVL172:
 196:../../Middlewares/Camera_Middleware/sensors/cmw_vd66gy.c ****   {
 1747              		.loc 1 196 26 discriminator 1 view .LVU495
 1748 00ae 9342     		cmp	r3, r2
 1749 00b0 BCD1     		bne	.L79
 198:../../Middlewares/Camera_Middleware/sensors/cmw_vd66gy.c ****   }
 1750              		.loc 1 198 5 is_stmt 1 view .LVU496
 198:../../Middlewares/Camera_Middleware/sensors/cmw_vd66gy.c ****   }
 1751              		.loc 1 198 10 is_stmt 0 view .LVU497
 1752 00b2 0823     		movs	r3, #8
 1753              	.LVL173:
 198:../../Middlewares/Camera_Middleware/sensors/cmw_vd66gy.c ****   }
 1754              		.loc 1 198 10 view .LVU498
 1755 00b4 C4E7     		b	.L83
 1756              	.LVL174:
 1757              	.L75:
 198:../../Middlewares/Camera_Middleware/sensors/cmw_vd66gy.c ****   }
 1758              		.loc 1 198 10 view .LVU499
 1759              	.LBE42:
 1760              	.LBE46:
 276:../../Middlewares/Camera_Middleware/sensors/cmw_vd66gy.c ****   return CMW_ERROR_NONE;
 1761              		.loc 1 276 3 is_stmt 1 view .LVU500
 276:../../Middlewares/Camera_Middleware/sensors/cmw_vd66gy.c ****   return CMW_ERROR_NONE;
 1762              		.loc 1 276 43 is_stmt 0 view .LVU501
 1763 00b6 84F82051 		strb	r5, [r4, #288]
 277:../../Middlewares/Camera_Middleware/sensors/cmw_vd66gy.c **** }
 1764              		.loc 1 277 3 is_stmt 1 view .LVU502
 1765              	.LVL175:
 1766              	.L67:
 239:../../Middlewares/Camera_Middleware/sensors/cmw_vd66gy.c ****   }
 1767              		.loc 1 239 12 is_stmt 0 view .LVU503
 1768 00ba 0020     		movs	r0, #0
 1769 00bc E3E7     		b	.L66
 1770              		.cfi_endproc
ARM GAS  C:\Users\Antonio\AppData\Local\Temp\ccO3q7yr.s 			page 49


 1771              	.LFE3360:
 1773              		.section	.text.CMW_VD66GY_VsyncEventCallback,"ax",%progbits
 1774              		.align	1
 1775              		.syntax unified
 1776              		.thumb
 1777              		.thumb_func
 1779              	CMW_VD66GY_VsyncEventCallback:
 1780              	.LVL176:
 1781              	.LFB3371:
 551:../../Middlewares/Camera_Middleware/sensors/cmw_vd66gy.c **** #ifndef ISP_MW_TUNING_TOOL_SUPPORT
 1782              		.loc 1 551 1 is_stmt 1 view -0
 1783              		.cfi_startproc
 1784              		@ args = 0, pretend = 0, frame = 0
 1785              		@ frame_needed = 0, uses_anonymous_args = 0
 554:../../Middlewares/Camera_Middleware/sensors/cmw_vd66gy.c ****   {
 1786              		.loc 1 554 3 view .LVU505
 1787 0000 0129     		cmp	r1, #1
 551:../../Middlewares/Camera_Middleware/sensors/cmw_vd66gy.c **** #ifndef ISP_MW_TUNING_TOOL_SUPPORT
 1788              		.loc 1 551 1 is_stmt 0 view .LVU506
 1789 0002 10B5     		push	{r4, lr}
 1790              		.cfi_def_cfa_offset 8
 1791              		.cfi_offset 4, -8
 1792              		.cfi_offset 14, -4
 554:../../Middlewares/Camera_Middleware/sensors/cmw_vd66gy.c ****   {
 1793              		.loc 1 554 3 view .LVU507
 1794 0004 07D0     		beq	.L85
 1795 0006 0229     		cmp	r1, #2
 1796 0008 0FD0     		beq	.L86
 1797 000a 99B9     		cbnz	r1, .L84
 557:../../Middlewares/Camera_Middleware/sensors/cmw_vd66gy.c ****       break;
 1798              		.loc 1 557 7 is_stmt 1 view .LVU508
 568:../../Middlewares/Camera_Middleware/sensors/cmw_vd66gy.c **** 
 1799              		.loc 1 568 1 is_stmt 0 view .LVU509
 1800 000c BDE81040 		pop	{r4, lr}
 1801              		.cfi_remember_state
 1802              		.cfi_restore 14
 1803              		.cfi_restore 4
 1804              		.cfi_def_cfa_offset 0
 557:../../Middlewares/Camera_Middleware/sensors/cmw_vd66gy.c ****       break;
 1805              		.loc 1 557 7 view .LVU510
 1806 0010 7030     		adds	r0, r0, #112
 1807              	.LVL177:
 557:../../Middlewares/Camera_Middleware/sensors/cmw_vd66gy.c ****       break;
 1808              		.loc 1 557 7 view .LVU511
 1809 0012 FFF7FEBF 		b	ISP_IncDumpFrameId
 1810              	.LVL178:
 1811              	.L85:
 1812              		.cfi_restore_state
 1813              	.LBB49:
 1814              	.LBI49:
 550:../../Middlewares/Camera_Middleware/sensors/cmw_vd66gy.c **** {
 1815              		.loc 1 550 13 is_stmt 1 view .LVU512
 1816              	.LBB50:
 560:../../Middlewares/Camera_Middleware/sensors/cmw_vd66gy.c ****       ISP_GatherStatistics(&((CMW_VD66GY_t *)io_ctx)->hIsp);
 1817              		.loc 1 560 7 view .LVU513
 1818 0016 00F17004 		add	r4, r0, #112
 1819 001a 2046     		mov	r0, r4
ARM GAS  C:\Users\Antonio\AppData\Local\Temp\ccO3q7yr.s 			page 50


 1820              	.LVL179:
 560:../../Middlewares/Camera_Middleware/sensors/cmw_vd66gy.c ****       ISP_GatherStatistics(&((CMW_VD66GY_t *)io_ctx)->hIsp);
 1821              		.loc 1 560 7 is_stmt 0 view .LVU514
 1822 001c FFF7FEFF 		bl	ISP_IncMainFrameId
 1823              	.LVL180:
 561:../../Middlewares/Camera_Middleware/sensors/cmw_vd66gy.c ****       break;
 1824              		.loc 1 561 7 is_stmt 1 view .LVU515
 1825 0020 2046     		mov	r0, r4
 1826              	.LBE50:
 1827              	.LBE49:
 568:../../Middlewares/Camera_Middleware/sensors/cmw_vd66gy.c **** 
 1828              		.loc 1 568 1 is_stmt 0 view .LVU516
 1829 0022 BDE81040 		pop	{r4, lr}
 1830              		.cfi_remember_state
 1831              		.cfi_restore 14
 1832              		.cfi_restore 4
 1833              		.cfi_def_cfa_offset 0
 1834              	.LVL181:
 1835              	.LBB52:
 1836              	.LBB51:
 561:../../Middlewares/Camera_Middleware/sensors/cmw_vd66gy.c ****       break;
 1837              		.loc 1 561 7 view .LVU517
 1838 0026 FFF7FEBF 		b	ISP_GatherStatistics
 1839              	.LVL182:
 1840              	.L86:
 1841              		.cfi_restore_state
 561:../../Middlewares/Camera_Middleware/sensors/cmw_vd66gy.c ****       break;
 1842              		.loc 1 561 7 view .LVU518
 1843              	.LBE51:
 1844              	.LBE52:
 564:../../Middlewares/Camera_Middleware/sensors/cmw_vd66gy.c ****       break;
 1845              		.loc 1 564 7 is_stmt 1 view .LVU519
 1846 002a 7030     		adds	r0, r0, #112
 1847              	.LVL183:
 568:../../Middlewares/Camera_Middleware/sensors/cmw_vd66gy.c **** 
 1848              		.loc 1 568 1 is_stmt 0 view .LVU520
 1849 002c BDE81040 		pop	{r4, lr}
 1850              		.cfi_remember_state
 1851              		.cfi_restore 14
 1852              		.cfi_restore 4
 1853              		.cfi_def_cfa_offset 0
 564:../../Middlewares/Camera_Middleware/sensors/cmw_vd66gy.c ****       break;
 1854              		.loc 1 564 7 view .LVU521
 1855 0030 FFF7FEBF 		b	ISP_IncAncillaryFrameId
 1856              	.LVL184:
 1857              	.L84:
 1858              		.cfi_restore_state
 568:../../Middlewares/Camera_Middleware/sensors/cmw_vd66gy.c **** 
 1859              		.loc 1 568 1 view .LVU522
 1860 0034 10BD     		pop	{r4, pc}
 1861              		.cfi_endproc
 1862              	.LFE3371:
 1864              		.section	.text.VD66GY_RegisterBusIO,"ax",%progbits
 1865              		.align	1
 1866              		.global	VD66GY_RegisterBusIO
 1867              		.syntax unified
 1868              		.thumb
ARM GAS  C:\Users\Antonio\AppData\Local\Temp\ccO3q7yr.s 			page 51


 1869              		.thumb_func
 1871              	VD66GY_RegisterBusIO:
 1872              	.LVL185:
 1873              	.LFB3373:
 573:../../Middlewares/Camera_Middleware/sensors/cmw_vd66gy.c **** 
 574:../../Middlewares/Camera_Middleware/sensors/cmw_vd66gy.c **** int32_t VD66GY_RegisterBusIO(CMW_VD66GY_t *io_ctx)
 575:../../Middlewares/Camera_Middleware/sensors/cmw_vd66gy.c **** {
 1874              		.loc 1 575 1 is_stmt 1 view -0
 1875              		.cfi_startproc
 1876              		@ args = 0, pretend = 0, frame = 0
 1877              		@ frame_needed = 0, uses_anonymous_args = 0
 1878              		@ link register save eliminated.
 576:../../Middlewares/Camera_Middleware/sensors/cmw_vd66gy.c ****   int ret;
 1879              		.loc 1 576 3 view .LVU524
 577:../../Middlewares/Camera_Middleware/sensors/cmw_vd66gy.c **** 
 578:../../Middlewares/Camera_Middleware/sensors/cmw_vd66gy.c ****   if (!io_ctx)
 1880              		.loc 1 578 3 view .LVU525
 1881              		.loc 1 578 6 is_stmt 0 view .LVU526
 1882 0000 18B1     		cbz	r0, .L88
 579:../../Middlewares/Camera_Middleware/sensors/cmw_vd66gy.c ****     return CMW_ERROR_COMPONENT_FAILURE;
 580:../../Middlewares/Camera_Middleware/sensors/cmw_vd66gy.c **** 
 581:../../Middlewares/Camera_Middleware/sensors/cmw_vd66gy.c ****   if (!io_ctx->Init)
 1883              		.loc 1 581 3 is_stmt 1 view .LVU527
 1884              		.loc 1 581 14 is_stmt 0 view .LVU528
 1885 0002 D0F82431 		ldr	r3, [r0, #292]
 1886              		.loc 1 581 6 view .LVU529
 1887 0006 03B1     		cbz	r3, .L88
 582:../../Middlewares/Camera_Middleware/sensors/cmw_vd66gy.c ****     return CMW_ERROR_COMPONENT_FAILURE;
 583:../../Middlewares/Camera_Middleware/sensors/cmw_vd66gy.c **** 
 584:../../Middlewares/Camera_Middleware/sensors/cmw_vd66gy.c ****   ret = io_ctx->Init();
 1888              		.loc 1 584 3 is_stmt 1 view .LVU530
 1889              		.loc 1 584 9 is_stmt 0 view .LVU531
 1890 0008 1847     		bx	r3
 1891              	.LVL186:
 1892              	.L88:
 585:../../Middlewares/Camera_Middleware/sensors/cmw_vd66gy.c **** 
 586:../../Middlewares/Camera_Middleware/sensors/cmw_vd66gy.c ****   return ret;
 587:../../Middlewares/Camera_Middleware/sensors/cmw_vd66gy.c **** }
 1893              		.loc 1 587 1 view .LVU532
 1894 000a 6FF00400 		mvn	r0, #4
 1895              	.LVL187:
 1896              		.loc 1 587 1 view .LVU533
 1897 000e 7047     		bx	lr
 1898              		.cfi_endproc
 1899              	.LFE3373:
 1901              		.section	.text.VD66GY_ReadID,"ax",%progbits
 1902              		.align	1
 1903              		.global	VD66GY_ReadID
 1904              		.syntax unified
 1905              		.thumb
 1906              		.thumb_func
 1908              	VD66GY_ReadID:
 1909              	.LVL188:
 1910              	.LFB3374:
 588:../../Middlewares/Camera_Middleware/sensors/cmw_vd66gy.c **** 
 589:../../Middlewares/Camera_Middleware/sensors/cmw_vd66gy.c **** int32_t VD66GY_ReadID(CMW_VD66GY_t *io_ctx, uint32_t *Id)
 590:../../Middlewares/Camera_Middleware/sensors/cmw_vd66gy.c **** {
ARM GAS  C:\Users\Antonio\AppData\Local\Temp\ccO3q7yr.s 			page 52


 1911              		.loc 1 590 1 is_stmt 1 view -0
 1912              		.cfi_startproc
 1913              		@ args = 0, pretend = 0, frame = 8
 1914              		@ frame_needed = 0, uses_anonymous_args = 0
 591:../../Middlewares/Camera_Middleware/sensors/cmw_vd66gy.c ****   uint16_t reg16;
 1915              		.loc 1 591 3 view .LVU535
 592:../../Middlewares/Camera_Middleware/sensors/cmw_vd66gy.c ****   int32_t ret;
 1916              		.loc 1 592 3 view .LVU536
 593:../../Middlewares/Camera_Middleware/sensors/cmw_vd66gy.c **** 
 594:../../Middlewares/Camera_Middleware/sensors/cmw_vd66gy.c ****   ret = CMW_VD66GY_Read16(io_ctx, VD66GY_REG_MODEL_ID, &reg16);
 1917              		.loc 1 594 3 view .LVU537
 590:../../Middlewares/Camera_Middleware/sensors/cmw_vd66gy.c ****   uint16_t reg16;
 1918              		.loc 1 590 1 is_stmt 0 view .LVU538
 1919 0000 13B5     		push	{r0, r1, r4, lr}
 1920              		.cfi_def_cfa_offset 16
 1921              		.cfi_offset 4, -8
 1922              		.cfi_offset 14, -4
 590:../../Middlewares/Camera_Middleware/sensors/cmw_vd66gy.c ****   uint16_t reg16;
 1923              		.loc 1 590 1 view .LVU539
 1924 0002 0C46     		mov	r4, r1
 1925              		.loc 1 594 9 view .LVU540
 1926 0004 0DF10602 		add	r2, sp, #6
 1927 0008 0021     		movs	r1, #0
 1928              	.LVL189:
 1929              		.loc 1 594 9 view .LVU541
 1930 000a FFF7FEFF 		bl	CMW_VD66GY_Read16
 1931              	.LVL190:
 595:../../Middlewares/Camera_Middleware/sensors/cmw_vd66gy.c ****   if (ret)
 1932              		.loc 1 595 3 is_stmt 1 view .LVU542
 1933              		.loc 1 595 6 is_stmt 0 view .LVU543
 1934 000e 10B9     		cbnz	r0, .L94
 596:../../Middlewares/Camera_Middleware/sensors/cmw_vd66gy.c ****     return ret;
 597:../../Middlewares/Camera_Middleware/sensors/cmw_vd66gy.c **** 
 598:../../Middlewares/Camera_Middleware/sensors/cmw_vd66gy.c ****   *Id = reg16;
 1935              		.loc 1 598 3 is_stmt 1 view .LVU544
 1936              		.loc 1 598 7 is_stmt 0 view .LVU545
 1937 0010 BDF80630 		ldrh	r3, [sp, #6]
 1938 0014 2360     		str	r3, [r4]
 599:../../Middlewares/Camera_Middleware/sensors/cmw_vd66gy.c **** 
 600:../../Middlewares/Camera_Middleware/sensors/cmw_vd66gy.c ****   return CMW_ERROR_NONE;
 1939              		.loc 1 600 3 is_stmt 1 view .LVU546
 1940              	.L94:
 601:../../Middlewares/Camera_Middleware/sensors/cmw_vd66gy.c **** }
 1941              		.loc 1 601 1 is_stmt 0 view .LVU547
 1942 0016 02B0     		add	sp, sp, #8
 1943              		.cfi_def_cfa_offset 8
 1944              		@ sp needed
 1945 0018 10BD     		pop	{r4, pc}
 1946              		.loc 1 601 1 view .LVU548
 1947              		.cfi_endproc
 1948              	.LFE3374:
 1950              		.section	.text.CMW_VD66GY_Probe,"ax",%progbits
 1951              		.align	1
 1952              		.global	CMW_VD66GY_Probe
 1953              		.syntax unified
 1954              		.thumb
 1955              		.thumb_func
ARM GAS  C:\Users\Antonio\AppData\Local\Temp\ccO3q7yr.s 			page 53


 1957              	CMW_VD66GY_Probe:
 1958              	.LVL191:
 1959              	.LFB3376:
 602:../../Middlewares/Camera_Middleware/sensors/cmw_vd66gy.c **** 
 603:../../Middlewares/Camera_Middleware/sensors/cmw_vd66gy.c **** static void CMW_VD66GY_PowerOn(CMW_VD66GY_t *io_ctx)
 604:../../Middlewares/Camera_Middleware/sensors/cmw_vd66gy.c **** {
 605:../../Middlewares/Camera_Middleware/sensors/cmw_vd66gy.c ****   /* Camera sensor Power-On sequence */
 606:../../Middlewares/Camera_Middleware/sensors/cmw_vd66gy.c ****   /* Assert the camera  NRST pins */
 607:../../Middlewares/Camera_Middleware/sensors/cmw_vd66gy.c ****   io_ctx->EnablePin(1);
 608:../../Middlewares/Camera_Middleware/sensors/cmw_vd66gy.c ****   io_ctx->ShutdownPin(0);  /* Disable MB1723 2V8 signal  */
 609:../../Middlewares/Camera_Middleware/sensors/cmw_vd66gy.c ****   HAL_Delay(200);   /* NRST signals asserted during 200ms */
 610:../../Middlewares/Camera_Middleware/sensors/cmw_vd66gy.c ****   /* De-assert the camera STANDBY pin (active high) */
 611:../../Middlewares/Camera_Middleware/sensors/cmw_vd66gy.c ****   io_ctx->ShutdownPin(1);  /* Disable MB1723 2V8 signal  */
 612:../../Middlewares/Camera_Middleware/sensors/cmw_vd66gy.c ****   HAL_Delay(20);     /* NRST de-asserted during 20ms */
 613:../../Middlewares/Camera_Middleware/sensors/cmw_vd66gy.c **** }
 614:../../Middlewares/Camera_Middleware/sensors/cmw_vd66gy.c **** 
 615:../../Middlewares/Camera_Middleware/sensors/cmw_vd66gy.c **** int CMW_VD66GY_Probe(CMW_VD66GY_t *io_ctx, CMW_Sensor_if_t *vd6g_if)
 616:../../Middlewares/Camera_Middleware/sensors/cmw_vd66gy.c **** {
 1960              		.loc 1 616 1 is_stmt 1 view -0
 1961              		.cfi_startproc
 1962              		@ args = 0, pretend = 0, frame = 8
 1963              		@ frame_needed = 0, uses_anonymous_args = 0
 617:../../Middlewares/Camera_Middleware/sensors/cmw_vd66gy.c ****   int ret = CMW_ERROR_NONE;
 1964              		.loc 1 617 3 view .LVU550
 618:../../Middlewares/Camera_Middleware/sensors/cmw_vd66gy.c ****   uint32_t id;
 1965              		.loc 1 618 3 view .LVU551
 619:../../Middlewares/Camera_Middleware/sensors/cmw_vd66gy.c **** 
 620:../../Middlewares/Camera_Middleware/sensors/cmw_vd66gy.c ****   io_ctx->ctx_driver.shutdown_pin = VD6G_ShutdownPin;
 1966              		.loc 1 620 3 view .LVU552
 616:../../Middlewares/Camera_Middleware/sensors/cmw_vd66gy.c ****   int ret = CMW_ERROR_NONE;
 1967              		.loc 1 616 1 is_stmt 0 view .LVU553
 1968 0000 37B5     		push	{r0, r1, r2, r4, r5, lr}
 1969              		.cfi_def_cfa_offset 24
 1970              		.cfi_offset 4, -12
 1971              		.cfi_offset 5, -8
 1972              		.cfi_offset 14, -4
 616:../../Middlewares/Camera_Middleware/sensors/cmw_vd66gy.c ****   int ret = CMW_ERROR_NONE;
 1973              		.loc 1 616 1 view .LVU554
 1974 0002 0446     		mov	r4, r0
 1975              		.loc 1 620 35 view .LVU555
 1976 0004 2E4B     		ldr	r3, .L100
 616:../../Middlewares/Camera_Middleware/sensors/cmw_vd66gy.c ****   int ret = CMW_ERROR_NONE;
 1977              		.loc 1 616 1 view .LVU556
 1978 0006 0D46     		mov	r5, r1
 1979              		.loc 1 620 35 view .LVU557
 1980 0008 8360     		str	r3, [r0, #8]
 621:../../Middlewares/Camera_Middleware/sensors/cmw_vd66gy.c ****   io_ctx->ctx_driver.read8 = VD6G_Read8;
 1981              		.loc 1 621 3 is_stmt 1 view .LVU558
 1982              		.loc 1 621 28 is_stmt 0 view .LVU559
 1983 000a 2E4B     		ldr	r3, .L100+4
 1984 000c C360     		str	r3, [r0, #12]
 622:../../Middlewares/Camera_Middleware/sensors/cmw_vd66gy.c ****   io_ctx->ctx_driver.read16 = VD6G_Read16;
 1985              		.loc 1 622 3 is_stmt 1 view .LVU560
 1986              		.loc 1 622 29 is_stmt 0 view .LVU561
 1987 000e 2E4B     		ldr	r3, .L100+8
 1988 0010 0361     		str	r3, [r0, #16]
 623:../../Middlewares/Camera_Middleware/sensors/cmw_vd66gy.c ****   io_ctx->ctx_driver.read32 = VD6G_Read32;
ARM GAS  C:\Users\Antonio\AppData\Local\Temp\ccO3q7yr.s 			page 54


 1989              		.loc 1 623 3 is_stmt 1 view .LVU562
 1990              		.loc 1 623 29 is_stmt 0 view .LVU563
 1991 0012 2E4B     		ldr	r3, .L100+12
 1992 0014 4361     		str	r3, [r0, #20]
 624:../../Middlewares/Camera_Middleware/sensors/cmw_vd66gy.c ****   io_ctx->ctx_driver.write8 = VD6G_Write8;
 1993              		.loc 1 624 3 is_stmt 1 view .LVU564
 1994              		.loc 1 624 29 is_stmt 0 view .LVU565
 1995 0016 2E4B     		ldr	r3, .L100+16
 1996 0018 8361     		str	r3, [r0, #24]
 625:../../Middlewares/Camera_Middleware/sensors/cmw_vd66gy.c ****   io_ctx->ctx_driver.write16 = VD6G_Write16;
 1997              		.loc 1 625 3 is_stmt 1 view .LVU566
 1998              		.loc 1 625 30 is_stmt 0 view .LVU567
 1999 001a 2E4B     		ldr	r3, .L100+20
 2000 001c C361     		str	r3, [r0, #28]
 626:../../Middlewares/Camera_Middleware/sensors/cmw_vd66gy.c ****   io_ctx->ctx_driver.write32 = VD6G_Write32;
 2001              		.loc 1 626 3 is_stmt 1 view .LVU568
 2002              		.loc 1 626 30 is_stmt 0 view .LVU569
 2003 001e 2E4B     		ldr	r3, .L100+24
 2004 0020 0362     		str	r3, [r0, #32]
 627:../../Middlewares/Camera_Middleware/sensors/cmw_vd66gy.c ****   io_ctx->ctx_driver.write_array = VD6G_WriteArray;
 2005              		.loc 1 627 3 is_stmt 1 view .LVU570
 2006              		.loc 1 627 34 is_stmt 0 view .LVU571
 2007 0022 2E4B     		ldr	r3, .L100+28
 2008 0024 4362     		str	r3, [r0, #36]
 628:../../Middlewares/Camera_Middleware/sensors/cmw_vd66gy.c ****   io_ctx->ctx_driver.delay = VD6G_Delay;
 2009              		.loc 1 628 3 is_stmt 1 view .LVU572
 2010              		.loc 1 628 28 is_stmt 0 view .LVU573
 2011 0026 2E4B     		ldr	r3, .L100+32
 2012 0028 8362     		str	r3, [r0, #40]
 629:../../Middlewares/Camera_Middleware/sensors/cmw_vd66gy.c ****   io_ctx->ctx_driver.log = VD6G_Log;
 2013              		.loc 1 629 3 is_stmt 1 view .LVU574
 2014              		.loc 1 629 26 is_stmt 0 view .LVU575
 2015 002a 2E4B     		ldr	r3, .L100+36
 2016 002c C362     		str	r3, [r0, #44]
 630:../../Middlewares/Camera_Middleware/sensors/cmw_vd66gy.c **** 
 631:../../Middlewares/Camera_Middleware/sensors/cmw_vd66gy.c ****   CMW_VD66GY_PowerOn(io_ctx);
 2017              		.loc 1 631 3 is_stmt 1 view .LVU576
 2018              	.LVL192:
 2019              	.LBB55:
 2020              	.LBI55:
 603:../../Middlewares/Camera_Middleware/sensors/cmw_vd66gy.c **** {
 2021              		.loc 1 603 13 view .LVU577
 2022              	.LBB56:
 607:../../Middlewares/Camera_Middleware/sensors/cmw_vd66gy.c ****   io_ctx->ShutdownPin(0);  /* Disable MB1723 2V8 signal  */
 2023              		.loc 1 607 3 view .LVU578
 2024 002e D0F84031 		ldr	r3, [r0, #320]
 2025 0032 0120     		movs	r0, #1
 2026              	.LVL193:
 607:../../Middlewares/Camera_Middleware/sensors/cmw_vd66gy.c ****   io_ctx->ShutdownPin(0);  /* Disable MB1723 2V8 signal  */
 2027              		.loc 1 607 3 is_stmt 0 view .LVU579
 2028 0034 9847     		blx	r3
 2029              	.LVL194:
 608:../../Middlewares/Camera_Middleware/sensors/cmw_vd66gy.c ****   HAL_Delay(200);   /* NRST signals asserted during 200ms */
 2030              		.loc 1 608 3 is_stmt 1 view .LVU580
 2031 0036 D4F83C31 		ldr	r3, [r4, #316]
 2032 003a 0020     		movs	r0, #0
 2033 003c 9847     		blx	r3
ARM GAS  C:\Users\Antonio\AppData\Local\Temp\ccO3q7yr.s 			page 55


 2034              	.LVL195:
 609:../../Middlewares/Camera_Middleware/sensors/cmw_vd66gy.c ****   /* De-assert the camera STANDBY pin (active high) */
 2035              		.loc 1 609 3 view .LVU581
 2036 003e C820     		movs	r0, #200
 2037 0040 FFF7FEFF 		bl	HAL_Delay
 2038              	.LVL196:
 611:../../Middlewares/Camera_Middleware/sensors/cmw_vd66gy.c ****   HAL_Delay(20);     /* NRST de-asserted during 20ms */
 2039              		.loc 1 611 3 view .LVU582
 2040 0044 0120     		movs	r0, #1
 2041 0046 D4F83C31 		ldr	r3, [r4, #316]
 2042 004a 9847     		blx	r3
 2043              	.LVL197:
 612:../../Middlewares/Camera_Middleware/sensors/cmw_vd66gy.c **** }
 2044              		.loc 1 612 3 view .LVU583
 2045 004c 1420     		movs	r0, #20
 2046 004e FFF7FEFF 		bl	HAL_Delay
 2047              	.LVL198:
 612:../../Middlewares/Camera_Middleware/sensors/cmw_vd66gy.c **** }
 2048              		.loc 1 612 3 is_stmt 0 view .LVU584
 2049              	.LBE56:
 2050              	.LBE55:
 632:../../Middlewares/Camera_Middleware/sensors/cmw_vd66gy.c **** 
 633:../../Middlewares/Camera_Middleware/sensors/cmw_vd66gy.c ****   ret = VD66GY_RegisterBusIO(io_ctx);
 2051              		.loc 1 633 3 is_stmt 1 view .LVU585
 2052              		.loc 1 633 9 is_stmt 0 view .LVU586
 2053 0052 2046     		mov	r0, r4
 2054 0054 FFF7FEFF 		bl	VD66GY_RegisterBusIO
 2055              	.LVL199:
 634:../../Middlewares/Camera_Middleware/sensors/cmw_vd66gy.c ****   if (ret != CMW_ERROR_NONE)
 2056              		.loc 1 634 3 is_stmt 1 view .LVU587
 2057              		.loc 1 634 6 is_stmt 0 view .LVU588
 2058 0058 20B1     		cbz	r0, .L97
 2059              	.LVL200:
 2060              	.L99:
 635:../../Middlewares/Camera_Middleware/sensors/cmw_vd66gy.c ****   {
 636:../../Middlewares/Camera_Middleware/sensors/cmw_vd66gy.c ****     return CMW_ERROR_COMPONENT_FAILURE;
 2061              		.loc 1 636 12 view .LVU589
 2062 005a 6FF00404 		mvn	r4, #4
 2063              	.LVL201:
 2064              	.L96:
 637:../../Middlewares/Camera_Middleware/sensors/cmw_vd66gy.c ****   }
 638:../../Middlewares/Camera_Middleware/sensors/cmw_vd66gy.c **** 
 639:../../Middlewares/Camera_Middleware/sensors/cmw_vd66gy.c ****   ret = VD66GY_ReadID(io_ctx, &id);
 640:../../Middlewares/Camera_Middleware/sensors/cmw_vd66gy.c ****   if (ret != CMW_ERROR_NONE)
 641:../../Middlewares/Camera_Middleware/sensors/cmw_vd66gy.c ****   {
 642:../../Middlewares/Camera_Middleware/sensors/cmw_vd66gy.c ****     return CMW_ERROR_COMPONENT_FAILURE;
 643:../../Middlewares/Camera_Middleware/sensors/cmw_vd66gy.c ****   }
 644:../../Middlewares/Camera_Middleware/sensors/cmw_vd66gy.c ****   if (id != VD66GY_CHIP_ID)
 645:../../Middlewares/Camera_Middleware/sensors/cmw_vd66gy.c ****   {
 646:../../Middlewares/Camera_Middleware/sensors/cmw_vd66gy.c ****     return CMW_ERROR_COMPONENT_FAILURE;
 647:../../Middlewares/Camera_Middleware/sensors/cmw_vd66gy.c ****   }
 648:../../Middlewares/Camera_Middleware/sensors/cmw_vd66gy.c **** 
 649:../../Middlewares/Camera_Middleware/sensors/cmw_vd66gy.c ****   memset(vd6g_if, 0, sizeof(*vd6g_if));
 650:../../Middlewares/Camera_Middleware/sensors/cmw_vd66gy.c ****   vd6g_if->Init = CMW_VD66GY_Init;
 651:../../Middlewares/Camera_Middleware/sensors/cmw_vd66gy.c ****   vd6g_if->DeInit = CMW_VD66GY_DeInit;
 652:../../Middlewares/Camera_Middleware/sensors/cmw_vd66gy.c ****   vd6g_if->Run = CMW_VD66GY_Run;
 653:../../Middlewares/Camera_Middleware/sensors/cmw_vd66gy.c ****   vd6g_if->VsyncEventCallback = CMW_VD66GY_VsyncEventCallback;
ARM GAS  C:\Users\Antonio\AppData\Local\Temp\ccO3q7yr.s 			page 56


 654:../../Middlewares/Camera_Middleware/sensors/cmw_vd66gy.c ****   vd6g_if->FrameEventCallback = CMW_VD66GY_FrameEventCallback;
 655:../../Middlewares/Camera_Middleware/sensors/cmw_vd66gy.c ****   vd6g_if->Start = CMW_VD66GY_Start;
 656:../../Middlewares/Camera_Middleware/sensors/cmw_vd66gy.c ****   vd6g_if->Stop = CMW_VD66GY_Stop;
 657:../../Middlewares/Camera_Middleware/sensors/cmw_vd66gy.c ****   vd6g_if->SetGain = CMW_VD66GY_SetGain;
 658:../../Middlewares/Camera_Middleware/sensors/cmw_vd66gy.c ****   vd6g_if->SetExposure = CMW_VD66GY_SetExposure;
 659:../../Middlewares/Camera_Middleware/sensors/cmw_vd66gy.c ****   vd6g_if->SetExposureMode = CMW_VD66GY_SetExposureMode;
 660:../../Middlewares/Camera_Middleware/sensors/cmw_vd66gy.c ****   vd6g_if->SetWBRefMode = CMW_VD66GY_SetWBRefMode;
 661:../../Middlewares/Camera_Middleware/sensors/cmw_vd66gy.c ****   vd6g_if->ListWBRefModes = CMW_VD66GY_ListWBRefModes;
 662:../../Middlewares/Camera_Middleware/sensors/cmw_vd66gy.c ****   vd6g_if->GetSensorInfo = CMW_VD66GY_GetSensorInfo;
 663:../../Middlewares/Camera_Middleware/sensors/cmw_vd66gy.c ****   return ret;
 664:../../Middlewares/Camera_Middleware/sensors/cmw_vd66gy.c **** }
 2065              		.loc 1 664 1 view .LVU590
 2066 005e 2046     		mov	r0, r4
 2067 0060 03B0     		add	sp, sp, #12
 2068              		.cfi_remember_state
 2069              		.cfi_def_cfa_offset 12
 2070              		@ sp needed
 2071 0062 30BD     		pop	{r4, r5, pc}
 2072              	.LVL202:
 2073              	.L97:
 2074              		.cfi_restore_state
 639:../../Middlewares/Camera_Middleware/sensors/cmw_vd66gy.c ****   if (ret != CMW_ERROR_NONE)
 2075              		.loc 1 639 3 is_stmt 1 view .LVU591
 639:../../Middlewares/Camera_Middleware/sensors/cmw_vd66gy.c ****   if (ret != CMW_ERROR_NONE)
 2076              		.loc 1 639 9 is_stmt 0 view .LVU592
 2077 0064 2046     		mov	r0, r4
 2078              	.LVL203:
 639:../../Middlewares/Camera_Middleware/sensors/cmw_vd66gy.c ****   if (ret != CMW_ERROR_NONE)
 2079              		.loc 1 639 9 view .LVU593
 2080 0066 01A9     		add	r1, sp, #4
 2081 0068 FFF7FEFF 		bl	VD66GY_ReadID
 2082              	.LVL204:
 640:../../Middlewares/Camera_Middleware/sensors/cmw_vd66gy.c ****   {
 2083              		.loc 1 640 3 is_stmt 1 view .LVU594
 640:../../Middlewares/Camera_Middleware/sensors/cmw_vd66gy.c ****   {
 2084              		.loc 1 640 6 is_stmt 0 view .LVU595
 2085 006c 0446     		mov	r4, r0
 2086              	.LVL205:
 640:../../Middlewares/Camera_Middleware/sensors/cmw_vd66gy.c ****   {
 2087              		.loc 1 640 6 view .LVU596
 2088 006e 0028     		cmp	r0, #0
 2089 0070 F3D1     		bne	.L99
 644:../../Middlewares/Camera_Middleware/sensors/cmw_vd66gy.c ****   {
 2090              		.loc 1 644 3 is_stmt 1 view .LVU597
 644:../../Middlewares/Camera_Middleware/sensors/cmw_vd66gy.c ****   {
 2091              		.loc 1 644 6 is_stmt 0 view .LVU598
 2092 0072 45F20363 		movw	r3, #22019
 2093 0076 019A     		ldr	r2, [sp, #4]
 2094 0078 9A42     		cmp	r2, r3
 2095 007a EED1     		bne	.L99
 649:../../Middlewares/Camera_Middleware/sensors/cmw_vd66gy.c ****   vd6g_if->Init = CMW_VD66GY_Init;
 2096              		.loc 1 649 3 is_stmt 1 view .LVU599
 2097 007c 0146     		mov	r1, r0
 2098 007e 4C22     		movs	r2, #76
 2099 0080 05F11C00 		add	r0, r5, #28
 2100              	.LVL206:
 649:../../Middlewares/Camera_Middleware/sensors/cmw_vd66gy.c ****   vd6g_if->Init = CMW_VD66GY_Init;
ARM GAS  C:\Users\Antonio\AppData\Local\Temp\ccO3q7yr.s 			page 57


 2101              		.loc 1 649 3 is_stmt 0 view .LVU600
 2102 0084 FFF7FEFF 		bl	memset
 2103              	.LVL207:
 650:../../Middlewares/Camera_Middleware/sensors/cmw_vd66gy.c ****   vd6g_if->DeInit = CMW_VD66GY_DeInit;
 2104              		.loc 1 650 3 is_stmt 1 view .LVU601
 650:../../Middlewares/Camera_Middleware/sensors/cmw_vd66gy.c ****   vd6g_if->DeInit = CMW_VD66GY_DeInit;
 2105              		.loc 1 650 17 is_stmt 0 view .LVU602
 2106 0088 174B     		ldr	r3, .L100+40
 2107 008a 2B60     		str	r3, [r5]
 651:../../Middlewares/Camera_Middleware/sensors/cmw_vd66gy.c ****   vd6g_if->Run = CMW_VD66GY_Run;
 2108              		.loc 1 651 3 is_stmt 1 view .LVU603
 651:../../Middlewares/Camera_Middleware/sensors/cmw_vd66gy.c ****   vd6g_if->Run = CMW_VD66GY_Run;
 2109              		.loc 1 651 19 is_stmt 0 view .LVU604
 2110 008c 174B     		ldr	r3, .L100+44
 2111 008e 6B60     		str	r3, [r5, #4]
 652:../../Middlewares/Camera_Middleware/sensors/cmw_vd66gy.c ****   vd6g_if->VsyncEventCallback = CMW_VD66GY_VsyncEventCallback;
 2112              		.loc 1 652 3 is_stmt 1 view .LVU605
 652:../../Middlewares/Camera_Middleware/sensors/cmw_vd66gy.c ****   vd6g_if->VsyncEventCallback = CMW_VD66GY_VsyncEventCallback;
 2113              		.loc 1 652 16 is_stmt 0 view .LVU606
 2114 0090 174B     		ldr	r3, .L100+48
 2115 0092 EB60     		str	r3, [r5, #12]
 653:../../Middlewares/Camera_Middleware/sensors/cmw_vd66gy.c ****   vd6g_if->FrameEventCallback = CMW_VD66GY_FrameEventCallback;
 2116              		.loc 1 653 3 is_stmt 1 view .LVU607
 653:../../Middlewares/Camera_Middleware/sensors/cmw_vd66gy.c ****   vd6g_if->FrameEventCallback = CMW_VD66GY_FrameEventCallback;
 2117              		.loc 1 653 31 is_stmt 0 view .LVU608
 2118 0094 174B     		ldr	r3, .L100+52
 2119 0096 2B61     		str	r3, [r5, #16]
 654:../../Middlewares/Camera_Middleware/sensors/cmw_vd66gy.c ****   vd6g_if->Start = CMW_VD66GY_Start;
 2120              		.loc 1 654 3 is_stmt 1 view .LVU609
 654:../../Middlewares/Camera_Middleware/sensors/cmw_vd66gy.c ****   vd6g_if->Start = CMW_VD66GY_Start;
 2121              		.loc 1 654 31 is_stmt 0 view .LVU610
 2122 0098 174B     		ldr	r3, .L100+56
 2123 009a 6B61     		str	r3, [r5, #20]
 655:../../Middlewares/Camera_Middleware/sensors/cmw_vd66gy.c ****   vd6g_if->Stop = CMW_VD66GY_Stop;
 2124              		.loc 1 655 3 is_stmt 1 view .LVU611
 655:../../Middlewares/Camera_Middleware/sensors/cmw_vd66gy.c ****   vd6g_if->Stop = CMW_VD66GY_Stop;
 2125              		.loc 1 655 18 is_stmt 0 view .LVU612
 2126 009c 174B     		ldr	r3, .L100+60
 2127 009e AB60     		str	r3, [r5, #8]
 656:../../Middlewares/Camera_Middleware/sensors/cmw_vd66gy.c ****   vd6g_if->SetGain = CMW_VD66GY_SetGain;
 2128              		.loc 1 656 3 is_stmt 1 view .LVU613
 656:../../Middlewares/Camera_Middleware/sensors/cmw_vd66gy.c ****   vd6g_if->SetGain = CMW_VD66GY_SetGain;
 2129              		.loc 1 656 17 is_stmt 0 view .LVU614
 2130 00a0 174B     		ldr	r3, .L100+64
 2131 00a2 AB61     		str	r3, [r5, #24]
 657:../../Middlewares/Camera_Middleware/sensors/cmw_vd66gy.c ****   vd6g_if->SetExposure = CMW_VD66GY_SetExposure;
 2132              		.loc 1 657 3 is_stmt 1 view .LVU615
 657:../../Middlewares/Camera_Middleware/sensors/cmw_vd66gy.c ****   vd6g_if->SetExposure = CMW_VD66GY_SetExposure;
 2133              		.loc 1 657 20 is_stmt 0 view .LVU616
 2134 00a4 174B     		ldr	r3, .L100+68
 2135 00a6 AB64     		str	r3, [r5, #72]
 658:../../Middlewares/Camera_Middleware/sensors/cmw_vd66gy.c ****   vd6g_if->SetExposureMode = CMW_VD66GY_SetExposureMode;
 2136              		.loc 1 658 3 is_stmt 1 view .LVU617
 658:../../Middlewares/Camera_Middleware/sensors/cmw_vd66gy.c ****   vd6g_if->SetExposureMode = CMW_VD66GY_SetExposureMode;
 2137              		.loc 1 658 24 is_stmt 0 view .LVU618
 2138 00a8 174B     		ldr	r3, .L100+72
 2139 00aa EB64     		str	r3, [r5, #76]
ARM GAS  C:\Users\Antonio\AppData\Local\Temp\ccO3q7yr.s 			page 58


 659:../../Middlewares/Camera_Middleware/sensors/cmw_vd66gy.c ****   vd6g_if->SetWBRefMode = CMW_VD66GY_SetWBRefMode;
 2140              		.loc 1 659 3 is_stmt 1 view .LVU619
 659:../../Middlewares/Camera_Middleware/sensors/cmw_vd66gy.c ****   vd6g_if->SetWBRefMode = CMW_VD66GY_SetWBRefMode;
 2141              		.loc 1 659 28 is_stmt 0 view .LVU620
 2142 00ac 174B     		ldr	r3, .L100+76
 2143 00ae 2B65     		str	r3, [r5, #80]
 660:../../Middlewares/Camera_Middleware/sensors/cmw_vd66gy.c ****   vd6g_if->ListWBRefModes = CMW_VD66GY_ListWBRefModes;
 2144              		.loc 1 660 3 is_stmt 1 view .LVU621
 660:../../Middlewares/Camera_Middleware/sensors/cmw_vd66gy.c ****   vd6g_if->ListWBRefModes = CMW_VD66GY_ListWBRefModes;
 2145              		.loc 1 660 25 is_stmt 0 view .LVU622
 2146 00b0 174B     		ldr	r3, .L100+80
 2147 00b2 6B65     		str	r3, [r5, #84]
 661:../../Middlewares/Camera_Middleware/sensors/cmw_vd66gy.c ****   vd6g_if->GetSensorInfo = CMW_VD66GY_GetSensorInfo;
 2148              		.loc 1 661 3 is_stmt 1 view .LVU623
 661:../../Middlewares/Camera_Middleware/sensors/cmw_vd66gy.c ****   vd6g_if->GetSensorInfo = CMW_VD66GY_GetSensorInfo;
 2149              		.loc 1 661 27 is_stmt 0 view .LVU624
 2150 00b4 174B     		ldr	r3, .L100+84
 2151 00b6 AB65     		str	r3, [r5, #88]
 662:../../Middlewares/Camera_Middleware/sensors/cmw_vd66gy.c ****   return ret;
 2152              		.loc 1 662 3 is_stmt 1 view .LVU625
 662:../../Middlewares/Camera_Middleware/sensors/cmw_vd66gy.c ****   return ret;
 2153              		.loc 1 662 26 is_stmt 0 view .LVU626
 2154 00b8 174B     		ldr	r3, .L100+88
 2155 00ba 2B66     		str	r3, [r5, #96]
 663:../../Middlewares/Camera_Middleware/sensors/cmw_vd66gy.c **** }
 2156              		.loc 1 663 3 is_stmt 1 view .LVU627
 663:../../Middlewares/Camera_Middleware/sensors/cmw_vd66gy.c **** }
 2157              		.loc 1 663 10 is_stmt 0 view .LVU628
 2158 00bc CFE7     		b	.L96
 2159              	.L101:
 2160 00be 00BF     		.align	2
 2161              	.L100:
 2162 00c0 00000000 		.word	VD6G_ShutdownPin
 2163 00c4 00000000 		.word	VD6G_Read8
 2164 00c8 00000000 		.word	VD6G_Read16
 2165 00cc 00000000 		.word	VD6G_Read32
 2166 00d0 00000000 		.word	VD6G_Write8
 2167 00d4 00000000 		.word	VD6G_Write16
 2168 00d8 00000000 		.word	VD6G_Write32
 2169 00dc 00000000 		.word	VD6G_WriteArray
 2170 00e0 00000000 		.word	VD6G_Delay
 2171 00e4 00000000 		.word	VD6G_Log
 2172 00e8 00000000 		.word	CMW_VD66GY_Init
 2173 00ec 00000000 		.word	CMW_VD66GY_DeInit
 2174 00f0 00000000 		.word	CMW_VD66GY_Run
 2175 00f4 00000000 		.word	CMW_VD66GY_VsyncEventCallback
 2176 00f8 00000000 		.word	CMW_VD66GY_FrameEventCallback
 2177 00fc 00000000 		.word	CMW_VD66GY_Start
 2178 0100 00000000 		.word	CMW_VD66GY_Stop
 2179 0104 00000000 		.word	CMW_VD66GY_SetGain
 2180 0108 00000000 		.word	CMW_VD66GY_SetExposure
 2181 010c 00000000 		.word	CMW_VD66GY_SetExposureMode
 2182 0110 00000000 		.word	CMW_VD66GY_SetWBRefMode
 2183 0114 00000000 		.word	CMW_VD66GY_ListWBRefModes
 2184 0118 00000000 		.word	CMW_VD66GY_GetSensorInfo
 2185              		.cfi_endproc
 2186              	.LFE3376:
ARM GAS  C:\Users\Antonio\AppData\Local\Temp\ccO3q7yr.s 			page 59


 2188              		.section	.rodata.ISP_IQParamCacheInit_VD66GY,"a"
 2189              		.align	2
 2192              	ISP_IQParamCacheInit_VD66GY:
 2193 0000 00       		.byte	0
 2194 0001 000000   		.space	3
 2195 0004 00000000 		.word	0
 2196 0008 00000000 		.word	0
 2197 000c 01       		.byte	1
 2198 000d 01       		.byte	1
 2199 000e 02       		.byte	2
 2200 000f 04       		.byte	4
 2201 0010 04       		.byte	4
 2202 0011 06       		.byte	6
 2203 0012 0000     		.space	2
 2204 0014 00       		.byte	0
 2205 0015 000000   		.space	3
 2206 0018 00000000 		.word	0
 2207 001c 00000000 		.word	0
 2208 0020 00000000 		.word	0
 2209 0024 00000000 		.word	0
 2210 0028 00000000 		.word	0
 2211 002c 00000000 		.word	0
 2212 0030 00000000 		.word	0
 2213 0034 00000000 		.word	0
 2214 0038 00000000 		.word	0
 2215 003c 8C000000 		.word	140
 2216 0040 55010000 		.word	341
 2217 0044 48030000 		.word	840
 2218 0048 AA020000 		.word	682
 2219 004c 00000000 		.word	0
 2220 0050 00000000 		.word	0
 2221 0054 00       		.byte	0
 2222 0055 000000   		.space	3
 2223 0058 00000000 		.word	0
 2224 005c 00       		.byte	0
 2225 005d 00       		.byte	0
 2226 005e 00000000 		.space	6
 2226      0000
 2227 0064 01       		.byte	1
 2228 0065 10       		.byte	16
 2229 0066 10       		.byte	16
 2230 0067 10       		.byte	16
 2231 0068 01       		.byte	1
 2232 0069 00       		.byte	0
 2233 006a 00000000 		.space	6
 2233      0000
 2234 0070 00       		.byte	0
 2235 0071 000000   		.space	3
 2236 0074 01       		.byte	1
 2237 0075 4A756467 		.ascii	"JudgeII A\000"
 2237      65494920 
 2237      4100
 2238 007f 00000000 		.space	22
 2238      00000000 
 2238      00000000 
 2238      00000000 
 2238      00000000 
ARM GAS  C:\Users\Antonio\AppData\Local\Temp\ccO3q7yr.s 			page 60


 2239 0095 4A756465 		.ascii	"JudegII TL84\000"
 2239      67494920 
 2239      544C3834 
 2239      00
 2240 00a2 00000000 		.space	19
 2240      00000000 
 2240      00000000 
 2240      00000000 
 2240      000000
 2241 00b5 4A756465 		.ascii	"JudegeII DAY\000"
 2241      67654949 
 2241      20444159 
 2241      00
 2242 00c2 00000000 		.space	19
 2242      00000000 
 2242      00000000 
 2242      00000000 
 2242      000000
 2243 00d5 00       		.ascii	"\000"
 2244 00d6 00000000 		.space	31
 2244      00000000 
 2244      00000000 
 2244      00000000 
 2244      00000000 
 2245 00f5 00       		.ascii	"\000"
 2246 00f6 00000000 		.space	31
 2246      00000000 
 2246      00000000 
 2246      00000000 
 2246      00000000 
 2247 0115 000000   		.space	3
 2248 0118 BE0A0000 		.word	2750
 2249 011c 36100000 		.word	4150
 2250 0120 5E1A0000 		.word	6750
 2251 0124 00000000 		.word	0
 2252 0128 00000000 		.word	0
 2253 012c C095A905 		.word	95000000
 2254 0130 4047F906 		.word	117000000
 2255 0134 005F4C09 		.word	156000000
 2256 0138 00000000 		.word	0
 2257 013c 00000000 		.word	0
 2258 0140 00E1F505 		.word	100000000
 2259 0144 00E1F505 		.word	100000000
 2260 0148 00E1F505 		.word	100000000
 2261 014c 00000000 		.word	0
 2262 0150 00000000 		.word	0
 2263 0154 80972F0E 		.word	238000000
 2264 0158 40E9430B 		.word	189000000
 2265 015c 80D1F008 		.word	150000000
 2266 0160 00000000 		.word	0
 2267 0164 00000000 		.word	0
 2268 0168 1FC3FB07 		.word	133939999
 2269 016c E0C0C4FE 		.word	-20660000
 2270 0170 80B422FE 		.word	-31280000
 2271 0174 30D8BDFD 		.word	-37890000
 2272 0178 80EFEB08 		.word	149680000
 2273 017c 618670FE 		.word	-26179999
ARM GAS  C:\Users\Antonio\AppData\Local\Temp\ccO3q7yr.s 			page 61


 2274 0180 C0201F00 		.word	2040000
 2275 0184 404EAEFA 		.word	-89240000
 2276 0188 70DB380D 		.word	221830000
 2277 018c 006BCD08 		.word	147680000
 2278 0190 7021B7FD 		.word	-38330000
 2279 0194 800040FE 		.word	-29360000
 2280 0198 00C498FD 		.word	-40320000
 2281 019c 90EFB308 		.word	146010000
 2282 01a0 C0DF20FE 		.word	-31400000
 2283 01a4 E0C81000 		.word	1100000
 2284 01a8 408D59FC 		.word	-61240000
 2285 01ac 70156B0A 		.word	174790000
 2286 01b0 90EFB308 		.word	146010000
 2287 01b4 80A2A8FD 		.word	-39280000
 2288 01b8 207629FF 		.word	-14060000
 2289 01bc D0D367FE 		.word	-26750000
 2290 01c0 10D01609 		.word	152490000
 2291 01c4 403277FD 		.word	-42520000
 2292 01c8 40B31100 		.word	1160000
 2293 01cc B082B2FC 		.word	-55410000
 2294 01d0 70E49308 		.word	143910000
 2295 01d4 00000000 		.word	0
 2296 01d8 00000000 		.word	0
 2297 01dc 00000000 		.word	0
 2298 01e0 00000000 		.word	0
 2299 01e4 00000000 		.word	0
 2300 01e8 00000000 		.word	0
 2301 01ec 00000000 		.word	0
 2302 01f0 00000000 		.word	0
 2303 01f4 00000000 		.word	0
 2304 01f8 00000000 		.word	0
 2305 01fc 00000000 		.word	0
 2306 0200 00000000 		.word	0
 2307 0204 00000000 		.word	0
 2308 0208 00000000 		.word	0
 2309 020c 00000000 		.word	0
 2310 0210 00000000 		.word	0
 2311 0214 00000000 		.word	0
 2312 0218 00000000 		.word	0
 2313 021c 00       		.byte	0
 2314 021d 000000   		.space	3
 2315 0220 00000000 		.word	0
 2316 0224 00000000 		.word	0
 2317 0228 00000000 		.word	0
 2318 022c 00       		.byte	0
 2319 022d 000000   		.space	3
 2320 0230 00000000 		.word	0
 2321 0234 00000000 		.word	0
 2322 0238 00000000 		.word	0
 2323 023c 00000000 		.word	0
 2324 0240 00000000 		.word	0
 2325 0244 00000000 		.word	0
 2326 0248 00000000 		.word	0
 2327 024c 00000000 		.word	0
 2328 0250 00000000 		.word	0
 2329 0254 01       		.byte	1
 2330 0255 01       		.byte	1
ARM GAS  C:\Users\Antonio\AppData\Local\Temp\ccO3q7yr.s 			page 62


 2331 0256 0000     		.space	2
 2332              		.text
 2333              	.Letext0:
 2334              		.file 2 "C:\\ST\\STM32CubeIDE_1.19.0\\STM32CubeIDE\\plugins\\com.st.stm32cube.ide.mcu.externaltool
 2335              		.file 3 "C:\\ST\\STM32CubeIDE_1.19.0\\STM32CubeIDE\\plugins\\com.st.stm32cube.ide.mcu.externaltool
 2336              		.file 4 "C:\\ST\\STM32CubeIDE_1.19.0\\STM32CubeIDE\\plugins\\com.st.stm32cube.ide.mcu.externaltool
 2337              		.file 5 "../../STM32Cube_FW_N6/Drivers/CMSIS/Device/ST/STM32N6xx/Include/stm32n657xx.h"
 2338              		.file 6 "../../STM32Cube_FW_N6/Drivers/STM32N6xx_HAL_Driver/Inc/stm32n6xx_hal_dcmipp.h"
 2339              		.file 7 "C:\\ST\\STM32CubeIDE_1.19.0\\STM32CubeIDE\\plugins\\com.st.stm32cube.ide.mcu.externaltool
 2340              		.file 8 "C:\\ST\\STM32CubeIDE_1.19.0\\STM32CubeIDE\\plugins\\com.st.stm32cube.ide.mcu.externaltool
 2341              		.file 9 "../../Middlewares/Camera_Middleware/ISP_Library/isp/Inc/isp_core.h"
 2342              		.file 10 "../../Middlewares/Camera_Middleware/sensors/cmw_sensors_if.h"
 2343              		.file 11 "../../Middlewares/Camera_Middleware/sensors/vd6g/vd6g.h"
 2344              		.file 12 "../../Middlewares/Camera_Middleware/sensors/cmw_vd66gy.h"
 2345              		.file 13 "Inc/isp_param_conf.h"
 2346              		.file 14 "../../Middlewares/Camera_Middleware/ISP_Library/isp/Inc/isp_api.h"
 2347              		.file 15 "../../STM32Cube_FW_N6/Drivers/STM32N6xx_HAL_Driver/Inc/stm32n6xx_hal.h"
 2348              		.file 16 "C:\\ST\\STM32CubeIDE_1.19.0\\STM32CubeIDE\\plugins\\com.st.stm32cube.ide.mcu.externaltoo
 2349              		.file 17 "C:\\ST\\STM32CubeIDE_1.19.0\\STM32CubeIDE\\plugins\\com.st.stm32cube.ide.mcu.externaltoo
 2350              		.file 18 "<built-in>"
ARM GAS  C:\Users\Antonio\AppData\Local\Temp\ccO3q7yr.s 			page 63

