ARM GAS  C:\Users\Antonio\AppData\Local\Temp\ccBvicZk.s 			page 1


   1              		.arch armv8.1-m.main
   2              		.fpu fpv5-d16
   3              		.arch_extension dsp
   4              		.arch_extension fp
   5              		.arch_extension fp.dp
   6              		.arch_extension mve
   7              		.arch_extension mve.fp
   8              		.eabi_attribute 5, "cortex-m55"
   9              		.eabi_attribute 28, 1
  10              		.eabi_attribute 20, 1
  11              		.eabi_attribute 21, 1
  12              		.eabi_attribute 23, 3
  13              		.eabi_attribute 24, 1
  14              		.eabi_attribute 25, 1
  15              		.eabi_attribute 26, 1
  16              		.eabi_attribute 30, 4
  17              		.eabi_attribute 34, 1
  18              		.eabi_attribute 38, 1
  19              		.eabi_attribute 18, 4
  20              		.file	"gesture_detection.c"
  21              		.text
  22              	.Ltext0:
  23              		.cfi_sections	.debug_frame
  24              		.file 1 "Src/gesture_detection.c"
  25              		.section	.text.Gesture_Init,"ax",%progbits
  26              		.align	1
  27              		.global	Gesture_Init
  28              		.syntax unified
  29              		.thumb
  30              		.thumb_func
  32              	Gesture_Init:
  33              	.LVL0:
  34              	.LFB3339:
   1:Src/gesture_detection.c **** /**
   2:Src/gesture_detection.c ****  ******************************************************************************
   3:Src/gesture_detection.c ****  * @file    gesture_detection.c
   4:Src/gesture_detection.c ****  * @author  Antonio Mendoza
   5:Src/gesture_detection.c ****  * @brief   Gesture detection implementation
   6:Src/gesture_detection.c ****  ******************************************************************************
   7:Src/gesture_detection.c ****  */
   8:Src/gesture_detection.c **** 
   9:Src/gesture_detection.c **** #include "gesture_detection.h"
  10:Src/gesture_detection.c **** #include "main.h"
  11:Src/gesture_detection.c **** #include "display_spe.h"
  12:Src/gesture_detection.c **** #include <math.h>
  13:Src/gesture_detection.c **** #include <string.h>
  14:Src/gesture_detection.c **** 
  15:Src/gesture_detection.c **** 
  16:Src/gesture_detection.c **** void Gesture_Init(GestureDetector_t *detector)
  17:Src/gesture_detection.c **** {
  35              		.loc 1 17 1 view -0
  36              		.cfi_startproc
  37              		@ args = 0, pretend = 0, frame = 0
  38              		@ frame_needed = 0, uses_anonymous_args = 0
  39              		@ link register save eliminated.
  18:Src/gesture_detection.c ****     memset(detector, 0, sizeof(GestureDetector_t));
  40              		.loc 1 18 5 view .LVU1
ARM GAS  C:\Users\Antonio\AppData\Local\Temp\ccBvicZk.s 			page 2


  41 0000 42F29002 		movw	r2, #8336
  42 0004 0021     		movs	r1, #0
  43 0006 FFF7FEBF 		b	memset
  44              	.LVL1:
  45              		.loc 1 18 5 is_stmt 0 view .LVU2
  46              		.cfi_endproc
  47              	.LFE3339:
  49              		.section	.text.Gesture_CalculateDistance,"ax",%progbits
  50              		.align	1
  51              		.global	Gesture_CalculateDistance
  52              		.syntax unified
  53              		.thumb
  54              		.thumb_func
  56              	Gesture_CalculateDistance:
  57              	.LVL2:
  58              	.LFB3340:
  19:Src/gesture_detection.c ****     detector->last_detected_gesture = GESTURE_NONE;
  20:Src/gesture_detection.c ****     detector->current_display_gesture = GESTURE_NONE;
  21:Src/gesture_detection.c ****     detector->gesture_display_timeout = 0;
  22:Src/gesture_detection.c **** }
  23:Src/gesture_detection.c **** 
  24:Src/gesture_detection.c **** float32_t Gesture_CalculateDistance(float32_t x1, float32_t y1, float32_t x2, float32_t y2)
  25:Src/gesture_detection.c **** {
  59              		.loc 1 25 1 is_stmt 1 view -0
  60              		.cfi_startproc
  61              		@ args = 0, pretend = 0, frame = 0
  62              		@ frame_needed = 0, uses_anonymous_args = 0
  63              		@ link register save eliminated.
  26:Src/gesture_detection.c ****     float32_t dx = x2 - x1;
  64              		.loc 1 26 5 view .LVU4
  65              		.loc 1 26 15 is_stmt 0 view .LVU5
  66 0000 31EE401A 		vsub.f32	s2, s2, s0
  67              	.LVL3:
  27:Src/gesture_detection.c ****     float32_t dy = y2 - y1;
  68              		.loc 1 27 5 is_stmt 1 view .LVU6
  69              		.loc 1 27 15 is_stmt 0 view .LVU7
  70 0004 31EEE00A 		vsub.f32	s0, s3, s1
  71              	.LVL4:
  28:Src/gesture_detection.c ****     return sqrtf(dx * dx + dy * dy);
  72              		.loc 1 28 5 is_stmt 1 view .LVU8
  73              		.loc 1 28 31 is_stmt 0 view .LVU9
  74 0008 20EE000A 		vmul.f32	s0, s0, s0
  75              	.LVL5:
  76              		.loc 1 28 12 view .LVU10
  77 000c A1EE010A 		vfma.f32	s0, s2, s2
  78 0010 FFF7FEBF 		b	sqrtf
  79              	.LVL6:
  80              		.loc 1 28 12 view .LVU11
  81              		.cfi_endproc
  82              	.LFE3340:
  84              		.section	.text.Gesture_CalculateSpeed,"ax",%progbits
  85              		.align	1
  86              		.global	Gesture_CalculateSpeed
  87              		.syntax unified
  88              		.thumb
  89              		.thumb_func
  91              	Gesture_CalculateSpeed:
ARM GAS  C:\Users\Antonio\AppData\Local\Temp\ccBvicZk.s 			page 3


  92              	.LVL7:
  93              	.LFB3341:
  29:Src/gesture_detection.c **** }
  30:Src/gesture_detection.c **** 
  31:Src/gesture_detection.c **** float32_t Gesture_CalculateSpeed(KeypointHistory_t *history, uint8_t current_idx, uint8_t frames_ba
  32:Src/gesture_detection.c **** {
  94              		.loc 1 32 1 is_stmt 1 view -0
  95              		.cfi_startproc
  96              		@ args = 0, pretend = 0, frame = 0
  97              		@ frame_needed = 0, uses_anonymous_args = 0
  33:Src/gesture_detection.c ****     if (frames_back >= GESTURE_HISTORY_SIZE) return 0.0f;
  98              		.loc 1 33 5 view .LVU13
  99              		.loc 1 33 8 is_stmt 0 view .LVU14
 100 0000 272A     		cmp	r2, #39
  32:Src/gesture_detection.c ****     if (frames_back >= GESTURE_HISTORY_SIZE) return 0.0f;
 101              		.loc 1 32 1 view .LVU15
 102 0002 38B5     		push	{r3, r4, r5, lr}
 103              		.cfi_def_cfa_offset 16
 104              		.cfi_offset 3, -16
 105              		.cfi_offset 4, -12
 106              		.cfi_offset 5, -8
 107              		.cfi_offset 14, -4
 108              		.loc 1 33 8 view .LVU16
 109 0004 02D9     		bls	.L4
 110              	.LVL8:
 111              	.L6:
 112              		.loc 1 33 53 discriminator 1 view .LVU17
 113 0006 9FED140A 		vldr.32	s0, .L10
 114              	.L3:
  34:Src/gesture_detection.c **** 
  35:Src/gesture_detection.c ****     uint8_t prev_idx = (current_idx - frames_back + GESTURE_HISTORY_SIZE) % GESTURE_HISTORY_SIZE;
  36:Src/gesture_detection.c **** 
  37:Src/gesture_detection.c ****     float32_t distance = Gesture_CalculateDistance(
  38:Src/gesture_detection.c ****         history[prev_idx].x, history[prev_idx].y,
  39:Src/gesture_detection.c ****         history[current_idx].x, history[current_idx].y
  40:Src/gesture_detection.c ****     );
  41:Src/gesture_detection.c **** 
  42:Src/gesture_detection.c ****     uint32_t time_diff = history[current_idx].timestamp - history[prev_idx].timestamp;
  43:Src/gesture_detection.c ****     if (time_diff == 0) return 0.0f;
  44:Src/gesture_detection.c **** 
  45:Src/gesture_detection.c ****     return distance / (time_diff / 1000.0f); // Speed per second
  46:Src/gesture_detection.c **** }
 115              		.loc 1 46 1 view .LVU18
 116 000a 38BD     		pop	{r3, r4, r5, pc}
 117              	.LVL9:
 118              	.L4:
  35:Src/gesture_detection.c **** 
 119              		.loc 1 35 5 is_stmt 1 view .LVU19
  37:Src/gesture_detection.c ****         history[prev_idx].x, history[prev_idx].y,
 120              		.loc 1 37 5 view .LVU20
  35:Src/gesture_detection.c **** 
 121              		.loc 1 35 75 is_stmt 0 view .LVU21
 122 000c 2823     		movs	r3, #40
  35:Src/gesture_detection.c **** 
 123              		.loc 1 35 37 view .LVU22
 124 000e 8C1A     		subs	r4, r1, r2
  35:Src/gesture_detection.c **** 
ARM GAS  C:\Users\Antonio\AppData\Local\Temp\ccBvicZk.s 			page 4


 125              		.loc 1 35 51 view .LVU23
 126 0010 2834     		adds	r4, r4, #40
  35:Src/gesture_detection.c **** 
 127              		.loc 1 35 75 view .LVU24
 128 0012 B4FBF3F2 		udiv	r2, r4, r3
 129              	.LVL10:
  35:Src/gesture_detection.c **** 
 130              		.loc 1 35 75 view .LVU25
 131 0016 03FB1244 		mls	r4, r3, r2, r4
  39:Src/gesture_detection.c ****     );
 132              		.loc 1 39 16 view .LVU26
 133 001a 00EB0115 		add	r5, r0, r1, lsl #4
  38:Src/gesture_detection.c ****         history[current_idx].x, history[current_idx].y
 134              		.loc 1 38 16 view .LVU27
 135 001e 00EB0414 		add	r4, r0, r4, lsl #4
  37:Src/gesture_detection.c ****         history[prev_idx].x, history[prev_idx].y,
 136              		.loc 1 37 26 view .LVU28
 137 0022 D5ED011A 		vldr.32	s3, [r5, #4]
 138 0026 95ED001A 		vldr.32	s2, [r5]
 139 002a D4ED010A 		vldr.32	s1, [r4, #4]
 140 002e 94ED000A 		vldr.32	s0, [r4]
 141 0032 FFF7FEFF 		bl	Gesture_CalculateDistance
 142              	.LVL11:
  42:Src/gesture_detection.c ****     if (time_diff == 0) return 0.0f;
 143              		.loc 1 42 14 view .LVU29
 144 0036 EB68     		ldr	r3, [r5, #12]
 145 0038 E268     		ldr	r2, [r4, #12]
  37:Src/gesture_detection.c ****         history[prev_idx].x, history[prev_idx].y,
 146              		.loc 1 37 26 view .LVU30
 147 003a B0EE407A 		vmov.f32	s14, s0
 148              	.LVL12:
  42:Src/gesture_detection.c ****     if (time_diff == 0) return 0.0f;
 149              		.loc 1 42 5 is_stmt 1 view .LVU31
  43:Src/gesture_detection.c **** 
 150              		.loc 1 43 5 view .LVU32
  43:Src/gesture_detection.c **** 
 151              		.loc 1 43 8 is_stmt 0 view .LVU33
 152 003e 9B1A     		subs	r3, r3, r2
 153              	.LVL13:
  43:Src/gesture_detection.c **** 
 154              		.loc 1 43 8 view .LVU34
 155 0040 E1D0     		beq	.L6
  45:Src/gesture_detection.c **** }
 156              		.loc 1 45 5 is_stmt 1 view .LVU35
  45:Src/gesture_detection.c **** }
 157              		.loc 1 45 34 is_stmt 0 view .LVU36
 158 0042 07EE903A 		vmov	s15, r3	@ int
 159 0046 9FED056A 		vldr.32	s12, .L10+4
 160 004a F8EE677A 		vcvt.f32.u32	s15, s15
 161 004e C7EE866A 		vdiv.f32	s13, s15, s12
  45:Src/gesture_detection.c **** }
 162              		.loc 1 45 21 view .LVU37
 163 0052 87EE260A 		vdiv.f32	s0, s14, s13
 164              	.LVL14:
  45:Src/gesture_detection.c **** }
 165              		.loc 1 45 21 view .LVU38
 166 0056 D8E7     		b	.L3
ARM GAS  C:\Users\Antonio\AppData\Local\Temp\ccBvicZk.s 			page 5


 167              	.L11:
 168              		.align	2
 169              	.L10:
 170 0058 00000000 		.word	0
 171 005c 00007A44 		.word	1148846080
 172              		.cfi_endproc
 173              	.LFE3341:
 175              		.section	.text.Gesture_Detect,"ax",%progbits
 176              		.align	1
 177              		.global	Gesture_Detect
 178              		.syntax unified
 179              		.thumb
 180              		.thumb_func
 182              	Gesture_Detect:
 183              	.LVL15:
 184              	.LFB3344:
  47:Src/gesture_detection.c **** 
  48:Src/gesture_detection.c **** static GestureType_t Detect_ArmSwipe(GestureDetector_t *detector, spe_pp_outBuffer_t *keypoints)
  49:Src/gesture_detection.c **** {
  50:Src/gesture_detection.c ****     uint8_t curr_idx = detector->history_index;
  51:Src/gesture_detection.c ****     uint8_t prev_idx = (curr_idx - 4 + GESTURE_HISTORY_SIZE) % GESTURE_HISTORY_SIZE;
  52:Src/gesture_detection.c **** 
  53:Src/gesture_detection.c ****     /***** Right now I am deactivating the right arm swipe, so that is not confounded with the swor
  54:Src/gesture_detection.c ****     /*
  55:Src/gesture_detection.c ****     	// Check right arm swipe
  56:Src/gesture_detection.c ****     KeypointHistory_t *right_wrist = detector->history[KEYPOINT_RIGHT_WRIST];
  57:Src/gesture_detection.c ****     KeypointHistory_t *right_shoulder = detector->history[KEYPOINT_RIGHT_SHOULDER];
  58:Src/gesture_detection.c **** 
  59:Src/gesture_detection.c ****     if (right_wrist[curr_idx].confidence > MIN_CONFIDENCE
  60:Src/gesture_detection.c ****     		//&& right_shoulder[curr_idx].confidence > MIN_CONFIDENCE
  61:Src/gesture_detection.c **** 		) {
  62:Src/gesture_detection.c **** 
  63:Src/gesture_detection.c ****         // Calculate horizontal movement of wrist
  64:Src/gesture_detection.c ****         float32_t wrist_dx = right_wrist[curr_idx].x - right_wrist[prev_idx].x;
  65:Src/gesture_detection.c ****         float32_t wrist_speed = Gesture_CalculateSpeed(right_wrist, curr_idx, 3);
  66:Src/gesture_detection.c ****         float32_t current_x_pos= right_wrist[curr_idx].x;
  67:Src/gesture_detection.c **** 		float32_t prev_x_pos = right_wrist[prev_idx].x;
  68:Src/gesture_detection.c **** //	  UTIL_LCD_SetBackColor(0x40000000);
  69:Src/gesture_detection.c **** //        UTIL_LCDEx_PrintfAt(0, LINE(13), CENTER_MODE, "curr_x %.3f, prev_x: %.3f", current_x_pos,
  70:Src/gesture_detection.c **** //        UTIL_LCDEx_PrintfAt(0, LINE(14), CENTER_MODE, "n_dx: %.3f, n_sp: %.3f", wrist_dx, wrist_s
  71:Src/gesture_detection.c **** //        UTIL_LCD_SetBackColor(0);
  72:Src/gesture_detection.c **** 
  73:Src/gesture_detection.c ****         // Check if wrist is moving significantly horizontally
  74:Src/gesture_detection.c ****         if (fabsf(wrist_dx) > 0.05f && wrist_speed > SWIPE_MIN_SPEED) {
  75:Src/gesture_detection.c ****             // Check if arm is extended (wrist far from shoulder)
  76:Src/gesture_detection.c ****         //    float32_t arm_extension = Gesture_CalculateDistance(
  77:Src/gesture_detection.c ****         //        right_wrist[curr_idx].x, right_wrist[curr_idx].y,
  78:Src/gesture_detection.c ****        //         right_shoulder[curr_idx].x, right_shoulder[curr_idx].y
  79:Src/gesture_detection.c ****        //     );
  80:Src/gesture_detection.c **** 
  81:Src/gesture_detection.c ****         //    if (arm_extension > 0.2f) { // Arm is extended
  82:Src/gesture_detection.c ****                 if (wrist_dx > 0) {
  83:Src/gesture_detection.c ****                     return GESTURE_RIGHT_ARM_SWIPE_RIGHT;
  84:Src/gesture_detection.c ****                 } else {
  85:Src/gesture_detection.c ****                     return GESTURE_RIGHT_ARM_SWIPE_LEFT;
  86:Src/gesture_detection.c ****                 }
  87:Src/gesture_detection.c ****             //}
ARM GAS  C:\Users\Antonio\AppData\Local\Temp\ccBvicZk.s 			page 6


  88:Src/gesture_detection.c ****         }
  89:Src/gesture_detection.c ****     }
  90:Src/gesture_detection.c ****     */
  91:Src/gesture_detection.c **** 
  92:Src/gesture_detection.c ****     // Check left arm swipe (similar logic)
  93:Src/gesture_detection.c ****     KeypointHistory_t *left_wrist = detector->history[KEYPOINT_LEFT_WRIST];
  94:Src/gesture_detection.c ****     KeypointHistory_t *left_shoulder = detector->history[KEYPOINT_LEFT_SHOULDER];
  95:Src/gesture_detection.c **** 
  96:Src/gesture_detection.c ****     if (left_wrist[curr_idx].confidence > MIN_CONFIDENCE
  97:Src/gesture_detection.c ****     	//	&&  left_shoulder[curr_idx].confidence > MIN_CONFIDENCE
  98:Src/gesture_detection.c **** 			) {
  99:Src/gesture_detection.c **** 
 100:Src/gesture_detection.c ****         float32_t wrist_dx = left_wrist[curr_idx].x - left_wrist[prev_idx].x;
 101:Src/gesture_detection.c ****         float32_t wrist_speed = Gesture_CalculateSpeed(left_wrist, curr_idx, 3);
 102:Src/gesture_detection.c ****        // UTIL_LCDEx_PrintfAt(0, LINE(15), CENTER_MODE, "idx:%d/%d,w_dx: %.3f, w_sp: %.3f", prev_id
 103:Src/gesture_detection.c ****         if (fabsf(wrist_dx) > 0.05f && wrist_speed > SWIPE_MIN_SPEED) {
 104:Src/gesture_detection.c ****         //    float32_t arm_extension = Gesture_CalculateDistance(
 105:Src/gesture_detection.c ****          //       left_wrist[curr_idx].x, left_wrist[curr_idx].y,
 106:Src/gesture_detection.c ****         //        left_shoulder[curr_idx].x, left_shoulder[curr_idx].y
 107:Src/gesture_detection.c ****         //    );
 108:Src/gesture_detection.c **** 
 109:Src/gesture_detection.c ****         //    if (arm_extension > 0.2f) {
 110:Src/gesture_detection.c ****                 if (wrist_dx > 0) {
 111:Src/gesture_detection.c ****                     return GESTURE_LEFT_ARM_SWIPE_RIGHT;
 112:Src/gesture_detection.c ****                 } else {
 113:Src/gesture_detection.c ****                     return GESTURE_LEFT_ARM_SWIPE_LEFT;
 114:Src/gesture_detection.c ****                 }
 115:Src/gesture_detection.c ****           //  }
 116:Src/gesture_detection.c ****         }
 117:Src/gesture_detection.c ****     }
 118:Src/gesture_detection.c **** 
 119:Src/gesture_detection.c ****     return GESTURE_NONE;
 120:Src/gesture_detection.c **** }
 121:Src/gesture_detection.c **** 
 122:Src/gesture_detection.c **** static GestureType_t Detect_SwordGestures(GestureDetector_t *detector, spe_pp_outBuffer_t *keypoint
 123:Src/gesture_detection.c **** {
 124:Src/gesture_detection.c ****     uint8_t curr_idx = detector->history_index;
 125:Src/gesture_detection.c **** 
 126:Src/gesture_detection.c ****     KeypointHistory_t *right_wrist = detector->history[KEYPOINT_RIGHT_WRIST];
 127:Src/gesture_detection.c ****     KeypointHistory_t *right_shoulder = detector->history[KEYPOINT_RIGHT_SHOULDER];
 128:Src/gesture_detection.c ****     KeypointHistory_t *right_elbow = detector->history[KEYPOINT_RIGHT_ELBOW];
 129:Src/gesture_detection.c ****     KeypointHistory_t *nose = detector->history[KEYPOINT_NOSE];
 130:Src/gesture_detection.c **** 
 131:Src/gesture_detection.c ****     if (right_wrist[curr_idx].confidence < MIN_CONFIDENCE ||
 132:Src/gesture_detection.c ****         right_shoulder[curr_idx].confidence < MIN_CONFIDENCE ||
 133:Src/gesture_detection.c ****         right_elbow[curr_idx].confidence < MIN_CONFIDENCE) {
 134:Src/gesture_detection.c ****         return GESTURE_NONE;
 135:Src/gesture_detection.c ****     }
 136:Src/gesture_detection.c **** 
 137:Src/gesture_detection.c ****     // Overhead strike: Check if hand moves from high to low rapidly
 138:Src/gesture_detection.c ****     if (curr_idx >= 12) { // Need some history
 139:Src/gesture_detection.c ****         uint8_t start_idx = (curr_idx - 12 + GESTURE_HISTORY_SIZE) % GESTURE_HISTORY_SIZE;
 140:Src/gesture_detection.c **** 
 141:Src/gesture_detection.c ****         float32_t start_y = right_wrist[start_idx].y;
 142:Src/gesture_detection.c ****         float32_t curr_y = right_wrist[curr_idx].y;
 143:Src/gesture_detection.c ****         float32_t vertical_movement = curr_y - start_y;
 144:Src/gesture_detection.c ****         float32_t start_nose = nose[start_idx].y;
ARM GAS  C:\Users\Antonio\AppData\Local\Temp\ccBvicZk.s 			page 7


 145:Src/gesture_detection.c **** 
 146:Src/gesture_detection.c ****         // Check if hand started anove the nose and moved down quickly
 147:Src/gesture_detection.c ****         if (start_y < start_nose && vertical_movement > 0.25f) { // Started high, moved down
 148:Src/gesture_detection.c ****             float32_t speed = Gesture_CalculateSpeed(right_wrist, curr_idx, 5);
 149:Src/gesture_detection.c ****             if (speed > SWIPE_MIN_SPEED * 1.5f) {
 150:Src/gesture_detection.c ****                 return GESTURE_SWORD_OVERHEAD_STRIKE;
 151:Src/gesture_detection.c ****             }
 152:Src/gesture_detection.c ****         }
 153:Src/gesture_detection.c ****     }
 154:Src/gesture_detection.c **** 
 155:Src/gesture_detection.c ****     // Side slash: Check for horizontal movement with extended arm
 156:Src/gesture_detection.c ****     if (curr_idx >= 12) {
 157:Src/gesture_detection.c ****         uint8_t start_idx = (curr_idx - 12 + GESTURE_HISTORY_SIZE) % GESTURE_HISTORY_SIZE;
 158:Src/gesture_detection.c **** 
 159:Src/gesture_detection.c ****         float32_t horizontal_movement = fabsf(right_wrist[curr_idx].x - right_wrist[start_idx].x);
 160:Src/gesture_detection.c ****         float32_t arm_extension = Gesture_CalculateDistance(
 161:Src/gesture_detection.c ****             right_wrist[curr_idx].x, right_wrist[curr_idx].y,
 162:Src/gesture_detection.c ****             right_shoulder[curr_idx].x, right_shoulder[curr_idx].y
 163:Src/gesture_detection.c ****         );
 164:Src/gesture_detection.c **** 
 165:Src/gesture_detection.c ****         if (horizontal_movement > 0.2f && arm_extension > 0.25f) {
 166:Src/gesture_detection.c ****             float32_t speed = Gesture_CalculateSpeed(right_wrist, curr_idx, 3);
 167:Src/gesture_detection.c ****             if (speed > SWIPE_MIN_SPEED) {
 168:Src/gesture_detection.c ****                 return GESTURE_SWORD_SIDE_SLASH;
 169:Src/gesture_detection.c ****             }
 170:Src/gesture_detection.c ****         }
 171:Src/gesture_detection.c ****     }
 172:Src/gesture_detection.c **** 
 173:Src/gesture_detection.c ****     return GESTURE_NONE;
 174:Src/gesture_detection.c **** }
 175:Src/gesture_detection.c **** 
 176:Src/gesture_detection.c **** GestureType_t Gesture_Detect(GestureDetector_t *detector, spe_pp_outBuffer_t *keypoints)
 177:Src/gesture_detection.c **** {
 185              		.loc 1 177 1 is_stmt 1 view -0
 186              		.cfi_startproc
 187              		@ args = 0, pretend = 0, frame = 8
 188              		@ frame_needed = 0, uses_anonymous_args = 0
 189              		.loc 1 177 1 is_stmt 0 view .LVU40
 190 0000 2DE9F04F 		push	{r4, r5, r6, r7, r8, r9, r10, fp, lr}
 191              		.cfi_def_cfa_offset 36
 192              		.cfi_offset 4, -36
 193              		.cfi_offset 5, -32
 194              		.cfi_offset 6, -28
 195              		.cfi_offset 7, -24
 196              		.cfi_offset 8, -20
 197              		.cfi_offset 9, -16
 198              		.cfi_offset 10, -12
 199              		.cfi_offset 11, -8
 200              		.cfi_offset 14, -4
 201 0004 2DED048B 		vpush.64	{d8, d9}
 202              		.cfi_def_cfa_offset 52
 203              		.cfi_offset 80, -52
 204              		.cfi_offset 81, -48
 205              		.cfi_offset 82, -44
 206              		.cfi_offset 83, -40
 207 0008 0646     		mov	r6, r0
 178:Src/gesture_detection.c ****     uint32_t current_time = HAL_GetTick();
ARM GAS  C:\Users\Antonio\AppData\Local\Temp\ccBvicZk.s 			page 8


 208              		.loc 1 178 5 is_stmt 1 view .LVU41
 177:Src/gesture_detection.c ****     uint32_t current_time = HAL_GetTick();
 209              		.loc 1 177 1 is_stmt 0 view .LVU42
 210 000a 83B0     		sub	sp, sp, #12
 211              		.cfi_def_cfa_offset 64
 177:Src/gesture_detection.c ****     uint32_t current_time = HAL_GetTick();
 212              		.loc 1 177 1 view .LVU43
 213 000c 8946     		mov	r9, r1
 214              		.loc 1 178 29 view .LVU44
 215 000e FFF7FEFF 		bl	HAL_GetTick
 216              	.LVL16:
 179:Src/gesture_detection.c **** 
 180:Src/gesture_detection.c ****     // Advance history index
 181:Src/gesture_detection.c ****     detector->history_index = (detector->history_index + 1) % GESTURE_HISTORY_SIZE;
 217              		.loc 1 181 61 view .LVU45
 218 0012 2823     		movs	r3, #40
 219              		.loc 1 181 40 view .LVU46
 220 0014 06F50058 		add	r8, r6, #8192
 221 0018 98F88040 		ldrb	r4, [r8, #128]	@ zero_extendqisi2
 222 001c 4FF00D0E 		mov	lr, #13
 223              		.loc 1 181 56 view .LVU47
 224 0020 0134     		adds	r4, r4, #1
 225              		.loc 1 181 61 view .LVU48
 226 0022 B4FBF3F2 		udiv	r2, r4, r3
 227 0026 03FB1244 		mls	r4, r3, r2, r4
 228 002a 06EB0413 		add	r3, r6, r4, lsl #4
 178:Src/gesture_detection.c **** 
 229              		.loc 1 178 29 view .LVU49
 230 002e 0546     		mov	r5, r0
 231              	.LVL17:
 232              		.loc 1 181 5 is_stmt 1 view .LVU50
 233 0030 1A46     		mov	r2, r3
 234 0032 4EF001E0 		dls	lr, lr
 235              		.loc 1 181 29 is_stmt 0 view .LVU51
 236 0036 E7B2     		uxtb	r7, r4
 237 0038 4946     		mov	r1, r9
 238 003a 88F88070 		strb	r7, [r8, #128]
 182:Src/gesture_detection.c **** 
 183:Src/gesture_detection.c **** 
 184:Src/gesture_detection.c ****     // Update history with current keypoints
 185:Src/gesture_detection.c ****     for (int i = 0; i < AI_POSE_PP_POSE_KEYPOINTS_NB; i++) {
 239              		.loc 1 185 5 is_stmt 1 view .LVU52
 240              	.LBB17:
 241              		.loc 1 185 10 view .LVU53
 242              	.LVL18:
 243              		.loc 1 185 23 discriminator 1 view .LVU54
 244 003e 4FEA0419 		lsl	r9, r4, #4
 245              	.LVL19:
 246              	.L13:
 186:Src/gesture_detection.c ****         detector->history[i][detector->history_index].x = keypoints[i].x_center;
 247              		.loc 1 186 9 view .LVU55
 248              		.loc 1 186 71 is_stmt 0 view .LVU56
 249 0042 0868     		ldr	r0, [r1]	@ float
 185:Src/gesture_detection.c ****         detector->history[i][detector->history_index].x = keypoints[i].x_center;
 250              		.loc 1 185 23 discriminator 1 view .LVU57
 251 0044 0C31     		adds	r1, r1, #12
 252              		.loc 1 186 57 view .LVU58
ARM GAS  C:\Users\Antonio\AppData\Local\Temp\ccBvicZk.s 			page 9


 253 0046 1860     		str	r0, [r3]	@ float
 187:Src/gesture_detection.c ****         detector->history[i][detector->history_index].y = keypoints[i].y_center;
 254              		.loc 1 187 9 is_stmt 1 view .LVU59
 255              		.loc 1 187 71 is_stmt 0 view .LVU60
 256 0048 51F8080C 		ldr	r0, [r1, #-8]	@ float
 257              		.loc 1 187 57 view .LVU61
 258 004c 5860     		str	r0, [r3, #4]	@ float
 188:Src/gesture_detection.c ****         detector->history[i][detector->history_index].confidence = keypoints[i].proba;
 259              		.loc 1 188 9 is_stmt 1 view .LVU62
 260              		.loc 1 188 80 is_stmt 0 view .LVU63
 261 004e 51F8040C 		ldr	r0, [r1, #-4]	@ float
 189:Src/gesture_detection.c ****         detector->history[i][detector->history_index].timestamp = current_time;
 262              		.loc 1 189 65 view .LVU64
 263 0052 DD60     		str	r5, [r3, #12]
 188:Src/gesture_detection.c ****         detector->history[i][detector->history_index].confidence = keypoints[i].proba;
 264              		.loc 1 188 66 view .LVU65
 265 0054 9860     		str	r0, [r3, #8]	@ float
 266              		.loc 1 189 9 is_stmt 1 view .LVU66
 185:Src/gesture_detection.c ****         detector->history[i][detector->history_index].x = keypoints[i].x_center;
 267              		.loc 1 185 56 discriminator 3 view .LVU67
 185:Src/gesture_detection.c ****         detector->history[i][detector->history_index].x = keypoints[i].x_center;
 268              		.loc 1 185 23 discriminator 1 view .LVU68
 269 0056 03F52073 		add	r3, r3, #640
 270 005a 0FF00FC0 		le	lr, .L13
 185:Src/gesture_detection.c ****         detector->history[i][detector->history_index].x = keypoints[i].x_center;
 271              		.loc 1 185 23 is_stmt 0 discriminator 1 view .LVU69
 272              	.LBE17:
 190:Src/gesture_detection.c ****     }
 191:Src/gesture_detection.c **** 
 192:Src/gesture_detection.c **** 
 193:Src/gesture_detection.c **** 
 194:Src/gesture_detection.c ****     // Prevent detecting same gesture too quickly
 195:Src/gesture_detection.c ****     if (current_time - detector->last_gesture_time < 1000) { // 1 second cooldown
 273              		.loc 1 195 5 is_stmt 1 view .LVU70
 274              		.loc 1 195 22 is_stmt 0 view .LVU71
 275 005e D8F88430 		ldr	r3, [r8, #132]
 276 0062 EB1A     		subs	r3, r5, r3
 277              		.loc 1 195 8 view .LVU72
 278 0064 B3F57A7F 		cmp	r3, #1000
 279 0068 05D2     		bcs	.L14
 280              	.L24:
 196:Src/gesture_detection.c ****         return GESTURE_NONE;
 281              		.loc 1 196 16 view .LVU73
 282 006a 0020     		movs	r0, #0
 283              	.LVL20:
 284              	.L15:
 197:Src/gesture_detection.c ****     }
 198:Src/gesture_detection.c **** 
 199:Src/gesture_detection.c ****     // Try different gesture detection algorithms
 200:Src/gesture_detection.c ****     GestureType_t detected_gesture = GESTURE_NONE;
 201:Src/gesture_detection.c **** 
 202:Src/gesture_detection.c ****     // Check for sword gestures
 203:Src/gesture_detection.c ****     detected_gesture = Detect_SwordGestures(detector, keypoints);
 204:Src/gesture_detection.c ****     if (detected_gesture != GESTURE_NONE) {
 205:Src/gesture_detection.c ****         detector->last_detected_gesture = detected_gesture;
 206:Src/gesture_detection.c ****         detector->last_gesture_time = current_time;
 207:Src/gesture_detection.c ****         detector->current_display_gesture = detected_gesture;
ARM GAS  C:\Users\Antonio\AppData\Local\Temp\ccBvicZk.s 			page 10


 208:Src/gesture_detection.c ****         detector->gesture_display_timeout = current_time + GESTURE_DISPLAY_TIME;
 209:Src/gesture_detection.c ****         return detected_gesture;
 210:Src/gesture_detection.c ****     }
 211:Src/gesture_detection.c **** 
 212:Src/gesture_detection.c ****     // Check for arm swipes
 213:Src/gesture_detection.c ****     detected_gesture = Detect_ArmSwipe(detector, keypoints);
 214:Src/gesture_detection.c ****     if (detected_gesture != GESTURE_NONE) {
 215:Src/gesture_detection.c ****         detector->last_detected_gesture = detected_gesture;
 216:Src/gesture_detection.c ****         detector->last_gesture_time = current_time;
 217:Src/gesture_detection.c ****         detector->current_display_gesture = detected_gesture;
 218:Src/gesture_detection.c ****         detector->gesture_display_timeout = current_time + GESTURE_DISPLAY_TIME;
 219:Src/gesture_detection.c ****         return detected_gesture;
 220:Src/gesture_detection.c ****     }
 221:Src/gesture_detection.c **** 
 222:Src/gesture_detection.c **** 
 223:Src/gesture_detection.c **** 
 224:Src/gesture_detection.c ****     return GESTURE_NONE;
 225:Src/gesture_detection.c **** }
 285              		.loc 1 225 1 view .LVU74
 286 006c 03B0     		add	sp, sp, #12
 287              		.cfi_remember_state
 288              		.cfi_def_cfa_offset 52
 289              		@ sp needed
 290 006e BDEC048B 		vldm	sp!, {d8-d9}
 291              		.cfi_restore 82
 292              		.cfi_restore 83
 293              		.cfi_restore 80
 294              		.cfi_restore 81
 295              		.cfi_def_cfa_offset 36
 296 0072 BDE8F08F 		pop	{r4, r5, r6, r7, r8, r9, r10, fp, pc}
 297              	.LVL21:
 298              	.L14:
 299              		.cfi_restore_state
 200:Src/gesture_detection.c **** 
 300              		.loc 1 200 5 is_stmt 1 view .LVU75
 203:Src/gesture_detection.c ****     if (detected_gesture != GESTURE_NONE) {
 301              		.loc 1 203 5 view .LVU76
 302              	.LBB18:
 303              	.LBI18:
 122:Src/gesture_detection.c **** {
 304              		.loc 1 122 22 view .LVU77
 305              	.LBB19:
 124:Src/gesture_detection.c **** 
 306              		.loc 1 124 5 view .LVU78
 126:Src/gesture_detection.c ****     KeypointHistory_t *right_shoulder = detector->history[KEYPOINT_RIGHT_SHOULDER];
 307              		.loc 1 126 5 view .LVU79
 126:Src/gesture_detection.c ****     KeypointHistory_t *right_shoulder = detector->history[KEYPOINT_RIGHT_SHOULDER];
 308              		.loc 1 126 24 is_stmt 0 view .LVU80
 309 0076 06F57060 		add	r0, r6, #3840
 310              	.LVL22:
 127:Src/gesture_detection.c ****     KeypointHistory_t *right_elbow = detector->history[KEYPOINT_RIGHT_ELBOW];
 311              		.loc 1 127 5 is_stmt 1 view .LVU81
 128:Src/gesture_detection.c ****     KeypointHistory_t *nose = detector->history[KEYPOINT_NOSE];
 312              		.loc 1 128 5 view .LVU82
 129:Src/gesture_detection.c **** 
 313              		.loc 1 129 5 view .LVU83
 131:Src/gesture_detection.c ****         right_shoulder[curr_idx].confidence < MIN_CONFIDENCE ||
ARM GAS  C:\Users\Antonio\AppData\Local\Temp\ccBvicZk.s 			page 11


 314              		.loc 1 131 5 view .LVU84
 131:Src/gesture_detection.c ****         right_shoulder[curr_idx].confidence < MIN_CONFIDENCE ||
 315              		.loc 1 131 20 is_stmt 0 view .LVU85
 316 007a 00EB090B 		add	fp, r0, r9
 131:Src/gesture_detection.c ****         right_shoulder[curr_idx].confidence < MIN_CONFIDENCE ||
 317              		.loc 1 131 8 view .LVU86
 318 007e DFED5D8A 		vldr.32	s17, .L39
 319 0082 DBED027A 		vldr.32	s15, [fp, #8]
 320 0086 F4EEE87A 		vcmpe.f32	s15, s17
 321 008a F1EE10FA 		vmrs	APSR_nzcv, FPSCR
 322 008e 43D4     		bmi	.L16
 127:Src/gesture_detection.c ****     KeypointHistory_t *right_elbow = detector->history[KEYPOINT_RIGHT_ELBOW];
 323              		.loc 1 127 24 view .LVU87
 324 0090 06F5A06A 		add	r10, r6, #1280
 132:Src/gesture_detection.c ****         right_elbow[curr_idx].confidence < MIN_CONFIDENCE) {
 325              		.loc 1 132 23 view .LVU88
 326 0094 CA44     		add	r10, r10, r9
 131:Src/gesture_detection.c ****         right_shoulder[curr_idx].confidence < MIN_CONFIDENCE ||
 327              		.loc 1 131 59 discriminator 1 view .LVU89
 328 0096 DAED027A 		vldr.32	s15, [r10, #8]
 329 009a F4EEE87A 		vcmpe.f32	s15, s17
 330 009e F1EE10FA 		vmrs	APSR_nzcv, FPSCR
 331 00a2 39D4     		bmi	.L16
 133:Src/gesture_detection.c ****         return GESTURE_NONE;
 332              		.loc 1 133 30 view .LVU90
 333 00a4 02F52062 		add	r2, r2, #2560
 132:Src/gesture_detection.c ****         right_elbow[curr_idx].confidence < MIN_CONFIDENCE) {
 334              		.loc 1 132 62 view .LVU91
 335 00a8 D2ED027A 		vldr.32	s15, [r2, #8]
 336 00ac F4EEE87A 		vcmpe.f32	s15, s17
 337 00b0 F1EE10FA 		vmrs	APSR_nzcv, FPSCR
 338 00b4 30D4     		bmi	.L16
 138:Src/gesture_detection.c ****         uint8_t start_idx = (curr_idx - 12 + GESTURE_HISTORY_SIZE) % GESTURE_HISTORY_SIZE;
 339              		.loc 1 138 5 is_stmt 1 view .LVU92
 138:Src/gesture_detection.c ****         uint8_t start_idx = (curr_idx - 12 + GESTURE_HISTORY_SIZE) % GESTURE_HISTORY_SIZE;
 340              		.loc 1 138 8 is_stmt 0 view .LVU93
 341 00b6 0B2C     		cmp	r4, #11
 342 00b8 2EDD     		ble	.L16
 343              	.LBB20:
 139:Src/gesture_detection.c **** 
 344              		.loc 1 139 9 is_stmt 1 view .LVU94
 345              	.LVL23:
 141:Src/gesture_detection.c ****         float32_t curr_y = right_wrist[curr_idx].y;
 346              		.loc 1 141 9 view .LVU95
 139:Src/gesture_detection.c **** 
 347              		.loc 1 139 68 is_stmt 0 view .LVU96
 348 00ba 2823     		movs	r3, #40
 139:Src/gesture_detection.c **** 
 349              		.loc 1 139 44 view .LVU97
 350 00bc 04F11C02 		add	r2, r4, #28
 139:Src/gesture_detection.c **** 
 351              		.loc 1 139 68 view .LVU98
 352 00c0 B2FBF3F1 		udiv	r1, r2, r3
 353 00c4 03FB1122 		mls	r2, r3, r1, r2
 141:Src/gesture_detection.c ****         float32_t curr_y = right_wrist[curr_idx].y;
 354              		.loc 1 141 40 view .LVU99
 355 00c8 00EB0213 		add	r3, r0, r2, lsl #4
ARM GAS  C:\Users\Antonio\AppData\Local\Temp\ccBvicZk.s 			page 12


 144:Src/gesture_detection.c **** 
 356              		.loc 1 144 19 view .LVU100
 357 00cc 06EB0212 		add	r2, r6, r2, lsl #4
 141:Src/gesture_detection.c ****         float32_t curr_y = right_wrist[curr_idx].y;
 358              		.loc 1 141 19 view .LVU101
 359 00d0 D3ED017A 		vldr.32	s15, [r3, #4]
 360              	.LVL24:
 142:Src/gesture_detection.c ****         float32_t vertical_movement = curr_y - start_y;
 361              		.loc 1 142 9 is_stmt 1 view .LVU102
 147:Src/gesture_detection.c ****             float32_t speed = Gesture_CalculateSpeed(right_wrist, curr_idx, 5);
 362              		.loc 1 147 12 is_stmt 0 view .LVU103
 363 00d4 92ED017A 		vldr.32	s14, [r2, #4]
 364 00d8 F4EEC77A 		vcmpe.f32	s15, s14
 365 00dc F1EE10FA 		vmrs	APSR_nzcv, FPSCR
 142:Src/gesture_detection.c ****         float32_t vertical_movement = curr_y - start_y;
 366              		.loc 1 142 19 view .LVU104
 367 00e0 9BED019A 		vldr.32	s18, [fp, #4]
 368              	.LVL25:
 143:Src/gesture_detection.c ****         float32_t start_nose = nose[start_idx].y;
 369              		.loc 1 143 9 is_stmt 1 view .LVU105
 144:Src/gesture_detection.c **** 
 370              		.loc 1 144 9 view .LVU106
 147:Src/gesture_detection.c ****             float32_t speed = Gesture_CalculateSpeed(right_wrist, curr_idx, 5);
 371              		.loc 1 147 9 view .LVU107
 147:Src/gesture_detection.c ****             float32_t speed = Gesture_CalculateSpeed(right_wrist, curr_idx, 5);
 372              		.loc 1 147 12 is_stmt 0 view .LVU108
 373 00e4 4DD4     		bmi	.L17
 374              	.LVL26:
 375              	.L19:
 147:Src/gesture_detection.c ****             float32_t speed = Gesture_CalculateSpeed(right_wrist, curr_idx, 5);
 376              		.loc 1 147 12 view .LVU109
 377              	.LBE20:
 378              	.LBB22:
 159:Src/gesture_detection.c ****         float32_t arm_extension = Gesture_CalculateDistance(
 379              		.loc 1 159 68 view .LVU110
 380 00e6 9BED000A 		vldr.32	s0, [fp]
 159:Src/gesture_detection.c ****         float32_t arm_extension = Gesture_CalculateDistance(
 381              		.loc 1 159 71 view .LVU111
 382 00ea 93ED008A 		vldr.32	s16, [r3]
 383 00ee 30EE488A 		vsub.f32	s16, s0, s16
 160:Src/gesture_detection.c ****             right_wrist[curr_idx].x, right_wrist[curr_idx].y,
 384              		.loc 1 160 35 view .LVU112
 385 00f2 DAED011A 		vldr.32	s3, [r10, #4]
 386 00f6 9AED001A 		vldr.32	s2, [r10]
 387 00fa F0EE490A 		vmov.f32	s1, s18
 388 00fe 0090     		str	r0, [sp]
 389              	.LBE22:
 156:Src/gesture_detection.c ****         uint8_t start_idx = (curr_idx - 12 + GESTURE_HISTORY_SIZE) % GESTURE_HISTORY_SIZE;
 390              		.loc 1 156 5 is_stmt 1 view .LVU113
 391              	.LBB24:
 157:Src/gesture_detection.c **** 
 392              		.loc 1 157 9 view .LVU114
 393              	.LVL27:
 159:Src/gesture_detection.c ****         float32_t arm_extension = Gesture_CalculateDistance(
 394              		.loc 1 159 9 view .LVU115
 159:Src/gesture_detection.c ****         float32_t arm_extension = Gesture_CalculateDistance(
 395              		.loc 1 159 19 is_stmt 0 view .LVU116
ARM GAS  C:\Users\Antonio\AppData\Local\Temp\ccBvicZk.s 			page 13


 396 0100 B0EEC88A 		vabs.f32	s16, s16
 397              	.LVL28:
 160:Src/gesture_detection.c ****             right_wrist[curr_idx].x, right_wrist[curr_idx].y,
 398              		.loc 1 160 9 is_stmt 1 view .LVU117
 160:Src/gesture_detection.c ****             right_wrist[curr_idx].x, right_wrist[curr_idx].y,
 399              		.loc 1 160 35 is_stmt 0 view .LVU118
 400 0104 FFF7FEFF 		bl	Gesture_CalculateDistance
 401              	.LVL29:
 165:Src/gesture_detection.c ****             float32_t speed = Gesture_CalculateSpeed(right_wrist, curr_idx, 3);
 402              		.loc 1 165 9 is_stmt 1 view .LVU119
 165:Src/gesture_detection.c ****             float32_t speed = Gesture_CalculateSpeed(right_wrist, curr_idx, 3);
 403              		.loc 1 165 12 is_stmt 0 view .LVU120
 404 0108 DFED3B7A 		vldr.32	s15, .L39+4
 405 010c B4EEE78A 		vcmpe.f32	s16, s15
 406 0110 F1EE10FA 		vmrs	APSR_nzcv, FPSCR
 407 0114 0098     		ldr	r0, [sp]
 408 0116 4EDC     		bgt	.L18
 409              	.LVL30:
 410              	.L16:
 165:Src/gesture_detection.c ****             float32_t speed = Gesture_CalculateSpeed(right_wrist, curr_idx, 3);
 411              		.loc 1 165 12 view .LVU121
 412              	.LBE24:
 413              	.LBE19:
 414              	.LBE18:
 213:Src/gesture_detection.c ****     if (detected_gesture != GESTURE_NONE) {
 415              		.loc 1 213 5 is_stmt 1 view .LVU122
 416              	.LBB29:
 417              	.LBI29:
  48:Src/gesture_detection.c **** {
 418              		.loc 1 48 22 view .LVU123
 419              	.LBB30:
  50:Src/gesture_detection.c ****     uint8_t prev_idx = (curr_idx - 4 + GESTURE_HISTORY_SIZE) % GESTURE_HISTORY_SIZE;
 420              		.loc 1 50 5 view .LVU124
  51:Src/gesture_detection.c **** 
 421              		.loc 1 51 5 view .LVU125
  93:Src/gesture_detection.c ****     KeypointHistory_t *left_shoulder = detector->history[KEYPOINT_LEFT_SHOULDER];
 422              		.loc 1 93 5 view .LVU126
  93:Src/gesture_detection.c ****     KeypointHistory_t *left_shoulder = detector->history[KEYPOINT_LEFT_SHOULDER];
 423              		.loc 1 93 24 is_stmt 0 view .LVU127
 424 0118 06F54860 		add	r0, r6, #3200
 425              	.LVL31:
  94:Src/gesture_detection.c **** 
 426              		.loc 1 94 5 is_stmt 1 view .LVU128
  96:Src/gesture_detection.c ****     	//	&&  left_shoulder[curr_idx].confidence > MIN_CONFIDENCE
 427              		.loc 1 96 5 view .LVU129
  96:Src/gesture_detection.c ****     	//	&&  left_shoulder[curr_idx].confidence > MIN_CONFIDENCE
 428              		.loc 1 96 19 is_stmt 0 view .LVU130
 429 011c 8144     		add	r9, r9, r0
  96:Src/gesture_detection.c ****     	//	&&  left_shoulder[curr_idx].confidence > MIN_CONFIDENCE
 430              		.loc 1 96 8 view .LVU131
 431 011e D9ED027A 		vldr.32	s15, [r9, #8]
 432 0122 F4EEE87A 		vcmpe.f32	s15, s17
 433 0126 F1EE10FA 		vmrs	APSR_nzcv, FPSCR
 434 012a 9EDD     		ble	.L24
 435              	.LBB31:
 100:Src/gesture_detection.c ****         float32_t wrist_speed = Gesture_CalculateSpeed(left_wrist, curr_idx, 3);
 436              		.loc 1 100 9 is_stmt 1 view .LVU132
ARM GAS  C:\Users\Antonio\AppData\Local\Temp\ccBvicZk.s 			page 14


 437              	.LBE31:
  51:Src/gesture_detection.c **** 
 438              		.loc 1 51 62 is_stmt 0 view .LVU133
 439 012c 2823     		movs	r3, #40
  51:Src/gesture_detection.c **** 
 440              		.loc 1 51 38 view .LVU134
 441 012e 2434     		adds	r4, r4, #36
 442              	.LVL32:
  51:Src/gesture_detection.c **** 
 443              		.loc 1 51 62 view .LVU135
 444 0130 B4FBF3F2 		udiv	r2, r4, r3
 445 0134 03FB1244 		mls	r4, r3, r2, r4
 446              	.LVL33:
 447              	.LBB32:
 100:Src/gesture_detection.c ****         float32_t wrist_speed = Gesture_CalculateSpeed(left_wrist, curr_idx, 3);
 448              		.loc 1 100 75 view .LVU136
 449 0138 00EB0414 		add	r4, r0, r4, lsl #4
 100:Src/gesture_detection.c ****         float32_t wrist_speed = Gesture_CalculateSpeed(left_wrist, curr_idx, 3);
 450              		.loc 1 100 19 view .LVU137
 451 013c D4ED007A 		vldr.32	s15, [r4]
 452 0140 99ED008A 		vldr.32	s16, [r9]
 453 0144 38EE678A 		vsub.f32	s16, s16, s15
 454              	.LVL34:
 101:Src/gesture_detection.c ****        // UTIL_LCDEx_PrintfAt(0, LINE(15), CENTER_MODE, "idx:%d/%d,w_dx: %.3f, w_sp: %.3f", prev_id
 455              		.loc 1 101 9 is_stmt 1 view .LVU138
 101:Src/gesture_detection.c ****        // UTIL_LCDEx_PrintfAt(0, LINE(15), CENTER_MODE, "idx:%d/%d,w_dx: %.3f, w_sp: %.3f", prev_id
 456              		.loc 1 101 33 is_stmt 0 view .LVU139
 457 0148 0322     		movs	r2, #3
 458 014a 3946     		mov	r1, r7
 459 014c FFF7FEFF 		bl	Gesture_CalculateSpeed
 460              	.LVL35:
 103:Src/gesture_detection.c ****         //    float32_t arm_extension = Gesture_CalculateDistance(
 461              		.loc 1 103 9 is_stmt 1 view .LVU140
 103:Src/gesture_detection.c ****         //    float32_t arm_extension = Gesture_CalculateDistance(
 462              		.loc 1 103 13 is_stmt 0 view .LVU141
 463 0150 B0EEC87A 		vabs.f32	s14, s16
 103:Src/gesture_detection.c ****         //    float32_t arm_extension = Gesture_CalculateDistance(
 464              		.loc 1 103 12 view .LVU142
 465 0154 DFED297A 		vldr.32	s15, .L39+8
 466 0158 B4EEE77A 		vcmpe.f32	s14, s15
 467 015c F1EE10FA 		vmrs	APSR_nzcv, FPSCR
 468 0160 83DD     		ble	.L24
 103:Src/gesture_detection.c ****         //    float32_t arm_extension = Gesture_CalculateDistance(
 469              		.loc 1 103 37 discriminator 1 view .LVU143
 470 0162 F6EE007A 		vmov.f32	s15, #5.0e-1
 471 0166 B4EEE70A 		vcmpe.f32	s0, s15
 472 016a F1EE10FA 		vmrs	APSR_nzcv, FPSCR
 473 016e 7FF77CAF 		ble	.L24
 110:Src/gesture_detection.c ****                     return GESTURE_LEFT_ARM_SWIPE_RIGHT;
 474              		.loc 1 110 17 is_stmt 1 view .LVU144
 113:Src/gesture_detection.c ****                 }
 475              		.loc 1 113 28 is_stmt 0 view .LVU145
 476 0172 B5EEC08A 		vcmpe.f32	s16, #0
 477 0176 F1EE10FA 		vmrs	APSR_nzcv, FPSCR
 478 017a CCBF     		ite	gt
 479 017c 0420     		movgt	r0, #4
 480 017e 0320     		movle	r0, #3
ARM GAS  C:\Users\Antonio\AppData\Local\Temp\ccBvicZk.s 			page 15


 481 0180 2CE0     		b	.L38
 482              	.LVL36:
 483              	.L17:
 113:Src/gesture_detection.c ****                 }
 484              		.loc 1 113 28 view .LVU146
 485              	.LBE32:
 486              	.LBE30:
 487              	.LBE29:
 488              	.LBB33:
 489              	.LBB27:
 490              	.LBB25:
 143:Src/gesture_detection.c ****         float32_t start_nose = nose[start_idx].y;
 491              		.loc 1 143 19 view .LVU147
 492 0182 79EE677A 		vsub.f32	s15, s18, s15
 493              	.LVL37:
 147:Src/gesture_detection.c ****             float32_t speed = Gesture_CalculateSpeed(right_wrist, curr_idx, 5);
 494              		.loc 1 147 34 discriminator 1 view .LVU148
 495 0186 B5EE007A 		vmov.f32	s14, #2.5e-1
 496 018a F4EEC77A 		vcmpe.f32	s15, s14
 497 018e F1EE10FA 		vmrs	APSR_nzcv, FPSCR
 498 0192 A8DD     		ble	.L19
 499              	.LBB21:
 148:Src/gesture_detection.c ****             if (speed > SWIPE_MIN_SPEED * 1.5f) {
 500              		.loc 1 148 31 view .LVU149
 501 0194 0522     		movs	r2, #5
 502 0196 3946     		mov	r1, r7
 503 0198 0193     		str	r3, [sp, #4]
 148:Src/gesture_detection.c ****             if (speed > SWIPE_MIN_SPEED * 1.5f) {
 504              		.loc 1 148 13 is_stmt 1 view .LVU150
 148:Src/gesture_detection.c ****             if (speed > SWIPE_MIN_SPEED * 1.5f) {
 505              		.loc 1 148 31 is_stmt 0 view .LVU151
 506 019a 0090     		str	r0, [sp]
 507 019c FFF7FEFF 		bl	Gesture_CalculateSpeed
 508              	.LVL38:
 149:Src/gesture_detection.c ****                 return GESTURE_SWORD_OVERHEAD_STRIKE;
 509              		.loc 1 149 13 is_stmt 1 view .LVU152
 149:Src/gesture_detection.c ****                 return GESTURE_SWORD_OVERHEAD_STRIKE;
 510              		.loc 1 149 16 is_stmt 0 view .LVU153
 511 01a0 DDE90003 		ldrd	r0, r3, [sp]
 512 01a4 F6EE087A 		vmov.f32	s15, #7.5e-1
 513 01a8 B4EEE70A 		vcmpe.f32	s0, s15
 514 01ac F1EE10FA 		vmrs	APSR_nzcv, FPSCR
 515 01b0 99DD     		ble	.L19
 150:Src/gesture_detection.c ****             }
 516              		.loc 1 150 24 view .LVU154
 517 01b2 0620     		movs	r0, #6
 518              	.LVL39:
 150:Src/gesture_detection.c ****             }
 519              		.loc 1 150 24 view .LVU155
 520              	.LBE21:
 521              	.LBE25:
 522              	.LBE27:
 523              	.LBE33:
 205:Src/gesture_detection.c ****         detector->last_gesture_time = current_time;
 524              		.loc 1 205 9 is_stmt 1 view .LVU156
 525 01b4 12E0     		b	.L38
 526              	.LVL40:
ARM GAS  C:\Users\Antonio\AppData\Local\Temp\ccBvicZk.s 			page 16


 527              	.L18:
 528              	.LBB34:
 529              	.LBB28:
 530              	.LBB26:
 165:Src/gesture_detection.c ****             float32_t speed = Gesture_CalculateSpeed(right_wrist, curr_idx, 3);
 531              		.loc 1 165 40 is_stmt 0 discriminator 1 view .LVU157
 532 01b6 F5EE007A 		vmov.f32	s15, #2.5e-1
 533 01ba B4EEE70A 		vcmpe.f32	s0, s15
 534 01be F1EE10FA 		vmrs	APSR_nzcv, FPSCR
 535 01c2 A9DD     		ble	.L16
 536              	.LBB23:
 166:Src/gesture_detection.c ****             if (speed > SWIPE_MIN_SPEED) {
 537              		.loc 1 166 13 is_stmt 1 view .LVU158
 166:Src/gesture_detection.c ****             if (speed > SWIPE_MIN_SPEED) {
 538              		.loc 1 166 31 is_stmt 0 view .LVU159
 539 01c4 0322     		movs	r2, #3
 540 01c6 3946     		mov	r1, r7
 541 01c8 FFF7FEFF 		bl	Gesture_CalculateSpeed
 542              	.LVL41:
 167:Src/gesture_detection.c ****                 return GESTURE_SWORD_SIDE_SLASH;
 543              		.loc 1 167 13 is_stmt 1 view .LVU160
 167:Src/gesture_detection.c ****                 return GESTURE_SWORD_SIDE_SLASH;
 544              		.loc 1 167 16 is_stmt 0 view .LVU161
 545 01cc F6EE007A 		vmov.f32	s15, #5.0e-1
 546 01d0 B4EEE70A 		vcmpe.f32	s0, s15
 547 01d4 F1EE10FA 		vmrs	APSR_nzcv, FPSCR
 548 01d8 9EDD     		ble	.L16
 168:Src/gesture_detection.c ****             }
 549              		.loc 1 168 24 view .LVU162
 550 01da 0720     		movs	r0, #7
 551              	.LVL42:
 552              	.L38:
 168:Src/gesture_detection.c ****             }
 553              		.loc 1 168 24 view .LVU163
 554              	.LBE23:
 555              	.LBE26:
 556              	.LBE28:
 557              	.LBE34:
 215:Src/gesture_detection.c ****         detector->last_gesture_time = current_time;
 558              		.loc 1 215 9 is_stmt 1 view .LVU164
 216:Src/gesture_detection.c ****         detector->current_display_gesture = detected_gesture;
 559              		.loc 1 216 37 is_stmt 0 view .LVU165
 560 01dc C8F88450 		str	r5, [r8, #132]
 218:Src/gesture_detection.c ****         return detected_gesture;
 561              		.loc 1 218 58 view .LVU166
 562 01e0 05F2DC55 		addw	r5, r5, #1500
 563              	.LVL43:
 215:Src/gesture_detection.c ****         detector->last_gesture_time = current_time;
 564              		.loc 1 215 41 view .LVU167
 565 01e4 88F88100 		strb	r0, [r8, #129]
 216:Src/gesture_detection.c ****         detector->current_display_gesture = detected_gesture;
 566              		.loc 1 216 9 is_stmt 1 view .LVU168
 217:Src/gesture_detection.c ****         detector->gesture_display_timeout = current_time + GESTURE_DISPLAY_TIME;
 567              		.loc 1 217 9 view .LVU169
 217:Src/gesture_detection.c ****         detector->gesture_display_timeout = current_time + GESTURE_DISPLAY_TIME;
 568              		.loc 1 217 43 is_stmt 0 view .LVU170
 569 01e8 88F88800 		strb	r0, [r8, #136]
ARM GAS  C:\Users\Antonio\AppData\Local\Temp\ccBvicZk.s 			page 17


 218:Src/gesture_detection.c ****         return detected_gesture;
 570              		.loc 1 218 9 is_stmt 1 view .LVU171
 218:Src/gesture_detection.c ****         return detected_gesture;
 571              		.loc 1 218 43 is_stmt 0 view .LVU172
 572 01ec C8F88C50 		str	r5, [r8, #140]
 219:Src/gesture_detection.c ****     }
 573              		.loc 1 219 9 is_stmt 1 view .LVU173
 219:Src/gesture_detection.c ****     }
 574              		.loc 1 219 16 is_stmt 0 view .LVU174
 575 01f0 3CE7     		b	.L15
 576              	.L40:
 577 01f2 00BF     		.align	2
 578              	.L39:
 579 01f4 6666E63E 		.word	1055286886
 580 01f8 CDCC4C3E 		.word	1045220557
 581 01fc CDCC4C3D 		.word	1028443341
 582              		.cfi_endproc
 583              	.LFE3344:
 585              		.section	.rodata.Gesture_GetName.str1.1,"aMS",%progbits,1
 586              	.LC0:
 587 0000 4E6F2047 		.ascii	"No Gesture\000"
 587      65737475 
 587      726500
 588              		.section	.text.Gesture_GetName,"ax",%progbits
 589              		.align	1
 590              		.global	Gesture_GetName
 591              		.syntax unified
 592              		.thumb
 593              		.thumb_func
 595              	Gesture_GetName:
 596              	.LVL44:
 597              	.LFB3345:
 226:Src/gesture_detection.c **** 
 227:Src/gesture_detection.c **** const char* Gesture_GetName(GestureType_t gesture)
 228:Src/gesture_detection.c **** {
 598              		.loc 1 228 1 is_stmt 1 view -0
 599              		.cfi_startproc
 600              		@ args = 0, pretend = 0, frame = 0
 601              		@ frame_needed = 0, uses_anonymous_args = 0
 602              		@ link register save eliminated.
 229:Src/gesture_detection.c ****     switch (gesture) {
 603              		.loc 1 229 5 view .LVU176
 604 0000 0138     		subs	r0, r0, #1
 605              	.LVL45:
 606              		.loc 1 229 5 is_stmt 0 view .LVU177
 607 0002 C0B2     		uxtb	r0, r0
 608              	.LVL46:
 609              		.loc 1 229 5 view .LVU178
 610 0004 0628     		cmp	r0, #6
 611 0006 9ABF     		itte	ls
 612 0008 024B     		ldrls	r3, .L44
 613 000a 53F82000 		ldrls	r0, [r3, r0, lsl #2]
 228:Src/gesture_detection.c ****     switch (gesture) {
 614              		.loc 1 228 1 view .LVU179
 615 000e 0248     		ldrhi	r0, .L44+4
 230:Src/gesture_detection.c ****         case GESTURE_RIGHT_ARM_SWIPE_LEFT:   return "Right Arm Swipe Left";
 231:Src/gesture_detection.c ****         case GESTURE_RIGHT_ARM_SWIPE_RIGHT:  return "Right Arm Swipe Right";
ARM GAS  C:\Users\Antonio\AppData\Local\Temp\ccBvicZk.s 			page 18


 232:Src/gesture_detection.c ****         case GESTURE_LEFT_ARM_SWIPE_LEFT:    return "Left Arm Swipe Left";
 233:Src/gesture_detection.c ****         case GESTURE_LEFT_ARM_SWIPE_RIGHT:   return "Left Arm Swipe Right";
 234:Src/gesture_detection.c ****         case GESTURE_BOTH_ARMS_RAISED:       return "Both Arms Raised";
 235:Src/gesture_detection.c ****         case GESTURE_SWORD_OVERHEAD_STRIKE:  return "Sword Overhead Strike";
 236:Src/gesture_detection.c ****         case GESTURE_SWORD_SIDE_SLASH:       return "Sword Side Slash";
 237:Src/gesture_detection.c ****         default:                             return "No Gesture";
 238:Src/gesture_detection.c ****     }
 239:Src/gesture_detection.c **** }
 616              		.loc 1 239 1 view .LVU180
 617 0010 7047     		bx	lr
 618              	.L45:
 619 0012 00BF     		.align	2
 620              	.L44:
 621 0014 00000000 		.word	CSWTCH.10
 622 0018 00000000 		.word	.LC0
 623              		.cfi_endproc
 624              	.LFE3345:
 626              		.section	.text.Gesture_GetCurrentDisplayGesture,"ax",%progbits
 627              		.align	1
 628              		.global	Gesture_GetCurrentDisplayGesture
 629              		.syntax unified
 630              		.thumb
 631              		.thumb_func
 633              	Gesture_GetCurrentDisplayGesture:
 634              	.LVL47:
 635              	.LFB3346:
 240:Src/gesture_detection.c **** 
 241:Src/gesture_detection.c **** GestureType_t Gesture_GetCurrentDisplayGesture(GestureDetector_t *detector)
 242:Src/gesture_detection.c **** {
 636              		.loc 1 242 1 is_stmt 1 view -0
 637              		.cfi_startproc
 638              		@ args = 0, pretend = 0, frame = 0
 639              		@ frame_needed = 0, uses_anonymous_args = 0
 243:Src/gesture_detection.c ****     uint32_t current_time = HAL_GetTick();
 640              		.loc 1 243 5 view .LVU182
 242:Src/gesture_detection.c ****     uint32_t current_time = HAL_GetTick();
 641              		.loc 1 242 1 is_stmt 0 view .LVU183
 642 0000 10B5     		push	{r4, lr}
 643              		.cfi_def_cfa_offset 8
 644              		.cfi_offset 4, -8
 645              		.cfi_offset 14, -4
 242:Src/gesture_detection.c ****     uint32_t current_time = HAL_GetTick();
 646              		.loc 1 242 1 view .LVU184
 647 0002 0446     		mov	r4, r0
 648              		.loc 1 243 29 view .LVU185
 649 0004 FFF7FEFF 		bl	HAL_GetTick
 650              	.LVL48:
 244:Src/gesture_detection.c **** 
 245:Src/gesture_detection.c ****     // Check if display timeout has expired
 246:Src/gesture_detection.c ****     if (current_time > detector->gesture_display_timeout) {
 651              		.loc 1 246 5 is_stmt 1 view .LVU186
 652              		.loc 1 246 32 is_stmt 0 view .LVU187
 653 0008 04F50053 		add	r3, r4, #8192
 654              		.loc 1 246 8 view .LVU188
 655 000c D3F88C20 		ldr	r2, [r3, #140]
 656 0010 8242     		cmp	r2, r0
 247:Src/gesture_detection.c ****         detector->current_display_gesture = GESTURE_NONE;
ARM GAS  C:\Users\Antonio\AppData\Local\Temp\ccBvicZk.s 			page 19


 657              		.loc 1 247 9 is_stmt 1 view .LVU189
 658              		.loc 1 247 43 is_stmt 0 view .LVU190
 659 0012 3CBF     		itt	cc
 660 0014 0022     		movcc	r2, #0
 661 0016 83F88820 		strbcc	r2, [r3, #136]
 248:Src/gesture_detection.c ****     }
 249:Src/gesture_detection.c **** 
 250:Src/gesture_detection.c ****     return detector->current_display_gesture;
 662              		.loc 1 250 5 is_stmt 1 view .LVU191
 251:Src/gesture_detection.c **** }
 663              		.loc 1 251 1 is_stmt 0 view .LVU192
 664 001a 93F88800 		ldrb	r0, [r3, #136]	@ zero_extendqisi2
 665              	.LVL49:
 666              		.loc 1 251 1 view .LVU193
 667 001e 10BD     		pop	{r4, pc}
 668              		.loc 1 251 1 view .LVU194
 669              		.cfi_endproc
 670              	.LFE3346:
 672              		.section	.text.Gesture_GetKeypointDebugInfo,"ax",%progbits
 673              		.align	1
 674              		.global	Gesture_GetKeypointDebugInfo
 675              		.syntax unified
 676              		.thumb
 677              		.thumb_func
 679              	Gesture_GetKeypointDebugInfo:
 680              	.LVL50:
 681              	.LFB3347:
 252:Src/gesture_detection.c **** 
 253:Src/gesture_detection.c **** void Gesture_GetKeypointDebugInfo(GestureDetector_t *detector, uint8_t keypoint_idx,
 254:Src/gesture_detection.c ****                                   float32_t *current_x, float32_t *current_y,
 255:Src/gesture_detection.c ****                                   float32_t *current_confidence, float32_t *current_speed)
 256:Src/gesture_detection.c **** {
 682              		.loc 1 256 1 is_stmt 1 view -0
 683              		.cfi_startproc
 684              		@ args = 8, pretend = 0, frame = 0
 685              		@ frame_needed = 0, uses_anonymous_args = 0
 257:Src/gesture_detection.c ****     if (keypoint_idx >= AI_POSE_PP_POSE_KEYPOINTS_NB) {
 686              		.loc 1 257 5 view .LVU196
 256:Src/gesture_detection.c ****     if (keypoint_idx >= AI_POSE_PP_POSE_KEYPOINTS_NB) {
 687              		.loc 1 256 1 is_stmt 0 view .LVU197
 688 0000 F8B5     		push	{r3, r4, r5, r6, r7, lr}
 689              		.cfi_def_cfa_offset 24
 690              		.cfi_offset 3, -24
 691              		.cfi_offset 4, -20
 692              		.cfi_offset 5, -16
 693              		.cfi_offset 6, -12
 694              		.cfi_offset 7, -8
 695              		.cfi_offset 14, -4
 696              		.loc 1 257 8 view .LVU198
 697 0002 0C29     		cmp	r1, #12
 256:Src/gesture_detection.c ****     if (keypoint_idx >= AI_POSE_PP_POSE_KEYPOINTS_NB) {
 698              		.loc 1 256 1 view .LVU199
 699 0004 0E46     		mov	r6, r1
 700 0006 069F     		ldr	r7, [sp, #24]
 701              		.loc 1 257 8 view .LVU200
 702 0008 06D9     		bls	.L49
 258:Src/gesture_detection.c ****         *current_x = 0.0f;
ARM GAS  C:\Users\Antonio\AppData\Local\Temp\ccBvicZk.s 			page 20


 703              		.loc 1 258 9 is_stmt 1 view .LVU201
 704              		.loc 1 258 20 is_stmt 0 view .LVU202
 705 000a 0021     		movs	r1, #0
 706              	.LVL51:
 707              		.loc 1 258 20 view .LVU203
 708 000c 1160     		str	r1, [r2]	@ float
 259:Src/gesture_detection.c ****         *current_y = 0.0f;
 709              		.loc 1 259 9 is_stmt 1 view .LVU204
 710              		.loc 1 259 20 is_stmt 0 view .LVU205
 711 000e 1960     		str	r1, [r3]	@ float
 260:Src/gesture_detection.c ****         *current_confidence = 0.0f;
 712              		.loc 1 260 9 is_stmt 1 view .LVU206
 713              		.loc 1 260 29 is_stmt 0 view .LVU207
 714 0010 3960     		str	r1, [r7]	@ float
 261:Src/gesture_detection.c ****         *current_speed = 0.0f;
 715              		.loc 1 261 9 is_stmt 1 view .LVU208
 262:Src/gesture_detection.c ****         return;
 716              		.loc 1 262 9 view .LVU209
 717              	.LVL52:
 718              	.L50:
 261:Src/gesture_detection.c ****         *current_speed = 0.0f;
 719              		.loc 1 261 24 is_stmt 0 view .LVU210
 720 0012 079B     		ldr	r3, [sp, #28]
 721 0014 1960     		str	r1, [r3]	@ float
 263:Src/gesture_detection.c ****     }
 264:Src/gesture_detection.c **** 
 265:Src/gesture_detection.c ****     // Get current index (last updated position)
 266:Src/gesture_detection.c ****     uint8_t curr_idx = (detector->history_index + GESTURE_HISTORY_SIZE) % GESTURE_HISTORY_SIZE;
 267:Src/gesture_detection.c **** 
 268:Src/gesture_detection.c ****     // Get current keypoint data
 269:Src/gesture_detection.c ****     *current_x = detector->history[keypoint_idx][curr_idx].x;
 270:Src/gesture_detection.c ****     *current_y = detector->history[keypoint_idx][curr_idx].y;
 271:Src/gesture_detection.c ****     *current_confidence = detector->history[keypoint_idx][curr_idx].confidence;
 272:Src/gesture_detection.c **** 
 273:Src/gesture_detection.c ****     // Calculate speed over last 3 frames
 274:Src/gesture_detection.c ****     *current_speed = Gesture_CalculateSpeed(detector->history[keypoint_idx], curr_idx, 3);
 275:Src/gesture_detection.c **** }
 722              		.loc 1 275 1 view .LVU211
 723 0016 F8BD     		pop	{r3, r4, r5, r6, r7, pc}
 724              	.LVL53:
 725              	.L49:
 266:Src/gesture_detection.c **** 
 726              		.loc 1 266 5 is_stmt 1 view .LVU212
 266:Src/gesture_detection.c **** 
 727              		.loc 1 266 73 is_stmt 0 view .LVU213
 728 0018 2824     		movs	r4, #40
 266:Src/gesture_detection.c **** 
 729              		.loc 1 266 33 view .LVU214
 730 001a 00F50051 		add	r1, r0, #8192
 731              	.LVL54:
 266:Src/gesture_detection.c **** 
 732              		.loc 1 266 33 view .LVU215
 733 001e 91F88050 		ldrb	r5, [r1, #128]	@ zero_extendqisi2
 266:Src/gesture_detection.c **** 
 734              		.loc 1 266 49 view .LVU216
 735 0022 2835     		adds	r5, r5, #40
 266:Src/gesture_detection.c **** 
ARM GAS  C:\Users\Antonio\AppData\Local\Temp\ccBvicZk.s 			page 21


 736              		.loc 1 266 73 view .LVU217
 737 0024 B5FBF4F1 		udiv	r1, r5, r4
 738 0028 04FB1151 		mls	r1, r4, r1, r5
 739              	.LVL55:
 269:Src/gesture_detection.c ****     *current_y = detector->history[keypoint_idx][curr_idx].y;
 740              		.loc 1 269 5 is_stmt 1 view .LVU218
 269:Src/gesture_detection.c ****     *current_y = detector->history[keypoint_idx][curr_idx].y;
 741              		.loc 1 269 59 is_stmt 0 view .LVU219
 742 002c 04FB0614 		mla	r4, r4, r6, r1
 743 0030 00EB0414 		add	r4, r0, r4, lsl #4
 744 0034 2568     		ldr	r5, [r4]	@ float
 274:Src/gesture_detection.c **** }
 745              		.loc 1 274 22 view .LVU220
 746 0036 C9B2     		uxtb	r1, r1
 269:Src/gesture_detection.c ****     *current_y = detector->history[keypoint_idx][curr_idx].y;
 747              		.loc 1 269 16 view .LVU221
 748 0038 1560     		str	r5, [r2]	@ float
 270:Src/gesture_detection.c ****     *current_confidence = detector->history[keypoint_idx][curr_idx].confidence;
 749              		.loc 1 270 5 is_stmt 1 view .LVU222
 270:Src/gesture_detection.c ****     *current_confidence = detector->history[keypoint_idx][curr_idx].confidence;
 750              		.loc 1 270 59 is_stmt 0 view .LVU223
 751 003a 6268     		ldr	r2, [r4, #4]	@ float
 752              	.LVL56:
 270:Src/gesture_detection.c ****     *current_confidence = detector->history[keypoint_idx][curr_idx].confidence;
 753              		.loc 1 270 16 view .LVU224
 754 003c 1A60     		str	r2, [r3]	@ float
 271:Src/gesture_detection.c **** 
 755              		.loc 1 271 5 is_stmt 1 view .LVU225
 271:Src/gesture_detection.c **** 
 756              		.loc 1 271 68 is_stmt 0 view .LVU226
 757 003e A368     		ldr	r3, [r4, #8]	@ float
 758              	.LVL57:
 274:Src/gesture_detection.c **** }
 759              		.loc 1 274 22 view .LVU227
 760 0040 0322     		movs	r2, #3
 271:Src/gesture_detection.c **** 
 761              		.loc 1 271 25 view .LVU228
 762 0042 3B60     		str	r3, [r7]	@ float
 274:Src/gesture_detection.c **** }
 763              		.loc 1 274 5 is_stmt 1 view .LVU229
 274:Src/gesture_detection.c **** }
 764              		.loc 1 274 22 is_stmt 0 view .LVU230
 765 0044 4FF42073 		mov	r3, #640
 766 0048 03FB0600 		mla	r0, r3, r6, r0
 767              	.LVL58:
 274:Src/gesture_detection.c **** }
 768              		.loc 1 274 22 view .LVU231
 769 004c FFF7FEFF 		bl	Gesture_CalculateSpeed
 770              	.LVL59:
 274:Src/gesture_detection.c **** }
 771              		.loc 1 274 22 view .LVU232
 772 0050 10EE101A 		vmov	r1, s0
 773 0054 DDE7     		b	.L50
 774              		.cfi_endproc
 775              	.LFE3347:
 777              		.section	.text.Gesture_GetPastKeypointDebugInfo,"ax",%progbits
 778              		.align	1
ARM GAS  C:\Users\Antonio\AppData\Local\Temp\ccBvicZk.s 			page 22


 779              		.global	Gesture_GetPastKeypointDebugInfo
 780              		.syntax unified
 781              		.thumb
 782              		.thumb_func
 784              	Gesture_GetPastKeypointDebugInfo:
 785              	.LVL60:
 786              	.LFB3348:
 276:Src/gesture_detection.c **** 
 277:Src/gesture_detection.c **** 
 278:Src/gesture_detection.c **** void Gesture_GetPastKeypointDebugInfo(GestureDetector_t *detector, uint8_t keypoint_idx,
 279:Src/gesture_detection.c ****                                   float32_t *current_x, float32_t *current_y,
 280:Src/gesture_detection.c ****                                   float32_t *current_confidence, float32_t *current_speed, uint8_t 
 281:Src/gesture_detection.c **** {
 787              		.loc 1 281 1 is_stmt 1 view -0
 788              		.cfi_startproc
 789              		@ args = 12, pretend = 0, frame = 0
 790              		@ frame_needed = 0, uses_anonymous_args = 0
 282:Src/gesture_detection.c ****     if (keypoint_idx >= AI_POSE_PP_POSE_KEYPOINTS_NB) {
 791              		.loc 1 282 5 view .LVU234
 281:Src/gesture_detection.c ****     if (keypoint_idx >= AI_POSE_PP_POSE_KEYPOINTS_NB) {
 792              		.loc 1 281 1 is_stmt 0 view .LVU235
 793 0000 F8B5     		push	{r3, r4, r5, r6, r7, lr}
 794              		.cfi_def_cfa_offset 24
 795              		.cfi_offset 3, -24
 796              		.cfi_offset 4, -20
 797              		.cfi_offset 5, -16
 798              		.cfi_offset 6, -12
 799              		.cfi_offset 7, -8
 800              		.cfi_offset 14, -4
 801              		.loc 1 282 8 view .LVU236
 802 0002 0C29     		cmp	r1, #12
 281:Src/gesture_detection.c ****     if (keypoint_idx >= AI_POSE_PP_POSE_KEYPOINTS_NB) {
 803              		.loc 1 281 1 view .LVU237
 804 0004 0E46     		mov	r6, r1
 805 0006 069F     		ldr	r7, [sp, #24]
 806              		.loc 1 282 8 view .LVU238
 807 0008 06D9     		bls	.L52
 283:Src/gesture_detection.c ****         *current_x = 0.0f;
 808              		.loc 1 283 9 is_stmt 1 view .LVU239
 809              		.loc 1 283 20 is_stmt 0 view .LVU240
 810 000a 0021     		movs	r1, #0
 811              	.LVL61:
 812              		.loc 1 283 20 view .LVU241
 813 000c 1160     		str	r1, [r2]	@ float
 284:Src/gesture_detection.c ****         *current_y = 0.0f;
 814              		.loc 1 284 9 is_stmt 1 view .LVU242
 815              		.loc 1 284 20 is_stmt 0 view .LVU243
 816 000e 1960     		str	r1, [r3]	@ float
 285:Src/gesture_detection.c ****         *current_confidence = 0.0f;
 817              		.loc 1 285 9 is_stmt 1 view .LVU244
 818              		.loc 1 285 29 is_stmt 0 view .LVU245
 819 0010 3960     		str	r1, [r7]	@ float
 286:Src/gesture_detection.c ****         *current_speed = 0.0f;
 820              		.loc 1 286 9 is_stmt 1 view .LVU246
 287:Src/gesture_detection.c ****         return;
 821              		.loc 1 287 9 view .LVU247
 822              	.LVL62:
ARM GAS  C:\Users\Antonio\AppData\Local\Temp\ccBvicZk.s 			page 23


 823              	.L53:
 286:Src/gesture_detection.c ****         *current_speed = 0.0f;
 824              		.loc 1 286 24 is_stmt 0 view .LVU248
 825 0012 079B     		ldr	r3, [sp, #28]
 826 0014 1960     		str	r1, [r3]	@ float
 288:Src/gesture_detection.c ****     }
 289:Src/gesture_detection.c **** 
 290:Src/gesture_detection.c ****     // Get past index (using past_keypoint_offset)
 291:Src/gesture_detection.c ****     uint8_t read_idx = (detector->history_index - past_keypoint_offset+ GESTURE_HISTORY_SIZE) % GES
 292:Src/gesture_detection.c **** 
 293:Src/gesture_detection.c ****     // Get that keypoint's data
 294:Src/gesture_detection.c ****     *current_x = detector->history[keypoint_idx][read_idx].x;
 295:Src/gesture_detection.c ****     *current_y = detector->history[keypoint_idx][read_idx].y;
 296:Src/gesture_detection.c ****     *current_confidence = detector->history[keypoint_idx][read_idx].confidence;
 297:Src/gesture_detection.c **** 
 298:Src/gesture_detection.c ****     // Calculate speed over last 3 frames
 299:Src/gesture_detection.c ****     *current_speed = Gesture_CalculateSpeed(detector->history[keypoint_idx], read_idx, 3);
 300:Src/gesture_detection.c **** }
 827              		.loc 1 300 1 view .LVU249
 828 0016 F8BD     		pop	{r3, r4, r5, r6, r7, pc}
 829              	.LVL63:
 830              	.L52:
 291:Src/gesture_detection.c **** 
 831              		.loc 1 291 5 is_stmt 1 view .LVU250
 291:Src/gesture_detection.c **** 
 832              		.loc 1 291 95 is_stmt 0 view .LVU251
 833 0018 2824     		movs	r4, #40
 291:Src/gesture_detection.c **** 
 834              		.loc 1 291 33 view .LVU252
 835 001a 00F50051 		add	r1, r0, #8192
 836              	.LVL64:
 291:Src/gesture_detection.c **** 
 837              		.loc 1 291 33 view .LVU253
 838 001e 91F88050 		ldrb	r5, [r1, #128]	@ zero_extendqisi2
 291:Src/gesture_detection.c **** 
 839              		.loc 1 291 49 view .LVU254
 840 0022 9DF82010 		ldrb	r1, [sp, #32]	@ zero_extendqisi2
 841 0026 6D1A     		subs	r5, r5, r1
 291:Src/gesture_detection.c **** 
 842              		.loc 1 291 71 view .LVU255
 843 0028 2835     		adds	r5, r5, #40
 291:Src/gesture_detection.c **** 
 844              		.loc 1 291 95 view .LVU256
 845 002a 95FBF4F1 		sdiv	r1, r5, r4
 846 002e 04FB1151 		mls	r1, r4, r1, r5
 847              	.LVL65:
 294:Src/gesture_detection.c ****     *current_y = detector->history[keypoint_idx][read_idx].y;
 848              		.loc 1 294 5 is_stmt 1 view .LVU257
 294:Src/gesture_detection.c ****     *current_y = detector->history[keypoint_idx][read_idx].y;
 849              		.loc 1 294 59 is_stmt 0 view .LVU258
 850 0032 7443     		muls	r4, r6, r4
 851 0034 54FA81F4 		uxtab	r4, r4, r1
 852 0038 00EB0414 		add	r4, r0, r4, lsl #4
 853 003c 2568     		ldr	r5, [r4]	@ float
 299:Src/gesture_detection.c **** }
 854              		.loc 1 299 22 view .LVU259
 855 003e C9B2     		uxtb	r1, r1
ARM GAS  C:\Users\Antonio\AppData\Local\Temp\ccBvicZk.s 			page 24


 294:Src/gesture_detection.c ****     *current_y = detector->history[keypoint_idx][read_idx].y;
 856              		.loc 1 294 16 view .LVU260
 857 0040 1560     		str	r5, [r2]	@ float
 295:Src/gesture_detection.c ****     *current_confidence = detector->history[keypoint_idx][read_idx].confidence;
 858              		.loc 1 295 5 is_stmt 1 view .LVU261
 295:Src/gesture_detection.c ****     *current_confidence = detector->history[keypoint_idx][read_idx].confidence;
 859              		.loc 1 295 59 is_stmt 0 view .LVU262
 860 0042 6268     		ldr	r2, [r4, #4]	@ float
 861              	.LVL66:
 295:Src/gesture_detection.c ****     *current_confidence = detector->history[keypoint_idx][read_idx].confidence;
 862              		.loc 1 295 16 view .LVU263
 863 0044 1A60     		str	r2, [r3]	@ float
 296:Src/gesture_detection.c **** 
 864              		.loc 1 296 5 is_stmt 1 view .LVU264
 296:Src/gesture_detection.c **** 
 865              		.loc 1 296 68 is_stmt 0 view .LVU265
 866 0046 A368     		ldr	r3, [r4, #8]	@ float
 867              	.LVL67:
 299:Src/gesture_detection.c **** }
 868              		.loc 1 299 22 view .LVU266
 869 0048 0322     		movs	r2, #3
 296:Src/gesture_detection.c **** 
 870              		.loc 1 296 25 view .LVU267
 871 004a 3B60     		str	r3, [r7]	@ float
 299:Src/gesture_detection.c **** }
 872              		.loc 1 299 5 is_stmt 1 view .LVU268
 299:Src/gesture_detection.c **** }
 873              		.loc 1 299 22 is_stmt 0 view .LVU269
 874 004c 4FF42073 		mov	r3, #640
 875 0050 03FB0600 		mla	r0, r3, r6, r0
 876              	.LVL68:
 299:Src/gesture_detection.c **** }
 877              		.loc 1 299 22 view .LVU270
 878 0054 FFF7FEFF 		bl	Gesture_CalculateSpeed
 879              	.LVL69:
 299:Src/gesture_detection.c **** }
 880              		.loc 1 299 22 view .LVU271
 881 0058 10EE101A 		vmov	r1, s0
 882 005c D9E7     		b	.L53
 883              		.cfi_endproc
 884              	.LFE3348:
 886              		.section	.rodata.str1.1,"aMS",%progbits,1
 887              	.LC1:
 888 0000 52696768 		.ascii	"Right Arm Swipe Left\000"
 888      74204172 
 888      6D205377 
 888      69706520 
 888      4C656674 
 889              	.LC2:
 890 0015 52696768 		.ascii	"Right Arm Swipe Right\000"
 890      74204172 
 890      6D205377 
 890      69706520 
 890      52696768 
 891              	.LC3:
 892 002b 4C656674 		.ascii	"Left Arm Swipe Left\000"
 892      2041726D 
ARM GAS  C:\Users\Antonio\AppData\Local\Temp\ccBvicZk.s 			page 25


 892      20537769 
 892      7065204C 
 892      65667400 
 893              	.LC4:
 894 003f 4C656674 		.ascii	"Left Arm Swipe Right\000"
 894      2041726D 
 894      20537769 
 894      70652052 
 894      69676874 
 895              	.LC5:
 896 0054 426F7468 		.ascii	"Both Arms Raised\000"
 896      2041726D 
 896      73205261 
 896      69736564 
 896      00
 897              	.LC6:
 898 0065 53776F72 		.ascii	"Sword Overhead Strike\000"
 898      64204F76 
 898      65726865 
 898      61642053 
 898      7472696B 
 899              	.LC7:
 900 007b 53776F72 		.ascii	"Sword Side Slash\000"
 900      64205369 
 900      64652053 
 900      6C617368 
 900      00
 901              		.section	.rodata.CSWTCH.10,"a"
 902              		.align	2
 905              	CSWTCH.10:
 906 0000 00000000 		.word	.LC1
 907 0004 15000000 		.word	.LC2
 908 0008 2B000000 		.word	.LC3
 909 000c 3F000000 		.word	.LC4
 910 0010 54000000 		.word	.LC5
 911 0014 65000000 		.word	.LC6
 912 0018 7B000000 		.word	.LC7
 913              		.text
 914              	.Letext0:
 915              		.file 2 "C:\\ST\\STM32CubeIDE_1.19.0\\STM32CubeIDE\\plugins\\com.st.stm32cube.ide.mcu.externaltool
 916              		.file 3 "C:\\ST\\STM32CubeIDE_1.19.0\\STM32CubeIDE\\plugins\\com.st.stm32cube.ide.mcu.externaltool
 917              		.file 4 "C:\\ST\\STM32CubeIDE_1.19.0\\STM32CubeIDE\\plugins\\com.st.stm32cube.ide.mcu.externaltool
 918              		.file 5 "C:\\ST\\STM32CubeIDE_1.19.0\\STM32CubeIDE\\plugins\\com.st.stm32cube.ide.mcu.externaltool
 919              		.file 6 "../../Middlewares/lib_vision_models_pp/lib_vision_models_pp/Inc/spe_pp_output_if.h"
 920              		.file 7 "Inc/gesture_detection.h"
 921              		.file 8 "C:\\ST\\STM32CubeIDE_1.19.0\\STM32CubeIDE\\plugins\\com.st.stm32cube.ide.mcu.externaltool
 922              		.file 9 "C:\\ST\\STM32CubeIDE_1.19.0\\STM32CubeIDE\\plugins\\com.st.stm32cube.ide.mcu.externaltool
 923              		.file 10 "../../STM32Cube_FW_N6/Drivers/STM32N6xx_HAL_Driver/Inc/stm32n6xx_hal.h"
 924              		.file 11 "<built-in>"
ARM GAS  C:\Users\Antonio\AppData\Local\Temp\ccBvicZk.s 			page 26


DEFINED SYMBOLS
                            *ABS*:00000000 gesture_detection.c
C:\Users\Antonio\AppData\Local\Temp\ccBvicZk.s:26     .text.Gesture_Init:00000000 $t
C:\Users\Antonio\AppData\Local\Temp\ccBvicZk.s:32     .text.Gesture_Init:00000000 Gesture_Init
C:\Users\Antonio\AppData\Local\Temp\ccBvicZk.s:50     .text.Gesture_CalculateDistance:00000000 $t
C:\Users\Antonio\AppData\Local\Temp\ccBvicZk.s:56     .text.Gesture_CalculateDistance:00000000 Gesture_CalculateDistance
C:\Users\Antonio\AppData\Local\Temp\ccBvicZk.s:85     .text.Gesture_CalculateSpeed:00000000 $t
C:\Users\Antonio\AppData\Local\Temp\ccBvicZk.s:91     .text.Gesture_CalculateSpeed:00000000 Gesture_CalculateSpeed
C:\Users\Antonio\AppData\Local\Temp\ccBvicZk.s:170    .text.Gesture_CalculateSpeed:00000058 $d
C:\Users\Antonio\AppData\Local\Temp\ccBvicZk.s:176    .text.Gesture_Detect:00000000 $t
C:\Users\Antonio\AppData\Local\Temp\ccBvicZk.s:182    .text.Gesture_Detect:00000000 Gesture_Detect
C:\Users\Antonio\AppData\Local\Temp\ccBvicZk.s:579    .text.Gesture_Detect:000001f4 $d
C:\Users\Antonio\AppData\Local\Temp\ccBvicZk.s:589    .text.Gesture_GetName:00000000 $t
C:\Users\Antonio\AppData\Local\Temp\ccBvicZk.s:595    .text.Gesture_GetName:00000000 Gesture_GetName
C:\Users\Antonio\AppData\Local\Temp\ccBvicZk.s:621    .text.Gesture_GetName:00000014 $d
C:\Users\Antonio\AppData\Local\Temp\ccBvicZk.s:905    .rodata.CSWTCH.10:00000000 CSWTCH.10
C:\Users\Antonio\AppData\Local\Temp\ccBvicZk.s:627    .text.Gesture_GetCurrentDisplayGesture:00000000 $t
C:\Users\Antonio\AppData\Local\Temp\ccBvicZk.s:633    .text.Gesture_GetCurrentDisplayGesture:00000000 Gesture_GetCurrentDisplayGesture
C:\Users\Antonio\AppData\Local\Temp\ccBvicZk.s:673    .text.Gesture_GetKeypointDebugInfo:00000000 $t
C:\Users\Antonio\AppData\Local\Temp\ccBvicZk.s:679    .text.Gesture_GetKeypointDebugInfo:00000000 Gesture_GetKeypointDebugInfo
C:\Users\Antonio\AppData\Local\Temp\ccBvicZk.s:778    .text.Gesture_GetPastKeypointDebugInfo:00000000 $t
C:\Users\Antonio\AppData\Local\Temp\ccBvicZk.s:784    .text.Gesture_GetPastKeypointDebugInfo:00000000 Gesture_GetPastKeypointDebugInfo
C:\Users\Antonio\AppData\Local\Temp\ccBvicZk.s:902    .rodata.CSWTCH.10:00000000 $d
                           .group:00000000 wm4.0.edffc6ad2f5eb1e671bbefdf8c481eb3
                           .group:00000000 wm4._newlib_version.h.4.411db44ea2338a62eca2f0777f81481b
                           .group:00000000 wm4.features.h.33.e0c9f337c65cb9f22ed5f23d082bc78b
                           .group:00000000 wm4._default_types.h.15.247e5cd201eca3442cbf5404108c4935
                           .group:00000000 wm4._intsup.h.10.48bafbb683905c4daa4565a85aeeb264
                           .group:00000000 wm4._stdint.h.10.c24fa3af3bc1706662bb5593a907e841
                           .group:00000000 wm4.stdint.h.23.d53047a68f4a85177f80b422d52785ed
                           .group:00000000 wm4.cmsis_gcc.h.26.7a5fd1a99dbedde687044a4433ab3e15
                           .group:00000000 wm4.newlib.h.7.a37ffbe9e5aff74303f4e60b1cc1c01b
                           .group:00000000 wm4.ieeefp.h.77.bd5feb87d9990dd328793ced294f6a87
                           .group:00000000 wm4.config.h.224.10ee1ad185d877c6e334e6581faab44d
                           .group:00000000 wm4._ansi.h.31.de524f58584151836e90d8620a16f8e8
                           .group:00000000 wm4.stddef.h.39.0dc9006b34572d4d9cae4c8b422c4971
                           .group:00000000 wm4.cdefs.h.49.70fc7af612f78ddcace70fdd90b5623b
                           .group:00000000 wm4._types.h.20.dd0d04dca3800a0d2a6129b87f3adbb2
                           .group:00000000 wm4.stddef.h.158.6f8e08a347b1cff664332fa350bfceb3
                           .group:00000000 wm4._types.h.127.3bdfe3ff8ea2d0985b03d9cbe93480e3
                           .group:00000000 wm4.reent.h.18.25503cdc8b7e55dd0d6ea7b3e5af7a03
                           .group:00000000 wm4.lock.h.2.1461d1fff82dffe8bfddc23307f6484f
                           .group:00000000 wm4.reent.h.78.6b87466b04591b1f1cb88c14fdf2ba9e
                           .group:00000000 wm4.string.h.15.dab3980bf35408a4c507182805e2de3a
                           .group:00000000 wm4.stddef.h.158.eec8bf00b5213f43d095cb984c5f22e3
                           .group:00000000 wm4.string.h.177.59a005921fa78485abc80a0267de5752
                           .group:00000000 wm4.math.h.13.47cfc34cae8a1153323939c4d32cf7c2
                           .group:00000000 wm4.float.h.29.0e9d9baf95ec39f9555dc80c6e28186b
                           .group:00000000 wm4.syslimits.h.34.de5cbd310098bc5895998b6bde577ed2
                           .group:00000000 wm4.limits.h.9.70fb0ada6f71b16202a66baaa6d8ea70
                           .group:00000000 wm4.limits.h.60.56a1ae353e2028a24298ec6463b8b593
                           .group:00000000 wm4.arm_math_types.h.94.a6c8422e2657ad4cd95bd8be69ba02aa
                           .group:00000000 wm4.stdbool.h.29.c08aa3eec75cf5b9b5003883f43253f0
                           .group:00000000 wm4.arm_mve.h.38.47b22bbd301ce82bc6dafd1a387f65a3
                           .group:00000000 wm4.arm_math_types.h.559.cab78f278b684a3ea2271947c7aea680
                           .group:00000000 wm4.arm_math_memory.h.28.fe8a81c6a9ac13061a5f748732089249
                           .group:00000000 wm4.none.h.185.db055cca83e83f96d8d0bb450fbdf4bb
ARM GAS  C:\Users\Antonio\AppData\Local\Temp\ccBvicZk.s 			page 27


                           .group:00000000 wm4.utils.h.27.57524573fe37b04009eecf3582a4c591
                           .group:00000000 wm4.fast_math_functions.h.28.8eb7477260c1d6b62047c49a01c4cbaa
                           .group:00000000 wm4.controller_functions.h.28.7bed7d7a726df2f65b8a3d89cff01247
                           .group:00000000 wm4.filtering_functions.h.46.6cf1424fb1f86d5f9958d208b83340a1
                           .group:00000000 wm4.app_config.h.24.e9b8ad8c27ec31b3b21644fa8513e998
                           .group:00000000 wm4.spe_pp_output_if.h.11.7212d2990e83c8afeadfa97fa05d17c4
                           .group:00000000 wm4.gesture_detection.h.10.d7513471c97a364c41f0081fc9baf7b8
                           .group:00000000 wm4.stm32n6xx_hal_conf.h.21.e6f895f5dec93fd886896ef3aa220611
                           .group:00000000 wm4.arm_cmse.h.103.a0d15a79c4c9a67da8d5831704d7248e
                           .group:00000000 wm4.stm32n6xx.h.34.80585dd08aa426c932f6311fdb7386da
                           .group:00000000 wm4.stm32n657xx.h.26.acd272cb67318cc1a4791ce2f0720ca6
                           .group:00000000 wm4.cmsis_version.h.32.0ac195c83bb4537824e6ad1c47474b79
                           .group:00000000 wm4.core_cm55.h.68.832d5cf835639cc0d28219c3d2867330
                           .group:00000000 wm4.core_cm55.h.196.52e437a270752da561676e507b35baeb
                           .group:00000000 wm4.mpu_armv8.h.32.9d72426c8e2b47753456dcb84802c5b3
                           .group:00000000 wm4.pmu_armv8.h.32.eaa95f88a71b29390b135fd81c071b6b
                           .group:00000000 wm4.core_cm55.h.4411.860dad8650880893dd57b815844f7186
                           .group:00000000 wm4.cachel1_armv7.h.32.abd77761a989e008b0c60891114a33c7
                           .group:00000000 wm4.stm32n657xx.h.575.1c2a5e6bedffc6f9083dcc857bc6d09d
                           .group:00000000 wm4.stm32n6xx.h.114.5cf793d8af485e14f110e3e24bde1aa5
                           .group:00000000 wm4.stm32_hal_legacy.h.22.87fb12bf5a1a1e00fc134f22bc9aa8c4
                           .group:00000000 wm4.stm32n6xx_hal_def.h.63.3a8f01490e8852464e9fcb69092e9c75
                           .group:00000000 wm4.stm32n6xx_ll_bus.h.38.2366a295ee4cdb04833997d3787fcd2d
                           .group:00000000 wm4.stm32n6xx_ll_rcc.h.21.002e22a16fd7f67dde6dce41e8ba9620
                           .group:00000000 wm4.stm32n6xx_hal_rcc.h.194.1cb1283e40f9bebcd3fba2a9a961838e
                           .group:00000000 wm4.stm32n6xx_hal_rcc_ex.h.21.79aa32178dfef625fbd20d362449acfa
                           .group:00000000 wm4.stm32n6xx_hal_rcc.h.4359.3f0b7ad33826d95438602c9aebc08af9
                           .group:00000000 wm4.stm32n6xx_hal_gpio.h.21.89d54af663b98eb8fc098192053f7eeb
                           .group:00000000 wm4.stm32n6xx_hal_gpio_ex.h.22.4acb2e3511a98bb48b81cfc8e09fd59e
                           .group:00000000 wm4.stm32n6xx_hal_rif.h.21.424d0bafb874a777dee3742a22e13037
                           .group:00000000 wm4.stm32n6xx_hal_dma.h.21.61e48c5c2e8d25d22177834b232fe45c
                           .group:00000000 wm4.stm32n6xx_hal_dma_ex.h.21.66e597beb090a165329d6ccf665e41bc
                           .group:00000000 wm4.stm32n6xx_hal_dma.h.1020.87e2180c009560b617c1f8208140c950
                           .group:00000000 wm4.stm32n6xx_hal_cortex.h.21.f493623cc58f9454ab4eae41e395c5cc
                           .group:00000000 wm4.stm32n6xx_hal_bsec.h.21.61b309e67dd810e28897a01b1b21a97f
                           .group:00000000 wm4.stm32n6xx_hal_dcmipp.h.21.f538bfd785c6469670251ac9bc7af55d
                           .group:00000000 wm4.stm32n6xx_hal_dma2d.h.21.75c8d46cdbb72970123b3f34ae2043d7
                           .group:00000000 wm4.stm32n6xx_hal_exti.h.21.fda87e715ea6b98239ec30171d1df594
                           .group:00000000 wm4.stm32n6xx_hal_i2c.h.21.3f483626ff64c5bf027265bb2e1d1331
                           .group:00000000 wm4.stm32n6xx_hal_i2c_ex.h.21.79e9196c22282cdaf6b4047893638c45
                           .group:00000000 wm4.stm32n6xx_hal_i2c.h.741.1084702632703acc669e4282b3043372
                           .group:00000000 wm4.stm32n6xx_hal_ltdc.h.21.ae1eb09930e7e550e48e418ac5849e4d
                           .group:00000000 wm4.stm32n6xx_hal_ltdc.h.1002.b13ede7fc94ed5ad1c6768a157d2149a
                           .group:00000000 wm4.stm32n6xx_hal_pwr.h.21.cdb73e4869c3fed3fc84f901ec0e5f0a
                           .group:00000000 wm4.stm32n6xx_hal_pwr_ex.h.21.1a673224a58b0c1e5fad8eeda6514208
                           .group:00000000 wm4.stm32n6xx_hal_ramcfg.h.21.a62dfbb4d2c14e9a8c634a215e37bd3d
                           .group:00000000 wm4.stm32n6xx_hal_uart.h.21.230f549bfa0d5ebfd77bfb311b2aca15
                           .group:00000000 wm4.stm32n6xx_hal_uart_ex.h.21.a0d5511e1d0703b7b5278c8f5472b96d
                           .group:00000000 wm4.stm32n6xx_hal_xspi.h.21.e17898be2073b6b6b19faf30b4e304e9
                           .group:00000000 wm4.stm32n6xx_hal_cacheaxi.h.21.7c3375b7903ec42376e4883320997f74
                           .group:00000000 wm4.stm32n6xx_hal.h.81.5e59143eba07faca3e9aeaa5470826c8
                           .group:00000000 wm4.lcd.h.21.98701c105e66fef2e089854e5bc0fe32
                           .group:00000000 wm4.stm32_lcd.h.55.1a04e503950bf34ef3721d2ebb9542fc
                           .group:00000000 wm4.main.h.30.caab52a0a8de64f9677f2eb568935933

UNDEFINED SYMBOLS
memset
ARM GAS  C:\Users\Antonio\AppData\Local\Temp\ccBvicZk.s 			page 28


sqrtf
HAL_GetTick
