ARM GAS  C:\Users\Antonio\AppData\Local\Temp\ccF6VN3M.s 			page 1


   1              		.arch armv8.1-m.main
   2              		.fpu fpv5-d16
   3              		.arch_extension dsp
   4              		.arch_extension fp
   5              		.arch_extension fp.dp
   6              		.arch_extension mve
   7              		.arch_extension mve.fp
   8              		.eabi_attribute 5, "cortex-m55"
   9              		.eabi_attribute 28, 1
  10              		.eabi_attribute 20, 1
  11              		.eabi_attribute 21, 1
  12              		.eabi_attribute 23, 3
  13              		.eabi_attribute 24, 1
  14              		.eabi_attribute 25, 1
  15              		.eabi_attribute 26, 1
  16              		.eabi_attribute 30, 4
  17              		.eabi_attribute 34, 1
  18              		.eabi_attribute 38, 1
  19              		.eabi_attribute 18, 4
  20              		.file	"isp_services.c"
  21              		.text
  22              	.Ltext0:
  23              		.cfi_sections	.debug_frame
  24              		.file 1 "../../Middlewares/Camera_Middleware/ISP_Library/isp/Src/isp_services.c"
  25              		.section	.text.GetAvgStats,"ax",%progbits
  26              		.align	1
  27              		.syntax unified
  28              		.thumb
  29              		.thumb_func
  31              	GetAvgStats:
  32              	.LVL0:
  33              	.LFB842:
   1:../../Middlewares/Camera_Middleware/ISP_Library/isp/Src/isp_services.c **** /**
   2:../../Middlewares/Camera_Middleware/ISP_Library/isp/Src/isp_services.c ****  ******************************************************************************
   3:../../Middlewares/Camera_Middleware/ISP_Library/isp/Src/isp_services.c ****  * @file    isp_services.c
   4:../../Middlewares/Camera_Middleware/ISP_Library/isp/Src/isp_services.c ****  * @author  AIS Application Team
   5:../../Middlewares/Camera_Middleware/ISP_Library/isp/Src/isp_services.c ****  * @brief   Services of the ISP middleware
   6:../../Middlewares/Camera_Middleware/ISP_Library/isp/Src/isp_services.c ****  ******************************************************************************
   7:../../Middlewares/Camera_Middleware/ISP_Library/isp/Src/isp_services.c ****  * @attention
   8:../../Middlewares/Camera_Middleware/ISP_Library/isp/Src/isp_services.c ****  *
   9:../../Middlewares/Camera_Middleware/ISP_Library/isp/Src/isp_services.c ****  * Copyright (c) 2023 STMicroelectronics.
  10:../../Middlewares/Camera_Middleware/ISP_Library/isp/Src/isp_services.c ****  * All rights reserved.
  11:../../Middlewares/Camera_Middleware/ISP_Library/isp/Src/isp_services.c ****  *
  12:../../Middlewares/Camera_Middleware/ISP_Library/isp/Src/isp_services.c ****  * This software is licensed under terms that can be found in the LICENSE file
  13:../../Middlewares/Camera_Middleware/ISP_Library/isp/Src/isp_services.c ****  * in the root directory of this software component.
  14:../../Middlewares/Camera_Middleware/ISP_Library/isp/Src/isp_services.c ****  * If no LICENSE file comes with this software, it is provided AS-IS.
  15:../../Middlewares/Camera_Middleware/ISP_Library/isp/Src/isp_services.c ****  *
  16:../../Middlewares/Camera_Middleware/ISP_Library/isp/Src/isp_services.c ****  ******************************************************************************
  17:../../Middlewares/Camera_Middleware/ISP_Library/isp/Src/isp_services.c ****  */
  18:../../Middlewares/Camera_Middleware/ISP_Library/isp/Src/isp_services.c **** 
  19:../../Middlewares/Camera_Middleware/ISP_Library/isp/Src/isp_services.c **** /* Includes ------------------------------------------------------------------*/
  20:../../Middlewares/Camera_Middleware/ISP_Library/isp/Src/isp_services.c **** #include "isp_core.h"
  21:../../Middlewares/Camera_Middleware/ISP_Library/isp/Src/isp_services.c **** #include "isp_services.h"
  22:../../Middlewares/Camera_Middleware/ISP_Library/isp/Src/isp_services.c **** #ifdef ISP_MW_TUNING_TOOL_SUPPORT
  23:../../Middlewares/Camera_Middleware/ISP_Library/isp/Src/isp_services.c **** #include "isp_cmd_parser.h"
  24:../../Middlewares/Camera_Middleware/ISP_Library/isp/Src/isp_services.c **** #endif
  25:../../Middlewares/Camera_Middleware/ISP_Library/isp/Src/isp_services.c **** 
ARM GAS  C:\Users\Antonio\AppData\Local\Temp\ccF6VN3M.s 			page 2


  26:../../Middlewares/Camera_Middleware/ISP_Library/isp/Src/isp_services.c **** /* Private types -------------------------------------------------------------*/
  27:../../Middlewares/Camera_Middleware/ISP_Library/isp/Src/isp_services.c **** typedef enum {
  28:../../Middlewares/Camera_Middleware/ISP_Library/isp/Src/isp_services.c ****   ISP_STAT_CFG_UP_AVG = 0,      /* Configure @Up   for average    */
  29:../../Middlewares/Camera_Middleware/ISP_Library/isp/Src/isp_services.c ****   ISP_STAT_CFG_UP_BINS_0_2,     /* Configure @Up   for bins[0:2]  */
  30:../../Middlewares/Camera_Middleware/ISP_Library/isp/Src/isp_services.c ****   ISP_STAT_CFG_UP_BINS_3_5,     /* Configure @Up   for bins[3:5]  */
  31:../../Middlewares/Camera_Middleware/ISP_Library/isp/Src/isp_services.c ****   ISP_STAT_CFG_UP_BINS_6_8,     /* Configure @Up   for bins[6:8]  */
  32:../../Middlewares/Camera_Middleware/ISP_Library/isp/Src/isp_services.c ****   ISP_STAT_CFG_UP_BINS_9_11,    /* Configure @Up   for bins[9:11] */
  33:../../Middlewares/Camera_Middleware/ISP_Library/isp/Src/isp_services.c ****   ISP_STAT_CFG_DOWN_AVG,        /* Configure @Down for average    */
  34:../../Middlewares/Camera_Middleware/ISP_Library/isp/Src/isp_services.c ****   ISP_STAT_CFG_DOWN_BINS_0_2,   /* Configure @Down for bins[0:2]  */
  35:../../Middlewares/Camera_Middleware/ISP_Library/isp/Src/isp_services.c ****   ISP_STAT_CFG_DOWN_BINS_3_5,   /* Configure @Down for bins[3:5]  */
  36:../../Middlewares/Camera_Middleware/ISP_Library/isp/Src/isp_services.c ****   ISP_STAT_CFG_DOWN_BINS_6_8,   /* Configure @Down for bins[6:8]  */
  37:../../Middlewares/Camera_Middleware/ISP_Library/isp/Src/isp_services.c ****   ISP_STAT_CFG_DOWN_BINS_9_11,  /* Configure @Down for bins[9:11] */
  38:../../Middlewares/Camera_Middleware/ISP_Library/isp/Src/isp_services.c ****   ISP_STAT_CFG_LAST = ISP_STAT_CFG_DOWN_BINS_9_11,
  39:../../Middlewares/Camera_Middleware/ISP_Library/isp/Src/isp_services.c ****   ISP_STAT_CFG_CYCLE_SIZE,
  40:../../Middlewares/Camera_Middleware/ISP_Library/isp/Src/isp_services.c **** } ISP_SVC_StatEngineStage;
  41:../../Middlewares/Camera_Middleware/ISP_Library/isp/Src/isp_services.c **** 
  42:../../Middlewares/Camera_Middleware/ISP_Library/isp/Src/isp_services.c **** typedef enum {
  43:../../Middlewares/Camera_Middleware/ISP_Library/isp/Src/isp_services.c ****   ISP_RED,
  44:../../Middlewares/Camera_Middleware/ISP_Library/isp/Src/isp_services.c ****   ISP_GREEN,
  45:../../Middlewares/Camera_Middleware/ISP_Library/isp/Src/isp_services.c ****   ISP_BLUE,
  46:../../Middlewares/Camera_Middleware/ISP_Library/isp/Src/isp_services.c **** } ISP_SVC_Component;
  47:../../Middlewares/Camera_Middleware/ISP_Library/isp/Src/isp_services.c **** 
  48:../../Middlewares/Camera_Middleware/ISP_Library/isp/Src/isp_services.c **** typedef struct {
  49:../../Middlewares/Camera_Middleware/ISP_Library/isp/Src/isp_services.c ****   ISP_stat_ready_cb callback;           /* Callback to inform that stats are ready */
  50:../../Middlewares/Camera_Middleware/ISP_Library/isp/Src/isp_services.c ****   ISP_AlgoTypeDef *pAlgo;               /* Callback context parameter */
  51:../../Middlewares/Camera_Middleware/ISP_Library/isp/Src/isp_services.c ****   ISP_SVC_StatStateTypeDef *pStats;     /* Output statistics */
  52:../../Middlewares/Camera_Middleware/ISP_Library/isp/Src/isp_services.c ****   uint32_t refFrameId;                  /* Frame reference for which stats are requested */
  53:../../Middlewares/Camera_Middleware/ISP_Library/isp/Src/isp_services.c ****   ISP_SVC_StatLocation location;        /* Location where stats are requested */
  54:../../Middlewares/Camera_Middleware/ISP_Library/isp/Src/isp_services.c ****   ISP_SVC_StatType type;                /* Type of requested stats */
  55:../../Middlewares/Camera_Middleware/ISP_Library/isp/Src/isp_services.c **** } ISP_SVC_StatRegisteredClient;
  56:../../Middlewares/Camera_Middleware/ISP_Library/isp/Src/isp_services.c **** 
  57:../../Middlewares/Camera_Middleware/ISP_Library/isp/Src/isp_services.c **** #define ISP_SVC_STAT_MAX_CB       (5U)
  58:../../Middlewares/Camera_Middleware/ISP_Library/isp/Src/isp_services.c **** typedef struct {
  59:../../Middlewares/Camera_Middleware/ISP_Library/isp/Src/isp_services.c ****   ISP_SVC_StatEngineStage stage;        /* Internal processing stage */
  60:../../Middlewares/Camera_Middleware/ISP_Library/isp/Src/isp_services.c ****   ISP_SVC_StatStateTypeDef last;        /* Last available statistics */
  61:../../Middlewares/Camera_Middleware/ISP_Library/isp/Src/isp_services.c ****   ISP_SVC_StatStateTypeDef ongoing;     /* Statistics being updated */
  62:../../Middlewares/Camera_Middleware/ISP_Library/isp/Src/isp_services.c ****   ISP_SVC_StatRegisteredClient client[ISP_SVC_STAT_MAX_CB]; /* Client waiting for stats */
  63:../../Middlewares/Camera_Middleware/ISP_Library/isp/Src/isp_services.c ****   ISP_SVC_StatType upRequest;           /* Type of statistics request at Up location */
  64:../../Middlewares/Camera_Middleware/ISP_Library/isp/Src/isp_services.c ****   ISP_SVC_StatType downRequest;         /* Type of statistics request at Down location */
  65:../../Middlewares/Camera_Middleware/ISP_Library/isp/Src/isp_services.c ****   uint32_t requestAllCounter;           /* Counter for the temporary "request all stats" mode */
  66:../../Middlewares/Camera_Middleware/ISP_Library/isp/Src/isp_services.c **** } ISP_SVC_StatEngineTypeDef;
  67:../../Middlewares/Camera_Middleware/ISP_Library/isp/Src/isp_services.c **** 
  68:../../Middlewares/Camera_Middleware/ISP_Library/isp/Src/isp_services.c **** /* Private constants ---------------------------------------------------------*/
  69:../../Middlewares/Camera_Middleware/ISP_Library/isp/Src/isp_services.c **** #define ISP_SVC_CONFIG_ORDER_RGB      0
  70:../../Middlewares/Camera_Middleware/ISP_Library/isp/Src/isp_services.c **** #define ISP_SVC_CONFIG_ORDER_BGR      1
  71:../../Middlewares/Camera_Middleware/ISP_Library/isp/Src/isp_services.c **** 
  72:../../Middlewares/Camera_Middleware/ISP_Library/isp/Src/isp_services.c **** #define ISP_SVC_CONFIG_DEVICE_N6      0x00000000
  73:../../Middlewares/Camera_Middleware/ISP_Library/isp/Src/isp_services.c **** #define ISP_SVC_CONFIG_DEVICE_MP25    0x00000001
  74:../../Middlewares/Camera_Middleware/ISP_Library/isp/Src/isp_services.c **** #define ISP_SVC_CONFIG_DEVICE_UNKNOWN 0xFFFFFFFF
  75:../../Middlewares/Camera_Middleware/ISP_Library/isp/Src/isp_services.c **** 
  76:../../Middlewares/Camera_Middleware/ISP_Library/isp/Src/isp_services.c **** /* Private macro -------------------------------------------------------------*/
  77:../../Middlewares/Camera_Middleware/ISP_Library/isp/Src/isp_services.c **** /* Private function prototypes -----------------------------------------------*/
  78:../../Middlewares/Camera_Middleware/ISP_Library/isp/Src/isp_services.c **** static void To_Shift_Multiplier(uint32_t Factor, uint8_t *pShift, uint8_t *pMultiplier);
  79:../../Middlewares/Camera_Middleware/ISP_Library/isp/Src/isp_services.c **** static uint32_t From_Shift_Multiplier(uint8_t Shift, uint8_t Multiplier);
  80:../../Middlewares/Camera_Middleware/ISP_Library/isp/Src/isp_services.c **** static int16_t To_CConv_Reg(int32_t Coeff);
  81:../../Middlewares/Camera_Middleware/ISP_Library/isp/Src/isp_services.c **** static int32_t From_CConv_Reg(int16_t Reg);
  82:../../Middlewares/Camera_Middleware/ISP_Library/isp/Src/isp_services.c **** 
ARM GAS  C:\Users\Antonio\AppData\Local\Temp\ccF6VN3M.s 			page 3


  83:../../Middlewares/Camera_Middleware/ISP_Library/isp/Src/isp_services.c **** /* Private variables ---------------------------------------------------------*/
  84:../../Middlewares/Camera_Middleware/ISP_Library/isp/Src/isp_services.c **** static uint32_t ISP_ManualWBRefColorTemp = 0;
  85:../../Middlewares/Camera_Middleware/ISP_Library/isp/Src/isp_services.c **** static ISP_DecimationTypeDef ISP_DecimationValue = {ISP_DECIM_FACTOR_1};
  86:../../Middlewares/Camera_Middleware/ISP_Library/isp/Src/isp_services.c **** static ISP_IQParamTypeDef ISP_IQParamCache;
  87:../../Middlewares/Camera_Middleware/ISP_Library/isp/Src/isp_services.c **** static ISP_SVC_StatEngineTypeDef ISP_SVC_StatEngine;
  88:../../Middlewares/Camera_Middleware/ISP_Library/isp/Src/isp_services.c **** static bool ISP_SensorDelayMeasureRun;
  89:../../Middlewares/Camera_Middleware/ISP_Library/isp/Src/isp_services.c **** 
  90:../../Middlewares/Camera_Middleware/ISP_Library/isp/Src/isp_services.c **** static const uint32_t avgRGBUp[] = {
  91:../../Middlewares/Camera_Middleware/ISP_Library/isp/Src/isp_services.c ****     DCMIPP_STAT_EXT_SOURCE_PRE_BLKLVL_R, DCMIPP_STAT_EXT_SOURCE_PRE_BLKLVL_G, DCMIPP_STAT_EXT_SOURC
  92:../../Middlewares/Camera_Middleware/ISP_Library/isp/Src/isp_services.c **** };
  93:../../Middlewares/Camera_Middleware/ISP_Library/isp/Src/isp_services.c **** 
  94:../../Middlewares/Camera_Middleware/ISP_Library/isp/Src/isp_services.c **** static const uint32_t avgRGBDown[] = {
  95:../../Middlewares/Camera_Middleware/ISP_Library/isp/Src/isp_services.c ****     DCMIPP_STAT_EXT_SOURCE_POST_DEMOS_R, DCMIPP_STAT_EXT_SOURCE_POST_DEMOS_G, DCMIPP_STAT_EXT_SOURC
  96:../../Middlewares/Camera_Middleware/ISP_Library/isp/Src/isp_services.c **** };
  97:../../Middlewares/Camera_Middleware/ISP_Library/isp/Src/isp_services.c **** 
  98:../../Middlewares/Camera_Middleware/ISP_Library/isp/Src/isp_services.c **** static const DCMIPP_StatisticExtractionConfTypeDef statConfUpBins_0_2 = {
  99:../../Middlewares/Camera_Middleware/ISP_Library/isp/Src/isp_services.c ****     .Mode = DCMIPP_STAT_EXT_MODE_BINS,
 100:../../Middlewares/Camera_Middleware/ISP_Library/isp/Src/isp_services.c ****     .Source = DCMIPP_STAT_EXT_SOURCE_PRE_BLKLVL_L,
 101:../../Middlewares/Camera_Middleware/ISP_Library/isp/Src/isp_services.c ****     .Bins = DCMIPP_STAT_EXT_BINS_MODE_LOWER_BINS
 102:../../Middlewares/Camera_Middleware/ISP_Library/isp/Src/isp_services.c **** };
 103:../../Middlewares/Camera_Middleware/ISP_Library/isp/Src/isp_services.c **** 
 104:../../Middlewares/Camera_Middleware/ISP_Library/isp/Src/isp_services.c **** static const DCMIPP_StatisticExtractionConfTypeDef statConfUpBins_3_5 = {
 105:../../Middlewares/Camera_Middleware/ISP_Library/isp/Src/isp_services.c ****     .Mode = DCMIPP_STAT_EXT_MODE_BINS,
 106:../../Middlewares/Camera_Middleware/ISP_Library/isp/Src/isp_services.c ****     .Source = DCMIPP_STAT_EXT_SOURCE_PRE_BLKLVL_L,
 107:../../Middlewares/Camera_Middleware/ISP_Library/isp/Src/isp_services.c ****     .Bins = DCMIPP_STAT_EXT_BINS_MODE_LOWMID_BINS
 108:../../Middlewares/Camera_Middleware/ISP_Library/isp/Src/isp_services.c **** };
 109:../../Middlewares/Camera_Middleware/ISP_Library/isp/Src/isp_services.c **** 
 110:../../Middlewares/Camera_Middleware/ISP_Library/isp/Src/isp_services.c **** static const DCMIPP_StatisticExtractionConfTypeDef statConfUpBins_6_8 = {
 111:../../Middlewares/Camera_Middleware/ISP_Library/isp/Src/isp_services.c ****     .Mode = DCMIPP_STAT_EXT_MODE_BINS,
 112:../../Middlewares/Camera_Middleware/ISP_Library/isp/Src/isp_services.c ****     .Source = DCMIPP_STAT_EXT_SOURCE_PRE_BLKLVL_L,
 113:../../Middlewares/Camera_Middleware/ISP_Library/isp/Src/isp_services.c ****     .Bins = DCMIPP_STAT_EXT_BINS_MODE_UPMID_BINS
 114:../../Middlewares/Camera_Middleware/ISP_Library/isp/Src/isp_services.c **** };
 115:../../Middlewares/Camera_Middleware/ISP_Library/isp/Src/isp_services.c **** 
 116:../../Middlewares/Camera_Middleware/ISP_Library/isp/Src/isp_services.c **** static const DCMIPP_StatisticExtractionConfTypeDef statConfUpBins_9_11 = {
 117:../../Middlewares/Camera_Middleware/ISP_Library/isp/Src/isp_services.c ****     .Mode = DCMIPP_STAT_EXT_MODE_BINS,
 118:../../Middlewares/Camera_Middleware/ISP_Library/isp/Src/isp_services.c ****     .Source = DCMIPP_STAT_EXT_SOURCE_PRE_BLKLVL_L,
 119:../../Middlewares/Camera_Middleware/ISP_Library/isp/Src/isp_services.c ****     .Bins = DCMIPP_STAT_EXT_BINS_MODE_UP_BINS
 120:../../Middlewares/Camera_Middleware/ISP_Library/isp/Src/isp_services.c **** };
 121:../../Middlewares/Camera_Middleware/ISP_Library/isp/Src/isp_services.c **** 
 122:../../Middlewares/Camera_Middleware/ISP_Library/isp/Src/isp_services.c **** static const DCMIPP_StatisticExtractionConfTypeDef statConfDownBins_0_2 = {
 123:../../Middlewares/Camera_Middleware/ISP_Library/isp/Src/isp_services.c ****     .Mode = DCMIPP_STAT_EXT_MODE_BINS,
 124:../../Middlewares/Camera_Middleware/ISP_Library/isp/Src/isp_services.c ****     .Source = DCMIPP_STAT_EXT_SOURCE_POST_DEMOS_L,
 125:../../Middlewares/Camera_Middleware/ISP_Library/isp/Src/isp_services.c ****     .Bins = DCMIPP_STAT_EXT_BINS_MODE_LOWER_BINS
 126:../../Middlewares/Camera_Middleware/ISP_Library/isp/Src/isp_services.c **** };
 127:../../Middlewares/Camera_Middleware/ISP_Library/isp/Src/isp_services.c **** 
 128:../../Middlewares/Camera_Middleware/ISP_Library/isp/Src/isp_services.c **** static const DCMIPP_StatisticExtractionConfTypeDef statConfDownBins_3_5 = {
 129:../../Middlewares/Camera_Middleware/ISP_Library/isp/Src/isp_services.c ****     .Mode = DCMIPP_STAT_EXT_MODE_BINS,
 130:../../Middlewares/Camera_Middleware/ISP_Library/isp/Src/isp_services.c ****     .Source = DCMIPP_STAT_EXT_SOURCE_POST_DEMOS_L,
 131:../../Middlewares/Camera_Middleware/ISP_Library/isp/Src/isp_services.c ****     .Bins = DCMIPP_STAT_EXT_BINS_MODE_LOWMID_BINS
 132:../../Middlewares/Camera_Middleware/ISP_Library/isp/Src/isp_services.c **** };
 133:../../Middlewares/Camera_Middleware/ISP_Library/isp/Src/isp_services.c **** 
 134:../../Middlewares/Camera_Middleware/ISP_Library/isp/Src/isp_services.c **** static const DCMIPP_StatisticExtractionConfTypeDef statConfDownBins_6_8 = {
 135:../../Middlewares/Camera_Middleware/ISP_Library/isp/Src/isp_services.c ****     .Mode = DCMIPP_STAT_EXT_MODE_BINS,
 136:../../Middlewares/Camera_Middleware/ISP_Library/isp/Src/isp_services.c ****     .Source = DCMIPP_STAT_EXT_SOURCE_POST_DEMOS_L,
 137:../../Middlewares/Camera_Middleware/ISP_Library/isp/Src/isp_services.c ****     .Bins = DCMIPP_STAT_EXT_BINS_MODE_UPMID_BINS
 138:../../Middlewares/Camera_Middleware/ISP_Library/isp/Src/isp_services.c **** };
 139:../../Middlewares/Camera_Middleware/ISP_Library/isp/Src/isp_services.c **** 
ARM GAS  C:\Users\Antonio\AppData\Local\Temp\ccF6VN3M.s 			page 4


 140:../../Middlewares/Camera_Middleware/ISP_Library/isp/Src/isp_services.c **** static const DCMIPP_StatisticExtractionConfTypeDef statConfDownBins_9_11 = {
 141:../../Middlewares/Camera_Middleware/ISP_Library/isp/Src/isp_services.c ****     .Mode = DCMIPP_STAT_EXT_MODE_BINS,
 142:../../Middlewares/Camera_Middleware/ISP_Library/isp/Src/isp_services.c ****     .Source = DCMIPP_STAT_EXT_SOURCE_POST_DEMOS_L,
 143:../../Middlewares/Camera_Middleware/ISP_Library/isp/Src/isp_services.c ****     .Bins = DCMIPP_STAT_EXT_BINS_MODE_UP_BINS
 144:../../Middlewares/Camera_Middleware/ISP_Library/isp/Src/isp_services.c **** };
 145:../../Middlewares/Camera_Middleware/ISP_Library/isp/Src/isp_services.c **** 
 146:../../Middlewares/Camera_Middleware/ISP_Library/isp/Src/isp_services.c **** /* Exported variables --------------------------------------------------------*/
 147:../../Middlewares/Camera_Middleware/ISP_Library/isp/Src/isp_services.c **** extern ISP_MetaTypeDef Meta;
 148:../../Middlewares/Camera_Middleware/ISP_Library/isp/Src/isp_services.c **** 
 149:../../Middlewares/Camera_Middleware/ISP_Library/isp/Src/isp_services.c **** /* Private functions ---------------------------------------------------------*/
 150:../../Middlewares/Camera_Middleware/ISP_Library/isp/Src/isp_services.c **** static void To_Shift_Multiplier(uint32_t Factor, uint8_t *pShift, uint8_t *pMultiplier)
 151:../../Middlewares/Camera_Middleware/ISP_Library/isp/Src/isp_services.c **** {
 152:../../Middlewares/Camera_Middleware/ISP_Library/isp/Src/isp_services.c ****   /* Convert Factor (Unit = 100000000 for "x1.0") to Multiplier (where 128 means "x1.0") */
 153:../../Middlewares/Camera_Middleware/ISP_Library/isp/Src/isp_services.c ****   uint64_t Val = Factor;
 154:../../Middlewares/Camera_Middleware/ISP_Library/isp/Src/isp_services.c ****   Val = (Val * 128) / ISP_GAIN_PRECISION_FACTOR;
 155:../../Middlewares/Camera_Middleware/ISP_Library/isp/Src/isp_services.c **** 
 156:../../Middlewares/Camera_Middleware/ISP_Library/isp/Src/isp_services.c ****   /* Get Shift + Multiplier where Multiplier < 256 */
 157:../../Middlewares/Camera_Middleware/ISP_Library/isp/Src/isp_services.c ****   *pShift = 0;
 158:../../Middlewares/Camera_Middleware/ISP_Library/isp/Src/isp_services.c ****   while (Val >= 256)
 159:../../Middlewares/Camera_Middleware/ISP_Library/isp/Src/isp_services.c ****   {
 160:../../Middlewares/Camera_Middleware/ISP_Library/isp/Src/isp_services.c ****     Val /= 2;
 161:../../Middlewares/Camera_Middleware/ISP_Library/isp/Src/isp_services.c ****     (*pShift)++;
 162:../../Middlewares/Camera_Middleware/ISP_Library/isp/Src/isp_services.c ****   }
 163:../../Middlewares/Camera_Middleware/ISP_Library/isp/Src/isp_services.c **** 
 164:../../Middlewares/Camera_Middleware/ISP_Library/isp/Src/isp_services.c ****   *pMultiplier = Val;
 165:../../Middlewares/Camera_Middleware/ISP_Library/isp/Src/isp_services.c **** }
 166:../../Middlewares/Camera_Middleware/ISP_Library/isp/Src/isp_services.c **** 
 167:../../Middlewares/Camera_Middleware/ISP_Library/isp/Src/isp_services.c **** static uint32_t From_Shift_Multiplier(uint8_t Shift, uint8_t Multiplier)
 168:../../Middlewares/Camera_Middleware/ISP_Library/isp/Src/isp_services.c **** {
 169:../../Middlewares/Camera_Middleware/ISP_Library/isp/Src/isp_services.c ****   /* Convert Shift + Multiplier to Factor (Unit = 100000000 for "x1.0") */
 170:../../Middlewares/Camera_Middleware/ISP_Library/isp/Src/isp_services.c ****   uint64_t Val = (1 << Shift);
 171:../../Middlewares/Camera_Middleware/ISP_Library/isp/Src/isp_services.c ****   Val = (Val * Multiplier * ISP_GAIN_PRECISION_FACTOR) / 128;
 172:../../Middlewares/Camera_Middleware/ISP_Library/isp/Src/isp_services.c ****   return (uint32_t) Val;
 173:../../Middlewares/Camera_Middleware/ISP_Library/isp/Src/isp_services.c **** }
 174:../../Middlewares/Camera_Middleware/ISP_Library/isp/Src/isp_services.c **** 
 175:../../Middlewares/Camera_Middleware/ISP_Library/isp/Src/isp_services.c **** static int16_t To_CConv_Reg(int32_t Coeff)
 176:../../Middlewares/Camera_Middleware/ISP_Library/isp/Src/isp_services.c **** {
 177:../../Middlewares/Camera_Middleware/ISP_Library/isp/Src/isp_services.c ****   /* Convert Coefficient (Unit = 100000000 for "x1.0") to register format */
 178:../../Middlewares/Camera_Middleware/ISP_Library/isp/Src/isp_services.c ****   int64_t Val = Coeff;
 179:../../Middlewares/Camera_Middleware/ISP_Library/isp/Src/isp_services.c **** 
 180:../../Middlewares/Camera_Middleware/ISP_Library/isp/Src/isp_services.c ****   Val = (Val * 256) / ISP_CCM_PRECISION_FACTOR;
 181:../../Middlewares/Camera_Middleware/ISP_Library/isp/Src/isp_services.c **** 
 182:../../Middlewares/Camera_Middleware/ISP_Library/isp/Src/isp_services.c ****   return (int16_t) Val;
 183:../../Middlewares/Camera_Middleware/ISP_Library/isp/Src/isp_services.c **** }
 184:../../Middlewares/Camera_Middleware/ISP_Library/isp/Src/isp_services.c **** 
 185:../../Middlewares/Camera_Middleware/ISP_Library/isp/Src/isp_services.c **** static int32_t From_CConv_Reg(int16_t Reg)
 186:../../Middlewares/Camera_Middleware/ISP_Library/isp/Src/isp_services.c **** {
 187:../../Middlewares/Camera_Middleware/ISP_Library/isp/Src/isp_services.c ****   /* Convert from register format to Coefficient (Unit = 100000000 for "x1.0") */
 188:../../Middlewares/Camera_Middleware/ISP_Library/isp/Src/isp_services.c ****   int64_t Val = Reg;
 189:../../Middlewares/Camera_Middleware/ISP_Library/isp/Src/isp_services.c **** 
 190:../../Middlewares/Camera_Middleware/ISP_Library/isp/Src/isp_services.c ****   Val = (Val * ISP_CCM_PRECISION_FACTOR) / 256;
 191:../../Middlewares/Camera_Middleware/ISP_Library/isp/Src/isp_services.c **** 
 192:../../Middlewares/Camera_Middleware/ISP_Library/isp/Src/isp_services.c ****   return (int32_t) Val;
 193:../../Middlewares/Camera_Middleware/ISP_Library/isp/Src/isp_services.c **** }
 194:../../Middlewares/Camera_Middleware/ISP_Library/isp/Src/isp_services.c **** 
 195:../../Middlewares/Camera_Middleware/ISP_Library/isp/Src/isp_services.c **** static uint8_t GetAvgStats(ISP_HandleTypeDef *hIsp, ISP_SVC_StatLocation location, ISP_SVC_Componen
 196:../../Middlewares/Camera_Middleware/ISP_Library/isp/Src/isp_services.c **** {
ARM GAS  C:\Users\Antonio\AppData\Local\Temp\ccF6VN3M.s 			page 5


  34              		.loc 1 196 1 view -0
  35              		.cfi_startproc
  36              		@ args = 0, pretend = 0, frame = 0
  37              		@ frame_needed = 0, uses_anonymous_args = 0
 197:../../Middlewares/Camera_Middleware/ISP_Library/isp/Src/isp_services.c ****   uint32_t nb_comp_pix, comp_divider;
  38              		.loc 1 197 3 view .LVU1
 198:../../Middlewares/Camera_Middleware/ISP_Library/isp/Src/isp_services.c **** 
 199:../../Middlewares/Camera_Middleware/ISP_Library/isp/Src/isp_services.c ****   /* Number of pixels computed from Stat Area and considering decimation */
 200:../../Middlewares/Camera_Middleware/ISP_Library/isp/Src/isp_services.c ****   nb_comp_pix = hIsp->statArea.XSize * hIsp->statArea.YSize;
  39              		.loc 1 200 3 view .LVU2
 196:../../Middlewares/Camera_Middleware/ISP_Library/isp/Src/isp_services.c ****   uint32_t nb_comp_pix, comp_divider;
  40              		.loc 1 196 1 is_stmt 0 view .LVU3
  41 0000 10B5     		push	{r4, lr}
  42              		.cfi_def_cfa_offset 8
  43              		.cfi_offset 4, -8
  44              		.cfi_offset 14, -4
  45              		.loc 1 200 15 view .LVU4
  46 0002 D0E90440 		ldrd	r4, r0, [r0, #16]
  47              	.LVL1:
  48              		.loc 1 200 15 view .LVU5
  49 0006 6043     		muls	r0, r4, r0
  50              	.LVL2:
 201:../../Middlewares/Camera_Middleware/ISP_Library/isp/Src/isp_services.c ****   nb_comp_pix /= ISP_DecimationValue.factor * ISP_DecimationValue.factor;
  51              		.loc 1 201 3 is_stmt 1 view .LVU6
  52              		.loc 1 201 37 is_stmt 0 view .LVU7
  53 0008 0D4C     		ldr	r4, .L7
 202:../../Middlewares/Camera_Middleware/ISP_Library/isp/Src/isp_services.c **** 
 203:../../Middlewares/Camera_Middleware/ISP_Library/isp/Src/isp_services.c ****   if (location == ISP_STAT_LOC_DOWN)
  54              		.loc 1 203 6 view .LVU8
  55 000a 0229     		cmp	r1, #2
 201:../../Middlewares/Camera_Middleware/ISP_Library/isp/Src/isp_services.c ****   nb_comp_pix /= ISP_DecimationValue.factor * ISP_DecimationValue.factor;
  56              		.loc 1 201 37 view .LVU9
  57 000c 2478     		ldrb	r4, [r4]	@ zero_extendqisi2
 201:../../Middlewares/Camera_Middleware/ISP_Library/isp/Src/isp_services.c ****   nb_comp_pix /= ISP_DecimationValue.factor * ISP_DecimationValue.factor;
  58              		.loc 1 201 45 view .LVU10
  59 000e 04FB04F4 		mul	r4, r4, r4
 201:../../Middlewares/Camera_Middleware/ISP_Library/isp/Src/isp_services.c ****   nb_comp_pix /= ISP_DecimationValue.factor * ISP_DecimationValue.factor;
  60              		.loc 1 201 15 view .LVU11
  61 0012 B0FBF4F0 		udiv	r0, r0, r4
  62              	.LVL3:
  63              		.loc 1 203 3 is_stmt 1 view .LVU12
  64              		.loc 1 203 6 is_stmt 0 view .LVU13
  65 0016 10D0     		beq	.L4
 204:../../Middlewares/Camera_Middleware/ISP_Library/isp/Src/isp_services.c ****   {
 205:../../Middlewares/Camera_Middleware/ISP_Library/isp/Src/isp_services.c ****     /* RGB format after demosaicing : 1 component per pixel */
 206:../../Middlewares/Camera_Middleware/ISP_Library/isp/Src/isp_services.c ****     comp_divider = 1;
 207:../../Middlewares/Camera_Middleware/ISP_Library/isp/Src/isp_services.c ****   }
 208:../../Middlewares/Camera_Middleware/ISP_Library/isp/Src/isp_services.c ****   else
 209:../../Middlewares/Camera_Middleware/ISP_Library/isp/Src/isp_services.c ****   {
 210:../../Middlewares/Camera_Middleware/ISP_Library/isp/Src/isp_services.c ****     /* Only raw bayer sensor expected */
 211:../../Middlewares/Camera_Middleware/ISP_Library/isp/Src/isp_services.c ****     /* raw bayer: RGB component not present for all pixels */
 212:../../Middlewares/Camera_Middleware/ISP_Library/isp/Src/isp_services.c ****     comp_divider = (component == ISP_GREEN) ? 2 : 4;
  66              		.loc 1 212 5 is_stmt 1 view .LVU14
  67              		.loc 1 212 49 is_stmt 0 discriminator 1 view .LVU15
  68 0018 012A     		cmp	r2, #1
  69 001a 14BF     		ite	ne
  70 001c 0422     		movne	r2, #4
ARM GAS  C:\Users\Antonio\AppData\Local\Temp\ccF6VN3M.s 			page 6


  71              	.LVL4:
  72              		.loc 1 212 49 discriminator 1 view .LVU16
  73 001e 0222     		moveq	r2, #2
  74              	.L2:
  75              	.LVL5:
 213:../../Middlewares/Camera_Middleware/ISP_Library/isp/Src/isp_services.c ****   }
 214:../../Middlewares/Camera_Middleware/ISP_Library/isp/Src/isp_services.c **** 
 215:../../Middlewares/Camera_Middleware/ISP_Library/isp/Src/isp_services.c ****   /* Number of pixels per component */
 216:../../Middlewares/Camera_Middleware/ISP_Library/isp/Src/isp_services.c ****   nb_comp_pix /= comp_divider;
  76              		.loc 1 216 3 is_stmt 1 view .LVU17
 217:../../Middlewares/Camera_Middleware/ISP_Library/isp/Src/isp_services.c **** 
 218:../../Middlewares/Camera_Middleware/ISP_Library/isp/Src/isp_services.c ****   /* Compute average (rounding to closest integer) */
 219:../../Middlewares/Camera_Middleware/ISP_Library/isp/Src/isp_services.c ****   if (nb_comp_pix == 0)
  77              		.loc 1 219 3 view .LVU18
  78              		.loc 1 219 6 is_stmt 0 view .LVU19
  79 0020 8242     		cmp	r2, r0
 216:../../Middlewares/Camera_Middleware/ISP_Library/isp/Src/isp_services.c **** 
  80              		.loc 1 216 15 view .LVU20
  81 0022 9FBF     		itttt	ls
  82 0024 B0FBF2F0 		udivls	r0, r0, r2
  83              	.LVL6:
 220:../../Middlewares/Camera_Middleware/ISP_Library/isp/Src/isp_services.c ****   {
 221:../../Middlewares/Camera_Middleware/ISP_Library/isp/Src/isp_services.c ****     return 0;
 222:../../Middlewares/Camera_Middleware/ISP_Library/isp/Src/isp_services.c ****   }
 223:../../Middlewares/Camera_Middleware/ISP_Library/isp/Src/isp_services.c **** 
 224:../../Middlewares/Camera_Middleware/ISP_Library/isp/Src/isp_services.c ****   return ((accu * 256) + (nb_comp_pix / 2)) / nb_comp_pix;
  84              		.loc 1 224 3 is_stmt 1 view .LVU21
  85              		.loc 1 224 39 is_stmt 0 view .LVU22
  86 0028 4208     		lsrls	r2, r0, #1
  87              	.LVL7:
  88              		.loc 1 224 24 view .LVU23
  89 002a 02EB0323 		addls	r3, r2, r3, lsl #8
  90              	.LVL8:
  91              		.loc 1 224 45 view .LVU24
  92 002e B3FBF0F0 		udivls	r0, r3, r0
 221:../../Middlewares/Camera_Middleware/ISP_Library/isp/Src/isp_services.c ****   }
  93              		.loc 1 221 12 view .LVU25
  94 0032 8CBF     		ite	hi
  95 0034 0020     		movhi	r0, #0
  96              		.loc 1 224 45 view .LVU26
  97 0036 C0B2     		uxtbls	r0, r0
 225:../../Middlewares/Camera_Middleware/ISP_Library/isp/Src/isp_services.c **** }
  98              		.loc 1 225 1 view .LVU27
  99 0038 10BD     		pop	{r4, pc}
 100              	.LVL9:
 101              	.L4:
 206:../../Middlewares/Camera_Middleware/ISP_Library/isp/Src/isp_services.c ****   }
 102              		.loc 1 206 18 view .LVU28
 103 003a 0122     		movs	r2, #1
 104              	.LVL10:
 206:../../Middlewares/Camera_Middleware/ISP_Library/isp/Src/isp_services.c ****   }
 105              		.loc 1 206 18 view .LVU29
 106 003c F0E7     		b	.L2
 107              	.L8:
 108 003e 00BF     		.align	2
 109              	.L7:
 110 0040 00000000 		.word	ISP_DecimationValue
ARM GAS  C:\Users\Antonio\AppData\Local\Temp\ccF6VN3M.s 			page 7


 111              		.cfi_endproc
 112              	.LFE842:
 114              		.section	.text.SetStatConfig,"ax",%progbits
 115              		.align	1
 116              		.syntax unified
 117              		.thumb
 118              		.thumb_func
 120              	SetStatConfig:
 121              	.LVL11:
 122              	.LFB844:
 226:../../Middlewares/Camera_Middleware/ISP_Library/isp/Src/isp_services.c **** 
 227:../../Middlewares/Camera_Middleware/ISP_Library/isp/Src/isp_services.c **** static void ReadStatHistogram(ISP_HandleTypeDef *hIsp, uint32_t *histogram)
 228:../../Middlewares/Camera_Middleware/ISP_Library/isp/Src/isp_services.c **** {
 229:../../Middlewares/Camera_Middleware/ISP_Library/isp/Src/isp_services.c ****   for (uint32_t i = DCMIPP_STATEXT_MODULE1; i <= DCMIPP_STATEXT_MODULE3; i++)
 230:../../Middlewares/Camera_Middleware/ISP_Library/isp/Src/isp_services.c ****   {
 231:../../Middlewares/Camera_Middleware/ISP_Library/isp/Src/isp_services.c ****     HAL_DCMIPP_PIPE_GetISPAccumulatedStatisticsCounter(hIsp->hDcmipp, DCMIPP_PIPE1, i, &(histogram[
 232:../../Middlewares/Camera_Middleware/ISP_Library/isp/Src/isp_services.c ****   }
 233:../../Middlewares/Camera_Middleware/ISP_Library/isp/Src/isp_services.c **** }
 234:../../Middlewares/Camera_Middleware/ISP_Library/isp/Src/isp_services.c **** 
 235:../../Middlewares/Camera_Middleware/ISP_Library/isp/Src/isp_services.c **** static void SetStatConfig(DCMIPP_StatisticExtractionConfTypeDef *statConf, const DCMIPP_StatisticEx
 236:../../Middlewares/Camera_Middleware/ISP_Library/isp/Src/isp_services.c **** {
 123              		.loc 1 236 1 is_stmt 1 view -0
 124              		.cfi_startproc
 125              		@ args = 0, pretend = 0, frame = 0
 126              		@ frame_needed = 0, uses_anonymous_args = 0
 237:../../Middlewares/Camera_Middleware/ISP_Library/isp/Src/isp_services.c ****   for (int i = 0; i < 3; i++)
 127              		.loc 1 237 3 view .LVU31
 128              	.LBB58:
 129              		.loc 1 237 8 view .LVU32
 130              		.loc 1 237 21 discriminator 1 view .LVU33
 131              	.LBE58:
 236:../../Middlewares/Camera_Middleware/ISP_Library/isp/Src/isp_services.c ****   for (int i = 0; i < 3; i++)
 132              		.loc 1 236 1 is_stmt 0 view .LVU34
 133 0000 F0B5     		push	{r4, r5, r6, r7, lr}
 134              		.cfi_def_cfa_offset 20
 135              		.cfi_offset 4, -20
 136              		.cfi_offset 5, -16
 137              		.cfi_offset 6, -12
 138              		.cfi_offset 7, -8
 139              		.cfi_offset 14, -4
 236:../../Middlewares/Camera_Middleware/ISP_Library/isp/Src/isp_services.c ****   for (int i = 0; i < 3; i++)
 140              		.loc 1 236 1 view .LVU35
 141 0002 0B46     		mov	r3, r1
 142 0004 0646     		mov	r6, r0
 143              	.LBB59:
 144              		.loc 1 237 12 view .LVU36
 145 0006 0024     		movs	r4, #0
 238:../../Middlewares/Camera_Middleware/ISP_Library/isp/Src/isp_services.c ****   {
 239:../../Middlewares/Camera_Middleware/ISP_Library/isp/Src/isp_services.c ****     statConf[i] = *refConfig;
 146              		.loc 1 239 17 view .LVU37
 147 0008 0C27     		movs	r7, #12
 148              	.LVL12:
 149              	.L10:
 150              		.loc 1 239 5 is_stmt 1 view .LVU38
 151              		.loc 1 239 17 is_stmt 0 view .LVU39
 152 000a 93E80700 		ldm	r3, {r0, r1, r2}
 153 000e 07FB0465 		mla	r5, r7, r4, r6
ARM GAS  C:\Users\Antonio\AppData\Local\Temp\ccF6VN3M.s 			page 8


 237:../../Middlewares/Camera_Middleware/ISP_Library/isp/Src/isp_services.c ****   {
 154              		.loc 1 237 27 discriminator 3 view .LVU40
 155 0012 0134     		adds	r4, r4, #1
 156              	.LVL13:
 237:../../Middlewares/Camera_Middleware/ISP_Library/isp/Src/isp_services.c ****   {
 157              		.loc 1 237 21 discriminator 1 view .LVU41
 158 0014 032C     		cmp	r4, #3
 159              		.loc 1 239 17 view .LVU42
 160 0016 85E80700 		stm	r5, {r0, r1, r2}
 237:../../Middlewares/Camera_Middleware/ISP_Library/isp/Src/isp_services.c ****   {
 161              		.loc 1 237 27 is_stmt 1 discriminator 3 view .LVU43
 162              	.LVL14:
 237:../../Middlewares/Camera_Middleware/ISP_Library/isp/Src/isp_services.c ****   {
 163              		.loc 1 237 21 discriminator 1 view .LVU44
 164 001a F6D1     		bne	.L10
 165              	.LBE59:
 240:../../Middlewares/Camera_Middleware/ISP_Library/isp/Src/isp_services.c ****   }
 241:../../Middlewares/Camera_Middleware/ISP_Library/isp/Src/isp_services.c **** }
 166              		.loc 1 241 1 is_stmt 0 view .LVU45
 167 001c F0BD     		pop	{r4, r5, r6, r7, pc}
 168              		.loc 1 241 1 view .LVU46
 169              		.cfi_endproc
 170              	.LFE844:
 172              		.section	.text.ReadStatHistogram,"ax",%progbits
 173              		.align	1
 174              		.syntax unified
 175              		.thumb
 176              		.thumb_func
 178              	ReadStatHistogram:
 179              	.LVL15:
 180              	.LFB843:
 228:../../Middlewares/Camera_Middleware/ISP_Library/isp/Src/isp_services.c ****   for (uint32_t i = DCMIPP_STATEXT_MODULE1; i <= DCMIPP_STATEXT_MODULE3; i++)
 181              		.loc 1 228 1 is_stmt 1 view -0
 182              		.cfi_startproc
 183              		@ args = 0, pretend = 0, frame = 0
 184              		@ frame_needed = 0, uses_anonymous_args = 0
 229:../../Middlewares/Camera_Middleware/ISP_Library/isp/Src/isp_services.c ****   {
 185              		.loc 1 229 3 view .LVU48
 186              	.LBB60:
 229:../../Middlewares/Camera_Middleware/ISP_Library/isp/Src/isp_services.c ****   {
 187              		.loc 1 229 8 view .LVU49
 229:../../Middlewares/Camera_Middleware/ISP_Library/isp/Src/isp_services.c ****   {
 188              		.loc 1 229 47 discriminator 1 view .LVU50
 189              	.LBE60:
 228:../../Middlewares/Camera_Middleware/ISP_Library/isp/Src/isp_services.c ****   for (uint32_t i = DCMIPP_STATEXT_MODULE1; i <= DCMIPP_STATEXT_MODULE3; i++)
 190              		.loc 1 228 1 is_stmt 0 view .LVU51
 191 0000 70B5     		push	{r4, r5, r6, lr}
 192              		.cfi_def_cfa_offset 16
 193              		.cfi_offset 4, -16
 194              		.cfi_offset 5, -12
 195              		.cfi_offset 6, -8
 196              		.cfi_offset 14, -4
 228:../../Middlewares/Camera_Middleware/ISP_Library/isp/Src/isp_services.c ****   for (uint32_t i = DCMIPP_STATEXT_MODULE1; i <= DCMIPP_STATEXT_MODULE3; i++)
 197              		.loc 1 228 1 view .LVU52
 198 0002 0646     		mov	r6, r0
 199 0004 0C46     		mov	r4, r1
 200              	.LBB61:
ARM GAS  C:\Users\Antonio\AppData\Local\Temp\ccF6VN3M.s 			page 9


 229:../../Middlewares/Camera_Middleware/ISP_Library/isp/Src/isp_services.c ****   {
 201              		.loc 1 229 17 view .LVU53
 202 0006 0125     		movs	r5, #1
 203              	.LVL16:
 204              	.L13:
 231:../../Middlewares/Camera_Middleware/ISP_Library/isp/Src/isp_services.c ****   }
 205              		.loc 1 231 5 is_stmt 1 view .LVU54
 206 0008 2346     		mov	r3, r4
 207 000a EAB2     		uxtb	r2, r5
 208 000c 0121     		movs	r1, #1
 209 000e 3068     		ldr	r0, [r6]
 229:../../Middlewares/Camera_Middleware/ISP_Library/isp/Src/isp_services.c ****   {
 210              		.loc 1 229 75 is_stmt 0 discriminator 3 view .LVU55
 211 0010 0135     		adds	r5, r5, #1
 212              	.LVL17:
 231:../../Middlewares/Camera_Middleware/ISP_Library/isp/Src/isp_services.c ****   }
 213              		.loc 1 231 5 view .LVU56
 214 0012 FFF7FEFF 		bl	HAL_DCMIPP_PIPE_GetISPAccumulatedStatisticsCounter
 215              	.LVL18:
 229:../../Middlewares/Camera_Middleware/ISP_Library/isp/Src/isp_services.c ****   {
 216              		.loc 1 229 75 is_stmt 1 discriminator 3 view .LVU57
 229:../../Middlewares/Camera_Middleware/ISP_Library/isp/Src/isp_services.c ****   {
 217              		.loc 1 229 47 discriminator 1 view .LVU58
 218 0016 042D     		cmp	r5, #4
 219 0018 04F10404 		add	r4, r4, #4
 220 001c F4D1     		bne	.L13
 221              	.LBE61:
 233:../../Middlewares/Camera_Middleware/ISP_Library/isp/Src/isp_services.c **** 
 222              		.loc 1 233 1 is_stmt 0 view .LVU59
 223 001e 70BD     		pop	{r4, r5, r6, pc}
 233:../../Middlewares/Camera_Middleware/ISP_Library/isp/Src/isp_services.c **** 
 224              		.loc 1 233 1 view .LVU60
 225              		.cfi_endproc
 226              	.LFE843:
 228              		.section	.text.LuminanceFromRGB,"ax",%progbits
 229              		.align	1
 230              		.global	LuminanceFromRGB
 231              		.syntax unified
 232              		.thumb
 233              		.thumb_func
 235              	LuminanceFromRGB:
 236              	.LVL19:
 237              	.LFB848:
 242:../../Middlewares/Camera_Middleware/ISP_Library/isp/Src/isp_services.c **** 
 243:../../Middlewares/Camera_Middleware/ISP_Library/isp/Src/isp_services.c **** static ISP_SVC_StatEngineStage GetNextStatStage(ISP_SVC_StatEngineStage current)
 244:../../Middlewares/Camera_Middleware/ISP_Library/isp/Src/isp_services.c **** {
 245:../../Middlewares/Camera_Middleware/ISP_Library/isp/Src/isp_services.c ****   ISP_SVC_StatEngineStage next = ISP_STAT_CFG_LAST;
 246:../../Middlewares/Camera_Middleware/ISP_Library/isp/Src/isp_services.c **** 
 247:../../Middlewares/Camera_Middleware/ISP_Library/isp/Src/isp_services.c ****   /* Special mode for IQ tuning tool asking for all stats : go the the next step, no skip */
 248:../../Middlewares/Camera_Middleware/ISP_Library/isp/Src/isp_services.c ****   if ((ISP_SVC_StatEngine.upRequest & ISP_STAT_TYPE_ALL_TMP) ||
 249:../../Middlewares/Camera_Middleware/ISP_Library/isp/Src/isp_services.c ****       (ISP_SVC_StatEngine.downRequest & ISP_STAT_TYPE_ALL_TMP))
 250:../../Middlewares/Camera_Middleware/ISP_Library/isp/Src/isp_services.c ****   {
 251:../../Middlewares/Camera_Middleware/ISP_Library/isp/Src/isp_services.c ****     next = (ISP_SVC_StatEngineStage) ((current < ISP_STAT_CFG_LAST) ? current + 1 : ISP_STAT_CFG_UP
 252:../../Middlewares/Camera_Middleware/ISP_Library/isp/Src/isp_services.c ****     return next;
 253:../../Middlewares/Camera_Middleware/ISP_Library/isp/Src/isp_services.c ****   }
 254:../../Middlewares/Camera_Middleware/ISP_Library/isp/Src/isp_services.c **** 
 255:../../Middlewares/Camera_Middleware/ISP_Library/isp/Src/isp_services.c ****   /* Follow the below stage cycle, skipping steps where stats are not requested:
ARM GAS  C:\Users\Antonio\AppData\Local\Temp\ccF6VN3M.s 			page 10


 256:../../Middlewares/Camera_Middleware/ISP_Library/isp/Src/isp_services.c ****    * - ISP_STAT_CFG_UP_AVG
 257:../../Middlewares/Camera_Middleware/ISP_Library/isp/Src/isp_services.c ****    * - ISP_STAT_CFG_UP_BINS_0_2 + BINS_3_5 + BINS_6_8 + BINS_9_11
 258:../../Middlewares/Camera_Middleware/ISP_Library/isp/Src/isp_services.c ****    * - ISP_STAT_CFG_DOWN_AVG
 259:../../Middlewares/Camera_Middleware/ISP_Library/isp/Src/isp_services.c ****    * - ISP_STAT_CFG_DOWN_BINS_0_2 + BINS_3_5 + BINS_6_8 + BINS_9_11
 260:../../Middlewares/Camera_Middleware/ISP_Library/isp/Src/isp_services.c ****   */
 261:../../Middlewares/Camera_Middleware/ISP_Library/isp/Src/isp_services.c ****   switch (current)
 262:../../Middlewares/Camera_Middleware/ISP_Library/isp/Src/isp_services.c ****   {
 263:../../Middlewares/Camera_Middleware/ISP_Library/isp/Src/isp_services.c ****   case ISP_STAT_CFG_UP_AVG:
 264:../../Middlewares/Camera_Middleware/ISP_Library/isp/Src/isp_services.c ****     /* Try Up Bins */
 265:../../Middlewares/Camera_Middleware/ISP_Library/isp/Src/isp_services.c ****     if (ISP_SVC_StatEngine.upRequest & ISP_STAT_TYPE_BINS)
 266:../../Middlewares/Camera_Middleware/ISP_Library/isp/Src/isp_services.c ****     {
 267:../../Middlewares/Camera_Middleware/ISP_Library/isp/Src/isp_services.c ****       next = ISP_STAT_CFG_UP_BINS_0_2;
 268:../../Middlewares/Camera_Middleware/ISP_Library/isp/Src/isp_services.c ****     }
 269:../../Middlewares/Camera_Middleware/ISP_Library/isp/Src/isp_services.c ****     /* Skip Up Bins : try Down Avg */
 270:../../Middlewares/Camera_Middleware/ISP_Library/isp/Src/isp_services.c ****     else if (ISP_SVC_StatEngine.downRequest &  ISP_STAT_TYPE_AVG)
 271:../../Middlewares/Camera_Middleware/ISP_Library/isp/Src/isp_services.c ****     {
 272:../../Middlewares/Camera_Middleware/ISP_Library/isp/Src/isp_services.c ****       next = ISP_STAT_CFG_DOWN_AVG;
 273:../../Middlewares/Camera_Middleware/ISP_Library/isp/Src/isp_services.c ****     }
 274:../../Middlewares/Camera_Middleware/ISP_Library/isp/Src/isp_services.c ****     /* Skip Down Avg : try Down Bins */
 275:../../Middlewares/Camera_Middleware/ISP_Library/isp/Src/isp_services.c ****     else if (ISP_SVC_StatEngine.downRequest & ISP_STAT_TYPE_BINS)
 276:../../Middlewares/Camera_Middleware/ISP_Library/isp/Src/isp_services.c ****     {
 277:../../Middlewares/Camera_Middleware/ISP_Library/isp/Src/isp_services.c ****       next = ISP_STAT_CFG_DOWN_BINS_0_2;
 278:../../Middlewares/Camera_Middleware/ISP_Library/isp/Src/isp_services.c ****     }
 279:../../Middlewares/Camera_Middleware/ISP_Library/isp/Src/isp_services.c ****     /* Skip Down Bins : try Up Avg */
 280:../../Middlewares/Camera_Middleware/ISP_Library/isp/Src/isp_services.c ****     else if (ISP_SVC_StatEngine.upRequest & ISP_STAT_TYPE_AVG)
 281:../../Middlewares/Camera_Middleware/ISP_Library/isp/Src/isp_services.c ****     {
 282:../../Middlewares/Camera_Middleware/ISP_Library/isp/Src/isp_services.c ****       next = ISP_STAT_CFG_UP_AVG;
 283:../../Middlewares/Camera_Middleware/ISP_Library/isp/Src/isp_services.c ****     }
 284:../../Middlewares/Camera_Middleware/ISP_Library/isp/Src/isp_services.c ****     break;
 285:../../Middlewares/Camera_Middleware/ISP_Library/isp/Src/isp_services.c **** 
 286:../../Middlewares/Camera_Middleware/ISP_Library/isp/Src/isp_services.c ****   case ISP_STAT_CFG_UP_BINS_9_11:
 287:../../Middlewares/Camera_Middleware/ISP_Library/isp/Src/isp_services.c ****     /* Try Down Avg */
 288:../../Middlewares/Camera_Middleware/ISP_Library/isp/Src/isp_services.c ****     if (ISP_SVC_StatEngine.downRequest & ISP_STAT_TYPE_AVG)
 289:../../Middlewares/Camera_Middleware/ISP_Library/isp/Src/isp_services.c ****     {
 290:../../Middlewares/Camera_Middleware/ISP_Library/isp/Src/isp_services.c ****       next = ISP_STAT_CFG_DOWN_AVG;
 291:../../Middlewares/Camera_Middleware/ISP_Library/isp/Src/isp_services.c ****     }
 292:../../Middlewares/Camera_Middleware/ISP_Library/isp/Src/isp_services.c ****     /* Skip Down Avg : try Down Bins */
 293:../../Middlewares/Camera_Middleware/ISP_Library/isp/Src/isp_services.c ****     else if (ISP_SVC_StatEngine.downRequest & ISP_STAT_TYPE_BINS)
 294:../../Middlewares/Camera_Middleware/ISP_Library/isp/Src/isp_services.c ****     {
 295:../../Middlewares/Camera_Middleware/ISP_Library/isp/Src/isp_services.c ****       next = ISP_STAT_CFG_DOWN_BINS_0_2;
 296:../../Middlewares/Camera_Middleware/ISP_Library/isp/Src/isp_services.c ****     }
 297:../../Middlewares/Camera_Middleware/ISP_Library/isp/Src/isp_services.c ****     /* Skip Down Bins : try Up Avg */
 298:../../Middlewares/Camera_Middleware/ISP_Library/isp/Src/isp_services.c ****     else if (ISP_SVC_StatEngine.upRequest & ISP_STAT_TYPE_AVG)
 299:../../Middlewares/Camera_Middleware/ISP_Library/isp/Src/isp_services.c ****     {
 300:../../Middlewares/Camera_Middleware/ISP_Library/isp/Src/isp_services.c ****       next = ISP_STAT_CFG_UP_AVG;
 301:../../Middlewares/Camera_Middleware/ISP_Library/isp/Src/isp_services.c ****     }
 302:../../Middlewares/Camera_Middleware/ISP_Library/isp/Src/isp_services.c ****     /* Skip Up Avg : try on Up Bins */
 303:../../Middlewares/Camera_Middleware/ISP_Library/isp/Src/isp_services.c ****     else if (ISP_SVC_StatEngine.upRequest & ISP_STAT_TYPE_BINS)
 304:../../Middlewares/Camera_Middleware/ISP_Library/isp/Src/isp_services.c ****     {
 305:../../Middlewares/Camera_Middleware/ISP_Library/isp/Src/isp_services.c ****       next = ISP_STAT_CFG_UP_BINS_0_2;
 306:../../Middlewares/Camera_Middleware/ISP_Library/isp/Src/isp_services.c ****     }
 307:../../Middlewares/Camera_Middleware/ISP_Library/isp/Src/isp_services.c ****     break;
 308:../../Middlewares/Camera_Middleware/ISP_Library/isp/Src/isp_services.c **** 
 309:../../Middlewares/Camera_Middleware/ISP_Library/isp/Src/isp_services.c ****   case ISP_STAT_CFG_DOWN_AVG:
 310:../../Middlewares/Camera_Middleware/ISP_Library/isp/Src/isp_services.c ****     /* Try Down Bins */
 311:../../Middlewares/Camera_Middleware/ISP_Library/isp/Src/isp_services.c ****     if (ISP_SVC_StatEngine.downRequest & ISP_STAT_TYPE_BINS)
 312:../../Middlewares/Camera_Middleware/ISP_Library/isp/Src/isp_services.c ****     {
ARM GAS  C:\Users\Antonio\AppData\Local\Temp\ccF6VN3M.s 			page 11


 313:../../Middlewares/Camera_Middleware/ISP_Library/isp/Src/isp_services.c ****       next = ISP_STAT_CFG_DOWN_BINS_0_2;
 314:../../Middlewares/Camera_Middleware/ISP_Library/isp/Src/isp_services.c ****     }
 315:../../Middlewares/Camera_Middleware/ISP_Library/isp/Src/isp_services.c ****     /* Skip Down Bins : try Up Avg */
 316:../../Middlewares/Camera_Middleware/ISP_Library/isp/Src/isp_services.c ****     else if (ISP_SVC_StatEngine.upRequest & ISP_STAT_TYPE_AVG)
 317:../../Middlewares/Camera_Middleware/ISP_Library/isp/Src/isp_services.c ****     {
 318:../../Middlewares/Camera_Middleware/ISP_Library/isp/Src/isp_services.c ****       next = ISP_STAT_CFG_UP_AVG;
 319:../../Middlewares/Camera_Middleware/ISP_Library/isp/Src/isp_services.c ****     }
 320:../../Middlewares/Camera_Middleware/ISP_Library/isp/Src/isp_services.c ****     /* Skip Up Avg : try Up Bins */
 321:../../Middlewares/Camera_Middleware/ISP_Library/isp/Src/isp_services.c ****     else if (ISP_SVC_StatEngine.upRequest & ISP_STAT_TYPE_BINS)
 322:../../Middlewares/Camera_Middleware/ISP_Library/isp/Src/isp_services.c ****     {
 323:../../Middlewares/Camera_Middleware/ISP_Library/isp/Src/isp_services.c ****       next = ISP_STAT_CFG_UP_BINS_0_2;
 324:../../Middlewares/Camera_Middleware/ISP_Library/isp/Src/isp_services.c ****     }
 325:../../Middlewares/Camera_Middleware/ISP_Library/isp/Src/isp_services.c ****     /* Skip Up Bins : try Down Avg */
 326:../../Middlewares/Camera_Middleware/ISP_Library/isp/Src/isp_services.c ****     else if (ISP_SVC_StatEngine.downRequest & ISP_STAT_TYPE_AVG)
 327:../../Middlewares/Camera_Middleware/ISP_Library/isp/Src/isp_services.c ****     {
 328:../../Middlewares/Camera_Middleware/ISP_Library/isp/Src/isp_services.c ****       next = ISP_STAT_CFG_DOWN_AVG;
 329:../../Middlewares/Camera_Middleware/ISP_Library/isp/Src/isp_services.c ****     }
 330:../../Middlewares/Camera_Middleware/ISP_Library/isp/Src/isp_services.c ****     break;
 331:../../Middlewares/Camera_Middleware/ISP_Library/isp/Src/isp_services.c **** 
 332:../../Middlewares/Camera_Middleware/ISP_Library/isp/Src/isp_services.c ****   case ISP_STAT_CFG_DOWN_BINS_9_11:
 333:../../Middlewares/Camera_Middleware/ISP_Library/isp/Src/isp_services.c ****     /* Try Up Avg */
 334:../../Middlewares/Camera_Middleware/ISP_Library/isp/Src/isp_services.c ****     if (ISP_SVC_StatEngine.upRequest & ISP_STAT_TYPE_AVG)
 335:../../Middlewares/Camera_Middleware/ISP_Library/isp/Src/isp_services.c ****     {
 336:../../Middlewares/Camera_Middleware/ISP_Library/isp/Src/isp_services.c ****       next = ISP_STAT_CFG_UP_AVG;
 337:../../Middlewares/Camera_Middleware/ISP_Library/isp/Src/isp_services.c ****     }
 338:../../Middlewares/Camera_Middleware/ISP_Library/isp/Src/isp_services.c ****     /* Skip Up Avg : try Up Bins */
 339:../../Middlewares/Camera_Middleware/ISP_Library/isp/Src/isp_services.c ****     else if (ISP_SVC_StatEngine.upRequest & ISP_STAT_TYPE_BINS)
 340:../../Middlewares/Camera_Middleware/ISP_Library/isp/Src/isp_services.c ****     {
 341:../../Middlewares/Camera_Middleware/ISP_Library/isp/Src/isp_services.c ****       next = ISP_STAT_CFG_UP_BINS_0_2;
 342:../../Middlewares/Camera_Middleware/ISP_Library/isp/Src/isp_services.c ****     }
 343:../../Middlewares/Camera_Middleware/ISP_Library/isp/Src/isp_services.c ****     /* Skip Up Bins : try Down Avg */
 344:../../Middlewares/Camera_Middleware/ISP_Library/isp/Src/isp_services.c ****     else if (ISP_SVC_StatEngine.downRequest & ISP_STAT_TYPE_AVG)
 345:../../Middlewares/Camera_Middleware/ISP_Library/isp/Src/isp_services.c ****     {
 346:../../Middlewares/Camera_Middleware/ISP_Library/isp/Src/isp_services.c ****       next = ISP_STAT_CFG_DOWN_AVG;
 347:../../Middlewares/Camera_Middleware/ISP_Library/isp/Src/isp_services.c ****     }
 348:../../Middlewares/Camera_Middleware/ISP_Library/isp/Src/isp_services.c ****     /* Skip Down Avg : try Down Bins */
 349:../../Middlewares/Camera_Middleware/ISP_Library/isp/Src/isp_services.c ****     else if (ISP_SVC_StatEngine.downRequest & ISP_STAT_TYPE_BINS)
 350:../../Middlewares/Camera_Middleware/ISP_Library/isp/Src/isp_services.c ****     {
 351:../../Middlewares/Camera_Middleware/ISP_Library/isp/Src/isp_services.c ****       next = ISP_STAT_CFG_DOWN_BINS_0_2;
 352:../../Middlewares/Camera_Middleware/ISP_Library/isp/Src/isp_services.c ****     }
 353:../../Middlewares/Camera_Middleware/ISP_Library/isp/Src/isp_services.c ****     break;
 354:../../Middlewares/Camera_Middleware/ISP_Library/isp/Src/isp_services.c **** 
 355:../../Middlewares/Camera_Middleware/ISP_Library/isp/Src/isp_services.c ****   default:
 356:../../Middlewares/Camera_Middleware/ISP_Library/isp/Src/isp_services.c ****     /* In the middle of the bins measurement: continue with the next bins part */
 357:../../Middlewares/Camera_Middleware/ISP_Library/isp/Src/isp_services.c ****     next = (ISP_SVC_StatEngineStage) (current + 1);
 358:../../Middlewares/Camera_Middleware/ISP_Library/isp/Src/isp_services.c ****     break;
 359:../../Middlewares/Camera_Middleware/ISP_Library/isp/Src/isp_services.c ****   }
 360:../../Middlewares/Camera_Middleware/ISP_Library/isp/Src/isp_services.c **** 
 361:../../Middlewares/Camera_Middleware/ISP_Library/isp/Src/isp_services.c ****   return next;
 362:../../Middlewares/Camera_Middleware/ISP_Library/isp/Src/isp_services.c **** }
 363:../../Middlewares/Camera_Middleware/ISP_Library/isp/Src/isp_services.c **** 
 364:../../Middlewares/Camera_Middleware/ISP_Library/isp/Src/isp_services.c **** static ISP_SVC_StatEngineStage GetStatCycleStart(ISP_SVC_StatLocation location)
 365:../../Middlewares/Camera_Middleware/ISP_Library/isp/Src/isp_services.c **** {
 366:../../Middlewares/Camera_Middleware/ISP_Library/isp/Src/isp_services.c ****   ISP_SVC_StatEngineStage stage;
 367:../../Middlewares/Camera_Middleware/ISP_Library/isp/Src/isp_services.c **** 
 368:../../Middlewares/Camera_Middleware/ISP_Library/isp/Src/isp_services.c ****   if (location == ISP_STAT_LOC_UP)
 369:../../Middlewares/Camera_Middleware/ISP_Library/isp/Src/isp_services.c ****   {
ARM GAS  C:\Users\Antonio\AppData\Local\Temp\ccF6VN3M.s 			page 12


 370:../../Middlewares/Camera_Middleware/ISP_Library/isp/Src/isp_services.c ****     if ((ISP_SVC_StatEngine.upRequest & ISP_STAT_TYPE_AVG) ||
 371:../../Middlewares/Camera_Middleware/ISP_Library/isp/Src/isp_services.c ****         (ISP_SVC_StatEngine.upRequest & ISP_STAT_TYPE_ALL_TMP))
 372:../../Middlewares/Camera_Middleware/ISP_Library/isp/Src/isp_services.c ****     {
 373:../../Middlewares/Camera_Middleware/ISP_Library/isp/Src/isp_services.c ****       /* Stat up cycle starts with AVG measurement */
 374:../../Middlewares/Camera_Middleware/ISP_Library/isp/Src/isp_services.c ****       stage = ISP_STAT_CFG_UP_AVG;
 375:../../Middlewares/Camera_Middleware/ISP_Library/isp/Src/isp_services.c ****     }
 376:../../Middlewares/Camera_Middleware/ISP_Library/isp/Src/isp_services.c ****     else
 377:../../Middlewares/Camera_Middleware/ISP_Library/isp/Src/isp_services.c ****     {
 378:../../Middlewares/Camera_Middleware/ISP_Library/isp/Src/isp_services.c ****       /* Stat up cycle starts with 1st BIN measurement */
 379:../../Middlewares/Camera_Middleware/ISP_Library/isp/Src/isp_services.c ****       stage = ISP_STAT_CFG_UP_BINS_0_2;
 380:../../Middlewares/Camera_Middleware/ISP_Library/isp/Src/isp_services.c ****     }
 381:../../Middlewares/Camera_Middleware/ISP_Library/isp/Src/isp_services.c ****   }
 382:../../Middlewares/Camera_Middleware/ISP_Library/isp/Src/isp_services.c ****   else
 383:../../Middlewares/Camera_Middleware/ISP_Library/isp/Src/isp_services.c ****   {
 384:../../Middlewares/Camera_Middleware/ISP_Library/isp/Src/isp_services.c ****     if ((ISP_SVC_StatEngine.downRequest & ISP_STAT_TYPE_AVG) ||
 385:../../Middlewares/Camera_Middleware/ISP_Library/isp/Src/isp_services.c ****         (ISP_SVC_StatEngine.downRequest & ISP_STAT_TYPE_ALL_TMP))
 386:../../Middlewares/Camera_Middleware/ISP_Library/isp/Src/isp_services.c ****     {
 387:../../Middlewares/Camera_Middleware/ISP_Library/isp/Src/isp_services.c ****       /* Stat down cycle starts with AVG measurement */
 388:../../Middlewares/Camera_Middleware/ISP_Library/isp/Src/isp_services.c ****       stage = ISP_STAT_CFG_DOWN_AVG;
 389:../../Middlewares/Camera_Middleware/ISP_Library/isp/Src/isp_services.c ****     }
 390:../../Middlewares/Camera_Middleware/ISP_Library/isp/Src/isp_services.c ****     else
 391:../../Middlewares/Camera_Middleware/ISP_Library/isp/Src/isp_services.c ****     {
 392:../../Middlewares/Camera_Middleware/ISP_Library/isp/Src/isp_services.c ****       /* Stat down cycle starts with 1st BIN measurement */
 393:../../Middlewares/Camera_Middleware/ISP_Library/isp/Src/isp_services.c ****       stage = ISP_STAT_CFG_DOWN_BINS_0_2;
 394:../../Middlewares/Camera_Middleware/ISP_Library/isp/Src/isp_services.c ****     }
 395:../../Middlewares/Camera_Middleware/ISP_Library/isp/Src/isp_services.c ****   }
 396:../../Middlewares/Camera_Middleware/ISP_Library/isp/Src/isp_services.c ****   return stage;
 397:../../Middlewares/Camera_Middleware/ISP_Library/isp/Src/isp_services.c **** }
 398:../../Middlewares/Camera_Middleware/ISP_Library/isp/Src/isp_services.c **** 
 399:../../Middlewares/Camera_Middleware/ISP_Library/isp/Src/isp_services.c **** static ISP_SVC_StatEngineStage GetStatCycleEnd(ISP_SVC_StatLocation location)
 400:../../Middlewares/Camera_Middleware/ISP_Library/isp/Src/isp_services.c **** {
 401:../../Middlewares/Camera_Middleware/ISP_Library/isp/Src/isp_services.c ****   ISP_SVC_StatEngineStage stage;
 402:../../Middlewares/Camera_Middleware/ISP_Library/isp/Src/isp_services.c **** 
 403:../../Middlewares/Camera_Middleware/ISP_Library/isp/Src/isp_services.c ****   if (location == ISP_STAT_LOC_UP)
 404:../../Middlewares/Camera_Middleware/ISP_Library/isp/Src/isp_services.c ****   {
 405:../../Middlewares/Camera_Middleware/ISP_Library/isp/Src/isp_services.c ****     if ((ISP_SVC_StatEngine.upRequest & ISP_STAT_TYPE_BINS) ||
 406:../../Middlewares/Camera_Middleware/ISP_Library/isp/Src/isp_services.c ****         (ISP_SVC_StatEngine.upRequest & ISP_STAT_TYPE_ALL_TMP))
 407:../../Middlewares/Camera_Middleware/ISP_Library/isp/Src/isp_services.c ****     {
 408:../../Middlewares/Camera_Middleware/ISP_Library/isp/Src/isp_services.c ****       /* Stat up cycle ends with last BINS measurement */
 409:../../Middlewares/Camera_Middleware/ISP_Library/isp/Src/isp_services.c ****       stage = ISP_STAT_CFG_UP_BINS_9_11;
 410:../../Middlewares/Camera_Middleware/ISP_Library/isp/Src/isp_services.c ****     }
 411:../../Middlewares/Camera_Middleware/ISP_Library/isp/Src/isp_services.c ****     else
 412:../../Middlewares/Camera_Middleware/ISP_Library/isp/Src/isp_services.c ****     {
 413:../../Middlewares/Camera_Middleware/ISP_Library/isp/Src/isp_services.c ****       /* Stat up cycle ends with AVG measurement */
 414:../../Middlewares/Camera_Middleware/ISP_Library/isp/Src/isp_services.c ****       stage = ISP_STAT_CFG_UP_AVG;
 415:../../Middlewares/Camera_Middleware/ISP_Library/isp/Src/isp_services.c ****     }
 416:../../Middlewares/Camera_Middleware/ISP_Library/isp/Src/isp_services.c ****   }
 417:../../Middlewares/Camera_Middleware/ISP_Library/isp/Src/isp_services.c ****   else
 418:../../Middlewares/Camera_Middleware/ISP_Library/isp/Src/isp_services.c ****   {
 419:../../Middlewares/Camera_Middleware/ISP_Library/isp/Src/isp_services.c ****     if ((ISP_SVC_StatEngine.downRequest & ISP_STAT_TYPE_BINS) ||
 420:../../Middlewares/Camera_Middleware/ISP_Library/isp/Src/isp_services.c ****         (ISP_SVC_StatEngine.downRequest & ISP_STAT_TYPE_ALL_TMP))
 421:../../Middlewares/Camera_Middleware/ISP_Library/isp/Src/isp_services.c ****     {
 422:../../Middlewares/Camera_Middleware/ISP_Library/isp/Src/isp_services.c ****       /* Stat down cycle ends with last BINS measurement */
 423:../../Middlewares/Camera_Middleware/ISP_Library/isp/Src/isp_services.c ****       stage = ISP_STAT_CFG_DOWN_BINS_9_11;
 424:../../Middlewares/Camera_Middleware/ISP_Library/isp/Src/isp_services.c ****     }
 425:../../Middlewares/Camera_Middleware/ISP_Library/isp/Src/isp_services.c ****     else
 426:../../Middlewares/Camera_Middleware/ISP_Library/isp/Src/isp_services.c ****     {
ARM GAS  C:\Users\Antonio\AppData\Local\Temp\ccF6VN3M.s 			page 13


 427:../../Middlewares/Camera_Middleware/ISP_Library/isp/Src/isp_services.c ****       /* Stat down cycle ends with AVG measurement */
 428:../../Middlewares/Camera_Middleware/ISP_Library/isp/Src/isp_services.c ****       stage = ISP_STAT_CFG_DOWN_AVG;
 429:../../Middlewares/Camera_Middleware/ISP_Library/isp/Src/isp_services.c ****     }
 430:../../Middlewares/Camera_Middleware/ISP_Library/isp/Src/isp_services.c ****   }
 431:../../Middlewares/Camera_Middleware/ISP_Library/isp/Src/isp_services.c ****   return stage;
 432:../../Middlewares/Camera_Middleware/ISP_Library/isp/Src/isp_services.c **** }
 433:../../Middlewares/Camera_Middleware/ISP_Library/isp/Src/isp_services.c **** 
 434:../../Middlewares/Camera_Middleware/ISP_Library/isp/Src/isp_services.c **** uint8_t LuminanceFromRGB(uint8_t r, uint8_t g, uint8_t b)
 435:../../Middlewares/Camera_Middleware/ISP_Library/isp/Src/isp_services.c **** {
 238              		.loc 1 435 1 is_stmt 1 view -0
 239              		.cfi_startproc
 240              		@ args = 0, pretend = 0, frame = 8
 241              		@ frame_needed = 0, uses_anonymous_args = 0
 242              		@ link register save eliminated.
 436:../../Middlewares/Camera_Middleware/ISP_Library/isp/Src/isp_services.c ****   /* Compute luminance from RGB components (BT.601) */
 437:../../Middlewares/Camera_Middleware/ISP_Library/isp/Src/isp_services.c ****   return (uint8_t) (r * 0.299 + g * 0.587 + b * 0.114);
 243              		.loc 1 437 3 view .LVU62
 435:../../Middlewares/Camera_Middleware/ISP_Library/isp/Src/isp_services.c ****   /* Compute luminance from RGB components (BT.601) */
 244              		.loc 1 435 1 is_stmt 0 view .LVU63
 245 0000 07EE101A 		vmov	s14, r1	@ int
 246 0004 05EE100A 		vmov	s10, r0	@ int
 247              		.loc 1 437 35 view .LVU64
 248 0008 9FED0F4B 		vldr.64	d4, .L16
 249 000c B8EEC77B 		vcvt.f64.s32	d7, s14
 435:../../Middlewares/Camera_Middleware/ISP_Library/isp/Src/isp_services.c ****   /* Compute luminance from RGB components (BT.601) */
 250              		.loc 1 435 1 view .LVU65
 251 0010 06EE102A 		vmov	s12, r2	@ int
 252              		.loc 1 437 23 view .LVU66
 253 0014 B8EEC55B 		vcvt.f64.s32	d5, s10
 254              		.loc 1 437 35 view .LVU67
 255 0018 27EE047B 		vmul.f64	d7, d7, d4
 256              		.loc 1 437 31 view .LVU68
 257 001c 9FED0C4B 		vldr.64	d4, .L16+8
 258              		.loc 1 437 47 view .LVU69
 259 0020 B8EEC66B 		vcvt.f64.s32	d6, s12
 260              		.loc 1 437 31 view .LVU70
 261 0024 A5EE047B 		vfma.f64	d7, d5, d4
 262              		.loc 1 437 43 view .LVU71
 263 0028 9FED0B5B 		vldr.64	d5, .L16+16
 264 002c A6EE057B 		vfma.f64	d7, d6, d5
 265              		.loc 1 437 10 view .LVU72
 266 0030 FCEEC77B 		vcvt.u32.f64	s15, d7
 435:../../Middlewares/Camera_Middleware/ISP_Library/isp/Src/isp_services.c ****   /* Compute luminance from RGB components (BT.601) */
 267              		.loc 1 435 1 view .LVU73
 268 0034 82B0     		sub	sp, sp, #8
 269              		.cfi_def_cfa_offset 8
 270              		.loc 1 437 10 view .LVU74
 271 0036 CDED017A 		vstr.32	s15, [sp, #4]	@ int
 438:../../Middlewares/Camera_Middleware/ISP_Library/isp/Src/isp_services.c **** }
 272              		.loc 1 438 1 view .LVU75
 273 003a 9DF80400 		ldrb	r0, [sp, #4]	@ zero_extendqisi2
 274              	.LVL20:
 275              		.loc 1 438 1 view .LVU76
 276 003e 02B0     		add	sp, sp, #8
 277              		.cfi_def_cfa_offset 0
 278              		@ sp needed
 279 0040 7047     		bx	lr
ARM GAS  C:\Users\Antonio\AppData\Local\Temp\ccF6VN3M.s 			page 14


 280              	.L17:
 281 0042 00BFAFF3 		.align	3
 281      0080
 282              	.L16:
 283 0048 62105839 		.word	962072674
 284 004c B4C8E23F 		.word	1071827124
 285 0050 894160E5 		.word	-446676599
 286 0054 D022D33F 		.word	1070801616
 287 0058 C976BE9F 		.word	-1614907703
 288 005c 1A2FBD3F 		.word	1069362970
 289              		.cfi_endproc
 290              	.LFE848:
 292              		.section	.text.LuminanceFromRGBMono,"ax",%progbits
 293              		.align	1
 294              		.global	LuminanceFromRGBMono
 295              		.syntax unified
 296              		.thumb
 297              		.thumb_func
 299              	LuminanceFromRGBMono:
 300              	.LVL21:
 301              	.LFB849:
 439:../../Middlewares/Camera_Middleware/ISP_Library/isp/Src/isp_services.c **** 
 440:../../Middlewares/Camera_Middleware/ISP_Library/isp/Src/isp_services.c **** uint8_t LuminanceFromRGBMono(uint8_t r, uint8_t g, uint8_t b)
 441:../../Middlewares/Camera_Middleware/ISP_Library/isp/Src/isp_services.c **** {
 302              		.loc 1 441 1 is_stmt 1 view -0
 303              		.cfi_startproc
 304              		@ args = 0, pretend = 0, frame = 0
 305              		@ frame_needed = 0, uses_anonymous_args = 0
 306              		@ link register save eliminated.
 442:../../Middlewares/Camera_Middleware/ISP_Library/isp/Src/isp_services.c ****   /* Compute luminance from RGB components
 443:../../Middlewares/Camera_Middleware/ISP_Library/isp/Src/isp_services.c ****    * by adding together R, G, B components for monochrome sensor */
 444:../../Middlewares/Camera_Middleware/ISP_Library/isp/Src/isp_services.c ****   return r + g + b;
 307              		.loc 1 444 3 view .LVU78
 308              		.loc 1 444 16 is_stmt 0 view .LVU79
 309 0000 1144     		add	r1, r1, r2
 310              	.LVL22:
 311              		.loc 1 444 16 view .LVU80
 312 0002 0844     		add	r0, r0, r1
 313              	.LVL23:
 445:../../Middlewares/Camera_Middleware/ISP_Library/isp/Src/isp_services.c **** }
 314              		.loc 1 445 1 view .LVU81
 315 0004 C0B2     		uxtb	r0, r0
 316 0006 7047     		bx	lr
 317              		.cfi_endproc
 318              	.LFE849:
 320              		.section	.text.ISP_SVC_ISP_SetDemosaicing,"ax",%progbits
 321              		.align	1
 322              		.global	ISP_SVC_ISP_SetDemosaicing
 323              		.syntax unified
 324              		.thumb
 325              		.thumb_func
 327              	ISP_SVC_ISP_SetDemosaicing:
 328              	.LVL24:
 329              	.LFB850:
 446:../../Middlewares/Camera_Middleware/ISP_Library/isp/Src/isp_services.c **** 
 447:../../Middlewares/Camera_Middleware/ISP_Library/isp/Src/isp_services.c **** /* Exported functions --------------------------------------------------------*/
 448:../../Middlewares/Camera_Middleware/ISP_Library/isp/Src/isp_services.c **** /**
ARM GAS  C:\Users\Antonio\AppData\Local\Temp\ccF6VN3M.s 			page 15


 449:../../Middlewares/Camera_Middleware/ISP_Library/isp/Src/isp_services.c ****   * @brief  ISP_SVC_ISP_SetDemosaicing
 450:../../Middlewares/Camera_Middleware/ISP_Library/isp/Src/isp_services.c ****   *         Set the ISP demosaicing configuration
 451:../../Middlewares/Camera_Middleware/ISP_Library/isp/Src/isp_services.c ****   * @param  hIsp: ISP device handle
 452:../../Middlewares/Camera_Middleware/ISP_Library/isp/Src/isp_services.c ****   * @param  pConfig: Pointer to the demosaicing configuration
 453:../../Middlewares/Camera_Middleware/ISP_Library/isp/Src/isp_services.c ****   * @retval operation result
 454:../../Middlewares/Camera_Middleware/ISP_Library/isp/Src/isp_services.c ****   */
 455:../../Middlewares/Camera_Middleware/ISP_Library/isp/Src/isp_services.c **** ISP_StatusTypeDef ISP_SVC_ISP_SetDemosaicing(ISP_HandleTypeDef *hIsp, ISP_DemosaicingTypeDef *pConf
 456:../../Middlewares/Camera_Middleware/ISP_Library/isp/Src/isp_services.c **** {
 330              		.loc 1 456 1 is_stmt 1 view -0
 331              		.cfi_startproc
 332              		@ args = 0, pretend = 0, frame = 24
 333              		@ frame_needed = 0, uses_anonymous_args = 0
 457:../../Middlewares/Camera_Middleware/ISP_Library/isp/Src/isp_services.c ****   HAL_StatusTypeDef halStatus;
 334              		.loc 1 457 3 view .LVU83
 458:../../Middlewares/Camera_Middleware/ISP_Library/isp/Src/isp_services.c ****   DCMIPP_RawBayer2RGBConfTypeDef rawBayerCfg;
 335              		.loc 1 458 3 view .LVU84
 459:../../Middlewares/Camera_Middleware/ISP_Library/isp/Src/isp_services.c **** 
 460:../../Middlewares/Camera_Middleware/ISP_Library/isp/Src/isp_services.c ****   if ((hIsp == NULL) || (pConfig == NULL) ||
 336              		.loc 1 460 3 view .LVU85
 456:../../Middlewares/Camera_Middleware/ISP_Library/isp/Src/isp_services.c ****   HAL_StatusTypeDef halStatus;
 337              		.loc 1 456 1 is_stmt 0 view .LVU86
 338 0000 F0B5     		push	{r4, r5, r6, r7, lr}
 339              		.cfi_def_cfa_offset 20
 340              		.cfi_offset 4, -20
 341              		.cfi_offset 5, -16
 342              		.cfi_offset 6, -12
 343              		.cfi_offset 7, -8
 344              		.cfi_offset 14, -4
 345              		.loc 1 460 6 view .LVU87
 346 0002 0446     		mov	r4, r0
 456:../../Middlewares/Camera_Middleware/ISP_Library/isp/Src/isp_services.c ****   HAL_StatusTypeDef halStatus;
 347              		.loc 1 456 1 view .LVU88
 348 0004 87B0     		sub	sp, sp, #28
 349              		.cfi_def_cfa_offset 48
 350              		.loc 1 460 6 view .LVU89
 351 0006 0028     		cmp	r0, #0
 352 0008 37D0     		beq	.L31
 353              		.loc 1 460 22 discriminator 1 view .LVU90
 354 000a 0029     		cmp	r1, #0
 355 000c 35D0     		beq	.L31
 461:../../Middlewares/Camera_Middleware/ISP_Library/isp/Src/isp_services.c ****       (pConfig->peak > ISP_DEMOS_STRENGTH_MAX) || (pConfig->lineV > ISP_DEMOS_STRENGTH_MAX) ||
 356              		.loc 1 461 15 view .LVU91
 357 000e 8F78     		ldrb	r7, [r1, #2]	@ zero_extendqisi2
 460:../../Middlewares/Camera_Middleware/ISP_Library/isp/Src/isp_services.c ****       (pConfig->peak > ISP_DEMOS_STRENGTH_MAX) || (pConfig->lineV > ISP_DEMOS_STRENGTH_MAX) ||
 358              		.loc 1 460 43 discriminator 2 view .LVU92
 359 0010 072F     		cmp	r7, #7
 360 0012 32D8     		bhi	.L31
 361              		.loc 1 461 59 view .LVU93
 362 0014 CE78     		ldrb	r6, [r1, #3]	@ zero_extendqisi2
 363              		.loc 1 461 48 view .LVU94
 364 0016 072E     		cmp	r6, #7
 365 0018 2FD8     		bhi	.L31
 462:../../Middlewares/Camera_Middleware/ISP_Library/isp/Src/isp_services.c ****       (pConfig->lineH > ISP_DEMOS_STRENGTH_MAX) || (pConfig->edge > ISP_DEMOS_STRENGTH_MAX))
 366              		.loc 1 462 15 view .LVU95
 367 001a 0D79     		ldrb	r5, [r1, #4]	@ zero_extendqisi2
 461:../../Middlewares/Camera_Middleware/ISP_Library/isp/Src/isp_services.c ****       (pConfig->peak > ISP_DEMOS_STRENGTH_MAX) || (pConfig->lineV > ISP_DEMOS_STRENGTH_MAX) ||
 368              		.loc 1 461 93 discriminator 1 view .LVU96
ARM GAS  C:\Users\Antonio\AppData\Local\Temp\ccF6VN3M.s 			page 16


 369 001c 072D     		cmp	r5, #7
 370 001e 2CD8     		bhi	.L31
 371              		.loc 1 462 60 view .LVU97
 372 0020 4879     		ldrb	r0, [r1, #5]	@ zero_extendqisi2
 373              	.LVL25:
 374              		.loc 1 462 49 view .LVU98
 375 0022 0728     		cmp	r0, #7
 376 0024 29D8     		bhi	.L31
 463:../../Middlewares/Camera_Middleware/ISP_Library/isp/Src/isp_services.c ****   {
 464:../../Middlewares/Camera_Middleware/ISP_Library/isp/Src/isp_services.c ****     return ISP_ERR_DEMOSAICING_EINVAL;
 465:../../Middlewares/Camera_Middleware/ISP_Library/isp/Src/isp_services.c ****   }
 466:../../Middlewares/Camera_Middleware/ISP_Library/isp/Src/isp_services.c **** 
 467:../../Middlewares/Camera_Middleware/ISP_Library/isp/Src/isp_services.c ****   /* Do not enable demosaicing if the camera sensor is a monochrome sensor */
 468:../../Middlewares/Camera_Middleware/ISP_Library/isp/Src/isp_services.c ****   if ((pConfig->enable == 0) || (pConfig->type == ISP_DEMOS_TYPE_MONO))
 377              		.loc 1 468 3 is_stmt 1 view .LVU99
 378              		.loc 1 468 6 is_stmt 0 view .LVU100
 379 0026 0B78     		ldrb	r3, [r1]	@ zero_extendqisi2
 380 0028 13B1     		cbz	r3, .L21
 381              		.loc 1 468 41 discriminator 1 view .LVU101
 382 002a 4A78     		ldrb	r2, [r1, #1]	@ zero_extendqisi2
 383              		.loc 1 468 30 discriminator 1 view .LVU102
 384 002c 042A     		cmp	r2, #4
 385 002e 07D1     		bne	.L22
 386              	.L21:
 469:../../Middlewares/Camera_Middleware/ISP_Library/isp/Src/isp_services.c ****   {
 470:../../Middlewares/Camera_Middleware/ISP_Library/isp/Src/isp_services.c ****     halStatus = HAL_DCMIPP_PIPE_DisableISPRawBayer2RGB(hIsp->hDcmipp, DCMIPP_PIPE1);
 387              		.loc 1 470 5 is_stmt 1 view .LVU103
 388              		.loc 1 470 17 is_stmt 0 view .LVU104
 389 0030 0121     		movs	r1, #1
 390              	.LVL26:
 391              		.loc 1 470 17 view .LVU105
 392 0032 2068     		ldr	r0, [r4]
 393 0034 FFF7FEFF 		bl	HAL_DCMIPP_PIPE_DisableISPRawBayer2RGB
 394              	.LVL27:
 395              	.L23:
 471:../../Middlewares/Camera_Middleware/ISP_Library/isp/Src/isp_services.c ****   }
 472:../../Middlewares/Camera_Middleware/ISP_Library/isp/Src/isp_services.c ****   else
 473:../../Middlewares/Camera_Middleware/ISP_Library/isp/Src/isp_services.c ****   {
 474:../../Middlewares/Camera_Middleware/ISP_Library/isp/Src/isp_services.c ****     switch(pConfig->type)
 475:../../Middlewares/Camera_Middleware/ISP_Library/isp/Src/isp_services.c ****     {
 476:../../Middlewares/Camera_Middleware/ISP_Library/isp/Src/isp_services.c ****       case ISP_DEMOS_TYPE_RGGB:
 477:../../Middlewares/Camera_Middleware/ISP_Library/isp/Src/isp_services.c ****         rawBayerCfg.RawBayerType = DCMIPP_RAWBAYER_RGGB;
 478:../../Middlewares/Camera_Middleware/ISP_Library/isp/Src/isp_services.c ****         break;
 479:../../Middlewares/Camera_Middleware/ISP_Library/isp/Src/isp_services.c ****       case ISP_DEMOS_TYPE_GRBG:
 480:../../Middlewares/Camera_Middleware/ISP_Library/isp/Src/isp_services.c ****         rawBayerCfg.RawBayerType = DCMIPP_RAWBAYER_GRBG;
 481:../../Middlewares/Camera_Middleware/ISP_Library/isp/Src/isp_services.c ****         break;
 482:../../Middlewares/Camera_Middleware/ISP_Library/isp/Src/isp_services.c ****       case ISP_DEMOS_TYPE_GBRG:
 483:../../Middlewares/Camera_Middleware/ISP_Library/isp/Src/isp_services.c ****         rawBayerCfg.RawBayerType = DCMIPP_RAWBAYER_GBRG;
 484:../../Middlewares/Camera_Middleware/ISP_Library/isp/Src/isp_services.c ****         break;
 485:../../Middlewares/Camera_Middleware/ISP_Library/isp/Src/isp_services.c ****       case ISP_DEMOS_TYPE_BGGR:
 486:../../Middlewares/Camera_Middleware/ISP_Library/isp/Src/isp_services.c ****         rawBayerCfg.RawBayerType = DCMIPP_RAWBAYER_BGGR;
 487:../../Middlewares/Camera_Middleware/ISP_Library/isp/Src/isp_services.c ****         break;
 488:../../Middlewares/Camera_Middleware/ISP_Library/isp/Src/isp_services.c ****       default:
 489:../../Middlewares/Camera_Middleware/ISP_Library/isp/Src/isp_services.c ****         rawBayerCfg.RawBayerType = DCMIPP_RAWBAYER_RGGB;
 490:../../Middlewares/Camera_Middleware/ISP_Library/isp/Src/isp_services.c ****         break;
 491:../../Middlewares/Camera_Middleware/ISP_Library/isp/Src/isp_services.c ****     }
 492:../../Middlewares/Camera_Middleware/ISP_Library/isp/Src/isp_services.c **** 
ARM GAS  C:\Users\Antonio\AppData\Local\Temp\ccF6VN3M.s 			page 17


 493:../../Middlewares/Camera_Middleware/ISP_Library/isp/Src/isp_services.c ****     rawBayerCfg.PeakStrength = (uint32_t) pConfig->peak;
 494:../../Middlewares/Camera_Middleware/ISP_Library/isp/Src/isp_services.c ****     rawBayerCfg.VLineStrength = (uint32_t) pConfig->lineV;
 495:../../Middlewares/Camera_Middleware/ISP_Library/isp/Src/isp_services.c ****     rawBayerCfg.HLineStrength = (uint32_t) pConfig->lineH;
 496:../../Middlewares/Camera_Middleware/ISP_Library/isp/Src/isp_services.c ****     rawBayerCfg.EdgeStrength = (uint32_t) pConfig->edge;
 497:../../Middlewares/Camera_Middleware/ISP_Library/isp/Src/isp_services.c ****     halStatus = HAL_DCMIPP_PIPE_SetISPRawBayer2RGBConfig(hIsp->hDcmipp, DCMIPP_PIPE1, &rawBayerCfg)
 498:../../Middlewares/Camera_Middleware/ISP_Library/isp/Src/isp_services.c **** 
 499:../../Middlewares/Camera_Middleware/ISP_Library/isp/Src/isp_services.c ****     if (halStatus == HAL_OK)
 500:../../Middlewares/Camera_Middleware/ISP_Library/isp/Src/isp_services.c ****     {
 501:../../Middlewares/Camera_Middleware/ISP_Library/isp/Src/isp_services.c ****       halStatus = HAL_DCMIPP_PIPE_EnableISPRawBayer2RGB(hIsp->hDcmipp, DCMIPP_PIPE1);
 502:../../Middlewares/Camera_Middleware/ISP_Library/isp/Src/isp_services.c ****     }
 503:../../Middlewares/Camera_Middleware/ISP_Library/isp/Src/isp_services.c ****   }
 504:../../Middlewares/Camera_Middleware/ISP_Library/isp/Src/isp_services.c **** 
 505:../../Middlewares/Camera_Middleware/ISP_Library/isp/Src/isp_services.c ****   if (halStatus != HAL_OK)
 396              		.loc 1 505 3 is_stmt 1 view .LVU106
 397              		.loc 1 505 6 is_stmt 0 view .LVU107
 398 0038 00B1     		cbz	r0, .L20
 399              	.L25:
 506:../../Middlewares/Camera_Middleware/ISP_Library/isp/Src/isp_services.c ****   {
 507:../../Middlewares/Camera_Middleware/ISP_Library/isp/Src/isp_services.c ****     return ISP_ERR_DEMOSAICING_HAL;
 400              		.loc 1 507 12 view .LVU108
 401 003a 0B20     		movs	r0, #11
 402              	.LVL28:
 403              	.L20:
 508:../../Middlewares/Camera_Middleware/ISP_Library/isp/Src/isp_services.c ****   }
 509:../../Middlewares/Camera_Middleware/ISP_Library/isp/Src/isp_services.c **** 
 510:../../Middlewares/Camera_Middleware/ISP_Library/isp/Src/isp_services.c ****   return ISP_OK;
 511:../../Middlewares/Camera_Middleware/ISP_Library/isp/Src/isp_services.c **** }
 404              		.loc 1 511 1 view .LVU109
 405 003c 07B0     		add	sp, sp, #28
 406              		.cfi_remember_state
 407              		.cfi_def_cfa_offset 20
 408              		@ sp needed
 409 003e F0BD     		pop	{r4, r5, r6, r7, pc}
 410              	.LVL29:
 411              	.L22:
 412              		.cfi_restore_state
 474:../../Middlewares/Camera_Middleware/ISP_Library/isp/Src/isp_services.c ****     {
 413              		.loc 1 474 5 is_stmt 1 view .LVU110
 414 0040 022A     		cmp	r2, #2
 415 0042 18D0     		beq	.L32
 416 0044 511E     		subs	r1, r2, #1
 417              	.LVL30:
 474:../../Middlewares/Camera_Middleware/ISP_Library/isp/Src/isp_services.c ****     {
 418              		.loc 1 474 5 is_stmt 0 view .LVU111
 419 0046 4B42     		rsbs	r3, r1, #0
 420 0048 4B41     		adcs	r3, r3, r1
 421 004a 032A     		cmp	r2, #3
 422 004c 4FEA4303 		lsl	r3, r3, #1
 423 0050 08BF     		it	eq
 424 0052 0623     		moveq	r3, #6
 425              	.L24:
 496:../../Middlewares/Camera_Middleware/ISP_Library/isp/Src/isp_services.c ****     halStatus = HAL_DCMIPP_PIPE_SetISPRawBayer2RGBConfig(hIsp->hDcmipp, DCMIPP_PIPE1, &rawBayerCfg)
 426              		.loc 1 496 32 view .LVU112
 427 0054 0590     		str	r0, [sp, #20]
 497:../../Middlewares/Camera_Middleware/ISP_Library/isp/Src/isp_services.c **** 
 428              		.loc 1 497 17 view .LVU113
 429 0056 0121     		movs	r1, #1
ARM GAS  C:\Users\Antonio\AppData\Local\Temp\ccF6VN3M.s 			page 18


 430 0058 2068     		ldr	r0, [r4]
 431 005a 01AA     		add	r2, sp, #4
 493:../../Middlewares/Camera_Middleware/ISP_Library/isp/Src/isp_services.c ****     rawBayerCfg.VLineStrength = (uint32_t) pConfig->lineV;
 432              		.loc 1 493 32 view .LVU114
 433 005c CDE90337 		strd	r3, r7, [sp, #12]
 494:../../Middlewares/Camera_Middleware/ISP_Library/isp/Src/isp_services.c ****     rawBayerCfg.HLineStrength = (uint32_t) pConfig->lineH;
 434              		.loc 1 494 5 is_stmt 1 view .LVU115
 495:../../Middlewares/Camera_Middleware/ISP_Library/isp/Src/isp_services.c ****     rawBayerCfg.EdgeStrength = (uint32_t) pConfig->edge;
 435              		.loc 1 495 33 is_stmt 0 view .LVU116
 436 0060 CDE90165 		strd	r6, r5, [sp, #4]
 496:../../Middlewares/Camera_Middleware/ISP_Library/isp/Src/isp_services.c ****     halStatus = HAL_DCMIPP_PIPE_SetISPRawBayer2RGBConfig(hIsp->hDcmipp, DCMIPP_PIPE1, &rawBayerCfg)
 437              		.loc 1 496 5 is_stmt 1 view .LVU117
 497:../../Middlewares/Camera_Middleware/ISP_Library/isp/Src/isp_services.c **** 
 438              		.loc 1 497 5 view .LVU118
 497:../../Middlewares/Camera_Middleware/ISP_Library/isp/Src/isp_services.c **** 
 439              		.loc 1 497 17 is_stmt 0 view .LVU119
 440 0064 FFF7FEFF 		bl	HAL_DCMIPP_PIPE_SetISPRawBayer2RGBConfig
 441              	.LVL31:
 499:../../Middlewares/Camera_Middleware/ISP_Library/isp/Src/isp_services.c ****     {
 442              		.loc 1 499 5 is_stmt 1 view .LVU120
 499:../../Middlewares/Camera_Middleware/ISP_Library/isp/Src/isp_services.c ****     {
 443              		.loc 1 499 8 is_stmt 0 view .LVU121
 444 0068 0028     		cmp	r0, #0
 445 006a E6D1     		bne	.L25
 501:../../Middlewares/Camera_Middleware/ISP_Library/isp/Src/isp_services.c ****     }
 446              		.loc 1 501 7 is_stmt 1 view .LVU122
 501:../../Middlewares/Camera_Middleware/ISP_Library/isp/Src/isp_services.c ****     }
 447              		.loc 1 501 19 is_stmt 0 view .LVU123
 448 006c 0121     		movs	r1, #1
 449 006e 2068     		ldr	r0, [r4]
 450              	.LVL32:
 501:../../Middlewares/Camera_Middleware/ISP_Library/isp/Src/isp_services.c ****     }
 451              		.loc 1 501 19 view .LVU124
 452 0070 FFF7FEFF 		bl	HAL_DCMIPP_PIPE_EnableISPRawBayer2RGB
 453              	.LVL33:
 501:../../Middlewares/Camera_Middleware/ISP_Library/isp/Src/isp_services.c ****     }
 454              		.loc 1 501 19 view .LVU125
 455 0074 E0E7     		b	.L23
 456              	.LVL34:
 457              	.L32:
 474:../../Middlewares/Camera_Middleware/ISP_Library/isp/Src/isp_services.c ****     {
 458              		.loc 1 474 5 view .LVU126
 459 0076 0423     		movs	r3, #4
 460 0078 ECE7     		b	.L24
 461              	.L31:
 464:../../Middlewares/Camera_Middleware/ISP_Library/isp/Src/isp_services.c ****   }
 462              		.loc 1 464 12 view .LVU127
 463 007a 0A20     		movs	r0, #10
 464 007c DEE7     		b	.L20
 465              		.cfi_endproc
 466              	.LFE850:
 468              		.section	.text.ISP_SVC_ISP_SetStatRemoval,"ax",%progbits
 469              		.align	1
 470              		.global	ISP_SVC_ISP_SetStatRemoval
 471              		.syntax unified
 472              		.thumb
 473              		.thumb_func
ARM GAS  C:\Users\Antonio\AppData\Local\Temp\ccF6VN3M.s 			page 19


 475              	ISP_SVC_ISP_SetStatRemoval:
 476              	.LVL35:
 477              	.LFB851:
 512:../../Middlewares/Camera_Middleware/ISP_Library/isp/Src/isp_services.c **** 
 513:../../Middlewares/Camera_Middleware/ISP_Library/isp/Src/isp_services.c **** /**
 514:../../Middlewares/Camera_Middleware/ISP_Library/isp/Src/isp_services.c ****   * @brief  ISP_SVC_ISP_SetStatRemoval
 515:../../Middlewares/Camera_Middleware/ISP_Library/isp/Src/isp_services.c ****   *         Set the ISP Stat Removal configuration
 516:../../Middlewares/Camera_Middleware/ISP_Library/isp/Src/isp_services.c ****   * @param  hIsp: ISP device handle
 517:../../Middlewares/Camera_Middleware/ISP_Library/isp/Src/isp_services.c ****   * @param  pConfig: Pointer to the Stat Removal configuration
 518:../../Middlewares/Camera_Middleware/ISP_Library/isp/Src/isp_services.c ****   * @retval operation result
 519:../../Middlewares/Camera_Middleware/ISP_Library/isp/Src/isp_services.c ****   */
 520:../../Middlewares/Camera_Middleware/ISP_Library/isp/Src/isp_services.c **** ISP_StatusTypeDef ISP_SVC_ISP_SetStatRemoval(ISP_HandleTypeDef *hIsp, ISP_StatRemovalTypeDef *pConf
 521:../../Middlewares/Camera_Middleware/ISP_Library/isp/Src/isp_services.c **** {
 478              		.loc 1 521 1 is_stmt 1 view -0
 479              		.cfi_startproc
 480              		@ args = 0, pretend = 0, frame = 0
 481              		@ frame_needed = 0, uses_anonymous_args = 0
 522:../../Middlewares/Camera_Middleware/ISP_Library/isp/Src/isp_services.c ****   HAL_StatusTypeDef halStatus;
 482              		.loc 1 522 3 view .LVU129
 523:../../Middlewares/Camera_Middleware/ISP_Library/isp/Src/isp_services.c **** 
 524:../../Middlewares/Camera_Middleware/ISP_Library/isp/Src/isp_services.c ****   if ((hIsp == NULL) || (pConfig == NULL) ||
 483              		.loc 1 524 3 view .LVU130
 521:../../Middlewares/Camera_Middleware/ISP_Library/isp/Src/isp_services.c ****   HAL_StatusTypeDef halStatus;
 484              		.loc 1 521 1 is_stmt 0 view .LVU131
 485 0000 10B5     		push	{r4, lr}
 486              		.cfi_def_cfa_offset 8
 487              		.cfi_offset 4, -8
 488              		.cfi_offset 14, -4
 489              		.loc 1 524 6 view .LVU132
 490 0002 0446     		mov	r4, r0
 491 0004 D8B1     		cbz	r0, .L49
 492              		.loc 1 524 22 discriminator 1 view .LVU133
 493 0006 D1B1     		cbz	r1, .L49
 525:../../Middlewares/Camera_Middleware/ISP_Library/isp/Src/isp_services.c ****       (pConfig->nbHeadLines > ISP_STATREMOVAL_HEADLINES_MAX) || (pConfig->nbValidLines > ISP_STATRE
 494              		.loc 1 525 15 view .LVU134
 495 0008 4A68     		ldr	r2, [r1, #4]
 524:../../Middlewares/Camera_Middleware/ISP_Library/isp/Src/isp_services.c ****       (pConfig->nbHeadLines > ISP_STATREMOVAL_HEADLINES_MAX) || (pConfig->nbValidLines > ISP_STATRE
 496              		.loc 1 524 43 discriminator 2 view .LVU135
 497 000a 072A     		cmp	r2, #7
 498 000c 17D8     		bhi	.L49
 499              		.loc 1 525 62 view .LVU136
 500 000e 40F6FE70 		movw	r0, #4094
 501              	.LVL36:
 502              		.loc 1 525 73 view .LVU137
 503 0012 8B68     		ldr	r3, [r1, #8]
 504              		.loc 1 525 62 view .LVU138
 505 0014 8342     		cmp	r3, r0
 506 0016 12D8     		bhi	.L49
 526:../../Middlewares/Camera_Middleware/ISP_Library/isp/Src/isp_services.c ****   {
 527:../../Middlewares/Camera_Middleware/ISP_Library/isp/Src/isp_services.c ****     return ISP_ERR_STATREMOVAL_EINVAL;
 528:../../Middlewares/Camera_Middleware/ISP_Library/isp/Src/isp_services.c ****   }
 529:../../Middlewares/Camera_Middleware/ISP_Library/isp/Src/isp_services.c **** 
 530:../../Middlewares/Camera_Middleware/ISP_Library/isp/Src/isp_services.c ****   if (pConfig->enable == 0)
 507              		.loc 1 530 3 is_stmt 1 view .LVU139
 508              		.loc 1 530 6 is_stmt 0 view .LVU140
 509 0018 0978     		ldrb	r1, [r1]	@ zero_extendqisi2
 510              	.LVL37:
ARM GAS  C:\Users\Antonio\AppData\Local\Temp\ccF6VN3M.s 			page 20


 531:../../Middlewares/Camera_Middleware/ISP_Library/isp/Src/isp_services.c ****   {
 532:../../Middlewares/Camera_Middleware/ISP_Library/isp/Src/isp_services.c ****     halStatus = HAL_DCMIPP_PIPE_DisableISPRemovalStatistic(hIsp->hDcmipp, DCMIPP_PIPE1);
 511              		.loc 1 532 64 view .LVU141
 512 001a 2068     		ldr	r0, [r4]
 530:../../Middlewares/Camera_Middleware/ISP_Library/isp/Src/isp_services.c ****   {
 513              		.loc 1 530 6 view .LVU142
 514 001c 21B9     		cbnz	r1, .L42
 515              		.loc 1 532 5 is_stmt 1 view .LVU143
 516              		.loc 1 532 17 is_stmt 0 view .LVU144
 517 001e 0121     		movs	r1, #1
 518 0020 FFF7FEFF 		bl	HAL_DCMIPP_PIPE_DisableISPRemovalStatistic
 519              	.LVL38:
 520              	.L43:
 533:../../Middlewares/Camera_Middleware/ISP_Library/isp/Src/isp_services.c ****   }
 534:../../Middlewares/Camera_Middleware/ISP_Library/isp/Src/isp_services.c ****   else
 535:../../Middlewares/Camera_Middleware/ISP_Library/isp/Src/isp_services.c ****   {
 536:../../Middlewares/Camera_Middleware/ISP_Library/isp/Src/isp_services.c ****     halStatus = HAL_DCMIPP_PIPE_SetISPRemovalStatisticConfig(hIsp->hDcmipp, DCMIPP_PIPE1, pConfig->
 537:../../Middlewares/Camera_Middleware/ISP_Library/isp/Src/isp_services.c **** 
 538:../../Middlewares/Camera_Middleware/ISP_Library/isp/Src/isp_services.c ****     if (halStatus == HAL_OK)
 539:../../Middlewares/Camera_Middleware/ISP_Library/isp/Src/isp_services.c ****     {
 540:../../Middlewares/Camera_Middleware/ISP_Library/isp/Src/isp_services.c ****       halStatus = HAL_DCMIPP_PIPE_EnableISPRemovalStatistic(hIsp->hDcmipp, DCMIPP_PIPE1);
 541:../../Middlewares/Camera_Middleware/ISP_Library/isp/Src/isp_services.c ****     }
 542:../../Middlewares/Camera_Middleware/ISP_Library/isp/Src/isp_services.c ****   }
 543:../../Middlewares/Camera_Middleware/ISP_Library/isp/Src/isp_services.c **** 
 544:../../Middlewares/Camera_Middleware/ISP_Library/isp/Src/isp_services.c ****   if (halStatus != HAL_OK)
 521              		.loc 1 544 3 is_stmt 1 view .LVU145
 522              		.loc 1 544 6 is_stmt 0 view .LVU146
 523 0024 28B1     		cbz	r0, .L41
 524              		.loc 1 544 6 view .LVU147
 525 0026 03E0     		b	.L45
 526              	.LVL39:
 527              	.L42:
 536:../../Middlewares/Camera_Middleware/ISP_Library/isp/Src/isp_services.c **** 
 528              		.loc 1 536 5 is_stmt 1 view .LVU148
 536:../../Middlewares/Camera_Middleware/ISP_Library/isp/Src/isp_services.c **** 
 529              		.loc 1 536 17 is_stmt 0 view .LVU149
 530 0028 0121     		movs	r1, #1
 531 002a FFF7FEFF 		bl	HAL_DCMIPP_PIPE_SetISPRemovalStatisticConfig
 532              	.LVL40:
 538:../../Middlewares/Camera_Middleware/ISP_Library/isp/Src/isp_services.c ****     {
 533              		.loc 1 538 5 is_stmt 1 view .LVU150
 538:../../Middlewares/Camera_Middleware/ISP_Library/isp/Src/isp_services.c ****     {
 534              		.loc 1 538 8 is_stmt 0 view .LVU151
 535 002e 08B1     		cbz	r0, .L44
 536              	.L45:
 545:../../Middlewares/Camera_Middleware/ISP_Library/isp/Src/isp_services.c ****   {
 546:../../Middlewares/Camera_Middleware/ISP_Library/isp/Src/isp_services.c ****     return ISP_ERR_STATREMOVAL_HAL;
 537              		.loc 1 546 12 view .LVU152
 538 0030 1520     		movs	r0, #21
 539              	.LVL41:
 540              	.L41:
 547:../../Middlewares/Camera_Middleware/ISP_Library/isp/Src/isp_services.c ****   }
 548:../../Middlewares/Camera_Middleware/ISP_Library/isp/Src/isp_services.c **** 
 549:../../Middlewares/Camera_Middleware/ISP_Library/isp/Src/isp_services.c ****   return ISP_OK;
 550:../../Middlewares/Camera_Middleware/ISP_Library/isp/Src/isp_services.c **** }
 541              		.loc 1 550 1 view .LVU153
 542 0032 10BD     		pop	{r4, pc}
ARM GAS  C:\Users\Antonio\AppData\Local\Temp\ccF6VN3M.s 			page 21


 543              	.LVL42:
 544              	.L44:
 540:../../Middlewares/Camera_Middleware/ISP_Library/isp/Src/isp_services.c ****     }
 545              		.loc 1 540 7 is_stmt 1 view .LVU154
 540:../../Middlewares/Camera_Middleware/ISP_Library/isp/Src/isp_services.c ****     }
 546              		.loc 1 540 19 is_stmt 0 view .LVU155
 547 0034 0121     		movs	r1, #1
 548 0036 2068     		ldr	r0, [r4]
 549              	.LVL43:
 540:../../Middlewares/Camera_Middleware/ISP_Library/isp/Src/isp_services.c ****     }
 550              		.loc 1 540 19 view .LVU156
 551 0038 FFF7FEFF 		bl	HAL_DCMIPP_PIPE_EnableISPRemovalStatistic
 552              	.LVL44:
 540:../../Middlewares/Camera_Middleware/ISP_Library/isp/Src/isp_services.c ****     }
 553              		.loc 1 540 19 view .LVU157
 554 003c F2E7     		b	.L43
 555              	.LVL45:
 556              	.L49:
 527:../../Middlewares/Camera_Middleware/ISP_Library/isp/Src/isp_services.c ****   }
 557              		.loc 1 527 12 view .LVU158
 558 003e 1420     		movs	r0, #20
 559 0040 F7E7     		b	.L41
 560              		.cfi_endproc
 561              	.LFE851:
 563              		.section	.text.ISP_SVC_ISP_SetDecimation,"ax",%progbits
 564              		.align	1
 565              		.global	ISP_SVC_ISP_SetDecimation
 566              		.syntax unified
 567              		.thumb
 568              		.thumb_func
 570              	ISP_SVC_ISP_SetDecimation:
 571              	.LVL46:
 572              	.LFB852:
 551:../../Middlewares/Camera_Middleware/ISP_Library/isp/Src/isp_services.c **** 
 552:../../Middlewares/Camera_Middleware/ISP_Library/isp/Src/isp_services.c **** /**
 553:../../Middlewares/Camera_Middleware/ISP_Library/isp/Src/isp_services.c ****   * @brief  ISP_SVC_ISP_SetDecimation
 554:../../Middlewares/Camera_Middleware/ISP_Library/isp/Src/isp_services.c ****   *         Set the ISP Decimation configuration
 555:../../Middlewares/Camera_Middleware/ISP_Library/isp/Src/isp_services.c ****   * @param  hIsp: ISP device handle
 556:../../Middlewares/Camera_Middleware/ISP_Library/isp/Src/isp_services.c ****   * @param  pConfig: Pointer to the decimation configuration
 557:../../Middlewares/Camera_Middleware/ISP_Library/isp/Src/isp_services.c ****   * @retval operation result
 558:../../Middlewares/Camera_Middleware/ISP_Library/isp/Src/isp_services.c ****   */
 559:../../Middlewares/Camera_Middleware/ISP_Library/isp/Src/isp_services.c **** ISP_StatusTypeDef ISP_SVC_ISP_SetDecimation(ISP_HandleTypeDef *hIsp, ISP_DecimationTypeDef *pConfig
 560:../../Middlewares/Camera_Middleware/ISP_Library/isp/Src/isp_services.c **** {
 573              		.loc 1 560 1 is_stmt 1 view -0
 574              		.cfi_startproc
 575              		@ args = 0, pretend = 0, frame = 8
 576              		@ frame_needed = 0, uses_anonymous_args = 0
 561:../../Middlewares/Camera_Middleware/ISP_Library/isp/Src/isp_services.c ****   DCMIPP_DecimationConfTypeDef decimationCfg;
 577              		.loc 1 561 3 view .LVU160
 562:../../Middlewares/Camera_Middleware/ISP_Library/isp/Src/isp_services.c ****   ISP_StatusTypeDef ret = ISP_OK;
 578              		.loc 1 562 3 view .LVU161
 563:../../Middlewares/Camera_Middleware/ISP_Library/isp/Src/isp_services.c **** 
 564:../../Middlewares/Camera_Middleware/ISP_Library/isp/Src/isp_services.c ****   /* Check handles validity */
 565:../../Middlewares/Camera_Middleware/ISP_Library/isp/Src/isp_services.c ****   if ((hIsp == NULL) || (pConfig == NULL))
 579              		.loc 1 565 3 view .LVU162
 560:../../Middlewares/Camera_Middleware/ISP_Library/isp/Src/isp_services.c ****   DCMIPP_DecimationConfTypeDef decimationCfg;
 580              		.loc 1 560 1 is_stmt 0 view .LVU163
ARM GAS  C:\Users\Antonio\AppData\Local\Temp\ccF6VN3M.s 			page 22


 581 0000 37B5     		push	{r0, r1, r2, r4, r5, lr}
 582              		.cfi_def_cfa_offset 24
 583              		.cfi_offset 4, -12
 584              		.cfi_offset 5, -8
 585              		.cfi_offset 14, -4
 560:../../Middlewares/Camera_Middleware/ISP_Library/isp/Src/isp_services.c ****   DCMIPP_DecimationConfTypeDef decimationCfg;
 586              		.loc 1 560 1 view .LVU164
 587 0002 0C46     		mov	r4, r1
 588              		.loc 1 565 6 view .LVU165
 589 0004 0546     		mov	r5, r0
 590 0006 50B3     		cbz	r0, .L61
 591              		.loc 1 565 22 discriminator 1 view .LVU166
 592 0008 49B3     		cbz	r1, .L61
 566:../../Middlewares/Camera_Middleware/ISP_Library/isp/Src/isp_services.c ****   {
 567:../../Middlewares/Camera_Middleware/ISP_Library/isp/Src/isp_services.c ****     return ISP_ERR_DECIMATION_EINVAL;
 568:../../Middlewares/Camera_Middleware/ISP_Library/isp/Src/isp_services.c ****   }
 569:../../Middlewares/Camera_Middleware/ISP_Library/isp/Src/isp_services.c **** 
 570:../../Middlewares/Camera_Middleware/ISP_Library/isp/Src/isp_services.c ****   switch (pConfig->factor)
 593              		.loc 1 570 3 is_stmt 1 view .LVU167
 594 000a 0B78     		ldrb	r3, [r1]	@ zero_extendqisi2
 595 000c 013B     		subs	r3, r3, #1
 596 000e 072B     		cmp	r3, #7
 597 0010 25D8     		bhi	.L61
 598 0012 DFE803F0 		tbb	[pc, r3]
 599              	.L53:
 600 0016 17       		.byte	(.L62-.L53)/2
 601 0017 04       		.byte	(.L55-.L53)/2
 602 0018 24       		.byte	(.L61-.L53)/2
 603 0019 11       		.byte	(.L54-.L53)/2
 604 001a 24       		.byte	(.L61-.L53)/2
 605 001b 24       		.byte	(.L61-.L53)/2
 606 001c 24       		.byte	(.L61-.L53)/2
 607 001d 14       		.byte	(.L52-.L53)/2
 608              		.p2align 1
 609              	.L55:
 610 001e 0823     		movs	r3, #8
 611 0020 0222     		movs	r2, #2
 612              	.L56:
 571:../../Middlewares/Camera_Middleware/ISP_Library/isp/Src/isp_services.c ****   {
 572:../../Middlewares/Camera_Middleware/ISP_Library/isp/Src/isp_services.c ****   case ISP_DECIM_FACTOR_1:
 573:../../Middlewares/Camera_Middleware/ISP_Library/isp/Src/isp_services.c ****     decimationCfg.VRatio = DCMIPP_VDEC_ALL;
 574:../../Middlewares/Camera_Middleware/ISP_Library/isp/Src/isp_services.c ****     decimationCfg.HRatio = DCMIPP_HDEC_ALL;
 613              		.loc 1 574 26 is_stmt 0 view .LVU168
 614 0022 CDE90032 		strd	r3, r2, [sp]
 575:../../Middlewares/Camera_Middleware/ISP_Library/isp/Src/isp_services.c ****     break;
 576:../../Middlewares/Camera_Middleware/ISP_Library/isp/Src/isp_services.c **** 
 577:../../Middlewares/Camera_Middleware/ISP_Library/isp/Src/isp_services.c ****   case ISP_DECIM_FACTOR_2:
 578:../../Middlewares/Camera_Middleware/ISP_Library/isp/Src/isp_services.c ****     decimationCfg.VRatio = DCMIPP_VDEC_1_OUT_2;
 579:../../Middlewares/Camera_Middleware/ISP_Library/isp/Src/isp_services.c ****     decimationCfg.HRatio = DCMIPP_HDEC_1_OUT_2;
 580:../../Middlewares/Camera_Middleware/ISP_Library/isp/Src/isp_services.c ****     break;
 581:../../Middlewares/Camera_Middleware/ISP_Library/isp/Src/isp_services.c **** 
 582:../../Middlewares/Camera_Middleware/ISP_Library/isp/Src/isp_services.c ****   case ISP_DECIM_FACTOR_4:
 583:../../Middlewares/Camera_Middleware/ISP_Library/isp/Src/isp_services.c ****     decimationCfg.VRatio = DCMIPP_VDEC_1_OUT_4;
 584:../../Middlewares/Camera_Middleware/ISP_Library/isp/Src/isp_services.c ****     decimationCfg.HRatio = DCMIPP_HDEC_1_OUT_4;
 585:../../Middlewares/Camera_Middleware/ISP_Library/isp/Src/isp_services.c ****     break;
 586:../../Middlewares/Camera_Middleware/ISP_Library/isp/Src/isp_services.c **** 
 587:../../Middlewares/Camera_Middleware/ISP_Library/isp/Src/isp_services.c ****   case ISP_DECIM_FACTOR_8:
ARM GAS  C:\Users\Antonio\AppData\Local\Temp\ccF6VN3M.s 			page 23


 588:../../Middlewares/Camera_Middleware/ISP_Library/isp/Src/isp_services.c ****     decimationCfg.VRatio = DCMIPP_VDEC_1_OUT_8;
 589:../../Middlewares/Camera_Middleware/ISP_Library/isp/Src/isp_services.c ****     decimationCfg.HRatio = DCMIPP_HDEC_1_OUT_8;
 590:../../Middlewares/Camera_Middleware/ISP_Library/isp/Src/isp_services.c ****     break;
 591:../../Middlewares/Camera_Middleware/ISP_Library/isp/Src/isp_services.c **** 
 592:../../Middlewares/Camera_Middleware/ISP_Library/isp/Src/isp_services.c ****   default:
 593:../../Middlewares/Camera_Middleware/ISP_Library/isp/Src/isp_services.c ****     return ISP_ERR_DECIMATION_EINVAL;
 594:../../Middlewares/Camera_Middleware/ISP_Library/isp/Src/isp_services.c ****   }
 595:../../Middlewares/Camera_Middleware/ISP_Library/isp/Src/isp_services.c **** 
 596:../../Middlewares/Camera_Middleware/ISP_Library/isp/Src/isp_services.c ****   if (HAL_DCMIPP_PIPE_SetISPDecimationConfig(hIsp->hDcmipp, DCMIPP_PIPE1, &decimationCfg) != HAL_OK
 615              		.loc 1 596 3 is_stmt 1 view .LVU169
 616              		.loc 1 596 7 is_stmt 0 view .LVU170
 617 0026 0121     		movs	r1, #1
 618              	.LVL47:
 619              		.loc 1 596 7 view .LVU171
 620 0028 6A46     		mov	r2, sp
 621 002a 2868     		ldr	r0, [r5]
 622              	.LVL48:
 623              		.loc 1 596 7 view .LVU172
 624 002c FFF7FEFF 		bl	HAL_DCMIPP_PIPE_SetISPDecimationConfig
 625              	.LVL49:
 626              		.loc 1 596 6 discriminator 1 view .LVU173
 627 0030 58B1     		cbz	r0, .L57
 628              	.L58:
 597:../../Middlewares/Camera_Middleware/ISP_Library/isp/Src/isp_services.c ****   {
 598:../../Middlewares/Camera_Middleware/ISP_Library/isp/Src/isp_services.c ****     return ISP_ERR_DECIMATION_HAL;
 629              		.loc 1 598 12 view .LVU174
 630 0032 1F20     		movs	r0, #31
 631              	.L51:
 599:../../Middlewares/Camera_Middleware/ISP_Library/isp/Src/isp_services.c ****   }
 600:../../Middlewares/Camera_Middleware/ISP_Library/isp/Src/isp_services.c **** 
 601:../../Middlewares/Camera_Middleware/ISP_Library/isp/Src/isp_services.c ****   if (HAL_DCMIPP_PIPE_EnableISPDecimation(hIsp->hDcmipp, DCMIPP_PIPE1) != HAL_OK)
 602:../../Middlewares/Camera_Middleware/ISP_Library/isp/Src/isp_services.c ****   {
 603:../../Middlewares/Camera_Middleware/ISP_Library/isp/Src/isp_services.c ****     return ISP_ERR_DECIMATION_HAL;
 604:../../Middlewares/Camera_Middleware/ISP_Library/isp/Src/isp_services.c ****   }
 605:../../Middlewares/Camera_Middleware/ISP_Library/isp/Src/isp_services.c **** 
 606:../../Middlewares/Camera_Middleware/ISP_Library/isp/Src/isp_services.c ****   /* Save decimation value */
 607:../../Middlewares/Camera_Middleware/ISP_Library/isp/Src/isp_services.c ****   ISP_DecimationValue.factor = pConfig->factor;
 608:../../Middlewares/Camera_Middleware/ISP_Library/isp/Src/isp_services.c **** 
 609:../../Middlewares/Camera_Middleware/ISP_Library/isp/Src/isp_services.c ****   return ret;
 610:../../Middlewares/Camera_Middleware/ISP_Library/isp/Src/isp_services.c **** }
 632              		.loc 1 610 1 view .LVU175
 633 0034 03B0     		add	sp, sp, #12
 634              		.cfi_remember_state
 635              		.cfi_def_cfa_offset 12
 636              		@ sp needed
 637 0036 30BD     		pop	{r4, r5, pc}
 638              	.LVL50:
 639              	.L54:
 640              		.cfi_restore_state
 583:../../Middlewares/Camera_Middleware/ISP_Library/isp/Src/isp_services.c ****     decimationCfg.HRatio = DCMIPP_HDEC_1_OUT_4;
 641              		.loc 1 583 5 is_stmt 1 view .LVU176
 584:../../Middlewares/Camera_Middleware/ISP_Library/isp/Src/isp_services.c ****     break;
 642              		.loc 1 584 5 view .LVU177
 585:../../Middlewares/Camera_Middleware/ISP_Library/isp/Src/isp_services.c **** 
 643              		.loc 1 585 5 view .LVU178
 644 0038 1023     		movs	r3, #16
 645 003a 0422     		movs	r2, #4
ARM GAS  C:\Users\Antonio\AppData\Local\Temp\ccF6VN3M.s 			page 24


 646 003c F1E7     		b	.L56
 647              	.L52:
 588:../../Middlewares/Camera_Middleware/ISP_Library/isp/Src/isp_services.c ****     decimationCfg.HRatio = DCMIPP_HDEC_1_OUT_8;
 648              		.loc 1 588 5 view .LVU179
 589:../../Middlewares/Camera_Middleware/ISP_Library/isp/Src/isp_services.c ****     break;
 649              		.loc 1 589 5 view .LVU180
 590:../../Middlewares/Camera_Middleware/ISP_Library/isp/Src/isp_services.c **** 
 650              		.loc 1 590 5 view .LVU181
 651 003e 1823     		movs	r3, #24
 652 0040 0622     		movs	r2, #6
 653 0042 EEE7     		b	.L56
 654              	.L62:
 570:../../Middlewares/Camera_Middleware/ISP_Library/isp/Src/isp_services.c ****   {
 655              		.loc 1 570 3 is_stmt 0 view .LVU182
 656 0044 0023     		movs	r3, #0
 657 0046 1A46     		mov	r2, r3
 658 0048 EBE7     		b	.L56
 659              	.LVL51:
 660              	.L57:
 601:../../Middlewares/Camera_Middleware/ISP_Library/isp/Src/isp_services.c ****   {
 661              		.loc 1 601 3 is_stmt 1 view .LVU183
 601:../../Middlewares/Camera_Middleware/ISP_Library/isp/Src/isp_services.c ****   {
 662              		.loc 1 601 7 is_stmt 0 view .LVU184
 663 004a 0121     		movs	r1, #1
 664 004c 2868     		ldr	r0, [r5]
 665 004e FFF7FEFF 		bl	HAL_DCMIPP_PIPE_EnableISPDecimation
 666              	.LVL52:
 601:../../Middlewares/Camera_Middleware/ISP_Library/isp/Src/isp_services.c ****   {
 667              		.loc 1 601 6 discriminator 1 view .LVU185
 668 0052 0028     		cmp	r0, #0
 669 0054 EDD1     		bne	.L58
 607:../../Middlewares/Camera_Middleware/ISP_Library/isp/Src/isp_services.c **** 
 670              		.loc 1 607 3 is_stmt 1 view .LVU186
 607:../../Middlewares/Camera_Middleware/ISP_Library/isp/Src/isp_services.c **** 
 671              		.loc 1 607 30 is_stmt 0 view .LVU187
 672 0056 2278     		ldrb	r2, [r4]	@ zero_extendqisi2
 673 0058 024B     		ldr	r3, .L63
 674 005a 1A70     		strb	r2, [r3]
 609:../../Middlewares/Camera_Middleware/ISP_Library/isp/Src/isp_services.c **** }
 675              		.loc 1 609 3 is_stmt 1 view .LVU188
 609:../../Middlewares/Camera_Middleware/ISP_Library/isp/Src/isp_services.c **** }
 676              		.loc 1 609 10 is_stmt 0 view .LVU189
 677 005c EAE7     		b	.L51
 678              	.LVL53:
 679              	.L61:
 570:../../Middlewares/Camera_Middleware/ISP_Library/isp/Src/isp_services.c ****   {
 680              		.loc 1 570 3 view .LVU190
 681 005e 1E20     		movs	r0, #30
 682              	.LVL54:
 570:../../Middlewares/Camera_Middleware/ISP_Library/isp/Src/isp_services.c ****   {
 683              		.loc 1 570 3 view .LVU191
 684 0060 E8E7     		b	.L51
 685              	.L64:
 686 0062 00BF     		.align	2
 687              	.L63:
 688 0064 00000000 		.word	ISP_DecimationValue
 689              		.cfi_endproc
ARM GAS  C:\Users\Antonio\AppData\Local\Temp\ccF6VN3M.s 			page 25


 690              	.LFE852:
 692              		.section	.text.ISP_SVC_ISP_GetDecimation,"ax",%progbits
 693              		.align	1
 694              		.global	ISP_SVC_ISP_GetDecimation
 695              		.syntax unified
 696              		.thumb
 697              		.thumb_func
 699              	ISP_SVC_ISP_GetDecimation:
 700              	.LVL55:
 701              	.LFB853:
 611:../../Middlewares/Camera_Middleware/ISP_Library/isp/Src/isp_services.c **** 
 612:../../Middlewares/Camera_Middleware/ISP_Library/isp/Src/isp_services.c **** /**
 613:../../Middlewares/Camera_Middleware/ISP_Library/isp/Src/isp_services.c ****   * @brief  ISP_SVC_ISP_GetDecimation
 614:../../Middlewares/Camera_Middleware/ISP_Library/isp/Src/isp_services.c ****   *         Get the ISP Decimation configuration
 615:../../Middlewares/Camera_Middleware/ISP_Library/isp/Src/isp_services.c ****   * @param  hIsp: ISP device handle
 616:../../Middlewares/Camera_Middleware/ISP_Library/isp/Src/isp_services.c ****   * @param  pConfig: Pointer to the decimation configuration
 617:../../Middlewares/Camera_Middleware/ISP_Library/isp/Src/isp_services.c ****   * @retval operation result
 618:../../Middlewares/Camera_Middleware/ISP_Library/isp/Src/isp_services.c ****   */
 619:../../Middlewares/Camera_Middleware/ISP_Library/isp/Src/isp_services.c **** ISP_StatusTypeDef ISP_SVC_ISP_GetDecimation(ISP_HandleTypeDef *hIsp, ISP_DecimationTypeDef *pConfig
 620:../../Middlewares/Camera_Middleware/ISP_Library/isp/Src/isp_services.c **** {
 702              		.loc 1 620 1 is_stmt 1 view -0
 703              		.cfi_startproc
 704              		@ args = 0, pretend = 0, frame = 0
 705              		@ frame_needed = 0, uses_anonymous_args = 0
 706              		@ link register save eliminated.
 621:../../Middlewares/Camera_Middleware/ISP_Library/isp/Src/isp_services.c ****   pConfig->factor = ISP_DecimationValue.factor;
 707              		.loc 1 621 3 view .LVU193
 708              		.loc 1 621 40 is_stmt 0 view .LVU194
 709 0000 024B     		ldr	r3, .L66
 622:../../Middlewares/Camera_Middleware/ISP_Library/isp/Src/isp_services.c **** 
 623:../../Middlewares/Camera_Middleware/ISP_Library/isp/Src/isp_services.c ****   return ISP_OK;
 624:../../Middlewares/Camera_Middleware/ISP_Library/isp/Src/isp_services.c **** }
 710              		.loc 1 624 1 view .LVU195
 711 0002 0020     		movs	r0, #0
 712              	.LVL56:
 621:../../Middlewares/Camera_Middleware/ISP_Library/isp/Src/isp_services.c ****   pConfig->factor = ISP_DecimationValue.factor;
 713              		.loc 1 621 19 view .LVU196
 714 0004 1B78     		ldrb	r3, [r3]	@ zero_extendqisi2
 715 0006 0B70     		strb	r3, [r1]
 623:../../Middlewares/Camera_Middleware/ISP_Library/isp/Src/isp_services.c **** }
 716              		.loc 1 623 3 is_stmt 1 view .LVU197
 717              		.loc 1 624 1 is_stmt 0 view .LVU198
 718 0008 7047     		bx	lr
 719              	.L67:
 720 000a 00BF     		.align	2
 721              	.L66:
 722 000c 00000000 		.word	ISP_DecimationValue
 723              		.cfi_endproc
 724              	.LFE853:
 726              		.section	.text.ISP_SVC_ISP_SetContrast,"ax",%progbits
 727              		.align	1
 728              		.global	ISP_SVC_ISP_SetContrast
 729              		.syntax unified
 730              		.thumb
 731              		.thumb_func
 733              	ISP_SVC_ISP_SetContrast:
 734              	.LVL57:
ARM GAS  C:\Users\Antonio\AppData\Local\Temp\ccF6VN3M.s 			page 26


 735              	.LFB854:
 625:../../Middlewares/Camera_Middleware/ISP_Library/isp/Src/isp_services.c **** 
 626:../../Middlewares/Camera_Middleware/ISP_Library/isp/Src/isp_services.c **** /**
 627:../../Middlewares/Camera_Middleware/ISP_Library/isp/Src/isp_services.c ****   * @brief  ISP_SVC_ISP_SetContrast
 628:../../Middlewares/Camera_Middleware/ISP_Library/isp/Src/isp_services.c ****   *         Set the ISP Contrast luminance coefficients
 629:../../Middlewares/Camera_Middleware/ISP_Library/isp/Src/isp_services.c ****   * @param  hIsp: ISP device handle
 630:../../Middlewares/Camera_Middleware/ISP_Library/isp/Src/isp_services.c ****   * @param  pConfig: Pointer to the contrast configuration
 631:../../Middlewares/Camera_Middleware/ISP_Library/isp/Src/isp_services.c ****   * @retval operation result
 632:../../Middlewares/Camera_Middleware/ISP_Library/isp/Src/isp_services.c ****   */
 633:../../Middlewares/Camera_Middleware/ISP_Library/isp/Src/isp_services.c **** ISP_StatusTypeDef ISP_SVC_ISP_SetContrast(ISP_HandleTypeDef *hIsp, ISP_ContrastTypeDef *pConfig)
 634:../../Middlewares/Camera_Middleware/ISP_Library/isp/Src/isp_services.c **** {
 736              		.loc 1 634 1 is_stmt 1 view -0
 737              		.cfi_startproc
 738              		@ args = 0, pretend = 0, frame = 16
 739              		@ frame_needed = 0, uses_anonymous_args = 0
 635:../../Middlewares/Camera_Middleware/ISP_Library/isp/Src/isp_services.c ****   HAL_StatusTypeDef halStatus;
 740              		.loc 1 635 3 view .LVU200
 636:../../Middlewares/Camera_Middleware/ISP_Library/isp/Src/isp_services.c ****   DCMIPP_ContrastConfTypeDef contrast;
 741              		.loc 1 636 3 view .LVU201
 637:../../Middlewares/Camera_Middleware/ISP_Library/isp/Src/isp_services.c **** 
 638:../../Middlewares/Camera_Middleware/ISP_Library/isp/Src/isp_services.c ****   if ((hIsp == NULL) || (pConfig == NULL) ||
 742              		.loc 1 638 3 view .LVU202
 634:../../Middlewares/Camera_Middleware/ISP_Library/isp/Src/isp_services.c ****   HAL_StatusTypeDef halStatus;
 743              		.loc 1 634 1 is_stmt 0 view .LVU203
 744 0000 2DE9F043 		push	{r4, r5, r6, r7, r8, r9, lr}
 745              		.cfi_def_cfa_offset 28
 746              		.cfi_offset 4, -28
 747              		.cfi_offset 5, -24
 748              		.cfi_offset 6, -20
 749              		.cfi_offset 7, -16
 750              		.cfi_offset 8, -12
 751              		.cfi_offset 9, -8
 752              		.cfi_offset 14, -4
 753              		.loc 1 638 6 view .LVU204
 754 0004 0546     		mov	r5, r0
 634:../../Middlewares/Camera_Middleware/ISP_Library/isp/Src/isp_services.c ****   HAL_StatusTypeDef halStatus;
 755              		.loc 1 634 1 view .LVU205
 756 0006 85B0     		sub	sp, sp, #20
 757              		.cfi_def_cfa_offset 48
 758              		.loc 1 638 6 view .LVU206
 759 0008 0028     		cmp	r0, #0
 760 000a 71D0     		beq	.L84
 761              		.loc 1 638 22 discriminator 1 view .LVU207
 762 000c 0029     		cmp	r1, #0
 763 000e 6FD0     		beq	.L84
 639:../../Middlewares/Camera_Middleware/ISP_Library/isp/Src/isp_services.c ****       (pConfig->coeff.LUM_0 > ISP_CONTAST_LUMCOEFF_MAX) ||  (pConfig->coeff.LUM_32 > ISP_CONTAST_LU
 764              		.loc 1 639 22 view .LVU208
 765 0010 4B68     		ldr	r3, [r1, #4]
 638:../../Middlewares/Camera_Middleware/ISP_Library/isp/Src/isp_services.c ****       (pConfig->coeff.LUM_0 > ISP_CONTAST_LUMCOEFF_MAX) ||  (pConfig->coeff.LUM_32 > ISP_CONTAST_LU
 766              		.loc 1 638 43 discriminator 2 view .LVU209
 767 0012 B3F5C57F 		cmp	r3, #394
 768 0016 6BD8     		bhi	.L84
 769              		.loc 1 639 76 view .LVU210
 770 0018 D1F80890 		ldr	r9, [r1, #8]
 771              		.loc 1 639 57 view .LVU211
 772 001c B9F5C57F 		cmp	r9, #394
 773 0020 66D8     		bhi	.L84
ARM GAS  C:\Users\Antonio\AppData\Local\Temp\ccF6VN3M.s 			page 27


 640:../../Middlewares/Camera_Middleware/ISP_Library/isp/Src/isp_services.c ****       (pConfig->coeff.LUM_64 > ISP_CONTAST_LUMCOEFF_MAX) || (pConfig->coeff.LUM_96 > ISP_CONTAST_LU
 774              		.loc 1 640 22 view .LVU212
 775 0022 D1F80C80 		ldr	r8, [r1, #12]
 639:../../Middlewares/Camera_Middleware/ISP_Library/isp/Src/isp_services.c ****       (pConfig->coeff.LUM_0 > ISP_CONTAST_LUMCOEFF_MAX) ||  (pConfig->coeff.LUM_32 > ISP_CONTAST_LU
 776              		.loc 1 639 112 discriminator 1 view .LVU213
 777 0026 B8F5C57F 		cmp	r8, #394
 778 002a 61D8     		bhi	.L84
 779              		.loc 1 640 76 view .LVU214
 780 002c D1F810E0 		ldr	lr, [r1, #16]
 781              		.loc 1 640 58 view .LVU215
 782 0030 BEF5C57F 		cmp	lr, #394
 783 0034 5CD8     		bhi	.L84
 641:../../Middlewares/Camera_Middleware/ISP_Library/isp/Src/isp_services.c ****       (pConfig->coeff.LUM_128 > ISP_CONTAST_LUMCOEFF_MAX) || (pConfig->coeff.LUM_160 > ISP_CONTAST_
 784              		.loc 1 641 22 view .LVU216
 785 0036 D1F814C0 		ldr	ip, [r1, #20]
 640:../../Middlewares/Camera_Middleware/ISP_Library/isp/Src/isp_services.c ****       (pConfig->coeff.LUM_64 > ISP_CONTAST_LUMCOEFF_MAX) || (pConfig->coeff.LUM_96 > ISP_CONTAST_LU
 786              		.loc 1 640 112 discriminator 1 view .LVU217
 787 003a BCF5C57F 		cmp	ip, #394
 788 003e 57D8     		bhi	.L84
 789              		.loc 1 641 77 view .LVU218
 790 0040 8F69     		ldr	r7, [r1, #24]
 791              		.loc 1 641 59 view .LVU219
 792 0042 B7F5C57F 		cmp	r7, #394
 793 0046 53D8     		bhi	.L84
 642:../../Middlewares/Camera_Middleware/ISP_Library/isp/Src/isp_services.c ****       (pConfig->coeff.LUM_192 > ISP_CONTAST_LUMCOEFF_MAX) || (pConfig->coeff.LUM_224 > ISP_CONTAST_
 794              		.loc 1 642 22 view .LVU220
 795 0048 CE69     		ldr	r6, [r1, #28]
 641:../../Middlewares/Camera_Middleware/ISP_Library/isp/Src/isp_services.c ****       (pConfig->coeff.LUM_128 > ISP_CONTAST_LUMCOEFF_MAX) || (pConfig->coeff.LUM_160 > ISP_CONTAST_
 796              		.loc 1 641 114 discriminator 1 view .LVU221
 797 004a B6F5C57F 		cmp	r6, #394
 798 004e 4FD8     		bhi	.L84
 799              		.loc 1 642 77 view .LVU222
 800 0050 0C6A     		ldr	r4, [r1, #32]
 801              		.loc 1 642 59 view .LVU223
 802 0052 B4F5C57F 		cmp	r4, #394
 803 0056 4BD8     		bhi	.L84
 643:../../Middlewares/Camera_Middleware/ISP_Library/isp/Src/isp_services.c ****       (pConfig->coeff.LUM_256 > ISP_CONTAST_LUMCOEFF_MAX))
 804              		.loc 1 643 22 view .LVU224
 805 0058 4A6A     		ldr	r2, [r1, #36]
 642:../../Middlewares/Camera_Middleware/ISP_Library/isp/Src/isp_services.c ****       (pConfig->coeff.LUM_192 > ISP_CONTAST_LUMCOEFF_MAX) || (pConfig->coeff.LUM_224 > ISP_CONTAST_
 806              		.loc 1 642 114 discriminator 1 view .LVU225
 807 005a B2F5C57F 		cmp	r2, #394
 808 005e 47D8     		bhi	.L84
 644:../../Middlewares/Camera_Middleware/ISP_Library/isp/Src/isp_services.c ****   {
 645:../../Middlewares/Camera_Middleware/ISP_Library/isp/Src/isp_services.c ****     return ISP_ERR_CONTRAST_EINVAL;
 646:../../Middlewares/Camera_Middleware/ISP_Library/isp/Src/isp_services.c ****   }
 647:../../Middlewares/Camera_Middleware/ISP_Library/isp/Src/isp_services.c **** 
 648:../../Middlewares/Camera_Middleware/ISP_Library/isp/Src/isp_services.c ****   if (pConfig->enable == 0)
 809              		.loc 1 648 3 is_stmt 1 view .LVU226
 810              		.loc 1 648 6 is_stmt 0 view .LVU227
 811 0060 0978     		ldrb	r1, [r1]	@ zero_extendqisi2
 812              	.LVL58:
 649:../../Middlewares/Camera_Middleware/ISP_Library/isp/Src/isp_services.c ****   {
 650:../../Middlewares/Camera_Middleware/ISP_Library/isp/Src/isp_services.c ****     halStatus = HAL_DCMIPP_PIPE_DisableISPCtrlContrast(hIsp->hDcmipp, DCMIPP_PIPE1);
 813              		.loc 1 650 60 view .LVU228
 814 0062 0068     		ldr	r0, [r0]
 815              	.LVL59:
ARM GAS  C:\Users\Antonio\AppData\Local\Temp\ccF6VN3M.s 			page 28


 648:../../Middlewares/Camera_Middleware/ISP_Library/isp/Src/isp_services.c ****   {
 816              		.loc 1 648 6 view .LVU229
 817 0064 21B9     		cbnz	r1, .L70
 818              		.loc 1 650 5 is_stmt 1 view .LVU230
 819              		.loc 1 650 17 is_stmt 0 view .LVU231
 820 0066 0121     		movs	r1, #1
 821 0068 FFF7FEFF 		bl	HAL_DCMIPP_PIPE_DisableISPCtrlContrast
 822              	.LVL60:
 823              	.L71:
 651:../../Middlewares/Camera_Middleware/ISP_Library/isp/Src/isp_services.c ****   }
 652:../../Middlewares/Camera_Middleware/ISP_Library/isp/Src/isp_services.c ****   else
 653:../../Middlewares/Camera_Middleware/ISP_Library/isp/Src/isp_services.c ****   {
 654:../../Middlewares/Camera_Middleware/ISP_Library/isp/Src/isp_services.c ****     /* Concert coefficient unit from "percentage" to "6 bit" */
 655:../../Middlewares/Camera_Middleware/ISP_Library/isp/Src/isp_services.c ****     contrast.LUM_0 = (pConfig->coeff.LUM_0 * 16) / 100;
 656:../../Middlewares/Camera_Middleware/ISP_Library/isp/Src/isp_services.c ****     contrast.LUM_32 = (pConfig->coeff.LUM_32 * 16) / 100;
 657:../../Middlewares/Camera_Middleware/ISP_Library/isp/Src/isp_services.c ****     contrast.LUM_64 = (pConfig->coeff.LUM_64 * 16) / 100;
 658:../../Middlewares/Camera_Middleware/ISP_Library/isp/Src/isp_services.c ****     contrast.LUM_96 = (pConfig->coeff.LUM_96 * 16) / 100;
 659:../../Middlewares/Camera_Middleware/ISP_Library/isp/Src/isp_services.c ****     contrast.LUM_128 = (pConfig->coeff.LUM_128 * 16) / 100;
 660:../../Middlewares/Camera_Middleware/ISP_Library/isp/Src/isp_services.c ****     contrast.LUM_160 = (pConfig->coeff.LUM_160 * 16) / 100;
 661:../../Middlewares/Camera_Middleware/ISP_Library/isp/Src/isp_services.c ****     contrast.LUM_192 = (pConfig->coeff.LUM_192 * 16) / 100;
 662:../../Middlewares/Camera_Middleware/ISP_Library/isp/Src/isp_services.c ****     contrast.LUM_224 = (pConfig->coeff.LUM_224 * 16) / 100;
 663:../../Middlewares/Camera_Middleware/ISP_Library/isp/Src/isp_services.c ****     contrast.LUM_256 = (pConfig->coeff.LUM_256 * 16) / 100;
 664:../../Middlewares/Camera_Middleware/ISP_Library/isp/Src/isp_services.c ****     halStatus = HAL_DCMIPP_PIPE_SetISPCtrlContrastConfig(hIsp->hDcmipp, DCMIPP_PIPE1, &contrast);
 665:../../Middlewares/Camera_Middleware/ISP_Library/isp/Src/isp_services.c **** 
 666:../../Middlewares/Camera_Middleware/ISP_Library/isp/Src/isp_services.c ****     if (halStatus == HAL_OK)
 667:../../Middlewares/Camera_Middleware/ISP_Library/isp/Src/isp_services.c ****     {
 668:../../Middlewares/Camera_Middleware/ISP_Library/isp/Src/isp_services.c ****       halStatus = HAL_DCMIPP_PIPE_EnableISPCtrlContrast(hIsp->hDcmipp, DCMIPP_PIPE1);
 669:../../Middlewares/Camera_Middleware/ISP_Library/isp/Src/isp_services.c ****     }
 670:../../Middlewares/Camera_Middleware/ISP_Library/isp/Src/isp_services.c ****   }
 671:../../Middlewares/Camera_Middleware/ISP_Library/isp/Src/isp_services.c **** 
 672:../../Middlewares/Camera_Middleware/ISP_Library/isp/Src/isp_services.c ****   if (halStatus != HAL_OK)
 824              		.loc 1 672 3 is_stmt 1 view .LVU232
 825              		.loc 1 672 6 is_stmt 0 view .LVU233
 826 006c C0B3     		cbz	r0, .L69
 827              		.loc 1 672 6 view .LVU234
 828 006e 36E0     		b	.L73
 829              	.LVL61:
 830              	.L70:
 655:../../Middlewares/Camera_Middleware/ISP_Library/isp/Src/isp_services.c ****     contrast.LUM_32 = (pConfig->coeff.LUM_32 * 16) / 100;
 831              		.loc 1 655 5 is_stmt 1 view .LVU235
 655:../../Middlewares/Camera_Middleware/ISP_Library/isp/Src/isp_services.c ****     contrast.LUM_32 = (pConfig->coeff.LUM_32 * 16) / 100;
 832              		.loc 1 655 44 is_stmt 0 view .LVU236
 833 0070 1901     		lsls	r1, r3, #4
 655:../../Middlewares/Camera_Middleware/ISP_Library/isp/Src/isp_services.c ****     contrast.LUM_32 = (pConfig->coeff.LUM_32 * 16) / 100;
 834              		.loc 1 655 50 view .LVU237
 835 0072 6423     		movs	r3, #100
 663:../../Middlewares/Camera_Middleware/ISP_Library/isp/Src/isp_services.c ****     halStatus = HAL_DCMIPP_PIPE_SetISPCtrlContrastConfig(hIsp->hDcmipp, DCMIPP_PIPE1, &contrast);
 836              		.loc 1 663 48 view .LVU238
 837 0074 1201     		lsls	r2, r2, #4
 655:../../Middlewares/Camera_Middleware/ISP_Library/isp/Src/isp_services.c ****     contrast.LUM_32 = (pConfig->coeff.LUM_32 * 16) / 100;
 838              		.loc 1 655 50 view .LVU239
 839 0076 B1FBF3F1 		udiv	r1, r1, r3
 663:../../Middlewares/Camera_Middleware/ISP_Library/isp/Src/isp_services.c ****     halStatus = HAL_DCMIPP_PIPE_SetISPCtrlContrastConfig(hIsp->hDcmipp, DCMIPP_PIPE1, &contrast);
 840              		.loc 1 663 54 view .LVU240
 841 007a B2FBF3F2 		udiv	r2, r2, r3
 656:../../Middlewares/Camera_Middleware/ISP_Library/isp/Src/isp_services.c ****     contrast.LUM_64 = (pConfig->coeff.LUM_64 * 16) / 100;
 842              		.loc 1 656 46 view .LVU241
ARM GAS  C:\Users\Antonio\AppData\Local\Temp\ccF6VN3M.s 			page 29


 843 007e 4FEA0919 		lsl	r9, r9, #4
 657:../../Middlewares/Camera_Middleware/ISP_Library/isp/Src/isp_services.c ****     contrast.LUM_96 = (pConfig->coeff.LUM_96 * 16) / 100;
 844              		.loc 1 657 46 view .LVU242
 845 0082 4FEA0818 		lsl	r8, r8, #4
 658:../../Middlewares/Camera_Middleware/ISP_Library/isp/Src/isp_services.c ****     contrast.LUM_128 = (pConfig->coeff.LUM_128 * 16) / 100;
 846              		.loc 1 658 46 view .LVU243
 847 0086 4FEA0E1E 		lsl	lr, lr, #4
 659:../../Middlewares/Camera_Middleware/ISP_Library/isp/Src/isp_services.c ****     contrast.LUM_160 = (pConfig->coeff.LUM_160 * 16) / 100;
 848              		.loc 1 659 48 view .LVU244
 849 008a 4FEA0C1C 		lsl	ip, ip, #4
 660:../../Middlewares/Camera_Middleware/ISP_Library/isp/Src/isp_services.c ****     contrast.LUM_192 = (pConfig->coeff.LUM_192 * 16) / 100;
 850              		.loc 1 660 48 view .LVU245
 851 008e 3F01     		lsls	r7, r7, #4
 661:../../Middlewares/Camera_Middleware/ISP_Library/isp/Src/isp_services.c ****     contrast.LUM_224 = (pConfig->coeff.LUM_224 * 16) / 100;
 852              		.loc 1 661 48 view .LVU246
 853 0090 3601     		lsls	r6, r6, #4
 662:../../Middlewares/Camera_Middleware/ISP_Library/isp/Src/isp_services.c ****     contrast.LUM_256 = (pConfig->coeff.LUM_256 * 16) / 100;
 854              		.loc 1 662 48 view .LVU247
 855 0092 2401     		lsls	r4, r4, #4
 656:../../Middlewares/Camera_Middleware/ISP_Library/isp/Src/isp_services.c ****     contrast.LUM_64 = (pConfig->coeff.LUM_64 * 16) / 100;
 856              		.loc 1 656 52 view .LVU248
 857 0094 B9FBF3F9 		udiv	r9, r9, r3
 657:../../Middlewares/Camera_Middleware/ISP_Library/isp/Src/isp_services.c ****     contrast.LUM_96 = (pConfig->coeff.LUM_96 * 16) / 100;
 858              		.loc 1 657 52 view .LVU249
 859 0098 B8FBF3F8 		udiv	r8, r8, r3
 658:../../Middlewares/Camera_Middleware/ISP_Library/isp/Src/isp_services.c ****     contrast.LUM_128 = (pConfig->coeff.LUM_128 * 16) / 100;
 860              		.loc 1 658 52 view .LVU250
 861 009c BEFBF3FE 		udiv	lr, lr, r3
 659:../../Middlewares/Camera_Middleware/ISP_Library/isp/Src/isp_services.c ****     contrast.LUM_160 = (pConfig->coeff.LUM_160 * 16) / 100;
 862              		.loc 1 659 54 view .LVU251
 863 00a0 BCFBF3FC 		udiv	ip, ip, r3
 660:../../Middlewares/Camera_Middleware/ISP_Library/isp/Src/isp_services.c ****     contrast.LUM_192 = (pConfig->coeff.LUM_192 * 16) / 100;
 864              		.loc 1 660 54 view .LVU252
 865 00a4 B7FBF3F7 		udiv	r7, r7, r3
 661:../../Middlewares/Camera_Middleware/ISP_Library/isp/Src/isp_services.c ****     contrast.LUM_224 = (pConfig->coeff.LUM_224 * 16) / 100;
 866              		.loc 1 661 54 view .LVU253
 867 00a8 B6FBF3F6 		udiv	r6, r6, r3
 662:../../Middlewares/Camera_Middleware/ISP_Library/isp/Src/isp_services.c ****     contrast.LUM_256 = (pConfig->coeff.LUM_256 * 16) / 100;
 868              		.loc 1 662 54 view .LVU254
 869 00ac B4FBF3F4 		udiv	r4, r4, r3
 655:../../Middlewares/Camera_Middleware/ISP_Library/isp/Src/isp_services.c ****     contrast.LUM_32 = (pConfig->coeff.LUM_32 * 16) / 100;
 870              		.loc 1 655 20 view .LVU255
 871 00b0 8DF80410 		strb	r1, [sp, #4]
 656:../../Middlewares/Camera_Middleware/ISP_Library/isp/Src/isp_services.c ****     contrast.LUM_64 = (pConfig->coeff.LUM_64 * 16) / 100;
 872              		.loc 1 656 5 is_stmt 1 view .LVU256
 663:../../Middlewares/Camera_Middleware/ISP_Library/isp/Src/isp_services.c ****     halStatus = HAL_DCMIPP_PIPE_SetISPCtrlContrastConfig(hIsp->hDcmipp, DCMIPP_PIPE1, &contrast);
 873              		.loc 1 663 22 is_stmt 0 view .LVU257
 874 00b4 8DF80C20 		strb	r2, [sp, #12]
 664:../../Middlewares/Camera_Middleware/ISP_Library/isp/Src/isp_services.c **** 
 875              		.loc 1 664 17 view .LVU258
 876 00b8 0121     		movs	r1, #1
 877 00ba 01AA     		add	r2, sp, #4
 656:../../Middlewares/Camera_Middleware/ISP_Library/isp/Src/isp_services.c ****     contrast.LUM_64 = (pConfig->coeff.LUM_64 * 16) / 100;
 878              		.loc 1 656 21 view .LVU259
 879 00bc 8DF80590 		strb	r9, [sp, #5]
 657:../../Middlewares/Camera_Middleware/ISP_Library/isp/Src/isp_services.c ****     contrast.LUM_96 = (pConfig->coeff.LUM_96 * 16) / 100;
 880              		.loc 1 657 5 is_stmt 1 view .LVU260
ARM GAS  C:\Users\Antonio\AppData\Local\Temp\ccF6VN3M.s 			page 30


 657:../../Middlewares/Camera_Middleware/ISP_Library/isp/Src/isp_services.c ****     contrast.LUM_96 = (pConfig->coeff.LUM_96 * 16) / 100;
 881              		.loc 1 657 21 is_stmt 0 view .LVU261
 882 00c0 8DF80680 		strb	r8, [sp, #6]
 658:../../Middlewares/Camera_Middleware/ISP_Library/isp/Src/isp_services.c ****     contrast.LUM_128 = (pConfig->coeff.LUM_128 * 16) / 100;
 883              		.loc 1 658 5 is_stmt 1 view .LVU262
 658:../../Middlewares/Camera_Middleware/ISP_Library/isp/Src/isp_services.c ****     contrast.LUM_128 = (pConfig->coeff.LUM_128 * 16) / 100;
 884              		.loc 1 658 21 is_stmt 0 view .LVU263
 885 00c4 8DF807E0 		strb	lr, [sp, #7]
 659:../../Middlewares/Camera_Middleware/ISP_Library/isp/Src/isp_services.c ****     contrast.LUM_160 = (pConfig->coeff.LUM_160 * 16) / 100;
 886              		.loc 1 659 5 is_stmt 1 view .LVU264
 659:../../Middlewares/Camera_Middleware/ISP_Library/isp/Src/isp_services.c ****     contrast.LUM_160 = (pConfig->coeff.LUM_160 * 16) / 100;
 887              		.loc 1 659 22 is_stmt 0 view .LVU265
 888 00c8 8DF808C0 		strb	ip, [sp, #8]
 660:../../Middlewares/Camera_Middleware/ISP_Library/isp/Src/isp_services.c ****     contrast.LUM_192 = (pConfig->coeff.LUM_192 * 16) / 100;
 889              		.loc 1 660 5 is_stmt 1 view .LVU266
 660:../../Middlewares/Camera_Middleware/ISP_Library/isp/Src/isp_services.c ****     contrast.LUM_192 = (pConfig->coeff.LUM_192 * 16) / 100;
 890              		.loc 1 660 22 is_stmt 0 view .LVU267
 891 00cc 8DF80970 		strb	r7, [sp, #9]
 661:../../Middlewares/Camera_Middleware/ISP_Library/isp/Src/isp_services.c ****     contrast.LUM_224 = (pConfig->coeff.LUM_224 * 16) / 100;
 892              		.loc 1 661 5 is_stmt 1 view .LVU268
 661:../../Middlewares/Camera_Middleware/ISP_Library/isp/Src/isp_services.c ****     contrast.LUM_224 = (pConfig->coeff.LUM_224 * 16) / 100;
 893              		.loc 1 661 22 is_stmt 0 view .LVU269
 894 00d0 8DF80A60 		strb	r6, [sp, #10]
 662:../../Middlewares/Camera_Middleware/ISP_Library/isp/Src/isp_services.c ****     contrast.LUM_256 = (pConfig->coeff.LUM_256 * 16) / 100;
 895              		.loc 1 662 5 is_stmt 1 view .LVU270
 662:../../Middlewares/Camera_Middleware/ISP_Library/isp/Src/isp_services.c ****     contrast.LUM_256 = (pConfig->coeff.LUM_256 * 16) / 100;
 896              		.loc 1 662 22 is_stmt 0 view .LVU271
 897 00d4 8DF80B40 		strb	r4, [sp, #11]
 663:../../Middlewares/Camera_Middleware/ISP_Library/isp/Src/isp_services.c ****     halStatus = HAL_DCMIPP_PIPE_SetISPCtrlContrastConfig(hIsp->hDcmipp, DCMIPP_PIPE1, &contrast);
 898              		.loc 1 663 5 is_stmt 1 view .LVU272
 664:../../Middlewares/Camera_Middleware/ISP_Library/isp/Src/isp_services.c **** 
 899              		.loc 1 664 5 view .LVU273
 664:../../Middlewares/Camera_Middleware/ISP_Library/isp/Src/isp_services.c **** 
 900              		.loc 1 664 17 is_stmt 0 view .LVU274
 901 00d8 FFF7FEFF 		bl	HAL_DCMIPP_PIPE_SetISPCtrlContrastConfig
 902              	.LVL62:
 666:../../Middlewares/Camera_Middleware/ISP_Library/isp/Src/isp_services.c ****     {
 903              		.loc 1 666 5 is_stmt 1 view .LVU275
 666:../../Middlewares/Camera_Middleware/ISP_Library/isp/Src/isp_services.c ****     {
 904              		.loc 1 666 8 is_stmt 0 view .LVU276
 905 00dc 18B1     		cbz	r0, .L72
 906              	.L73:
 673:../../Middlewares/Camera_Middleware/ISP_Library/isp/Src/isp_services.c ****   {
 674:../../Middlewares/Camera_Middleware/ISP_Library/isp/Src/isp_services.c ****     return ISP_ERR_CONTRAST_HAL;
 907              		.loc 1 674 12 view .LVU277
 908 00de 2920     		movs	r0, #41
 909              	.LVL63:
 910              	.L69:
 675:../../Middlewares/Camera_Middleware/ISP_Library/isp/Src/isp_services.c ****   }
 676:../../Middlewares/Camera_Middleware/ISP_Library/isp/Src/isp_services.c **** 
 677:../../Middlewares/Camera_Middleware/ISP_Library/isp/Src/isp_services.c ****   return ISP_OK;
 678:../../Middlewares/Camera_Middleware/ISP_Library/isp/Src/isp_services.c **** }
 911              		.loc 1 678 1 view .LVU278
 912 00e0 05B0     		add	sp, sp, #20
 913              		.cfi_remember_state
 914              		.cfi_def_cfa_offset 28
 915              		@ sp needed
ARM GAS  C:\Users\Antonio\AppData\Local\Temp\ccF6VN3M.s 			page 31


 916 00e2 BDE8F083 		pop	{r4, r5, r6, r7, r8, r9, pc}
 917              	.LVL64:
 918              	.L72:
 919              		.cfi_restore_state
 668:../../Middlewares/Camera_Middleware/ISP_Library/isp/Src/isp_services.c ****     }
 920              		.loc 1 668 7 is_stmt 1 view .LVU279
 668:../../Middlewares/Camera_Middleware/ISP_Library/isp/Src/isp_services.c ****     }
 921              		.loc 1 668 19 is_stmt 0 view .LVU280
 922 00e6 0121     		movs	r1, #1
 923 00e8 2868     		ldr	r0, [r5]
 924              	.LVL65:
 668:../../Middlewares/Camera_Middleware/ISP_Library/isp/Src/isp_services.c ****     }
 925              		.loc 1 668 19 view .LVU281
 926 00ea FFF7FEFF 		bl	HAL_DCMIPP_PIPE_EnableISPCtrlContrast
 927              	.LVL66:
 668:../../Middlewares/Camera_Middleware/ISP_Library/isp/Src/isp_services.c ****     }
 928              		.loc 1 668 19 view .LVU282
 929 00ee BDE7     		b	.L71
 930              	.LVL67:
 931              	.L84:
 645:../../Middlewares/Camera_Middleware/ISP_Library/isp/Src/isp_services.c ****   }
 932              		.loc 1 645 12 view .LVU283
 933 00f0 2820     		movs	r0, #40
 934              	.LVL68:
 645:../../Middlewares/Camera_Middleware/ISP_Library/isp/Src/isp_services.c ****   }
 935              		.loc 1 645 12 view .LVU284
 936 00f2 F5E7     		b	.L69
 937              		.cfi_endproc
 938              	.LFE854:
 940              		.section	.text.ISP_SVC_ISP_SetStatArea,"ax",%progbits
 941              		.align	1
 942              		.global	ISP_SVC_ISP_SetStatArea
 943              		.syntax unified
 944              		.thumb
 945              		.thumb_func
 947              	ISP_SVC_ISP_SetStatArea:
 948              	.LVL69:
 949              	.LFB855:
 679:../../Middlewares/Camera_Middleware/ISP_Library/isp/Src/isp_services.c **** 
 680:../../Middlewares/Camera_Middleware/ISP_Library/isp/Src/isp_services.c **** /**
 681:../../Middlewares/Camera_Middleware/ISP_Library/isp/Src/isp_services.c ****   * @brief  ISP_SVC_ISP_SetStatArea
 682:../../Middlewares/Camera_Middleware/ISP_Library/isp/Src/isp_services.c ****   *         Set the ISP Statistic area
 683:../../Middlewares/Camera_Middleware/ISP_Library/isp/Src/isp_services.c ****   * @param  hIsp: ISP device handle
 684:../../Middlewares/Camera_Middleware/ISP_Library/isp/Src/isp_services.c ****   * @param  pConfig: Pointer to statistic area used by the IQ algorithms
 685:../../Middlewares/Camera_Middleware/ISP_Library/isp/Src/isp_services.c ****   * @retval operation result
 686:../../Middlewares/Camera_Middleware/ISP_Library/isp/Src/isp_services.c ****   */
 687:../../Middlewares/Camera_Middleware/ISP_Library/isp/Src/isp_services.c **** ISP_StatusTypeDef ISP_SVC_ISP_SetStatArea(ISP_HandleTypeDef *hIsp, ISP_StatAreaTypeDef *pConfig)
 688:../../Middlewares/Camera_Middleware/ISP_Library/isp/Src/isp_services.c **** {
 950              		.loc 1 688 1 is_stmt 1 view -0
 951              		.cfi_startproc
 952              		@ args = 0, pretend = 0, frame = 16
 953              		@ frame_needed = 0, uses_anonymous_args = 0
 689:../../Middlewares/Camera_Middleware/ISP_Library/isp/Src/isp_services.c ****   HAL_StatusTypeDef halStatus;
 954              		.loc 1 689 3 view .LVU286
 690:../../Middlewares/Camera_Middleware/ISP_Library/isp/Src/isp_services.c ****   DCMIPP_StatisticExtractionAreaConfTypeDef currentStatAreaCfg;
 955              		.loc 1 690 3 view .LVU287
 691:../../Middlewares/Camera_Middleware/ISP_Library/isp/Src/isp_services.c ****   ISP_StatusTypeDef ret = ISP_OK;
ARM GAS  C:\Users\Antonio\AppData\Local\Temp\ccF6VN3M.s 			page 32


 956              		.loc 1 691 3 view .LVU288
 692:../../Middlewares/Camera_Middleware/ISP_Library/isp/Src/isp_services.c **** 
 693:../../Middlewares/Camera_Middleware/ISP_Library/isp/Src/isp_services.c ****   if ((hIsp == NULL) || (pConfig == NULL) ||
 957              		.loc 1 693 3 view .LVU289
 688:../../Middlewares/Camera_Middleware/ISP_Library/isp/Src/isp_services.c ****   HAL_StatusTypeDef halStatus;
 958              		.loc 1 688 1 is_stmt 0 view .LVU290
 959 0000 F0B5     		push	{r4, r5, r6, r7, lr}
 960              		.cfi_def_cfa_offset 20
 961              		.cfi_offset 4, -20
 962              		.cfi_offset 5, -16
 963              		.cfi_offset 6, -12
 964              		.cfi_offset 7, -8
 965              		.cfi_offset 14, -4
 966 0002 0E46     		mov	r6, r1
 967              		.loc 1 693 6 view .LVU291
 968 0004 0546     		mov	r5, r0
 688:../../Middlewares/Camera_Middleware/ISP_Library/isp/Src/isp_services.c ****   HAL_StatusTypeDef halStatus;
 969              		.loc 1 688 1 view .LVU292
 970 0006 85B0     		sub	sp, sp, #20
 971              		.cfi_def_cfa_offset 40
 972              		.loc 1 693 6 view .LVU293
 973 0008 0028     		cmp	r0, #0
 974 000a 41D0     		beq	.L97
 975              		.loc 1 693 22 discriminator 1 view .LVU294
 976 000c 0029     		cmp	r1, #0
 977 000e 3FD0     		beq	.L97
 978              		.loc 1 693 43 discriminator 2 view .LVU295
 979 0010 40F6FE72 		movw	r2, #4094
 694:../../Middlewares/Camera_Middleware/ISP_Library/isp/Src/isp_services.c ****       (pConfig->X0 > ISP_STATWINDOW_MAX) ||
 980              		.loc 1 694 15 view .LVU296
 981 0014 0868     		ldr	r0, [r1]
 982              	.LVL70:
 693:../../Middlewares/Camera_Middleware/ISP_Library/isp/Src/isp_services.c ****       (pConfig->X0 > ISP_STATWINDOW_MAX) ||
 983              		.loc 1 693 43 discriminator 2 view .LVU297
 984 0016 9042     		cmp	r0, r2
 985 0018 3AD8     		bhi	.L97
 695:../../Middlewares/Camera_Middleware/ISP_Library/isp/Src/isp_services.c ****       (pConfig->Y0 > ISP_STATWINDOW_MAX) ||
 986              		.loc 1 695 15 view .LVU298
 987 001a 4968     		ldr	r1, [r1, #4]
 988              	.LVL71:
 694:../../Middlewares/Camera_Middleware/ISP_Library/isp/Src/isp_services.c ****       (pConfig->X0 > ISP_STATWINDOW_MAX) ||
 989              		.loc 1 694 42 view .LVU299
 990 001c 9142     		cmp	r1, r2
 991 001e 37D8     		bhi	.L97
 696:../../Middlewares/Camera_Middleware/ISP_Library/isp/Src/isp_services.c ****       (pConfig->XSize > ISP_STATWINDOW_MAX) ||
 992              		.loc 1 696 15 view .LVU300
 993 0020 B368     		ldr	r3, [r6, #8]
 695:../../Middlewares/Camera_Middleware/ISP_Library/isp/Src/isp_services.c ****       (pConfig->Y0 > ISP_STATWINDOW_MAX) ||
 994              		.loc 1 695 42 view .LVU301
 995 0022 9342     		cmp	r3, r2
 996 0024 34D8     		bhi	.L97
 997              		.loc 1 696 45 view .LVU302
 998 0026 40F6FA74 		movw	r4, #4090
 697:../../Middlewares/Camera_Middleware/ISP_Library/isp/Src/isp_services.c ****       (pConfig->YSize > ISP_STATWINDOW_MAX) ||
 999              		.loc 1 697 15 view .LVU303
 1000 002a F268     		ldr	r2, [r6, #12]
 696:../../Middlewares/Camera_Middleware/ISP_Library/isp/Src/isp_services.c ****       (pConfig->XSize > ISP_STATWINDOW_MAX) ||
ARM GAS  C:\Users\Antonio\AppData\Local\Temp\ccF6VN3M.s 			page 33


 1001              		.loc 1 696 45 view .LVU304
 1002 002c 171F     		subs	r7, r2, #4
 1003 002e A742     		cmp	r7, r4
 1004 0030 2ED8     		bhi	.L97
 1005              		.loc 1 697 45 view .LVU305
 1006 0032 032B     		cmp	r3, #3
 1007 0034 2CD9     		bls	.L97
 698:../../Middlewares/Camera_Middleware/ISP_Library/isp/Src/isp_services.c ****       (pConfig->XSize < ISP_STATWINDOW_MIN) ||
 699:../../Middlewares/Camera_Middleware/ISP_Library/isp/Src/isp_services.c ****       (pConfig->YSize < ISP_STATWINDOW_MIN) ||
 1008              		.loc 1 699 45 view .LVU306
 1009 0036 2F6F     		ldr	r7, [r5, #112]
 700:../../Middlewares/Camera_Middleware/ISP_Library/isp/Src/isp_services.c ****       (pConfig->X0 + pConfig->XSize > hIsp->sensorInfo.width) ||
 1010              		.loc 1 700 20 view .LVU307
 1011 0038 C418     		adds	r4, r0, r3
 699:../../Middlewares/Camera_Middleware/ISP_Library/isp/Src/isp_services.c ****       (pConfig->X0 + pConfig->XSize > hIsp->sensorInfo.width) ||
 1012              		.loc 1 699 45 view .LVU308
 1013 003a BC42     		cmp	r4, r7
 1014 003c 28D8     		bhi	.L97
 1015              		.loc 1 700 63 view .LVU309
 1016 003e 6F6F     		ldr	r7, [r5, #116]
 701:../../Middlewares/Camera_Middleware/ISP_Library/isp/Src/isp_services.c ****       (pConfig->Y0 + pConfig->YSize > hIsp->sensorInfo.height))
 1017              		.loc 1 701 20 view .LVU310
 1018 0040 8C18     		adds	r4, r1, r2
 700:../../Middlewares/Camera_Middleware/ISP_Library/isp/Src/isp_services.c ****       (pConfig->X0 + pConfig->XSize > hIsp->sensorInfo.width) ||
 1019              		.loc 1 700 63 view .LVU311
 1020 0042 BC42     		cmp	r4, r7
 1021 0044 24D8     		bhi	.L97
 702:../../Middlewares/Camera_Middleware/ISP_Library/isp/Src/isp_services.c ****   {
 703:../../Middlewares/Camera_Middleware/ISP_Library/isp/Src/isp_services.c ****     return ISP_ERR_STATAREA_EINVAL;
 704:../../Middlewares/Camera_Middleware/ISP_Library/isp/Src/isp_services.c ****   }
 705:../../Middlewares/Camera_Middleware/ISP_Library/isp/Src/isp_services.c **** 
 706:../../Middlewares/Camera_Middleware/ISP_Library/isp/Src/isp_services.c ****   /* Set coordinates in the 'decimated' referential */
 707:../../Middlewares/Camera_Middleware/ISP_Library/isp/Src/isp_services.c ****   currentStatAreaCfg.HStart = pConfig->X0 / ISP_DecimationValue.factor;
 1022              		.loc 1 707 3 is_stmt 1 view .LVU312
 1023              		.loc 1 707 64 is_stmt 0 view .LVU313
 1024 0046 134C     		ldr	r4, .L98
 1025 0048 2478     		ldrb	r4, [r4]	@ zero_extendqisi2
 1026              		.loc 1 707 43 view .LVU314
 1027 004a B0FBF4F0 		udiv	r0, r0, r4
 708:../../Middlewares/Camera_Middleware/ISP_Library/isp/Src/isp_services.c ****   currentStatAreaCfg.VStart = pConfig->Y0 / ISP_DecimationValue.factor;
 1028              		.loc 1 708 43 view .LVU315
 1029 004e B1FBF4F1 		udiv	r1, r1, r4
 709:../../Middlewares/Camera_Middleware/ISP_Library/isp/Src/isp_services.c ****   currentStatAreaCfg.HSize = pConfig->XSize / ISP_DecimationValue.factor;
 710:../../Middlewares/Camera_Middleware/ISP_Library/isp/Src/isp_services.c ****   currentStatAreaCfg.VSize = pConfig->YSize / ISP_DecimationValue.factor;
 1030              		.loc 1 710 45 view .LVU316
 1031 0052 B2FBF4F2 		udiv	r2, r2, r4
 709:../../Middlewares/Camera_Middleware/ISP_Library/isp/Src/isp_services.c ****   currentStatAreaCfg.HSize = pConfig->XSize / ISP_DecimationValue.factor;
 1032              		.loc 1 709 45 view .LVU317
 1033 0056 B3FBF4F3 		udiv	r3, r3, r4
 707:../../Middlewares/Camera_Middleware/ISP_Library/isp/Src/isp_services.c ****   currentStatAreaCfg.VStart = pConfig->Y0 / ISP_DecimationValue.factor;
 1034              		.loc 1 707 29 view .LVU318
 1035 005a 0190     		str	r0, [sp, #4]
 708:../../Middlewares/Camera_Middleware/ISP_Library/isp/Src/isp_services.c ****   currentStatAreaCfg.VStart = pConfig->Y0 / ISP_DecimationValue.factor;
 1036              		.loc 1 708 3 is_stmt 1 view .LVU319
 708:../../Middlewares/Camera_Middleware/ISP_Library/isp/Src/isp_services.c ****   currentStatAreaCfg.VStart = pConfig->Y0 / ISP_DecimationValue.factor;
 1037              		.loc 1 708 29 is_stmt 0 view .LVU320
 1038 005c 0091     		str	r1, [sp]
ARM GAS  C:\Users\Antonio\AppData\Local\Temp\ccF6VN3M.s 			page 34


 709:../../Middlewares/Camera_Middleware/ISP_Library/isp/Src/isp_services.c ****   currentStatAreaCfg.HSize = pConfig->XSize / ISP_DecimationValue.factor;
 1039              		.loc 1 709 3 is_stmt 1 view .LVU321
 1040              		.loc 1 710 28 is_stmt 0 view .LVU322
 1041 005e 0292     		str	r2, [sp, #8]
 711:../../Middlewares/Camera_Middleware/ISP_Library/isp/Src/isp_services.c **** 
 712:../../Middlewares/Camera_Middleware/ISP_Library/isp/Src/isp_services.c ****   if (HAL_DCMIPP_PIPE_SetISPAreaStatisticExtractionConfig(hIsp->hDcmipp, DCMIPP_PIPE1,
 1042              		.loc 1 712 7 view .LVU323
 1043 0060 0121     		movs	r1, #1
 1044 0062 6A46     		mov	r2, sp
 1045 0064 2868     		ldr	r0, [r5]
 709:../../Middlewares/Camera_Middleware/ISP_Library/isp/Src/isp_services.c ****   currentStatAreaCfg.VSize = pConfig->YSize / ISP_DecimationValue.factor;
 1046              		.loc 1 709 28 view .LVU324
 1047 0066 0393     		str	r3, [sp, #12]
 710:../../Middlewares/Camera_Middleware/ISP_Library/isp/Src/isp_services.c **** 
 1048              		.loc 1 710 3 is_stmt 1 view .LVU325
 1049              		.loc 1 712 3 view .LVU326
 1050              		.loc 1 712 7 is_stmt 0 view .LVU327
 1051 0068 FFF7FEFF 		bl	HAL_DCMIPP_PIPE_SetISPAreaStatisticExtractionConfig
 1052              	.LVL72:
 1053              		.loc 1 712 6 discriminator 1 view .LVU328
 1054 006c 18B1     		cbz	r0, .L87
 1055              	.L88:
 713:../../Middlewares/Camera_Middleware/ISP_Library/isp/Src/isp_services.c ****                                                           &currentStatAreaCfg) != HAL_OK)
 714:../../Middlewares/Camera_Middleware/ISP_Library/isp/Src/isp_services.c ****   {
 715:../../Middlewares/Camera_Middleware/ISP_Library/isp/Src/isp_services.c ****     return ISP_ERR_STATAREA_HAL;
 1056              		.loc 1 715 12 view .LVU329
 1057 006e 3324     		movs	r4, #51
 1058              	.LVL73:
 1059              	.L86:
 716:../../Middlewares/Camera_Middleware/ISP_Library/isp/Src/isp_services.c ****   }
 717:../../Middlewares/Camera_Middleware/ISP_Library/isp/Src/isp_services.c ****   else
 718:../../Middlewares/Camera_Middleware/ISP_Library/isp/Src/isp_services.c ****   {
 719:../../Middlewares/Camera_Middleware/ISP_Library/isp/Src/isp_services.c ****     halStatus = HAL_DCMIPP_PIPE_EnableISPAreaStatisticExtraction(hIsp->hDcmipp, DCMIPP_PIPE1);
 720:../../Middlewares/Camera_Middleware/ISP_Library/isp/Src/isp_services.c ****   }
 721:../../Middlewares/Camera_Middleware/ISP_Library/isp/Src/isp_services.c **** 
 722:../../Middlewares/Camera_Middleware/ISP_Library/isp/Src/isp_services.c ****   if (halStatus != HAL_OK)
 723:../../Middlewares/Camera_Middleware/ISP_Library/isp/Src/isp_services.c ****   {
 724:../../Middlewares/Camera_Middleware/ISP_Library/isp/Src/isp_services.c ****     return ISP_ERR_STATAREA_HAL;
 725:../../Middlewares/Camera_Middleware/ISP_Library/isp/Src/isp_services.c ****   }
 726:../../Middlewares/Camera_Middleware/ISP_Library/isp/Src/isp_services.c **** 
 727:../../Middlewares/Camera_Middleware/ISP_Library/isp/Src/isp_services.c ****   /* Update internal state */
 728:../../Middlewares/Camera_Middleware/ISP_Library/isp/Src/isp_services.c ****   hIsp->statArea = *pConfig;
 729:../../Middlewares/Camera_Middleware/ISP_Library/isp/Src/isp_services.c **** 
 730:../../Middlewares/Camera_Middleware/ISP_Library/isp/Src/isp_services.c ****   return ret;
 731:../../Middlewares/Camera_Middleware/ISP_Library/isp/Src/isp_services.c **** }
 1060              		.loc 1 731 1 view .LVU330
 1061 0070 2046     		mov	r0, r4
 1062 0072 05B0     		add	sp, sp, #20
 1063              		.cfi_remember_state
 1064              		.cfi_def_cfa_offset 20
 1065              		@ sp needed
 1066 0074 F0BD     		pop	{r4, r5, r6, r7, pc}
 1067              	.LVL74:
 1068              	.L87:
 1069              		.cfi_restore_state
 719:../../Middlewares/Camera_Middleware/ISP_Library/isp/Src/isp_services.c ****   }
 1070              		.loc 1 719 5 is_stmt 1 view .LVU331
ARM GAS  C:\Users\Antonio\AppData\Local\Temp\ccF6VN3M.s 			page 35


 719:../../Middlewares/Camera_Middleware/ISP_Library/isp/Src/isp_services.c ****   }
 1071              		.loc 1 719 17 is_stmt 0 view .LVU332
 1072 0076 0121     		movs	r1, #1
 1073 0078 2868     		ldr	r0, [r5]
 1074 007a FFF7FEFF 		bl	HAL_DCMIPP_PIPE_EnableISPAreaStatisticExtraction
 1075              	.LVL75:
 722:../../Middlewares/Camera_Middleware/ISP_Library/isp/Src/isp_services.c ****   {
 1076              		.loc 1 722 3 is_stmt 1 view .LVU333
 722:../../Middlewares/Camera_Middleware/ISP_Library/isp/Src/isp_services.c ****   {
 1077              		.loc 1 722 6 is_stmt 0 view .LVU334
 1078 007e 0446     		mov	r4, r0
 1079 0080 0028     		cmp	r0, #0
 1080 0082 F4D1     		bne	.L88
 728:../../Middlewares/Camera_Middleware/ISP_Library/isp/Src/isp_services.c **** 
 1081              		.loc 1 728 3 is_stmt 1 view .LVU335
 728:../../Middlewares/Camera_Middleware/ISP_Library/isp/Src/isp_services.c **** 
 1082              		.loc 1 728 18 is_stmt 0 view .LVU336
 1083 0084 96E80F00 		ldm	r6, {r0, r1, r2, r3}
 1084              	.LVL76:
 728:../../Middlewares/Camera_Middleware/ISP_Library/isp/Src/isp_services.c **** 
 1085              		.loc 1 728 18 view .LVU337
 1086 0088 0835     		adds	r5, r5, #8
 1087              	.LVL77:
 728:../../Middlewares/Camera_Middleware/ISP_Library/isp/Src/isp_services.c **** 
 1088              		.loc 1 728 18 view .LVU338
 1089 008a 85E80F00 		stm	r5, {r0, r1, r2, r3}
 730:../../Middlewares/Camera_Middleware/ISP_Library/isp/Src/isp_services.c **** }
 1090              		.loc 1 730 3 is_stmt 1 view .LVU339
 730:../../Middlewares/Camera_Middleware/ISP_Library/isp/Src/isp_services.c **** }
 1091              		.loc 1 730 10 is_stmt 0 view .LVU340
 1092 008e EFE7     		b	.L86
 1093              	.LVL78:
 1094              	.L97:
 703:../../Middlewares/Camera_Middleware/ISP_Library/isp/Src/isp_services.c ****   }
 1095              		.loc 1 703 12 view .LVU341
 1096 0090 3224     		movs	r4, #50
 1097 0092 EDE7     		b	.L86
 1098              	.L99:
 1099              		.align	2
 1100              	.L98:
 1101 0094 00000000 		.word	ISP_DecimationValue
 1102              		.cfi_endproc
 1103              	.LFE855:
 1105              		.section	.text.ISP_SVC_ISP_GetStatArea,"ax",%progbits
 1106              		.align	1
 1107              		.global	ISP_SVC_ISP_GetStatArea
 1108              		.syntax unified
 1109              		.thumb
 1110              		.thumb_func
 1112              	ISP_SVC_ISP_GetStatArea:
 1113              	.LVL79:
 1114              	.LFB856:
 732:../../Middlewares/Camera_Middleware/ISP_Library/isp/Src/isp_services.c **** 
 733:../../Middlewares/Camera_Middleware/ISP_Library/isp/Src/isp_services.c **** /**
 734:../../Middlewares/Camera_Middleware/ISP_Library/isp/Src/isp_services.c ****   * @brief  ISP_SVC_ISP_GetStatArea
 735:../../Middlewares/Camera_Middleware/ISP_Library/isp/Src/isp_services.c ****   *         Get the ISP Statistic area
 736:../../Middlewares/Camera_Middleware/ISP_Library/isp/Src/isp_services.c ****   * @param  hIsp: ISP device handle
ARM GAS  C:\Users\Antonio\AppData\Local\Temp\ccF6VN3M.s 			page 36


 737:../../Middlewares/Camera_Middleware/ISP_Library/isp/Src/isp_services.c ****   * @param  pConfig: Pointer to statistic area used by the IQ algorithms
 738:../../Middlewares/Camera_Middleware/ISP_Library/isp/Src/isp_services.c ****   * @retval operation result
 739:../../Middlewares/Camera_Middleware/ISP_Library/isp/Src/isp_services.c ****   */
 740:../../Middlewares/Camera_Middleware/ISP_Library/isp/Src/isp_services.c **** ISP_StatusTypeDef ISP_SVC_ISP_GetStatArea(ISP_HandleTypeDef *hIsp, ISP_StatAreaTypeDef *pConfig)
 741:../../Middlewares/Camera_Middleware/ISP_Library/isp/Src/isp_services.c **** {
 1115              		.loc 1 741 1 is_stmt 1 view -0
 1116              		.cfi_startproc
 1117              		@ args = 0, pretend = 0, frame = 16
 1118              		@ frame_needed = 0, uses_anonymous_args = 0
 742:../../Middlewares/Camera_Middleware/ISP_Library/isp/Src/isp_services.c ****   DCMIPP_StatisticExtractionAreaConfTypeDef currentStatAreaCfg;
 1119              		.loc 1 742 3 view .LVU343
 743:../../Middlewares/Camera_Middleware/ISP_Library/isp/Src/isp_services.c **** 
 744:../../Middlewares/Camera_Middleware/ISP_Library/isp/Src/isp_services.c ****   /* Check handles validity */
 745:../../Middlewares/Camera_Middleware/ISP_Library/isp/Src/isp_services.c ****   if ((hIsp == NULL) || (pConfig == NULL))
 1120              		.loc 1 745 3 view .LVU344
 741:../../Middlewares/Camera_Middleware/ISP_Library/isp/Src/isp_services.c ****   DCMIPP_StatisticExtractionAreaConfTypeDef currentStatAreaCfg;
 1121              		.loc 1 741 1 is_stmt 0 view .LVU345
 1122 0000 30B5     		push	{r4, r5, lr}
 1123              		.cfi_def_cfa_offset 12
 1124              		.cfi_offset 4, -12
 1125              		.cfi_offset 5, -8
 1126              		.cfi_offset 14, -4
 1127 0002 0C46     		mov	r4, r1
 1128              		.loc 1 745 6 view .LVU346
 1129 0004 0546     		mov	r5, r0
 741:../../Middlewares/Camera_Middleware/ISP_Library/isp/Src/isp_services.c ****   DCMIPP_StatisticExtractionAreaConfTypeDef currentStatAreaCfg;
 1130              		.loc 1 741 1 view .LVU347
 1131 0006 85B0     		sub	sp, sp, #20
 1132              		.cfi_def_cfa_offset 32
 1133              		.loc 1 745 6 view .LVU348
 1134 0008 00B3     		cbz	r0, .L105
 1135              		.loc 1 745 22 discriminator 1 view .LVU349
 1136 000a F9B1     		cbz	r1, .L105
 746:../../Middlewares/Camera_Middleware/ISP_Library/isp/Src/isp_services.c ****   {
 747:../../Middlewares/Camera_Middleware/ISP_Library/isp/Src/isp_services.c ****     return ISP_ERR_STATAREA_EINVAL;
 748:../../Middlewares/Camera_Middleware/ISP_Library/isp/Src/isp_services.c ****   }
 749:../../Middlewares/Camera_Middleware/ISP_Library/isp/Src/isp_services.c **** 
 750:../../Middlewares/Camera_Middleware/ISP_Library/isp/Src/isp_services.c ****   if (HAL_DCMIPP_PIPE_IsEnabledISPAreaStatisticExtraction(hIsp->hDcmipp, DCMIPP_PIPE1) == 0)
 1137              		.loc 1 750 3 is_stmt 1 view .LVU350
 1138              		.loc 1 750 7 is_stmt 0 view .LVU351
 1139 000c 0121     		movs	r1, #1
 1140              	.LVL80:
 1141              		.loc 1 750 7 view .LVU352
 1142 000e 0068     		ldr	r0, [r0]
 1143              	.LVL81:
 1144              		.loc 1 750 7 view .LVU353
 1145 0010 FFF7FEFF 		bl	HAL_DCMIPP_PIPE_IsEnabledISPAreaStatisticExtraction
 1146              	.LVL82:
 1147              		.loc 1 750 6 discriminator 1 view .LVU354
 1148 0014 30B9     		cbnz	r0, .L102
 751:../../Middlewares/Camera_Middleware/ISP_Library/isp/Src/isp_services.c ****   {
 752:../../Middlewares/Camera_Middleware/ISP_Library/isp/Src/isp_services.c ****     pConfig->X0 = 0;
 1149              		.loc 1 752 5 is_stmt 1 view .LVU355
 753:../../Middlewares/Camera_Middleware/ISP_Library/isp/Src/isp_services.c ****     pConfig->Y0 = 0;
 1150              		.loc 1 753 17 is_stmt 0 view .LVU356
 1151 0016 C4E90000 		strd	r0, r0, [r4]
 754:../../Middlewares/Camera_Middleware/ISP_Library/isp/Src/isp_services.c ****     pConfig->XSize = 0;
ARM GAS  C:\Users\Antonio\AppData\Local\Temp\ccF6VN3M.s 			page 37


 1152              		.loc 1 754 5 is_stmt 1 view .LVU357
 755:../../Middlewares/Camera_Middleware/ISP_Library/isp/Src/isp_services.c ****     pConfig->YSize = 0;
 1153              		.loc 1 755 20 is_stmt 0 view .LVU358
 1154 001a C4E90200 		strd	r0, r0, [r4, #8]
 1155              	.L103:
 756:../../Middlewares/Camera_Middleware/ISP_Library/isp/Src/isp_services.c ****   }
 757:../../Middlewares/Camera_Middleware/ISP_Library/isp/Src/isp_services.c ****   else
 758:../../Middlewares/Camera_Middleware/ISP_Library/isp/Src/isp_services.c ****   {
 759:../../Middlewares/Camera_Middleware/ISP_Library/isp/Src/isp_services.c ****     HAL_DCMIPP_PIPE_GetISPAreaStatisticExtractionConfig(hIsp->hDcmipp, DCMIPP_PIPE1,
 760:../../Middlewares/Camera_Middleware/ISP_Library/isp/Src/isp_services.c ****                                                         &currentStatAreaCfg);
 761:../../Middlewares/Camera_Middleware/ISP_Library/isp/Src/isp_services.c **** 
 762:../../Middlewares/Camera_Middleware/ISP_Library/isp/Src/isp_services.c ****     /* Consider decimation */
 763:../../Middlewares/Camera_Middleware/ISP_Library/isp/Src/isp_services.c ****     pConfig->X0 = currentStatAreaCfg.HStart * ISP_DecimationValue.factor;
 764:../../Middlewares/Camera_Middleware/ISP_Library/isp/Src/isp_services.c ****     pConfig->Y0 = currentStatAreaCfg.VStart * ISP_DecimationValue.factor;
 765:../../Middlewares/Camera_Middleware/ISP_Library/isp/Src/isp_services.c ****     pConfig->XSize = currentStatAreaCfg.HSize * ISP_DecimationValue.factor;
 766:../../Middlewares/Camera_Middleware/ISP_Library/isp/Src/isp_services.c ****     pConfig->YSize = currentStatAreaCfg.VSize * ISP_DecimationValue.factor;
 767:../../Middlewares/Camera_Middleware/ISP_Library/isp/Src/isp_services.c ****   }
 768:../../Middlewares/Camera_Middleware/ISP_Library/isp/Src/isp_services.c **** 
 769:../../Middlewares/Camera_Middleware/ISP_Library/isp/Src/isp_services.c ****   return ISP_OK;
 1156              		.loc 1 769 10 view .LVU359
 1157 001e 0020     		movs	r0, #0
 1158              	.L101:
 770:../../Middlewares/Camera_Middleware/ISP_Library/isp/Src/isp_services.c **** }
 1159              		.loc 1 770 1 view .LVU360
 1160 0020 05B0     		add	sp, sp, #20
 1161              		.cfi_remember_state
 1162              		.cfi_def_cfa_offset 12
 1163              		@ sp needed
 1164 0022 30BD     		pop	{r4, r5, pc}
 1165              	.LVL83:
 1166              	.L102:
 1167              		.cfi_restore_state
 759:../../Middlewares/Camera_Middleware/ISP_Library/isp/Src/isp_services.c ****                                                         &currentStatAreaCfg);
 1168              		.loc 1 759 5 is_stmt 1 view .LVU361
 1169 0024 6A46     		mov	r2, sp
 1170 0026 0121     		movs	r1, #1
 1171 0028 2868     		ldr	r0, [r5]
 1172 002a FFF7FEFF 		bl	HAL_DCMIPP_PIPE_GetISPAreaStatisticExtractionConfig
 1173              	.LVL84:
 763:../../Middlewares/Camera_Middleware/ISP_Library/isp/Src/isp_services.c ****     pConfig->Y0 = currentStatAreaCfg.VStart * ISP_DecimationValue.factor;
 1174              		.loc 1 763 5 view .LVU362
 763:../../Middlewares/Camera_Middleware/ISP_Library/isp/Src/isp_services.c ****     pConfig->Y0 = currentStatAreaCfg.VStart * ISP_DecimationValue.factor;
 1175              		.loc 1 763 66 is_stmt 0 view .LVU363
 1176 002e 084B     		ldr	r3, .L106
 763:../../Middlewares/Camera_Middleware/ISP_Library/isp/Src/isp_services.c ****     pConfig->Y0 = currentStatAreaCfg.VStart * ISP_DecimationValue.factor;
 1177              		.loc 1 763 45 view .LVU364
 1178 0030 019A     		ldr	r2, [sp, #4]
 763:../../Middlewares/Camera_Middleware/ISP_Library/isp/Src/isp_services.c ****     pConfig->Y0 = currentStatAreaCfg.VStart * ISP_DecimationValue.factor;
 1179              		.loc 1 763 66 view .LVU365
 1180 0032 1B78     		ldrb	r3, [r3]	@ zero_extendqisi2
 763:../../Middlewares/Camera_Middleware/ISP_Library/isp/Src/isp_services.c ****     pConfig->Y0 = currentStatAreaCfg.VStart * ISP_DecimationValue.factor;
 1181              		.loc 1 763 45 view .LVU366
 1182 0034 5A43     		muls	r2, r3, r2
 763:../../Middlewares/Camera_Middleware/ISP_Library/isp/Src/isp_services.c ****     pConfig->Y0 = currentStatAreaCfg.VStart * ISP_DecimationValue.factor;
 1183              		.loc 1 763 17 view .LVU367
 1184 0036 2260     		str	r2, [r4]
 764:../../Middlewares/Camera_Middleware/ISP_Library/isp/Src/isp_services.c ****     pConfig->XSize = currentStatAreaCfg.HSize * ISP_DecimationValue.factor;
ARM GAS  C:\Users\Antonio\AppData\Local\Temp\ccF6VN3M.s 			page 38


 1185              		.loc 1 764 5 is_stmt 1 view .LVU368
 764:../../Middlewares/Camera_Middleware/ISP_Library/isp/Src/isp_services.c ****     pConfig->XSize = currentStatAreaCfg.HSize * ISP_DecimationValue.factor;
 1186              		.loc 1 764 45 is_stmt 0 view .LVU369
 1187 0038 009A     		ldr	r2, [sp]
 1188 003a 5A43     		muls	r2, r3, r2
 764:../../Middlewares/Camera_Middleware/ISP_Library/isp/Src/isp_services.c ****     pConfig->XSize = currentStatAreaCfg.HSize * ISP_DecimationValue.factor;
 1189              		.loc 1 764 17 view .LVU370
 1190 003c 6260     		str	r2, [r4, #4]
 765:../../Middlewares/Camera_Middleware/ISP_Library/isp/Src/isp_services.c ****     pConfig->YSize = currentStatAreaCfg.VSize * ISP_DecimationValue.factor;
 1191              		.loc 1 765 5 is_stmt 1 view .LVU371
 765:../../Middlewares/Camera_Middleware/ISP_Library/isp/Src/isp_services.c ****     pConfig->YSize = currentStatAreaCfg.VSize * ISP_DecimationValue.factor;
 1192              		.loc 1 765 47 is_stmt 0 view .LVU372
 1193 003e 039A     		ldr	r2, [sp, #12]
 1194 0040 5A43     		muls	r2, r3, r2
 765:../../Middlewares/Camera_Middleware/ISP_Library/isp/Src/isp_services.c ****     pConfig->YSize = currentStatAreaCfg.VSize * ISP_DecimationValue.factor;
 1195              		.loc 1 765 20 view .LVU373
 1196 0042 A260     		str	r2, [r4, #8]
 766:../../Middlewares/Camera_Middleware/ISP_Library/isp/Src/isp_services.c ****   }
 1197              		.loc 1 766 5 is_stmt 1 view .LVU374
 766:../../Middlewares/Camera_Middleware/ISP_Library/isp/Src/isp_services.c ****   }
 1198              		.loc 1 766 47 is_stmt 0 view .LVU375
 1199 0044 029A     		ldr	r2, [sp, #8]
 1200 0046 5A43     		muls	r2, r3, r2
 766:../../Middlewares/Camera_Middleware/ISP_Library/isp/Src/isp_services.c ****   }
 1201              		.loc 1 766 20 view .LVU376
 1202 0048 E260     		str	r2, [r4, #12]
 1203 004a E8E7     		b	.L103
 1204              	.LVL85:
 1205              	.L105:
 747:../../Middlewares/Camera_Middleware/ISP_Library/isp/Src/isp_services.c ****   }
 1206              		.loc 1 747 12 view .LVU377
 1207 004c 3220     		movs	r0, #50
 1208              	.LVL86:
 747:../../Middlewares/Camera_Middleware/ISP_Library/isp/Src/isp_services.c ****   }
 1209              		.loc 1 747 12 view .LVU378
 1210 004e E7E7     		b	.L101
 1211              	.L107:
 1212              		.align	2
 1213              	.L106:
 1214 0050 00000000 		.word	ISP_DecimationValue
 1215              		.cfi_endproc
 1216              	.LFE856:
 1218              		.section	.text.ISP_SVC_ISP_SetBadPixel,"ax",%progbits
 1219              		.align	1
 1220              		.global	ISP_SVC_ISP_SetBadPixel
 1221              		.syntax unified
 1222              		.thumb
 1223              		.thumb_func
 1225              	ISP_SVC_ISP_SetBadPixel:
 1226              	.LVL87:
 1227              	.LFB857:
 771:../../Middlewares/Camera_Middleware/ISP_Library/isp/Src/isp_services.c **** 
 772:../../Middlewares/Camera_Middleware/ISP_Library/isp/Src/isp_services.c **** /**
 773:../../Middlewares/Camera_Middleware/ISP_Library/isp/Src/isp_services.c ****   * @brief  ISP_SVC_ISP_SetBadPixel
 774:../../Middlewares/Camera_Middleware/ISP_Library/isp/Src/isp_services.c ****   *         Set the ISP Bad pixel control configuration
 775:../../Middlewares/Camera_Middleware/ISP_Library/isp/Src/isp_services.c ****   * @param  hIsp: ISP device handle
 776:../../Middlewares/Camera_Middleware/ISP_Library/isp/Src/isp_services.c ****   * @param  pConfig: Pointer to the bad pixel configuration
ARM GAS  C:\Users\Antonio\AppData\Local\Temp\ccF6VN3M.s 			page 39


 777:../../Middlewares/Camera_Middleware/ISP_Library/isp/Src/isp_services.c ****   * @retval operation result
 778:../../Middlewares/Camera_Middleware/ISP_Library/isp/Src/isp_services.c ****   */
 779:../../Middlewares/Camera_Middleware/ISP_Library/isp/Src/isp_services.c **** ISP_StatusTypeDef ISP_SVC_ISP_SetBadPixel(ISP_HandleTypeDef *hIsp, ISP_BadPixelTypeDef *pConfig)
 780:../../Middlewares/Camera_Middleware/ISP_Library/isp/Src/isp_services.c **** {
 1228              		.loc 1 780 1 is_stmt 1 view -0
 1229              		.cfi_startproc
 1230              		@ args = 0, pretend = 0, frame = 0
 1231              		@ frame_needed = 0, uses_anonymous_args = 0
 781:../../Middlewares/Camera_Middleware/ISP_Library/isp/Src/isp_services.c ****   HAL_StatusTypeDef halStatus;
 1232              		.loc 1 781 3 view .LVU380
 782:../../Middlewares/Camera_Middleware/ISP_Library/isp/Src/isp_services.c **** 
 783:../../Middlewares/Camera_Middleware/ISP_Library/isp/Src/isp_services.c ****   if ((hIsp == NULL) || (pConfig == NULL) || (pConfig->strength > ISP_BADPIXEL_STRENGTH_MAX))
 1233              		.loc 1 783 3 view .LVU381
 780:../../Middlewares/Camera_Middleware/ISP_Library/isp/Src/isp_services.c ****   HAL_StatusTypeDef halStatus;
 1234              		.loc 1 780 1 is_stmt 0 view .LVU382
 1235 0000 10B5     		push	{r4, lr}
 1236              		.cfi_def_cfa_offset 8
 1237              		.cfi_offset 4, -8
 1238              		.cfi_offset 14, -4
 1239              		.loc 1 783 6 view .LVU383
 1240 0002 0446     		mov	r4, r0
 1241 0004 A8B1     		cbz	r0, .L116
 1242              		.loc 1 783 22 discriminator 1 view .LVU384
 1243 0006 A1B1     		cbz	r1, .L116
 1244              		.loc 1 783 54 discriminator 2 view .LVU385
 1245 0008 4A78     		ldrb	r2, [r1, #1]	@ zero_extendqisi2
 1246              		.loc 1 783 43 discriminator 2 view .LVU386
 1247 000a 072A     		cmp	r2, #7
 1248 000c 11D8     		bhi	.L116
 784:../../Middlewares/Camera_Middleware/ISP_Library/isp/Src/isp_services.c ****   {
 785:../../Middlewares/Camera_Middleware/ISP_Library/isp/Src/isp_services.c ****     return ISP_ERR_BADPIXEL_EINVAL;
 786:../../Middlewares/Camera_Middleware/ISP_Library/isp/Src/isp_services.c ****   }
 787:../../Middlewares/Camera_Middleware/ISP_Library/isp/Src/isp_services.c **** 
 788:../../Middlewares/Camera_Middleware/ISP_Library/isp/Src/isp_services.c ****   if (pConfig->enable == 0)
 1249              		.loc 1 788 3 is_stmt 1 view .LVU387
 1250              		.loc 1 788 6 is_stmt 0 view .LVU388
 1251 000e 0B78     		ldrb	r3, [r1]	@ zero_extendqisi2
 789:../../Middlewares/Camera_Middleware/ISP_Library/isp/Src/isp_services.c ****   {
 790:../../Middlewares/Camera_Middleware/ISP_Library/isp/Src/isp_services.c ****     halStatus = HAL_DCMIPP_PIPE_DisableISPBadPixelRemoval(hIsp->hDcmipp, DCMIPP_PIPE1);
 1252              		.loc 1 790 63 view .LVU389
 1253 0010 0068     		ldr	r0, [r0]
 1254              	.LVL88:
 1255              		.loc 1 790 17 view .LVU390
 1256 0012 0121     		movs	r1, #1
 1257              	.LVL89:
 788:../../Middlewares/Camera_Middleware/ISP_Library/isp/Src/isp_services.c ****   {
 1258              		.loc 1 788 6 view .LVU391
 1259 0014 1BB9     		cbnz	r3, .L110
 1260              		.loc 1 790 5 is_stmt 1 view .LVU392
 1261              		.loc 1 790 17 is_stmt 0 view .LVU393
 1262 0016 FFF7FEFF 		bl	HAL_DCMIPP_PIPE_DisableISPBadPixelRemoval
 1263              	.LVL90:
 1264              	.L111:
 791:../../Middlewares/Camera_Middleware/ISP_Library/isp/Src/isp_services.c ****   }
 792:../../Middlewares/Camera_Middleware/ISP_Library/isp/Src/isp_services.c ****   else
 793:../../Middlewares/Camera_Middleware/ISP_Library/isp/Src/isp_services.c ****   {
 794:../../Middlewares/Camera_Middleware/ISP_Library/isp/Src/isp_services.c ****     halStatus = HAL_DCMIPP_PIPE_SetISPBadPixelRemovalConfig(hIsp->hDcmipp, DCMIPP_PIPE1, pConfig->s
ARM GAS  C:\Users\Antonio\AppData\Local\Temp\ccF6VN3M.s 			page 40


 795:../../Middlewares/Camera_Middleware/ISP_Library/isp/Src/isp_services.c **** 
 796:../../Middlewares/Camera_Middleware/ISP_Library/isp/Src/isp_services.c ****     if (halStatus != HAL_OK)
 797:../../Middlewares/Camera_Middleware/ISP_Library/isp/Src/isp_services.c ****     {
 798:../../Middlewares/Camera_Middleware/ISP_Library/isp/Src/isp_services.c ****       return ISP_ERR_BADPIXEL_HAL;
 799:../../Middlewares/Camera_Middleware/ISP_Library/isp/Src/isp_services.c ****     }
 800:../../Middlewares/Camera_Middleware/ISP_Library/isp/Src/isp_services.c **** 
 801:../../Middlewares/Camera_Middleware/ISP_Library/isp/Src/isp_services.c ****     halStatus = HAL_DCMIPP_PIPE_EnableISPBadPixelRemoval(hIsp->hDcmipp, DCMIPP_PIPE1);
 802:../../Middlewares/Camera_Middleware/ISP_Library/isp/Src/isp_services.c ****   }
 803:../../Middlewares/Camera_Middleware/ISP_Library/isp/Src/isp_services.c **** 
 804:../../Middlewares/Camera_Middleware/ISP_Library/isp/Src/isp_services.c ****   if (halStatus != HAL_OK)
 1265              		.loc 1 804 3 is_stmt 1 view .LVU394
 1266              		.loc 1 804 6 is_stmt 0 view .LVU395
 1267 001a 20B1     		cbz	r0, .L109
 1268              		.loc 1 804 6 view .LVU396
 1269 001c 02E0     		b	.L113
 1270              	.LVL91:
 1271              	.L110:
 794:../../Middlewares/Camera_Middleware/ISP_Library/isp/Src/isp_services.c **** 
 1272              		.loc 1 794 5 is_stmt 1 view .LVU397
 794:../../Middlewares/Camera_Middleware/ISP_Library/isp/Src/isp_services.c **** 
 1273              		.loc 1 794 17 is_stmt 0 view .LVU398
 1274 001e FFF7FEFF 		bl	HAL_DCMIPP_PIPE_SetISPBadPixelRemovalConfig
 1275              	.LVL92:
 796:../../Middlewares/Camera_Middleware/ISP_Library/isp/Src/isp_services.c ****     {
 1276              		.loc 1 796 5 is_stmt 1 view .LVU399
 796:../../Middlewares/Camera_Middleware/ISP_Library/isp/Src/isp_services.c ****     {
 1277              		.loc 1 796 8 is_stmt 0 view .LVU400
 1278 0022 08B1     		cbz	r0, .L112
 1279              	.L113:
 798:../../Middlewares/Camera_Middleware/ISP_Library/isp/Src/isp_services.c ****     }
 1280              		.loc 1 798 14 view .LVU401
 1281 0024 3D20     		movs	r0, #61
 1282              	.LVL93:
 1283              	.L109:
 805:../../Middlewares/Camera_Middleware/ISP_Library/isp/Src/isp_services.c ****   {
 806:../../Middlewares/Camera_Middleware/ISP_Library/isp/Src/isp_services.c ****     return ISP_ERR_BADPIXEL_HAL;
 807:../../Middlewares/Camera_Middleware/ISP_Library/isp/Src/isp_services.c ****   }
 808:../../Middlewares/Camera_Middleware/ISP_Library/isp/Src/isp_services.c **** 
 809:../../Middlewares/Camera_Middleware/ISP_Library/isp/Src/isp_services.c ****   return ISP_OK;
 810:../../Middlewares/Camera_Middleware/ISP_Library/isp/Src/isp_services.c **** }
 1284              		.loc 1 810 1 view .LVU402
 1285 0026 10BD     		pop	{r4, pc}
 1286              	.LVL94:
 1287              	.L112:
 801:../../Middlewares/Camera_Middleware/ISP_Library/isp/Src/isp_services.c ****   }
 1288              		.loc 1 801 5 is_stmt 1 view .LVU403
 801:../../Middlewares/Camera_Middleware/ISP_Library/isp/Src/isp_services.c ****   }
 1289              		.loc 1 801 17 is_stmt 0 view .LVU404
 1290 0028 0121     		movs	r1, #1
 1291 002a 2068     		ldr	r0, [r4]
 1292              	.LVL95:
 801:../../Middlewares/Camera_Middleware/ISP_Library/isp/Src/isp_services.c ****   }
 1293              		.loc 1 801 17 view .LVU405
 1294 002c FFF7FEFF 		bl	HAL_DCMIPP_PIPE_EnableISPBadPixelRemoval
 1295              	.LVL96:
 801:../../Middlewares/Camera_Middleware/ISP_Library/isp/Src/isp_services.c ****   }
 1296              		.loc 1 801 17 view .LVU406
ARM GAS  C:\Users\Antonio\AppData\Local\Temp\ccF6VN3M.s 			page 41


 1297 0030 F3E7     		b	.L111
 1298              	.LVL97:
 1299              	.L116:
 785:../../Middlewares/Camera_Middleware/ISP_Library/isp/Src/isp_services.c ****   }
 1300              		.loc 1 785 12 view .LVU407
 1301 0032 3C20     		movs	r0, #60
 1302              	.LVL98:
 785:../../Middlewares/Camera_Middleware/ISP_Library/isp/Src/isp_services.c ****   }
 1303              		.loc 1 785 12 view .LVU408
 1304 0034 F7E7     		b	.L109
 1305              		.cfi_endproc
 1306              	.LFE857:
 1308              		.section	.text.ISP_SVC_ISP_GetBadPixel,"ax",%progbits
 1309              		.align	1
 1310              		.global	ISP_SVC_ISP_GetBadPixel
 1311              		.syntax unified
 1312              		.thumb
 1313              		.thumb_func
 1315              	ISP_SVC_ISP_GetBadPixel:
 1316              	.LVL99:
 1317              	.LFB858:
 811:../../Middlewares/Camera_Middleware/ISP_Library/isp/Src/isp_services.c **** 
 812:../../Middlewares/Camera_Middleware/ISP_Library/isp/Src/isp_services.c **** /**
 813:../../Middlewares/Camera_Middleware/ISP_Library/isp/Src/isp_services.c ****   * @brief  ISP_SVC_ISP_GetBadPixel
 814:../../Middlewares/Camera_Middleware/ISP_Library/isp/Src/isp_services.c ****   *         Get the ISP Bad pixel control configuration
 815:../../Middlewares/Camera_Middleware/ISP_Library/isp/Src/isp_services.c ****   * @param  hIsp: ISP device handle
 816:../../Middlewares/Camera_Middleware/ISP_Library/isp/Src/isp_services.c ****   * @param  pConfig: Pointer to the bad pixel configuration
 817:../../Middlewares/Camera_Middleware/ISP_Library/isp/Src/isp_services.c ****   * @retval operation result
 818:../../Middlewares/Camera_Middleware/ISP_Library/isp/Src/isp_services.c ****   */
 819:../../Middlewares/Camera_Middleware/ISP_Library/isp/Src/isp_services.c **** ISP_StatusTypeDef ISP_SVC_ISP_GetBadPixel(ISP_HandleTypeDef *hIsp, ISP_BadPixelTypeDef *pConfig)
 820:../../Middlewares/Camera_Middleware/ISP_Library/isp/Src/isp_services.c **** {
 1318              		.loc 1 820 1 is_stmt 1 view -0
 1319              		.cfi_startproc
 1320              		@ args = 0, pretend = 0, frame = 0
 1321              		@ frame_needed = 0, uses_anonymous_args = 0
 821:../../Middlewares/Camera_Middleware/ISP_Library/isp/Src/isp_services.c ****   HAL_StatusTypeDef halStatus;
 1322              		.loc 1 821 3 view .LVU410
 822:../../Middlewares/Camera_Middleware/ISP_Library/isp/Src/isp_services.c **** 
 823:../../Middlewares/Camera_Middleware/ISP_Library/isp/Src/isp_services.c ****   /* Check handle validity */
 824:../../Middlewares/Camera_Middleware/ISP_Library/isp/Src/isp_services.c ****   if ((hIsp == NULL) || (pConfig == NULL))
 1323              		.loc 1 824 3 view .LVU411
 820:../../Middlewares/Camera_Middleware/ISP_Library/isp/Src/isp_services.c ****   HAL_StatusTypeDef halStatus;
 1324              		.loc 1 820 1 is_stmt 0 view .LVU412
 1325 0000 38B5     		push	{r3, r4, r5, lr}
 1326              		.cfi_def_cfa_offset 16
 1327              		.cfi_offset 3, -16
 1328              		.cfi_offset 4, -12
 1329              		.cfi_offset 5, -8
 1330              		.cfi_offset 14, -4
 820:../../Middlewares/Camera_Middleware/ISP_Library/isp/Src/isp_services.c ****   HAL_StatusTypeDef halStatus;
 1331              		.loc 1 820 1 view .LVU413
 1332 0002 0D46     		mov	r5, r1
 1333              		.loc 1 824 6 view .LVU414
 1334 0004 0446     		mov	r4, r0
 1335 0006 98B1     		cbz	r0, .L120
 1336              		.loc 1 824 22 discriminator 1 view .LVU415
 1337 0008 91B1     		cbz	r1, .L120
ARM GAS  C:\Users\Antonio\AppData\Local\Temp\ccF6VN3M.s 			page 42


 825:../../Middlewares/Camera_Middleware/ISP_Library/isp/Src/isp_services.c ****   {
 826:../../Middlewares/Camera_Middleware/ISP_Library/isp/Src/isp_services.c ****     return ISP_ERR_BADPIXEL_EINVAL;
 827:../../Middlewares/Camera_Middleware/ISP_Library/isp/Src/isp_services.c ****   }
 828:../../Middlewares/Camera_Middleware/ISP_Library/isp/Src/isp_services.c **** 
 829:../../Middlewares/Camera_Middleware/ISP_Library/isp/Src/isp_services.c ****   pConfig->enable = HAL_DCMIPP_PIPE_IsEnabledISPBadPixelRemoval(hIsp->hDcmipp, DCMIPP_PIPE1);
 1338              		.loc 1 829 3 is_stmt 1 view .LVU416
 1339              		.loc 1 829 21 is_stmt 0 view .LVU417
 1340 000a 0121     		movs	r1, #1
 1341              	.LVL100:
 1342              		.loc 1 829 21 view .LVU418
 1343 000c 0068     		ldr	r0, [r0]
 1344              	.LVL101:
 1345              		.loc 1 829 21 view .LVU419
 1346 000e FFF7FEFF 		bl	HAL_DCMIPP_PIPE_IsEnabledISPBadPixelRemoval
 1347              	.LVL102:
 1348              		.loc 1 829 19 discriminator 1 view .LVU420
 1349 0012 2870     		strb	r0, [r5]
 830:../../Middlewares/Camera_Middleware/ISP_Library/isp/Src/isp_services.c ****   pConfig->strength = (uint8_t) HAL_DCMIPP_PIPE_GetISPBadPixelRemovalConfig(hIsp->hDcmipp, DCMIPP_P
 1350              		.loc 1 830 3 is_stmt 1 view .LVU421
 1351              		.loc 1 830 33 is_stmt 0 view .LVU422
 1352 0014 0121     		movs	r1, #1
 1353 0016 2068     		ldr	r0, [r4]
 1354 0018 FFF7FEFF 		bl	HAL_DCMIPP_PIPE_GetISPBadPixelRemovalConfig
 1355              	.LVL103:
 1356              		.loc 1 830 23 discriminator 1 view .LVU423
 1357 001c 6870     		strb	r0, [r5, #1]
 831:../../Middlewares/Camera_Middleware/ISP_Library/isp/Src/isp_services.c **** 
 832:../../Middlewares/Camera_Middleware/ISP_Library/isp/Src/isp_services.c ****   halStatus = HAL_DCMIPP_PIPE_GetISPRemovedBadPixelCounter(hIsp->hDcmipp, DCMIPP_PIPE1, &pConfig->c
 1358              		.loc 1 832 3 is_stmt 1 view .LVU424
 1359              		.loc 1 832 15 is_stmt 0 view .LVU425
 1360 001e 0121     		movs	r1, #1
 1361 0020 2068     		ldr	r0, [r4]
 1362 0022 2A1D     		adds	r2, r5, #4
 1363 0024 FFF7FEFF 		bl	HAL_DCMIPP_PIPE_GetISPRemovedBadPixelCounter
 1364              	.LVL104:
 833:../../Middlewares/Camera_Middleware/ISP_Library/isp/Src/isp_services.c **** 
 834:../../Middlewares/Camera_Middleware/ISP_Library/isp/Src/isp_services.c ****   if (halStatus != HAL_OK)
 1365              		.loc 1 834 3 is_stmt 1 view .LVU426
 835:../../Middlewares/Camera_Middleware/ISP_Library/isp/Src/isp_services.c ****   {
 836:../../Middlewares/Camera_Middleware/ISP_Library/isp/Src/isp_services.c ****     return ISP_ERR_BADPIXEL_HAL;
 1366              		.loc 1 836 12 is_stmt 0 view .LVU427
 1367 0028 0028     		cmp	r0, #0
 1368              		.loc 1 836 12 view .LVU428
 1369 002a 18BF     		it	ne
 1370 002c 3D20     		movne	r0, #61
 1371              	.LVL105:
 1372              	.L118:
 837:../../Middlewares/Camera_Middleware/ISP_Library/isp/Src/isp_services.c ****   }
 838:../../Middlewares/Camera_Middleware/ISP_Library/isp/Src/isp_services.c **** 
 839:../../Middlewares/Camera_Middleware/ISP_Library/isp/Src/isp_services.c ****   return ISP_OK;
 840:../../Middlewares/Camera_Middleware/ISP_Library/isp/Src/isp_services.c **** }
 1373              		.loc 1 840 1 view .LVU429
 1374 002e 38BD     		pop	{r3, r4, r5, pc}
 1375              	.LVL106:
 1376              	.L120:
 826:../../Middlewares/Camera_Middleware/ISP_Library/isp/Src/isp_services.c ****   }
 1377              		.loc 1 826 12 view .LVU430
ARM GAS  C:\Users\Antonio\AppData\Local\Temp\ccF6VN3M.s 			page 43


 1378 0030 3C20     		movs	r0, #60
 1379              	.LVL107:
 826:../../Middlewares/Camera_Middleware/ISP_Library/isp/Src/isp_services.c ****   }
 1380              		.loc 1 826 12 view .LVU431
 1381 0032 FCE7     		b	.L118
 1382              		.cfi_endproc
 1383              	.LFE858:
 1385              		.section	.text.ISP_SVC_ISP_SetBlackLevel,"ax",%progbits
 1386              		.align	1
 1387              		.global	ISP_SVC_ISP_SetBlackLevel
 1388              		.syntax unified
 1389              		.thumb
 1390              		.thumb_func
 1392              	ISP_SVC_ISP_SetBlackLevel:
 1393              	.LVL108:
 1394              	.LFB859:
 841:../../Middlewares/Camera_Middleware/ISP_Library/isp/Src/isp_services.c **** 
 842:../../Middlewares/Camera_Middleware/ISP_Library/isp/Src/isp_services.c **** /**
 843:../../Middlewares/Camera_Middleware/ISP_Library/isp/Src/isp_services.c ****   * @brief  ISP_SVC_ISP_SetBlackLevel
 844:../../Middlewares/Camera_Middleware/ISP_Library/isp/Src/isp_services.c ****   *         Set the ISP Black Level calibration
 845:../../Middlewares/Camera_Middleware/ISP_Library/isp/Src/isp_services.c ****   * @param  hIsp: ISP device handle
 846:../../Middlewares/Camera_Middleware/ISP_Library/isp/Src/isp_services.c ****   * @param  pConfig: Pointer to the black level configuration
 847:../../Middlewares/Camera_Middleware/ISP_Library/isp/Src/isp_services.c ****   * @retval operation result
 848:../../Middlewares/Camera_Middleware/ISP_Library/isp/Src/isp_services.c ****   */
 849:../../Middlewares/Camera_Middleware/ISP_Library/isp/Src/isp_services.c **** ISP_StatusTypeDef ISP_SVC_ISP_SetBlackLevel(ISP_HandleTypeDef *hIsp, ISP_BlackLevelTypeDef *pConfig
 850:../../Middlewares/Camera_Middleware/ISP_Library/isp/Src/isp_services.c **** {
 1395              		.loc 1 850 1 is_stmt 1 view -0
 1396              		.cfi_startproc
 1397              		@ args = 0, pretend = 0, frame = 8
 1398              		@ frame_needed = 0, uses_anonymous_args = 0
 851:../../Middlewares/Camera_Middleware/ISP_Library/isp/Src/isp_services.c ****   HAL_StatusTypeDef halStatus;
 1399              		.loc 1 851 3 view .LVU433
 852:../../Middlewares/Camera_Middleware/ISP_Library/isp/Src/isp_services.c ****   DCMIPP_BlackLevelConfTypeDef blackLevelConfig;
 1400              		.loc 1 852 3 view .LVU434
 853:../../Middlewares/Camera_Middleware/ISP_Library/isp/Src/isp_services.c **** 
 854:../../Middlewares/Camera_Middleware/ISP_Library/isp/Src/isp_services.c ****   /* Check handle validity */
 855:../../Middlewares/Camera_Middleware/ISP_Library/isp/Src/isp_services.c ****   if ((hIsp == NULL) || (pConfig == NULL))
 1401              		.loc 1 855 3 view .LVU435
 850:../../Middlewares/Camera_Middleware/ISP_Library/isp/Src/isp_services.c ****   HAL_StatusTypeDef halStatus;
 1402              		.loc 1 850 1 is_stmt 0 view .LVU436
 1403 0000 13B5     		push	{r0, r1, r4, lr}
 1404              		.cfi_def_cfa_offset 16
 1405              		.cfi_offset 4, -8
 1406              		.cfi_offset 14, -4
 1407              		.loc 1 855 6 view .LVU437
 1408 0002 0446     		mov	r4, r0
 1409 0004 F0B1     		cbz	r0, .L129
 1410              		.loc 1 855 22 discriminator 1 view .LVU438
 1411 0006 E9B1     		cbz	r1, .L129
 856:../../Middlewares/Camera_Middleware/ISP_Library/isp/Src/isp_services.c ****   {
 857:../../Middlewares/Camera_Middleware/ISP_Library/isp/Src/isp_services.c ****     return ISP_ERR_BLACKLEVEL_EINVAL;
 858:../../Middlewares/Camera_Middleware/ISP_Library/isp/Src/isp_services.c ****   }
 859:../../Middlewares/Camera_Middleware/ISP_Library/isp/Src/isp_services.c **** 
 860:../../Middlewares/Camera_Middleware/ISP_Library/isp/Src/isp_services.c ****   if (pConfig->enable == 0)
 1412              		.loc 1 860 3 is_stmt 1 view .LVU439
 1413              		.loc 1 860 6 is_stmt 0 view .LVU440
 1414 0008 0B78     		ldrb	r3, [r1]	@ zero_extendqisi2
ARM GAS  C:\Users\Antonio\AppData\Local\Temp\ccF6VN3M.s 			page 44


 861:../../Middlewares/Camera_Middleware/ISP_Library/isp/Src/isp_services.c ****   {
 862:../../Middlewares/Camera_Middleware/ISP_Library/isp/Src/isp_services.c ****     halStatus = HAL_DCMIPP_PIPE_DisableISPBlackLevelCalibration(hIsp->hDcmipp, DCMIPP_PIPE1);
 1415              		.loc 1 862 69 view .LVU441
 1416 000a 0068     		ldr	r0, [r0]
 1417              	.LVL109:
 860:../../Middlewares/Camera_Middleware/ISP_Library/isp/Src/isp_services.c ****   {
 1418              		.loc 1 860 6 view .LVU442
 1419 000c 23B9     		cbnz	r3, .L124
 1420              		.loc 1 862 5 is_stmt 1 view .LVU443
 1421              		.loc 1 862 17 is_stmt 0 view .LVU444
 1422 000e 0121     		movs	r1, #1
 1423              	.LVL110:
 1424              		.loc 1 862 17 view .LVU445
 1425 0010 FFF7FEFF 		bl	HAL_DCMIPP_PIPE_DisableISPBlackLevelCalibration
 1426              	.LVL111:
 1427              	.L125:
 863:../../Middlewares/Camera_Middleware/ISP_Library/isp/Src/isp_services.c ****   }
 864:../../Middlewares/Camera_Middleware/ISP_Library/isp/Src/isp_services.c ****   else
 865:../../Middlewares/Camera_Middleware/ISP_Library/isp/Src/isp_services.c ****   {
 866:../../Middlewares/Camera_Middleware/ISP_Library/isp/Src/isp_services.c ****     blackLevelConfig.RedCompBlackLevel = pConfig->BLCR;
 867:../../Middlewares/Camera_Middleware/ISP_Library/isp/Src/isp_services.c ****     blackLevelConfig.GreenCompBlackLevel = pConfig->BLCG;
 868:../../Middlewares/Camera_Middleware/ISP_Library/isp/Src/isp_services.c ****     blackLevelConfig.BlueCompBlackLevel = pConfig->BLCB;
 869:../../Middlewares/Camera_Middleware/ISP_Library/isp/Src/isp_services.c ****     halStatus = HAL_DCMIPP_PIPE_SetISPBlackLevelCalibrationConfig(hIsp->hDcmipp, DCMIPP_PIPE1, &bla
 870:../../Middlewares/Camera_Middleware/ISP_Library/isp/Src/isp_services.c **** 
 871:../../Middlewares/Camera_Middleware/ISP_Library/isp/Src/isp_services.c ****     if (halStatus == HAL_OK)
 872:../../Middlewares/Camera_Middleware/ISP_Library/isp/Src/isp_services.c ****     {
 873:../../Middlewares/Camera_Middleware/ISP_Library/isp/Src/isp_services.c ****       halStatus = HAL_DCMIPP_PIPE_EnableISPBlackLevelCalibration(hIsp->hDcmipp, DCMIPP_PIPE1);
 874:../../Middlewares/Camera_Middleware/ISP_Library/isp/Src/isp_services.c ****     }
 875:../../Middlewares/Camera_Middleware/ISP_Library/isp/Src/isp_services.c ****   }
 876:../../Middlewares/Camera_Middleware/ISP_Library/isp/Src/isp_services.c **** 
 877:../../Middlewares/Camera_Middleware/ISP_Library/isp/Src/isp_services.c ****   if (halStatus != HAL_OK)
 1428              		.loc 1 877 3 is_stmt 1 view .LVU446
 1429              		.loc 1 877 6 is_stmt 0 view .LVU447
 1430 0014 78B1     		cbz	r0, .L123
 1431              		.loc 1 877 6 view .LVU448
 1432 0016 0DE0     		b	.L127
 1433              	.LVL112:
 1434              	.L124:
 866:../../Middlewares/Camera_Middleware/ISP_Library/isp/Src/isp_services.c ****     blackLevelConfig.GreenCompBlackLevel = pConfig->BLCG;
 1435              		.loc 1 866 5 is_stmt 1 view .LVU449
 866:../../Middlewares/Camera_Middleware/ISP_Library/isp/Src/isp_services.c ****     blackLevelConfig.GreenCompBlackLevel = pConfig->BLCG;
 1436              		.loc 1 866 40 is_stmt 0 view .LVU450
 1437 0018 4B78     		ldrb	r3, [r1, #1]	@ zero_extendqisi2
 869:../../Middlewares/Camera_Middleware/ISP_Library/isp/Src/isp_services.c **** 
 1438              		.loc 1 869 17 view .LVU451
 1439 001a 01AA     		add	r2, sp, #4
 866:../../Middlewares/Camera_Middleware/ISP_Library/isp/Src/isp_services.c ****     blackLevelConfig.GreenCompBlackLevel = pConfig->BLCG;
 1440              		.loc 1 866 40 view .LVU452
 1441 001c 8DF80430 		strb	r3, [sp, #4]
 867:../../Middlewares/Camera_Middleware/ISP_Library/isp/Src/isp_services.c ****     blackLevelConfig.BlueCompBlackLevel = pConfig->BLCB;
 1442              		.loc 1 867 5 is_stmt 1 view .LVU453
 867:../../Middlewares/Camera_Middleware/ISP_Library/isp/Src/isp_services.c ****     blackLevelConfig.BlueCompBlackLevel = pConfig->BLCB;
 1443              		.loc 1 867 42 is_stmt 0 view .LVU454
 1444 0020 8B78     		ldrb	r3, [r1, #2]	@ zero_extendqisi2
 1445 0022 8DF80530 		strb	r3, [sp, #5]
 868:../../Middlewares/Camera_Middleware/ISP_Library/isp/Src/isp_services.c ****     halStatus = HAL_DCMIPP_PIPE_SetISPBlackLevelCalibrationConfig(hIsp->hDcmipp, DCMIPP_PIPE1, &bla
 1446              		.loc 1 868 5 is_stmt 1 view .LVU455
ARM GAS  C:\Users\Antonio\AppData\Local\Temp\ccF6VN3M.s 			page 45


 868:../../Middlewares/Camera_Middleware/ISP_Library/isp/Src/isp_services.c ****     halStatus = HAL_DCMIPP_PIPE_SetISPBlackLevelCalibrationConfig(hIsp->hDcmipp, DCMIPP_PIPE1, &bla
 1447              		.loc 1 868 41 is_stmt 0 view .LVU456
 1448 0026 CB78     		ldrb	r3, [r1, #3]	@ zero_extendqisi2
 869:../../Middlewares/Camera_Middleware/ISP_Library/isp/Src/isp_services.c **** 
 1449              		.loc 1 869 17 view .LVU457
 1450 0028 0121     		movs	r1, #1
 1451              	.LVL113:
 868:../../Middlewares/Camera_Middleware/ISP_Library/isp/Src/isp_services.c ****     halStatus = HAL_DCMIPP_PIPE_SetISPBlackLevelCalibrationConfig(hIsp->hDcmipp, DCMIPP_PIPE1, &bla
 1452              		.loc 1 868 41 view .LVU458
 1453 002a 8DF80630 		strb	r3, [sp, #6]
 869:../../Middlewares/Camera_Middleware/ISP_Library/isp/Src/isp_services.c **** 
 1454              		.loc 1 869 5 is_stmt 1 view .LVU459
 869:../../Middlewares/Camera_Middleware/ISP_Library/isp/Src/isp_services.c **** 
 1455              		.loc 1 869 17 is_stmt 0 view .LVU460
 1456 002e FFF7FEFF 		bl	HAL_DCMIPP_PIPE_SetISPBlackLevelCalibrationConfig
 1457              	.LVL114:
 871:../../Middlewares/Camera_Middleware/ISP_Library/isp/Src/isp_services.c ****     {
 1458              		.loc 1 871 5 is_stmt 1 view .LVU461
 871:../../Middlewares/Camera_Middleware/ISP_Library/isp/Src/isp_services.c ****     {
 1459              		.loc 1 871 8 is_stmt 0 view .LVU462
 1460 0032 10B1     		cbz	r0, .L126
 1461              	.L127:
 878:../../Middlewares/Camera_Middleware/ISP_Library/isp/Src/isp_services.c ****   {
 879:../../Middlewares/Camera_Middleware/ISP_Library/isp/Src/isp_services.c ****     return ISP_ERR_BLACKLEVEL_HAL;
 1462              		.loc 1 879 12 view .LVU463
 1463 0034 4720     		movs	r0, #71
 1464              	.LVL115:
 1465              	.L123:
 880:../../Middlewares/Camera_Middleware/ISP_Library/isp/Src/isp_services.c ****   }
 881:../../Middlewares/Camera_Middleware/ISP_Library/isp/Src/isp_services.c **** 
 882:../../Middlewares/Camera_Middleware/ISP_Library/isp/Src/isp_services.c ****   return ISP_OK;
 883:../../Middlewares/Camera_Middleware/ISP_Library/isp/Src/isp_services.c **** }
 1466              		.loc 1 883 1 view .LVU464
 1467 0036 02B0     		add	sp, sp, #8
 1468              		.cfi_remember_state
 1469              		.cfi_def_cfa_offset 8
 1470              		@ sp needed
 1471 0038 10BD     		pop	{r4, pc}
 1472              	.LVL116:
 1473              	.L126:
 1474              		.cfi_restore_state
 873:../../Middlewares/Camera_Middleware/ISP_Library/isp/Src/isp_services.c ****     }
 1475              		.loc 1 873 7 is_stmt 1 view .LVU465
 873:../../Middlewares/Camera_Middleware/ISP_Library/isp/Src/isp_services.c ****     }
 1476              		.loc 1 873 19 is_stmt 0 view .LVU466
 1477 003a 0121     		movs	r1, #1
 1478 003c 2068     		ldr	r0, [r4]
 1479              	.LVL117:
 873:../../Middlewares/Camera_Middleware/ISP_Library/isp/Src/isp_services.c ****     }
 1480              		.loc 1 873 19 view .LVU467
 1481 003e FFF7FEFF 		bl	HAL_DCMIPP_PIPE_EnableISPBlackLevelCalibration
 1482              	.LVL118:
 873:../../Middlewares/Camera_Middleware/ISP_Library/isp/Src/isp_services.c ****     }
 1483              		.loc 1 873 19 view .LVU468
 1484 0042 E7E7     		b	.L125
 1485              	.LVL119:
 1486              	.L129:
ARM GAS  C:\Users\Antonio\AppData\Local\Temp\ccF6VN3M.s 			page 46


 857:../../Middlewares/Camera_Middleware/ISP_Library/isp/Src/isp_services.c ****   }
 1487              		.loc 1 857 12 view .LVU469
 1488 0044 4620     		movs	r0, #70
 1489              	.LVL120:
 857:../../Middlewares/Camera_Middleware/ISP_Library/isp/Src/isp_services.c ****   }
 1490              		.loc 1 857 12 view .LVU470
 1491 0046 F6E7     		b	.L123
 1492              		.cfi_endproc
 1493              	.LFE859:
 1495              		.section	.text.ISP_SVC_ISP_GetBlackLevel,"ax",%progbits
 1496              		.align	1
 1497              		.global	ISP_SVC_ISP_GetBlackLevel
 1498              		.syntax unified
 1499              		.thumb
 1500              		.thumb_func
 1502              	ISP_SVC_ISP_GetBlackLevel:
 1503              	.LVL121:
 1504              	.LFB860:
 884:../../Middlewares/Camera_Middleware/ISP_Library/isp/Src/isp_services.c **** 
 885:../../Middlewares/Camera_Middleware/ISP_Library/isp/Src/isp_services.c **** /**
 886:../../Middlewares/Camera_Middleware/ISP_Library/isp/Src/isp_services.c ****   * @brief  ISP_SVC_ISP_GetBlackLevel
 887:../../Middlewares/Camera_Middleware/ISP_Library/isp/Src/isp_services.c ****   *         Get the ISP Black Level calibration
 888:../../Middlewares/Camera_Middleware/ISP_Library/isp/Src/isp_services.c ****   * @param  hIsp: ISP device handle
 889:../../Middlewares/Camera_Middleware/ISP_Library/isp/Src/isp_services.c ****   * @param  pConfig: Pointer to the black level configuration
 890:../../Middlewares/Camera_Middleware/ISP_Library/isp/Src/isp_services.c ****   * @retval operation result
 891:../../Middlewares/Camera_Middleware/ISP_Library/isp/Src/isp_services.c ****   */
 892:../../Middlewares/Camera_Middleware/ISP_Library/isp/Src/isp_services.c **** ISP_StatusTypeDef ISP_SVC_ISP_GetBlackLevel(ISP_HandleTypeDef *hIsp, ISP_BlackLevelTypeDef *pConfig
 893:../../Middlewares/Camera_Middleware/ISP_Library/isp/Src/isp_services.c **** {
 1505              		.loc 1 893 1 is_stmt 1 view -0
 1506              		.cfi_startproc
 1507              		@ args = 0, pretend = 0, frame = 8
 1508              		@ frame_needed = 0, uses_anonymous_args = 0
 894:../../Middlewares/Camera_Middleware/ISP_Library/isp/Src/isp_services.c ****   DCMIPP_BlackLevelConfTypeDef blackLevelConfig;
 1509              		.loc 1 894 3 view .LVU472
 895:../../Middlewares/Camera_Middleware/ISP_Library/isp/Src/isp_services.c **** 
 896:../../Middlewares/Camera_Middleware/ISP_Library/isp/Src/isp_services.c ****   /* Check handle validity */
 897:../../Middlewares/Camera_Middleware/ISP_Library/isp/Src/isp_services.c ****   if ((hIsp == NULL) || (pConfig == NULL))
 1510              		.loc 1 897 3 view .LVU473
 893:../../Middlewares/Camera_Middleware/ISP_Library/isp/Src/isp_services.c ****   DCMIPP_BlackLevelConfTypeDef blackLevelConfig;
 1511              		.loc 1 893 1 is_stmt 0 view .LVU474
 1512 0000 37B5     		push	{r0, r1, r2, r4, r5, lr}
 1513              		.cfi_def_cfa_offset 24
 1514              		.cfi_offset 4, -12
 1515              		.cfi_offset 5, -8
 1516              		.cfi_offset 14, -4
 893:../../Middlewares/Camera_Middleware/ISP_Library/isp/Src/isp_services.c ****   DCMIPP_BlackLevelConfTypeDef blackLevelConfig;
 1517              		.loc 1 893 1 view .LVU475
 1518 0002 0C46     		mov	r4, r1
 1519              		.loc 1 897 6 view .LVU476
 1520 0004 0546     		mov	r5, r0
 1521 0006 B0B1     		cbz	r0, .L133
 1522              		.loc 1 897 22 discriminator 1 view .LVU477
 1523 0008 A9B1     		cbz	r1, .L133
 898:../../Middlewares/Camera_Middleware/ISP_Library/isp/Src/isp_services.c ****   {
 899:../../Middlewares/Camera_Middleware/ISP_Library/isp/Src/isp_services.c ****     return ISP_ERR_BLACKLEVEL_EINVAL;
 900:../../Middlewares/Camera_Middleware/ISP_Library/isp/Src/isp_services.c ****   }
 901:../../Middlewares/Camera_Middleware/ISP_Library/isp/Src/isp_services.c **** 
ARM GAS  C:\Users\Antonio\AppData\Local\Temp\ccF6VN3M.s 			page 47


 902:../../Middlewares/Camera_Middleware/ISP_Library/isp/Src/isp_services.c ****   pConfig->enable = HAL_DCMIPP_PIPE_IsEnabledISPBlackLevelCalibration(hIsp->hDcmipp, DCMIPP_PIPE1);
 1524              		.loc 1 902 3 is_stmt 1 view .LVU478
 1525              		.loc 1 902 21 is_stmt 0 view .LVU479
 1526 000a 0121     		movs	r1, #1
 1527              	.LVL122:
 1528              		.loc 1 902 21 view .LVU480
 1529 000c 0068     		ldr	r0, [r0]
 1530              	.LVL123:
 1531              		.loc 1 902 21 view .LVU481
 1532 000e FFF7FEFF 		bl	HAL_DCMIPP_PIPE_IsEnabledISPBlackLevelCalibration
 1533              	.LVL124:
 1534              		.loc 1 902 19 discriminator 1 view .LVU482
 1535 0012 2070     		strb	r0, [r4]
 903:../../Middlewares/Camera_Middleware/ISP_Library/isp/Src/isp_services.c **** 
 904:../../Middlewares/Camera_Middleware/ISP_Library/isp/Src/isp_services.c ****   HAL_DCMIPP_PIPE_GetISPBlackLevelCalibrationConfig(hIsp->hDcmipp, DCMIPP_PIPE1, &blackLevelConfig)
 1536              		.loc 1 904 3 is_stmt 1 view .LVU483
 1537 0014 2868     		ldr	r0, [r5]
 1538 0016 0121     		movs	r1, #1
 1539 0018 01AA     		add	r2, sp, #4
 1540 001a FFF7FEFF 		bl	HAL_DCMIPP_PIPE_GetISPBlackLevelCalibrationConfig
 1541              	.LVL125:
 905:../../Middlewares/Camera_Middleware/ISP_Library/isp/Src/isp_services.c **** 
 906:../../Middlewares/Camera_Middleware/ISP_Library/isp/Src/isp_services.c ****   pConfig->BLCR = blackLevelConfig.RedCompBlackLevel;
 1542              		.loc 1 906 3 view .LVU484
 907:../../Middlewares/Camera_Middleware/ISP_Library/isp/Src/isp_services.c ****   pConfig->BLCG = blackLevelConfig.GreenCompBlackLevel;
 908:../../Middlewares/Camera_Middleware/ISP_Library/isp/Src/isp_services.c ****   pConfig->BLCB = blackLevelConfig.BlueCompBlackLevel;
 909:../../Middlewares/Camera_Middleware/ISP_Library/isp/Src/isp_services.c **** 
 910:../../Middlewares/Camera_Middleware/ISP_Library/isp/Src/isp_services.c ****   return ISP_OK;
 1543              		.loc 1 910 10 is_stmt 0 view .LVU485
 1544 001e 0020     		movs	r0, #0
 906:../../Middlewares/Camera_Middleware/ISP_Library/isp/Src/isp_services.c ****   pConfig->BLCG = blackLevelConfig.GreenCompBlackLevel;
 1545              		.loc 1 906 17 view .LVU486
 1546 0020 9DF80430 		ldrb	r3, [sp, #4]	@ zero_extendqisi2
 1547 0024 6370     		strb	r3, [r4, #1]
 907:../../Middlewares/Camera_Middleware/ISP_Library/isp/Src/isp_services.c ****   pConfig->BLCG = blackLevelConfig.GreenCompBlackLevel;
 1548              		.loc 1 907 3 is_stmt 1 view .LVU487
 907:../../Middlewares/Camera_Middleware/ISP_Library/isp/Src/isp_services.c ****   pConfig->BLCG = blackLevelConfig.GreenCompBlackLevel;
 1549              		.loc 1 907 17 is_stmt 0 view .LVU488
 1550 0026 9DF80530 		ldrb	r3, [sp, #5]	@ zero_extendqisi2
 1551 002a A370     		strb	r3, [r4, #2]
 908:../../Middlewares/Camera_Middleware/ISP_Library/isp/Src/isp_services.c **** 
 1552              		.loc 1 908 3 is_stmt 1 view .LVU489
 908:../../Middlewares/Camera_Middleware/ISP_Library/isp/Src/isp_services.c **** 
 1553              		.loc 1 908 17 is_stmt 0 view .LVU490
 1554 002c 9DF80630 		ldrb	r3, [sp, #6]	@ zero_extendqisi2
 1555 0030 E370     		strb	r3, [r4, #3]
 1556              		.loc 1 910 3 is_stmt 1 view .LVU491
 1557              	.L131:
 911:../../Middlewares/Camera_Middleware/ISP_Library/isp/Src/isp_services.c **** }
 1558              		.loc 1 911 1 is_stmt 0 view .LVU492
 1559 0032 03B0     		add	sp, sp, #12
 1560              		.cfi_remember_state
 1561              		.cfi_def_cfa_offset 12
 1562              		@ sp needed
 1563 0034 30BD     		pop	{r4, r5, pc}
 1564              	.LVL126:
 1565              	.L133:
ARM GAS  C:\Users\Antonio\AppData\Local\Temp\ccF6VN3M.s 			page 48


 1566              		.cfi_restore_state
 899:../../Middlewares/Camera_Middleware/ISP_Library/isp/Src/isp_services.c ****   }
 1567              		.loc 1 899 12 view .LVU493
 1568 0036 4620     		movs	r0, #70
 1569              	.LVL127:
 899:../../Middlewares/Camera_Middleware/ISP_Library/isp/Src/isp_services.c ****   }
 1570              		.loc 1 899 12 view .LVU494
 1571 0038 FBE7     		b	.L131
 1572              		.cfi_endproc
 1573              	.LFE860:
 1575              		.global	__aeabi_uldivmod
 1576              		.global	__aeabi_ldivmod
 1577              		.section	.text.ISP_SVC_ISP_SetGain,"ax",%progbits
 1578              		.align	1
 1579              		.global	ISP_SVC_ISP_SetGain
 1580              		.syntax unified
 1581              		.thumb
 1582              		.thumb_func
 1584              	ISP_SVC_ISP_SetGain:
 1585              	.LVL128:
 1586              	.LFB861:
 912:../../Middlewares/Camera_Middleware/ISP_Library/isp/Src/isp_services.c **** 
 913:../../Middlewares/Camera_Middleware/ISP_Library/isp/Src/isp_services.c **** /**
 914:../../Middlewares/Camera_Middleware/ISP_Library/isp/Src/isp_services.c ****   * @brief  ISP_SVC_ISP_SetGain
 915:../../Middlewares/Camera_Middleware/ISP_Library/isp/Src/isp_services.c ****   *         Set the ISP Exposure and White Balance gains
 916:../../Middlewares/Camera_Middleware/ISP_Library/isp/Src/isp_services.c ****   * @param  hIsp: ISP device handle
 917:../../Middlewares/Camera_Middleware/ISP_Library/isp/Src/isp_services.c ****   * @param  pConfig: Pointer to the ISP gain configuration
 918:../../Middlewares/Camera_Middleware/ISP_Library/isp/Src/isp_services.c ****   * @retval operation result
 919:../../Middlewares/Camera_Middleware/ISP_Library/isp/Src/isp_services.c ****   */
 920:../../Middlewares/Camera_Middleware/ISP_Library/isp/Src/isp_services.c **** ISP_StatusTypeDef ISP_SVC_ISP_SetGain(ISP_HandleTypeDef *hIsp, ISP_ISPGainTypeDef *pConfig)
 921:../../Middlewares/Camera_Middleware/ISP_Library/isp/Src/isp_services.c **** {
 1587              		.loc 1 921 1 is_stmt 1 view -0
 1588              		.cfi_startproc
 1589              		@ args = 0, pretend = 0, frame = 8
 1590              		@ frame_needed = 0, uses_anonymous_args = 0
 922:../../Middlewares/Camera_Middleware/ISP_Library/isp/Src/isp_services.c ****   HAL_StatusTypeDef halStatus;
 1591              		.loc 1 922 3 view .LVU496
 923:../../Middlewares/Camera_Middleware/ISP_Library/isp/Src/isp_services.c ****   DCMIPP_ExposureConfTypeDef exposureConfig;
 1592              		.loc 1 923 3 view .LVU497
 924:../../Middlewares/Camera_Middleware/ISP_Library/isp/Src/isp_services.c **** 
 925:../../Middlewares/Camera_Middleware/ISP_Library/isp/Src/isp_services.c ****   if ((hIsp == NULL) || (pConfig == NULL) ||
 1593              		.loc 1 925 3 view .LVU498
 921:../../Middlewares/Camera_Middleware/ISP_Library/isp/Src/isp_services.c ****   HAL_StatusTypeDef halStatus;
 1594              		.loc 1 921 1 is_stmt 0 view .LVU499
 1595 0000 2DE9F74F 		push	{r0, r1, r2, r4, r5, r6, r7, r8, r9, r10, fp, lr}
 1596              		.cfi_def_cfa_offset 48
 1597              		.cfi_offset 4, -36
 1598              		.cfi_offset 5, -32
 1599              		.cfi_offset 6, -28
 1600              		.cfi_offset 7, -24
 1601              		.cfi_offset 8, -20
 1602              		.cfi_offset 9, -16
 1603              		.cfi_offset 10, -12
 1604              		.cfi_offset 11, -8
 1605              		.cfi_offset 14, -4
 1606              		.loc 1 925 6 view .LVU500
 1607 0004 0546     		mov	r5, r0
ARM GAS  C:\Users\Antonio\AppData\Local\Temp\ccF6VN3M.s 			page 49


 1608 0006 0028     		cmp	r0, #0
 1609 0008 00F08B80 		beq	.L156
 1610              		.loc 1 925 22 discriminator 1 view .LVU501
 1611 000c 0029     		cmp	r1, #0
 1612 000e 00F08880 		beq	.L156
 926:../../Middlewares/Camera_Middleware/ISP_Library/isp/Src/isp_services.c ****       (pConfig->ispGainR > ISP_EXPOSURE_GAIN_MAX) || (pConfig->ispGainG > ISP_EXPOSURE_GAIN_MAX) ||
 1613              		.loc 1 926 15 view .LVU502
 1614 0012 4A68     		ldr	r2, [r1, #4]
 925:../../Middlewares/Camera_Middleware/ISP_Library/isp/Src/isp_services.c ****       (pConfig->ispGainR > ISP_EXPOSURE_GAIN_MAX) || (pConfig->ispGainG > ISP_EXPOSURE_GAIN_MAX) ||
 1615              		.loc 1 925 43 discriminator 2 view .LVU503
 1616 0014 464B     		ldr	r3, .L157+8
 1617 0016 9A42     		cmp	r2, r3
 1618 0018 00F28380 		bhi	.L156
 1619              		.loc 1 926 62 view .LVU504
 1620 001c D1F80880 		ldr	r8, [r1, #8]
 1621              		.loc 1 926 51 view .LVU505
 1622 0020 9845     		cmp	r8, r3
 1623 0022 7ED8     		bhi	.L156
 1624              		.loc 1 926 109 discriminator 1 view .LVU506
 1625 0024 CF68     		ldr	r7, [r1, #12]
 1626              		.loc 1 926 98 discriminator 1 view .LVU507
 1627 0026 9F42     		cmp	r7, r3
 1628 0028 7BD8     		bhi	.L156
 927:../../Middlewares/Camera_Middleware/ISP_Library/isp/Src/isp_services.c ****   {
 928:../../Middlewares/Camera_Middleware/ISP_Library/isp/Src/isp_services.c ****     return ISP_ERR_ISPGAIN_EINVAL;
 929:../../Middlewares/Camera_Middleware/ISP_Library/isp/Src/isp_services.c ****   }
 930:../../Middlewares/Camera_Middleware/ISP_Library/isp/Src/isp_services.c **** 
 931:../../Middlewares/Camera_Middleware/ISP_Library/isp/Src/isp_services.c ****   if (pConfig->enable == 0)
 1629              		.loc 1 931 3 is_stmt 1 view .LVU508
 1630              		.loc 1 931 6 is_stmt 0 view .LVU509
 1631 002a 0B78     		ldrb	r3, [r1]	@ zero_extendqisi2
 932:../../Middlewares/Camera_Middleware/ISP_Library/isp/Src/isp_services.c ****   {
 933:../../Middlewares/Camera_Middleware/ISP_Library/isp/Src/isp_services.c ****     halStatus = HAL_DCMIPP_PIPE_DisableISPExposure(hIsp->hDcmipp, DCMIPP_PIPE1);
 1632              		.loc 1 933 56 view .LVU510
 1633 002c 0668     		ldr	r6, [r0]
 931:../../Middlewares/Camera_Middleware/ISP_Library/isp/Src/isp_services.c ****   {
 1634              		.loc 1 931 6 view .LVU511
 1635 002e 33B9     		cbnz	r3, .L136
 1636              		.loc 1 933 5 is_stmt 1 view .LVU512
 1637              		.loc 1 933 17 is_stmt 0 view .LVU513
 1638 0030 0121     		movs	r1, #1
 1639              	.LVL129:
 1640              		.loc 1 933 17 view .LVU514
 1641 0032 3046     		mov	r0, r6
 1642              	.LVL130:
 1643              		.loc 1 933 17 view .LVU515
 1644 0034 FFF7FEFF 		bl	HAL_DCMIPP_PIPE_DisableISPExposure
 1645              	.LVL131:
 1646              	.L137:
 934:../../Middlewares/Camera_Middleware/ISP_Library/isp/Src/isp_services.c ****   }
 935:../../Middlewares/Camera_Middleware/ISP_Library/isp/Src/isp_services.c ****   else
 936:../../Middlewares/Camera_Middleware/ISP_Library/isp/Src/isp_services.c ****   {
 937:../../Middlewares/Camera_Middleware/ISP_Library/isp/Src/isp_services.c ****     To_Shift_Multiplier(pConfig->ispGainR, &exposureConfig.ShiftRed, &exposureConfig.MultiplierRed)
 938:../../Middlewares/Camera_Middleware/ISP_Library/isp/Src/isp_services.c ****     To_Shift_Multiplier(pConfig->ispGainG, &exposureConfig.ShiftGreen, &exposureConfig.MultiplierGr
 939:../../Middlewares/Camera_Middleware/ISP_Library/isp/Src/isp_services.c ****     To_Shift_Multiplier(pConfig->ispGainB, &exposureConfig.ShiftBlue, &exposureConfig.MultiplierBlu
 940:../../Middlewares/Camera_Middleware/ISP_Library/isp/Src/isp_services.c ****     halStatus = HAL_DCMIPP_PIPE_SetISPExposureConfig(hIsp->hDcmipp, DCMIPP_PIPE1, &exposureConfig);
 941:../../Middlewares/Camera_Middleware/ISP_Library/isp/Src/isp_services.c **** 
ARM GAS  C:\Users\Antonio\AppData\Local\Temp\ccF6VN3M.s 			page 50


 942:../../Middlewares/Camera_Middleware/ISP_Library/isp/Src/isp_services.c ****     if (halStatus == HAL_OK)
 943:../../Middlewares/Camera_Middleware/ISP_Library/isp/Src/isp_services.c ****     {
 944:../../Middlewares/Camera_Middleware/ISP_Library/isp/Src/isp_services.c ****       halStatus = HAL_DCMIPP_PIPE_EnableISPExposure(hIsp->hDcmipp, DCMIPP_PIPE1);
 945:../../Middlewares/Camera_Middleware/ISP_Library/isp/Src/isp_services.c ****     }
 946:../../Middlewares/Camera_Middleware/ISP_Library/isp/Src/isp_services.c ****   }
 947:../../Middlewares/Camera_Middleware/ISP_Library/isp/Src/isp_services.c **** 
 948:../../Middlewares/Camera_Middleware/ISP_Library/isp/Src/isp_services.c ****   if (halStatus != HAL_OK)
 1647              		.loc 1 948 3 is_stmt 1 view .LVU516
 1648              		.loc 1 948 6 is_stmt 0 view .LVU517
 1649 0038 0028     		cmp	r0, #0
 1650 003a 5BD0     		beq	.L135
 1651              		.loc 1 948 6 view .LVU518
 1652 003c 59E0     		b	.L151
 1653              	.LVL132:
 1654              	.L136:
 937:../../Middlewares/Camera_Middleware/ISP_Library/isp/Src/isp_services.c ****     To_Shift_Multiplier(pConfig->ispGainG, &exposureConfig.ShiftGreen, &exposureConfig.MultiplierGr
 1655              		.loc 1 937 5 is_stmt 1 view .LVU519
 1656              	.LBB68:
 1657              	.LBI68:
 150:../../Middlewares/Camera_Middleware/ISP_Library/isp/Src/isp_services.c **** {
 1658              		.loc 1 150 13 view .LVU520
 1659              	.LBB69:
 153:../../Middlewares/Camera_Middleware/ISP_Library/isp/Src/isp_services.c ****   Val = (Val * 128) / ISP_GAIN_PRECISION_FACTOR;
 1660              		.loc 1 153 3 view .LVU521
 154:../../Middlewares/Camera_Middleware/ISP_Library/isp/Src/isp_services.c **** 
 1661              		.loc 1 154 3 view .LVU522
 154:../../Middlewares/Camera_Middleware/ISP_Library/isp/Src/isp_services.c **** 
 1662              		.loc 1 154 14 is_stmt 0 view .LVU523
 1663 003e 0024     		movs	r4, #0
 1664 0040 1046     		mov	r0, r2
 1665              	.LVL133:
 154:../../Middlewares/Camera_Middleware/ISP_Library/isp/Src/isp_services.c **** 
 1666              		.loc 1 154 7 view .LVU524
 1667 0042 39A3     		adr	r3, .L157
 1668 0044 D3E90023 		ldrd	r2, [r3]
 1669              	.LVL134:
 154:../../Middlewares/Camera_Middleware/ISP_Library/isp/Src/isp_services.c **** 
 1670              		.loc 1 154 14 view .LVU525
 1671 0048 2146     		mov	r1, r4
 1672              	.LVL135:
 154:../../Middlewares/Camera_Middleware/ISP_Library/isp/Src/isp_services.c **** 
 1673              		.loc 1 154 14 view .LVU526
 1674 004a 50EACF11 		lsll	r0, r1, #7
 1675              	.LVL136:
 154:../../Middlewares/Camera_Middleware/ISP_Library/isp/Src/isp_services.c **** 
 1676              		.loc 1 154 7 view .LVU527
 1677 004e FFF7FEFF 		bl	__aeabi_uldivmod
 1678              	.LVL137:
 158:../../Middlewares/Camera_Middleware/ISP_Library/isp/Src/isp_services.c ****   {
 1679              		.loc 1 158 9 view .LVU528
 1680 0052 2346     		mov	r3, r4
 154:../../Middlewares/Camera_Middleware/ISP_Library/isp/Src/isp_services.c **** 
 1681              		.loc 1 154 7 view .LVU529
 1682 0054 8246     		mov	r10, r0
 1683 0056 8B46     		mov	fp, r1
 1684              	.LVL138:
 157:../../Middlewares/Camera_Middleware/ISP_Library/isp/Src/isp_services.c ****   while (Val >= 256)
ARM GAS  C:\Users\Antonio\AppData\Local\Temp\ccF6VN3M.s 			page 51


 1685              		.loc 1 157 3 is_stmt 1 view .LVU530
 158:../../Middlewares/Camera_Middleware/ISP_Library/isp/Src/isp_services.c ****   {
 1686              		.loc 1 158 3 view .LVU531
 158:../../Middlewares/Camera_Middleware/ISP_Library/isp/Src/isp_services.c ****   {
 1687              		.loc 1 158 9 is_stmt 0 view .LVU532
 1688 0058 2246     		mov	r2, r4
 1689              	.L138:
 158:../../Middlewares/Camera_Middleware/ISP_Library/isp/Src/isp_services.c ****   {
 1690              		.loc 1 158 14 is_stmt 1 view .LVU533
 1691 005a BAF5807F 		cmp	r10, #256
 1692 005e 7BF10000 		sbcs	r0, fp, #0
 1693 0062 03F10101 		add	r1, r3, #1
 1694 0066 48D2     		bcs	.L139
 158:../../Middlewares/Camera_Middleware/ISP_Library/isp/Src/isp_services.c ****   {
 1695              		.loc 1 158 14 is_stmt 0 view .LVU534
 1696              	.LBE69:
 1697              	.LBE68:
 1698              	.LBB74:
 1699              	.LBB75:
 154:../../Middlewares/Camera_Middleware/ISP_Library/isp/Src/isp_services.c **** 
 1700              		.loc 1 154 14 view .LVU535
 1701 0068 0024     		movs	r4, #0
 1702              	.LBE75:
 1703              	.LBE74:
 1704              	.LBB83:
 1705              	.LBB70:
 157:../../Middlewares/Camera_Middleware/ISP_Library/isp/Src/isp_services.c ****   while (Val >= 256)
 1706              		.loc 1 157 11 view .LVU536
 1707 006a 002A     		cmp	r2, #0
 1708 006c 08BF     		it	eq
 1709 006e 1346     		moveq	r3, r2
 1710              	.LBE70:
 1711              	.LBE83:
 1712              	.LBB84:
 1713              	.LBB76:
 154:../../Middlewares/Camera_Middleware/ISP_Library/isp/Src/isp_services.c **** 
 1714              		.loc 1 154 14 view .LVU537
 1715 0070 4046     		mov	r0, r8
 1716 0072 2146     		mov	r1, r4
 1717              	.LBE76:
 1718              	.LBE84:
 1719              	.LBB85:
 1720              	.LBB71:
 157:../../Middlewares/Camera_Middleware/ISP_Library/isp/Src/isp_services.c ****   while (Val >= 256)
 1721              		.loc 1 157 11 view .LVU538
 1722 0074 8DF80030 		strb	r3, [sp]
 164:../../Middlewares/Camera_Middleware/ISP_Library/isp/Src/isp_services.c **** }
 1723              		.loc 1 164 3 is_stmt 1 view .LVU539
 1724              	.LBE71:
 1725              	.LBE85:
 1726              	.LBB86:
 1727              	.LBB77:
 154:../../Middlewares/Camera_Middleware/ISP_Library/isp/Src/isp_services.c **** 
 1728              		.loc 1 154 14 is_stmt 0 view .LVU540
 1729 0078 50EACF11 		lsll	r0, r1, #7
 154:../../Middlewares/Camera_Middleware/ISP_Library/isp/Src/isp_services.c **** 
 1730              		.loc 1 154 7 view .LVU541
ARM GAS  C:\Users\Antonio\AppData\Local\Temp\ccF6VN3M.s 			page 52


 1731 007c 2AA3     		adr	r3, .L157
 1732 007e D3E90023 		ldrd	r2, [r3]
 1733              	.LBE77:
 1734              	.LBE86:
 1735              	.LBB87:
 1736              	.LBB72:
 164:../../Middlewares/Camera_Middleware/ISP_Library/isp/Src/isp_services.c **** }
 1737              		.loc 1 164 16 view .LVU542
 1738 0082 8DF801A0 		strb	r10, [sp, #1]
 1739              	.LVL139:
 164:../../Middlewares/Camera_Middleware/ISP_Library/isp/Src/isp_services.c **** }
 1740              		.loc 1 164 16 view .LVU543
 1741              	.LBE72:
 1742              	.LBE87:
 938:../../Middlewares/Camera_Middleware/ISP_Library/isp/Src/isp_services.c ****     To_Shift_Multiplier(pConfig->ispGainB, &exposureConfig.ShiftBlue, &exposureConfig.MultiplierBlu
 1743              		.loc 1 938 5 is_stmt 1 view .LVU544
 1744              	.LBB88:
 1745              	.LBI74:
 150:../../Middlewares/Camera_Middleware/ISP_Library/isp/Src/isp_services.c **** {
 1746              		.loc 1 150 13 view .LVU545
 1747              	.LBB78:
 153:../../Middlewares/Camera_Middleware/ISP_Library/isp/Src/isp_services.c ****   Val = (Val * 128) / ISP_GAIN_PRECISION_FACTOR;
 1748              		.loc 1 153 3 view .LVU546
 154:../../Middlewares/Camera_Middleware/ISP_Library/isp/Src/isp_services.c **** 
 1749              		.loc 1 154 3 view .LVU547
 154:../../Middlewares/Camera_Middleware/ISP_Library/isp/Src/isp_services.c **** 
 1750              		.loc 1 154 7 is_stmt 0 view .LVU548
 1751 0086 FFF7FEFF 		bl	__aeabi_uldivmod
 1752              	.LVL140:
 158:../../Middlewares/Camera_Middleware/ISP_Library/isp/Src/isp_services.c ****   {
 1753              		.loc 1 158 9 view .LVU549
 1754 008a 2346     		mov	r3, r4
 154:../../Middlewares/Camera_Middleware/ISP_Library/isp/Src/isp_services.c **** 
 1755              		.loc 1 154 7 view .LVU550
 1756 008c 8046     		mov	r8, r0
 1757              	.LVL141:
 154:../../Middlewares/Camera_Middleware/ISP_Library/isp/Src/isp_services.c **** 
 1758              		.loc 1 154 7 view .LVU551
 1759 008e 8946     		mov	r9, r1
 1760              	.LVL142:
 157:../../Middlewares/Camera_Middleware/ISP_Library/isp/Src/isp_services.c ****   while (Val >= 256)
 1761              		.loc 1 157 3 is_stmt 1 view .LVU552
 158:../../Middlewares/Camera_Middleware/ISP_Library/isp/Src/isp_services.c ****   {
 1762              		.loc 1 158 3 view .LVU553
 158:../../Middlewares/Camera_Middleware/ISP_Library/isp/Src/isp_services.c ****   {
 1763              		.loc 1 158 9 is_stmt 0 view .LVU554
 1764 0090 2246     		mov	r2, r4
 1765              	.L142:
 158:../../Middlewares/Camera_Middleware/ISP_Library/isp/Src/isp_services.c ****   {
 1766              		.loc 1 158 14 is_stmt 1 view .LVU555
 1767 0092 B8F5807F 		cmp	r8, #256
 1768 0096 79F10000 		sbcs	r0, r9, #0
 1769 009a 03F10101 		add	r1, r3, #1
 1770 009e 31D2     		bcs	.L143
 158:../../Middlewares/Camera_Middleware/ISP_Library/isp/Src/isp_services.c ****   {
 1771              		.loc 1 158 14 is_stmt 0 view .LVU556
 1772              	.LBE78:
ARM GAS  C:\Users\Antonio\AppData\Local\Temp\ccF6VN3M.s 			page 53


 1773              	.LBE88:
 1774              	.LBB89:
 1775              	.LBB90:
 154:../../Middlewares/Camera_Middleware/ISP_Library/isp/Src/isp_services.c **** 
 1776              		.loc 1 154 14 view .LVU557
 1777 00a0 0024     		movs	r4, #0
 1778              	.LBE90:
 1779              	.LBE89:
 1780              	.LBB96:
 1781              	.LBB79:
 157:../../Middlewares/Camera_Middleware/ISP_Library/isp/Src/isp_services.c ****   while (Val >= 256)
 1782              		.loc 1 157 11 view .LVU558
 1783 00a2 002A     		cmp	r2, #0
 1784 00a4 08BF     		it	eq
 1785 00a6 1346     		moveq	r3, r2
 1786              	.LBE79:
 1787              	.LBE96:
 1788              	.LBB97:
 1789              	.LBB91:
 154:../../Middlewares/Camera_Middleware/ISP_Library/isp/Src/isp_services.c **** 
 1790              		.loc 1 154 14 view .LVU559
 1791 00a8 3846     		mov	r0, r7
 1792 00aa 2146     		mov	r1, r4
 1793              	.LBE91:
 1794              	.LBE97:
 1795              	.LBB98:
 1796              	.LBB80:
 157:../../Middlewares/Camera_Middleware/ISP_Library/isp/Src/isp_services.c ****   while (Val >= 256)
 1797              		.loc 1 157 11 view .LVU560
 1798 00ac 8DF80230 		strb	r3, [sp, #2]
 164:../../Middlewares/Camera_Middleware/ISP_Library/isp/Src/isp_services.c **** }
 1799              		.loc 1 164 3 is_stmt 1 view .LVU561
 1800              	.LBE80:
 1801              	.LBE98:
 1802              	.LBB99:
 1803              	.LBB92:
 154:../../Middlewares/Camera_Middleware/ISP_Library/isp/Src/isp_services.c **** 
 1804              		.loc 1 154 14 is_stmt 0 view .LVU562
 1805 00b0 50EACF11 		lsll	r0, r1, #7
 154:../../Middlewares/Camera_Middleware/ISP_Library/isp/Src/isp_services.c **** 
 1806              		.loc 1 154 7 view .LVU563
 1807 00b4 1CA3     		adr	r3, .L157
 1808 00b6 D3E90023 		ldrd	r2, [r3]
 1809              	.LBE92:
 1810              	.LBE99:
 1811              	.LBB100:
 1812              	.LBB81:
 164:../../Middlewares/Camera_Middleware/ISP_Library/isp/Src/isp_services.c **** }
 1813              		.loc 1 164 16 view .LVU564
 1814 00ba 8DF80380 		strb	r8, [sp, #3]
 1815              	.LVL143:
 164:../../Middlewares/Camera_Middleware/ISP_Library/isp/Src/isp_services.c **** }
 1816              		.loc 1 164 16 view .LVU565
 1817              	.LBE81:
 1818              	.LBE100:
 939:../../Middlewares/Camera_Middleware/ISP_Library/isp/Src/isp_services.c ****     halStatus = HAL_DCMIPP_PIPE_SetISPExposureConfig(hIsp->hDcmipp, DCMIPP_PIPE1, &exposureConfig);
 1819              		.loc 1 939 5 is_stmt 1 view .LVU566
ARM GAS  C:\Users\Antonio\AppData\Local\Temp\ccF6VN3M.s 			page 54


 1820              	.LBB101:
 1821              	.LBI89:
 150:../../Middlewares/Camera_Middleware/ISP_Library/isp/Src/isp_services.c **** {
 1822              		.loc 1 150 13 view .LVU567
 1823              	.LBB93:
 153:../../Middlewares/Camera_Middleware/ISP_Library/isp/Src/isp_services.c ****   Val = (Val * 128) / ISP_GAIN_PRECISION_FACTOR;
 1824              		.loc 1 153 3 view .LVU568
 154:../../Middlewares/Camera_Middleware/ISP_Library/isp/Src/isp_services.c **** 
 1825              		.loc 1 154 3 view .LVU569
 154:../../Middlewares/Camera_Middleware/ISP_Library/isp/Src/isp_services.c **** 
 1826              		.loc 1 154 7 is_stmt 0 view .LVU570
 1827 00be FFF7FEFF 		bl	__aeabi_uldivmod
 1828              	.LVL144:
 158:../../Middlewares/Camera_Middleware/ISP_Library/isp/Src/isp_services.c ****   {
 1829              		.loc 1 158 9 view .LVU571
 1830 00c2 2346     		mov	r3, r4
 154:../../Middlewares/Camera_Middleware/ISP_Library/isp/Src/isp_services.c **** 
 1831              		.loc 1 154 7 view .LVU572
 1832 00c4 8046     		mov	r8, r0
 1833 00c6 8946     		mov	r9, r1
 1834              	.LVL145:
 157:../../Middlewares/Camera_Middleware/ISP_Library/isp/Src/isp_services.c ****   while (Val >= 256)
 1835              		.loc 1 157 3 is_stmt 1 view .LVU573
 158:../../Middlewares/Camera_Middleware/ISP_Library/isp/Src/isp_services.c ****   {
 1836              		.loc 1 158 3 view .LVU574
 158:../../Middlewares/Camera_Middleware/ISP_Library/isp/Src/isp_services.c ****   {
 1837              		.loc 1 158 9 is_stmt 0 view .LVU575
 1838 00c8 2246     		mov	r2, r4
 1839              	.L146:
 158:../../Middlewares/Camera_Middleware/ISP_Library/isp/Src/isp_services.c ****   {
 1840              		.loc 1 158 14 is_stmt 1 view .LVU576
 1841 00ca B8F5807F 		cmp	r8, #256
 1842 00ce 79F10000 		sbcs	r0, r9, #0
 1843 00d2 03F10101 		add	r1, r3, #1
 1844 00d6 1AD2     		bcs	.L147
 157:../../Middlewares/Camera_Middleware/ISP_Library/isp/Src/isp_services.c ****   while (Val >= 256)
 1845              		.loc 1 157 11 is_stmt 0 view .LVU577
 1846 00d8 002A     		cmp	r2, #0
 1847 00da 08BF     		it	eq
 1848 00dc 1346     		moveq	r3, r2
 1849              	.LBE93:
 1850              	.LBE101:
 940:../../Middlewares/Camera_Middleware/ISP_Library/isp/Src/isp_services.c **** 
 1851              		.loc 1 940 17 view .LVU578
 1852 00de 0121     		movs	r1, #1
 1853 00e0 6A46     		mov	r2, sp
 1854 00e2 3046     		mov	r0, r6
 1855              	.LBB102:
 1856              	.LBB94:
 157:../../Middlewares/Camera_Middleware/ISP_Library/isp/Src/isp_services.c ****   while (Val >= 256)
 1857              		.loc 1 157 11 view .LVU579
 1858 00e4 8DF80430 		strb	r3, [sp, #4]
 164:../../Middlewares/Camera_Middleware/ISP_Library/isp/Src/isp_services.c **** }
 1859              		.loc 1 164 3 is_stmt 1 view .LVU580
 164:../../Middlewares/Camera_Middleware/ISP_Library/isp/Src/isp_services.c **** }
 1860              		.loc 1 164 16 is_stmt 0 view .LVU581
 1861 00e8 8DF80580 		strb	r8, [sp, #5]
ARM GAS  C:\Users\Antonio\AppData\Local\Temp\ccF6VN3M.s 			page 55


 1862              	.LVL146:
 164:../../Middlewares/Camera_Middleware/ISP_Library/isp/Src/isp_services.c **** }
 1863              		.loc 1 164 16 view .LVU582
 1864              	.LBE94:
 1865              	.LBE102:
 940:../../Middlewares/Camera_Middleware/ISP_Library/isp/Src/isp_services.c **** 
 1866              		.loc 1 940 5 is_stmt 1 view .LVU583
 940:../../Middlewares/Camera_Middleware/ISP_Library/isp/Src/isp_services.c **** 
 1867              		.loc 1 940 17 is_stmt 0 view .LVU584
 1868 00ec FFF7FEFF 		bl	HAL_DCMIPP_PIPE_SetISPExposureConfig
 1869              	.LVL147:
 942:../../Middlewares/Camera_Middleware/ISP_Library/isp/Src/isp_services.c ****     {
 1870              		.loc 1 942 5 is_stmt 1 view .LVU585
 942:../../Middlewares/Camera_Middleware/ISP_Library/isp/Src/isp_services.c ****     {
 1871              		.loc 1 942 8 is_stmt 0 view .LVU586
 1872 00f0 90B1     		cbz	r0, .L150
 1873              	.L151:
 949:../../Middlewares/Camera_Middleware/ISP_Library/isp/Src/isp_services.c ****   {
 950:../../Middlewares/Camera_Middleware/ISP_Library/isp/Src/isp_services.c ****     return ISP_ERR_ISPGAIN_HAL;
 1874              		.loc 1 950 12 view .LVU587
 1875 00f2 5120     		movs	r0, #81
 1876              	.LVL148:
 1877              	.L135:
 951:../../Middlewares/Camera_Middleware/ISP_Library/isp/Src/isp_services.c ****   }
 952:../../Middlewares/Camera_Middleware/ISP_Library/isp/Src/isp_services.c **** 
 953:../../Middlewares/Camera_Middleware/ISP_Library/isp/Src/isp_services.c ****   return ISP_OK;
 954:../../Middlewares/Camera_Middleware/ISP_Library/isp/Src/isp_services.c **** }
 1878              		.loc 1 954 1 view .LVU588
 1879 00f4 03B0     		add	sp, sp, #12
 1880              		.cfi_remember_state
 1881              		.cfi_def_cfa_offset 36
 1882              		@ sp needed
 1883 00f6 BDE8F08F 		pop	{r4, r5, r6, r7, r8, r9, r10, fp, pc}
 1884              	.LVL149:
 1885              	.L139:
 1886              		.cfi_restore_state
 1887              	.LBB103:
 1888              	.LBB73:
 160:../../Middlewares/Camera_Middleware/ISP_Library/isp/Src/isp_services.c ****     (*pShift)++;
 1889              		.loc 1 160 5 is_stmt 1 view .LVU589
 160:../../Middlewares/Camera_Middleware/ISP_Library/isp/Src/isp_services.c ****     (*pShift)++;
 1890              		.loc 1 160 9 is_stmt 0 view .LVU590
 1891 00fa 5AEA5F0B 		lsrl	r10, fp, #1
 1892              	.LVL150:
 161:../../Middlewares/Camera_Middleware/ISP_Library/isp/Src/isp_services.c ****   }
 1893              		.loc 1 161 5 is_stmt 1 view .LVU591
 160:../../Middlewares/Camera_Middleware/ISP_Library/isp/Src/isp_services.c ****     (*pShift)++;
 1894              		.loc 1 160 9 is_stmt 0 view .LVU592
 1895 00fe 0B46     		mov	r3, r1
 1896 0100 0122     		movs	r2, #1
 1897 0102 AAE7     		b	.L138
 1898              	.LVL151:
 1899              	.L143:
 160:../../Middlewares/Camera_Middleware/ISP_Library/isp/Src/isp_services.c ****     (*pShift)++;
 1900              		.loc 1 160 9 view .LVU593
 1901              	.LBE73:
 1902              	.LBE103:
ARM GAS  C:\Users\Antonio\AppData\Local\Temp\ccF6VN3M.s 			page 56


 1903              	.LBB104:
 1904              	.LBB82:
 160:../../Middlewares/Camera_Middleware/ISP_Library/isp/Src/isp_services.c ****     (*pShift)++;
 1905              		.loc 1 160 5 is_stmt 1 view .LVU594
 160:../../Middlewares/Camera_Middleware/ISP_Library/isp/Src/isp_services.c ****     (*pShift)++;
 1906              		.loc 1 160 9 is_stmt 0 view .LVU595
 1907 0104 58EA5F09 		lsrl	r8, r9, #1
 1908              	.LVL152:
 161:../../Middlewares/Camera_Middleware/ISP_Library/isp/Src/isp_services.c ****   }
 1909              		.loc 1 161 5 is_stmt 1 view .LVU596
 160:../../Middlewares/Camera_Middleware/ISP_Library/isp/Src/isp_services.c ****     (*pShift)++;
 1910              		.loc 1 160 9 is_stmt 0 view .LVU597
 1911 0108 0B46     		mov	r3, r1
 1912 010a 0122     		movs	r2, #1
 1913 010c C1E7     		b	.L142
 1914              	.LVL153:
 1915              	.L147:
 160:../../Middlewares/Camera_Middleware/ISP_Library/isp/Src/isp_services.c ****     (*pShift)++;
 1916              		.loc 1 160 9 view .LVU598
 1917              	.LBE82:
 1918              	.LBE104:
 1919              	.LBB105:
 1920              	.LBB95:
 160:../../Middlewares/Camera_Middleware/ISP_Library/isp/Src/isp_services.c ****     (*pShift)++;
 1921              		.loc 1 160 5 is_stmt 1 view .LVU599
 160:../../Middlewares/Camera_Middleware/ISP_Library/isp/Src/isp_services.c ****     (*pShift)++;
 1922              		.loc 1 160 9 is_stmt 0 view .LVU600
 1923 010e 58EA5F09 		lsrl	r8, r9, #1
 1924              	.LVL154:
 161:../../Middlewares/Camera_Middleware/ISP_Library/isp/Src/isp_services.c ****   }
 1925              		.loc 1 161 5 is_stmt 1 view .LVU601
 160:../../Middlewares/Camera_Middleware/ISP_Library/isp/Src/isp_services.c ****     (*pShift)++;
 1926              		.loc 1 160 9 is_stmt 0 view .LVU602
 1927 0112 0B46     		mov	r3, r1
 1928 0114 0122     		movs	r2, #1
 1929 0116 D8E7     		b	.L146
 1930              	.LVL155:
 1931              	.L150:
 160:../../Middlewares/Camera_Middleware/ISP_Library/isp/Src/isp_services.c ****     (*pShift)++;
 1932              		.loc 1 160 9 view .LVU603
 1933              	.LBE95:
 1934              	.LBE105:
 944:../../Middlewares/Camera_Middleware/ISP_Library/isp/Src/isp_services.c ****     }
 1935              		.loc 1 944 7 is_stmt 1 view .LVU604
 944:../../Middlewares/Camera_Middleware/ISP_Library/isp/Src/isp_services.c ****     }
 1936              		.loc 1 944 19 is_stmt 0 view .LVU605
 1937 0118 0121     		movs	r1, #1
 1938 011a 2868     		ldr	r0, [r5]
 1939              	.LVL156:
 944:../../Middlewares/Camera_Middleware/ISP_Library/isp/Src/isp_services.c ****     }
 1940              		.loc 1 944 19 view .LVU606
 1941 011c FFF7FEFF 		bl	HAL_DCMIPP_PIPE_EnableISPExposure
 1942              	.LVL157:
 944:../../Middlewares/Camera_Middleware/ISP_Library/isp/Src/isp_services.c ****     }
 1943              		.loc 1 944 19 view .LVU607
 1944 0120 8AE7     		b	.L137
 1945              	.LVL158:
ARM GAS  C:\Users\Antonio\AppData\Local\Temp\ccF6VN3M.s 			page 57


 1946              	.L156:
 928:../../Middlewares/Camera_Middleware/ISP_Library/isp/Src/isp_services.c ****   }
 1947              		.loc 1 928 12 view .LVU608
 1948 0122 5020     		movs	r0, #80
 1949              	.LVL159:
 928:../../Middlewares/Camera_Middleware/ISP_Library/isp/Src/isp_services.c ****   }
 1950              		.loc 1 928 12 view .LVU609
 1951 0124 E6E7     		b	.L135
 1952              	.L158:
 1953 0126 00BF     		.align	3
 1954              	.L157:
 1955 0128 00E1F505 		.word	100000000
 1956 012c 00000000 		.word	0
 1957 0130 00105E5F 		.word	1600000000
 1958              		.cfi_endproc
 1959              	.LFE861:
 1961              		.section	.text.ISP_SVC_ISP_GetGain,"ax",%progbits
 1962              		.align	1
 1963              		.global	ISP_SVC_ISP_GetGain
 1964              		.syntax unified
 1965              		.thumb
 1966              		.thumb_func
 1968              	ISP_SVC_ISP_GetGain:
 1969              	.LVL160:
 1970              	.LFB862:
 955:../../Middlewares/Camera_Middleware/ISP_Library/isp/Src/isp_services.c **** 
 956:../../Middlewares/Camera_Middleware/ISP_Library/isp/Src/isp_services.c **** /**
 957:../../Middlewares/Camera_Middleware/ISP_Library/isp/Src/isp_services.c ****   * @brief  ISP_SVC_ISP_GetGain
 958:../../Middlewares/Camera_Middleware/ISP_Library/isp/Src/isp_services.c ****   *         Get the ISP Exposure and White Balance gains
 959:../../Middlewares/Camera_Middleware/ISP_Library/isp/Src/isp_services.c ****   * @param  hIsp: ISP device handle
 960:../../Middlewares/Camera_Middleware/ISP_Library/isp/Src/isp_services.c ****   * @param  pConfig: Pointer to the ISP gain configuration
 961:../../Middlewares/Camera_Middleware/ISP_Library/isp/Src/isp_services.c ****   * @retval operation result
 962:../../Middlewares/Camera_Middleware/ISP_Library/isp/Src/isp_services.c ****   */
 963:../../Middlewares/Camera_Middleware/ISP_Library/isp/Src/isp_services.c **** ISP_StatusTypeDef ISP_SVC_ISP_GetGain(ISP_HandleTypeDef *hIsp, ISP_ISPGainTypeDef *pConfig)
 964:../../Middlewares/Camera_Middleware/ISP_Library/isp/Src/isp_services.c **** {
 1971              		.loc 1 964 1 is_stmt 1 view -0
 1972              		.cfi_startproc
 1973              		@ args = 0, pretend = 0, frame = 8
 1974              		@ frame_needed = 0, uses_anonymous_args = 0
 965:../../Middlewares/Camera_Middleware/ISP_Library/isp/Src/isp_services.c ****   DCMIPP_ExposureConfTypeDef exposureConfig;
 1975              		.loc 1 965 3 view .LVU611
 966:../../Middlewares/Camera_Middleware/ISP_Library/isp/Src/isp_services.c **** 
 967:../../Middlewares/Camera_Middleware/ISP_Library/isp/Src/isp_services.c ****   /* Check handle validity */
 968:../../Middlewares/Camera_Middleware/ISP_Library/isp/Src/isp_services.c ****   if ((hIsp == NULL) || (pConfig == NULL))
 1976              		.loc 1 968 3 view .LVU612
 964:../../Middlewares/Camera_Middleware/ISP_Library/isp/Src/isp_services.c ****   DCMIPP_ExposureConfTypeDef exposureConfig;
 1977              		.loc 1 964 1 is_stmt 0 view .LVU613
 1978 0000 F7B5     		push	{r0, r1, r2, r4, r5, r6, r7, lr}
 1979              		.cfi_def_cfa_offset 32
 1980              		.cfi_offset 4, -20
 1981              		.cfi_offset 5, -16
 1982              		.cfi_offset 6, -12
 1983              		.cfi_offset 7, -8
 1984              		.cfi_offset 14, -4
 964:../../Middlewares/Camera_Middleware/ISP_Library/isp/Src/isp_services.c ****   DCMIPP_ExposureConfTypeDef exposureConfig;
 1985              		.loc 1 964 1 view .LVU614
 1986 0002 0C46     		mov	r4, r1
ARM GAS  C:\Users\Antonio\AppData\Local\Temp\ccF6VN3M.s 			page 58


 1987              		.loc 1 968 6 view .LVU615
 1988 0004 0546     		mov	r5, r0
 1989 0006 0028     		cmp	r0, #0
 1990 0008 3FD0     		beq	.L162
 1991              		.loc 1 968 22 discriminator 1 view .LVU616
 1992 000a 0029     		cmp	r1, #0
 1993 000c 3DD0     		beq	.L162
 969:../../Middlewares/Camera_Middleware/ISP_Library/isp/Src/isp_services.c ****   {
 970:../../Middlewares/Camera_Middleware/ISP_Library/isp/Src/isp_services.c ****     return ISP_ERR_ISPGAIN_EINVAL;
 971:../../Middlewares/Camera_Middleware/ISP_Library/isp/Src/isp_services.c ****   }
 972:../../Middlewares/Camera_Middleware/ISP_Library/isp/Src/isp_services.c **** 
 973:../../Middlewares/Camera_Middleware/ISP_Library/isp/Src/isp_services.c ****   pConfig->enable = HAL_DCMIPP_PIPE_IsEnabledISPExposure(hIsp->hDcmipp, DCMIPP_PIPE1);
 1994              		.loc 1 973 3 is_stmt 1 view .LVU617
 1995              		.loc 1 973 21 is_stmt 0 view .LVU618
 1996 000e 0121     		movs	r1, #1
 1997              	.LVL161:
 1998              		.loc 1 973 21 view .LVU619
 1999 0010 0068     		ldr	r0, [r0]
 2000              	.LVL162:
 2001              		.loc 1 973 21 view .LVU620
 2002 0012 FFF7FEFF 		bl	HAL_DCMIPP_PIPE_IsEnabledISPExposure
 2003              	.LVL163:
 2004              		.loc 1 973 19 discriminator 1 view .LVU621
 2005 0016 2070     		strb	r0, [r4]
 974:../../Middlewares/Camera_Middleware/ISP_Library/isp/Src/isp_services.c ****   HAL_DCMIPP_PIPE_GetISPExposureConfig(hIsp->hDcmipp, DCMIPP_PIPE1, &exposureConfig);
 2006              		.loc 1 974 3 is_stmt 1 view .LVU622
 2007 0018 2868     		ldr	r0, [r5]
 2008 001a 6A46     		mov	r2, sp
 2009 001c 0121     		movs	r1, #1
 2010 001e FFF7FEFF 		bl	HAL_DCMIPP_PIPE_GetISPExposureConfig
 2011              	.LVL164:
 975:../../Middlewares/Camera_Middleware/ISP_Library/isp/Src/isp_services.c **** 
 976:../../Middlewares/Camera_Middleware/ISP_Library/isp/Src/isp_services.c ****   pConfig->ispGainR = From_Shift_Multiplier(exposureConfig.ShiftRed, exposureConfig.MultiplierRed);
 2012              		.loc 1 976 3 view .LVU623
 2013              	.LBB106:
 2014              	.LBI106:
 167:../../Middlewares/Camera_Middleware/ISP_Library/isp/Src/isp_services.c **** {
 2015              		.loc 1 167 17 view .LVU624
 2016              	.LBB107:
 170:../../Middlewares/Camera_Middleware/ISP_Library/isp/Src/isp_services.c ****   Val = (Val * Multiplier * ISP_GAIN_PRECISION_FACTOR) / 128;
 2017              		.loc 1 170 3 view .LVU625
 171:../../Middlewares/Camera_Middleware/ISP_Library/isp/Src/isp_services.c ****   return (uint32_t) Val;
 2018              		.loc 1 171 3 view .LVU626
 172:../../Middlewares/Camera_Middleware/ISP_Library/isp/Src/isp_services.c **** }
 2019              		.loc 1 172 3 view .LVU627
 170:../../Middlewares/Camera_Middleware/ISP_Library/isp/Src/isp_services.c ****   Val = (Val * Multiplier * ISP_GAIN_PRECISION_FACTOR) / 128;
 2020              		.loc 1 170 21 is_stmt 0 view .LVU628
 2021 0022 0123     		movs	r3, #1
 2022 0024 9DF80010 		ldrb	r1, [sp]	@ zero_extendqisi2
 171:../../Middlewares/Camera_Middleware/ISP_Library/isp/Src/isp_services.c ****   return (uint32_t) Val;
 2023              		.loc 1 171 27 view .LVU629
 2024 0028 9DF80120 		ldrb	r2, [sp, #1]	@ zero_extendqisi2
 170:../../Middlewares/Camera_Middleware/ISP_Library/isp/Src/isp_services.c ****   Val = (Val * Multiplier * ISP_GAIN_PRECISION_FACTOR) / 128;
 2025              		.loc 1 170 21 view .LVU630
 2026 002c 03FA01F1 		lsl	r1, r3, r1
 171:../../Middlewares/Camera_Middleware/ISP_Library/isp/Src/isp_services.c ****   return (uint32_t) Val;
 2027              		.loc 1 171 27 view .LVU631
ARM GAS  C:\Users\Antonio\AppData\Local\Temp\ccF6VN3M.s 			page 59


 2028 0030 81FB0210 		smull	r1, r0, r1, r2
 2029 0034 164A     		ldr	r2, .L163
 2030 0036 A1FB0215 		umull	r1, r5, r1, r2
 2031              	.LVL165:
 171:../../Middlewares/Camera_Middleware/ISP_Library/isp/Src/isp_services.c ****   return (uint32_t) Val;
 2032              		.loc 1 171 7 view .LVU632
 2033 003a 0E46     		mov	r6, r1
 2034 003c 02FB0057 		mla	r7, r2, r0, r5
 2035 0040 56EADF17 		lsrl	r6, r7, #7
 2036              	.LBE107:
 2037              	.LBE106:
 2038              	.LBB109:
 2039              	.LBB110:
 170:../../Middlewares/Camera_Middleware/ISP_Library/isp/Src/isp_services.c ****   Val = (Val * Multiplier * ISP_GAIN_PRECISION_FACTOR) / 128;
 2040              		.loc 1 170 21 view .LVU633
 2041 0044 9DF80200 		ldrb	r0, [sp, #2]	@ zero_extendqisi2
 171:../../Middlewares/Camera_Middleware/ISP_Library/isp/Src/isp_services.c ****   return (uint32_t) Val;
 2042              		.loc 1 171 27 view .LVU634
 2043 0048 9DF80310 		ldrb	r1, [sp, #3]	@ zero_extendqisi2
 170:../../Middlewares/Camera_Middleware/ISP_Library/isp/Src/isp_services.c ****   Val = (Val * Multiplier * ISP_GAIN_PRECISION_FACTOR) / 128;
 2044              		.loc 1 170 21 view .LVU635
 2045 004c 03FA00F0 		lsl	r0, r3, r0
 171:../../Middlewares/Camera_Middleware/ISP_Library/isp/Src/isp_services.c ****   return (uint32_t) Val;
 2046              		.loc 1 171 27 view .LVU636
 2047 0050 80FB0101 		smull	r0, r1, r0, r1
 2048 0054 A0FB0205 		umull	r0, r5, r0, r2
 2049              	.LBE110:
 2050              	.LBE109:
 2051              	.LBB113:
 2052              	.LBB108:
 172:../../Middlewares/Camera_Middleware/ISP_Library/isp/Src/isp_services.c **** }
 2053              		.loc 1 172 10 view .LVU637
 2054 0058 6660     		str	r6, [r4, #4]
 2055              	.LBE108:
 2056              	.LBE113:
 977:../../Middlewares/Camera_Middleware/ISP_Library/isp/Src/isp_services.c ****   pConfig->ispGainG = From_Shift_Multiplier(exposureConfig.ShiftGreen, exposureConfig.MultiplierGre
 2057              		.loc 1 977 3 is_stmt 1 view .LVU638
 2058              	.LVL166:
 2059              	.LBB114:
 2060              	.LBI109:
 167:../../Middlewares/Camera_Middleware/ISP_Library/isp/Src/isp_services.c **** {
 2061              		.loc 1 167 17 view .LVU639
 2062              	.LBB111:
 170:../../Middlewares/Camera_Middleware/ISP_Library/isp/Src/isp_services.c ****   Val = (Val * Multiplier * ISP_GAIN_PRECISION_FACTOR) / 128;
 2063              		.loc 1 170 3 view .LVU640
 171:../../Middlewares/Camera_Middleware/ISP_Library/isp/Src/isp_services.c ****   return (uint32_t) Val;
 2064              		.loc 1 171 3 view .LVU641
 172:../../Middlewares/Camera_Middleware/ISP_Library/isp/Src/isp_services.c **** }
 2065              		.loc 1 172 3 view .LVU642
 171:../../Middlewares/Camera_Middleware/ISP_Library/isp/Src/isp_services.c ****   return (uint32_t) Val;
 2066              		.loc 1 171 7 is_stmt 0 view .LVU643
 2067 005a 0646     		mov	r6, r0
 2068 005c 02FB0157 		mla	r7, r2, r1, r5
 2069 0060 56EADF17 		lsrl	r6, r7, #7
 2070              	.LBE111:
 2071              	.LBE114:
 2072              	.LBB115:
ARM GAS  C:\Users\Antonio\AppData\Local\Temp\ccF6VN3M.s 			page 60


 2073              	.LBB116:
 170:../../Middlewares/Camera_Middleware/ISP_Library/isp/Src/isp_services.c ****   Val = (Val * Multiplier * ISP_GAIN_PRECISION_FACTOR) / 128;
 2074              		.loc 1 170 21 view .LVU644
 2075 0064 9DF80410 		ldrb	r1, [sp, #4]	@ zero_extendqisi2
 2076              	.LBE116:
 2077              	.LBE115:
 2078              	.LBB118:
 2079              	.LBB112:
 172:../../Middlewares/Camera_Middleware/ISP_Library/isp/Src/isp_services.c **** }
 2080              		.loc 1 172 10 view .LVU645
 2081 0068 A660     		str	r6, [r4, #8]
 2082              	.LBE112:
 2083              	.LBE118:
 978:../../Middlewares/Camera_Middleware/ISP_Library/isp/Src/isp_services.c ****   pConfig->ispGainB = From_Shift_Multiplier(exposureConfig.ShiftBlue, exposureConfig.MultiplierBlue
 2084              		.loc 1 978 3 is_stmt 1 view .LVU646
 2085              	.LVL167:
 2086              	.LBB119:
 2087              	.LBI115:
 167:../../Middlewares/Camera_Middleware/ISP_Library/isp/Src/isp_services.c **** {
 2088              		.loc 1 167 17 view .LVU647
 2089              	.LBB117:
 170:../../Middlewares/Camera_Middleware/ISP_Library/isp/Src/isp_services.c ****   Val = (Val * Multiplier * ISP_GAIN_PRECISION_FACTOR) / 128;
 2090              		.loc 1 170 3 view .LVU648
 171:../../Middlewares/Camera_Middleware/ISP_Library/isp/Src/isp_services.c ****   return (uint32_t) Val;
 2091              		.loc 1 171 3 view .LVU649
 172:../../Middlewares/Camera_Middleware/ISP_Library/isp/Src/isp_services.c **** }
 2092              		.loc 1 172 3 view .LVU650
 170:../../Middlewares/Camera_Middleware/ISP_Library/isp/Src/isp_services.c ****   Val = (Val * Multiplier * ISP_GAIN_PRECISION_FACTOR) / 128;
 2093              		.loc 1 170 21 is_stmt 0 view .LVU651
 2094 006a 8B40     		lsls	r3, r3, r1
 171:../../Middlewares/Camera_Middleware/ISP_Library/isp/Src/isp_services.c ****   return (uint32_t) Val;
 2095              		.loc 1 171 27 view .LVU652
 2096 006c 9DF80510 		ldrb	r1, [sp, #5]	@ zero_extendqisi2
 2097 0070 83FB0135 		smull	r3, r5, r3, r1
 2098 0074 A3FB0236 		umull	r3, r6, r3, r2
 171:../../Middlewares/Camera_Middleware/ISP_Library/isp/Src/isp_services.c ****   return (uint32_t) Val;
 2099              		.loc 1 171 7 view .LVU653
 2100 0078 1846     		mov	r0, r3
 2101 007a 02FB0561 		mla	r1, r2, r5, r6
 2102 007e 50EADF11 		lsrl	r0, r1, #7
 172:../../Middlewares/Camera_Middleware/ISP_Library/isp/Src/isp_services.c **** }
 2103              		.loc 1 172 10 view .LVU654
 2104 0082 E060     		str	r0, [r4, #12]
 2105              	.LBE117:
 2106              	.LBE119:
 979:../../Middlewares/Camera_Middleware/ISP_Library/isp/Src/isp_services.c **** 
 980:../../Middlewares/Camera_Middleware/ISP_Library/isp/Src/isp_services.c ****   return ISP_OK;
 2107              		.loc 1 980 3 is_stmt 1 view .LVU655
 2108              		.loc 1 980 10 is_stmt 0 view .LVU656
 2109 0084 0020     		movs	r0, #0
 2110              	.L160:
 981:../../Middlewares/Camera_Middleware/ISP_Library/isp/Src/isp_services.c **** }
 2111              		.loc 1 981 1 view .LVU657
 2112 0086 03B0     		add	sp, sp, #12
 2113              		.cfi_remember_state
 2114              		.cfi_def_cfa_offset 20
 2115              		@ sp needed
ARM GAS  C:\Users\Antonio\AppData\Local\Temp\ccF6VN3M.s 			page 61


 2116 0088 F0BD     		pop	{r4, r5, r6, r7, pc}
 2117              	.LVL168:
 2118              	.L162:
 2119              		.cfi_restore_state
 970:../../Middlewares/Camera_Middleware/ISP_Library/isp/Src/isp_services.c ****   }
 2120              		.loc 1 970 12 view .LVU658
 2121 008a 5020     		movs	r0, #80
 2122              	.LVL169:
 970:../../Middlewares/Camera_Middleware/ISP_Library/isp/Src/isp_services.c ****   }
 2123              		.loc 1 970 12 view .LVU659
 2124 008c FBE7     		b	.L160
 2125              	.L164:
 2126 008e 00BF     		.align	2
 2127              	.L163:
 2128 0090 00E1F505 		.word	100000000
 2129              		.cfi_endproc
 2130              	.LFE862:
 2132              		.section	.text.ISP_SVC_ISP_SetColorConv,"ax",%progbits
 2133              		.align	1
 2134              		.global	ISP_SVC_ISP_SetColorConv
 2135              		.syntax unified
 2136              		.thumb
 2137              		.thumb_func
 2139              	ISP_SVC_ISP_SetColorConv:
 2140              	.LVL170:
 2141              	.LFB863:
 982:../../Middlewares/Camera_Middleware/ISP_Library/isp/Src/isp_services.c **** 
 983:../../Middlewares/Camera_Middleware/ISP_Library/isp/Src/isp_services.c **** /**
 984:../../Middlewares/Camera_Middleware/ISP_Library/isp/Src/isp_services.c ****   * @brief  ISP_SVC_ISP_SetColorConv
 985:../../Middlewares/Camera_Middleware/ISP_Library/isp/Src/isp_services.c ****   *         Set the ISP Color Conversion
 986:../../Middlewares/Camera_Middleware/ISP_Library/isp/Src/isp_services.c ****   * @param  hIsp: ISP device handle
 987:../../Middlewares/Camera_Middleware/ISP_Library/isp/Src/isp_services.c ****   * @param  pConfig: Pointer to the Color Conversion configuration
 988:../../Middlewares/Camera_Middleware/ISP_Library/isp/Src/isp_services.c ****   * @retval operation result
 989:../../Middlewares/Camera_Middleware/ISP_Library/isp/Src/isp_services.c ****   */
 990:../../Middlewares/Camera_Middleware/ISP_Library/isp/Src/isp_services.c **** ISP_StatusTypeDef ISP_SVC_ISP_SetColorConv(ISP_HandleTypeDef *hIsp, ISP_ColorConvTypeDef *pConfig)
 991:../../Middlewares/Camera_Middleware/ISP_Library/isp/Src/isp_services.c **** {
 2142              		.loc 1 991 1 is_stmt 1 view -0
 2143              		.cfi_startproc
 2144              		@ args = 0, pretend = 0, frame = 32
 2145              		@ frame_needed = 0, uses_anonymous_args = 0
 992:../../Middlewares/Camera_Middleware/ISP_Library/isp/Src/isp_services.c ****   HAL_StatusTypeDef halStatus;
 2146              		.loc 1 992 3 view .LVU661
 993:../../Middlewares/Camera_Middleware/ISP_Library/isp/Src/isp_services.c ****   DCMIPP_ColorConversionConfTypeDef colorConvConfig;
 2147              		.loc 1 993 3 view .LVU662
 994:../../Middlewares/Camera_Middleware/ISP_Library/isp/Src/isp_services.c ****   uint32_t i, j;
 2148              		.loc 1 994 3 view .LVU663
 995:../../Middlewares/Camera_Middleware/ISP_Library/isp/Src/isp_services.c **** 
 996:../../Middlewares/Camera_Middleware/ISP_Library/isp/Src/isp_services.c ****   memset(&colorConvConfig, 0, sizeof(colorConvConfig));
 2149              		.loc 1 996 3 view .LVU664
 991:../../Middlewares/Camera_Middleware/ISP_Library/isp/Src/isp_services.c ****   HAL_StatusTypeDef halStatus;
 2150              		.loc 1 991 1 is_stmt 0 view .LVU665
 2151 0000 70B5     		push	{r4, r5, r6, lr}
 2152              		.cfi_def_cfa_offset 16
 2153              		.cfi_offset 4, -16
 2154              		.cfi_offset 5, -12
 2155              		.cfi_offset 6, -8
 2156              		.cfi_offset 14, -4
ARM GAS  C:\Users\Antonio\AppData\Local\Temp\ccF6VN3M.s 			page 62


 2157 0002 0546     		mov	r5, r0
 2158 0004 88B0     		sub	sp, sp, #32
 2159              		.cfi_def_cfa_offset 48
 991:../../Middlewares/Camera_Middleware/ISP_Library/isp/Src/isp_services.c ****   HAL_StatusTypeDef halStatus;
 2160              		.loc 1 991 1 view .LVU666
 2161 0006 0C46     		mov	r4, r1
 2162              		.loc 1 996 3 view .LVU667
 2163 0008 1A22     		movs	r2, #26
 2164 000a 0021     		movs	r1, #0
 2165              	.LVL171:
 2166              		.loc 1 996 3 view .LVU668
 2167 000c 01A8     		add	r0, sp, #4
 2168              	.LVL172:
 2169              		.loc 1 996 3 view .LVU669
 2170 000e FFF7FEFF 		bl	memset
 2171              	.LVL173:
 997:../../Middlewares/Camera_Middleware/ISP_Library/isp/Src/isp_services.c **** 
 998:../../Middlewares/Camera_Middleware/ISP_Library/isp/Src/isp_services.c ****   /* Check handle validity */
 999:../../Middlewares/Camera_Middleware/ISP_Library/isp/Src/isp_services.c ****   if ((hIsp == NULL) || (pConfig == NULL))
 2172              		.loc 1 999 3 is_stmt 1 view .LVU670
 2173              		.loc 1 999 6 is_stmt 0 view .LVU671
 2174 0012 6DB1     		cbz	r5, .L178
 2175              		.loc 1 999 22 discriminator 1 view .LVU672
 2176 0014 64B1     		cbz	r4, .L178
 2177 0016 2346     		mov	r3, r4
1000:../../Middlewares/Camera_Middleware/ISP_Library/isp/Src/isp_services.c ****   {
1001:../../Middlewares/Camera_Middleware/ISP_Library/isp/Src/isp_services.c ****     return ISP_ERR_COLORCONV_EINVAL;
1002:../../Middlewares/Camera_Middleware/ISP_Library/isp/Src/isp_services.c ****   }
1003:../../Middlewares/Camera_Middleware/ISP_Library/isp/Src/isp_services.c **** 
1004:../../Middlewares/Camera_Middleware/ISP_Library/isp/Src/isp_services.c ****   for (i = 0; i < 3; i++)
1005:../../Middlewares/Camera_Middleware/ISP_Library/isp/Src/isp_services.c ****   {
1006:../../Middlewares/Camera_Middleware/ISP_Library/isp/Src/isp_services.c ****     for (j = 0; j < 3; j++)
1007:../../Middlewares/Camera_Middleware/ISP_Library/isp/Src/isp_services.c ****     {
1008:../../Middlewares/Camera_Middleware/ISP_Library/isp/Src/isp_services.c ****       if ((pConfig->coeff[i][j] > ISP_COLORCONV_MAX) || (pConfig->coeff[i][j] < -ISP_COLORCONV_MAX)
 2178              		.loc 1 1008 54 view .LVU673
 2179 0018 3A48     		ldr	r0, .L180
 2180              		.loc 1 1008 10 view .LVU674
 2181 001a 3B4A     		ldr	r2, .L180+4
 2182 001c 04F12406 		add	r6, r4, #36
 2183              	.L167:
 2184              	.LVL174:
1006:../../Middlewares/Camera_Middleware/ISP_Library/isp/Src/isp_services.c ****     {
 2185              		.loc 1 1006 19 is_stmt 1 discriminator 1 view .LVU675
 2186              		.loc 1 1008 7 view .LVU676
 2187              		.loc 1 1008 54 is_stmt 0 view .LVU677
 2188 0020 5968     		ldr	r1, [r3, #4]
 2189 0022 0144     		add	r1, r1, r0
 2190              		.loc 1 1008 10 view .LVU678
 2191 0024 9142     		cmp	r1, r2
 2192 0026 03D8     		bhi	.L178
1006:../../Middlewares/Camera_Middleware/ISP_Library/isp/Src/isp_services.c ****     {
 2193              		.loc 1 1006 25 is_stmt 1 discriminator 2 view .LVU679
 2194              	.LVL175:
1006:../../Middlewares/Camera_Middleware/ISP_Library/isp/Src/isp_services.c ****     {
 2195              		.loc 1 1006 19 discriminator 1 view .LVU680
 2196              		.loc 1 1008 7 view .LVU681
 2197              		.loc 1 1008 54 is_stmt 0 view .LVU682
ARM GAS  C:\Users\Antonio\AppData\Local\Temp\ccF6VN3M.s 			page 63


 2198 0028 9968     		ldr	r1, [r3, #8]
 2199 002a 0144     		add	r1, r1, r0
 2200              		.loc 1 1008 10 view .LVU683
 2201 002c 9142     		cmp	r1, r2
 2202 002e 01D9     		bls	.L179
 2203              	.LVL176:
 2204              	.L178:
1001:../../Middlewares/Camera_Middleware/ISP_Library/isp/Src/isp_services.c ****   }
 2205              		.loc 1 1001 12 view .LVU684
 2206 0030 5A20     		movs	r0, #90
 2207 0032 5FE0     		b	.L166
 2208              	.LVL177:
 2209              	.L179:
1006:../../Middlewares/Camera_Middleware/ISP_Library/isp/Src/isp_services.c ****     {
 2210              		.loc 1 1006 25 is_stmt 1 discriminator 2 view .LVU685
1006:../../Middlewares/Camera_Middleware/ISP_Library/isp/Src/isp_services.c ****     {
 2211              		.loc 1 1006 19 discriminator 1 view .LVU686
 2212              		.loc 1 1008 7 view .LVU687
 2213              		.loc 1 1008 54 is_stmt 0 view .LVU688
 2214 0034 D968     		ldr	r1, [r3, #12]
 2215 0036 0144     		add	r1, r1, r0
 2216              		.loc 1 1008 10 view .LVU689
 2217 0038 9142     		cmp	r1, r2
 2218 003a F9D8     		bhi	.L178
1006:../../Middlewares/Camera_Middleware/ISP_Library/isp/Src/isp_services.c ****     {
 2219              		.loc 1 1006 25 is_stmt 1 discriminator 2 view .LVU690
 2220              	.LVL178:
1006:../../Middlewares/Camera_Middleware/ISP_Library/isp/Src/isp_services.c ****     {
 2221              		.loc 1 1006 19 discriminator 1 view .LVU691
1004:../../Middlewares/Camera_Middleware/ISP_Library/isp/Src/isp_services.c ****   {
 2222              		.loc 1 1004 23 discriminator 2 view .LVU692
1004:../../Middlewares/Camera_Middleware/ISP_Library/isp/Src/isp_services.c ****   {
 2223              		.loc 1 1004 17 discriminator 1 view .LVU693
 2224 003c 0C33     		adds	r3, r3, #12
 2225 003e B342     		cmp	r3, r6
 2226 0040 EED1     		bne	.L167
1009:../../Middlewares/Camera_Middleware/ISP_Library/isp/Src/isp_services.c ****       {
1010:../../Middlewares/Camera_Middleware/ISP_Library/isp/Src/isp_services.c ****         return ISP_ERR_COLORCONV_EINVAL;
1011:../../Middlewares/Camera_Middleware/ISP_Library/isp/Src/isp_services.c ****       }
1012:../../Middlewares/Camera_Middleware/ISP_Library/isp/Src/isp_services.c ****     }
1013:../../Middlewares/Camera_Middleware/ISP_Library/isp/Src/isp_services.c ****   }
1014:../../Middlewares/Camera_Middleware/ISP_Library/isp/Src/isp_services.c **** 
1015:../../Middlewares/Camera_Middleware/ISP_Library/isp/Src/isp_services.c ****   if (pConfig->enable == 0)
 2227              		.loc 1 1015 3 view .LVU694
 2228              		.loc 1 1015 6 is_stmt 0 view .LVU695
 2229 0042 2378     		ldrb	r3, [r4]	@ zero_extendqisi2
1016:../../Middlewares/Camera_Middleware/ISP_Library/isp/Src/isp_services.c ****   {
1017:../../Middlewares/Camera_Middleware/ISP_Library/isp/Src/isp_services.c ****     halStatus = HAL_DCMIPP_PIPE_DisableISPColorConversion(hIsp->hDcmipp, DCMIPP_PIPE1);
 2230              		.loc 1 1017 63 view .LVU696
 2231 0044 2E68     		ldr	r6, [r5]
1015:../../Middlewares/Camera_Middleware/ISP_Library/isp/Src/isp_services.c ****   {
 2232              		.loc 1 1015 6 view .LVU697
 2233 0046 33B9     		cbnz	r3, .L170
 2234              		.loc 1 1017 5 is_stmt 1 view .LVU698
 2235              		.loc 1 1017 17 is_stmt 0 view .LVU699
 2236 0048 0121     		movs	r1, #1
 2237 004a 3046     		mov	r0, r6
ARM GAS  C:\Users\Antonio\AppData\Local\Temp\ccF6VN3M.s 			page 64


 2238 004c FFF7FEFF 		bl	HAL_DCMIPP_PIPE_DisableISPColorConversion
 2239              	.LVL179:
 2240              	.L171:
1018:../../Middlewares/Camera_Middleware/ISP_Library/isp/Src/isp_services.c ****   }
1019:../../Middlewares/Camera_Middleware/ISP_Library/isp/Src/isp_services.c ****   else
1020:../../Middlewares/Camera_Middleware/ISP_Library/isp/Src/isp_services.c ****   {
1021:../../Middlewares/Camera_Middleware/ISP_Library/isp/Src/isp_services.c ****     colorConvConfig.RR = To_CConv_Reg(pConfig->coeff[0][0]);
1022:../../Middlewares/Camera_Middleware/ISP_Library/isp/Src/isp_services.c ****     colorConvConfig.RG = To_CConv_Reg(pConfig->coeff[0][1]);
1023:../../Middlewares/Camera_Middleware/ISP_Library/isp/Src/isp_services.c ****     colorConvConfig.RB = To_CConv_Reg(pConfig->coeff[0][2]);
1024:../../Middlewares/Camera_Middleware/ISP_Library/isp/Src/isp_services.c ****     colorConvConfig.GR = To_CConv_Reg(pConfig->coeff[1][0]);
1025:../../Middlewares/Camera_Middleware/ISP_Library/isp/Src/isp_services.c ****     colorConvConfig.GG = To_CConv_Reg(pConfig->coeff[1][1]);
1026:../../Middlewares/Camera_Middleware/ISP_Library/isp/Src/isp_services.c ****     colorConvConfig.GB = To_CConv_Reg(pConfig->coeff[1][2]);
1027:../../Middlewares/Camera_Middleware/ISP_Library/isp/Src/isp_services.c ****     colorConvConfig.BR = To_CConv_Reg(pConfig->coeff[2][0]);
1028:../../Middlewares/Camera_Middleware/ISP_Library/isp/Src/isp_services.c ****     colorConvConfig.BG = To_CConv_Reg(pConfig->coeff[2][1]);
1029:../../Middlewares/Camera_Middleware/ISP_Library/isp/Src/isp_services.c ****     colorConvConfig.BB = To_CConv_Reg(pConfig->coeff[2][2]);
1030:../../Middlewares/Camera_Middleware/ISP_Library/isp/Src/isp_services.c ****     halStatus = HAL_DCMIPP_PIPE_SetISPColorConversionConfig(hIsp->hDcmipp, DCMIPP_PIPE1, &colorConv
1031:../../Middlewares/Camera_Middleware/ISP_Library/isp/Src/isp_services.c **** 
1032:../../Middlewares/Camera_Middleware/ISP_Library/isp/Src/isp_services.c ****     if (halStatus == HAL_OK)
1033:../../Middlewares/Camera_Middleware/ISP_Library/isp/Src/isp_services.c ****     {
1034:../../Middlewares/Camera_Middleware/ISP_Library/isp/Src/isp_services.c ****       halStatus = HAL_DCMIPP_PIPE_EnableISPColorConversion(hIsp->hDcmipp, DCMIPP_PIPE1);
1035:../../Middlewares/Camera_Middleware/ISP_Library/isp/Src/isp_services.c ****     }
1036:../../Middlewares/Camera_Middleware/ISP_Library/isp/Src/isp_services.c ****   }
1037:../../Middlewares/Camera_Middleware/ISP_Library/isp/Src/isp_services.c **** 
1038:../../Middlewares/Camera_Middleware/ISP_Library/isp/Src/isp_services.c ****   if (halStatus != HAL_OK)
 2241              		.loc 1 1038 3 is_stmt 1 view .LVU700
 2242              		.loc 1 1038 6 is_stmt 0 view .LVU701
 2243 0050 0028     		cmp	r0, #0
 2244 0052 4FD0     		beq	.L166
 2245              		.loc 1 1038 6 view .LVU702
 2246 0054 4DE0     		b	.L173
 2247              	.LVL180:
 2248              	.L170:
1021:../../Middlewares/Camera_Middleware/ISP_Library/isp/Src/isp_services.c ****     colorConvConfig.RG = To_CConv_Reg(pConfig->coeff[0][1]);
 2249              		.loc 1 1021 5 is_stmt 1 view .LVU703
 2250              	.LBB120:
 2251              	.LBI120:
 175:../../Middlewares/Camera_Middleware/ISP_Library/isp/Src/isp_services.c **** {
 2252              		.loc 1 175 16 view .LVU704
 2253              	.LBB121:
 178:../../Middlewares/Camera_Middleware/ISP_Library/isp/Src/isp_services.c **** 
 2254              		.loc 1 178 3 view .LVU705
 180:../../Middlewares/Camera_Middleware/ISP_Library/isp/Src/isp_services.c **** 
 2255              		.loc 1 180 3 view .LVU706
 182:../../Middlewares/Camera_Middleware/ISP_Library/isp/Src/isp_services.c **** }
 2256              		.loc 1 182 3 view .LVU707
 180:../../Middlewares/Camera_Middleware/ISP_Library/isp/Src/isp_services.c **** 
 2257              		.loc 1 180 7 is_stmt 0 view .LVU708
 2258 0056 6068     		ldr	r0, [r4, #4]
 2259 0058 0023     		movs	r3, #0
 2260 005a 2C4A     		ldr	r2, .L180+8
 2261 005c C117     		asrs	r1, r0, #31
 2262 005e FFF7FEFF 		bl	__aeabi_ldivmod
 2263              	.LVL181:
 182:../../Middlewares/Camera_Middleware/ISP_Library/isp/Src/isp_services.c **** }
 2264              		.loc 1 182 10 view .LVU709
 2265 0062 ADF80600 		strh	r0, [sp, #6]	@ movhi
 2266              	.LBE121:
ARM GAS  C:\Users\Antonio\AppData\Local\Temp\ccF6VN3M.s 			page 65


 2267              	.LBE120:
1022:../../Middlewares/Camera_Middleware/ISP_Library/isp/Src/isp_services.c ****     colorConvConfig.RB = To_CConv_Reg(pConfig->coeff[0][2]);
 2268              		.loc 1 1022 5 is_stmt 1 view .LVU710
 2269              	.LVL182:
 2270              	.LBB122:
 2271              	.LBI122:
 175:../../Middlewares/Camera_Middleware/ISP_Library/isp/Src/isp_services.c **** {
 2272              		.loc 1 175 16 view .LVU711
 2273              	.LBB123:
 178:../../Middlewares/Camera_Middleware/ISP_Library/isp/Src/isp_services.c **** 
 2274              		.loc 1 178 3 view .LVU712
 180:../../Middlewares/Camera_Middleware/ISP_Library/isp/Src/isp_services.c **** 
 2275              		.loc 1 180 3 view .LVU713
 182:../../Middlewares/Camera_Middleware/ISP_Library/isp/Src/isp_services.c **** }
 2276              		.loc 1 182 3 view .LVU714
 180:../../Middlewares/Camera_Middleware/ISP_Library/isp/Src/isp_services.c **** 
 2277              		.loc 1 180 7 is_stmt 0 view .LVU715
 2278 0066 A068     		ldr	r0, [r4, #8]
 2279 0068 0023     		movs	r3, #0
 2280 006a 284A     		ldr	r2, .L180+8
 2281 006c C117     		asrs	r1, r0, #31
 2282 006e FFF7FEFF 		bl	__aeabi_ldivmod
 2283              	.LVL183:
 182:../../Middlewares/Camera_Middleware/ISP_Library/isp/Src/isp_services.c **** }
 2284              		.loc 1 182 10 view .LVU716
 2285 0072 ADF80800 		strh	r0, [sp, #8]	@ movhi
 2286              	.LBE123:
 2287              	.LBE122:
1023:../../Middlewares/Camera_Middleware/ISP_Library/isp/Src/isp_services.c ****     colorConvConfig.GR = To_CConv_Reg(pConfig->coeff[1][0]);
 2288              		.loc 1 1023 5 is_stmt 1 view .LVU717
 2289              	.LVL184:
 2290              	.LBB124:
 2291              	.LBI124:
 175:../../Middlewares/Camera_Middleware/ISP_Library/isp/Src/isp_services.c **** {
 2292              		.loc 1 175 16 view .LVU718
 2293              	.LBB125:
 178:../../Middlewares/Camera_Middleware/ISP_Library/isp/Src/isp_services.c **** 
 2294              		.loc 1 178 3 view .LVU719
 180:../../Middlewares/Camera_Middleware/ISP_Library/isp/Src/isp_services.c **** 
 2295              		.loc 1 180 3 view .LVU720
 182:../../Middlewares/Camera_Middleware/ISP_Library/isp/Src/isp_services.c **** }
 2296              		.loc 1 182 3 view .LVU721
 180:../../Middlewares/Camera_Middleware/ISP_Library/isp/Src/isp_services.c **** 
 2297              		.loc 1 180 7 is_stmt 0 view .LVU722
 2298 0076 E068     		ldr	r0, [r4, #12]
 2299 0078 0023     		movs	r3, #0
 2300 007a 244A     		ldr	r2, .L180+8
 2301 007c C117     		asrs	r1, r0, #31
 2302 007e FFF7FEFF 		bl	__aeabi_ldivmod
 2303              	.LVL185:
 182:../../Middlewares/Camera_Middleware/ISP_Library/isp/Src/isp_services.c **** }
 2304              		.loc 1 182 10 view .LVU723
 2305 0082 ADF80A00 		strh	r0, [sp, #10]	@ movhi
 2306              	.LBE125:
 2307              	.LBE124:
1024:../../Middlewares/Camera_Middleware/ISP_Library/isp/Src/isp_services.c ****     colorConvConfig.GG = To_CConv_Reg(pConfig->coeff[1][1]);
 2308              		.loc 1 1024 5 is_stmt 1 view .LVU724
ARM GAS  C:\Users\Antonio\AppData\Local\Temp\ccF6VN3M.s 			page 66


 2309              	.LVL186:
 2310              	.LBB126:
 2311              	.LBI126:
 175:../../Middlewares/Camera_Middleware/ISP_Library/isp/Src/isp_services.c **** {
 2312              		.loc 1 175 16 view .LVU725
 2313              	.LBB127:
 178:../../Middlewares/Camera_Middleware/ISP_Library/isp/Src/isp_services.c **** 
 2314              		.loc 1 178 3 view .LVU726
 180:../../Middlewares/Camera_Middleware/ISP_Library/isp/Src/isp_services.c **** 
 2315              		.loc 1 180 3 view .LVU727
 182:../../Middlewares/Camera_Middleware/ISP_Library/isp/Src/isp_services.c **** }
 2316              		.loc 1 182 3 view .LVU728
 180:../../Middlewares/Camera_Middleware/ISP_Library/isp/Src/isp_services.c **** 
 2317              		.loc 1 180 7 is_stmt 0 view .LVU729
 2318 0086 2069     		ldr	r0, [r4, #16]
 2319 0088 0023     		movs	r3, #0
 2320 008a 204A     		ldr	r2, .L180+8
 2321 008c C117     		asrs	r1, r0, #31
 2322 008e FFF7FEFF 		bl	__aeabi_ldivmod
 2323              	.LVL187:
 182:../../Middlewares/Camera_Middleware/ISP_Library/isp/Src/isp_services.c **** }
 2324              		.loc 1 182 10 view .LVU730
 2325 0092 ADF80E00 		strh	r0, [sp, #14]	@ movhi
 2326              	.LBE127:
 2327              	.LBE126:
1025:../../Middlewares/Camera_Middleware/ISP_Library/isp/Src/isp_services.c ****     colorConvConfig.GB = To_CConv_Reg(pConfig->coeff[1][2]);
 2328              		.loc 1 1025 5 is_stmt 1 view .LVU731
 2329              	.LVL188:
 2330              	.LBB128:
 2331              	.LBI128:
 175:../../Middlewares/Camera_Middleware/ISP_Library/isp/Src/isp_services.c **** {
 2332              		.loc 1 175 16 view .LVU732
 2333              	.LBB129:
 178:../../Middlewares/Camera_Middleware/ISP_Library/isp/Src/isp_services.c **** 
 2334              		.loc 1 178 3 view .LVU733
 180:../../Middlewares/Camera_Middleware/ISP_Library/isp/Src/isp_services.c **** 
 2335              		.loc 1 180 3 view .LVU734
 182:../../Middlewares/Camera_Middleware/ISP_Library/isp/Src/isp_services.c **** }
 2336              		.loc 1 182 3 view .LVU735
 180:../../Middlewares/Camera_Middleware/ISP_Library/isp/Src/isp_services.c **** 
 2337              		.loc 1 180 7 is_stmt 0 view .LVU736
 2338 0096 6069     		ldr	r0, [r4, #20]
 2339 0098 0023     		movs	r3, #0
 2340 009a 1C4A     		ldr	r2, .L180+8
 2341 009c C117     		asrs	r1, r0, #31
 2342 009e FFF7FEFF 		bl	__aeabi_ldivmod
 2343              	.LVL189:
 182:../../Middlewares/Camera_Middleware/ISP_Library/isp/Src/isp_services.c **** }
 2344              		.loc 1 182 10 view .LVU737
 2345 00a2 ADF81000 		strh	r0, [sp, #16]	@ movhi
 2346              	.LBE129:
 2347              	.LBE128:
1026:../../Middlewares/Camera_Middleware/ISP_Library/isp/Src/isp_services.c ****     colorConvConfig.BR = To_CConv_Reg(pConfig->coeff[2][0]);
 2348              		.loc 1 1026 5 is_stmt 1 view .LVU738
 2349              	.LVL190:
 2350              	.LBB130:
 2351              	.LBI130:
ARM GAS  C:\Users\Antonio\AppData\Local\Temp\ccF6VN3M.s 			page 67


 175:../../Middlewares/Camera_Middleware/ISP_Library/isp/Src/isp_services.c **** {
 2352              		.loc 1 175 16 view .LVU739
 2353              	.LBB131:
 178:../../Middlewares/Camera_Middleware/ISP_Library/isp/Src/isp_services.c **** 
 2354              		.loc 1 178 3 view .LVU740
 180:../../Middlewares/Camera_Middleware/ISP_Library/isp/Src/isp_services.c **** 
 2355              		.loc 1 180 3 view .LVU741
 182:../../Middlewares/Camera_Middleware/ISP_Library/isp/Src/isp_services.c **** }
 2356              		.loc 1 182 3 view .LVU742
 180:../../Middlewares/Camera_Middleware/ISP_Library/isp/Src/isp_services.c **** 
 2357              		.loc 1 180 7 is_stmt 0 view .LVU743
 2358 00a6 A069     		ldr	r0, [r4, #24]
 2359 00a8 0023     		movs	r3, #0
 2360 00aa 184A     		ldr	r2, .L180+8
 2361 00ac C117     		asrs	r1, r0, #31
 2362 00ae FFF7FEFF 		bl	__aeabi_ldivmod
 2363              	.LVL191:
 182:../../Middlewares/Camera_Middleware/ISP_Library/isp/Src/isp_services.c **** }
 2364              		.loc 1 182 10 view .LVU744
 2365 00b2 ADF81200 		strh	r0, [sp, #18]	@ movhi
 2366              	.LBE131:
 2367              	.LBE130:
1027:../../Middlewares/Camera_Middleware/ISP_Library/isp/Src/isp_services.c ****     colorConvConfig.BG = To_CConv_Reg(pConfig->coeff[2][1]);
 2368              		.loc 1 1027 5 is_stmt 1 view .LVU745
 2369              	.LVL192:
 2370              	.LBB132:
 2371              	.LBI132:
 175:../../Middlewares/Camera_Middleware/ISP_Library/isp/Src/isp_services.c **** {
 2372              		.loc 1 175 16 view .LVU746
 2373              	.LBB133:
 178:../../Middlewares/Camera_Middleware/ISP_Library/isp/Src/isp_services.c **** 
 2374              		.loc 1 178 3 view .LVU747
 180:../../Middlewares/Camera_Middleware/ISP_Library/isp/Src/isp_services.c **** 
 2375              		.loc 1 180 3 view .LVU748
 182:../../Middlewares/Camera_Middleware/ISP_Library/isp/Src/isp_services.c **** }
 2376              		.loc 1 182 3 view .LVU749
 180:../../Middlewares/Camera_Middleware/ISP_Library/isp/Src/isp_services.c **** 
 2377              		.loc 1 180 7 is_stmt 0 view .LVU750
 2378 00b6 E069     		ldr	r0, [r4, #28]
 2379 00b8 0023     		movs	r3, #0
 2380 00ba 144A     		ldr	r2, .L180+8
 2381 00bc C117     		asrs	r1, r0, #31
 2382 00be FFF7FEFF 		bl	__aeabi_ldivmod
 2383              	.LVL193:
 182:../../Middlewares/Camera_Middleware/ISP_Library/isp/Src/isp_services.c **** }
 2384              		.loc 1 182 10 view .LVU751
 2385 00c2 ADF81600 		strh	r0, [sp, #22]	@ movhi
 2386              	.LBE133:
 2387              	.LBE132:
1028:../../Middlewares/Camera_Middleware/ISP_Library/isp/Src/isp_services.c ****     colorConvConfig.BB = To_CConv_Reg(pConfig->coeff[2][2]);
 2388              		.loc 1 1028 5 is_stmt 1 view .LVU752
 2389              	.LVL194:
 2390              	.LBB134:
 2391              	.LBI134:
 175:../../Middlewares/Camera_Middleware/ISP_Library/isp/Src/isp_services.c **** {
 2392              		.loc 1 175 16 view .LVU753
 2393              	.LBB135:
ARM GAS  C:\Users\Antonio\AppData\Local\Temp\ccF6VN3M.s 			page 68


 178:../../Middlewares/Camera_Middleware/ISP_Library/isp/Src/isp_services.c **** 
 2394              		.loc 1 178 3 view .LVU754
 180:../../Middlewares/Camera_Middleware/ISP_Library/isp/Src/isp_services.c **** 
 2395              		.loc 1 180 3 view .LVU755
 182:../../Middlewares/Camera_Middleware/ISP_Library/isp/Src/isp_services.c **** }
 2396              		.loc 1 182 3 view .LVU756
 180:../../Middlewares/Camera_Middleware/ISP_Library/isp/Src/isp_services.c **** 
 2397              		.loc 1 180 7 is_stmt 0 view .LVU757
 2398 00c6 206A     		ldr	r0, [r4, #32]
 2399 00c8 0023     		movs	r3, #0
 2400 00ca 104A     		ldr	r2, .L180+8
 2401 00cc C117     		asrs	r1, r0, #31
 2402 00ce FFF7FEFF 		bl	__aeabi_ldivmod
 2403              	.LVL195:
 182:../../Middlewares/Camera_Middleware/ISP_Library/isp/Src/isp_services.c **** }
 2404              		.loc 1 182 10 view .LVU758
 2405 00d2 ADF81800 		strh	r0, [sp, #24]	@ movhi
 2406              	.LBE135:
 2407              	.LBE134:
1029:../../Middlewares/Camera_Middleware/ISP_Library/isp/Src/isp_services.c ****     halStatus = HAL_DCMIPP_PIPE_SetISPColorConversionConfig(hIsp->hDcmipp, DCMIPP_PIPE1, &colorConv
 2408              		.loc 1 1029 5 is_stmt 1 view .LVU759
 2409              	.LVL196:
 2410              	.LBB136:
 2411              	.LBI136:
 175:../../Middlewares/Camera_Middleware/ISP_Library/isp/Src/isp_services.c **** {
 2412              		.loc 1 175 16 view .LVU760
 2413              	.LBB137:
 178:../../Middlewares/Camera_Middleware/ISP_Library/isp/Src/isp_services.c **** 
 2414              		.loc 1 178 3 view .LVU761
 178:../../Middlewares/Camera_Middleware/ISP_Library/isp/Src/isp_services.c **** 
 2415              		.loc 1 178 11 is_stmt 0 view .LVU762
 2416 00d6 606A     		ldr	r0, [r4, #36]
 2417              	.LVL197:
 180:../../Middlewares/Camera_Middleware/ISP_Library/isp/Src/isp_services.c **** 
 2418              		.loc 1 180 3 is_stmt 1 view .LVU763
 182:../../Middlewares/Camera_Middleware/ISP_Library/isp/Src/isp_services.c **** }
 2419              		.loc 1 182 3 view .LVU764
 180:../../Middlewares/Camera_Middleware/ISP_Library/isp/Src/isp_services.c **** 
 2420              		.loc 1 180 7 is_stmt 0 view .LVU765
 2421 00d8 0C4A     		ldr	r2, .L180+8
 2422 00da 0023     		movs	r3, #0
 2423 00dc C117     		asrs	r1, r0, #31
 2424 00de FFF7FEFF 		bl	__aeabi_ldivmod
 2425              	.LVL198:
 2426              	.LBE137:
 2427              	.LBE136:
1030:../../Middlewares/Camera_Middleware/ISP_Library/isp/Src/isp_services.c **** 
 2428              		.loc 1 1030 17 view .LVU766
 2429 00e2 0121     		movs	r1, #1
 2430              	.LBB139:
 2431              	.LBB138:
 182:../../Middlewares/Camera_Middleware/ISP_Library/isp/Src/isp_services.c **** }
 2432              		.loc 1 182 10 view .LVU767
 2433 00e4 ADF81A00 		strh	r0, [sp, #26]	@ movhi
 2434              	.LBE138:
 2435              	.LBE139:
1030:../../Middlewares/Camera_Middleware/ISP_Library/isp/Src/isp_services.c **** 
ARM GAS  C:\Users\Antonio\AppData\Local\Temp\ccF6VN3M.s 			page 69


 2436              		.loc 1 1030 5 is_stmt 1 view .LVU768
1030:../../Middlewares/Camera_Middleware/ISP_Library/isp/Src/isp_services.c **** 
 2437              		.loc 1 1030 17 is_stmt 0 view .LVU769
 2438 00e8 01AA     		add	r2, sp, #4
 2439 00ea 3046     		mov	r0, r6
 2440 00ec FFF7FEFF 		bl	HAL_DCMIPP_PIPE_SetISPColorConversionConfig
 2441              	.LVL199:
1032:../../Middlewares/Camera_Middleware/ISP_Library/isp/Src/isp_services.c ****     {
 2442              		.loc 1 1032 5 is_stmt 1 view .LVU770
1032:../../Middlewares/Camera_Middleware/ISP_Library/isp/Src/isp_services.c ****     {
 2443              		.loc 1 1032 8 is_stmt 0 view .LVU771
 2444 00f0 10B1     		cbz	r0, .L172
 2445              	.L173:
1039:../../Middlewares/Camera_Middleware/ISP_Library/isp/Src/isp_services.c ****   {
1040:../../Middlewares/Camera_Middleware/ISP_Library/isp/Src/isp_services.c ****     return ISP_ERR_COLORCONV_HAL;
 2446              		.loc 1 1040 12 view .LVU772
 2447 00f2 5B20     		movs	r0, #91
 2448              	.LVL200:
 2449              	.L166:
1041:../../Middlewares/Camera_Middleware/ISP_Library/isp/Src/isp_services.c ****   }
1042:../../Middlewares/Camera_Middleware/ISP_Library/isp/Src/isp_services.c **** 
1043:../../Middlewares/Camera_Middleware/ISP_Library/isp/Src/isp_services.c ****   return ISP_OK;
1044:../../Middlewares/Camera_Middleware/ISP_Library/isp/Src/isp_services.c **** }
 2450              		.loc 1 1044 1 view .LVU773
 2451 00f4 08B0     		add	sp, sp, #32
 2452              		.cfi_remember_state
 2453              		.cfi_def_cfa_offset 16
 2454              		@ sp needed
 2455 00f6 70BD     		pop	{r4, r5, r6, pc}
 2456              	.LVL201:
 2457              	.L172:
 2458              		.cfi_restore_state
1034:../../Middlewares/Camera_Middleware/ISP_Library/isp/Src/isp_services.c ****     }
 2459              		.loc 1 1034 7 is_stmt 1 view .LVU774
1034:../../Middlewares/Camera_Middleware/ISP_Library/isp/Src/isp_services.c ****     }
 2460              		.loc 1 1034 19 is_stmt 0 view .LVU775
 2461 00f8 0121     		movs	r1, #1
 2462 00fa 2868     		ldr	r0, [r5]
 2463              	.LVL202:
1034:../../Middlewares/Camera_Middleware/ISP_Library/isp/Src/isp_services.c ****     }
 2464              		.loc 1 1034 19 view .LVU776
 2465 00fc FFF7FEFF 		bl	HAL_DCMIPP_PIPE_EnableISPColorConversion
 2466              	.LVL203:
1034:../../Middlewares/Camera_Middleware/ISP_Library/isp/Src/isp_services.c ****     }
 2467              		.loc 1 1034 19 view .LVU777
 2468 0100 A6E7     		b	.L171
 2469              	.L181:
 2470 0102 00BF     		.align	2
 2471              	.L180:
 2472 0104 C041C817 		.word	399000000
 2473 0108 8083902F 		.word	798000000
 2474 010c E1F50500 		.word	390625
 2475              		.cfi_endproc
 2476              	.LFE863:
 2478              		.section	.text.ISP_SVC_ISP_GetColorConv,"ax",%progbits
 2479              		.align	1
 2480              		.global	ISP_SVC_ISP_GetColorConv
ARM GAS  C:\Users\Antonio\AppData\Local\Temp\ccF6VN3M.s 			page 70


 2481              		.syntax unified
 2482              		.thumb
 2483              		.thumb_func
 2485              	ISP_SVC_ISP_GetColorConv:
 2486              	.LVL204:
 2487              	.LFB864:
1045:../../Middlewares/Camera_Middleware/ISP_Library/isp/Src/isp_services.c **** 
1046:../../Middlewares/Camera_Middleware/ISP_Library/isp/Src/isp_services.c **** /**
1047:../../Middlewares/Camera_Middleware/ISP_Library/isp/Src/isp_services.c ****   * @brief  ISP_SVC_ISP_GetColorConv
1048:../../Middlewares/Camera_Middleware/ISP_Library/isp/Src/isp_services.c ****   *         Get the ISP Color Conversion
1049:../../Middlewares/Camera_Middleware/ISP_Library/isp/Src/isp_services.c ****   * @param  hIsp: ISP device handle
1050:../../Middlewares/Camera_Middleware/ISP_Library/isp/Src/isp_services.c ****   * @param  pConfig: Pointer to the Color Conversion configuration
1051:../../Middlewares/Camera_Middleware/ISP_Library/isp/Src/isp_services.c ****   * @retval operation result
1052:../../Middlewares/Camera_Middleware/ISP_Library/isp/Src/isp_services.c ****   */
1053:../../Middlewares/Camera_Middleware/ISP_Library/isp/Src/isp_services.c **** ISP_StatusTypeDef ISP_SVC_ISP_GetColorConv(ISP_HandleTypeDef *hIsp, ISP_ColorConvTypeDef *pConfig)
1054:../../Middlewares/Camera_Middleware/ISP_Library/isp/Src/isp_services.c **** {
 2488              		.loc 1 1054 1 is_stmt 1 view -0
 2489              		.cfi_startproc
 2490              		@ args = 0, pretend = 0, frame = 32
 2491              		@ frame_needed = 0, uses_anonymous_args = 0
1055:../../Middlewares/Camera_Middleware/ISP_Library/isp/Src/isp_services.c ****   DCMIPP_ColorConversionConfTypeDef colorConvConfig;
 2492              		.loc 1 1055 3 view .LVU779
1056:../../Middlewares/Camera_Middleware/ISP_Library/isp/Src/isp_services.c **** 
1057:../../Middlewares/Camera_Middleware/ISP_Library/isp/Src/isp_services.c ****   /* Check handle validity */
1058:../../Middlewares/Camera_Middleware/ISP_Library/isp/Src/isp_services.c ****   if ((hIsp == NULL) || (pConfig == NULL))
 2493              		.loc 1 1058 3 view .LVU780
1054:../../Middlewares/Camera_Middleware/ISP_Library/isp/Src/isp_services.c ****   DCMIPP_ColorConversionConfTypeDef colorConvConfig;
 2494              		.loc 1 1054 1 is_stmt 0 view .LVU781
 2495 0000 30B5     		push	{r4, r5, lr}
 2496              		.cfi_def_cfa_offset 12
 2497              		.cfi_offset 4, -12
 2498              		.cfi_offset 5, -8
 2499              		.cfi_offset 14, -4
 2500 0002 0C46     		mov	r4, r1
 2501              		.loc 1 1058 6 view .LVU782
 2502 0004 0546     		mov	r5, r0
1054:../../Middlewares/Camera_Middleware/ISP_Library/isp/Src/isp_services.c ****   DCMIPP_ColorConversionConfTypeDef colorConvConfig;
 2503              		.loc 1 1054 1 view .LVU783
 2504 0006 89B0     		sub	sp, sp, #36
 2505              		.cfi_def_cfa_offset 48
 2506              		.loc 1 1058 6 view .LVU784
 2507 0008 0028     		cmp	r0, #0
 2508 000a 3CD0     		beq	.L185
 2509              		.loc 1 1058 22 discriminator 1 view .LVU785
 2510 000c 0029     		cmp	r1, #0
 2511 000e 3AD0     		beq	.L185
1059:../../Middlewares/Camera_Middleware/ISP_Library/isp/Src/isp_services.c ****   {
1060:../../Middlewares/Camera_Middleware/ISP_Library/isp/Src/isp_services.c ****     return ISP_ERR_COLORCONV_EINVAL;
1061:../../Middlewares/Camera_Middleware/ISP_Library/isp/Src/isp_services.c ****   }
1062:../../Middlewares/Camera_Middleware/ISP_Library/isp/Src/isp_services.c **** 
1063:../../Middlewares/Camera_Middleware/ISP_Library/isp/Src/isp_services.c ****   pConfig->enable = HAL_DCMIPP_PIPE_IsEnabledISPColorConversion(hIsp->hDcmipp, DCMIPP_PIPE1);
 2512              		.loc 1 1063 3 is_stmt 1 view .LVU786
 2513              		.loc 1 1063 21 is_stmt 0 view .LVU787
 2514 0010 0121     		movs	r1, #1
 2515              	.LVL205:
 2516              		.loc 1 1063 21 view .LVU788
 2517 0012 0068     		ldr	r0, [r0]
ARM GAS  C:\Users\Antonio\AppData\Local\Temp\ccF6VN3M.s 			page 71


 2518              	.LVL206:
 2519              		.loc 1 1063 21 view .LVU789
 2520 0014 FFF7FEFF 		bl	HAL_DCMIPP_PIPE_IsEnabledISPColorConversion
 2521              	.LVL207:
 2522              		.loc 1 1063 19 discriminator 1 view .LVU790
 2523 0018 2070     		strb	r0, [r4]
1064:../../Middlewares/Camera_Middleware/ISP_Library/isp/Src/isp_services.c **** 
1065:../../Middlewares/Camera_Middleware/ISP_Library/isp/Src/isp_services.c ****   HAL_DCMIPP_PIPE_GetISPColorConversionConfig(hIsp->hDcmipp, DCMIPP_PIPE1, &colorConvConfig);
 2524              		.loc 1 1065 3 is_stmt 1 view .LVU791
 2525 001a 0121     		movs	r1, #1
 2526 001c 2868     		ldr	r0, [r5]
 2527 001e 01AA     		add	r2, sp, #4
 2528 0020 FFF7FEFF 		bl	HAL_DCMIPP_PIPE_GetISPColorConversionConfig
 2529              	.LVL208:
1066:../../Middlewares/Camera_Middleware/ISP_Library/isp/Src/isp_services.c **** 
1067:../../Middlewares/Camera_Middleware/ISP_Library/isp/Src/isp_services.c ****   pConfig->coeff[0][0] = From_CConv_Reg(colorConvConfig.RR);
 2530              		.loc 1 1067 3 view .LVU792
 2531              	.LBB140:
 2532              	.LBI140:
 185:../../Middlewares/Camera_Middleware/ISP_Library/isp/Src/isp_services.c **** {
 2533              		.loc 1 185 16 view .LVU793
 2534              	.LBB141:
 188:../../Middlewares/Camera_Middleware/ISP_Library/isp/Src/isp_services.c **** 
 2535              		.loc 1 188 3 view .LVU794
 190:../../Middlewares/Camera_Middleware/ISP_Library/isp/Src/isp_services.c **** 
 2536              		.loc 1 190 7 is_stmt 0 view .LVU795
 2537 0024 194B     		ldr	r3, .L186
 188:../../Middlewares/Camera_Middleware/ISP_Library/isp/Src/isp_services.c **** 
 2538              		.loc 1 188 11 view .LVU796
 2539 0026 BDF90620 		ldrsh	r2, [sp, #6]
 2540              	.LVL209:
 190:../../Middlewares/Camera_Middleware/ISP_Library/isp/Src/isp_services.c **** 
 2541              		.loc 1 190 3 is_stmt 1 view .LVU797
 192:../../Middlewares/Camera_Middleware/ISP_Library/isp/Src/isp_services.c **** }
 2542              		.loc 1 192 3 view .LVU798
 192:../../Middlewares/Camera_Middleware/ISP_Library/isp/Src/isp_services.c **** }
 2543              		.loc 1 192 3 is_stmt 0 view .LVU799
 2544              	.LBE141:
 2545              	.LBE140:
1068:../../Middlewares/Camera_Middleware/ISP_Library/isp/Src/isp_services.c ****   pConfig->coeff[0][1] = From_CConv_Reg(colorConvConfig.RG);
1069:../../Middlewares/Camera_Middleware/ISP_Library/isp/Src/isp_services.c ****   pConfig->coeff[0][2] = From_CConv_Reg(colorConvConfig.RB);
1070:../../Middlewares/Camera_Middleware/ISP_Library/isp/Src/isp_services.c ****   pConfig->coeff[1][0] = From_CConv_Reg(colorConvConfig.GR);
1071:../../Middlewares/Camera_Middleware/ISP_Library/isp/Src/isp_services.c ****   pConfig->coeff[1][1] = From_CConv_Reg(colorConvConfig.GG);
1072:../../Middlewares/Camera_Middleware/ISP_Library/isp/Src/isp_services.c ****   pConfig->coeff[1][2] = From_CConv_Reg(colorConvConfig.GB);
1073:../../Middlewares/Camera_Middleware/ISP_Library/isp/Src/isp_services.c ****   pConfig->coeff[2][0] = From_CConv_Reg(colorConvConfig.BR);
1074:../../Middlewares/Camera_Middleware/ISP_Library/isp/Src/isp_services.c ****   pConfig->coeff[2][1] = From_CConv_Reg(colorConvConfig.BG);
1075:../../Middlewares/Camera_Middleware/ISP_Library/isp/Src/isp_services.c ****   pConfig->coeff[2][2] = From_CConv_Reg(colorConvConfig.BB);
1076:../../Middlewares/Camera_Middleware/ISP_Library/isp/Src/isp_services.c **** 
1077:../../Middlewares/Camera_Middleware/ISP_Library/isp/Src/isp_services.c ****   return ISP_OK;
 2546              		.loc 1 1077 10 view .LVU800
 2547 002a 0020     		movs	r0, #0
 2548              	.LBB143:
 2549              	.LBB142:
 190:../../Middlewares/Camera_Middleware/ISP_Library/isp/Src/isp_services.c **** 
 2550              		.loc 1 190 7 view .LVU801
 2551 002c A2FB0321 		umull	r2, r1, r2, r3
 192:../../Middlewares/Camera_Middleware/ISP_Library/isp/Src/isp_services.c **** }
ARM GAS  C:\Users\Antonio\AppData\Local\Temp\ccF6VN3M.s 			page 72


 2552              		.loc 1 192 10 view .LVU802
 2553 0030 6260     		str	r2, [r4, #4]
 2554              	.LBE142:
 2555              	.LBE143:
1068:../../Middlewares/Camera_Middleware/ISP_Library/isp/Src/isp_services.c ****   pConfig->coeff[0][1] = From_CConv_Reg(colorConvConfig.RG);
 2556              		.loc 1 1068 3 is_stmt 1 view .LVU803
 2557              	.LVL210:
 2558              	.LBB144:
 2559              	.LBI144:
 185:../../Middlewares/Camera_Middleware/ISP_Library/isp/Src/isp_services.c **** {
 2560              		.loc 1 185 16 view .LVU804
 2561              	.LBB145:
 188:../../Middlewares/Camera_Middleware/ISP_Library/isp/Src/isp_services.c **** 
 2562              		.loc 1 188 3 view .LVU805
 188:../../Middlewares/Camera_Middleware/ISP_Library/isp/Src/isp_services.c **** 
 2563              		.loc 1 188 11 is_stmt 0 view .LVU806
 2564 0032 BDF90820 		ldrsh	r2, [sp, #8]
 2565              	.LVL211:
 190:../../Middlewares/Camera_Middleware/ISP_Library/isp/Src/isp_services.c **** 
 2566              		.loc 1 190 3 is_stmt 1 view .LVU807
 192:../../Middlewares/Camera_Middleware/ISP_Library/isp/Src/isp_services.c **** }
 2567              		.loc 1 192 3 view .LVU808
 190:../../Middlewares/Camera_Middleware/ISP_Library/isp/Src/isp_services.c **** 
 2568              		.loc 1 190 7 is_stmt 0 view .LVU809
 2569 0036 A2FB0321 		umull	r2, r1, r2, r3
 192:../../Middlewares/Camera_Middleware/ISP_Library/isp/Src/isp_services.c **** }
 2570              		.loc 1 192 10 view .LVU810
 2571 003a A260     		str	r2, [r4, #8]
 2572              	.LBE145:
 2573              	.LBE144:
1069:../../Middlewares/Camera_Middleware/ISP_Library/isp/Src/isp_services.c ****   pConfig->coeff[1][0] = From_CConv_Reg(colorConvConfig.GR);
 2574              		.loc 1 1069 3 is_stmt 1 view .LVU811
 2575              	.LVL212:
 2576              	.LBB146:
 2577              	.LBI146:
 185:../../Middlewares/Camera_Middleware/ISP_Library/isp/Src/isp_services.c **** {
 2578              		.loc 1 185 16 view .LVU812
 2579              	.LBB147:
 188:../../Middlewares/Camera_Middleware/ISP_Library/isp/Src/isp_services.c **** 
 2580              		.loc 1 188 3 view .LVU813
 188:../../Middlewares/Camera_Middleware/ISP_Library/isp/Src/isp_services.c **** 
 2581              		.loc 1 188 11 is_stmt 0 view .LVU814
 2582 003c BDF90A20 		ldrsh	r2, [sp, #10]
 2583              	.LVL213:
 190:../../Middlewares/Camera_Middleware/ISP_Library/isp/Src/isp_services.c **** 
 2584              		.loc 1 190 3 is_stmt 1 view .LVU815
 192:../../Middlewares/Camera_Middleware/ISP_Library/isp/Src/isp_services.c **** }
 2585              		.loc 1 192 3 view .LVU816
 190:../../Middlewares/Camera_Middleware/ISP_Library/isp/Src/isp_services.c **** 
 2586              		.loc 1 190 7 is_stmt 0 view .LVU817
 2587 0040 A2FB0321 		umull	r2, r1, r2, r3
 192:../../Middlewares/Camera_Middleware/ISP_Library/isp/Src/isp_services.c **** }
 2588              		.loc 1 192 10 view .LVU818
 2589 0044 E260     		str	r2, [r4, #12]
 2590              	.LBE147:
 2591              	.LBE146:
1070:../../Middlewares/Camera_Middleware/ISP_Library/isp/Src/isp_services.c ****   pConfig->coeff[1][1] = From_CConv_Reg(colorConvConfig.GG);
ARM GAS  C:\Users\Antonio\AppData\Local\Temp\ccF6VN3M.s 			page 73


 2592              		.loc 1 1070 3 is_stmt 1 view .LVU819
 2593              	.LVL214:
 2594              	.LBB148:
 2595              	.LBI148:
 185:../../Middlewares/Camera_Middleware/ISP_Library/isp/Src/isp_services.c **** {
 2596              		.loc 1 185 16 view .LVU820
 2597              	.LBB149:
 188:../../Middlewares/Camera_Middleware/ISP_Library/isp/Src/isp_services.c **** 
 2598              		.loc 1 188 3 view .LVU821
 188:../../Middlewares/Camera_Middleware/ISP_Library/isp/Src/isp_services.c **** 
 2599              		.loc 1 188 11 is_stmt 0 view .LVU822
 2600 0046 BDF90E20 		ldrsh	r2, [sp, #14]
 2601              	.LVL215:
 190:../../Middlewares/Camera_Middleware/ISP_Library/isp/Src/isp_services.c **** 
 2602              		.loc 1 190 3 is_stmt 1 view .LVU823
 192:../../Middlewares/Camera_Middleware/ISP_Library/isp/Src/isp_services.c **** }
 2603              		.loc 1 192 3 view .LVU824
 190:../../Middlewares/Camera_Middleware/ISP_Library/isp/Src/isp_services.c **** 
 2604              		.loc 1 190 7 is_stmt 0 view .LVU825
 2605 004a A2FB0321 		umull	r2, r1, r2, r3
 192:../../Middlewares/Camera_Middleware/ISP_Library/isp/Src/isp_services.c **** }
 2606              		.loc 1 192 10 view .LVU826
 2607 004e 2261     		str	r2, [r4, #16]
 2608              	.LBE149:
 2609              	.LBE148:
1071:../../Middlewares/Camera_Middleware/ISP_Library/isp/Src/isp_services.c ****   pConfig->coeff[1][2] = From_CConv_Reg(colorConvConfig.GB);
 2610              		.loc 1 1071 3 is_stmt 1 view .LVU827
 2611              	.LVL216:
 2612              	.LBB150:
 2613              	.LBI150:
 185:../../Middlewares/Camera_Middleware/ISP_Library/isp/Src/isp_services.c **** {
 2614              		.loc 1 185 16 view .LVU828
 2615              	.LBB151:
 188:../../Middlewares/Camera_Middleware/ISP_Library/isp/Src/isp_services.c **** 
 2616              		.loc 1 188 3 view .LVU829
 188:../../Middlewares/Camera_Middleware/ISP_Library/isp/Src/isp_services.c **** 
 2617              		.loc 1 188 11 is_stmt 0 view .LVU830
 2618 0050 BDF91020 		ldrsh	r2, [sp, #16]
 2619              	.LVL217:
 190:../../Middlewares/Camera_Middleware/ISP_Library/isp/Src/isp_services.c **** 
 2620              		.loc 1 190 3 is_stmt 1 view .LVU831
 192:../../Middlewares/Camera_Middleware/ISP_Library/isp/Src/isp_services.c **** }
 2621              		.loc 1 192 3 view .LVU832
 190:../../Middlewares/Camera_Middleware/ISP_Library/isp/Src/isp_services.c **** 
 2622              		.loc 1 190 7 is_stmt 0 view .LVU833
 2623 0054 A2FB0321 		umull	r2, r1, r2, r3
 192:../../Middlewares/Camera_Middleware/ISP_Library/isp/Src/isp_services.c **** }
 2624              		.loc 1 192 10 view .LVU834
 2625 0058 6261     		str	r2, [r4, #20]
 2626              	.LBE151:
 2627              	.LBE150:
1072:../../Middlewares/Camera_Middleware/ISP_Library/isp/Src/isp_services.c ****   pConfig->coeff[2][0] = From_CConv_Reg(colorConvConfig.BR);
 2628              		.loc 1 1072 3 is_stmt 1 view .LVU835
 2629              	.LVL218:
 2630              	.LBB152:
 2631              	.LBI152:
 185:../../Middlewares/Camera_Middleware/ISP_Library/isp/Src/isp_services.c **** {
ARM GAS  C:\Users\Antonio\AppData\Local\Temp\ccF6VN3M.s 			page 74


 2632              		.loc 1 185 16 view .LVU836
 2633              	.LBB153:
 188:../../Middlewares/Camera_Middleware/ISP_Library/isp/Src/isp_services.c **** 
 2634              		.loc 1 188 3 view .LVU837
 188:../../Middlewares/Camera_Middleware/ISP_Library/isp/Src/isp_services.c **** 
 2635              		.loc 1 188 11 is_stmt 0 view .LVU838
 2636 005a BDF91220 		ldrsh	r2, [sp, #18]
 2637              	.LVL219:
 190:../../Middlewares/Camera_Middleware/ISP_Library/isp/Src/isp_services.c **** 
 2638              		.loc 1 190 3 is_stmt 1 view .LVU839
 192:../../Middlewares/Camera_Middleware/ISP_Library/isp/Src/isp_services.c **** }
 2639              		.loc 1 192 3 view .LVU840
 190:../../Middlewares/Camera_Middleware/ISP_Library/isp/Src/isp_services.c **** 
 2640              		.loc 1 190 7 is_stmt 0 view .LVU841
 2641 005e A2FB0321 		umull	r2, r1, r2, r3
 192:../../Middlewares/Camera_Middleware/ISP_Library/isp/Src/isp_services.c **** }
 2642              		.loc 1 192 10 view .LVU842
 2643 0062 A261     		str	r2, [r4, #24]
 2644              	.LBE153:
 2645              	.LBE152:
1073:../../Middlewares/Camera_Middleware/ISP_Library/isp/Src/isp_services.c ****   pConfig->coeff[2][1] = From_CConv_Reg(colorConvConfig.BG);
 2646              		.loc 1 1073 3 is_stmt 1 view .LVU843
 2647              	.LVL220:
 2648              	.LBB154:
 2649              	.LBI154:
 185:../../Middlewares/Camera_Middleware/ISP_Library/isp/Src/isp_services.c **** {
 2650              		.loc 1 185 16 view .LVU844
 2651              	.LBB155:
 188:../../Middlewares/Camera_Middleware/ISP_Library/isp/Src/isp_services.c **** 
 2652              		.loc 1 188 3 view .LVU845
 188:../../Middlewares/Camera_Middleware/ISP_Library/isp/Src/isp_services.c **** 
 2653              		.loc 1 188 11 is_stmt 0 view .LVU846
 2654 0064 BDF91620 		ldrsh	r2, [sp, #22]
 2655              	.LVL221:
 190:../../Middlewares/Camera_Middleware/ISP_Library/isp/Src/isp_services.c **** 
 2656              		.loc 1 190 3 is_stmt 1 view .LVU847
 192:../../Middlewares/Camera_Middleware/ISP_Library/isp/Src/isp_services.c **** }
 2657              		.loc 1 192 3 view .LVU848
 190:../../Middlewares/Camera_Middleware/ISP_Library/isp/Src/isp_services.c **** 
 2658              		.loc 1 190 7 is_stmt 0 view .LVU849
 2659 0068 A2FB0321 		umull	r2, r1, r2, r3
 192:../../Middlewares/Camera_Middleware/ISP_Library/isp/Src/isp_services.c **** }
 2660              		.loc 1 192 10 view .LVU850
 2661 006c E261     		str	r2, [r4, #28]
 2662              	.LBE155:
 2663              	.LBE154:
1074:../../Middlewares/Camera_Middleware/ISP_Library/isp/Src/isp_services.c ****   pConfig->coeff[2][2] = From_CConv_Reg(colorConvConfig.BB);
 2664              		.loc 1 1074 3 is_stmt 1 view .LVU851
 2665              	.LVL222:
 2666              	.LBB156:
 2667              	.LBI156:
 185:../../Middlewares/Camera_Middleware/ISP_Library/isp/Src/isp_services.c **** {
 2668              		.loc 1 185 16 view .LVU852
 2669              	.LBB157:
 188:../../Middlewares/Camera_Middleware/ISP_Library/isp/Src/isp_services.c **** 
 2670              		.loc 1 188 3 view .LVU853
 188:../../Middlewares/Camera_Middleware/ISP_Library/isp/Src/isp_services.c **** 
ARM GAS  C:\Users\Antonio\AppData\Local\Temp\ccF6VN3M.s 			page 75


 2671              		.loc 1 188 11 is_stmt 0 view .LVU854
 2672 006e BDF91820 		ldrsh	r2, [sp, #24]
 2673              	.LVL223:
 190:../../Middlewares/Camera_Middleware/ISP_Library/isp/Src/isp_services.c **** 
 2674              		.loc 1 190 3 is_stmt 1 view .LVU855
 192:../../Middlewares/Camera_Middleware/ISP_Library/isp/Src/isp_services.c **** }
 2675              		.loc 1 192 3 view .LVU856
 190:../../Middlewares/Camera_Middleware/ISP_Library/isp/Src/isp_services.c **** 
 2676              		.loc 1 190 7 is_stmt 0 view .LVU857
 2677 0072 A2FB0321 		umull	r2, r1, r2, r3
 192:../../Middlewares/Camera_Middleware/ISP_Library/isp/Src/isp_services.c **** }
 2678              		.loc 1 192 10 view .LVU858
 2679 0076 2262     		str	r2, [r4, #32]
 2680              	.LBE157:
 2681              	.LBE156:
1075:../../Middlewares/Camera_Middleware/ISP_Library/isp/Src/isp_services.c **** 
 2682              		.loc 1 1075 3 is_stmt 1 view .LVU859
 2683              	.LVL224:
 2684              	.LBB158:
 2685              	.LBI158:
 185:../../Middlewares/Camera_Middleware/ISP_Library/isp/Src/isp_services.c **** {
 2686              		.loc 1 185 16 view .LVU860
 2687              	.LBB159:
 188:../../Middlewares/Camera_Middleware/ISP_Library/isp/Src/isp_services.c **** 
 2688              		.loc 1 188 3 view .LVU861
 188:../../Middlewares/Camera_Middleware/ISP_Library/isp/Src/isp_services.c **** 
 2689              		.loc 1 188 11 is_stmt 0 view .LVU862
 2690 0078 BDF91A20 		ldrsh	r2, [sp, #26]
 2691              	.LVL225:
 190:../../Middlewares/Camera_Middleware/ISP_Library/isp/Src/isp_services.c **** 
 2692              		.loc 1 190 3 is_stmt 1 view .LVU863
 192:../../Middlewares/Camera_Middleware/ISP_Library/isp/Src/isp_services.c **** }
 2693              		.loc 1 192 3 view .LVU864
 190:../../Middlewares/Camera_Middleware/ISP_Library/isp/Src/isp_services.c **** 
 2694              		.loc 1 190 7 is_stmt 0 view .LVU865
 2695 007c A2FB0323 		umull	r2, r3, r2, r3
 192:../../Middlewares/Camera_Middleware/ISP_Library/isp/Src/isp_services.c **** }
 2696              		.loc 1 192 10 view .LVU866
 2697 0080 6262     		str	r2, [r4, #36]
 2698              	.LBE159:
 2699              	.LBE158:
 2700              		.loc 1 1077 3 is_stmt 1 view .LVU867
 2701              	.L183:
1078:../../Middlewares/Camera_Middleware/ISP_Library/isp/Src/isp_services.c **** }
 2702              		.loc 1 1078 1 is_stmt 0 view .LVU868
 2703 0082 09B0     		add	sp, sp, #36
 2704              		.cfi_remember_state
 2705              		.cfi_def_cfa_offset 12
 2706              		@ sp needed
 2707 0084 30BD     		pop	{r4, r5, pc}
 2708              	.LVL226:
 2709              	.L185:
 2710              		.cfi_restore_state
1060:../../Middlewares/Camera_Middleware/ISP_Library/isp/Src/isp_services.c ****   }
 2711              		.loc 1 1060 12 view .LVU869
 2712 0086 5A20     		movs	r0, #90
 2713              	.LVL227:
ARM GAS  C:\Users\Antonio\AppData\Local\Temp\ccF6VN3M.s 			page 76


1060:../../Middlewares/Camera_Middleware/ISP_Library/isp/Src/isp_services.c ****   }
 2714              		.loc 1 1060 12 view .LVU870
 2715 0088 FBE7     		b	.L183
 2716              	.L187:
 2717 008a 00BF     		.align	2
 2718              	.L186:
 2719 008c E1F50500 		.word	390625
 2720              		.cfi_endproc
 2721              	.LFE864:
 2723              		.section	.text.ISP_SVC_Sensor_GetInfo,"ax",%progbits
 2724              		.align	1
 2725              		.global	ISP_SVC_Sensor_GetInfo
 2726              		.syntax unified
 2727              		.thumb
 2728              		.thumb_func
 2730              	ISP_SVC_Sensor_GetInfo:
 2731              	.LVL228:
 2732              	.LFB865:
1079:../../Middlewares/Camera_Middleware/ISP_Library/isp/Src/isp_services.c **** 
1080:../../Middlewares/Camera_Middleware/ISP_Library/isp/Src/isp_services.c **** /**
1081:../../Middlewares/Camera_Middleware/ISP_Library/isp/Src/isp_services.c ****   * @brief  ISP_SVC_Sensor_GetInfo
1082:../../Middlewares/Camera_Middleware/ISP_Library/isp/Src/isp_services.c ****   *         Get the sensor info
1083:../../Middlewares/Camera_Middleware/ISP_Library/isp/Src/isp_services.c ****   * @param  hIsp: ISP device handle
1084:../../Middlewares/Camera_Middleware/ISP_Library/isp/Src/isp_services.c ****   * @param  pConfig: Pointer to the sensor info
1085:../../Middlewares/Camera_Middleware/ISP_Library/isp/Src/isp_services.c ****   * @retval operation result
1086:../../Middlewares/Camera_Middleware/ISP_Library/isp/Src/isp_services.c ****   */
1087:../../Middlewares/Camera_Middleware/ISP_Library/isp/Src/isp_services.c **** ISP_StatusTypeDef ISP_SVC_Sensor_GetInfo(ISP_HandleTypeDef *hIsp, ISP_SensorInfoTypeDef *pConfig)
1088:../../Middlewares/Camera_Middleware/ISP_Library/isp/Src/isp_services.c **** {
 2733              		.loc 1 1088 1 is_stmt 1 view -0
 2734              		.cfi_startproc
 2735              		@ args = 0, pretend = 0, frame = 0
 2736              		@ frame_needed = 0, uses_anonymous_args = 0
1089:../../Middlewares/Camera_Middleware/ISP_Library/isp/Src/isp_services.c ****   /* Check handle validity */
1090:../../Middlewares/Camera_Middleware/ISP_Library/isp/Src/isp_services.c ****   if ((hIsp == NULL) || (pConfig == NULL))
 2737              		.loc 1 1090 3 view .LVU872
1088:../../Middlewares/Camera_Middleware/ISP_Library/isp/Src/isp_services.c ****   /* Check handle validity */
 2738              		.loc 1 1088 1 is_stmt 0 view .LVU873
 2739 0000 08B5     		push	{r3, lr}
 2740              		.cfi_def_cfa_offset 8
 2741              		.cfi_offset 3, -8
 2742              		.cfi_offset 14, -4
 2743              		.loc 1 1090 6 view .LVU874
 2744 0002 38B1     		cbz	r0, .L192
 2745              		.loc 1 1090 22 discriminator 1 view .LVU875
 2746 0004 31B1     		cbz	r1, .L192
1091:../../Middlewares/Camera_Middleware/ISP_Library/isp/Src/isp_services.c ****   {
1092:../../Middlewares/Camera_Middleware/ISP_Library/isp/Src/isp_services.c ****     return ISP_ERR_SENSORINFO_EINVAL;
1093:../../Middlewares/Camera_Middleware/ISP_Library/isp/Src/isp_services.c ****   }
1094:../../Middlewares/Camera_Middleware/ISP_Library/isp/Src/isp_services.c **** 
1095:../../Middlewares/Camera_Middleware/ISP_Library/isp/Src/isp_services.c ****   if (hIsp->appliHelpers.GetSensorInfo != NULL)
 2747              		.loc 1 1095 3 is_stmt 1 view .LVU876
 2748              		.loc 1 1095 25 is_stmt 0 view .LVU877
 2749 0006 836A     		ldr	r3, [r0, #40]
 2750              		.loc 1 1095 6 view .LVU878
 2751 0008 13B1     		cbz	r3, .L190
1096:../../Middlewares/Camera_Middleware/ISP_Library/isp/Src/isp_services.c ****   {
1097:../../Middlewares/Camera_Middleware/ISP_Library/isp/Src/isp_services.c ****     if (hIsp->appliHelpers.GetSensorInfo(hIsp->cameraInstance, pConfig) != 0)
ARM GAS  C:\Users\Antonio\AppData\Local\Temp\ccF6VN3M.s 			page 77


 2752              		.loc 1 1097 5 is_stmt 1 view .LVU879
 2753              		.loc 1 1097 9 is_stmt 0 view .LVU880
 2754 000a 4068     		ldr	r0, [r0, #4]
 2755              	.LVL229:
 2756              		.loc 1 1097 9 view .LVU881
 2757 000c 9847     		blx	r3
 2758              	.LVL230:
 2759              		.loc 1 1097 8 discriminator 1 view .LVU882
 2760 000e 18B9     		cbnz	r0, .L193
 2761              	.L190:
1098:../../Middlewares/Camera_Middleware/ISP_Library/isp/Src/isp_services.c ****     {
1099:../../Middlewares/Camera_Middleware/ISP_Library/isp/Src/isp_services.c ****       return ISP_ERR_SENSORINFO;
1100:../../Middlewares/Camera_Middleware/ISP_Library/isp/Src/isp_services.c ****     }
1101:../../Middlewares/Camera_Middleware/ISP_Library/isp/Src/isp_services.c ****   }
1102:../../Middlewares/Camera_Middleware/ISP_Library/isp/Src/isp_services.c **** 
1103:../../Middlewares/Camera_Middleware/ISP_Library/isp/Src/isp_services.c ****   return ISP_OK;
 2762              		.loc 1 1103 10 view .LVU883
 2763 0010 0020     		movs	r0, #0
 2764              	.L189:
1104:../../Middlewares/Camera_Middleware/ISP_Library/isp/Src/isp_services.c **** }
 2765              		.loc 1 1104 1 view .LVU884
 2766 0012 08BD     		pop	{r3, pc}
 2767              	.LVL231:
 2768              	.L192:
1092:../../Middlewares/Camera_Middleware/ISP_Library/isp/Src/isp_services.c ****   }
 2769              		.loc 1 1092 12 view .LVU885
 2770 0014 6E20     		movs	r0, #110
 2771              	.LVL232:
1092:../../Middlewares/Camera_Middleware/ISP_Library/isp/Src/isp_services.c ****   }
 2772              		.loc 1 1092 12 view .LVU886
 2773 0016 FCE7     		b	.L189
 2774              	.LVL233:
 2775              	.L193:
1099:../../Middlewares/Camera_Middleware/ISP_Library/isp/Src/isp_services.c ****     }
 2776              		.loc 1 1099 14 view .LVU887
 2777 0018 6F20     		movs	r0, #111
 2778 001a FAE7     		b	.L189
 2779              		.cfi_endproc
 2780              	.LFE865:
 2782              		.section	.text.ISP_SVC_Sensor_SetGain,"ax",%progbits
 2783              		.align	1
 2784              		.global	ISP_SVC_Sensor_SetGain
 2785              		.syntax unified
 2786              		.thumb
 2787              		.thumb_func
 2789              	ISP_SVC_Sensor_SetGain:
 2790              	.LVL234:
 2791              	.LFB866:
1105:../../Middlewares/Camera_Middleware/ISP_Library/isp/Src/isp_services.c **** 
1106:../../Middlewares/Camera_Middleware/ISP_Library/isp/Src/isp_services.c **** /**
1107:../../Middlewares/Camera_Middleware/ISP_Library/isp/Src/isp_services.c ****   * @brief  ISP_SVC_Sensor_SetGain
1108:../../Middlewares/Camera_Middleware/ISP_Library/isp/Src/isp_services.c ****   *         Set the sensor gain
1109:../../Middlewares/Camera_Middleware/ISP_Library/isp/Src/isp_services.c ****   * @param  hIsp: ISP device handle
1110:../../Middlewares/Camera_Middleware/ISP_Library/isp/Src/isp_services.c ****   * @param  pConfig: Pointer to the sensor gain configuration
1111:../../Middlewares/Camera_Middleware/ISP_Library/isp/Src/isp_services.c ****   * @retval operation result
1112:../../Middlewares/Camera_Middleware/ISP_Library/isp/Src/isp_services.c ****   */
1113:../../Middlewares/Camera_Middleware/ISP_Library/isp/Src/isp_services.c **** ISP_StatusTypeDef ISP_SVC_Sensor_SetGain(ISP_HandleTypeDef *hIsp, ISP_SensorGainTypeDef *pConfig)
ARM GAS  C:\Users\Antonio\AppData\Local\Temp\ccF6VN3M.s 			page 78


1114:../../Middlewares/Camera_Middleware/ISP_Library/isp/Src/isp_services.c **** {
 2792              		.loc 1 1114 1 is_stmt 1 view -0
 2793              		.cfi_startproc
 2794              		@ args = 0, pretend = 0, frame = 0
 2795              		@ frame_needed = 0, uses_anonymous_args = 0
1115:../../Middlewares/Camera_Middleware/ISP_Library/isp/Src/isp_services.c ****   /* Check handle validity */
1116:../../Middlewares/Camera_Middleware/ISP_Library/isp/Src/isp_services.c ****   if ((hIsp == NULL) || (pConfig == NULL))
 2796              		.loc 1 1116 3 view .LVU889
1114:../../Middlewares/Camera_Middleware/ISP_Library/isp/Src/isp_services.c ****   /* Check handle validity */
 2797              		.loc 1 1114 1 is_stmt 0 view .LVU890
 2798 0000 10B5     		push	{r4, lr}
 2799              		.cfi_def_cfa_offset 8
 2800              		.cfi_offset 4, -8
 2801              		.cfi_offset 14, -4
1114:../../Middlewares/Camera_Middleware/ISP_Library/isp/Src/isp_services.c ****   /* Check handle validity */
 2802              		.loc 1 1114 1 view .LVU891
 2803 0002 0C46     		mov	r4, r1
 2804              		.loc 1 1116 6 view .LVU892
 2805 0004 70B1     		cbz	r0, .L202
 2806              		.loc 1 1116 22 discriminator 1 view .LVU893
 2807 0006 69B1     		cbz	r1, .L202
1117:../../Middlewares/Camera_Middleware/ISP_Library/isp/Src/isp_services.c ****   {
1118:../../Middlewares/Camera_Middleware/ISP_Library/isp/Src/isp_services.c ****     return ISP_ERR_SENSORGAIN_EINVAL;
1119:../../Middlewares/Camera_Middleware/ISP_Library/isp/Src/isp_services.c ****   }
1120:../../Middlewares/Camera_Middleware/ISP_Library/isp/Src/isp_services.c **** 
1121:../../Middlewares/Camera_Middleware/ISP_Library/isp/Src/isp_services.c ****   if (hIsp->appliHelpers.SetSensorGain != NULL)
 2808              		.loc 1 1121 3 is_stmt 1 view .LVU894
 2809              		.loc 1 1121 25 is_stmt 0 view .LVU895
 2810 0008 C36A     		ldr	r3, [r0, #44]
1122:../../Middlewares/Camera_Middleware/ISP_Library/isp/Src/isp_services.c ****   {
1123:../../Middlewares/Camera_Middleware/ISP_Library/isp/Src/isp_services.c ****     if (hIsp->appliHelpers.SetSensorGain(hIsp->cameraInstance, pConfig->gain) != 0)
 2811              		.loc 1 1123 71 view .LVU896
 2812 000a 0968     		ldr	r1, [r1]
 2813              	.LVL235:
1121:../../Middlewares/Camera_Middleware/ISP_Library/isp/Src/isp_services.c ****   {
 2814              		.loc 1 1121 6 view .LVU897
 2815 000c 23B9     		cbnz	r3, .L199
 2816              	.LVL236:
 2817              	.L200:
1124:../../Middlewares/Camera_Middleware/ISP_Library/isp/Src/isp_services.c ****     {
1125:../../Middlewares/Camera_Middleware/ISP_Library/isp/Src/isp_services.c ****       return ISP_ERR_SENSORGAIN;
1126:../../Middlewares/Camera_Middleware/ISP_Library/isp/Src/isp_services.c ****     }
1127:../../Middlewares/Camera_Middleware/ISP_Library/isp/Src/isp_services.c ****   }
1128:../../Middlewares/Camera_Middleware/ISP_Library/isp/Src/isp_services.c **** 
1129:../../Middlewares/Camera_Middleware/ISP_Library/isp/Src/isp_services.c ****   Meta.gain = pConfig->gain;
 2818              		.loc 1 1129 3 is_stmt 1 view .LVU898
1130:../../Middlewares/Camera_Middleware/ISP_Library/isp/Src/isp_services.c **** 
1131:../../Middlewares/Camera_Middleware/ISP_Library/isp/Src/isp_services.c ****   return ISP_OK;
 2819              		.loc 1 1131 10 is_stmt 0 view .LVU899
 2820 000e 0020     		movs	r0, #0
1129:../../Middlewares/Camera_Middleware/ISP_Library/isp/Src/isp_services.c **** 
 2821              		.loc 1 1129 13 view .LVU900
 2822 0010 2268     		ldr	r2, [r4]
 2823 0012 054B     		ldr	r3, .L206
 2824 0014 9A60     		str	r2, [r3, #8]
 2825              		.loc 1 1131 3 is_stmt 1 view .LVU901
 2826              	.L198:
ARM GAS  C:\Users\Antonio\AppData\Local\Temp\ccF6VN3M.s 			page 79


1132:../../Middlewares/Camera_Middleware/ISP_Library/isp/Src/isp_services.c **** }
 2827              		.loc 1 1132 1 is_stmt 0 view .LVU902
 2828 0016 10BD     		pop	{r4, pc}
 2829              	.LVL237:
 2830              	.L199:
1123:../../Middlewares/Camera_Middleware/ISP_Library/isp/Src/isp_services.c ****     {
 2831              		.loc 1 1123 5 is_stmt 1 view .LVU903
1123:../../Middlewares/Camera_Middleware/ISP_Library/isp/Src/isp_services.c ****     {
 2832              		.loc 1 1123 9 is_stmt 0 view .LVU904
 2833 0018 4068     		ldr	r0, [r0, #4]
 2834              	.LVL238:
1123:../../Middlewares/Camera_Middleware/ISP_Library/isp/Src/isp_services.c ****     {
 2835              		.loc 1 1123 9 view .LVU905
 2836 001a 9847     		blx	r3
 2837              	.LVL239:
1123:../../Middlewares/Camera_Middleware/ISP_Library/isp/Src/isp_services.c ****     {
 2838              		.loc 1 1123 8 discriminator 1 view .LVU906
 2839 001c 0028     		cmp	r0, #0
 2840 001e F6D0     		beq	.L200
1125:../../Middlewares/Camera_Middleware/ISP_Library/isp/Src/isp_services.c ****     }
 2841              		.loc 1 1125 14 view .LVU907
 2842 0020 7920     		movs	r0, #121
 2843 0022 F8E7     		b	.L198
 2844              	.LVL240:
 2845              	.L202:
1118:../../Middlewares/Camera_Middleware/ISP_Library/isp/Src/isp_services.c ****   }
 2846              		.loc 1 1118 12 view .LVU908
 2847 0024 7820     		movs	r0, #120
 2848              	.LVL241:
1118:../../Middlewares/Camera_Middleware/ISP_Library/isp/Src/isp_services.c ****   }
 2849              		.loc 1 1118 12 view .LVU909
 2850 0026 F6E7     		b	.L198
 2851              	.L207:
 2852              		.align	2
 2853              	.L206:
 2854 0028 00000000 		.word	Meta
 2855              		.cfi_endproc
 2856              	.LFE866:
 2858              		.section	.text.ISP_SVC_Sensor_GetGain,"ax",%progbits
 2859              		.align	1
 2860              		.global	ISP_SVC_Sensor_GetGain
 2861              		.syntax unified
 2862              		.thumb
 2863              		.thumb_func
 2865              	ISP_SVC_Sensor_GetGain:
 2866              	.LVL242:
 2867              	.LFB867:
1133:../../Middlewares/Camera_Middleware/ISP_Library/isp/Src/isp_services.c **** 
1134:../../Middlewares/Camera_Middleware/ISP_Library/isp/Src/isp_services.c **** /**
1135:../../Middlewares/Camera_Middleware/ISP_Library/isp/Src/isp_services.c ****   * @brief  ISP_SVC_Sensor_GetGain
1136:../../Middlewares/Camera_Middleware/ISP_Library/isp/Src/isp_services.c ****   *         Get the sensor gain
1137:../../Middlewares/Camera_Middleware/ISP_Library/isp/Src/isp_services.c ****   * @param  hIsp: ISP device handle
1138:../../Middlewares/Camera_Middleware/ISP_Library/isp/Src/isp_services.c ****   * @param  pConfig: Pointer to the sensor gain configuration
1139:../../Middlewares/Camera_Middleware/ISP_Library/isp/Src/isp_services.c ****   * @retval operation result
1140:../../Middlewares/Camera_Middleware/ISP_Library/isp/Src/isp_services.c ****   */
1141:../../Middlewares/Camera_Middleware/ISP_Library/isp/Src/isp_services.c **** ISP_StatusTypeDef ISP_SVC_Sensor_GetGain(ISP_HandleTypeDef *hIsp, ISP_SensorGainTypeDef *pConfig)
1142:../../Middlewares/Camera_Middleware/ISP_Library/isp/Src/isp_services.c **** {
ARM GAS  C:\Users\Antonio\AppData\Local\Temp\ccF6VN3M.s 			page 80


 2868              		.loc 1 1142 1 is_stmt 1 view -0
 2869              		.cfi_startproc
 2870              		@ args = 0, pretend = 0, frame = 0
 2871              		@ frame_needed = 0, uses_anonymous_args = 0
1143:../../Middlewares/Camera_Middleware/ISP_Library/isp/Src/isp_services.c ****   /* Check handle validity */
1144:../../Middlewares/Camera_Middleware/ISP_Library/isp/Src/isp_services.c ****   if ((hIsp == NULL) || (pConfig == NULL))
 2872              		.loc 1 1144 3 view .LVU911
1142:../../Middlewares/Camera_Middleware/ISP_Library/isp/Src/isp_services.c ****   /* Check handle validity */
 2873              		.loc 1 1142 1 is_stmt 0 view .LVU912
 2874 0000 08B5     		push	{r3, lr}
 2875              		.cfi_def_cfa_offset 8
 2876              		.cfi_offset 3, -8
 2877              		.cfi_offset 14, -4
 2878              		.loc 1 1144 6 view .LVU913
 2879 0002 38B1     		cbz	r0, .L212
 2880              		.loc 1 1144 22 discriminator 1 view .LVU914
 2881 0004 31B1     		cbz	r1, .L212
1145:../../Middlewares/Camera_Middleware/ISP_Library/isp/Src/isp_services.c ****   {
1146:../../Middlewares/Camera_Middleware/ISP_Library/isp/Src/isp_services.c ****     return ISP_ERR_SENSORGAIN_EINVAL;
1147:../../Middlewares/Camera_Middleware/ISP_Library/isp/Src/isp_services.c ****   }
1148:../../Middlewares/Camera_Middleware/ISP_Library/isp/Src/isp_services.c **** 
1149:../../Middlewares/Camera_Middleware/ISP_Library/isp/Src/isp_services.c ****   if (hIsp->appliHelpers.GetSensorGain != NULL)
 2882              		.loc 1 1149 3 is_stmt 1 view .LVU915
 2883              		.loc 1 1149 25 is_stmt 0 view .LVU916
 2884 0006 036B     		ldr	r3, [r0, #48]
 2885              		.loc 1 1149 6 view .LVU917
 2886 0008 13B1     		cbz	r3, .L210
1150:../../Middlewares/Camera_Middleware/ISP_Library/isp/Src/isp_services.c ****   {
1151:../../Middlewares/Camera_Middleware/ISP_Library/isp/Src/isp_services.c ****     if (hIsp->appliHelpers.GetSensorGain(hIsp->cameraInstance, (int32_t *)&pConfig->gain) != 0)
 2887              		.loc 1 1151 5 is_stmt 1 view .LVU918
 2888              		.loc 1 1151 9 is_stmt 0 view .LVU919
 2889 000a 4068     		ldr	r0, [r0, #4]
 2890              	.LVL243:
 2891              		.loc 1 1151 9 view .LVU920
 2892 000c 9847     		blx	r3
 2893              	.LVL244:
 2894              		.loc 1 1151 8 discriminator 1 view .LVU921
 2895 000e 18B9     		cbnz	r0, .L213
 2896              	.L210:
1152:../../Middlewares/Camera_Middleware/ISP_Library/isp/Src/isp_services.c ****     {
1153:../../Middlewares/Camera_Middleware/ISP_Library/isp/Src/isp_services.c ****       return ISP_ERR_SENSORGAIN;
1154:../../Middlewares/Camera_Middleware/ISP_Library/isp/Src/isp_services.c ****     }
1155:../../Middlewares/Camera_Middleware/ISP_Library/isp/Src/isp_services.c ****   }
1156:../../Middlewares/Camera_Middleware/ISP_Library/isp/Src/isp_services.c **** 
1157:../../Middlewares/Camera_Middleware/ISP_Library/isp/Src/isp_services.c ****   return ISP_OK;
 2897              		.loc 1 1157 10 view .LVU922
 2898 0010 0020     		movs	r0, #0
 2899              	.L209:
1158:../../Middlewares/Camera_Middleware/ISP_Library/isp/Src/isp_services.c **** }
 2900              		.loc 1 1158 1 view .LVU923
 2901 0012 08BD     		pop	{r3, pc}
 2902              	.LVL245:
 2903              	.L212:
1146:../../Middlewares/Camera_Middleware/ISP_Library/isp/Src/isp_services.c ****   }
 2904              		.loc 1 1146 12 view .LVU924
 2905 0014 7820     		movs	r0, #120
 2906              	.LVL246:
ARM GAS  C:\Users\Antonio\AppData\Local\Temp\ccF6VN3M.s 			page 81


1146:../../Middlewares/Camera_Middleware/ISP_Library/isp/Src/isp_services.c ****   }
 2907              		.loc 1 1146 12 view .LVU925
 2908 0016 FCE7     		b	.L209
 2909              	.LVL247:
 2910              	.L213:
1153:../../Middlewares/Camera_Middleware/ISP_Library/isp/Src/isp_services.c ****     }
 2911              		.loc 1 1153 14 view .LVU926
 2912 0018 7920     		movs	r0, #121
 2913 001a FAE7     		b	.L209
 2914              		.cfi_endproc
 2915              	.LFE867:
 2917              		.section	.text.ISP_SVC_Sensor_SetExposure,"ax",%progbits
 2918              		.align	1
 2919              		.global	ISP_SVC_Sensor_SetExposure
 2920              		.syntax unified
 2921              		.thumb
 2922              		.thumb_func
 2924              	ISP_SVC_Sensor_SetExposure:
 2925              	.LVL248:
 2926              	.LFB868:
1159:../../Middlewares/Camera_Middleware/ISP_Library/isp/Src/isp_services.c **** 
1160:../../Middlewares/Camera_Middleware/ISP_Library/isp/Src/isp_services.c **** /**
1161:../../Middlewares/Camera_Middleware/ISP_Library/isp/Src/isp_services.c ****   * @brief  ISP_SVC_Sensor_SetExposure
1162:../../Middlewares/Camera_Middleware/ISP_Library/isp/Src/isp_services.c ****   *         Set the sensor exposure
1163:../../Middlewares/Camera_Middleware/ISP_Library/isp/Src/isp_services.c ****   * @param  hIsp: ISP device handle
1164:../../Middlewares/Camera_Middleware/ISP_Library/isp/Src/isp_services.c ****   * @param  pConfig: Pointer to the sensor exposure configuration
1165:../../Middlewares/Camera_Middleware/ISP_Library/isp/Src/isp_services.c ****   * @retval operation result
1166:../../Middlewares/Camera_Middleware/ISP_Library/isp/Src/isp_services.c ****   */
1167:../../Middlewares/Camera_Middleware/ISP_Library/isp/Src/isp_services.c **** ISP_StatusTypeDef ISP_SVC_Sensor_SetExposure(ISP_HandleTypeDef *hIsp, ISP_SensorExposureTypeDef *pC
1168:../../Middlewares/Camera_Middleware/ISP_Library/isp/Src/isp_services.c **** {
 2927              		.loc 1 1168 1 is_stmt 1 view -0
 2928              		.cfi_startproc
 2929              		@ args = 0, pretend = 0, frame = 0
 2930              		@ frame_needed = 0, uses_anonymous_args = 0
1169:../../Middlewares/Camera_Middleware/ISP_Library/isp/Src/isp_services.c ****   /* Check handle validity */
1170:../../Middlewares/Camera_Middleware/ISP_Library/isp/Src/isp_services.c ****   if ((hIsp == NULL) || (pConfig == NULL))
 2931              		.loc 1 1170 3 view .LVU928
1168:../../Middlewares/Camera_Middleware/ISP_Library/isp/Src/isp_services.c ****   /* Check handle validity */
 2932              		.loc 1 1168 1 is_stmt 0 view .LVU929
 2933 0000 10B5     		push	{r4, lr}
 2934              		.cfi_def_cfa_offset 8
 2935              		.cfi_offset 4, -8
 2936              		.cfi_offset 14, -4
1168:../../Middlewares/Camera_Middleware/ISP_Library/isp/Src/isp_services.c ****   /* Check handle validity */
 2937              		.loc 1 1168 1 view .LVU930
 2938 0002 0C46     		mov	r4, r1
 2939              		.loc 1 1170 6 view .LVU931
 2940 0004 70B1     		cbz	r0, .L222
 2941              		.loc 1 1170 22 discriminator 1 view .LVU932
 2942 0006 69B1     		cbz	r1, .L222
1171:../../Middlewares/Camera_Middleware/ISP_Library/isp/Src/isp_services.c ****   {
1172:../../Middlewares/Camera_Middleware/ISP_Library/isp/Src/isp_services.c ****     return ISP_ERR_SENSOREXPOSURE_EINVAL;
1173:../../Middlewares/Camera_Middleware/ISP_Library/isp/Src/isp_services.c ****   }
1174:../../Middlewares/Camera_Middleware/ISP_Library/isp/Src/isp_services.c **** 
1175:../../Middlewares/Camera_Middleware/ISP_Library/isp/Src/isp_services.c ****   if (hIsp->appliHelpers.SetSensorExposure != NULL)
 2943              		.loc 1 1175 3 is_stmt 1 view .LVU933
 2944              		.loc 1 1175 25 is_stmt 0 view .LVU934
ARM GAS  C:\Users\Antonio\AppData\Local\Temp\ccF6VN3M.s 			page 82


 2945 0008 436B     		ldr	r3, [r0, #52]
1176:../../Middlewares/Camera_Middleware/ISP_Library/isp/Src/isp_services.c ****   {
1177:../../Middlewares/Camera_Middleware/ISP_Library/isp/Src/isp_services.c ****     if (hIsp->appliHelpers.SetSensorExposure(hIsp->cameraInstance, pConfig->exposure) != 0)
 2946              		.loc 1 1177 75 view .LVU935
 2947 000a 0968     		ldr	r1, [r1]
 2948              	.LVL249:
1175:../../Middlewares/Camera_Middleware/ISP_Library/isp/Src/isp_services.c ****   {
 2949              		.loc 1 1175 6 view .LVU936
 2950 000c 23B9     		cbnz	r3, .L219
 2951              	.LVL250:
 2952              	.L220:
1178:../../Middlewares/Camera_Middleware/ISP_Library/isp/Src/isp_services.c ****     {
1179:../../Middlewares/Camera_Middleware/ISP_Library/isp/Src/isp_services.c ****       return ISP_ERR_SENSOREXPOSURE;
1180:../../Middlewares/Camera_Middleware/ISP_Library/isp/Src/isp_services.c ****     }
1181:../../Middlewares/Camera_Middleware/ISP_Library/isp/Src/isp_services.c ****   }
1182:../../Middlewares/Camera_Middleware/ISP_Library/isp/Src/isp_services.c **** 
1183:../../Middlewares/Camera_Middleware/ISP_Library/isp/Src/isp_services.c ****   Meta.exposure = pConfig->exposure;
 2953              		.loc 1 1183 3 is_stmt 1 view .LVU937
1184:../../Middlewares/Camera_Middleware/ISP_Library/isp/Src/isp_services.c **** 
1185:../../Middlewares/Camera_Middleware/ISP_Library/isp/Src/isp_services.c ****   return ISP_OK;
 2954              		.loc 1 1185 10 is_stmt 0 view .LVU938
 2955 000e 0020     		movs	r0, #0
1183:../../Middlewares/Camera_Middleware/ISP_Library/isp/Src/isp_services.c **** 
 2956              		.loc 1 1183 17 view .LVU939
 2957 0010 2268     		ldr	r2, [r4]
 2958 0012 054B     		ldr	r3, .L226
 2959 0014 DA60     		str	r2, [r3, #12]
 2960              		.loc 1 1185 3 is_stmt 1 view .LVU940
 2961              	.L218:
1186:../../Middlewares/Camera_Middleware/ISP_Library/isp/Src/isp_services.c **** }
 2962              		.loc 1 1186 1 is_stmt 0 view .LVU941
 2963 0016 10BD     		pop	{r4, pc}
 2964              	.LVL251:
 2965              	.L219:
1177:../../Middlewares/Camera_Middleware/ISP_Library/isp/Src/isp_services.c ****     {
 2966              		.loc 1 1177 5 is_stmt 1 view .LVU942
1177:../../Middlewares/Camera_Middleware/ISP_Library/isp/Src/isp_services.c ****     {
 2967              		.loc 1 1177 9 is_stmt 0 view .LVU943
 2968 0018 4068     		ldr	r0, [r0, #4]
 2969              	.LVL252:
1177:../../Middlewares/Camera_Middleware/ISP_Library/isp/Src/isp_services.c ****     {
 2970              		.loc 1 1177 9 view .LVU944
 2971 001a 9847     		blx	r3
 2972              	.LVL253:
1177:../../Middlewares/Camera_Middleware/ISP_Library/isp/Src/isp_services.c ****     {
 2973              		.loc 1 1177 8 discriminator 1 view .LVU945
 2974 001c 0028     		cmp	r0, #0
 2975 001e F6D0     		beq	.L220
1179:../../Middlewares/Camera_Middleware/ISP_Library/isp/Src/isp_services.c ****     }
 2976              		.loc 1 1179 14 view .LVU946
 2977 0020 8320     		movs	r0, #131
 2978 0022 F8E7     		b	.L218
 2979              	.LVL254:
 2980              	.L222:
1172:../../Middlewares/Camera_Middleware/ISP_Library/isp/Src/isp_services.c ****   }
 2981              		.loc 1 1172 12 view .LVU947
 2982 0024 8220     		movs	r0, #130
ARM GAS  C:\Users\Antonio\AppData\Local\Temp\ccF6VN3M.s 			page 83


 2983              	.LVL255:
1172:../../Middlewares/Camera_Middleware/ISP_Library/isp/Src/isp_services.c ****   }
 2984              		.loc 1 1172 12 view .LVU948
 2985 0026 F6E7     		b	.L218
 2986              	.L227:
 2987              		.align	2
 2988              	.L226:
 2989 0028 00000000 		.word	Meta
 2990              		.cfi_endproc
 2991              	.LFE868:
 2993              		.section	.text.ISP_SVC_Sensor_GetExposure,"ax",%progbits
 2994              		.align	1
 2995              		.global	ISP_SVC_Sensor_GetExposure
 2996              		.syntax unified
 2997              		.thumb
 2998              		.thumb_func
 3000              	ISP_SVC_Sensor_GetExposure:
 3001              	.LVL256:
 3002              	.LFB869:
1187:../../Middlewares/Camera_Middleware/ISP_Library/isp/Src/isp_services.c **** 
1188:../../Middlewares/Camera_Middleware/ISP_Library/isp/Src/isp_services.c **** /**
1189:../../Middlewares/Camera_Middleware/ISP_Library/isp/Src/isp_services.c ****   * @brief  ISP_SVC_Sensor_GetExposure
1190:../../Middlewares/Camera_Middleware/ISP_Library/isp/Src/isp_services.c ****   *         Get the sensor exposure
1191:../../Middlewares/Camera_Middleware/ISP_Library/isp/Src/isp_services.c ****   * @param  hIsp: ISP device handle
1192:../../Middlewares/Camera_Middleware/ISP_Library/isp/Src/isp_services.c ****   * @param  pConfig: Pointer to the sensor exposure configuration
1193:../../Middlewares/Camera_Middleware/ISP_Library/isp/Src/isp_services.c ****   * @retval operation result
1194:../../Middlewares/Camera_Middleware/ISP_Library/isp/Src/isp_services.c ****   */
1195:../../Middlewares/Camera_Middleware/ISP_Library/isp/Src/isp_services.c **** ISP_StatusTypeDef ISP_SVC_Sensor_GetExposure(ISP_HandleTypeDef *hIsp, ISP_SensorExposureTypeDef *pC
1196:../../Middlewares/Camera_Middleware/ISP_Library/isp/Src/isp_services.c **** {
 3003              		.loc 1 1196 1 is_stmt 1 view -0
 3004              		.cfi_startproc
 3005              		@ args = 0, pretend = 0, frame = 0
 3006              		@ frame_needed = 0, uses_anonymous_args = 0
1197:../../Middlewares/Camera_Middleware/ISP_Library/isp/Src/isp_services.c ****   /* Check handle validity */
1198:../../Middlewares/Camera_Middleware/ISP_Library/isp/Src/isp_services.c ****   if ((hIsp == NULL) || (pConfig == NULL))
 3007              		.loc 1 1198 3 view .LVU950
1196:../../Middlewares/Camera_Middleware/ISP_Library/isp/Src/isp_services.c ****   /* Check handle validity */
 3008              		.loc 1 1196 1 is_stmt 0 view .LVU951
 3009 0000 08B5     		push	{r3, lr}
 3010              		.cfi_def_cfa_offset 8
 3011              		.cfi_offset 3, -8
 3012              		.cfi_offset 14, -4
 3013              		.loc 1 1198 6 view .LVU952
 3014 0002 38B1     		cbz	r0, .L232
 3015              		.loc 1 1198 22 discriminator 1 view .LVU953
 3016 0004 31B1     		cbz	r1, .L232
1199:../../Middlewares/Camera_Middleware/ISP_Library/isp/Src/isp_services.c ****   {
1200:../../Middlewares/Camera_Middleware/ISP_Library/isp/Src/isp_services.c ****     return ISP_ERR_SENSOREXPOSURE_EINVAL;
1201:../../Middlewares/Camera_Middleware/ISP_Library/isp/Src/isp_services.c ****   }
1202:../../Middlewares/Camera_Middleware/ISP_Library/isp/Src/isp_services.c **** 
1203:../../Middlewares/Camera_Middleware/ISP_Library/isp/Src/isp_services.c ****   if (hIsp->appliHelpers.GetSensorExposure != NULL)
 3017              		.loc 1 1203 3 is_stmt 1 view .LVU954
 3018              		.loc 1 1203 25 is_stmt 0 view .LVU955
 3019 0006 836B     		ldr	r3, [r0, #56]
 3020              		.loc 1 1203 6 view .LVU956
 3021 0008 13B1     		cbz	r3, .L230
1204:../../Middlewares/Camera_Middleware/ISP_Library/isp/Src/isp_services.c ****   {
ARM GAS  C:\Users\Antonio\AppData\Local\Temp\ccF6VN3M.s 			page 84


1205:../../Middlewares/Camera_Middleware/ISP_Library/isp/Src/isp_services.c ****     if (hIsp->appliHelpers.GetSensorExposure(hIsp->cameraInstance, (int32_t *)&pConfig->exposure) !
 3022              		.loc 1 1205 5 is_stmt 1 view .LVU957
 3023              		.loc 1 1205 9 is_stmt 0 view .LVU958
 3024 000a 4068     		ldr	r0, [r0, #4]
 3025              	.LVL257:
 3026              		.loc 1 1205 9 view .LVU959
 3027 000c 9847     		blx	r3
 3028              	.LVL258:
 3029              		.loc 1 1205 8 discriminator 1 view .LVU960
 3030 000e 18B9     		cbnz	r0, .L233
 3031              	.L230:
1206:../../Middlewares/Camera_Middleware/ISP_Library/isp/Src/isp_services.c ****     {
1207:../../Middlewares/Camera_Middleware/ISP_Library/isp/Src/isp_services.c ****       return ISP_ERR_SENSOREXPOSURE;
1208:../../Middlewares/Camera_Middleware/ISP_Library/isp/Src/isp_services.c ****     }
1209:../../Middlewares/Camera_Middleware/ISP_Library/isp/Src/isp_services.c ****   }
1210:../../Middlewares/Camera_Middleware/ISP_Library/isp/Src/isp_services.c **** 
1211:../../Middlewares/Camera_Middleware/ISP_Library/isp/Src/isp_services.c ****   return ISP_OK;
 3032              		.loc 1 1211 10 view .LVU961
 3033 0010 0020     		movs	r0, #0
 3034              	.L229:
1212:../../Middlewares/Camera_Middleware/ISP_Library/isp/Src/isp_services.c **** }
 3035              		.loc 1 1212 1 view .LVU962
 3036 0012 08BD     		pop	{r3, pc}
 3037              	.LVL259:
 3038              	.L232:
1200:../../Middlewares/Camera_Middleware/ISP_Library/isp/Src/isp_services.c ****   }
 3039              		.loc 1 1200 12 view .LVU963
 3040 0014 8220     		movs	r0, #130
 3041              	.LVL260:
1200:../../Middlewares/Camera_Middleware/ISP_Library/isp/Src/isp_services.c ****   }
 3042              		.loc 1 1200 12 view .LVU964
 3043 0016 FCE7     		b	.L229
 3044              	.LVL261:
 3045              	.L233:
1207:../../Middlewares/Camera_Middleware/ISP_Library/isp/Src/isp_services.c ****     }
 3046              		.loc 1 1207 14 view .LVU965
 3047 0018 8320     		movs	r0, #131
 3048 001a FAE7     		b	.L229
 3049              		.cfi_endproc
 3050              	.LFE869:
 3052              		.section	.text.ISP_SVC_Sensor_SetTestPattern,"ax",%progbits
 3053              		.align	1
 3054              		.global	ISP_SVC_Sensor_SetTestPattern
 3055              		.syntax unified
 3056              		.thumb
 3057              		.thumb_func
 3059              	ISP_SVC_Sensor_SetTestPattern:
 3060              	.LVL262:
 3061              	.LFB870:
1213:../../Middlewares/Camera_Middleware/ISP_Library/isp/Src/isp_services.c **** 
1214:../../Middlewares/Camera_Middleware/ISP_Library/isp/Src/isp_services.c **** /**
1215:../../Middlewares/Camera_Middleware/ISP_Library/isp/Src/isp_services.c ****   * @brief  ISP_SVC_Sensor_SetTestPattern
1216:../../Middlewares/Camera_Middleware/ISP_Library/isp/Src/isp_services.c ****   *         Set the sensor test pattern
1217:../../Middlewares/Camera_Middleware/ISP_Library/isp/Src/isp_services.c ****   * @param  hIsp: ISP device handle
1218:../../Middlewares/Camera_Middleware/ISP_Library/isp/Src/isp_services.c ****   * @param  pConfig: Pointer to the sensor test pattern configuration
1219:../../Middlewares/Camera_Middleware/ISP_Library/isp/Src/isp_services.c ****   * @retval operation result
1220:../../Middlewares/Camera_Middleware/ISP_Library/isp/Src/isp_services.c ****   */
ARM GAS  C:\Users\Antonio\AppData\Local\Temp\ccF6VN3M.s 			page 85


1221:../../Middlewares/Camera_Middleware/ISP_Library/isp/Src/isp_services.c **** ISP_StatusTypeDef ISP_SVC_Sensor_SetTestPattern(ISP_HandleTypeDef *hIsp, ISP_SensorTestPatternTypeD
1222:../../Middlewares/Camera_Middleware/ISP_Library/isp/Src/isp_services.c **** {
 3062              		.loc 1 1222 1 is_stmt 1 view -0
 3063              		.cfi_startproc
 3064              		@ args = 0, pretend = 0, frame = 0
 3065              		@ frame_needed = 0, uses_anonymous_args = 0
1223:../../Middlewares/Camera_Middleware/ISP_Library/isp/Src/isp_services.c ****   /* Check handle validity */
1224:../../Middlewares/Camera_Middleware/ISP_Library/isp/Src/isp_services.c ****   if ((hIsp == NULL) || (pConfig == NULL))
 3066              		.loc 1 1224 3 view .LVU967
1222:../../Middlewares/Camera_Middleware/ISP_Library/isp/Src/isp_services.c ****   /* Check handle validity */
 3067              		.loc 1 1222 1 is_stmt 0 view .LVU968
 3068 0000 08B5     		push	{r3, lr}
 3069              		.cfi_def_cfa_offset 8
 3070              		.cfi_offset 3, -8
 3071              		.cfi_offset 14, -4
 3072              		.loc 1 1224 6 view .LVU969
 3073 0002 00B1     		cbz	r0, .L238
 3074              		.loc 1 1224 22 discriminator 1 view .LVU970
 3075 0004 09B9     		cbnz	r1, .L239
 3076              	.LVL263:
 3077              	.L238:
1225:../../Middlewares/Camera_Middleware/ISP_Library/isp/Src/isp_services.c ****   {
1226:../../Middlewares/Camera_Middleware/ISP_Library/isp/Src/isp_services.c ****     return ISP_ERR_SENSORTESTPATTERN;
 3078              		.loc 1 1226 12 view .LVU971
 3079 0006 C820     		movs	r0, #200
 3080              	.L240:
1227:../../Middlewares/Camera_Middleware/ISP_Library/isp/Src/isp_services.c ****   }
1228:../../Middlewares/Camera_Middleware/ISP_Library/isp/Src/isp_services.c **** 
1229:../../Middlewares/Camera_Middleware/ISP_Library/isp/Src/isp_services.c ****   if (hIsp->appliHelpers.SetSensorTestPattern == NULL)
1230:../../Middlewares/Camera_Middleware/ISP_Library/isp/Src/isp_services.c ****   {
1231:../../Middlewares/Camera_Middleware/ISP_Library/isp/Src/isp_services.c ****     return ISP_ERR_APP_HELPER_UNDEFINED;
1232:../../Middlewares/Camera_Middleware/ISP_Library/isp/Src/isp_services.c ****   }
1233:../../Middlewares/Camera_Middleware/ISP_Library/isp/Src/isp_services.c **** 
1234:../../Middlewares/Camera_Middleware/ISP_Library/isp/Src/isp_services.c ****   if (hIsp->appliHelpers.SetSensorTestPattern(hIsp->cameraInstance, pConfig->mode) != 0)
1235:../../Middlewares/Camera_Middleware/ISP_Library/isp/Src/isp_services.c ****   {
1236:../../Middlewares/Camera_Middleware/ISP_Library/isp/Src/isp_services.c ****     return ISP_ERR_SENSORTESTPATTERN;
1237:../../Middlewares/Camera_Middleware/ISP_Library/isp/Src/isp_services.c ****   }
1238:../../Middlewares/Camera_Middleware/ISP_Library/isp/Src/isp_services.c **** 
1239:../../Middlewares/Camera_Middleware/ISP_Library/isp/Src/isp_services.c ****   return ISP_OK;
1240:../../Middlewares/Camera_Middleware/ISP_Library/isp/Src/isp_services.c **** }
 3081              		.loc 1 1240 1 view .LVU972
 3082 0008 08BD     		pop	{r3, pc}
 3083              	.LVL264:
 3084              	.L239:
1229:../../Middlewares/Camera_Middleware/ISP_Library/isp/Src/isp_services.c ****   {
 3085              		.loc 1 1229 3 is_stmt 1 view .LVU973
1229:../../Middlewares/Camera_Middleware/ISP_Library/isp/Src/isp_services.c ****   {
 3086              		.loc 1 1229 25 is_stmt 0 view .LVU974
 3087 000a C36B     		ldr	r3, [r0, #60]
1229:../../Middlewares/Camera_Middleware/ISP_Library/isp/Src/isp_services.c ****   {
 3088              		.loc 1 1229 6 view .LVU975
 3089 000c 2BB1     		cbz	r3, .L241
1234:../../Middlewares/Camera_Middleware/ISP_Library/isp/Src/isp_services.c ****   {
 3090              		.loc 1 1234 3 is_stmt 1 view .LVU976
1234:../../Middlewares/Camera_Middleware/ISP_Library/isp/Src/isp_services.c ****   {
 3091              		.loc 1 1234 7 is_stmt 0 view .LVU977
 3092 000e 0968     		ldr	r1, [r1]
ARM GAS  C:\Users\Antonio\AppData\Local\Temp\ccF6VN3M.s 			page 86


 3093              	.LVL265:
1234:../../Middlewares/Camera_Middleware/ISP_Library/isp/Src/isp_services.c ****   {
 3094              		.loc 1 1234 7 view .LVU978
 3095 0010 4068     		ldr	r0, [r0, #4]
 3096              	.LVL266:
1234:../../Middlewares/Camera_Middleware/ISP_Library/isp/Src/isp_services.c ****   {
 3097              		.loc 1 1234 7 view .LVU979
 3098 0012 9847     		blx	r3
 3099              	.LVL267:
1234:../../Middlewares/Camera_Middleware/ISP_Library/isp/Src/isp_services.c ****   {
 3100              		.loc 1 1234 6 discriminator 1 view .LVU980
 3101 0014 0028     		cmp	r0, #0
 3102 0016 F7D0     		beq	.L240
 3103 0018 F5E7     		b	.L238
 3104              	.LVL268:
 3105              	.L241:
1231:../../Middlewares/Camera_Middleware/ISP_Library/isp/Src/isp_services.c ****   }
 3106              		.loc 1 1231 12 view .LVU981
 3107 001a B420     		movs	r0, #180
 3108              	.LVL269:
1231:../../Middlewares/Camera_Middleware/ISP_Library/isp/Src/isp_services.c ****   }
 3109              		.loc 1 1231 12 view .LVU982
 3110 001c F4E7     		b	.L240
 3111              		.cfi_endproc
 3112              	.LFE870:
 3114              		.section	.text.ISP_SVC_Misc_GetDCMIPPVersion,"ax",%progbits
 3115              		.align	1
 3116              		.global	ISP_SVC_Misc_GetDCMIPPVersion
 3117              		.syntax unified
 3118              		.thumb
 3119              		.thumb_func
 3121              	ISP_SVC_Misc_GetDCMIPPVersion:
 3122              	.LVL270:
 3123              	.LFB871:
1241:../../Middlewares/Camera_Middleware/ISP_Library/isp/Src/isp_services.c **** 
1242:../../Middlewares/Camera_Middleware/ISP_Library/isp/Src/isp_services.c **** /**
1243:../../Middlewares/Camera_Middleware/ISP_Library/isp/Src/isp_services.c ****   * @brief  ISP_SVC_Misc_GetDCMIPPVersion
1244:../../Middlewares/Camera_Middleware/ISP_Library/isp/Src/isp_services.c ****   *         Get the DCMIPP IP version
1245:../../Middlewares/Camera_Middleware/ISP_Library/isp/Src/isp_services.c ****   * @param  hIsp: ISP device handle
1246:../../Middlewares/Camera_Middleware/ISP_Library/isp/Src/isp_services.c ****   * @param  pMajRev: Pointer to major revision of DCMIPP
1247:../../Middlewares/Camera_Middleware/ISP_Library/isp/Src/isp_services.c ****   * @param  pMinRev: Pointer to minor revision of DCMIPP
1248:../../Middlewares/Camera_Middleware/ISP_Library/isp/Src/isp_services.c ****   * @retval ISP_OK if DCMIPP version is read properly, ISP_FAIL otherwise
1249:../../Middlewares/Camera_Middleware/ISP_Library/isp/Src/isp_services.c ****   */
1250:../../Middlewares/Camera_Middleware/ISP_Library/isp/Src/isp_services.c **** ISP_StatusTypeDef ISP_SVC_Misc_GetDCMIPPVersion(ISP_HandleTypeDef *hIsp, uint32_t *pMajRev, uint32_
1251:../../Middlewares/Camera_Middleware/ISP_Library/isp/Src/isp_services.c **** {
 3124              		.loc 1 1251 1 is_stmt 1 view -0
 3125              		.cfi_startproc
 3126              		@ args = 0, pretend = 0, frame = 0
 3127              		@ frame_needed = 0, uses_anonymous_args = 0
 3128              		@ link register save eliminated.
1252:../../Middlewares/Camera_Middleware/ISP_Library/isp/Src/isp_services.c ****   /* Check handle validity */
1253:../../Middlewares/Camera_Middleware/ISP_Library/isp/Src/isp_services.c ****   if ((hIsp == NULL) || (pMajRev == NULL) || (pMinRev == NULL))
 3129              		.loc 1 1253 3 view .LVU984
 3130              		.loc 1 1253 6 is_stmt 0 view .LVU985
 3131 0000 78B1     		cbz	r0, .L249
 3132              		.loc 1 1253 22 discriminator 1 view .LVU986
 3133 0002 71B1     		cbz	r1, .L249
ARM GAS  C:\Users\Antonio\AppData\Local\Temp\ccF6VN3M.s 			page 87


 3134              		.loc 1 1253 43 discriminator 2 view .LVU987
 3135 0004 6AB1     		cbz	r2, .L249
1254:../../Middlewares/Camera_Middleware/ISP_Library/isp/Src/isp_services.c ****   {
1255:../../Middlewares/Camera_Middleware/ISP_Library/isp/Src/isp_services.c ****     return ISP_ERR_EINVAL;
1256:../../Middlewares/Camera_Middleware/ISP_Library/isp/Src/isp_services.c ****   }
1257:../../Middlewares/Camera_Middleware/ISP_Library/isp/Src/isp_services.c **** 
1258:../../Middlewares/Camera_Middleware/ISP_Library/isp/Src/isp_services.c ****   DCMIPP_HandleTypeDef *hDcmipp = hIsp->hDcmipp;
 3136              		.loc 1 1258 3 is_stmt 1 view .LVU988
 3137              	.LVL271:
1259:../../Middlewares/Camera_Middleware/ISP_Library/isp/Src/isp_services.c ****   *pMajRev = (hDcmipp->Instance->VERR & DCMIPP_VERR_MAJREV) >> DCMIPP_VERR_MAJREV_Pos;
 3138              		.loc 1 1259 3 view .LVU989
 3139              		.loc 1 1259 22 is_stmt 0 view .LVU990
 3140 0006 0368     		ldr	r3, [r0]
 3141 0008 1868     		ldr	r0, [r3]
 3142              	.LVL272:
 3143              		.loc 1 1259 32 view .LVU991
 3144 000a D0F8F43F 		ldr	r3, [r0, #4084]
 3145              	.LVL273:
 3146              		.loc 1 1259 61 view .LVU992
 3147 000e C3F30313 		ubfx	r3, r3, #4, #4
 3148              		.loc 1 1259 12 view .LVU993
 3149 0012 0B60     		str	r3, [r1]
1260:../../Middlewares/Camera_Middleware/ISP_Library/isp/Src/isp_services.c ****   *pMinRev = (hDcmipp->Instance->VERR & DCMIPP_VERR_MINREV) >> DCMIPP_VERR_MINREV_Pos;
 3150              		.loc 1 1260 3 is_stmt 1 view .LVU994
 3151              		.loc 1 1260 32 is_stmt 0 view .LVU995
 3152 0014 D0F8F43F 		ldr	r3, [r0, #4084]
1261:../../Middlewares/Camera_Middleware/ISP_Library/isp/Src/isp_services.c **** 
1262:../../Middlewares/Camera_Middleware/ISP_Library/isp/Src/isp_services.c ****   return ISP_OK;
 3153              		.loc 1 1262 10 view .LVU996
 3154 0018 0020     		movs	r0, #0
1260:../../Middlewares/Camera_Middleware/ISP_Library/isp/Src/isp_services.c ****   *pMinRev = (hDcmipp->Instance->VERR & DCMIPP_VERR_MINREV) >> DCMIPP_VERR_MINREV_Pos;
 3155              		.loc 1 1260 61 view .LVU997
 3156 001a 03F00F03 		and	r3, r3, #15
1260:../../Middlewares/Camera_Middleware/ISP_Library/isp/Src/isp_services.c ****   *pMinRev = (hDcmipp->Instance->VERR & DCMIPP_VERR_MINREV) >> DCMIPP_VERR_MINREV_Pos;
 3157              		.loc 1 1260 12 view .LVU998
 3158 001e 1360     		str	r3, [r2]
 3159              		.loc 1 1262 3 is_stmt 1 view .LVU999
 3160              		.loc 1 1262 10 is_stmt 0 view .LVU1000
 3161 0020 7047     		bx	lr
 3162              	.LVL274:
 3163              	.L249:
1255:../../Middlewares/Camera_Middleware/ISP_Library/isp/Src/isp_services.c ****   }
 3164              		.loc 1 1255 12 view .LVU1001
 3165 0022 0120     		movs	r0, #1
 3166              	.LVL275:
1263:../../Middlewares/Camera_Middleware/ISP_Library/isp/Src/isp_services.c **** }
 3167              		.loc 1 1263 1 view .LVU1002
 3168 0024 7047     		bx	lr
 3169              		.cfi_endproc
 3170              	.LFE871:
 3172              		.section	.text.ISP_SVC_Misc_IsDCMIPPReady,"ax",%progbits
 3173              		.align	1
 3174              		.global	ISP_SVC_Misc_IsDCMIPPReady
 3175              		.syntax unified
 3176              		.thumb
 3177              		.thumb_func
 3179              	ISP_SVC_Misc_IsDCMIPPReady:
ARM GAS  C:\Users\Antonio\AppData\Local\Temp\ccF6VN3M.s 			page 88


 3180              	.LVL276:
 3181              	.LFB872:
1264:../../Middlewares/Camera_Middleware/ISP_Library/isp/Src/isp_services.c **** 
1265:../../Middlewares/Camera_Middleware/ISP_Library/isp/Src/isp_services.c **** /**
1266:../../Middlewares/Camera_Middleware/ISP_Library/isp/Src/isp_services.c ****   * @brief  ISP_SVC_Misc_IsDCMIPPReady
1267:../../Middlewares/Camera_Middleware/ISP_Library/isp/Src/isp_services.c ****   *         Check that the DCMIPP device is ready
1268:../../Middlewares/Camera_Middleware/ISP_Library/isp/Src/isp_services.c ****   * @param  hIsp: ISP device handle
1269:../../Middlewares/Camera_Middleware/ISP_Library/isp/Src/isp_services.c ****   * @retval ISP_OK if DCMIPP is running, ISP_FAIL otherwise
1270:../../Middlewares/Camera_Middleware/ISP_Library/isp/Src/isp_services.c ****   */
1271:../../Middlewares/Camera_Middleware/ISP_Library/isp/Src/isp_services.c **** ISP_StatusTypeDef ISP_SVC_Misc_IsDCMIPPReady(ISP_HandleTypeDef *hIsp)
1272:../../Middlewares/Camera_Middleware/ISP_Library/isp/Src/isp_services.c **** {
 3182              		.loc 1 1272 1 is_stmt 1 view -0
 3183              		.cfi_startproc
 3184              		@ args = 0, pretend = 0, frame = 0
 3185              		@ frame_needed = 0, uses_anonymous_args = 0
1273:../../Middlewares/Camera_Middleware/ISP_Library/isp/Src/isp_services.c ****   /* Check handle validity */
1274:../../Middlewares/Camera_Middleware/ISP_Library/isp/Src/isp_services.c ****   if (hIsp == NULL)
 3186              		.loc 1 1274 3 view .LVU1004
1272:../../Middlewares/Camera_Middleware/ISP_Library/isp/Src/isp_services.c ****   /* Check handle validity */
 3187              		.loc 1 1272 1 is_stmt 0 view .LVU1005
 3188 0000 08B5     		push	{r3, lr}
 3189              		.cfi_def_cfa_offset 8
 3190              		.cfi_offset 3, -8
 3191              		.cfi_offset 14, -4
 3192              		.loc 1 1274 6 view .LVU1006
 3193 0002 38B1     		cbz	r0, .L252
1275:../../Middlewares/Camera_Middleware/ISP_Library/isp/Src/isp_services.c ****   {
1276:../../Middlewares/Camera_Middleware/ISP_Library/isp/Src/isp_services.c ****     return ISP_ERR_EINVAL;
1277:../../Middlewares/Camera_Middleware/ISP_Library/isp/Src/isp_services.c ****   }
1278:../../Middlewares/Camera_Middleware/ISP_Library/isp/Src/isp_services.c **** 
1279:../../Middlewares/Camera_Middleware/ISP_Library/isp/Src/isp_services.c ****   if (HAL_DCMIPP_GetState(hIsp->hDcmipp) != HAL_DCMIPP_STATE_READY)
 3194              		.loc 1 1279 3 is_stmt 1 view .LVU1007
 3195              		.loc 1 1279 7 is_stmt 0 view .LVU1008
 3196 0004 0068     		ldr	r0, [r0]
 3197              	.LVL277:
 3198              		.loc 1 1279 7 view .LVU1009
 3199 0006 FFF7FEFF 		bl	HAL_DCMIPP_GetState
 3200              	.LVL278:
1280:../../Middlewares/Camera_Middleware/ISP_Library/isp/Src/isp_services.c ****   {
1281:../../Middlewares/Camera_Middleware/ISP_Library/isp/Src/isp_services.c ****     return ISP_ERR_DCMIPP_STATE;
1282:../../Middlewares/Camera_Middleware/ISP_Library/isp/Src/isp_services.c ****   }
1283:../../Middlewares/Camera_Middleware/ISP_Library/isp/Src/isp_services.c **** 
1284:../../Middlewares/Camera_Middleware/ISP_Library/isp/Src/isp_services.c ****   return ISP_OK;
 3201              		.loc 1 1284 10 view .LVU1010
 3202 000a 0228     		cmp	r0, #2
 3203 000c 14BF     		ite	ne
 3204 000e 8C20     		movne	r0, #140
 3205 0010 0020     		moveq	r0, #0
 3206              	.L251:
1285:../../Middlewares/Camera_Middleware/ISP_Library/isp/Src/isp_services.c **** }
 3207              		.loc 1 1285 1 view .LVU1011
 3208 0012 08BD     		pop	{r3, pc}
 3209              	.LVL279:
 3210              	.L252:
1276:../../Middlewares/Camera_Middleware/ISP_Library/isp/Src/isp_services.c ****   }
 3211              		.loc 1 1276 12 view .LVU1012
 3212 0014 0120     		movs	r0, #1
ARM GAS  C:\Users\Antonio\AppData\Local\Temp\ccF6VN3M.s 			page 89


 3213              	.LVL280:
1276:../../Middlewares/Camera_Middleware/ISP_Library/isp/Src/isp_services.c ****   }
 3214              		.loc 1 1276 12 view .LVU1013
 3215 0016 FCE7     		b	.L251
 3216              		.cfi_endproc
 3217              	.LFE872:
 3219              		.section	.text.ISP_SVC_Misc_GetFirmwareConfig,"ax",%progbits
 3220              		.align	1
 3221              		.global	ISP_SVC_Misc_GetFirmwareConfig
 3222              		.syntax unified
 3223              		.thumb
 3224              		.thumb_func
 3226              	ISP_SVC_Misc_GetFirmwareConfig:
 3227              	.LVL281:
 3228              	.LFB873:
1286:../../Middlewares/Camera_Middleware/ISP_Library/isp/Src/isp_services.c **** 
1287:../../Middlewares/Camera_Middleware/ISP_Library/isp/Src/isp_services.c **** /**
1288:../../Middlewares/Camera_Middleware/ISP_Library/isp/Src/isp_services.c ****   * @brief  ISP_SVC_Misc_GetFirmwareConfig
1289:../../Middlewares/Camera_Middleware/ISP_Library/isp/Src/isp_services.c ****   *         Return the firmware config
1290:../../Middlewares/Camera_Middleware/ISP_Library/isp/Src/isp_services.c ****   * @param  pConfig: Pointer to the firmware config
1291:../../Middlewares/Camera_Middleware/ISP_Library/isp/Src/isp_services.c ****   * @retval operation result
1292:../../Middlewares/Camera_Middleware/ISP_Library/isp/Src/isp_services.c ****   */
1293:../../Middlewares/Camera_Middleware/ISP_Library/isp/Src/isp_services.c **** ISP_StatusTypeDef ISP_SVC_Misc_GetFirmwareConfig(ISP_FirmwareConfigTypeDef *pConfig)
1294:../../Middlewares/Camera_Middleware/ISP_Library/isp/Src/isp_services.c **** {
 3229              		.loc 1 1294 1 is_stmt 1 view -0
 3230              		.cfi_startproc
 3231              		@ args = 0, pretend = 0, frame = 0
 3232              		@ frame_needed = 0, uses_anonymous_args = 0
1295:../../Middlewares/Camera_Middleware/ISP_Library/isp/Src/isp_services.c ****   uint32_t devId;
 3233              		.loc 1 1295 3 view .LVU1015
1296:../../Middlewares/Camera_Middleware/ISP_Library/isp/Src/isp_services.c **** 
1297:../../Middlewares/Camera_Middleware/ISP_Library/isp/Src/isp_services.c ****   /* Number of supported fields (RGBOrder, HasStatRemoval, etc..). */
1298:../../Middlewares/Camera_Middleware/ISP_Library/isp/Src/isp_services.c ****   pConfig->nbField = 7;
 3234              		.loc 1 1298 3 view .LVU1016
1299:../../Middlewares/Camera_Middleware/ISP_Library/isp/Src/isp_services.c ****   /* RGB Order is BGR (1) on STM32N6 and more generally on any MCU using DCMIPP HAL */
1300:../../Middlewares/Camera_Middleware/ISP_Library/isp/Src/isp_services.c ****   pConfig->rgbOrder = ISP_SVC_CONFIG_ORDER_BGR;
 3235              		.loc 1 1300 21 is_stmt 0 view .LVU1017
 3236 0000 0123     		movs	r3, #1
 3237 0002 0722     		movs	r2, #7
1294:../../Middlewares/Camera_Middleware/ISP_Library/isp/Src/isp_services.c ****   uint32_t devId;
 3238              		.loc 1 1294 1 view .LVU1018
 3239 0004 10B5     		push	{r4, lr}
 3240              		.cfi_def_cfa_offset 8
 3241              		.cfi_offset 4, -8
 3242              		.cfi_offset 14, -4
 3243              		.loc 1 1300 21 view .LVU1019
 3244 0006 C0E90023 		strd	r2, r3, [r0]
1301:../../Middlewares/Camera_Middleware/ISP_Library/isp/Src/isp_services.c ****   /* StatRemoval, GammaCorrection and AEC antiflickering support status */
1302:../../Middlewares/Camera_Middleware/ISP_Library/isp/Src/isp_services.c ****   pConfig->hasStatRemoval = 1;
 3245              		.loc 1 1302 3 is_stmt 1 view .LVU1020
1303:../../Middlewares/Camera_Middleware/ISP_Library/isp/Src/isp_services.c ****   pConfig->hasGamma = 1;
 3246              		.loc 1 1303 21 is_stmt 0 view .LVU1021
 3247 000a C0E90233 		strd	r3, r3, [r0, #8]
1304:../../Middlewares/Camera_Middleware/ISP_Library/isp/Src/isp_services.c ****   pConfig->hasAntiFlicker = 1;
 3248              		.loc 1 1304 3 is_stmt 1 view .LVU1022
 3249              		.loc 1 1304 27 is_stmt 0 view .LVU1023
 3250 000e 0361     		str	r3, [r0, #16]
ARM GAS  C:\Users\Antonio\AppData\Local\Temp\ccF6VN3M.s 			page 90


1305:../../Middlewares/Camera_Middleware/ISP_Library/isp/Src/isp_services.c ****   /* DevideId */
1306:../../Middlewares/Camera_Middleware/ISP_Library/isp/Src/isp_services.c ****   switch(HAL_GetDEVID())
 3251              		.loc 1 1306 3 is_stmt 1 view .LVU1024
1294:../../Middlewares/Camera_Middleware/ISP_Library/isp/Src/isp_services.c ****   uint32_t devId;
 3252              		.loc 1 1294 1 is_stmt 0 view .LVU1025
 3253 0010 0446     		mov	r4, r0
 3254              		.loc 1 1306 10 view .LVU1026
 3255 0012 FFF7FEFF 		bl	HAL_GetDEVID
 3256              	.LVL282:
 3257              		.loc 1 1306 3 discriminator 1 view .LVU1027
 3258 0016 B0F5C04F 		cmp	r0, #24576
 3259 001a 18D0     		beq	.L257
 3260 001c 14D8     		bhi	.L256
 3261 001e 20F40073 		bic	r3, r0, #512
 3262 0022 B3F50053 		subs	r3, r3, #8192
 3263              	.L258:
 3264 0026 18BF     		it	ne
 3265 0028 0123     		movne	r3, #1
 3266 002a 5B42     		rsbs	r3, r3, #0
 3267              	.L255:
 3268              	.LVL283:
1307:../../Middlewares/Camera_Middleware/ISP_Library/isp/Src/isp_services.c ****   {
1308:../../Middlewares/Camera_Middleware/ISP_Library/isp/Src/isp_services.c ****   case 0x00006200: /* STM32N645xx */
1309:../../Middlewares/Camera_Middleware/ISP_Library/isp/Src/isp_services.c ****   case 0x00006000: /* STM32N655xx */
1310:../../Middlewares/Camera_Middleware/ISP_Library/isp/Src/isp_services.c ****   case 0x00002200: /* STM32N647xx */
1311:../../Middlewares/Camera_Middleware/ISP_Library/isp/Src/isp_services.c ****   case 0x00002000: /* STM32N657xx */
1312:../../Middlewares/Camera_Middleware/ISP_Library/isp/Src/isp_services.c ****     devId = ISP_SVC_CONFIG_DEVICE_N6;
1313:../../Middlewares/Camera_Middleware/ISP_Library/isp/Src/isp_services.c ****     break;
1314:../../Middlewares/Camera_Middleware/ISP_Library/isp/Src/isp_services.c ****   default:
1315:../../Middlewares/Camera_Middleware/ISP_Library/isp/Src/isp_services.c ****     devId = ISP_SVC_CONFIG_DEVICE_UNKNOWN;
1316:../../Middlewares/Camera_Middleware/ISP_Library/isp/Src/isp_services.c ****   }
1317:../../Middlewares/Camera_Middleware/ISP_Library/isp/Src/isp_services.c ****   pConfig->deviceId = devId;
 3269              		.loc 1 1317 3 is_stmt 1 view .LVU1028
 3270              		.loc 1 1317 21 is_stmt 0 view .LVU1029
 3271 002c 6361     		str	r3, [r4, #20]
1318:../../Middlewares/Camera_Middleware/ISP_Library/isp/Src/isp_services.c ****   /* UID */
1319:../../Middlewares/Camera_Middleware/ISP_Library/isp/Src/isp_services.c ****   pConfig->uId[0] = HAL_GetUIDw0();
 3272              		.loc 1 1319 3 is_stmt 1 view .LVU1030
 3273              		.loc 1 1319 21 is_stmt 0 view .LVU1031
 3274 002e FFF7FEFF 		bl	HAL_GetUIDw0
 3275              	.LVL284:
 3276              		.loc 1 1319 19 discriminator 1 view .LVU1032
 3277 0032 A061     		str	r0, [r4, #24]
1320:../../Middlewares/Camera_Middleware/ISP_Library/isp/Src/isp_services.c ****   pConfig->uId[1] = HAL_GetUIDw1();
 3278              		.loc 1 1320 3 is_stmt 1 view .LVU1033
 3279              		.loc 1 1320 21 is_stmt 0 view .LVU1034
 3280 0034 FFF7FEFF 		bl	HAL_GetUIDw1
 3281              	.LVL285:
 3282              		.loc 1 1320 19 discriminator 1 view .LVU1035
 3283 0038 E061     		str	r0, [r4, #28]
1321:../../Middlewares/Camera_Middleware/ISP_Library/isp/Src/isp_services.c ****   pConfig->uId[2] = HAL_GetUIDw2();
 3284              		.loc 1 1321 3 is_stmt 1 view .LVU1036
 3285              		.loc 1 1321 21 is_stmt 0 view .LVU1037
 3286 003a FFF7FEFF 		bl	HAL_GetUIDw2
 3287              	.LVL286:
1322:../../Middlewares/Camera_Middleware/ISP_Library/isp/Src/isp_services.c ****   /* Sensor Delay support status */
1323:../../Middlewares/Camera_Middleware/ISP_Library/isp/Src/isp_services.c ****   pConfig->hasSensorDelay = 1;
ARM GAS  C:\Users\Antonio\AppData\Local\Temp\ccF6VN3M.s 			page 91


 3288              		.loc 1 1323 27 view .LVU1038
 3289 003e 0123     		movs	r3, #1
1321:../../Middlewares/Camera_Middleware/ISP_Library/isp/Src/isp_services.c ****   pConfig->uId[2] = HAL_GetUIDw2();
 3290              		.loc 1 1321 19 discriminator 1 view .LVU1039
 3291 0040 2062     		str	r0, [r4, #32]
 3292              		.loc 1 1323 3 is_stmt 1 view .LVU1040
 3293              		.loc 1 1323 27 is_stmt 0 view .LVU1041
 3294 0042 6362     		str	r3, [r4, #36]
1324:../../Middlewares/Camera_Middleware/ISP_Library/isp/Src/isp_services.c ****   return ISP_OK;
 3295              		.loc 1 1324 3 is_stmt 1 view .LVU1042
1325:../../Middlewares/Camera_Middleware/ISP_Library/isp/Src/isp_services.c **** }
 3296              		.loc 1 1325 1 is_stmt 0 view .LVU1043
 3297 0044 0020     		movs	r0, #0
 3298 0046 10BD     		pop	{r4, pc}
 3299              	.LVL287:
 3300              	.L256:
1306:../../Middlewares/Camera_Middleware/ISP_Library/isp/Src/isp_services.c ****   {
 3301              		.loc 1 1306 3 discriminator 1 view .LVU1044
 3302 0048 B0F5C443 		subs	r3, r0, #25088
 3303 004c EBE7     		b	.L258
 3304              	.L257:
1312:../../Middlewares/Camera_Middleware/ISP_Library/isp/Src/isp_services.c ****     break;
 3305              		.loc 1 1312 11 view .LVU1045
 3306 004e 0023     		movs	r3, #0
 3307 0050 ECE7     		b	.L255
 3308              		.cfi_endproc
 3309              	.LFE873:
 3311              		.section	.text.ISP_SVC_Misc_IncMainFrameId,"ax",%progbits
 3312              		.align	1
 3313              		.global	ISP_SVC_Misc_IncMainFrameId
 3314              		.syntax unified
 3315              		.thumb
 3316              		.thumb_func
 3318              	ISP_SVC_Misc_IncMainFrameId:
 3319              	.LVL288:
 3320              	.LFB874:
1326:../../Middlewares/Camera_Middleware/ISP_Library/isp/Src/isp_services.c **** 
1327:../../Middlewares/Camera_Middleware/ISP_Library/isp/Src/isp_services.c **** /**
1328:../../Middlewares/Camera_Middleware/ISP_Library/isp/Src/isp_services.c ****   * @brief  ISP_SVC_Misc_IncMainFrameId
1329:../../Middlewares/Camera_Middleware/ISP_Library/isp/Src/isp_services.c ****   *         Increment the id of the frame output on the main pipe
1330:../../Middlewares/Camera_Middleware/ISP_Library/isp/Src/isp_services.c ****   * @param  hIsp: ISP device handle
1331:../../Middlewares/Camera_Middleware/ISP_Library/isp/Src/isp_services.c ****   * @retval none
1332:../../Middlewares/Camera_Middleware/ISP_Library/isp/Src/isp_services.c ****   */
1333:../../Middlewares/Camera_Middleware/ISP_Library/isp/Src/isp_services.c **** void ISP_SVC_Misc_IncMainFrameId(ISP_HandleTypeDef *hIsp)
1334:../../Middlewares/Camera_Middleware/ISP_Library/isp/Src/isp_services.c **** {
 3321              		.loc 1 1334 1 is_stmt 1 view -0
 3322              		.cfi_startproc
 3323              		@ args = 0, pretend = 0, frame = 0
 3324              		@ frame_needed = 0, uses_anonymous_args = 0
 3325              		@ link register save eliminated.
1335:../../Middlewares/Camera_Middleware/ISP_Library/isp/Src/isp_services.c ****   hIsp->MainPipe_FrameCount++;
 3326              		.loc 1 1335 3 view .LVU1047
 3327              		.loc 1 1335 28 is_stmt 0 view .LVU1048
 3328 0000 036C     		ldr	r3, [r0, #64]
 3329 0002 0133     		adds	r3, r3, #1
 3330 0004 0364     		str	r3, [r0, #64]
1336:../../Middlewares/Camera_Middleware/ISP_Library/isp/Src/isp_services.c **** }
ARM GAS  C:\Users\Antonio\AppData\Local\Temp\ccF6VN3M.s 			page 92


 3331              		.loc 1 1336 1 view .LVU1049
 3332 0006 7047     		bx	lr
 3333              		.cfi_endproc
 3334              	.LFE874:
 3336              		.section	.text.ISP_SVC_Misc_GetMainFrameId,"ax",%progbits
 3337              		.align	1
 3338              		.global	ISP_SVC_Misc_GetMainFrameId
 3339              		.syntax unified
 3340              		.thumb
 3341              		.thumb_func
 3343              	ISP_SVC_Misc_GetMainFrameId:
 3344              	.LVL289:
 3345              	.LFB875:
1337:../../Middlewares/Camera_Middleware/ISP_Library/isp/Src/isp_services.c **** 
1338:../../Middlewares/Camera_Middleware/ISP_Library/isp/Src/isp_services.c **** /**
1339:../../Middlewares/Camera_Middleware/ISP_Library/isp/Src/isp_services.c ****   * @brief  ISP_SVC_Misc_GetMainFrameId
1340:../../Middlewares/Camera_Middleware/ISP_Library/isp/Src/isp_services.c ****   *         Return the id of the last frame output on the main pipe
1341:../../Middlewares/Camera_Middleware/ISP_Library/isp/Src/isp_services.c ****   * @param  hIsp: ISP device handle
1342:../../Middlewares/Camera_Middleware/ISP_Library/isp/Src/isp_services.c ****   * @retval Id of the last frame output on the main pipe
1343:../../Middlewares/Camera_Middleware/ISP_Library/isp/Src/isp_services.c ****   */
1344:../../Middlewares/Camera_Middleware/ISP_Library/isp/Src/isp_services.c **** uint32_t ISP_SVC_Misc_GetMainFrameId(ISP_HandleTypeDef *hIsp)
1345:../../Middlewares/Camera_Middleware/ISP_Library/isp/Src/isp_services.c **** {
 3346              		.loc 1 1345 1 is_stmt 1 view -0
 3347              		.cfi_startproc
 3348              		@ args = 0, pretend = 0, frame = 0
 3349              		@ frame_needed = 0, uses_anonymous_args = 0
 3350              		@ link register save eliminated.
1346:../../Middlewares/Camera_Middleware/ISP_Library/isp/Src/isp_services.c ****   return hIsp->MainPipe_FrameCount;
 3351              		.loc 1 1346 3 view .LVU1051
1347:../../Middlewares/Camera_Middleware/ISP_Library/isp/Src/isp_services.c **** }
 3352              		.loc 1 1347 1 is_stmt 0 view .LVU1052
 3353 0000 006C     		ldr	r0, [r0, #64]
 3354              	.LVL290:
 3355              		.loc 1 1347 1 view .LVU1053
 3356 0002 7047     		bx	lr
 3357              		.cfi_endproc
 3358              	.LFE875:
 3360              		.section	.text.ISP_SVC_Misc_IncAncillaryFrameId,"ax",%progbits
 3361              		.align	1
 3362              		.global	ISP_SVC_Misc_IncAncillaryFrameId
 3363              		.syntax unified
 3364              		.thumb
 3365              		.thumb_func
 3367              	ISP_SVC_Misc_IncAncillaryFrameId:
 3368              	.LVL291:
 3369              	.LFB876:
1348:../../Middlewares/Camera_Middleware/ISP_Library/isp/Src/isp_services.c **** 
1349:../../Middlewares/Camera_Middleware/ISP_Library/isp/Src/isp_services.c **** /**
1350:../../Middlewares/Camera_Middleware/ISP_Library/isp/Src/isp_services.c ****   * @brief  ISP_SVC_Misc_IncAncillaryFrameId
1351:../../Middlewares/Camera_Middleware/ISP_Library/isp/Src/isp_services.c ****   *         Increment the id of the frame output on the ancillary pipe
1352:../../Middlewares/Camera_Middleware/ISP_Library/isp/Src/isp_services.c ****   * @param  hIsp: ISP device handle
1353:../../Middlewares/Camera_Middleware/ISP_Library/isp/Src/isp_services.c ****   * @retval none
1354:../../Middlewares/Camera_Middleware/ISP_Library/isp/Src/isp_services.c ****   */
1355:../../Middlewares/Camera_Middleware/ISP_Library/isp/Src/isp_services.c **** void ISP_SVC_Misc_IncAncillaryFrameId(ISP_HandleTypeDef *hIsp)
1356:../../Middlewares/Camera_Middleware/ISP_Library/isp/Src/isp_services.c **** {
 3370              		.loc 1 1356 1 is_stmt 1 view -0
 3371              		.cfi_startproc
ARM GAS  C:\Users\Antonio\AppData\Local\Temp\ccF6VN3M.s 			page 93


 3372              		@ args = 0, pretend = 0, frame = 0
 3373              		@ frame_needed = 0, uses_anonymous_args = 0
 3374              		@ link register save eliminated.
1357:../../Middlewares/Camera_Middleware/ISP_Library/isp/Src/isp_services.c ****   hIsp->AncillaryPipe_FrameCount++;
 3375              		.loc 1 1357 3 view .LVU1055
 3376              		.loc 1 1357 33 is_stmt 0 view .LVU1056
 3377 0000 436C     		ldr	r3, [r0, #68]
 3378 0002 0133     		adds	r3, r3, #1
 3379 0004 4364     		str	r3, [r0, #68]
1358:../../Middlewares/Camera_Middleware/ISP_Library/isp/Src/isp_services.c **** }
 3380              		.loc 1 1358 1 view .LVU1057
 3381 0006 7047     		bx	lr
 3382              		.cfi_endproc
 3383              	.LFE876:
 3385              		.section	.text.ISP_SVC_Misc_GetAncillaryFrameId,"ax",%progbits
 3386              		.align	1
 3387              		.global	ISP_SVC_Misc_GetAncillaryFrameId
 3388              		.syntax unified
 3389              		.thumb
 3390              		.thumb_func
 3392              	ISP_SVC_Misc_GetAncillaryFrameId:
 3393              	.LVL292:
 3394              	.LFB877:
1359:../../Middlewares/Camera_Middleware/ISP_Library/isp/Src/isp_services.c **** 
1360:../../Middlewares/Camera_Middleware/ISP_Library/isp/Src/isp_services.c **** /**
1361:../../Middlewares/Camera_Middleware/ISP_Library/isp/Src/isp_services.c ****   * @brief  ISP_SVC_Misc_GetAncillaryFrameId
1362:../../Middlewares/Camera_Middleware/ISP_Library/isp/Src/isp_services.c ****   *         Return the id of the last frame output on the ancillary pipe
1363:../../Middlewares/Camera_Middleware/ISP_Library/isp/Src/isp_services.c ****   * @param  hIsp: ISP device handle
1364:../../Middlewares/Camera_Middleware/ISP_Library/isp/Src/isp_services.c ****   * @retval Id of the last frame output on the ancillary pipe
1365:../../Middlewares/Camera_Middleware/ISP_Library/isp/Src/isp_services.c ****   */
1366:../../Middlewares/Camera_Middleware/ISP_Library/isp/Src/isp_services.c **** uint32_t ISP_SVC_Misc_GetAncillaryFrameId(ISP_HandleTypeDef *hIsp)
1367:../../Middlewares/Camera_Middleware/ISP_Library/isp/Src/isp_services.c **** {
 3395              		.loc 1 1367 1 is_stmt 1 view -0
 3396              		.cfi_startproc
 3397              		@ args = 0, pretend = 0, frame = 0
 3398              		@ frame_needed = 0, uses_anonymous_args = 0
 3399              		@ link register save eliminated.
1368:../../Middlewares/Camera_Middleware/ISP_Library/isp/Src/isp_services.c ****   return hIsp->AncillaryPipe_FrameCount;
 3400              		.loc 1 1368 3 view .LVU1059
1369:../../Middlewares/Camera_Middleware/ISP_Library/isp/Src/isp_services.c **** }
 3401              		.loc 1 1369 1 is_stmt 0 view .LVU1060
 3402 0000 406C     		ldr	r0, [r0, #68]
 3403              	.LVL293:
 3404              		.loc 1 1369 1 view .LVU1061
 3405 0002 7047     		bx	lr
 3406              		.cfi_endproc
 3407              	.LFE877:
 3409              		.section	.text.ISP_SVC_Misc_IncDumpFrameId,"ax",%progbits
 3410              		.align	1
 3411              		.global	ISP_SVC_Misc_IncDumpFrameId
 3412              		.syntax unified
 3413              		.thumb
 3414              		.thumb_func
 3416              	ISP_SVC_Misc_IncDumpFrameId:
 3417              	.LVL294:
 3418              	.LFB878:
1370:../../Middlewares/Camera_Middleware/ISP_Library/isp/Src/isp_services.c **** 
ARM GAS  C:\Users\Antonio\AppData\Local\Temp\ccF6VN3M.s 			page 94


1371:../../Middlewares/Camera_Middleware/ISP_Library/isp/Src/isp_services.c **** /**
1372:../../Middlewares/Camera_Middleware/ISP_Library/isp/Src/isp_services.c ****   * @brief  ISP_SVC_Misc_IncDumpFrameId
1373:../../Middlewares/Camera_Middleware/ISP_Library/isp/Src/isp_services.c ****   *         Increment the id of the frame output on the dump pipe
1374:../../Middlewares/Camera_Middleware/ISP_Library/isp/Src/isp_services.c ****   * @param  hIsp: ISP device handle
1375:../../Middlewares/Camera_Middleware/ISP_Library/isp/Src/isp_services.c ****   * @retval none
1376:../../Middlewares/Camera_Middleware/ISP_Library/isp/Src/isp_services.c ****   */
1377:../../Middlewares/Camera_Middleware/ISP_Library/isp/Src/isp_services.c **** void ISP_SVC_Misc_IncDumpFrameId(ISP_HandleTypeDef *hIsp)
1378:../../Middlewares/Camera_Middleware/ISP_Library/isp/Src/isp_services.c **** {
 3419              		.loc 1 1378 1 is_stmt 1 view -0
 3420              		.cfi_startproc
 3421              		@ args = 0, pretend = 0, frame = 0
 3422              		@ frame_needed = 0, uses_anonymous_args = 0
 3423              		@ link register save eliminated.
1379:../../Middlewares/Camera_Middleware/ISP_Library/isp/Src/isp_services.c ****   hIsp->DumpPipe_FrameCount++;
 3424              		.loc 1 1379 3 view .LVU1063
 3425              		.loc 1 1379 28 is_stmt 0 view .LVU1064
 3426 0000 836C     		ldr	r3, [r0, #72]
 3427 0002 0133     		adds	r3, r3, #1
 3428 0004 8364     		str	r3, [r0, #72]
1380:../../Middlewares/Camera_Middleware/ISP_Library/isp/Src/isp_services.c **** }
 3429              		.loc 1 1380 1 view .LVU1065
 3430 0006 7047     		bx	lr
 3431              		.cfi_endproc
 3432              	.LFE878:
 3434              		.section	.text.ISP_SVC_Misc_GetDumpFrameId,"ax",%progbits
 3435              		.align	1
 3436              		.global	ISP_SVC_Misc_GetDumpFrameId
 3437              		.syntax unified
 3438              		.thumb
 3439              		.thumb_func
 3441              	ISP_SVC_Misc_GetDumpFrameId:
 3442              	.LVL295:
 3443              	.LFB879:
1381:../../Middlewares/Camera_Middleware/ISP_Library/isp/Src/isp_services.c **** 
1382:../../Middlewares/Camera_Middleware/ISP_Library/isp/Src/isp_services.c **** /**
1383:../../Middlewares/Camera_Middleware/ISP_Library/isp/Src/isp_services.c ****   * @brief  ISP_SVC_Misc_GetDumpFrameId
1384:../../Middlewares/Camera_Middleware/ISP_Library/isp/Src/isp_services.c ****   *         Return the id of the last frame output on the dump pipe
1385:../../Middlewares/Camera_Middleware/ISP_Library/isp/Src/isp_services.c ****   * @param  hIsp: ISP device handle
1386:../../Middlewares/Camera_Middleware/ISP_Library/isp/Src/isp_services.c ****   * @retval Id of the last frame output on the dump pipe
1387:../../Middlewares/Camera_Middleware/ISP_Library/isp/Src/isp_services.c ****   */
1388:../../Middlewares/Camera_Middleware/ISP_Library/isp/Src/isp_services.c **** uint32_t ISP_SVC_Misc_GetDumpFrameId(ISP_HandleTypeDef *hIsp)
1389:../../Middlewares/Camera_Middleware/ISP_Library/isp/Src/isp_services.c **** {
 3444              		.loc 1 1389 1 is_stmt 1 view -0
 3445              		.cfi_startproc
 3446              		@ args = 0, pretend = 0, frame = 0
 3447              		@ frame_needed = 0, uses_anonymous_args = 0
 3448              		@ link register save eliminated.
1390:../../Middlewares/Camera_Middleware/ISP_Library/isp/Src/isp_services.c ****   return hIsp->DumpPipe_FrameCount;
 3449              		.loc 1 1390 3 view .LVU1067
1391:../../Middlewares/Camera_Middleware/ISP_Library/isp/Src/isp_services.c **** }
 3450              		.loc 1 1391 1 is_stmt 0 view .LVU1068
 3451 0000 806C     		ldr	r0, [r0, #72]
 3452              	.LVL296:
 3453              		.loc 1 1391 1 view .LVU1069
 3454 0002 7047     		bx	lr
 3455              		.cfi_endproc
 3456              	.LFE879:
ARM GAS  C:\Users\Antonio\AppData\Local\Temp\ccF6VN3M.s 			page 95


 3458              		.section	.text.ISP_SVC_Misc_SetWBRefMode,"ax",%progbits
 3459              		.align	1
 3460              		.global	ISP_SVC_Misc_SetWBRefMode
 3461              		.syntax unified
 3462              		.thumb
 3463              		.thumb_func
 3465              	ISP_SVC_Misc_SetWBRefMode:
 3466              	.LVL297:
 3467              	.LFB880:
1392:../../Middlewares/Camera_Middleware/ISP_Library/isp/Src/isp_services.c **** 
1393:../../Middlewares/Camera_Middleware/ISP_Library/isp/Src/isp_services.c **** /**
1394:../../Middlewares/Camera_Middleware/ISP_Library/isp/Src/isp_services.c ****   * @brief  ISP_SVC_Misc_SetWBRefMode
1395:../../Middlewares/Camera_Middleware/ISP_Library/isp/Src/isp_services.c ****   *         Set the reference mode used to configure manually the white balance mode
1396:../../Middlewares/Camera_Middleware/ISP_Library/isp/Src/isp_services.c ****   * @param  hIsp: ISP device handle
1397:../../Middlewares/Camera_Middleware/ISP_Library/isp/Src/isp_services.c ****   * @param  RefColorTemp: reference color temperature
1398:../../Middlewares/Camera_Middleware/ISP_Library/isp/Src/isp_services.c ****   * @retval Operation status
1399:../../Middlewares/Camera_Middleware/ISP_Library/isp/Src/isp_services.c ****   */
1400:../../Middlewares/Camera_Middleware/ISP_Library/isp/Src/isp_services.c **** ISP_StatusTypeDef ISP_SVC_Misc_SetWBRefMode(ISP_HandleTypeDef *hIsp, uint32_t RefColorTemp)
1401:../../Middlewares/Camera_Middleware/ISP_Library/isp/Src/isp_services.c **** {
 3468              		.loc 1 1401 1 is_stmt 1 view -0
 3469              		.cfi_startproc
 3470              		@ args = 0, pretend = 0, frame = 0
 3471              		@ frame_needed = 0, uses_anonymous_args = 0
 3472              		@ link register save eliminated.
1402:../../Middlewares/Camera_Middleware/ISP_Library/isp/Src/isp_services.c ****   (void)hIsp; /* unused */
 3473              		.loc 1 1402 3 view .LVU1071
1403:../../Middlewares/Camera_Middleware/ISP_Library/isp/Src/isp_services.c **** 
1404:../../Middlewares/Camera_Middleware/ISP_Library/isp/Src/isp_services.c ****   ISP_ManualWBRefColorTemp = RefColorTemp;
 3474              		.loc 1 1404 3 view .LVU1072
 3475              		.loc 1 1404 28 is_stmt 0 view .LVU1073
 3476 0000 014B     		ldr	r3, .L266
1405:../../Middlewares/Camera_Middleware/ISP_Library/isp/Src/isp_services.c **** 
1406:../../Middlewares/Camera_Middleware/ISP_Library/isp/Src/isp_services.c ****   return ISP_OK;
1407:../../Middlewares/Camera_Middleware/ISP_Library/isp/Src/isp_services.c **** }
 3477              		.loc 1 1407 1 view .LVU1074
 3478 0002 0020     		movs	r0, #0
 3479              	.LVL298:
1404:../../Middlewares/Camera_Middleware/ISP_Library/isp/Src/isp_services.c **** 
 3480              		.loc 1 1404 28 view .LVU1075
 3481 0004 1960     		str	r1, [r3]
1406:../../Middlewares/Camera_Middleware/ISP_Library/isp/Src/isp_services.c **** }
 3482              		.loc 1 1406 3 is_stmt 1 view .LVU1076
 3483              		.loc 1 1407 1 is_stmt 0 view .LVU1077
 3484 0006 7047     		bx	lr
 3485              	.L267:
 3486              		.align	2
 3487              	.L266:
 3488 0008 00000000 		.word	ISP_ManualWBRefColorTemp
 3489              		.cfi_endproc
 3490              	.LFE880:
 3492              		.section	.text.ISP_SVC_Misc_GetWBRefMode,"ax",%progbits
 3493              		.align	1
 3494              		.global	ISP_SVC_Misc_GetWBRefMode
 3495              		.syntax unified
 3496              		.thumb
 3497              		.thumb_func
 3499              	ISP_SVC_Misc_GetWBRefMode:
ARM GAS  C:\Users\Antonio\AppData\Local\Temp\ccF6VN3M.s 			page 96


 3500              	.LVL299:
 3501              	.LFB881:
1408:../../Middlewares/Camera_Middleware/ISP_Library/isp/Src/isp_services.c **** 
1409:../../Middlewares/Camera_Middleware/ISP_Library/isp/Src/isp_services.c **** /**
1410:../../Middlewares/Camera_Middleware/ISP_Library/isp/Src/isp_services.c ****   * @brief  ISP_SVC_Misc_GetWBRefMode
1411:../../Middlewares/Camera_Middleware/ISP_Library/isp/Src/isp_services.c ****   *         Get the reference mode used to configure manually the white balance mode
1412:../../Middlewares/Camera_Middleware/ISP_Library/isp/Src/isp_services.c ****   * @param  hIsp: ISP device handle
1413:../../Middlewares/Camera_Middleware/ISP_Library/isp/Src/isp_services.c ****   * @param  pRefColorTemp: Pointer to reference color temperature
1414:../../Middlewares/Camera_Middleware/ISP_Library/isp/Src/isp_services.c ****   * @retval Operation status
1415:../../Middlewares/Camera_Middleware/ISP_Library/isp/Src/isp_services.c ****   */
1416:../../Middlewares/Camera_Middleware/ISP_Library/isp/Src/isp_services.c **** ISP_StatusTypeDef ISP_SVC_Misc_GetWBRefMode(ISP_HandleTypeDef *hIsp, uint32_t *pRefColorTemp)
1417:../../Middlewares/Camera_Middleware/ISP_Library/isp/Src/isp_services.c **** {
 3502              		.loc 1 1417 1 is_stmt 1 view -0
 3503              		.cfi_startproc
 3504              		@ args = 0, pretend = 0, frame = 0
 3505              		@ frame_needed = 0, uses_anonymous_args = 0
 3506              		@ link register save eliminated.
1418:../../Middlewares/Camera_Middleware/ISP_Library/isp/Src/isp_services.c ****   (void)hIsp; /* unused */
 3507              		.loc 1 1418 3 view .LVU1079
1419:../../Middlewares/Camera_Middleware/ISP_Library/isp/Src/isp_services.c **** 
1420:../../Middlewares/Camera_Middleware/ISP_Library/isp/Src/isp_services.c ****   *pRefColorTemp = ISP_ManualWBRefColorTemp;
 3508              		.loc 1 1420 3 view .LVU1080
 3509              		.loc 1 1420 18 is_stmt 0 view .LVU1081
 3510 0000 024B     		ldr	r3, .L269
1421:../../Middlewares/Camera_Middleware/ISP_Library/isp/Src/isp_services.c **** 
1422:../../Middlewares/Camera_Middleware/ISP_Library/isp/Src/isp_services.c ****   return ISP_OK;
1423:../../Middlewares/Camera_Middleware/ISP_Library/isp/Src/isp_services.c **** }
 3511              		.loc 1 1423 1 view .LVU1082
 3512 0002 0020     		movs	r0, #0
 3513              	.LVL300:
1420:../../Middlewares/Camera_Middleware/ISP_Library/isp/Src/isp_services.c **** 
 3514              		.loc 1 1420 18 view .LVU1083
 3515 0004 1B68     		ldr	r3, [r3]
 3516 0006 0B60     		str	r3, [r1]
1422:../../Middlewares/Camera_Middleware/ISP_Library/isp/Src/isp_services.c **** }
 3517              		.loc 1 1422 3 is_stmt 1 view .LVU1084
 3518              		.loc 1 1423 1 is_stmt 0 view .LVU1085
 3519 0008 7047     		bx	lr
 3520              	.L270:
 3521 000a 00BF     		.align	2
 3522              	.L269:
 3523 000c 00000000 		.word	ISP_ManualWBRefColorTemp
 3524              		.cfi_endproc
 3525              	.LFE881:
 3527              		.section	.text.ISP_SVC_Misc_SensorDelayMeasureStart,"ax",%progbits
 3528              		.align	1
 3529              		.global	ISP_SVC_Misc_SensorDelayMeasureStart
 3530              		.syntax unified
 3531              		.thumb
 3532              		.thumb_func
 3534              	ISP_SVC_Misc_SensorDelayMeasureStart:
 3535              	.LFB882:
1424:../../Middlewares/Camera_Middleware/ISP_Library/isp/Src/isp_services.c **** 
1425:../../Middlewares/Camera_Middleware/ISP_Library/isp/Src/isp_services.c **** /**
1426:../../Middlewares/Camera_Middleware/ISP_Library/isp/Src/isp_services.c ****   * @brief  ISP_SVC_Misc_SensorDelayMeasureStart
1427:../../Middlewares/Camera_Middleware/ISP_Library/isp/Src/isp_services.c ****   *         Start the sensor delay measure
1428:../../Middlewares/Camera_Middleware/ISP_Library/isp/Src/isp_services.c ****   * @param  None
ARM GAS  C:\Users\Antonio\AppData\Local\Temp\ccF6VN3M.s 			page 97


1429:../../Middlewares/Camera_Middleware/ISP_Library/isp/Src/isp_services.c ****   * @retval None
1430:../../Middlewares/Camera_Middleware/ISP_Library/isp/Src/isp_services.c ****   */
1431:../../Middlewares/Camera_Middleware/ISP_Library/isp/Src/isp_services.c **** void ISP_SVC_Misc_SensorDelayMeasureStart()
1432:../../Middlewares/Camera_Middleware/ISP_Library/isp/Src/isp_services.c **** {
 3536              		.loc 1 1432 1 is_stmt 1 view -0
 3537              		.cfi_startproc
 3538              		@ args = 0, pretend = 0, frame = 0
 3539              		@ frame_needed = 0, uses_anonymous_args = 0
 3540              		@ link register save eliminated.
1433:../../Middlewares/Camera_Middleware/ISP_Library/isp/Src/isp_services.c ****   ISP_SensorDelayMeasureRun = true;
 3541              		.loc 1 1433 3 view .LVU1087
 3542              		.loc 1 1433 29 is_stmt 0 view .LVU1088
 3543 0000 0122     		movs	r2, #1
 3544 0002 014B     		ldr	r3, .L272
 3545 0004 1A70     		strb	r2, [r3]
1434:../../Middlewares/Camera_Middleware/ISP_Library/isp/Src/isp_services.c **** }
 3546              		.loc 1 1434 1 view .LVU1089
 3547 0006 7047     		bx	lr
 3548              	.L273:
 3549              		.align	2
 3550              	.L272:
 3551 0008 00000000 		.word	ISP_SensorDelayMeasureRun
 3552              		.cfi_endproc
 3553              	.LFE882:
 3555              		.section	.text.ISP_SVC_Misc_SensorDelayMeasureStop,"ax",%progbits
 3556              		.align	1
 3557              		.global	ISP_SVC_Misc_SensorDelayMeasureStop
 3558              		.syntax unified
 3559              		.thumb
 3560              		.thumb_func
 3562              	ISP_SVC_Misc_SensorDelayMeasureStop:
 3563              	.LFB883:
1435:../../Middlewares/Camera_Middleware/ISP_Library/isp/Src/isp_services.c **** 
1436:../../Middlewares/Camera_Middleware/ISP_Library/isp/Src/isp_services.c **** /**
1437:../../Middlewares/Camera_Middleware/ISP_Library/isp/Src/isp_services.c ****   * @brief  ISP_SVC_Misc_SensorDelayMeasureStop
1438:../../Middlewares/Camera_Middleware/ISP_Library/isp/Src/isp_services.c ****   *         Stop the sensor delay measure
1439:../../Middlewares/Camera_Middleware/ISP_Library/isp/Src/isp_services.c ****   * @param  None
1440:../../Middlewares/Camera_Middleware/ISP_Library/isp/Src/isp_services.c ****   * @retval None
1441:../../Middlewares/Camera_Middleware/ISP_Library/isp/Src/isp_services.c ****   */
1442:../../Middlewares/Camera_Middleware/ISP_Library/isp/Src/isp_services.c **** void ISP_SVC_Misc_SensorDelayMeasureStop()
1443:../../Middlewares/Camera_Middleware/ISP_Library/isp/Src/isp_services.c **** {
 3564              		.loc 1 1443 1 is_stmt 1 view -0
 3565              		.cfi_startproc
 3566              		@ args = 0, pretend = 0, frame = 0
 3567              		@ frame_needed = 0, uses_anonymous_args = 0
 3568              		@ link register save eliminated.
1444:../../Middlewares/Camera_Middleware/ISP_Library/isp/Src/isp_services.c ****   ISP_SensorDelayMeasureRun = false;
 3569              		.loc 1 1444 3 view .LVU1091
 3570              		.loc 1 1444 29 is_stmt 0 view .LVU1092
 3571 0000 0022     		movs	r2, #0
 3572 0002 014B     		ldr	r3, .L275
 3573 0004 1A70     		strb	r2, [r3]
1445:../../Middlewares/Camera_Middleware/ISP_Library/isp/Src/isp_services.c **** }
 3574              		.loc 1 1445 1 view .LVU1093
 3575 0006 7047     		bx	lr
 3576              	.L276:
 3577              		.align	2
ARM GAS  C:\Users\Antonio\AppData\Local\Temp\ccF6VN3M.s 			page 98


 3578              	.L275:
 3579 0008 00000000 		.word	ISP_SensorDelayMeasureRun
 3580              		.cfi_endproc
 3581              	.LFE883:
 3583              		.section	.text.ISP_SVC_Misc_SensorDelayMeasureIsRunning,"ax",%progbits
 3584              		.align	1
 3585              		.global	ISP_SVC_Misc_SensorDelayMeasureIsRunning
 3586              		.syntax unified
 3587              		.thumb
 3588              		.thumb_func
 3590              	ISP_SVC_Misc_SensorDelayMeasureIsRunning:
 3591              	.LFB884:
1446:../../Middlewares/Camera_Middleware/ISP_Library/isp/Src/isp_services.c **** 
1447:../../Middlewares/Camera_Middleware/ISP_Library/isp/Src/isp_services.c **** /**
1448:../../Middlewares/Camera_Middleware/ISP_Library/isp/Src/isp_services.c ****   * @brief  ISP_SVC_Misc_SensorDelayMeasureIsRunning
1449:../../Middlewares/Camera_Middleware/ISP_Library/isp/Src/isp_services.c ****   *         Return the sensor delay measure status
1450:../../Middlewares/Camera_Middleware/ISP_Library/isp/Src/isp_services.c ****   * @param  None
1451:../../Middlewares/Camera_Middleware/ISP_Library/isp/Src/isp_services.c ****   * @retval true if the sensor delay measure is running
1452:../../Middlewares/Camera_Middleware/ISP_Library/isp/Src/isp_services.c ****   */
1453:../../Middlewares/Camera_Middleware/ISP_Library/isp/Src/isp_services.c **** bool ISP_SVC_Misc_SensorDelayMeasureIsRunning()
1454:../../Middlewares/Camera_Middleware/ISP_Library/isp/Src/isp_services.c **** {
 3592              		.loc 1 1454 1 is_stmt 1 view -0
 3593              		.cfi_startproc
 3594              		@ args = 0, pretend = 0, frame = 0
 3595              		@ frame_needed = 0, uses_anonymous_args = 0
 3596              		@ link register save eliminated.
1455:../../Middlewares/Camera_Middleware/ISP_Library/isp/Src/isp_services.c ****   return ISP_SensorDelayMeasureRun;
 3597              		.loc 1 1455 3 view .LVU1095
1456:../../Middlewares/Camera_Middleware/ISP_Library/isp/Src/isp_services.c **** }
 3598              		.loc 1 1456 1 is_stmt 0 view .LVU1096
 3599 0000 014B     		ldr	r3, .L278
 3600 0002 1878     		ldrb	r0, [r3]	@ zero_extendqisi2
 3601 0004 7047     		bx	lr
 3602              	.L279:
 3603 0006 00BF     		.align	2
 3604              	.L278:
 3605 0008 00000000 		.word	ISP_SensorDelayMeasureRun
 3606              		.cfi_endproc
 3607              	.LFE884:
 3609              		.section	.text.ISP_SVC_Misc_SendSensorDelayMeasure,"ax",%progbits
 3610              		.align	1
 3611              		.global	ISP_SVC_Misc_SendSensorDelayMeasure
 3612              		.syntax unified
 3613              		.thumb
 3614              		.thumb_func
 3616              	ISP_SVC_Misc_SendSensorDelayMeasure:
 3617              	.LVL301:
 3618              	.LFB885:
1457:../../Middlewares/Camera_Middleware/ISP_Library/isp/Src/isp_services.c **** 
1458:../../Middlewares/Camera_Middleware/ISP_Library/isp/Src/isp_services.c **** /**
1459:../../Middlewares/Camera_Middleware/ISP_Library/isp/Src/isp_services.c ****   * @brief  ISP_SVC_Misc_SendSensorDelayMeasure
1460:../../Middlewares/Camera_Middleware/ISP_Library/isp/Src/isp_services.c ****   *         Send the answer to the Get SensorDelay measure command
1461:../../Middlewares/Camera_Middleware/ISP_Library/isp/Src/isp_services.c ****   * @param  hIsp: ISP device handle
1462:../../Middlewares/Camera_Middleware/ISP_Library/isp/Src/isp_services.c ****   * @param  pSensorDelay: Pointer to the measured Sensor Delay
1463:../../Middlewares/Camera_Middleware/ISP_Library/isp/Src/isp_services.c ****   * @retval operation result
1464:../../Middlewares/Camera_Middleware/ISP_Library/isp/Src/isp_services.c ****   */
1465:../../Middlewares/Camera_Middleware/ISP_Library/isp/Src/isp_services.c **** ISP_StatusTypeDef ISP_SVC_Misc_SendSensorDelayMeasure(ISP_HandleTypeDef *hIsp, ISP_SensorDelayTypeD
ARM GAS  C:\Users\Antonio\AppData\Local\Temp\ccF6VN3M.s 			page 99


1466:../../Middlewares/Camera_Middleware/ISP_Library/isp/Src/isp_services.c **** {
 3619              		.loc 1 1466 1 is_stmt 1 view -0
 3620              		.cfi_startproc
 3621              		@ args = 0, pretend = 0, frame = 0
 3622              		@ frame_needed = 0, uses_anonymous_args = 0
 3623              		@ link register save eliminated.
1467:../../Middlewares/Camera_Middleware/ISP_Library/isp/Src/isp_services.c **** #ifdef ISP_MW_TUNING_TOOL_SUPPORT
1468:../../Middlewares/Camera_Middleware/ISP_Library/isp/Src/isp_services.c ****   return ISP_CmdParser_SendSensorDelayMeasure(hIsp, pSensorDelay);
1469:../../Middlewares/Camera_Middleware/ISP_Library/isp/Src/isp_services.c **** #else
1470:../../Middlewares/Camera_Middleware/ISP_Library/isp/Src/isp_services.c ****   return ISP_OK;
 3624              		.loc 1 1470 3 view .LVU1098
1471:../../Middlewares/Camera_Middleware/ISP_Library/isp/Src/isp_services.c **** #endif
1472:../../Middlewares/Camera_Middleware/ISP_Library/isp/Src/isp_services.c **** }
 3625              		.loc 1 1472 1 is_stmt 0 view .LVU1099
 3626 0000 0020     		movs	r0, #0
 3627              	.LVL302:
 3628              		.loc 1 1472 1 view .LVU1100
 3629 0002 7047     		bx	lr
 3630              		.cfi_endproc
 3631              	.LFE885:
 3633              		.section	.text.ISP_SVC_Misc_StopPreview,"ax",%progbits
 3634              		.align	1
 3635              		.global	ISP_SVC_Misc_StopPreview
 3636              		.syntax unified
 3637              		.thumb
 3638              		.thumb_func
 3640              	ISP_SVC_Misc_StopPreview:
 3641              	.LVL303:
 3642              	.LFB886:
1473:../../Middlewares/Camera_Middleware/ISP_Library/isp/Src/isp_services.c **** 
1474:../../Middlewares/Camera_Middleware/ISP_Library/isp/Src/isp_services.c **** /**
1475:../../Middlewares/Camera_Middleware/ISP_Library/isp/Src/isp_services.c ****   * @brief  ISP_SVC_Misc_StopPreview
1476:../../Middlewares/Camera_Middleware/ISP_Library/isp/Src/isp_services.c ****   *         Stop streaming on DCMIPP Main Pipe
1477:../../Middlewares/Camera_Middleware/ISP_Library/isp/Src/isp_services.c ****   * @param  hIsp: ISP device handle
1478:../../Middlewares/Camera_Middleware/ISP_Library/isp/Src/isp_services.c ****   * @retval ISP_OK if DCMIPP is stopped successfully, ISP_FAIL otherwise
1479:../../Middlewares/Camera_Middleware/ISP_Library/isp/Src/isp_services.c ****   */
1480:../../Middlewares/Camera_Middleware/ISP_Library/isp/Src/isp_services.c **** ISP_StatusTypeDef ISP_SVC_Misc_StopPreview(ISP_HandleTypeDef *hIsp)
1481:../../Middlewares/Camera_Middleware/ISP_Library/isp/Src/isp_services.c **** {
 3643              		.loc 1 1481 1 is_stmt 1 view -0
 3644              		.cfi_startproc
 3645              		@ args = 0, pretend = 0, frame = 0
 3646              		@ frame_needed = 0, uses_anonymous_args = 0
 3647              		@ link register save eliminated.
1482:../../Middlewares/Camera_Middleware/ISP_Library/isp/Src/isp_services.c ****   /* Check handle validity */
1483:../../Middlewares/Camera_Middleware/ISP_Library/isp/Src/isp_services.c ****   if (hIsp == NULL)
 3648              		.loc 1 1483 3 view .LVU1102
 3649              		.loc 1 1483 6 is_stmt 0 view .LVU1103
 3650 0000 18B1     		cbz	r0, .L283
1484:../../Middlewares/Camera_Middleware/ISP_Library/isp/Src/isp_services.c ****   {
1485:../../Middlewares/Camera_Middleware/ISP_Library/isp/Src/isp_services.c ****     return ISP_ERR_EINVAL;
1486:../../Middlewares/Camera_Middleware/ISP_Library/isp/Src/isp_services.c ****   }
1487:../../Middlewares/Camera_Middleware/ISP_Library/isp/Src/isp_services.c **** 
1488:../../Middlewares/Camera_Middleware/ISP_Library/isp/Src/isp_services.c ****   if (hIsp->appliHelpers.StopPreview == NULL)
 3651              		.loc 1 1488 3 is_stmt 1 view .LVU1104
 3652              		.loc 1 1488 25 is_stmt 0 view .LVU1105
 3653 0002 036A     		ldr	r3, [r0, #32]
 3654              		.loc 1 1488 6 view .LVU1106
ARM GAS  C:\Users\Antonio\AppData\Local\Temp\ccF6VN3M.s 			page 100


 3655 0004 1BB1     		cbz	r3, .L284
1489:../../Middlewares/Camera_Middleware/ISP_Library/isp/Src/isp_services.c ****   {
1490:../../Middlewares/Camera_Middleware/ISP_Library/isp/Src/isp_services.c ****     return ISP_ERR_APP_HELPER_UNDEFINED;
1491:../../Middlewares/Camera_Middleware/ISP_Library/isp/Src/isp_services.c ****   }
1492:../../Middlewares/Camera_Middleware/ISP_Library/isp/Src/isp_services.c **** 
1493:../../Middlewares/Camera_Middleware/ISP_Library/isp/Src/isp_services.c ****   return hIsp->appliHelpers.StopPreview(hIsp->hDcmipp);
 3656              		.loc 1 1493 3 is_stmt 1 view .LVU1107
 3657              		.loc 1 1493 10 is_stmt 0 view .LVU1108
 3658 0006 0068     		ldr	r0, [r0]
 3659              	.LVL304:
 3660              		.loc 1 1493 10 view .LVU1109
 3661 0008 1847     		bx	r3
 3662              	.LVL305:
 3663              	.L283:
1485:../../Middlewares/Camera_Middleware/ISP_Library/isp/Src/isp_services.c ****   }
 3664              		.loc 1 1485 12 view .LVU1110
 3665 000a 0120     		movs	r0, #1
 3666              	.LVL306:
1485:../../Middlewares/Camera_Middleware/ISP_Library/isp/Src/isp_services.c ****   }
 3667              		.loc 1 1485 12 view .LVU1111
 3668 000c 7047     		bx	lr
 3669              	.LVL307:
 3670              	.L284:
1490:../../Middlewares/Camera_Middleware/ISP_Library/isp/Src/isp_services.c ****   }
 3671              		.loc 1 1490 12 view .LVU1112
 3672 000e B420     		movs	r0, #180
 3673              	.LVL308:
1494:../../Middlewares/Camera_Middleware/ISP_Library/isp/Src/isp_services.c **** }
 3674              		.loc 1 1494 1 view .LVU1113
 3675 0010 7047     		bx	lr
 3676              		.cfi_endproc
 3677              	.LFE886:
 3679              		.section	.text.ISP_SVC_Misc_StartPreview,"ax",%progbits
 3680              		.align	1
 3681              		.global	ISP_SVC_Misc_StartPreview
 3682              		.syntax unified
 3683              		.thumb
 3684              		.thumb_func
 3686              	ISP_SVC_Misc_StartPreview:
 3687              	.LVL309:
 3688              	.LFB887:
1495:../../Middlewares/Camera_Middleware/ISP_Library/isp/Src/isp_services.c **** 
1496:../../Middlewares/Camera_Middleware/ISP_Library/isp/Src/isp_services.c **** /**
1497:../../Middlewares/Camera_Middleware/ISP_Library/isp/Src/isp_services.c ****   * @brief  ISP_SVC_Misc_StartPreview
1498:../../Middlewares/Camera_Middleware/ISP_Library/isp/Src/isp_services.c ****   *         Start streaming on DCMIPP Main Pipe
1499:../../Middlewares/Camera_Middleware/ISP_Library/isp/Src/isp_services.c ****   * @param  hIsp: ISP device handle
1500:../../Middlewares/Camera_Middleware/ISP_Library/isp/Src/isp_services.c ****   * @retval ISP_OK if DCMIPP is started successfully, ISP_FAIL otherwise
1501:../../Middlewares/Camera_Middleware/ISP_Library/isp/Src/isp_services.c ****   */
1502:../../Middlewares/Camera_Middleware/ISP_Library/isp/Src/isp_services.c **** ISP_StatusTypeDef ISP_SVC_Misc_StartPreview(ISP_HandleTypeDef *hIsp)
1503:../../Middlewares/Camera_Middleware/ISP_Library/isp/Src/isp_services.c **** {
 3689              		.loc 1 1503 1 is_stmt 1 view -0
 3690              		.cfi_startproc
 3691              		@ args = 0, pretend = 0, frame = 0
 3692              		@ frame_needed = 0, uses_anonymous_args = 0
 3693              		@ link register save eliminated.
1504:../../Middlewares/Camera_Middleware/ISP_Library/isp/Src/isp_services.c ****   /* Check handle validity */
1505:../../Middlewares/Camera_Middleware/ISP_Library/isp/Src/isp_services.c ****   if (hIsp == NULL)
ARM GAS  C:\Users\Antonio\AppData\Local\Temp\ccF6VN3M.s 			page 101


 3694              		.loc 1 1505 3 view .LVU1115
 3695              		.loc 1 1505 6 is_stmt 0 view .LVU1116
 3696 0000 18B1     		cbz	r0, .L287
1506:../../Middlewares/Camera_Middleware/ISP_Library/isp/Src/isp_services.c ****   {
1507:../../Middlewares/Camera_Middleware/ISP_Library/isp/Src/isp_services.c ****     return ISP_ERR_EINVAL;
1508:../../Middlewares/Camera_Middleware/ISP_Library/isp/Src/isp_services.c ****   }
1509:../../Middlewares/Camera_Middleware/ISP_Library/isp/Src/isp_services.c **** 
1510:../../Middlewares/Camera_Middleware/ISP_Library/isp/Src/isp_services.c ****   if (hIsp->appliHelpers.StartPreview == NULL)
 3697              		.loc 1 1510 3 is_stmt 1 view .LVU1117
 3698              		.loc 1 1510 25 is_stmt 0 view .LVU1118
 3699 0002 C369     		ldr	r3, [r0, #28]
 3700              		.loc 1 1510 6 view .LVU1119
 3701 0004 1BB1     		cbz	r3, .L288
1511:../../Middlewares/Camera_Middleware/ISP_Library/isp/Src/isp_services.c ****   {
1512:../../Middlewares/Camera_Middleware/ISP_Library/isp/Src/isp_services.c ****     return ISP_ERR_APP_HELPER_UNDEFINED;
1513:../../Middlewares/Camera_Middleware/ISP_Library/isp/Src/isp_services.c ****   }
1514:../../Middlewares/Camera_Middleware/ISP_Library/isp/Src/isp_services.c **** 
1515:../../Middlewares/Camera_Middleware/ISP_Library/isp/Src/isp_services.c ****   return hIsp->appliHelpers.StartPreview(hIsp->hDcmipp);
 3702              		.loc 1 1515 3 is_stmt 1 view .LVU1120
 3703              		.loc 1 1515 10 is_stmt 0 view .LVU1121
 3704 0006 0068     		ldr	r0, [r0]
 3705              	.LVL310:
 3706              		.loc 1 1515 10 view .LVU1122
 3707 0008 1847     		bx	r3
 3708              	.LVL311:
 3709              	.L287:
1507:../../Middlewares/Camera_Middleware/ISP_Library/isp/Src/isp_services.c ****   }
 3710              		.loc 1 1507 12 view .LVU1123
 3711 000a 0120     		movs	r0, #1
 3712              	.LVL312:
1507:../../Middlewares/Camera_Middleware/ISP_Library/isp/Src/isp_services.c ****   }
 3713              		.loc 1 1507 12 view .LVU1124
 3714 000c 7047     		bx	lr
 3715              	.LVL313:
 3716              	.L288:
1512:../../Middlewares/Camera_Middleware/ISP_Library/isp/Src/isp_services.c ****   }
 3717              		.loc 1 1512 12 view .LVU1125
 3718 000e B420     		movs	r0, #180
 3719              	.LVL314:
1516:../../Middlewares/Camera_Middleware/ISP_Library/isp/Src/isp_services.c **** }
 3720              		.loc 1 1516 1 view .LVU1126
 3721 0010 7047     		bx	lr
 3722              		.cfi_endproc
 3723              	.LFE887:
 3725              		.section	.text.ISP_SVC_Misc_IsGammaEnabled,"ax",%progbits
 3726              		.align	1
 3727              		.global	ISP_SVC_Misc_IsGammaEnabled
 3728              		.syntax unified
 3729              		.thumb
 3730              		.thumb_func
 3732              	ISP_SVC_Misc_IsGammaEnabled:
 3733              	.LVL315:
 3734              	.LFB888:
1517:../../Middlewares/Camera_Middleware/ISP_Library/isp/Src/isp_services.c **** 
1518:../../Middlewares/Camera_Middleware/ISP_Library/isp/Src/isp_services.c **** /**
1519:../../Middlewares/Camera_Middleware/ISP_Library/isp/Src/isp_services.c ****   * @brief  ISP_SVC_Misc_IsGammaEnabled
1520:../../Middlewares/Camera_Middleware/ISP_Library/isp/Src/isp_services.c ****   *         Check if the gamma block is enabled
ARM GAS  C:\Users\Antonio\AppData\Local\Temp\ccF6VN3M.s 			page 102


1521:../../Middlewares/Camera_Middleware/ISP_Library/isp/Src/isp_services.c ****   * @param  hIsp: ISP device handle
1522:../../Middlewares/Camera_Middleware/ISP_Library/isp/Src/isp_services.c ****   * @param  Pipe: DCMIPP pipe line
1523:../../Middlewares/Camera_Middleware/ISP_Library/isp/Src/isp_services.c ****   * @retval 1 if enabled 0 otherwise
1524:../../Middlewares/Camera_Middleware/ISP_Library/isp/Src/isp_services.c ****   */
1525:../../Middlewares/Camera_Middleware/ISP_Library/isp/Src/isp_services.c **** bool ISP_SVC_Misc_IsGammaEnabled(ISP_HandleTypeDef *hIsp, uint32_t Pipe)
1526:../../Middlewares/Camera_Middleware/ISP_Library/isp/Src/isp_services.c **** {
 3735              		.loc 1 1526 1 is_stmt 1 view -0
 3736              		.cfi_startproc
 3737              		@ args = 0, pretend = 0, frame = 0
 3738              		@ frame_needed = 0, uses_anonymous_args = 0
1527:../../Middlewares/Camera_Middleware/ISP_Library/isp/Src/isp_services.c ****   uint8_t ret;
 3739              		.loc 1 1527 3 view .LVU1128
1528:../../Middlewares/Camera_Middleware/ISP_Library/isp/Src/isp_services.c **** 
1529:../../Middlewares/Camera_Middleware/ISP_Library/isp/Src/isp_services.c ****   /* Check handle validity */
1530:../../Middlewares/Camera_Middleware/ISP_Library/isp/Src/isp_services.c ****   if (hIsp == NULL)
 3740              		.loc 1 1530 3 view .LVU1129
1526:../../Middlewares/Camera_Middleware/ISP_Library/isp/Src/isp_services.c ****   uint8_t ret;
 3741              		.loc 1 1526 1 is_stmt 0 view .LVU1130
 3742 0000 08B5     		push	{r3, lr}
 3743              		.cfi_def_cfa_offset 8
 3744              		.cfi_offset 3, -8
 3745              		.cfi_offset 14, -4
 3746              		.loc 1 1530 6 view .LVU1131
 3747 0002 68B1     		cbz	r0, .L294
1531:../../Middlewares/Camera_Middleware/ISP_Library/isp/Src/isp_services.c ****   {
1532:../../Middlewares/Camera_Middleware/ISP_Library/isp/Src/isp_services.c ****     return ISP_ERR_EINVAL;
1533:../../Middlewares/Camera_Middleware/ISP_Library/isp/Src/isp_services.c ****   }
1534:../../Middlewares/Camera_Middleware/ISP_Library/isp/Src/isp_services.c **** 
1535:../../Middlewares/Camera_Middleware/ISP_Library/isp/Src/isp_services.c ****   switch(Pipe)
 3748              		.loc 1 1535 3 is_stmt 1 view .LVU1132
 3749 0004 0129     		cmp	r1, #1
 3750 0006 06D0     		beq	.L292
 3751 0008 0229     		cmp	r1, #2
 3752 000a 04D0     		beq	.L292
 3753 000c 0020     		movs	r0, #0
 3754              	.LVL316:
 3755              	.L293:
1536:../../Middlewares/Camera_Middleware/ISP_Library/isp/Src/isp_services.c ****   {
1537:../../Middlewares/Camera_Middleware/ISP_Library/isp/Src/isp_services.c ****   case 1:
1538:../../Middlewares/Camera_Middleware/ISP_Library/isp/Src/isp_services.c ****     ret = HAL_DCMIPP_PIPE_IsEnabledGammaConversion(hIsp->hDcmipp, DCMIPP_PIPE1);
1539:../../Middlewares/Camera_Middleware/ISP_Library/isp/Src/isp_services.c ****     break;
1540:../../Middlewares/Camera_Middleware/ISP_Library/isp/Src/isp_services.c ****   case 2:
1541:../../Middlewares/Camera_Middleware/ISP_Library/isp/Src/isp_services.c ****     ret = HAL_DCMIPP_PIPE_IsEnabledGammaConversion(hIsp->hDcmipp, DCMIPP_PIPE2);
1542:../../Middlewares/Camera_Middleware/ISP_Library/isp/Src/isp_services.c ****     break;
1543:../../Middlewares/Camera_Middleware/ISP_Library/isp/Src/isp_services.c ****   default:
1544:../../Middlewares/Camera_Middleware/ISP_Library/isp/Src/isp_services.c ****     ret = 0; /*  No gamma on pipe 0 */
1545:../../Middlewares/Camera_Middleware/ISP_Library/isp/Src/isp_services.c ****   }
1546:../../Middlewares/Camera_Middleware/ISP_Library/isp/Src/isp_services.c **** 
1547:../../Middlewares/Camera_Middleware/ISP_Library/isp/Src/isp_services.c ****   return ret;
 3756              		.loc 1 1547 3 view .LVU1133
 3757              		.loc 1 1547 10 is_stmt 0 view .LVU1134
 3758 000e 0038     		subs	r0, r0, #0
 3759              		.loc 1 1547 10 view .LVU1135
 3760 0010 18BF     		it	ne
 3761 0012 0120     		movne	r0, #1
 3762              	.LVL317:
 3763              	.L290:
ARM GAS  C:\Users\Antonio\AppData\Local\Temp\ccF6VN3M.s 			page 103


1548:../../Middlewares/Camera_Middleware/ISP_Library/isp/Src/isp_services.c **** }
 3764              		.loc 1 1548 1 view .LVU1136
 3765 0014 08BD     		pop	{r3, pc}
 3766              	.LVL318:
 3767              	.L292:
1541:../../Middlewares/Camera_Middleware/ISP_Library/isp/Src/isp_services.c ****     break;
 3768              		.loc 1 1541 5 is_stmt 1 view .LVU1137
1541:../../Middlewares/Camera_Middleware/ISP_Library/isp/Src/isp_services.c ****     break;
 3769              		.loc 1 1541 11 is_stmt 0 view .LVU1138
 3770 0016 0068     		ldr	r0, [r0]
 3771              	.LVL319:
1541:../../Middlewares/Camera_Middleware/ISP_Library/isp/Src/isp_services.c ****     break;
 3772              		.loc 1 1541 11 view .LVU1139
 3773 0018 FFF7FEFF 		bl	HAL_DCMIPP_PIPE_IsEnabledGammaConversion
 3774              	.LVL320:
1541:../../Middlewares/Camera_Middleware/ISP_Library/isp/Src/isp_services.c ****     break;
 3775              		.loc 1 1541 9 discriminator 1 view .LVU1140
 3776 001c C0B2     		uxtb	r0, r0
 3777              	.LVL321:
1542:../../Middlewares/Camera_Middleware/ISP_Library/isp/Src/isp_services.c ****   default:
 3778              		.loc 1 1542 5 is_stmt 1 view .LVU1141
 3779 001e F6E7     		b	.L293
 3780              	.LVL322:
 3781              	.L294:
1532:../../Middlewares/Camera_Middleware/ISP_Library/isp/Src/isp_services.c ****   }
 3782              		.loc 1 1532 12 is_stmt 0 view .LVU1142
 3783 0020 0120     		movs	r0, #1
 3784              	.LVL323:
1532:../../Middlewares/Camera_Middleware/ISP_Library/isp/Src/isp_services.c ****   }
 3785              		.loc 1 1532 12 view .LVU1143
 3786 0022 F7E7     		b	.L290
 3787              		.cfi_endproc
 3788              	.LFE888:
 3790              		.section	.text.ISP_SVC_ISP_SetGamma,"ax",%progbits
 3791              		.align	1
 3792              		.global	ISP_SVC_ISP_SetGamma
 3793              		.syntax unified
 3794              		.thumb
 3795              		.thumb_func
 3797              	ISP_SVC_ISP_SetGamma:
 3798              	.LVL324:
 3799              	.LFB889:
1549:../../Middlewares/Camera_Middleware/ISP_Library/isp/Src/isp_services.c **** 
1550:../../Middlewares/Camera_Middleware/ISP_Library/isp/Src/isp_services.c **** /**
1551:../../Middlewares/Camera_Middleware/ISP_Library/isp/Src/isp_services.c ****   * @brief  ISP_SVC_ISP_SetGamma
1552:../../Middlewares/Camera_Middleware/ISP_Library/isp/Src/isp_services.c ****   *         Set the Gamma on Pipe1 and/or Pipe2
1553:../../Middlewares/Camera_Middleware/ISP_Library/isp/Src/isp_services.c ****   * @param  hIsp: ISP device handle
1554:../../Middlewares/Camera_Middleware/ISP_Library/isp/Src/isp_services.c ****   * @param  pConfig: Pointer to the ISP gamma configuration
1555:../../Middlewares/Camera_Middleware/ISP_Library/isp/Src/isp_services.c ****   * @retval operation result
1556:../../Middlewares/Camera_Middleware/ISP_Library/isp/Src/isp_services.c ****   */
1557:../../Middlewares/Camera_Middleware/ISP_Library/isp/Src/isp_services.c **** ISP_StatusTypeDef ISP_SVC_ISP_SetGamma(ISP_HandleTypeDef *hIsp, ISP_GammaTypeDef *pConfig)
1558:../../Middlewares/Camera_Middleware/ISP_Library/isp/Src/isp_services.c **** {
 3800              		.loc 1 1558 1 is_stmt 1 view -0
 3801              		.cfi_startproc
 3802              		@ args = 0, pretend = 0, frame = 0
 3803              		@ frame_needed = 0, uses_anonymous_args = 0
1559:../../Middlewares/Camera_Middleware/ISP_Library/isp/Src/isp_services.c ****   if ((hIsp == NULL) || (pConfig == NULL))
ARM GAS  C:\Users\Antonio\AppData\Local\Temp\ccF6VN3M.s 			page 104


 3804              		.loc 1 1559 3 view .LVU1145
1558:../../Middlewares/Camera_Middleware/ISP_Library/isp/Src/isp_services.c ****   if ((hIsp == NULL) || (pConfig == NULL))
 3805              		.loc 1 1558 1 is_stmt 0 view .LVU1146
 3806 0000 38B5     		push	{r3, r4, r5, lr}
 3807              		.cfi_def_cfa_offset 16
 3808              		.cfi_offset 3, -16
 3809              		.cfi_offset 4, -12
 3810              		.cfi_offset 5, -8
 3811              		.cfi_offset 14, -4
1558:../../Middlewares/Camera_Middleware/ISP_Library/isp/Src/isp_services.c ****   if ((hIsp == NULL) || (pConfig == NULL))
 3812              		.loc 1 1558 1 view .LVU1147
 3813 0002 0D46     		mov	r5, r1
 3814              		.loc 1 1559 6 view .LVU1148
 3815 0004 0446     		mov	r4, r0
 3816 0006 08B9     		cbnz	r0, .L296
 3817              	.LVL325:
 3818              	.L298:
1560:../../Middlewares/Camera_Middleware/ISP_Library/isp/Src/isp_services.c ****   {
1561:../../Middlewares/Camera_Middleware/ISP_Library/isp/Src/isp_services.c ****     return ISP_ERR_DCMIPP_GAMMA;
 3819              		.loc 1 1561 12 view .LVU1149
 3820 0008 9520     		movs	r0, #149
 3821              	.L297:
1562:../../Middlewares/Camera_Middleware/ISP_Library/isp/Src/isp_services.c ****   }
1563:../../Middlewares/Camera_Middleware/ISP_Library/isp/Src/isp_services.c **** 
1564:../../Middlewares/Camera_Middleware/ISP_Library/isp/Src/isp_services.c ****   if (pConfig->enablePipe1 == 0)
1565:../../Middlewares/Camera_Middleware/ISP_Library/isp/Src/isp_services.c ****   {
1566:../../Middlewares/Camera_Middleware/ISP_Library/isp/Src/isp_services.c ****     if (HAL_DCMIPP_PIPE_DisableGammaConversion(hIsp->hDcmipp, DCMIPP_PIPE1) != HAL_OK)
1567:../../Middlewares/Camera_Middleware/ISP_Library/isp/Src/isp_services.c ****     {
1568:../../Middlewares/Camera_Middleware/ISP_Library/isp/Src/isp_services.c ****       return ISP_ERR_DCMIPP_GAMMA;
1569:../../Middlewares/Camera_Middleware/ISP_Library/isp/Src/isp_services.c ****     }
1570:../../Middlewares/Camera_Middleware/ISP_Library/isp/Src/isp_services.c ****   }
1571:../../Middlewares/Camera_Middleware/ISP_Library/isp/Src/isp_services.c ****   else
1572:../../Middlewares/Camera_Middleware/ISP_Library/isp/Src/isp_services.c ****   {
1573:../../Middlewares/Camera_Middleware/ISP_Library/isp/Src/isp_services.c ****     if (HAL_DCMIPP_PIPE_EnableGammaConversion(hIsp->hDcmipp, DCMIPP_PIPE1) != HAL_OK)
1574:../../Middlewares/Camera_Middleware/ISP_Library/isp/Src/isp_services.c ****     {
1575:../../Middlewares/Camera_Middleware/ISP_Library/isp/Src/isp_services.c ****       return ISP_ERR_DCMIPP_GAMMA;
1576:../../Middlewares/Camera_Middleware/ISP_Library/isp/Src/isp_services.c ****     }
1577:../../Middlewares/Camera_Middleware/ISP_Library/isp/Src/isp_services.c ****   }
1578:../../Middlewares/Camera_Middleware/ISP_Library/isp/Src/isp_services.c **** 
1579:../../Middlewares/Camera_Middleware/ISP_Library/isp/Src/isp_services.c ****   if (pConfig->enablePipe2 == 0)
1580:../../Middlewares/Camera_Middleware/ISP_Library/isp/Src/isp_services.c ****   {
1581:../../Middlewares/Camera_Middleware/ISP_Library/isp/Src/isp_services.c ****     if (HAL_DCMIPP_PIPE_DisableGammaConversion(hIsp->hDcmipp, DCMIPP_PIPE2) != HAL_OK)
1582:../../Middlewares/Camera_Middleware/ISP_Library/isp/Src/isp_services.c ****     {
1583:../../Middlewares/Camera_Middleware/ISP_Library/isp/Src/isp_services.c ****       return ISP_ERR_DCMIPP_GAMMA;
1584:../../Middlewares/Camera_Middleware/ISP_Library/isp/Src/isp_services.c ****     }
1585:../../Middlewares/Camera_Middleware/ISP_Library/isp/Src/isp_services.c ****   }
1586:../../Middlewares/Camera_Middleware/ISP_Library/isp/Src/isp_services.c ****   else
1587:../../Middlewares/Camera_Middleware/ISP_Library/isp/Src/isp_services.c ****   {
1588:../../Middlewares/Camera_Middleware/ISP_Library/isp/Src/isp_services.c ****     if (HAL_DCMIPP_PIPE_EnableGammaConversion(hIsp->hDcmipp, DCMIPP_PIPE2) != HAL_OK)
1589:../../Middlewares/Camera_Middleware/ISP_Library/isp/Src/isp_services.c ****     {
1590:../../Middlewares/Camera_Middleware/ISP_Library/isp/Src/isp_services.c ****       return ISP_ERR_DCMIPP_GAMMA;
1591:../../Middlewares/Camera_Middleware/ISP_Library/isp/Src/isp_services.c ****     }
1592:../../Middlewares/Camera_Middleware/ISP_Library/isp/Src/isp_services.c ****   }
1593:../../Middlewares/Camera_Middleware/ISP_Library/isp/Src/isp_services.c **** 
1594:../../Middlewares/Camera_Middleware/ISP_Library/isp/Src/isp_services.c ****   return ISP_OK;
1595:../../Middlewares/Camera_Middleware/ISP_Library/isp/Src/isp_services.c **** }
 3822              		.loc 1 1595 1 view .LVU1150
ARM GAS  C:\Users\Antonio\AppData\Local\Temp\ccF6VN3M.s 			page 105


 3823 000a 38BD     		pop	{r3, r4, r5, pc}
 3824              	.LVL326:
 3825              	.L296:
1559:../../Middlewares/Camera_Middleware/ISP_Library/isp/Src/isp_services.c ****   {
 3826              		.loc 1 1559 22 discriminator 1 view .LVU1151
 3827 000c 0029     		cmp	r1, #0
 3828 000e FBD0     		beq	.L298
1564:../../Middlewares/Camera_Middleware/ISP_Library/isp/Src/isp_services.c ****   {
 3829              		.loc 1 1564 3 is_stmt 1 view .LVU1152
1564:../../Middlewares/Camera_Middleware/ISP_Library/isp/Src/isp_services.c ****   {
 3830              		.loc 1 1564 6 is_stmt 0 view .LVU1153
 3831 0010 0B78     		ldrb	r3, [r1]	@ zero_extendqisi2
1566:../../Middlewares/Camera_Middleware/ISP_Library/isp/Src/isp_services.c ****     {
 3832              		.loc 1 1566 52 view .LVU1154
 3833 0012 0068     		ldr	r0, [r0]
 3834              	.LVL327:
1566:../../Middlewares/Camera_Middleware/ISP_Library/isp/Src/isp_services.c ****     {
 3835              		.loc 1 1566 9 view .LVU1155
 3836 0014 0121     		movs	r1, #1
 3837              	.LVL328:
1564:../../Middlewares/Camera_Middleware/ISP_Library/isp/Src/isp_services.c ****   {
 3838              		.loc 1 1564 6 view .LVU1156
 3839 0016 53B9     		cbnz	r3, .L299
1566:../../Middlewares/Camera_Middleware/ISP_Library/isp/Src/isp_services.c ****     {
 3840              		.loc 1 1566 5 is_stmt 1 view .LVU1157
1566:../../Middlewares/Camera_Middleware/ISP_Library/isp/Src/isp_services.c ****     {
 3841              		.loc 1 1566 9 is_stmt 0 view .LVU1158
 3842 0018 FFF7FEFF 		bl	HAL_DCMIPP_PIPE_DisableGammaConversion
 3843              	.LVL329:
 3844              	.L308:
1573:../../Middlewares/Camera_Middleware/ISP_Library/isp/Src/isp_services.c ****     {
 3845              		.loc 1 1573 8 discriminator 1 view .LVU1159
 3846 001c 0028     		cmp	r0, #0
 3847 001e F3D1     		bne	.L298
1579:../../Middlewares/Camera_Middleware/ISP_Library/isp/Src/isp_services.c ****   {
 3848              		.loc 1 1579 3 is_stmt 1 view .LVU1160
1579:../../Middlewares/Camera_Middleware/ISP_Library/isp/Src/isp_services.c ****   {
 3849              		.loc 1 1579 6 is_stmt 0 view .LVU1161
 3850 0020 6B78     		ldrb	r3, [r5, #1]	@ zero_extendqisi2
1581:../../Middlewares/Camera_Middleware/ISP_Library/isp/Src/isp_services.c ****     {
 3851              		.loc 1 1581 52 view .LVU1162
 3852 0022 2068     		ldr	r0, [r4]
1579:../../Middlewares/Camera_Middleware/ISP_Library/isp/Src/isp_services.c ****   {
 3853              		.loc 1 1579 6 view .LVU1163
 3854 0024 33B1     		cbz	r3, .L300
1588:../../Middlewares/Camera_Middleware/ISP_Library/isp/Src/isp_services.c ****     {
 3855              		.loc 1 1588 5 is_stmt 1 view .LVU1164
1588:../../Middlewares/Camera_Middleware/ISP_Library/isp/Src/isp_services.c ****     {
 3856              		.loc 1 1588 9 is_stmt 0 view .LVU1165
 3857 0026 0221     		movs	r1, #2
 3858 0028 FFF7FEFF 		bl	HAL_DCMIPP_PIPE_EnableGammaConversion
 3859              	.LVL330:
 3860 002c 05E0     		b	.L309
 3861              	.L299:
1573:../../Middlewares/Camera_Middleware/ISP_Library/isp/Src/isp_services.c ****     {
 3862              		.loc 1 1573 5 is_stmt 1 view .LVU1166
1573:../../Middlewares/Camera_Middleware/ISP_Library/isp/Src/isp_services.c ****     {
ARM GAS  C:\Users\Antonio\AppData\Local\Temp\ccF6VN3M.s 			page 106


 3863              		.loc 1 1573 9 is_stmt 0 view .LVU1167
 3864 002e FFF7FEFF 		bl	HAL_DCMIPP_PIPE_EnableGammaConversion
 3865              	.LVL331:
 3866 0032 F3E7     		b	.L308
 3867              	.L300:
1581:../../Middlewares/Camera_Middleware/ISP_Library/isp/Src/isp_services.c ****     {
 3868              		.loc 1 1581 5 is_stmt 1 view .LVU1168
1581:../../Middlewares/Camera_Middleware/ISP_Library/isp/Src/isp_services.c ****     {
 3869              		.loc 1 1581 9 is_stmt 0 view .LVU1169
 3870 0034 0221     		movs	r1, #2
 3871 0036 FFF7FEFF 		bl	HAL_DCMIPP_PIPE_DisableGammaConversion
 3872              	.LVL332:
 3873              	.L309:
1588:../../Middlewares/Camera_Middleware/ISP_Library/isp/Src/isp_services.c ****     {
 3874              		.loc 1 1588 8 discriminator 1 view .LVU1170
 3875 003a 0028     		cmp	r0, #0
 3876 003c E4D1     		bne	.L298
1594:../../Middlewares/Camera_Middleware/ISP_Library/isp/Src/isp_services.c **** }
 3877              		.loc 1 1594 10 view .LVU1171
 3878 003e 0020     		movs	r0, #0
 3879 0040 E3E7     		b	.L297
 3880              		.cfi_endproc
 3881              	.LFE889:
 3883              		.section	.text.ISP_SVC_Dump_GetFrame,"ax",%progbits
 3884              		.align	1
 3885              		.global	ISP_SVC_Dump_GetFrame
 3886              		.syntax unified
 3887              		.thumb
 3888              		.thumb_func
 3890              	ISP_SVC_Dump_GetFrame:
 3891              	.LVL333:
 3892              	.LFB890:
1596:../../Middlewares/Camera_Middleware/ISP_Library/isp/Src/isp_services.c **** 
1597:../../Middlewares/Camera_Middleware/ISP_Library/isp/Src/isp_services.c **** /**
1598:../../Middlewares/Camera_Middleware/ISP_Library/isp/Src/isp_services.c ****   * @brief  ISP_SVC_Dump_GetFrame
1599:../../Middlewares/Camera_Middleware/ISP_Library/isp/Src/isp_services.c ****   *         Dump a frame
1600:../../Middlewares/Camera_Middleware/ISP_Library/isp/Src/isp_services.c ****   * @param  hIsp: ISP device handle
1601:../../Middlewares/Camera_Middleware/ISP_Library/isp/Src/isp_services.c ****   * @param  pBuffer: pointer to the address of the dumped buffer
1602:../../Middlewares/Camera_Middleware/ISP_Library/isp/Src/isp_services.c ****   * @param  pMeta: buffer meta data
1603:../../Middlewares/Camera_Middleware/ISP_Library/isp/Src/isp_services.c ****   * @param  DumpConfig: Type of dump configuration requested
1604:../../Middlewares/Camera_Middleware/ISP_Library/isp/Src/isp_services.c ****   * @retval ISP_OK if DCMIPP is running, ISP_FAIL otherwise
1605:../../Middlewares/Camera_Middleware/ISP_Library/isp/Src/isp_services.c ****   */
1606:../../Middlewares/Camera_Middleware/ISP_Library/isp/Src/isp_services.c **** ISP_StatusTypeDef ISP_SVC_Dump_GetFrame(ISP_HandleTypeDef *hIsp, uint32_t **pBuffer, ISP_DumpCfgTyp
1607:../../Middlewares/Camera_Middleware/ISP_Library/isp/Src/isp_services.c **** {
 3893              		.loc 1 1607 1 is_stmt 1 view -0
 3894              		.cfi_startproc
 3895              		@ args = 0, pretend = 0, frame = 0
 3896              		@ frame_needed = 0, uses_anonymous_args = 0
1608:../../Middlewares/Camera_Middleware/ISP_Library/isp/Src/isp_services.c ****   uint32_t DumpPipe;
 3897              		.loc 1 1608 3 view .LVU1173
1609:../../Middlewares/Camera_Middleware/ISP_Library/isp/Src/isp_services.c **** 
1610:../../Middlewares/Camera_Middleware/ISP_Library/isp/Src/isp_services.c ****   /* Check handle validity */
1611:../../Middlewares/Camera_Middleware/ISP_Library/isp/Src/isp_services.c ****   if ((hIsp == NULL) || (pBuffer == NULL) || (pMeta == NULL))
 3898              		.loc 1 1611 3 view .LVU1174
1607:../../Middlewares/Camera_Middleware/ISP_Library/isp/Src/isp_services.c ****   uint32_t DumpPipe;
 3899              		.loc 1 1607 1 is_stmt 0 view .LVU1175
 3900 0000 37B5     		push	{r0, r1, r2, r4, r5, lr}
ARM GAS  C:\Users\Antonio\AppData\Local\Temp\ccF6VN3M.s 			page 107


 3901              		.cfi_def_cfa_offset 24
 3902              		.cfi_offset 4, -12
 3903              		.cfi_offset 5, -8
 3904              		.cfi_offset 14, -4
 3905              		.loc 1 1611 6 view .LVU1176
 3906 0002 68B1     		cbz	r0, .L314
 3907              		.loc 1 1611 22 discriminator 1 view .LVU1177
 3908 0004 61B1     		cbz	r1, .L314
 3909              		.loc 1 1611 43 discriminator 2 view .LVU1178
 3910 0006 5BB1     		cbz	r3, .L314
1612:../../Middlewares/Camera_Middleware/ISP_Library/isp/Src/isp_services.c ****   {
1613:../../Middlewares/Camera_Middleware/ISP_Library/isp/Src/isp_services.c ****     return ISP_ERR_EINVAL;
1614:../../Middlewares/Camera_Middleware/ISP_Library/isp/Src/isp_services.c ****   }
1615:../../Middlewares/Camera_Middleware/ISP_Library/isp/Src/isp_services.c **** 
1616:../../Middlewares/Camera_Middleware/ISP_Library/isp/Src/isp_services.c ****   if (hIsp->appliHelpers.DumpFrame == NULL)
 3911              		.loc 1 1616 3 is_stmt 1 view .LVU1179
 3912              		.loc 1 1616 25 is_stmt 0 view .LVU1180
 3913 0008 456A     		ldr	r5, [r0, #36]
 3914              		.loc 1 1616 6 view .LVU1181
 3915 000a 5DB1     		cbz	r5, .L315
1617:../../Middlewares/Camera_Middleware/ISP_Library/isp/Src/isp_services.c ****   {
1618:../../Middlewares/Camera_Middleware/ISP_Library/isp/Src/isp_services.c ****     return ISP_ERR_APP_HELPER_UNDEFINED;
1619:../../Middlewares/Camera_Middleware/ISP_Library/isp/Src/isp_services.c ****   }
1620:../../Middlewares/Camera_Middleware/ISP_Library/isp/Src/isp_services.c **** 
1621:../../Middlewares/Camera_Middleware/ISP_Library/isp/Src/isp_services.c **** 
1622:../../Middlewares/Camera_Middleware/ISP_Library/isp/Src/isp_services.c ****   if (DumpConfig == ISP_DUMP_CFG_DUMP_PIPE_SENSOR) {
 3916              		.loc 1 1622 3 is_stmt 1 view .LVU1182
 3917              	.LVL334:
1623:../../Middlewares/Camera_Middleware/ISP_Library/isp/Src/isp_services.c ****     /* Dump the frame on pipe0 in its native RAW format */
1624:../../Middlewares/Camera_Middleware/ISP_Library/isp/Src/isp_services.c ****     DumpPipe = DCMIPP_PIPE0;
1625:../../Middlewares/Camera_Middleware/ISP_Library/isp/Src/isp_services.c ****   }
1626:../../Middlewares/Camera_Middleware/ISP_Library/isp/Src/isp_services.c ****   else if (DumpConfig == ISP_DUMP_CFG_FULLSIZE_RGB888) {
1627:../../Middlewares/Camera_Middleware/ISP_Library/isp/Src/isp_services.c ****     /* Dump the full frame on pipe2 */
1628:../../Middlewares/Camera_Middleware/ISP_Library/isp/Src/isp_services.c ****     DumpPipe = DCMIPP_PIPE2;
1629:../../Middlewares/Camera_Middleware/ISP_Library/isp/Src/isp_services.c ****   }
1630:../../Middlewares/Camera_Middleware/ISP_Library/isp/Src/isp_services.c ****   else {
1631:../../Middlewares/Camera_Middleware/ISP_Library/isp/Src/isp_services.c ****     /* Live Streaming dump on pipe2 in its default configuration */
1632:../../Middlewares/Camera_Middleware/ISP_Library/isp/Src/isp_services.c ****     DumpPipe = DCMIPP_PIPE2;
1633:../../Middlewares/Camera_Middleware/ISP_Library/isp/Src/isp_services.c ****   }
1634:../../Middlewares/Camera_Middleware/ISP_Library/isp/Src/isp_services.c **** 
1635:../../Middlewares/Camera_Middleware/ISP_Library/isp/Src/isp_services.c ****   /* Call the DumpFrame application function */
1636:../../Middlewares/Camera_Middleware/ISP_Library/isp/Src/isp_services.c ****   return hIsp->appliHelpers.DumpFrame(hIsp->hDcmipp, DumpPipe, DumpConfig, pBuffer, pMeta);
 3918              		.loc 1 1636 3 view .LVU1183
1622:../../Middlewares/Camera_Middleware/ISP_Library/isp/Src/isp_services.c ****     /* Dump the frame on pipe0 in its native RAW format */
 3919              		.loc 1 1622 6 is_stmt 0 view .LVU1184
 3920 000c 941E     		subs	r4, r2, #2
 3921 000e 18BF     		it	ne
 3922 0010 0124     		movne	r4, #1
 3923              		.loc 1 1636 10 view .LVU1185
 3924 0012 0093     		str	r3, [sp]
 3925 0014 0068     		ldr	r0, [r0]
 3926              	.LVL335:
 3927              		.loc 1 1636 10 view .LVU1186
 3928 0016 0B46     		mov	r3, r1
 3929              	.LVL336:
 3930              		.loc 1 1636 10 view .LVU1187
 3931 0018 6100     		lsls	r1, r4, #1
ARM GAS  C:\Users\Antonio\AppData\Local\Temp\ccF6VN3M.s 			page 108


 3932              	.LVL337:
 3933              		.loc 1 1636 10 view .LVU1188
 3934 001a A847     		blx	r5
 3935              	.LVL338:
 3936              	.L311:
1637:../../Middlewares/Camera_Middleware/ISP_Library/isp/Src/isp_services.c **** }
 3937              		.loc 1 1637 1 view .LVU1189
 3938 001c 03B0     		add	sp, sp, #12
 3939              		.cfi_remember_state
 3940              		.cfi_def_cfa_offset 12
 3941              		@ sp needed
 3942 001e 30BD     		pop	{r4, r5, pc}
 3943              	.LVL339:
 3944              	.L314:
 3945              		.cfi_restore_state
1613:../../Middlewares/Camera_Middleware/ISP_Library/isp/Src/isp_services.c ****   }
 3946              		.loc 1 1613 12 view .LVU1190
 3947 0020 0120     		movs	r0, #1
 3948              	.LVL340:
1613:../../Middlewares/Camera_Middleware/ISP_Library/isp/Src/isp_services.c ****   }
 3949              		.loc 1 1613 12 view .LVU1191
 3950 0022 FBE7     		b	.L311
 3951              	.LVL341:
 3952              	.L315:
1618:../../Middlewares/Camera_Middleware/ISP_Library/isp/Src/isp_services.c ****   }
 3953              		.loc 1 1618 12 view .LVU1192
 3954 0024 B420     		movs	r0, #180
 3955              	.LVL342:
1618:../../Middlewares/Camera_Middleware/ISP_Library/isp/Src/isp_services.c ****   }
 3956              		.loc 1 1618 12 view .LVU1193
 3957 0026 F9E7     		b	.L311
 3958              		.cfi_endproc
 3959              	.LFE890:
 3961              		.section	.text.ISP_SVC_IQParam_Init,"ax",%progbits
 3962              		.align	1
 3963              		.global	ISP_SVC_IQParam_Init
 3964              		.syntax unified
 3965              		.thumb
 3966              		.thumb_func
 3968              	ISP_SVC_IQParam_Init:
 3969              	.LVL343:
 3970              	.LFB891:
1638:../../Middlewares/Camera_Middleware/ISP_Library/isp/Src/isp_services.c **** 
1639:../../Middlewares/Camera_Middleware/ISP_Library/isp/Src/isp_services.c **** /**
1640:../../Middlewares/Camera_Middleware/ISP_Library/isp/Src/isp_services.c ****   * @brief  ISP_SVC_IQParam_Init
1641:../../Middlewares/Camera_Middleware/ISP_Library/isp/Src/isp_services.c ****   *         Initialize the IQ parameters cache with values from non volatile memory
1642:../../Middlewares/Camera_Middleware/ISP_Library/isp/Src/isp_services.c ****   * @param  hIsp: ISP device handle
1643:../../Middlewares/Camera_Middleware/ISP_Library/isp/Src/isp_services.c ****   * @retval ISP status
1644:../../Middlewares/Camera_Middleware/ISP_Library/isp/Src/isp_services.c ****   */
1645:../../Middlewares/Camera_Middleware/ISP_Library/isp/Src/isp_services.c **** ISP_StatusTypeDef ISP_SVC_IQParam_Init(ISP_HandleTypeDef *hIsp, const ISP_IQParamTypeDef *ISP_IQPar
1646:../../Middlewares/Camera_Middleware/ISP_Library/isp/Src/isp_services.c **** {
 3971              		.loc 1 1646 1 is_stmt 1 view -0
 3972              		.cfi_startproc
 3973              		@ args = 0, pretend = 0, frame = 0
 3974              		@ frame_needed = 0, uses_anonymous_args = 0
1647:../../Middlewares/Camera_Middleware/ISP_Library/isp/Src/isp_services.c ****   (void)hIsp; /* unused */
 3975              		.loc 1 1647 3 view .LVU1195
ARM GAS  C:\Users\Antonio\AppData\Local\Temp\ccF6VN3M.s 			page 109


1648:../../Middlewares/Camera_Middleware/ISP_Library/isp/Src/isp_services.c **** 
1649:../../Middlewares/Camera_Middleware/ISP_Library/isp/Src/isp_services.c ****   ISP_IQParamCache = *ISP_IQParamCacheInit;
 3976              		.loc 1 1649 3 view .LVU1196
1646:../../Middlewares/Camera_Middleware/ISP_Library/isp/Src/isp_services.c ****   (void)hIsp; /* unused */
 3977              		.loc 1 1646 1 is_stmt 0 view .LVU1197
 3978 0000 08B5     		push	{r3, lr}
 3979              		.cfi_def_cfa_offset 8
 3980              		.cfi_offset 3, -8
 3981              		.cfi_offset 14, -4
 3982              		.loc 1 1649 20 view .LVU1198
 3983 0002 4FF41672 		mov	r2, #600
 3984 0006 0248     		ldr	r0, .L317
 3985              	.LVL344:
 3986              		.loc 1 1649 20 view .LVU1199
 3987 0008 FFF7FEFF 		bl	memcpy
 3988              	.LVL345:
1650:../../Middlewares/Camera_Middleware/ISP_Library/isp/Src/isp_services.c ****   return ISP_OK;
 3989              		.loc 1 1650 3 is_stmt 1 view .LVU1200
1651:../../Middlewares/Camera_Middleware/ISP_Library/isp/Src/isp_services.c **** }
 3990              		.loc 1 1651 1 is_stmt 0 view .LVU1201
 3991 000c 0020     		movs	r0, #0
 3992 000e 08BD     		pop	{r3, pc}
 3993              	.L318:
 3994              		.align	2
 3995              	.L317:
 3996 0010 00000000 		.word	ISP_IQParamCache
 3997              		.cfi_endproc
 3998              	.LFE891:
 4000              		.section	.text.ISP_SVC_IQParam_Get,"ax",%progbits
 4001              		.align	1
 4002              		.global	ISP_SVC_IQParam_Get
 4003              		.syntax unified
 4004              		.thumb
 4005              		.thumb_func
 4007              	ISP_SVC_IQParam_Get:
 4008              	.LVL346:
 4009              	.LFB892:
1652:../../Middlewares/Camera_Middleware/ISP_Library/isp/Src/isp_services.c **** 
1653:../../Middlewares/Camera_Middleware/ISP_Library/isp/Src/isp_services.c **** /**
1654:../../Middlewares/Camera_Middleware/ISP_Library/isp/Src/isp_services.c ****   * @brief  ISP_SVC_IQParam_Get
1655:../../Middlewares/Camera_Middleware/ISP_Library/isp/Src/isp_services.c ****   *         Get the pointer to the IQ parameters cache
1656:../../Middlewares/Camera_Middleware/ISP_Library/isp/Src/isp_services.c ****   * @param  hIsp: ISP device handle
1657:../../Middlewares/Camera_Middleware/ISP_Library/isp/Src/isp_services.c ****   * @retval Pointer to the IQ Param config
1658:../../Middlewares/Camera_Middleware/ISP_Library/isp/Src/isp_services.c ****   */
1659:../../Middlewares/Camera_Middleware/ISP_Library/isp/Src/isp_services.c **** ISP_IQParamTypeDef *ISP_SVC_IQParam_Get(ISP_HandleTypeDef *hIsp)
1660:../../Middlewares/Camera_Middleware/ISP_Library/isp/Src/isp_services.c **** {
 4010              		.loc 1 1660 1 is_stmt 1 view -0
 4011              		.cfi_startproc
 4012              		@ args = 0, pretend = 0, frame = 0
 4013              		@ frame_needed = 0, uses_anonymous_args = 0
 4014              		@ link register save eliminated.
1661:../../Middlewares/Camera_Middleware/ISP_Library/isp/Src/isp_services.c ****   (void)hIsp; /* unused */
 4015              		.loc 1 1661 3 view .LVU1203
1662:../../Middlewares/Camera_Middleware/ISP_Library/isp/Src/isp_services.c **** 
1663:../../Middlewares/Camera_Middleware/ISP_Library/isp/Src/isp_services.c ****   return &ISP_IQParamCache;
 4016              		.loc 1 1663 3 view .LVU1204
1664:../../Middlewares/Camera_Middleware/ISP_Library/isp/Src/isp_services.c **** }
ARM GAS  C:\Users\Antonio\AppData\Local\Temp\ccF6VN3M.s 			page 110


 4017              		.loc 1 1664 1 is_stmt 0 view .LVU1205
 4018 0000 0048     		ldr	r0, .L320
 4019              	.LVL347:
 4020              		.loc 1 1664 1 view .LVU1206
 4021 0002 7047     		bx	lr
 4022              	.L321:
 4023              		.align	2
 4024              	.L320:
 4025 0004 00000000 		.word	ISP_IQParamCache
 4026              		.cfi_endproc
 4027              	.LFE892:
 4029              		.section	.text.ISP_SVC_Stats_Init,"ax",%progbits
 4030              		.align	1
 4031              		.global	ISP_SVC_Stats_Init
 4032              		.syntax unified
 4033              		.thumb
 4034              		.thumb_func
 4036              	ISP_SVC_Stats_Init:
 4037              	.LVL348:
 4038              	.LFB893:
1665:../../Middlewares/Camera_Middleware/ISP_Library/isp/Src/isp_services.c **** 
1666:../../Middlewares/Camera_Middleware/ISP_Library/isp/Src/isp_services.c **** /**
1667:../../Middlewares/Camera_Middleware/ISP_Library/isp/Src/isp_services.c ****   * @brief  ISP_SVC_Stats_Init
1668:../../Middlewares/Camera_Middleware/ISP_Library/isp/Src/isp_services.c ****   *         Initialize the statistic engine
1669:../../Middlewares/Camera_Middleware/ISP_Library/isp/Src/isp_services.c ****   * @param  hIsp: ISP device handle
1670:../../Middlewares/Camera_Middleware/ISP_Library/isp/Src/isp_services.c ****   * @retval None
1671:../../Middlewares/Camera_Middleware/ISP_Library/isp/Src/isp_services.c ****   */
1672:../../Middlewares/Camera_Middleware/ISP_Library/isp/Src/isp_services.c **** void ISP_SVC_Stats_Init(ISP_HandleTypeDef *hIsp)
1673:../../Middlewares/Camera_Middleware/ISP_Library/isp/Src/isp_services.c **** {
 4039              		.loc 1 1673 1 is_stmt 1 view -0
 4040              		.cfi_startproc
 4041              		@ args = 0, pretend = 0, frame = 0
 4042              		@ frame_needed = 0, uses_anonymous_args = 0
 4043              		@ link register save eliminated.
1674:../../Middlewares/Camera_Middleware/ISP_Library/isp/Src/isp_services.c ****   memset(&ISP_SVC_StatEngine, 0, sizeof(ISP_SVC_StatEngineTypeDef));
 4044              		.loc 1 1674 3 view .LVU1208
 4045 0000 4FF4B072 		mov	r2, #352
 4046 0004 0021     		movs	r1, #0
 4047 0006 0148     		ldr	r0, .L323
 4048              	.LVL349:
 4049              		.loc 1 1674 3 is_stmt 0 view .LVU1209
 4050 0008 FFF7FEBF 		b	memset
 4051              	.LVL350:
 4052              	.L324:
 4053              		.align	2
 4054              	.L323:
 4055 000c 00000000 		.word	ISP_SVC_StatEngine
 4056              		.cfi_endproc
 4057              	.LFE893:
 4059              		.section	.rodata.ISP_SVC_Stats_Gather.str1.1,"aMS",%progbits,1
 4060              	.LC0:
 4061 0000 4552524F 		.ascii	"ERROR: ISP handle is NULL\015\000"
 4061      523A2049 
 4061      53502068 
 4061      616E646C 
 4061      65206973 
 4062              	.LC1:
ARM GAS  C:\Users\Antonio\AppData\Local\Temp\ccF6VN3M.s 			page 111


 4063 001b 4552524F 		.ascii	"ERROR: can't set Statistic Extraction config\015\000"
 4063      523A2063 
 4063      616E2774 
 4063      20736574 
 4063      20537461 
 4064              	.LC2:
 4065 0049 4552524F 		.ascii	"ERROR: can't enable Statistic Extraction config\015"
 4065      523A2063 
 4065      616E2774 
 4065      20656E61 
 4065      626C6520 
 4066 0079 00       		.ascii	"\000"
 4067              		.section	.text.ISP_SVC_Stats_Gather,"ax",%progbits
 4068              		.align	1
 4069              		.global	ISP_SVC_Stats_Gather
 4070              		.syntax unified
 4071              		.thumb
 4072              		.thumb_func
 4074              	ISP_SVC_Stats_Gather:
 4075              	.LVL351:
 4076              	.LFB894:
1675:../../Middlewares/Camera_Middleware/ISP_Library/isp/Src/isp_services.c **** }
1676:../../Middlewares/Camera_Middleware/ISP_Library/isp/Src/isp_services.c **** 
1677:../../Middlewares/Camera_Middleware/ISP_Library/isp/Src/isp_services.c **** /**
1678:../../Middlewares/Camera_Middleware/ISP_Library/isp/Src/isp_services.c ****   * @brief  ISP_SVC_Stats_Gather
1679:../../Middlewares/Camera_Middleware/ISP_Library/isp/Src/isp_services.c ****   *         Gather statistics
1680:../../Middlewares/Camera_Middleware/ISP_Library/isp/Src/isp_services.c ****   * @param  hIsp: ISP device handle
1681:../../Middlewares/Camera_Middleware/ISP_Library/isp/Src/isp_services.c ****   * @retval None
1682:../../Middlewares/Camera_Middleware/ISP_Library/isp/Src/isp_services.c ****   */
1683:../../Middlewares/Camera_Middleware/ISP_Library/isp/Src/isp_services.c **** void ISP_SVC_Stats_Gather(ISP_HandleTypeDef *hIsp)
1684:../../Middlewares/Camera_Middleware/ISP_Library/isp/Src/isp_services.c **** {
 4077              		.loc 1 1684 1 is_stmt 1 view -0
 4078              		.cfi_startproc
 4079              		@ args = 0, pretend = 0, frame = 48
 4080              		@ frame_needed = 0, uses_anonymous_args = 0
1685:../../Middlewares/Camera_Middleware/ISP_Library/isp/Src/isp_services.c ****   static ISP_SVC_StatEngineStage stagePrevious1 = ISP_STAT_CFG_LAST, stagePrevious2 = ISP_STAT_CFG_
 4081              		.loc 1 1685 3 view .LVU1211
1686:../../Middlewares/Camera_Middleware/ISP_Library/isp/Src/isp_services.c ****   DCMIPP_StatisticExtractionConfTypeDef statConf[3];
 4082              		.loc 1 1686 3 view .LVU1212
1687:../../Middlewares/Camera_Middleware/ISP_Library/isp/Src/isp_services.c ****   ISP_IQParamTypeDef *IQParamConfig;
 4083              		.loc 1 1687 3 view .LVU1213
1688:../../Middlewares/Camera_Middleware/ISP_Library/isp/Src/isp_services.c ****   ISP_SVC_StatStateTypeDef *ongoing;
 4084              		.loc 1 1688 3 view .LVU1214
1689:../../Middlewares/Camera_Middleware/ISP_Library/isp/Src/isp_services.c ****   uint32_t i, avgR, avgG, avgB, frameId;
 4085              		.loc 1 1689 3 view .LVU1215
1690:../../Middlewares/Camera_Middleware/ISP_Library/isp/Src/isp_services.c **** 
1691:../../Middlewares/Camera_Middleware/ISP_Library/isp/Src/isp_services.c ****   /* Check handle validity */
1692:../../Middlewares/Camera_Middleware/ISP_Library/isp/Src/isp_services.c ****   if (hIsp == NULL)
 4086              		.loc 1 1692 3 view .LVU1216
1684:../../Middlewares/Camera_Middleware/ISP_Library/isp/Src/isp_services.c ****   static ISP_SVC_StatEngineStage stagePrevious1 = ISP_STAT_CFG_LAST, stagePrevious2 = ISP_STAT_CFG_
 4087              		.loc 1 1684 1 is_stmt 0 view .LVU1217
 4088 0000 2DE9F04F 		push	{r4, r5, r6, r7, r8, r9, r10, fp, lr}
 4089              		.cfi_def_cfa_offset 36
 4090              		.cfi_offset 4, -36
 4091              		.cfi_offset 5, -32
 4092              		.cfi_offset 6, -28
 4093              		.cfi_offset 7, -24
ARM GAS  C:\Users\Antonio\AppData\Local\Temp\ccF6VN3M.s 			page 112


 4094              		.cfi_offset 8, -20
 4095              		.cfi_offset 9, -16
 4096              		.cfi_offset 10, -12
 4097              		.cfi_offset 11, -8
 4098              		.cfi_offset 14, -4
 4099              		.loc 1 1692 6 view .LVU1218
 4100 0004 0546     		mov	r5, r0
1684:../../Middlewares/Camera_Middleware/ISP_Library/isp/Src/isp_services.c ****   static ISP_SVC_StatEngineStage stagePrevious1 = ISP_STAT_CFG_LAST, stagePrevious2 = ISP_STAT_CFG_
 4101              		.loc 1 1684 1 view .LVU1219
 4102 0006 8DB0     		sub	sp, sp, #52
 4103              		.cfi_def_cfa_offset 88
 4104              		.loc 1 1692 6 view .LVU1220
 4105 0008 28B9     		cbnz	r0, .L326
1693:../../Middlewares/Camera_Middleware/ISP_Library/isp/Src/isp_services.c ****   {
1694:../../Middlewares/Camera_Middleware/ISP_Library/isp/Src/isp_services.c ****     printf("ERROR: ISP handle is NULL\r\n");
 4106              		.loc 1 1694 5 is_stmt 1 view .LVU1221
 4107 000a AA48     		ldr	r0, .L412
 4108              	.LVL352:
1695:../../Middlewares/Camera_Middleware/ISP_Library/isp/Src/isp_services.c ****     return;
1696:../../Middlewares/Camera_Middleware/ISP_Library/isp/Src/isp_services.c ****   }
1697:../../Middlewares/Camera_Middleware/ISP_Library/isp/Src/isp_services.c **** 
1698:../../Middlewares/Camera_Middleware/ISP_Library/isp/Src/isp_services.c ****   if (hIsp->hDcmipp == NULL)
1699:../../Middlewares/Camera_Middleware/ISP_Library/isp/Src/isp_services.c ****   {
1700:../../Middlewares/Camera_Middleware/ISP_Library/isp/Src/isp_services.c ****     /* ISP is not initialized
1701:../../Middlewares/Camera_Middleware/ISP_Library/isp/Src/isp_services.c ****      * This situation happens when the ISP is de-initialized and interrupts still activated.
1702:../../Middlewares/Camera_Middleware/ISP_Library/isp/Src/isp_services.c ****      */
1703:../../Middlewares/Camera_Middleware/ISP_Library/isp/Src/isp_services.c ****     return;
1704:../../Middlewares/Camera_Middleware/ISP_Library/isp/Src/isp_services.c ****   }
1705:../../Middlewares/Camera_Middleware/ISP_Library/isp/Src/isp_services.c **** 
1706:../../Middlewares/Camera_Middleware/ISP_Library/isp/Src/isp_services.c ****   /* Read the stats according to the configuration applied 2 VSYNC (shadow register + stat computat
1707:../../Middlewares/Camera_Middleware/ISP_Library/isp/Src/isp_services.c ****    * stages earlier.
1708:../../Middlewares/Camera_Middleware/ISP_Library/isp/Src/isp_services.c ****    */
1709:../../Middlewares/Camera_Middleware/ISP_Library/isp/Src/isp_services.c ****   ongoing = &ISP_SVC_StatEngine.ongoing;
1710:../../Middlewares/Camera_Middleware/ISP_Library/isp/Src/isp_services.c ****   switch(stagePrevious2)
1711:../../Middlewares/Camera_Middleware/ISP_Library/isp/Src/isp_services.c ****   {
1712:../../Middlewares/Camera_Middleware/ISP_Library/isp/Src/isp_services.c ****   case ISP_STAT_CFG_UP_AVG:
1713:../../Middlewares/Camera_Middleware/ISP_Library/isp/Src/isp_services.c ****     HAL_DCMIPP_PIPE_GetISPAccumulatedStatisticsCounter(hIsp->hDcmipp, DCMIPP_PIPE1, DCMIPP_STATEXT_
1714:../../Middlewares/Camera_Middleware/ISP_Library/isp/Src/isp_services.c ****     HAL_DCMIPP_PIPE_GetISPAccumulatedStatisticsCounter(hIsp->hDcmipp, DCMIPP_PIPE1, DCMIPP_STATEXT_
1715:../../Middlewares/Camera_Middleware/ISP_Library/isp/Src/isp_services.c ****     HAL_DCMIPP_PIPE_GetISPAccumulatedStatisticsCounter(hIsp->hDcmipp, DCMIPP_PIPE1, DCMIPP_STATEXT_
1716:../../Middlewares/Camera_Middleware/ISP_Library/isp/Src/isp_services.c **** 
1717:../../Middlewares/Camera_Middleware/ISP_Library/isp/Src/isp_services.c ****     ongoing->up.averageR = GetAvgStats(hIsp, ISP_STAT_LOC_UP, ISP_RED, avgR);
1718:../../Middlewares/Camera_Middleware/ISP_Library/isp/Src/isp_services.c ****     ongoing->up.averageG = GetAvgStats(hIsp, ISP_STAT_LOC_UP, ISP_GREEN, avgG);
1719:../../Middlewares/Camera_Middleware/ISP_Library/isp/Src/isp_services.c ****     ongoing->up.averageB = GetAvgStats(hIsp, ISP_STAT_LOC_UP, ISP_BLUE, avgB);
1720:../../Middlewares/Camera_Middleware/ISP_Library/isp/Src/isp_services.c ****     ongoing->up.averageL = LuminanceFromRGB(ongoing->up.averageR, ongoing->up.averageG, ongoing->up
1721:../../Middlewares/Camera_Middleware/ISP_Library/isp/Src/isp_services.c ****     break;
1722:../../Middlewares/Camera_Middleware/ISP_Library/isp/Src/isp_services.c **** 
1723:../../Middlewares/Camera_Middleware/ISP_Library/isp/Src/isp_services.c ****   case ISP_STAT_CFG_UP_BINS_0_2:
1724:../../Middlewares/Camera_Middleware/ISP_Library/isp/Src/isp_services.c ****     ReadStatHistogram(hIsp, &ongoing->up.histogram[0]);
1725:../../Middlewares/Camera_Middleware/ISP_Library/isp/Src/isp_services.c ****     break;
1726:../../Middlewares/Camera_Middleware/ISP_Library/isp/Src/isp_services.c **** 
1727:../../Middlewares/Camera_Middleware/ISP_Library/isp/Src/isp_services.c ****   case ISP_STAT_CFG_UP_BINS_3_5:
1728:../../Middlewares/Camera_Middleware/ISP_Library/isp/Src/isp_services.c ****     ReadStatHistogram(hIsp, &ongoing->up.histogram[3]);
1729:../../Middlewares/Camera_Middleware/ISP_Library/isp/Src/isp_services.c ****     break;
1730:../../Middlewares/Camera_Middleware/ISP_Library/isp/Src/isp_services.c **** 
1731:../../Middlewares/Camera_Middleware/ISP_Library/isp/Src/isp_services.c ****   case ISP_STAT_CFG_UP_BINS_6_8:
1732:../../Middlewares/Camera_Middleware/ISP_Library/isp/Src/isp_services.c ****     ReadStatHistogram(hIsp, &ongoing->up.histogram[6]);
1733:../../Middlewares/Camera_Middleware/ISP_Library/isp/Src/isp_services.c ****     break;
ARM GAS  C:\Users\Antonio\AppData\Local\Temp\ccF6VN3M.s 			page 113


1734:../../Middlewares/Camera_Middleware/ISP_Library/isp/Src/isp_services.c **** 
1735:../../Middlewares/Camera_Middleware/ISP_Library/isp/Src/isp_services.c ****   case ISP_STAT_CFG_UP_BINS_9_11:
1736:../../Middlewares/Camera_Middleware/ISP_Library/isp/Src/isp_services.c ****     ReadStatHistogram(hIsp, &ongoing->up.histogram[9]);
1737:../../Middlewares/Camera_Middleware/ISP_Library/isp/Src/isp_services.c ****     break;
1738:../../Middlewares/Camera_Middleware/ISP_Library/isp/Src/isp_services.c **** 
1739:../../Middlewares/Camera_Middleware/ISP_Library/isp/Src/isp_services.c ****   case ISP_STAT_CFG_DOWN_AVG:
1740:../../Middlewares/Camera_Middleware/ISP_Library/isp/Src/isp_services.c ****     HAL_DCMIPP_PIPE_GetISPAccumulatedStatisticsCounter(hIsp->hDcmipp, DCMIPP_PIPE1, DCMIPP_STATEXT_
1741:../../Middlewares/Camera_Middleware/ISP_Library/isp/Src/isp_services.c ****     HAL_DCMIPP_PIPE_GetISPAccumulatedStatisticsCounter(hIsp->hDcmipp, DCMIPP_PIPE1, DCMIPP_STATEXT_
1742:../../Middlewares/Camera_Middleware/ISP_Library/isp/Src/isp_services.c ****     HAL_DCMIPP_PIPE_GetISPAccumulatedStatisticsCounter(hIsp->hDcmipp, DCMIPP_PIPE1, DCMIPP_STATEXT_
1743:../../Middlewares/Camera_Middleware/ISP_Library/isp/Src/isp_services.c **** 
1744:../../Middlewares/Camera_Middleware/ISP_Library/isp/Src/isp_services.c ****     ongoing->down.averageR = GetAvgStats(hIsp, ISP_STAT_LOC_DOWN, ISP_RED, avgR);
1745:../../Middlewares/Camera_Middleware/ISP_Library/isp/Src/isp_services.c ****     ongoing->down.averageG = GetAvgStats(hIsp, ISP_STAT_LOC_DOWN, ISP_GREEN, avgG);
1746:../../Middlewares/Camera_Middleware/ISP_Library/isp/Src/isp_services.c ****     ongoing->down.averageB = GetAvgStats(hIsp, ISP_STAT_LOC_DOWN, ISP_BLUE, avgB);
1747:../../Middlewares/Camera_Middleware/ISP_Library/isp/Src/isp_services.c ****     IQParamConfig = ISP_SVC_IQParam_Get(hIsp);
1748:../../Middlewares/Camera_Middleware/ISP_Library/isp/Src/isp_services.c ****     if ((hIsp->sensorInfo.bayer_pattern == ISP_DEMOS_TYPE_MONO) || (!IQParamConfig->demosaicing.ena
1749:../../Middlewares/Camera_Middleware/ISP_Library/isp/Src/isp_services.c ****     {
1750:../../Middlewares/Camera_Middleware/ISP_Library/isp/Src/isp_services.c ****       ongoing->down.averageL = LuminanceFromRGBMono(ongoing->down.averageR, ongoing->down.averageG,
1751:../../Middlewares/Camera_Middleware/ISP_Library/isp/Src/isp_services.c ****     }
1752:../../Middlewares/Camera_Middleware/ISP_Library/isp/Src/isp_services.c ****     else
1753:../../Middlewares/Camera_Middleware/ISP_Library/isp/Src/isp_services.c ****     {
1754:../../Middlewares/Camera_Middleware/ISP_Library/isp/Src/isp_services.c ****       ongoing->down.averageL = LuminanceFromRGB(ongoing->down.averageR, ongoing->down.averageG, ong
1755:../../Middlewares/Camera_Middleware/ISP_Library/isp/Src/isp_services.c ****     }
1756:../../Middlewares/Camera_Middleware/ISP_Library/isp/Src/isp_services.c ****     break;
1757:../../Middlewares/Camera_Middleware/ISP_Library/isp/Src/isp_services.c **** 
1758:../../Middlewares/Camera_Middleware/ISP_Library/isp/Src/isp_services.c ****   case ISP_STAT_CFG_DOWN_BINS_0_2:
1759:../../Middlewares/Camera_Middleware/ISP_Library/isp/Src/isp_services.c ****     ReadStatHistogram(hIsp, &ongoing->down.histogram[0]);
1760:../../Middlewares/Camera_Middleware/ISP_Library/isp/Src/isp_services.c ****     break;
1761:../../Middlewares/Camera_Middleware/ISP_Library/isp/Src/isp_services.c **** 
1762:../../Middlewares/Camera_Middleware/ISP_Library/isp/Src/isp_services.c ****   case ISP_STAT_CFG_DOWN_BINS_3_5:
1763:../../Middlewares/Camera_Middleware/ISP_Library/isp/Src/isp_services.c ****     ReadStatHistogram(hIsp, &ongoing->down.histogram[3]);
1764:../../Middlewares/Camera_Middleware/ISP_Library/isp/Src/isp_services.c ****     break;
1765:../../Middlewares/Camera_Middleware/ISP_Library/isp/Src/isp_services.c **** 
1766:../../Middlewares/Camera_Middleware/ISP_Library/isp/Src/isp_services.c ****   case ISP_STAT_CFG_DOWN_BINS_6_8:
1767:../../Middlewares/Camera_Middleware/ISP_Library/isp/Src/isp_services.c ****     ReadStatHistogram(hIsp, &ongoing->down.histogram[6]);
1768:../../Middlewares/Camera_Middleware/ISP_Library/isp/Src/isp_services.c ****     break;
1769:../../Middlewares/Camera_Middleware/ISP_Library/isp/Src/isp_services.c **** 
1770:../../Middlewares/Camera_Middleware/ISP_Library/isp/Src/isp_services.c ****   case ISP_STAT_CFG_DOWN_BINS_9_11:
1771:../../Middlewares/Camera_Middleware/ISP_Library/isp/Src/isp_services.c ****     ReadStatHistogram(hIsp, &ongoing->down.histogram[9]);
1772:../../Middlewares/Camera_Middleware/ISP_Library/isp/Src/isp_services.c ****     break;
1773:../../Middlewares/Camera_Middleware/ISP_Library/isp/Src/isp_services.c **** 
1774:../../Middlewares/Camera_Middleware/ISP_Library/isp/Src/isp_services.c ****   default:
1775:../../Middlewares/Camera_Middleware/ISP_Library/isp/Src/isp_services.c ****     /* No Read */
1776:../../Middlewares/Camera_Middleware/ISP_Library/isp/Src/isp_services.c ****     break;
1777:../../Middlewares/Camera_Middleware/ISP_Library/isp/Src/isp_services.c ****   }
1778:../../Middlewares/Camera_Middleware/ISP_Library/isp/Src/isp_services.c **** 
1779:../../Middlewares/Camera_Middleware/ISP_Library/isp/Src/isp_services.c ****   /* Configure stat for a new stage */
1780:../../Middlewares/Camera_Middleware/ISP_Library/isp/Src/isp_services.c ****   switch(ISP_SVC_StatEngine.stage)
1781:../../Middlewares/Camera_Middleware/ISP_Library/isp/Src/isp_services.c ****   {
1782:../../Middlewares/Camera_Middleware/ISP_Library/isp/Src/isp_services.c ****   case ISP_STAT_CFG_UP_AVG:
1783:../../Middlewares/Camera_Middleware/ISP_Library/isp/Src/isp_services.c ****     for (i = 0; i < 3; i++)
1784:../../Middlewares/Camera_Middleware/ISP_Library/isp/Src/isp_services.c ****     {
1785:../../Middlewares/Camera_Middleware/ISP_Library/isp/Src/isp_services.c ****       statConf[i].Mode = DCMIPP_STAT_EXT_MODE_AVERAGE;
1786:../../Middlewares/Camera_Middleware/ISP_Library/isp/Src/isp_services.c ****       statConf[i].Source = avgRGBUp[i];
1787:../../Middlewares/Camera_Middleware/ISP_Library/isp/Src/isp_services.c ****       statConf[i].Bins = DCMIPP_STAT_EXT_AVER_MODE_ALL_PIXELS;
1788:../../Middlewares/Camera_Middleware/ISP_Library/isp/Src/isp_services.c ****     }
1789:../../Middlewares/Camera_Middleware/ISP_Library/isp/Src/isp_services.c ****     break;
1790:../../Middlewares/Camera_Middleware/ISP_Library/isp/Src/isp_services.c **** 
ARM GAS  C:\Users\Antonio\AppData\Local\Temp\ccF6VN3M.s 			page 114


1791:../../Middlewares/Camera_Middleware/ISP_Library/isp/Src/isp_services.c ****   case ISP_STAT_CFG_UP_BINS_0_2:
1792:../../Middlewares/Camera_Middleware/ISP_Library/isp/Src/isp_services.c ****     SetStatConfig(statConf, &statConfUpBins_0_2);
1793:../../Middlewares/Camera_Middleware/ISP_Library/isp/Src/isp_services.c ****     break;
1794:../../Middlewares/Camera_Middleware/ISP_Library/isp/Src/isp_services.c **** 
1795:../../Middlewares/Camera_Middleware/ISP_Library/isp/Src/isp_services.c ****   case ISP_STAT_CFG_UP_BINS_3_5:
1796:../../Middlewares/Camera_Middleware/ISP_Library/isp/Src/isp_services.c ****     SetStatConfig(statConf, &statConfUpBins_3_5);
1797:../../Middlewares/Camera_Middleware/ISP_Library/isp/Src/isp_services.c ****     break;
1798:../../Middlewares/Camera_Middleware/ISP_Library/isp/Src/isp_services.c **** 
1799:../../Middlewares/Camera_Middleware/ISP_Library/isp/Src/isp_services.c ****   case ISP_STAT_CFG_UP_BINS_6_8:
1800:../../Middlewares/Camera_Middleware/ISP_Library/isp/Src/isp_services.c ****     SetStatConfig(statConf, &statConfUpBins_6_8);
1801:../../Middlewares/Camera_Middleware/ISP_Library/isp/Src/isp_services.c ****     break;
1802:../../Middlewares/Camera_Middleware/ISP_Library/isp/Src/isp_services.c **** 
1803:../../Middlewares/Camera_Middleware/ISP_Library/isp/Src/isp_services.c ****   case ISP_STAT_CFG_UP_BINS_9_11:
1804:../../Middlewares/Camera_Middleware/ISP_Library/isp/Src/isp_services.c ****     SetStatConfig(statConf, &statConfUpBins_9_11);
1805:../../Middlewares/Camera_Middleware/ISP_Library/isp/Src/isp_services.c ****     break;
1806:../../Middlewares/Camera_Middleware/ISP_Library/isp/Src/isp_services.c **** 
1807:../../Middlewares/Camera_Middleware/ISP_Library/isp/Src/isp_services.c ****   case ISP_STAT_CFG_DOWN_AVG:
1808:../../Middlewares/Camera_Middleware/ISP_Library/isp/Src/isp_services.c ****     for (i = 0; i < 3; i++)
1809:../../Middlewares/Camera_Middleware/ISP_Library/isp/Src/isp_services.c ****     {
1810:../../Middlewares/Camera_Middleware/ISP_Library/isp/Src/isp_services.c ****       statConf[i].Mode = DCMIPP_STAT_EXT_MODE_AVERAGE;
1811:../../Middlewares/Camera_Middleware/ISP_Library/isp/Src/isp_services.c ****       statConf[i].Source = avgRGBDown[i];
1812:../../Middlewares/Camera_Middleware/ISP_Library/isp/Src/isp_services.c ****       statConf[i].Bins = DCMIPP_STAT_EXT_AVER_MODE_ALL_PIXELS;
1813:../../Middlewares/Camera_Middleware/ISP_Library/isp/Src/isp_services.c ****     }
1814:../../Middlewares/Camera_Middleware/ISP_Library/isp/Src/isp_services.c ****     break;
1815:../../Middlewares/Camera_Middleware/ISP_Library/isp/Src/isp_services.c **** 
1816:../../Middlewares/Camera_Middleware/ISP_Library/isp/Src/isp_services.c ****   case ISP_STAT_CFG_DOWN_BINS_0_2:
1817:../../Middlewares/Camera_Middleware/ISP_Library/isp/Src/isp_services.c ****     SetStatConfig(statConf, &statConfDownBins_0_2);
1818:../../Middlewares/Camera_Middleware/ISP_Library/isp/Src/isp_services.c ****     break;
1819:../../Middlewares/Camera_Middleware/ISP_Library/isp/Src/isp_services.c **** 
1820:../../Middlewares/Camera_Middleware/ISP_Library/isp/Src/isp_services.c ****   case ISP_STAT_CFG_DOWN_BINS_3_5:
1821:../../Middlewares/Camera_Middleware/ISP_Library/isp/Src/isp_services.c ****     SetStatConfig(statConf, &statConfDownBins_3_5);
1822:../../Middlewares/Camera_Middleware/ISP_Library/isp/Src/isp_services.c ****     break;
1823:../../Middlewares/Camera_Middleware/ISP_Library/isp/Src/isp_services.c **** 
1824:../../Middlewares/Camera_Middleware/ISP_Library/isp/Src/isp_services.c ****   case ISP_STAT_CFG_DOWN_BINS_6_8:
1825:../../Middlewares/Camera_Middleware/ISP_Library/isp/Src/isp_services.c ****     SetStatConfig(statConf, &statConfDownBins_6_8);
1826:../../Middlewares/Camera_Middleware/ISP_Library/isp/Src/isp_services.c ****     break;
1827:../../Middlewares/Camera_Middleware/ISP_Library/isp/Src/isp_services.c **** 
1828:../../Middlewares/Camera_Middleware/ISP_Library/isp/Src/isp_services.c ****   case ISP_STAT_CFG_DOWN_BINS_9_11:
1829:../../Middlewares/Camera_Middleware/ISP_Library/isp/Src/isp_services.c ****     SetStatConfig(statConf, &statConfDownBins_9_11);
1830:../../Middlewares/Camera_Middleware/ISP_Library/isp/Src/isp_services.c ****     break;
1831:../../Middlewares/Camera_Middleware/ISP_Library/isp/Src/isp_services.c **** 
1832:../../Middlewares/Camera_Middleware/ISP_Library/isp/Src/isp_services.c ****   default:
1833:../../Middlewares/Camera_Middleware/ISP_Library/isp/Src/isp_services.c ****     /* Configure Unchanged */
1834:../../Middlewares/Camera_Middleware/ISP_Library/isp/Src/isp_services.c ****     break;
1835:../../Middlewares/Camera_Middleware/ISP_Library/isp/Src/isp_services.c ****   }
1836:../../Middlewares/Camera_Middleware/ISP_Library/isp/Src/isp_services.c **** 
1837:../../Middlewares/Camera_Middleware/ISP_Library/isp/Src/isp_services.c ****   /* Apply configuration (for an output result available 2 VSYNC later) */
1838:../../Middlewares/Camera_Middleware/ISP_Library/isp/Src/isp_services.c ****   for (i = DCMIPP_STATEXT_MODULE1; i <= DCMIPP_STATEXT_MODULE3; i++)
1839:../../Middlewares/Camera_Middleware/ISP_Library/isp/Src/isp_services.c ****   {
1840:../../Middlewares/Camera_Middleware/ISP_Library/isp/Src/isp_services.c ****     if (HAL_DCMIPP_PIPE_SetISPStatisticExtractionConfig(hIsp->hDcmipp, DCMIPP_PIPE1, i, &statConf[i
1841:../../Middlewares/Camera_Middleware/ISP_Library/isp/Src/isp_services.c ****     {
1842:../../Middlewares/Camera_Middleware/ISP_Library/isp/Src/isp_services.c ****       printf("ERROR: can't set Statistic Extraction config\r\n");
1843:../../Middlewares/Camera_Middleware/ISP_Library/isp/Src/isp_services.c ****       return;
1844:../../Middlewares/Camera_Middleware/ISP_Library/isp/Src/isp_services.c ****     }
1845:../../Middlewares/Camera_Middleware/ISP_Library/isp/Src/isp_services.c **** 
1846:../../Middlewares/Camera_Middleware/ISP_Library/isp/Src/isp_services.c ****     if (HAL_DCMIPP_PIPE_EnableISPStatisticExtraction(hIsp->hDcmipp, DCMIPP_PIPE1, i) != HAL_OK)
1847:../../Middlewares/Camera_Middleware/ISP_Library/isp/Src/isp_services.c ****     {
ARM GAS  C:\Users\Antonio\AppData\Local\Temp\ccF6VN3M.s 			page 115


1848:../../Middlewares/Camera_Middleware/ISP_Library/isp/Src/isp_services.c ****       printf("ERROR: can't enable Statistic Extraction config\r\n");
1849:../../Middlewares/Camera_Middleware/ISP_Library/isp/Src/isp_services.c ****       return;
1850:../../Middlewares/Camera_Middleware/ISP_Library/isp/Src/isp_services.c ****     }
1851:../../Middlewares/Camera_Middleware/ISP_Library/isp/Src/isp_services.c ****   }
1852:../../Middlewares/Camera_Middleware/ISP_Library/isp/Src/isp_services.c **** 
1853:../../Middlewares/Camera_Middleware/ISP_Library/isp/Src/isp_services.c ****   /* Cycle start / end */
1854:../../Middlewares/Camera_Middleware/ISP_Library/isp/Src/isp_services.c ****   frameId = ISP_SVC_Misc_GetMainFrameId(hIsp);
1855:../../Middlewares/Camera_Middleware/ISP_Library/isp/Src/isp_services.c **** 
1856:../../Middlewares/Camera_Middleware/ISP_Library/isp/Src/isp_services.c ****   if (stagePrevious2 == GetStatCycleStart(ISP_STAT_LOC_UP))
1857:../../Middlewares/Camera_Middleware/ISP_Library/isp/Src/isp_services.c ****   {
1858:../../Middlewares/Camera_Middleware/ISP_Library/isp/Src/isp_services.c ****     ongoing->upFrameIdStart = frameId;
1859:../../Middlewares/Camera_Middleware/ISP_Library/isp/Src/isp_services.c ****   }
1860:../../Middlewares/Camera_Middleware/ISP_Library/isp/Src/isp_services.c **** 
1861:../../Middlewares/Camera_Middleware/ISP_Library/isp/Src/isp_services.c ****   if (stagePrevious2 == GetStatCycleStart(ISP_STAT_LOC_DOWN))
1862:../../Middlewares/Camera_Middleware/ISP_Library/isp/Src/isp_services.c ****   {
1863:../../Middlewares/Camera_Middleware/ISP_Library/isp/Src/isp_services.c ****     ongoing->downFrameIdStart = frameId;
1864:../../Middlewares/Camera_Middleware/ISP_Library/isp/Src/isp_services.c ****   }
1865:../../Middlewares/Camera_Middleware/ISP_Library/isp/Src/isp_services.c **** 
1866:../../Middlewares/Camera_Middleware/ISP_Library/isp/Src/isp_services.c ****   if ((stagePrevious2 == GetStatCycleEnd(ISP_STAT_LOC_UP)) && (ongoing->upFrameIdStart != 0))
1867:../../Middlewares/Camera_Middleware/ISP_Library/isp/Src/isp_services.c ****   {
1868:../../Middlewares/Camera_Middleware/ISP_Library/isp/Src/isp_services.c ****     /* Last measure of the up cycle : update the 'last' struct */
1869:../../Middlewares/Camera_Middleware/ISP_Library/isp/Src/isp_services.c ****     ISP_SVC_StatEngine.last.up = ongoing->up;
1870:../../Middlewares/Camera_Middleware/ISP_Library/isp/Src/isp_services.c ****     ISP_SVC_StatEngine.last.upFrameIdEnd = frameId;
1871:../../Middlewares/Camera_Middleware/ISP_Library/isp/Src/isp_services.c ****     ISP_SVC_StatEngine.last.upFrameIdStart = ongoing->upFrameIdStart;
1872:../../Middlewares/Camera_Middleware/ISP_Library/isp/Src/isp_services.c **** 
1873:../../Middlewares/Camera_Middleware/ISP_Library/isp/Src/isp_services.c ****     memset(&ongoing->up, 0, sizeof(ongoing->up));
1874:../../Middlewares/Camera_Middleware/ISP_Library/isp/Src/isp_services.c ****     ongoing->upFrameIdStart = 0;
1875:../../Middlewares/Camera_Middleware/ISP_Library/isp/Src/isp_services.c ****     ongoing->upFrameIdEnd = 0;
1876:../../Middlewares/Camera_Middleware/ISP_Library/isp/Src/isp_services.c ****   }
1877:../../Middlewares/Camera_Middleware/ISP_Library/isp/Src/isp_services.c **** 
1878:../../Middlewares/Camera_Middleware/ISP_Library/isp/Src/isp_services.c ****   if ((stagePrevious2 == GetStatCycleEnd(ISP_STAT_LOC_DOWN)) && (ongoing->downFrameIdStart != 0))
1879:../../Middlewares/Camera_Middleware/ISP_Library/isp/Src/isp_services.c ****   {
1880:../../Middlewares/Camera_Middleware/ISP_Library/isp/Src/isp_services.c ****     /* Last measure of the down cycle : update the 'last' struct */
1881:../../Middlewares/Camera_Middleware/ISP_Library/isp/Src/isp_services.c ****     ISP_SVC_StatEngine.last.down = ongoing->down;
1882:../../Middlewares/Camera_Middleware/ISP_Library/isp/Src/isp_services.c ****     ISP_SVC_StatEngine.last.downFrameIdEnd = frameId;
1883:../../Middlewares/Camera_Middleware/ISP_Library/isp/Src/isp_services.c ****     ISP_SVC_StatEngine.last.downFrameIdStart = ongoing->downFrameIdStart;
1884:../../Middlewares/Camera_Middleware/ISP_Library/isp/Src/isp_services.c **** 
1885:../../Middlewares/Camera_Middleware/ISP_Library/isp/Src/isp_services.c ****     memset(&ongoing->down, 0, sizeof(ongoing->down));
1886:../../Middlewares/Camera_Middleware/ISP_Library/isp/Src/isp_services.c ****     ongoing->downFrameIdStart = 0;
1887:../../Middlewares/Camera_Middleware/ISP_Library/isp/Src/isp_services.c ****     ongoing->downFrameIdEnd = 0;
1888:../../Middlewares/Camera_Middleware/ISP_Library/isp/Src/isp_services.c ****   }
1889:../../Middlewares/Camera_Middleware/ISP_Library/isp/Src/isp_services.c **** 
1890:../../Middlewares/Camera_Middleware/ISP_Library/isp/Src/isp_services.c ****   if (((ISP_SVC_StatEngine.upRequest & ISP_STAT_TYPE_ALL_TMP) ||
1891:../../Middlewares/Camera_Middleware/ISP_Library/isp/Src/isp_services.c ****        (ISP_SVC_StatEngine.downRequest & ISP_STAT_TYPE_ALL_TMP)) &&
1892:../../Middlewares/Camera_Middleware/ISP_Library/isp/Src/isp_services.c ****       (frameId > ISP_SVC_StatEngine.requestAllCounter))
1893:../../Middlewares/Camera_Middleware/ISP_Library/isp/Src/isp_services.c ****   {
1894:../../Middlewares/Camera_Middleware/ISP_Library/isp/Src/isp_services.c ****     /* Stop the special temporary mode "request all stats" when its delay expires */
1895:../../Middlewares/Camera_Middleware/ISP_Library/isp/Src/isp_services.c ****     ISP_SVC_StatEngine.upRequest &= ~ISP_STAT_TYPE_ALL_TMP;
1896:../../Middlewares/Camera_Middleware/ISP_Library/isp/Src/isp_services.c ****     ISP_SVC_StatEngine.downRequest &= ~ISP_STAT_TYPE_ALL_TMP;
1897:../../Middlewares/Camera_Middleware/ISP_Library/isp/Src/isp_services.c ****   }
1898:../../Middlewares/Camera_Middleware/ISP_Library/isp/Src/isp_services.c **** 
1899:../../Middlewares/Camera_Middleware/ISP_Library/isp/Src/isp_services.c ****   /* Save the two last processed stages and go to next stage */
1900:../../Middlewares/Camera_Middleware/ISP_Library/isp/Src/isp_services.c ****   stagePrevious2 = stagePrevious1;
1901:../../Middlewares/Camera_Middleware/ISP_Library/isp/Src/isp_services.c ****   stagePrevious1 = ISP_SVC_StatEngine.stage;
1902:../../Middlewares/Camera_Middleware/ISP_Library/isp/Src/isp_services.c ****   ISP_SVC_StatEngine.stage = GetNextStatStage(ISP_SVC_StatEngine.stage);
1903:../../Middlewares/Camera_Middleware/ISP_Library/isp/Src/isp_services.c **** }
 4109              		.loc 1 1903 1 is_stmt 0 view .LVU1222
ARM GAS  C:\Users\Antonio\AppData\Local\Temp\ccF6VN3M.s 			page 116


 4110 000c 0DB0     		add	sp, sp, #52
 4111              		.cfi_remember_state
 4112              		.cfi_def_cfa_offset 36
 4113              		@ sp needed
 4114 000e BDE8F04F 		pop	{r4, r5, r6, r7, r8, r9, r10, fp, lr}
 4115              		.cfi_restore 14
 4116              		.cfi_restore 11
 4117              		.cfi_restore 10
 4118              		.cfi_restore 9
 4119              		.cfi_restore 8
 4120              		.cfi_restore 7
 4121              		.cfi_restore 6
 4122              		.cfi_restore 5
 4123              		.cfi_restore 4
 4124              		.cfi_def_cfa_offset 0
 4125              	.LVL353:
1694:../../Middlewares/Camera_Middleware/ISP_Library/isp/Src/isp_services.c ****     return;
 4126              		.loc 1 1694 5 view .LVU1223
 4127 0012 FFF7FEBF 		b	puts
 4128              	.LVL354:
 4129              	.L326:
 4130              		.cfi_restore_state
1698:../../Middlewares/Camera_Middleware/ISP_Library/isp/Src/isp_services.c ****   {
 4131              		.loc 1 1698 3 is_stmt 1 view .LVU1224
1698:../../Middlewares/Camera_Middleware/ISP_Library/isp/Src/isp_services.c ****   {
 4132              		.loc 1 1698 11 is_stmt 0 view .LVU1225
 4133 0016 0068     		ldr	r0, [r0]
 4134              	.LVL355:
1698:../../Middlewares/Camera_Middleware/ISP_Library/isp/Src/isp_services.c ****   {
 4135              		.loc 1 1698 6 view .LVU1226
 4136 0018 0028     		cmp	r0, #0
 4137 001a 00F0B480 		beq	.L325
1709:../../Middlewares/Camera_Middleware/ISP_Library/isp/Src/isp_services.c ****   switch(stagePrevious2)
 4138              		.loc 1 1709 3 is_stmt 1 view .LVU1227
 4139              	.LVL356:
1710:../../Middlewares/Camera_Middleware/ISP_Library/isp/Src/isp_services.c ****   {
 4140              		.loc 1 1710 3 view .LVU1228
 4141 001e DFF8F092 		ldr	r9, .L412+92
 4142 0022 A54C     		ldr	r4, .L412+4
 4143 0024 99F80030 		ldrb	r3, [r9]	@ zero_extendqisi2
 4144 0028 092B     		cmp	r3, #9
 4145 002a 36D8     		bhi	.L328
 4146 002c DFE803F0 		tbb	[pc, r3]
 4147              	.L330:
 4148 0030 05       		.byte	(.L339-.L330)/2
 4149 0031 3F       		.byte	(.L338-.L330)/2
 4150 0032 44       		.byte	(.L337-.L330)/2
 4151 0033 46       		.byte	(.L336-.L330)/2
 4152 0034 48       		.byte	(.L335-.L330)/2
 4153 0035 4A       		.byte	(.L334-.L330)/2
 4154 0036 87       		.byte	(.L333-.L330)/2
 4155 0037 89       		.byte	(.L332-.L330)/2
 4156 0038 8B       		.byte	(.L331-.L330)/2
 4157 0039 8D       		.byte	(.L329-.L330)/2
 4158              		.p2align 1
 4159              	.L339:
1713:../../Middlewares/Camera_Middleware/ISP_Library/isp/Src/isp_services.c ****     HAL_DCMIPP_PIPE_GetISPAccumulatedStatisticsCounter(hIsp->hDcmipp, DCMIPP_PIPE1, DCMIPP_STATEXT_
ARM GAS  C:\Users\Antonio\AppData\Local\Temp\ccF6VN3M.s 			page 117


 4160              		.loc 1 1713 5 view .LVU1229
 4161 003a 0122     		movs	r2, #1
 4162 003c 6B46     		mov	r3, sp
 4163 003e 1146     		mov	r1, r2
 4164 0040 FFF7FEFF 		bl	HAL_DCMIPP_PIPE_GetISPAccumulatedStatisticsCounter
 4165              	.LVL357:
1714:../../Middlewares/Camera_Middleware/ISP_Library/isp/Src/isp_services.c ****     HAL_DCMIPP_PIPE_GetISPAccumulatedStatisticsCounter(hIsp->hDcmipp, DCMIPP_PIPE1, DCMIPP_STATEXT_
 4166              		.loc 1 1714 5 view .LVU1230
 4167 0044 0222     		movs	r2, #2
 4168 0046 0121     		movs	r1, #1
 4169 0048 01AB     		add	r3, sp, #4
 4170 004a 2868     		ldr	r0, [r5]
 4171 004c FFF7FEFF 		bl	HAL_DCMIPP_PIPE_GetISPAccumulatedStatisticsCounter
 4172              	.LVL358:
1715:../../Middlewares/Camera_Middleware/ISP_Library/isp/Src/isp_services.c **** 
 4173              		.loc 1 1715 5 view .LVU1231
 4174 0050 0322     		movs	r2, #3
 4175 0052 0121     		movs	r1, #1
 4176 0054 02AB     		add	r3, sp, #8
 4177 0056 2868     		ldr	r0, [r5]
 4178 0058 FFF7FEFF 		bl	HAL_DCMIPP_PIPE_GetISPAccumulatedStatisticsCounter
 4179              	.LVL359:
1717:../../Middlewares/Camera_Middleware/ISP_Library/isp/Src/isp_services.c ****     ongoing->up.averageG = GetAvgStats(hIsp, ISP_STAT_LOC_UP, ISP_GREEN, avgG);
 4180              		.loc 1 1717 5 view .LVU1232
1717:../../Middlewares/Camera_Middleware/ISP_Library/isp/Src/isp_services.c ****     ongoing->up.averageG = GetAvgStats(hIsp, ISP_STAT_LOC_UP, ISP_GREEN, avgG);
 4181              		.loc 1 1717 28 is_stmt 0 view .LVU1233
 4182 005c 0121     		movs	r1, #1
 4183 005e 0022     		movs	r2, #0
 4184 0060 009B     		ldr	r3, [sp]
 4185 0062 2846     		mov	r0, r5
 4186 0064 FFF7FEFF 		bl	GetAvgStats
 4187              	.LVL360:
1718:../../Middlewares/Camera_Middleware/ISP_Library/isp/Src/isp_services.c ****     ongoing->up.averageB = GetAvgStats(hIsp, ISP_STAT_LOC_UP, ISP_BLUE, avgB);
 4188              		.loc 1 1718 28 view .LVU1234
 4189 0068 0A46     		mov	r2, r1
1717:../../Middlewares/Camera_Middleware/ISP_Library/isp/Src/isp_services.c ****     ongoing->up.averageG = GetAvgStats(hIsp, ISP_STAT_LOC_UP, ISP_GREEN, avgG);
 4190              		.loc 1 1717 28 view .LVU1235
 4191 006a 0646     		mov	r6, r0
1718:../../Middlewares/Camera_Middleware/ISP_Library/isp/Src/isp_services.c ****     ongoing->up.averageB = GetAvgStats(hIsp, ISP_STAT_LOC_UP, ISP_BLUE, avgB);
 4192              		.loc 1 1718 28 view .LVU1236
 4193 006c 019B     		ldr	r3, [sp, #4]
1717:../../Middlewares/Camera_Middleware/ISP_Library/isp/Src/isp_services.c ****     ongoing->up.averageG = GetAvgStats(hIsp, ISP_STAT_LOC_UP, ISP_GREEN, avgG);
 4194              		.loc 1 1717 26 discriminator 1 view .LVU1237
 4195 006e 84F87C00 		strb	r0, [r4, #124]
1718:../../Middlewares/Camera_Middleware/ISP_Library/isp/Src/isp_services.c ****     ongoing->up.averageB = GetAvgStats(hIsp, ISP_STAT_LOC_UP, ISP_BLUE, avgB);
 4196              		.loc 1 1718 5 is_stmt 1 view .LVU1238
1718:../../Middlewares/Camera_Middleware/ISP_Library/isp/Src/isp_services.c ****     ongoing->up.averageB = GetAvgStats(hIsp, ISP_STAT_LOC_UP, ISP_BLUE, avgB);
 4197              		.loc 1 1718 28 is_stmt 0 view .LVU1239
 4198 0072 2846     		mov	r0, r5
 4199 0074 FFF7FEFF 		bl	GetAvgStats
 4200              	.LVL361:
1719:../../Middlewares/Camera_Middleware/ISP_Library/isp/Src/isp_services.c ****     ongoing->up.averageL = LuminanceFromRGB(ongoing->up.averageR, ongoing->up.averageG, ongoing->up
 4201              		.loc 1 1719 28 view .LVU1240
 4202 0078 0222     		movs	r2, #2
1718:../../Middlewares/Camera_Middleware/ISP_Library/isp/Src/isp_services.c ****     ongoing->up.averageB = GetAvgStats(hIsp, ISP_STAT_LOC_UP, ISP_BLUE, avgB);
 4203              		.loc 1 1718 28 view .LVU1241
 4204 007a 0746     		mov	r7, r0
ARM GAS  C:\Users\Antonio\AppData\Local\Temp\ccF6VN3M.s 			page 118


1718:../../Middlewares/Camera_Middleware/ISP_Library/isp/Src/isp_services.c ****     ongoing->up.averageB = GetAvgStats(hIsp, ISP_STAT_LOC_UP, ISP_BLUE, avgB);
 4205              		.loc 1 1718 26 discriminator 1 view .LVU1242
 4206 007c 84F87D00 		strb	r0, [r4, #125]
1719:../../Middlewares/Camera_Middleware/ISP_Library/isp/Src/isp_services.c ****     ongoing->up.averageL = LuminanceFromRGB(ongoing->up.averageR, ongoing->up.averageG, ongoing->up
 4207              		.loc 1 1719 5 is_stmt 1 view .LVU1243
1719:../../Middlewares/Camera_Middleware/ISP_Library/isp/Src/isp_services.c ****     ongoing->up.averageL = LuminanceFromRGB(ongoing->up.averageR, ongoing->up.averageG, ongoing->up
 4208              		.loc 1 1719 28 is_stmt 0 view .LVU1244
 4209 0080 029B     		ldr	r3, [sp, #8]
 4210 0082 2846     		mov	r0, r5
 4211 0084 FFF7FEFF 		bl	GetAvgStats
 4212              	.LVL362:
1720:../../Middlewares/Camera_Middleware/ISP_Library/isp/Src/isp_services.c ****     break;
 4213              		.loc 1 1720 28 view .LVU1245
 4214 0088 3946     		mov	r1, r7
1719:../../Middlewares/Camera_Middleware/ISP_Library/isp/Src/isp_services.c ****     ongoing->up.averageL = LuminanceFromRGB(ongoing->up.averageR, ongoing->up.averageG, ongoing->up
 4215              		.loc 1 1719 28 view .LVU1246
 4216 008a 0246     		mov	r2, r0
1719:../../Middlewares/Camera_Middleware/ISP_Library/isp/Src/isp_services.c ****     ongoing->up.averageL = LuminanceFromRGB(ongoing->up.averageR, ongoing->up.averageG, ongoing->up
 4217              		.loc 1 1719 26 discriminator 1 view .LVU1247
 4218 008c 84F87E00 		strb	r0, [r4, #126]
1720:../../Middlewares/Camera_Middleware/ISP_Library/isp/Src/isp_services.c ****     break;
 4219              		.loc 1 1720 5 is_stmt 1 view .LVU1248
1720:../../Middlewares/Camera_Middleware/ISP_Library/isp/Src/isp_services.c ****     break;
 4220              		.loc 1 1720 28 is_stmt 0 view .LVU1249
 4221 0090 3046     		mov	r0, r6
 4222 0092 FFF7FEFF 		bl	LuminanceFromRGB
 4223              	.LVL363:
1720:../../Middlewares/Camera_Middleware/ISP_Library/isp/Src/isp_services.c ****     break;
 4224              		.loc 1 1720 26 discriminator 1 view .LVU1250
 4225 0096 84F87F00 		strb	r0, [r4, #127]
1721:../../Middlewares/Camera_Middleware/ISP_Library/isp/Src/isp_services.c **** 
 4226              		.loc 1 1721 5 is_stmt 1 view .LVU1251
 4227              	.L328:
1780:../../Middlewares/Camera_Middleware/ISP_Library/isp/Src/isp_services.c ****   {
 4228              		.loc 1 1780 3 view .LVU1252
 4229 009a 2378     		ldrb	r3, [r4]	@ zero_extendqisi2
 4230 009c 092B     		cmp	r3, #9
 4231 009e 63D8     		bhi	.L342
 4232 00a0 DFE803F0 		tbb	[pc, r3]
 4233              	.L344:
 4234 00a4 74       		.byte	(.L353-.L344)/2
 4235 00a5 7F       		.byte	(.L352-.L344)/2
 4236 00a6 84       		.byte	(.L351-.L344)/2
 4237 00a7 86       		.byte	(.L350-.L344)/2
 4238 00a8 88       		.byte	(.L349-.L344)/2
 4239 00a9 55       		.byte	(.L348-.L344)/2
 4240 00aa 8A       		.byte	(.L347-.L344)/2
 4241 00ab 8C       		.byte	(.L346-.L344)/2
 4242 00ac 8E       		.byte	(.L345-.L344)/2
 4243 00ad 90       		.byte	(.L343-.L344)/2
 4244              		.p2align 1
 4245              	.L338:
1724:../../Middlewares/Camera_Middleware/ISP_Library/isp/Src/isp_services.c ****     break;
 4246              		.loc 1 1724 5 view .LVU1253
 4247 00ae 8349     		ldr	r1, .L412+8
 4248              	.L407:
1771:../../Middlewares/Camera_Middleware/ISP_Library/isp/Src/isp_services.c ****     break;
ARM GAS  C:\Users\Antonio\AppData\Local\Temp\ccF6VN3M.s 			page 119


 4249              		.loc 1 1771 5 is_stmt 0 view .LVU1254
 4250 00b0 2846     		mov	r0, r5
 4251 00b2 FFF7FEFF 		bl	ReadStatHistogram
 4252              	.LVL364:
1772:../../Middlewares/Camera_Middleware/ISP_Library/isp/Src/isp_services.c **** 
 4253              		.loc 1 1772 5 is_stmt 1 view .LVU1255
 4254 00b6 F0E7     		b	.L328
 4255              	.L337:
1728:../../Middlewares/Camera_Middleware/ISP_Library/isp/Src/isp_services.c ****     break;
 4256              		.loc 1 1728 5 view .LVU1256
 4257 00b8 8149     		ldr	r1, .L412+12
 4258 00ba F9E7     		b	.L407
 4259              	.L336:
1732:../../Middlewares/Camera_Middleware/ISP_Library/isp/Src/isp_services.c ****     break;
 4260              		.loc 1 1732 5 view .LVU1257
 4261 00bc 8149     		ldr	r1, .L412+16
 4262 00be F7E7     		b	.L407
 4263              	.L335:
1736:../../Middlewares/Camera_Middleware/ISP_Library/isp/Src/isp_services.c ****     break;
 4264              		.loc 1 1736 5 view .LVU1258
 4265 00c0 8149     		ldr	r1, .L412+20
 4266 00c2 F5E7     		b	.L407
 4267              	.L334:
1740:../../Middlewares/Camera_Middleware/ISP_Library/isp/Src/isp_services.c ****     HAL_DCMIPP_PIPE_GetISPAccumulatedStatisticsCounter(hIsp->hDcmipp, DCMIPP_PIPE1, DCMIPP_STATEXT_
 4268              		.loc 1 1740 5 view .LVU1259
 4269 00c4 0122     		movs	r2, #1
 4270 00c6 6B46     		mov	r3, sp
 4271 00c8 1146     		mov	r1, r2
 4272 00ca FFF7FEFF 		bl	HAL_DCMIPP_PIPE_GetISPAccumulatedStatisticsCounter
 4273              	.LVL365:
1741:../../Middlewares/Camera_Middleware/ISP_Library/isp/Src/isp_services.c ****     HAL_DCMIPP_PIPE_GetISPAccumulatedStatisticsCounter(hIsp->hDcmipp, DCMIPP_PIPE1, DCMIPP_STATEXT_
 4274              		.loc 1 1741 5 view .LVU1260
 4275 00ce 0222     		movs	r2, #2
 4276 00d0 0121     		movs	r1, #1
 4277 00d2 01AB     		add	r3, sp, #4
 4278 00d4 2868     		ldr	r0, [r5]
 4279 00d6 FFF7FEFF 		bl	HAL_DCMIPP_PIPE_GetISPAccumulatedStatisticsCounter
 4280              	.LVL366:
1742:../../Middlewares/Camera_Middleware/ISP_Library/isp/Src/isp_services.c **** 
 4281              		.loc 1 1742 5 view .LVU1261
 4282 00da 0322     		movs	r2, #3
 4283 00dc 0121     		movs	r1, #1
 4284 00de 02AB     		add	r3, sp, #8
 4285 00e0 2868     		ldr	r0, [r5]
 4286 00e2 FFF7FEFF 		bl	HAL_DCMIPP_PIPE_GetISPAccumulatedStatisticsCounter
 4287              	.LVL367:
1744:../../Middlewares/Camera_Middleware/ISP_Library/isp/Src/isp_services.c ****     ongoing->down.averageG = GetAvgStats(hIsp, ISP_STAT_LOC_DOWN, ISP_GREEN, avgG);
 4288              		.loc 1 1744 5 view .LVU1262
1744:../../Middlewares/Camera_Middleware/ISP_Library/isp/Src/isp_services.c ****     ongoing->down.averageG = GetAvgStats(hIsp, ISP_STAT_LOC_DOWN, ISP_GREEN, avgG);
 4289              		.loc 1 1744 30 is_stmt 0 view .LVU1263
 4290 00e6 0221     		movs	r1, #2
 4291 00e8 0022     		movs	r2, #0
 4292 00ea 009B     		ldr	r3, [sp]
 4293 00ec 2846     		mov	r0, r5
 4294 00ee FFF7FEFF 		bl	GetAvgStats
 4295              	.LVL368:
1745:../../Middlewares/Camera_Middleware/ISP_Library/isp/Src/isp_services.c ****     ongoing->down.averageB = GetAvgStats(hIsp, ISP_STAT_LOC_DOWN, ISP_BLUE, avgB);
ARM GAS  C:\Users\Antonio\AppData\Local\Temp\ccF6VN3M.s 			page 120


 4296              		.loc 1 1745 30 view .LVU1264
 4297 00f2 0122     		movs	r2, #1
 4298 00f4 019B     		ldr	r3, [sp, #4]
1744:../../Middlewares/Camera_Middleware/ISP_Library/isp/Src/isp_services.c ****     ongoing->down.averageG = GetAvgStats(hIsp, ISP_STAT_LOC_DOWN, ISP_GREEN, avgG);
 4299              		.loc 1 1744 28 discriminator 1 view .LVU1265
 4300 00f6 84F8B000 		strb	r0, [r4, #176]
1745:../../Middlewares/Camera_Middleware/ISP_Library/isp/Src/isp_services.c ****     ongoing->down.averageB = GetAvgStats(hIsp, ISP_STAT_LOC_DOWN, ISP_BLUE, avgB);
 4301              		.loc 1 1745 5 is_stmt 1 view .LVU1266
1744:../../Middlewares/Camera_Middleware/ISP_Library/isp/Src/isp_services.c ****     ongoing->down.averageG = GetAvgStats(hIsp, ISP_STAT_LOC_DOWN, ISP_GREEN, avgG);
 4302              		.loc 1 1744 30 is_stmt 0 view .LVU1267
 4303 00fa 0746     		mov	r7, r0
1745:../../Middlewares/Camera_Middleware/ISP_Library/isp/Src/isp_services.c ****     ongoing->down.averageB = GetAvgStats(hIsp, ISP_STAT_LOC_DOWN, ISP_BLUE, avgB);
 4304              		.loc 1 1745 30 view .LVU1268
 4305 00fc 2846     		mov	r0, r5
 4306 00fe FFF7FEFF 		bl	GetAvgStats
 4307              	.LVL369:
1746:../../Middlewares/Camera_Middleware/ISP_Library/isp/Src/isp_services.c ****     IQParamConfig = ISP_SVC_IQParam_Get(hIsp);
 4308              		.loc 1 1746 30 view .LVU1269
 4309 0102 0A46     		mov	r2, r1
 4310 0104 029B     		ldr	r3, [sp, #8]
1745:../../Middlewares/Camera_Middleware/ISP_Library/isp/Src/isp_services.c ****     ongoing->down.averageB = GetAvgStats(hIsp, ISP_STAT_LOC_DOWN, ISP_BLUE, avgB);
 4311              		.loc 1 1745 28 discriminator 1 view .LVU1270
 4312 0106 84F8B100 		strb	r0, [r4, #177]
1746:../../Middlewares/Camera_Middleware/ISP_Library/isp/Src/isp_services.c ****     IQParamConfig = ISP_SVC_IQParam_Get(hIsp);
 4313              		.loc 1 1746 5 is_stmt 1 view .LVU1271
1745:../../Middlewares/Camera_Middleware/ISP_Library/isp/Src/isp_services.c ****     ongoing->down.averageB = GetAvgStats(hIsp, ISP_STAT_LOC_DOWN, ISP_BLUE, avgB);
 4314              		.loc 1 1745 30 is_stmt 0 view .LVU1272
 4315 010a 0646     		mov	r6, r0
1746:../../Middlewares/Camera_Middleware/ISP_Library/isp/Src/isp_services.c ****     IQParamConfig = ISP_SVC_IQParam_Get(hIsp);
 4316              		.loc 1 1746 30 view .LVU1273
 4317 010c 2846     		mov	r0, r5
 4318 010e FFF7FEFF 		bl	GetAvgStats
 4319              	.LVL370:
1746:../../Middlewares/Camera_Middleware/ISP_Library/isp/Src/isp_services.c ****     IQParamConfig = ISP_SVC_IQParam_Get(hIsp);
 4320              		.loc 1 1746 28 discriminator 1 view .LVU1274
 4321 0112 84F8B200 		strb	r0, [r4, #178]
1747:../../Middlewares/Camera_Middleware/ISP_Library/isp/Src/isp_services.c ****     if ((hIsp->sensorInfo.bayer_pattern == ISP_DEMOS_TYPE_MONO) || (!IQParamConfig->demosaicing.ena
 4322              		.loc 1 1747 5 is_stmt 1 view .LVU1275
 4323              	.LVL371:
1748:../../Middlewares/Camera_Middleware/ISP_Library/isp/Src/isp_services.c ****     {
 4324              		.loc 1 1748 5 view .LVU1276
1748:../../Middlewares/Camera_Middleware/ISP_Library/isp/Src/isp_services.c ****     {
 4325              		.loc 1 1748 8 is_stmt 0 view .LVU1277
 4326 0116 95F86C30 		ldrb	r3, [r5, #108]	@ zero_extendqisi2
1746:../../Middlewares/Camera_Middleware/ISP_Library/isp/Src/isp_services.c ****     IQParamConfig = ISP_SVC_IQParam_Get(hIsp);
 4327              		.loc 1 1746 30 view .LVU1278
 4328 011a 0246     		mov	r2, r0
1748:../../Middlewares/Camera_Middleware/ISP_Library/isp/Src/isp_services.c ****     {
 4329              		.loc 1 1748 8 view .LVU1279
 4330 011c 042B     		cmp	r3, #4
 4331 011e 02D0     		beq	.L340
1748:../../Middlewares/Camera_Middleware/ISP_Library/isp/Src/isp_services.c ****     {
 4332              		.loc 1 1748 96 discriminator 1 view .LVU1280
 4333 0120 6A4B     		ldr	r3, .L412+24
1748:../../Middlewares/Camera_Middleware/ISP_Library/isp/Src/isp_services.c ****     {
 4334              		.loc 1 1748 65 discriminator 1 view .LVU1281
 4335 0122 1B7B     		ldrb	r3, [r3, #12]	@ zero_extendqisi2
ARM GAS  C:\Users\Antonio\AppData\Local\Temp\ccF6VN3M.s 			page 121


 4336 0124 23B9     		cbnz	r3, .L341
 4337              	.L340:
1750:../../Middlewares/Camera_Middleware/ISP_Library/isp/Src/isp_services.c ****     }
 4338              		.loc 1 1750 7 is_stmt 1 view .LVU1282
 4339              	.LVL372:
 4340              	.LBB178:
 4341              	.LBI178:
 440:../../Middlewares/Camera_Middleware/ISP_Library/isp/Src/isp_services.c **** {
 4342              		.loc 1 440 9 view .LVU1283
 4343              	.LBB179:
 444:../../Middlewares/Camera_Middleware/ISP_Library/isp/Src/isp_services.c **** }
 4344              		.loc 1 444 3 view .LVU1284
 444:../../Middlewares/Camera_Middleware/ISP_Library/isp/Src/isp_services.c **** }
 4345              		.loc 1 444 12 is_stmt 0 view .LVU1285
 4346 0126 3E44     		add	r6, r6, r7
 444:../../Middlewares/Camera_Middleware/ISP_Library/isp/Src/isp_services.c **** }
 4347              		.loc 1 444 16 view .LVU1286
 4348 0128 3244     		add	r2, r2, r6
 4349              	.LBE179:
 4350              	.LBE178:
1750:../../Middlewares/Camera_Middleware/ISP_Library/isp/Src/isp_services.c ****     }
 4351              		.loc 1 1750 30 discriminator 1 view .LVU1287
 4352 012a 84F8B320 		strb	r2, [r4, #179]
1750:../../Middlewares/Camera_Middleware/ISP_Library/isp/Src/isp_services.c ****     }
 4353              		.loc 1 1750 30 view .LVU1288
 4354 012e B4E7     		b	.L328
 4355              	.L341:
1754:../../Middlewares/Camera_Middleware/ISP_Library/isp/Src/isp_services.c ****     }
 4356              		.loc 1 1754 7 is_stmt 1 view .LVU1289
1754:../../Middlewares/Camera_Middleware/ISP_Library/isp/Src/isp_services.c ****     }
 4357              		.loc 1 1754 32 is_stmt 0 view .LVU1290
 4358 0130 3146     		mov	r1, r6
 4359 0132 3846     		mov	r0, r7
 4360 0134 FFF7FEFF 		bl	LuminanceFromRGB
 4361              	.LVL373:
1754:../../Middlewares/Camera_Middleware/ISP_Library/isp/Src/isp_services.c ****     }
 4362              		.loc 1 1754 30 discriminator 1 view .LVU1291
 4363 0138 84F8B300 		strb	r0, [r4, #179]
 4364 013c ADE7     		b	.L328
 4365              	.LVL374:
 4366              	.L333:
1759:../../Middlewares/Camera_Middleware/ISP_Library/isp/Src/isp_services.c ****     break;
 4367              		.loc 1 1759 5 is_stmt 1 view .LVU1292
 4368 013e 6449     		ldr	r1, .L412+28
 4369 0140 B6E7     		b	.L407
 4370              	.L332:
1763:../../Middlewares/Camera_Middleware/ISP_Library/isp/Src/isp_services.c ****     break;
 4371              		.loc 1 1763 5 view .LVU1293
 4372 0142 6449     		ldr	r1, .L412+32
 4373 0144 B4E7     		b	.L407
 4374              	.L331:
1767:../../Middlewares/Camera_Middleware/ISP_Library/isp/Src/isp_services.c ****     break;
 4375              		.loc 1 1767 5 view .LVU1294
 4376 0146 6449     		ldr	r1, .L412+36
 4377 0148 B2E7     		b	.L407
 4378              	.L329:
1771:../../Middlewares/Camera_Middleware/ISP_Library/isp/Src/isp_services.c ****     break;
ARM GAS  C:\Users\Antonio\AppData\Local\Temp\ccF6VN3M.s 			page 122


 4379              		.loc 1 1771 5 view .LVU1295
 4380 014a 6449     		ldr	r1, .L412+40
 4381 014c B0E7     		b	.L407
 4382              	.L348:
 4383              	.LVL375:
1808:../../Middlewares/Camera_Middleware/ISP_Library/isp/Src/isp_services.c ****     {
 4384              		.loc 1 1808 19 discriminator 1 view .LVU1296
1810:../../Middlewares/Camera_Middleware/ISP_Library/isp/Src/isp_services.c ****       statConf[i].Source = avgRGBDown[i];
 4385              		.loc 1 1810 7 view .LVU1297
1811:../../Middlewares/Camera_Middleware/ISP_Library/isp/Src/isp_services.c ****       statConf[i].Bins = DCMIPP_STAT_EXT_AVER_MODE_ALL_PIXELS;
 4386              		.loc 1 1811 26 is_stmt 0 view .LVU1298
 4387 014e 0023     		movs	r3, #0
 4388 0150 4022     		movs	r2, #64
 4389 0152 CDE90332 		strd	r3, r2, [sp, #12]
1812:../../Middlewares/Camera_Middleware/ISP_Library/isp/Src/isp_services.c ****     }
 4390              		.loc 1 1812 7 is_stmt 1 view .LVU1299
1811:../../Middlewares/Camera_Middleware/ISP_Library/isp/Src/isp_services.c ****       statConf[i].Bins = DCMIPP_STAT_EXT_AVER_MODE_ALL_PIXELS;
 4391              		.loc 1 1811 26 is_stmt 0 view .LVU1300
 4392 0156 5022     		movs	r2, #80
1812:../../Middlewares/Camera_Middleware/ISP_Library/isp/Src/isp_services.c ****     }
 4393              		.loc 1 1812 24 view .LVU1301
 4394 0158 CDE90723 		strd	r2, r3, [sp, #28]
1811:../../Middlewares/Camera_Middleware/ISP_Library/isp/Src/isp_services.c ****       statConf[i].Bins = DCMIPP_STAT_EXT_AVER_MODE_ALL_PIXELS;
 4395              		.loc 1 1811 26 view .LVU1302
 4396 015c 6022     		movs	r2, #96
1810:../../Middlewares/Camera_Middleware/ISP_Library/isp/Src/isp_services.c ****       statConf[i].Source = avgRGBDown[i];
 4397              		.loc 1 1810 24 view .LVU1303
 4398 015e CDE90533 		strd	r3, r3, [sp, #20]
1811:../../Middlewares/Camera_Middleware/ISP_Library/isp/Src/isp_services.c ****       statConf[i].Bins = DCMIPP_STAT_EXT_AVER_MODE_ALL_PIXELS;
 4399              		.loc 1 1811 7 is_stmt 1 view .LVU1304
1808:../../Middlewares/Camera_Middleware/ISP_Library/isp/Src/isp_services.c ****     {
 4400              		.loc 1 1808 25 discriminator 3 view .LVU1305
 4401              	.LVL376:
1808:../../Middlewares/Camera_Middleware/ISP_Library/isp/Src/isp_services.c ****     {
 4402              		.loc 1 1808 19 discriminator 1 view .LVU1306
1810:../../Middlewares/Camera_Middleware/ISP_Library/isp/Src/isp_services.c ****       statConf[i].Source = avgRGBDown[i];
 4403              		.loc 1 1810 7 view .LVU1307
1810:../../Middlewares/Camera_Middleware/ISP_Library/isp/Src/isp_services.c ****       statConf[i].Source = avgRGBDown[i];
 4404              		.loc 1 1810 24 is_stmt 0 view .LVU1308
 4405 0162 0993     		str	r3, [sp, #36]
1811:../../Middlewares/Camera_Middleware/ISP_Library/isp/Src/isp_services.c ****       statConf[i].Bins = DCMIPP_STAT_EXT_AVER_MODE_ALL_PIXELS;
 4406              		.loc 1 1811 7 is_stmt 1 view .LVU1309
 4407              	.L408:
1787:../../Middlewares/Camera_Middleware/ISP_Library/isp/Src/isp_services.c ****     }
 4408              		.loc 1 1787 24 is_stmt 0 view .LVU1310
 4409 0164 CDE90A23 		strd	r2, r3, [sp, #40]
1783:../../Middlewares/Camera_Middleware/ISP_Library/isp/Src/isp_services.c ****     {
 4410              		.loc 1 1783 25 is_stmt 1 discriminator 3 view .LVU1311
 4411              	.LVL377:
1783:../../Middlewares/Camera_Middleware/ISP_Library/isp/Src/isp_services.c ****     {
 4412              		.loc 1 1783 19 discriminator 1 view .LVU1312
1838:../../Middlewares/Camera_Middleware/ISP_Library/isp/Src/isp_services.c ****   {
 4413              		.loc 1 1838 38 discriminator 1 view .LVU1313
 4414              	.L342:
1684:../../Middlewares/Camera_Middleware/ISP_Library/isp/Src/isp_services.c ****   static ISP_SVC_StatEngineStage stagePrevious1 = ISP_STAT_CFG_LAST, stagePrevious2 = ISP_STAT_CFG_
 4415              		.loc 1 1684 1 is_stmt 0 view .LVU1314
 4416 0168 4FF00108 		mov	r8, #1
ARM GAS  C:\Users\Antonio\AppData\Local\Temp\ccF6VN3M.s 			page 123


 4417 016c 03AF     		add	r7, sp, #12
 4418              	.L356:
 4419              	.LVL378:
1840:../../Middlewares/Camera_Middleware/ISP_Library/isp/Src/isp_services.c ****     {
 4420              		.loc 1 1840 5 is_stmt 1 view .LVU1315
 4421 016e 5FFA88F6 		uxtb	r6, r8
1840:../../Middlewares/Camera_Middleware/ISP_Library/isp/Src/isp_services.c ****     {
 4422              		.loc 1 1840 9 is_stmt 0 view .LVU1316
 4423 0172 3B46     		mov	r3, r7
 4424 0174 3246     		mov	r2, r6
 4425 0176 0121     		movs	r1, #1
 4426 0178 2868     		ldr	r0, [r5]
 4427 017a FFF7FEFF 		bl	HAL_DCMIPP_PIPE_SetISPStatisticExtractionConfig
 4428              	.LVL379:
1840:../../Middlewares/Camera_Middleware/ISP_Library/isp/Src/isp_services.c ****     {
 4429              		.loc 1 1840 8 discriminator 1 view .LVU1317
 4430 017e 18B3     		cbz	r0, .L354
1842:../../Middlewares/Camera_Middleware/ISP_Library/isp/Src/isp_services.c ****       return;
 4431              		.loc 1 1842 7 is_stmt 1 view .LVU1318
 4432 0180 5748     		ldr	r0, .L412+44
 4433              	.L411:
1848:../../Middlewares/Camera_Middleware/ISP_Library/isp/Src/isp_services.c ****       return;
 4434              		.loc 1 1848 7 is_stmt 0 view .LVU1319
 4435 0182 FFF7FEFF 		bl	puts
 4436              	.LVL380:
1849:../../Middlewares/Camera_Middleware/ISP_Library/isp/Src/isp_services.c ****     }
 4437              		.loc 1 1849 7 is_stmt 1 view .LVU1320
 4438              	.L325:
 4439              		.loc 1 1903 1 is_stmt 0 view .LVU1321
 4440 0186 0DB0     		add	sp, sp, #52
 4441              		.cfi_remember_state
 4442              		.cfi_def_cfa_offset 36
 4443              		@ sp needed
 4444 0188 BDE8F08F 		pop	{r4, r5, r6, r7, r8, r9, r10, fp, pc}
 4445              	.LVL381:
 4446              	.L353:
 4447              		.cfi_restore_state
1783:../../Middlewares/Camera_Middleware/ISP_Library/isp/Src/isp_services.c ****     {
 4448              		.loc 1 1783 19 is_stmt 1 discriminator 1 view .LVU1322
1785:../../Middlewares/Camera_Middleware/ISP_Library/isp/Src/isp_services.c ****       statConf[i].Source = avgRGBUp[i];
 4449              		.loc 1 1785 7 view .LVU1323
1785:../../Middlewares/Camera_Middleware/ISP_Library/isp/Src/isp_services.c ****       statConf[i].Source = avgRGBUp[i];
 4450              		.loc 1 1785 24 is_stmt 0 view .LVU1324
 4451 018c 0023     		movs	r3, #0
1786:../../Middlewares/Camera_Middleware/ISP_Library/isp/Src/isp_services.c ****       statConf[i].Bins = DCMIPP_STAT_EXT_AVER_MODE_ALL_PIXELS;
 4452              		.loc 1 1786 26 view .LVU1325
 4453 018e 1022     		movs	r2, #16
 4454 0190 CDE90333 		strd	r3, r3, [sp, #12]
1787:../../Middlewares/Camera_Middleware/ISP_Library/isp/Src/isp_services.c ****     }
 4455              		.loc 1 1787 7 is_stmt 1 view .LVU1326
1787:../../Middlewares/Camera_Middleware/ISP_Library/isp/Src/isp_services.c ****     }
 4456              		.loc 1 1787 24 is_stmt 0 view .LVU1327
 4457 0194 CDE90723 		strd	r2, r3, [sp, #28]
1785:../../Middlewares/Camera_Middleware/ISP_Library/isp/Src/isp_services.c ****       statConf[i].Source = avgRGBUp[i];
 4458              		.loc 1 1785 24 view .LVU1328
 4459 0198 CDE90533 		strd	r3, r3, [sp, #20]
1786:../../Middlewares/Camera_Middleware/ISP_Library/isp/Src/isp_services.c ****       statConf[i].Bins = DCMIPP_STAT_EXT_AVER_MODE_ALL_PIXELS;
ARM GAS  C:\Users\Antonio\AppData\Local\Temp\ccF6VN3M.s 			page 124


 4460              		.loc 1 1786 7 is_stmt 1 view .LVU1329
1783:../../Middlewares/Camera_Middleware/ISP_Library/isp/Src/isp_services.c ****     {
 4461              		.loc 1 1783 25 discriminator 3 view .LVU1330
 4462              	.LVL382:
1783:../../Middlewares/Camera_Middleware/ISP_Library/isp/Src/isp_services.c ****     {
 4463              		.loc 1 1783 19 discriminator 1 view .LVU1331
1785:../../Middlewares/Camera_Middleware/ISP_Library/isp/Src/isp_services.c ****       statConf[i].Source = avgRGBUp[i];
 4464              		.loc 1 1785 7 view .LVU1332
1786:../../Middlewares/Camera_Middleware/ISP_Library/isp/Src/isp_services.c ****       statConf[i].Bins = DCMIPP_STAT_EXT_AVER_MODE_ALL_PIXELS;
 4465              		.loc 1 1786 26 is_stmt 0 view .LVU1333
 4466 019c 2022     		movs	r2, #32
1785:../../Middlewares/Camera_Middleware/ISP_Library/isp/Src/isp_services.c ****       statConf[i].Source = avgRGBUp[i];
 4467              		.loc 1 1785 24 view .LVU1334
 4468 019e 0993     		str	r3, [sp, #36]
1786:../../Middlewares/Camera_Middleware/ISP_Library/isp/Src/isp_services.c ****       statConf[i].Bins = DCMIPP_STAT_EXT_AVER_MODE_ALL_PIXELS;
 4469              		.loc 1 1786 7 is_stmt 1 view .LVU1335
 4470 01a0 E0E7     		b	.L408
 4471              	.LVL383:
 4472              	.L352:
1792:../../Middlewares/Camera_Middleware/ISP_Library/isp/Src/isp_services.c ****     break;
 4473              		.loc 1 1792 5 view .LVU1336
 4474 01a2 5049     		ldr	r1, .L412+48
 4475              	.L409:
1829:../../Middlewares/Camera_Middleware/ISP_Library/isp/Src/isp_services.c ****     break;
 4476              		.loc 1 1829 5 is_stmt 0 view .LVU1337
 4477 01a4 03A8     		add	r0, sp, #12
 4478 01a6 FFF7FEFF 		bl	SetStatConfig
 4479              	.LVL384:
1830:../../Middlewares/Camera_Middleware/ISP_Library/isp/Src/isp_services.c **** 
 4480              		.loc 1 1830 5 is_stmt 1 view .LVU1338
1838:../../Middlewares/Camera_Middleware/ISP_Library/isp/Src/isp_services.c ****   {
 4481              		.loc 1 1838 38 discriminator 1 view .LVU1339
 4482 01aa DDE7     		b	.L342
 4483              	.LVL385:
 4484              	.L351:
1796:../../Middlewares/Camera_Middleware/ISP_Library/isp/Src/isp_services.c ****     break;
 4485              		.loc 1 1796 5 view .LVU1340
 4486 01ac 4E49     		ldr	r1, .L412+52
 4487 01ae F9E7     		b	.L409
 4488              	.L350:
1800:../../Middlewares/Camera_Middleware/ISP_Library/isp/Src/isp_services.c ****     break;
 4489              		.loc 1 1800 5 view .LVU1341
 4490 01b0 4E49     		ldr	r1, .L412+56
 4491 01b2 F7E7     		b	.L409
 4492              	.L349:
1804:../../Middlewares/Camera_Middleware/ISP_Library/isp/Src/isp_services.c ****     break;
 4493              		.loc 1 1804 5 view .LVU1342
 4494 01b4 4E49     		ldr	r1, .L412+60
 4495 01b6 F5E7     		b	.L409
 4496              	.L347:
1817:../../Middlewares/Camera_Middleware/ISP_Library/isp/Src/isp_services.c ****     break;
 4497              		.loc 1 1817 5 view .LVU1343
 4498 01b8 4E49     		ldr	r1, .L412+64
 4499 01ba F3E7     		b	.L409
 4500              	.L346:
1821:../../Middlewares/Camera_Middleware/ISP_Library/isp/Src/isp_services.c ****     break;
 4501              		.loc 1 1821 5 view .LVU1344
ARM GAS  C:\Users\Antonio\AppData\Local\Temp\ccF6VN3M.s 			page 125


 4502 01bc 4E49     		ldr	r1, .L412+68
 4503 01be F1E7     		b	.L409
 4504              	.L345:
1825:../../Middlewares/Camera_Middleware/ISP_Library/isp/Src/isp_services.c ****     break;
 4505              		.loc 1 1825 5 view .LVU1345
 4506 01c0 4E49     		ldr	r1, .L412+72
 4507 01c2 EFE7     		b	.L409
 4508              	.L343:
1829:../../Middlewares/Camera_Middleware/ISP_Library/isp/Src/isp_services.c ****     break;
 4509              		.loc 1 1829 5 view .LVU1346
 4510 01c4 4E49     		ldr	r1, .L412+76
 4511 01c6 EDE7     		b	.L409
 4512              	.LVL386:
 4513              	.L354:
1846:../../Middlewares/Camera_Middleware/ISP_Library/isp/Src/isp_services.c ****     {
 4514              		.loc 1 1846 5 view .LVU1347
1846:../../Middlewares/Camera_Middleware/ISP_Library/isp/Src/isp_services.c ****     {
 4515              		.loc 1 1846 9 is_stmt 0 view .LVU1348
 4516 01c8 3246     		mov	r2, r6
 4517 01ca 0121     		movs	r1, #1
 4518 01cc 2868     		ldr	r0, [r5]
 4519 01ce FFF7FEFF 		bl	HAL_DCMIPP_PIPE_EnableISPStatisticExtraction
 4520              	.LVL387:
1846:../../Middlewares/Camera_Middleware/ISP_Library/isp/Src/isp_services.c ****     {
 4521              		.loc 1 1846 8 discriminator 1 view .LVU1349
 4522 01d2 0646     		mov	r6, r0
 4523 01d4 08B1     		cbz	r0, .L355
1848:../../Middlewares/Camera_Middleware/ISP_Library/isp/Src/isp_services.c ****       return;
 4524              		.loc 1 1848 7 is_stmt 1 view .LVU1350
 4525 01d6 4B48     		ldr	r0, .L412+80
 4526 01d8 D3E7     		b	.L411
 4527              	.L355:
1838:../../Middlewares/Camera_Middleware/ISP_Library/isp/Src/isp_services.c ****   {
 4528              		.loc 1 1838 66 discriminator 2 view .LVU1351
 4529 01da 08F10108 		add	r8, r8, #1
 4530              	.LVL388:
1838:../../Middlewares/Camera_Middleware/ISP_Library/isp/Src/isp_services.c ****   {
 4531              		.loc 1 1838 38 discriminator 1 view .LVU1352
 4532 01de B8F1040F 		cmp	r8, #4
 4533 01e2 07F10C07 		add	r7, r7, #12
 4534 01e6 C2D1     		bne	.L356
1854:../../Middlewares/Camera_Middleware/ISP_Library/isp/Src/isp_services.c **** 
 4535              		.loc 1 1854 3 view .LVU1353
 4536              	.LVL389:
 4537              	.LBB180:
 4538              	.LBI180:
1344:../../Middlewares/Camera_Middleware/ISP_Library/isp/Src/isp_services.c **** {
 4539              		.loc 1 1344 10 view .LVU1354
 4540              	.LBB181:
1346:../../Middlewares/Camera_Middleware/ISP_Library/isp/Src/isp_services.c **** }
 4541              		.loc 1 1346 3 view .LVU1355
 4542              	.LBE181:
 4543              	.LBE180:
 4544              	.LBB183:
 4545              	.LBB184:
 4546              	.LBB185:
 4547              	.LBB186:
ARM GAS  C:\Users\Antonio\AppData\Local\Temp\ccF6VN3M.s 			page 126


 370:../../Middlewares/Camera_Middleware/ISP_Library/isp/Src/isp_services.c ****         (ISP_SVC_StatEngine.upRequest & ISP_STAT_TYPE_ALL_TMP))
 4548              		.loc 1 370 28 is_stmt 0 view .LVU1356
 4549 01e8 94F85881 		ldrb	r8, [r4, #344]	@ zero_extendqisi2
 4550              	.LVL390:
 370:../../Middlewares/Camera_Middleware/ISP_Library/isp/Src/isp_services.c ****         (ISP_SVC_StatEngine.upRequest & ISP_STAT_TYPE_ALL_TMP))
 4551              		.loc 1 370 28 view .LVU1357
 4552              	.LBE186:
 4553              	.LBE185:
 4554              	.LBE184:
 4555              	.LBE183:
1856:../../Middlewares/Camera_Middleware/ISP_Library/isp/Src/isp_services.c ****   {
 4556              		.loc 1 1856 22 discriminator 1 view .LVU1358
 4557 01ec 99F800B0 		ldrb	fp, [r9]	@ zero_extendqisi2
 4558              	.LBB193:
 4559              	.LBB191:
 4560              	.LBB189:
 4561              	.LBB187:
 370:../../Middlewares/Camera_Middleware/ISP_Library/isp/Src/isp_services.c ****         (ISP_SVC_StatEngine.upRequest & ISP_STAT_TYPE_ALL_TMP))
 4562              		.loc 1 370 8 view .LVU1359
 4563 01f0 18F0050F 		tst	r8, #5
 4564              	.LBE187:
 4565              	.LBE189:
 4566              	.LBE191:
 4567              	.LBE193:
1856:../../Middlewares/Camera_Middleware/ISP_Library/isp/Src/isp_services.c ****   {
 4568              		.loc 1 1856 6 discriminator 1 view .LVU1360
 4569 01f4 0CBF     		ite	eq
 4570 01f6 0123     		moveq	r3, #1
 4571 01f8 0023     		movne	r3, #0
 4572              	.LBB194:
 4573              	.LBB182:
1346:../../Middlewares/Camera_Middleware/ISP_Library/isp/Src/isp_services.c **** }
 4574              		.loc 1 1346 14 view .LVU1361
 4575 01fa D5F840A0 		ldr	r10, [r5, #64]
 4576              	.LVL391:
1346:../../Middlewares/Camera_Middleware/ISP_Library/isp/Src/isp_services.c **** }
 4577              		.loc 1 1346 14 view .LVU1362
 4578              	.LBE182:
 4579              	.LBE194:
1856:../../Middlewares/Camera_Middleware/ISP_Library/isp/Src/isp_services.c ****   {
 4580              		.loc 1 1856 3 is_stmt 1 view .LVU1363
 4581              	.LBB195:
 4582              	.LBI183:
 364:../../Middlewares/Camera_Middleware/ISP_Library/isp/Src/isp_services.c **** {
 4583              		.loc 1 364 32 view .LVU1364
 4584              	.LBB192:
 366:../../Middlewares/Camera_Middleware/ISP_Library/isp/Src/isp_services.c **** 
 4585              		.loc 1 366 3 view .LVU1365
 368:../../Middlewares/Camera_Middleware/ISP_Library/isp/Src/isp_services.c ****   {
 4586              		.loc 1 368 3 view .LVU1366
 4587              	.LBB190:
 4588              	.LBI185:
 364:../../Middlewares/Camera_Middleware/ISP_Library/isp/Src/isp_services.c **** {
 4589              		.loc 1 364 32 view .LVU1367
 4590              	.LBB188:
 370:../../Middlewares/Camera_Middleware/ISP_Library/isp/Src/isp_services.c ****         (ISP_SVC_StatEngine.upRequest & ISP_STAT_TYPE_ALL_TMP))
 4591              		.loc 1 370 5 view .LVU1368
ARM GAS  C:\Users\Antonio\AppData\Local\Temp\ccF6VN3M.s 			page 127


 396:../../Middlewares/Camera_Middleware/ISP_Library/isp/Src/isp_services.c **** }
 4592              		.loc 1 396 3 view .LVU1369
 396:../../Middlewares/Camera_Middleware/ISP_Library/isp/Src/isp_services.c **** }
 4593              		.loc 1 396 3 is_stmt 0 view .LVU1370
 4594              	.LBE188:
 4595              	.LBE190:
 396:../../Middlewares/Camera_Middleware/ISP_Library/isp/Src/isp_services.c **** }
 4596              		.loc 1 396 3 is_stmt 1 view .LVU1371
 396:../../Middlewares/Camera_Middleware/ISP_Library/isp/Src/isp_services.c **** }
 4597              		.loc 1 396 3 is_stmt 0 view .LVU1372
 4598              	.LBE192:
 4599              	.LBE195:
 4600              	.LBB196:
 4601              	.LBB197:
 384:../../Middlewares/Camera_Middleware/ISP_Library/isp/Src/isp_services.c ****         (ISP_SVC_StatEngine.downRequest & ISP_STAT_TYPE_ALL_TMP))
 4602              		.loc 1 384 28 view .LVU1373
 4603 01fe 94F85971 		ldrb	r7, [r4, #345]	@ zero_extendqisi2
 4604              	.LBE197:
 4605              	.LBE196:
1856:../../Middlewares/Camera_Middleware/ISP_Library/isp/Src/isp_services.c ****   {
 4606              		.loc 1 1856 6 discriminator 1 view .LVU1374
 4607 0202 5B45     		cmp	r3, fp
1858:../../Middlewares/Camera_Middleware/ISP_Library/isp/Src/isp_services.c ****   }
 4608              		.loc 1 1858 5 is_stmt 1 view .LVU1375
1858:../../Middlewares/Camera_Middleware/ISP_Library/isp/Src/isp_services.c ****   }
 4609              		.loc 1 1858 29 is_stmt 0 view .LVU1376
 4610 0204 08BF     		it	eq
 4611 0206 C4F8E4A0 		streq	r10, [r4, #228]
1861:../../Middlewares/Camera_Middleware/ISP_Library/isp/Src/isp_services.c ****   {
 4612              		.loc 1 1861 3 is_stmt 1 view .LVU1377
 4613              	.LBB199:
 4614              	.LBI196:
 364:../../Middlewares/Camera_Middleware/ISP_Library/isp/Src/isp_services.c **** {
 4615              		.loc 1 364 32 view .LVU1378
 4616              	.LVL392:
 4617              	.LBB198:
 366:../../Middlewares/Camera_Middleware/ISP_Library/isp/Src/isp_services.c **** 
 4618              		.loc 1 366 3 view .LVU1379
 368:../../Middlewares/Camera_Middleware/ISP_Library/isp/Src/isp_services.c ****   {
 4619              		.loc 1 368 3 view .LVU1380
 384:../../Middlewares/Camera_Middleware/ISP_Library/isp/Src/isp_services.c ****         (ISP_SVC_StatEngine.downRequest & ISP_STAT_TYPE_ALL_TMP))
 4620              		.loc 1 384 5 view .LVU1381
 388:../../Middlewares/Camera_Middleware/ISP_Library/isp/Src/isp_services.c ****     }
 4621              		.loc 1 388 13 is_stmt 0 view .LVU1382
 4622 020a 17F0050F 		tst	r7, #5
 4623 020e 0CBF     		ite	eq
 4624 0210 0623     		moveq	r3, #6
 4625 0212 0523     		movne	r3, #5
 4626              	.LVL393:
 396:../../Middlewares/Camera_Middleware/ISP_Library/isp/Src/isp_services.c **** }
 4627              		.loc 1 396 3 is_stmt 1 view .LVU1383
 396:../../Middlewares/Camera_Middleware/ISP_Library/isp/Src/isp_services.c **** }
 4628              		.loc 1 396 3 is_stmt 0 view .LVU1384
 4629              	.LBE198:
 4630              	.LBE199:
1861:../../Middlewares/Camera_Middleware/ISP_Library/isp/Src/isp_services.c ****   {
 4631              		.loc 1 1861 6 discriminator 1 view .LVU1385
ARM GAS  C:\Users\Antonio\AppData\Local\Temp\ccF6VN3M.s 			page 128


 4632 0214 9B45     		cmp	fp, r3
 4633 0216 7DD1     		bne	.L359
1863:../../Middlewares/Camera_Middleware/ISP_Library/isp/Src/isp_services.c ****   }
 4634              		.loc 1 1863 5 is_stmt 1 view .LVU1386
1863:../../Middlewares/Camera_Middleware/ISP_Library/isp/Src/isp_services.c ****   }
 4635              		.loc 1 1863 31 is_stmt 0 view .LVU1387
 4636 0218 C4F8ECA0 		str	r10, [r4, #236]
1866:../../Middlewares/Camera_Middleware/ISP_Library/isp/Src/isp_services.c ****   {
 4637              		.loc 1 1866 3 is_stmt 1 view .LVU1388
 4638              	.LVL394:
 4639              	.LBB200:
 4640              	.LBI200:
 399:../../Middlewares/Camera_Middleware/ISP_Library/isp/Src/isp_services.c **** {
 4641              		.loc 1 399 32 view .LVU1389
 4642              	.LBB201:
 401:../../Middlewares/Camera_Middleware/ISP_Library/isp/Src/isp_services.c **** 
 4643              		.loc 1 401 3 view .LVU1390
 403:../../Middlewares/Camera_Middleware/ISP_Library/isp/Src/isp_services.c ****   {
 4644              		.loc 1 403 3 view .LVU1391
 4645              	.LBB202:
 4646              	.LBI202:
 399:../../Middlewares/Camera_Middleware/ISP_Library/isp/Src/isp_services.c **** {
 4647              		.loc 1 399 32 view .LVU1392
 4648              	.LBB203:
 405:../../Middlewares/Camera_Middleware/ISP_Library/isp/Src/isp_services.c ****         (ISP_SVC_StatEngine.upRequest & ISP_STAT_TYPE_ALL_TMP))
 4649              		.loc 1 405 5 view .LVU1393
 431:../../Middlewares/Camera_Middleware/ISP_Library/isp/Src/isp_services.c **** }
 4650              		.loc 1 431 3 view .LVU1394
 431:../../Middlewares/Camera_Middleware/ISP_Library/isp/Src/isp_services.c **** }
 4651              		.loc 1 431 3 is_stmt 0 view .LVU1395
 4652              	.LBE203:
 4653              	.LBE202:
 431:../../Middlewares/Camera_Middleware/ISP_Library/isp/Src/isp_services.c **** }
 4654              		.loc 1 431 3 is_stmt 1 view .LVU1396
 4655              	.L360:
 431:../../Middlewares/Camera_Middleware/ISP_Library/isp/Src/isp_services.c **** }
 4656              		.loc 1 431 3 is_stmt 0 view .LVU1397
 4657              	.LBE201:
 4658              	.LBE200:
1878:../../Middlewares/Camera_Middleware/ISP_Library/isp/Src/isp_services.c ****   {
 4659              		.loc 1 1878 3 is_stmt 1 view .LVU1398
 4660              	.LBB209:
 4661              	.LBI209:
 399:../../Middlewares/Camera_Middleware/ISP_Library/isp/Src/isp_services.c **** {
 4662              		.loc 1 399 32 view .LVU1399
 4663              	.LBB210:
 401:../../Middlewares/Camera_Middleware/ISP_Library/isp/Src/isp_services.c **** 
 4664              		.loc 1 401 3 view .LVU1400
 403:../../Middlewares/Camera_Middleware/ISP_Library/isp/Src/isp_services.c ****   {
 4665              		.loc 1 403 3 view .LVU1401
 419:../../Middlewares/Camera_Middleware/ISP_Library/isp/Src/isp_services.c ****         (ISP_SVC_StatEngine.downRequest & ISP_STAT_TYPE_ALL_TMP))
 4666              		.loc 1 419 5 view .LVU1402
 423:../../Middlewares/Camera_Middleware/ISP_Library/isp/Src/isp_services.c ****     }
 4667              		.loc 1 423 13 is_stmt 0 view .LVU1403
 4668 021c 17F0060F 		tst	r7, #6
 4669 0220 0CBF     		ite	eq
 4670 0222 0523     		moveq	r3, #5
ARM GAS  C:\Users\Antonio\AppData\Local\Temp\ccF6VN3M.s 			page 129


 4671 0224 0923     		movne	r3, #9
 4672              	.LVL395:
 431:../../Middlewares/Camera_Middleware/ISP_Library/isp/Src/isp_services.c **** }
 4673              		.loc 1 431 3 is_stmt 1 view .LVU1404
 431:../../Middlewares/Camera_Middleware/ISP_Library/isp/Src/isp_services.c **** }
 4674              		.loc 1 431 3 is_stmt 0 view .LVU1405
 4675              	.LBE210:
 4676              	.LBE209:
1878:../../Middlewares/Camera_Middleware/ISP_Library/isp/Src/isp_services.c ****   {
 4677              		.loc 1 1878 6 discriminator 1 view .LVU1406
 4678 0226 9B45     		cmp	fp, r3
 4679 0228 1ED1     		bne	.L362
1878:../../Middlewares/Camera_Middleware/ISP_Library/isp/Src/isp_services.c ****   {
 4680              		.loc 1 1878 73 discriminator 1 view .LVU1407
 4681 022a D4F8ECE0 		ldr	lr, [r4, #236]
1878:../../Middlewares/Camera_Middleware/ISP_Library/isp/Src/isp_services.c ****   {
 4682              		.loc 1 1878 62 discriminator 1 view .LVU1408
 4683 022e BEF1000F 		cmp	lr, #0
 4684 0232 19D0     		beq	.L362
1881:../../Middlewares/Camera_Middleware/ISP_Library/isp/Src/isp_services.c ****     ISP_SVC_StatEngine.last.downFrameIdEnd = frameId;
 4685              		.loc 1 1881 5 is_stmt 1 view .LVU1409
1881:../../Middlewares/Camera_Middleware/ISP_Library/isp/Src/isp_services.c ****     ISP_SVC_StatEngine.last.downFrameIdEnd = frameId;
 4686              		.loc 1 1881 34 is_stmt 0 view .LVU1410
 4687 0234 344D     		ldr	r5, .L412+84
1883:../../Middlewares/Camera_Middleware/ISP_Library/isp/Src/isp_services.c **** 
 4688              		.loc 1 1883 46 view .LVU1411
 4689 0236 C4E91DEA 		strd	lr, r10, [r4, #116]
1881:../../Middlewares/Camera_Middleware/ISP_Library/isp/Src/isp_services.c ****     ISP_SVC_StatEngine.last.downFrameIdEnd = frameId;
 4690              		.loc 1 1881 34 view .LVU1412
 4691 023a 05F1780C 		add	ip, r5, #120
 4692 023e BCE80F00 		ldmia	ip!, {r0, r1, r2, r3}
 4693 0242 0FC5     		stmia	r5!, {r0, r1, r2, r3}
 4694 0244 BCE80F00 		ldmia	ip!, {r0, r1, r2, r3}
 4695 0248 0FC5     		stmia	r5!, {r0, r1, r2, r3}
 4696 024a BCE80F00 		ldmia	ip!, {r0, r1, r2, r3}
 4697 024e 0FC5     		stmia	r5!, {r0, r1, r2, r3}
 4698 0250 2846     		mov	r0, r5
 4699 0252 DCF80030 		ldr	r3, [ip]
1885:../../Middlewares/Camera_Middleware/ISP_Library/isp/Src/isp_services.c ****     ongoing->downFrameIdStart = 0;
 4700              		.loc 1 1885 5 view .LVU1413
 4701 0256 3422     		movs	r2, #52
1881:../../Middlewares/Camera_Middleware/ISP_Library/isp/Src/isp_services.c ****     ISP_SVC_StatEngine.last.downFrameIdEnd = frameId;
 4702              		.loc 1 1881 34 view .LVU1414
 4703 0258 40F8483B 		str	r3, [r0], #72
1882:../../Middlewares/Camera_Middleware/ISP_Library/isp/Src/isp_services.c ****     ISP_SVC_StatEngine.last.downFrameIdStart = ongoing->downFrameIdStart;
 4704              		.loc 1 1882 5 is_stmt 1 view .LVU1415
1885:../../Middlewares/Camera_Middleware/ISP_Library/isp/Src/isp_services.c ****     ongoing->downFrameIdStart = 0;
 4705              		.loc 1 1885 5 view .LVU1416
 4706 025c 0021     		movs	r1, #0
 4707 025e FFF7FEFF 		bl	memset
 4708              	.LVL396:
1886:../../Middlewares/Camera_Middleware/ISP_Library/isp/Src/isp_services.c ****     ongoing->downFrameIdEnd = 0;
 4709              		.loc 1 1886 5 view .LVU1417
1886:../../Middlewares/Camera_Middleware/ISP_Library/isp/Src/isp_services.c ****     ongoing->downFrameIdEnd = 0;
 4710              		.loc 1 1886 31 is_stmt 0 view .LVU1418
 4711 0262 0023     		movs	r3, #0
1887:../../Middlewares/Camera_Middleware/ISP_Library/isp/Src/isp_services.c ****   }
ARM GAS  C:\Users\Antonio\AppData\Local\Temp\ccF6VN3M.s 			page 130


 4712              		.loc 1 1887 29 view .LVU1419
 4713 0264 C4E93B33 		strd	r3, r3, [r4, #236]
 4714              	.L362:
1890:../../Middlewares/Camera_Middleware/ISP_Library/isp/Src/isp_services.c ****        (ISP_SVC_StatEngine.downRequest & ISP_STAT_TYPE_ALL_TMP)) &&
 4715              		.loc 1 1890 3 is_stmt 1 view .LVU1420
1890:../../Middlewares/Camera_Middleware/ISP_Library/isp/Src/isp_services.c ****        (ISP_SVC_StatEngine.downRequest & ISP_STAT_TYPE_ALL_TMP)) &&
 4716              		.loc 1 1890 63 is_stmt 0 discriminator 1 view .LVU1421
 4717 0268 48EA0703 		orr	r3, r8, r7
 4718 026c 5A07     		lsls	r2, r3, #29
 4719 026e 0BD5     		bpl	.L363
1891:../../Middlewares/Camera_Middleware/ISP_Library/isp/Src/isp_services.c ****       (frameId > ISP_SVC_StatEngine.requestAllCounter))
 4720              		.loc 1 1891 66 view .LVU1422
 4721 0270 D4F85C31 		ldr	r3, [r4, #348]
 4722 0274 5345     		cmp	r3, r10
1895:../../Middlewares/Camera_Middleware/ISP_Library/isp/Src/isp_services.c ****     ISP_SVC_StatEngine.downRequest &= ~ISP_STAT_TYPE_ALL_TMP;
 4723              		.loc 1 1895 5 is_stmt 1 view .LVU1423
1895:../../Middlewares/Camera_Middleware/ISP_Library/isp/Src/isp_services.c ****     ISP_SVC_StatEngine.downRequest &= ~ISP_STAT_TYPE_ALL_TMP;
 4724              		.loc 1 1895 34 is_stmt 0 view .LVU1424
 4725 0276 3FBF     		itttt	cc
 4726 0278 28F00408 		biccc	r8, r8, #4
1896:../../Middlewares/Camera_Middleware/ISP_Library/isp/Src/isp_services.c ****   }
 4727              		.loc 1 1896 36 view .LVU1425
 4728 027c 27F00407 		biccc	r7, r7, #4
1895:../../Middlewares/Camera_Middleware/ISP_Library/isp/Src/isp_services.c ****     ISP_SVC_StatEngine.downRequest &= ~ISP_STAT_TYPE_ALL_TMP;
 4729              		.loc 1 1895 34 view .LVU1426
 4730 0280 84F85881 		strbcc	r8, [r4, #344]
1896:../../Middlewares/Camera_Middleware/ISP_Library/isp/Src/isp_services.c ****   }
 4731              		.loc 1 1896 5 is_stmt 1 view .LVU1427
1896:../../Middlewares/Camera_Middleware/ISP_Library/isp/Src/isp_services.c ****   }
 4732              		.loc 1 1896 36 is_stmt 0 view .LVU1428
 4733 0284 84F85971 		strbcc	r7, [r4, #345]
 4734              	.L363:
1900:../../Middlewares/Camera_Middleware/ISP_Library/isp/Src/isp_services.c ****   stagePrevious1 = ISP_SVC_StatEngine.stage;
 4735              		.loc 1 1900 3 is_stmt 1 view .LVU1429
1900:../../Middlewares/Camera_Middleware/ISP_Library/isp/Src/isp_services.c ****   stagePrevious1 = ISP_SVC_StatEngine.stage;
 4736              		.loc 1 1900 18 is_stmt 0 view .LVU1430
 4737 0288 204B     		ldr	r3, .L412+88
 4738              	.LBB211:
 4739              	.LBB212:
 248:../../Middlewares/Camera_Middleware/ISP_Library/isp/Src/isp_services.c ****       (ISP_SVC_StatEngine.downRequest & ISP_STAT_TYPE_ALL_TMP))
 4740              		.loc 1 248 26 view .LVU1431
 4741 028a 94F85811 		ldrb	r1, [r4, #344]	@ zero_extendqisi2
 4742              	.LBE212:
 4743              	.LBE211:
1900:../../Middlewares/Camera_Middleware/ISP_Library/isp/Src/isp_services.c ****   stagePrevious1 = ISP_SVC_StatEngine.stage;
 4744              		.loc 1 1900 18 view .LVU1432
 4745 028e 1A78     		ldrb	r2, [r3]	@ zero_extendqisi2
 4746 0290 89F80020 		strb	r2, [r9]
1901:../../Middlewares/Camera_Middleware/ISP_Library/isp/Src/isp_services.c ****   ISP_SVC_StatEngine.stage = GetNextStatStage(ISP_SVC_StatEngine.stage);
 4747              		.loc 1 1901 3 is_stmt 1 view .LVU1433
1901:../../Middlewares/Camera_Middleware/ISP_Library/isp/Src/isp_services.c ****   ISP_SVC_StatEngine.stage = GetNextStatStage(ISP_SVC_StatEngine.stage);
 4748              		.loc 1 1901 38 is_stmt 0 view .LVU1434
 4749 0294 2278     		ldrb	r2, [r4]	@ zero_extendqisi2
1901:../../Middlewares/Camera_Middleware/ISP_Library/isp/Src/isp_services.c ****   ISP_SVC_StatEngine.stage = GetNextStatStage(ISP_SVC_StatEngine.stage);
 4750              		.loc 1 1901 18 view .LVU1435
 4751 0296 1A70     		strb	r2, [r3]
1902:../../Middlewares/Camera_Middleware/ISP_Library/isp/Src/isp_services.c **** }
ARM GAS  C:\Users\Antonio\AppData\Local\Temp\ccF6VN3M.s 			page 131


 4752              		.loc 1 1902 3 is_stmt 1 view .LVU1436
 4753              	.LVL397:
 4754              	.LBB215:
 4755              	.LBI211:
 243:../../Middlewares/Camera_Middleware/ISP_Library/isp/Src/isp_services.c **** {
 4756              		.loc 1 243 32 view .LVU1437
 4757              	.LBB213:
 245:../../Middlewares/Camera_Middleware/ISP_Library/isp/Src/isp_services.c **** 
 4758              		.loc 1 245 3 view .LVU1438
 248:../../Middlewares/Camera_Middleware/ISP_Library/isp/Src/isp_services.c ****       (ISP_SVC_StatEngine.downRequest & ISP_STAT_TYPE_ALL_TMP))
 4759              		.loc 1 248 3 view .LVU1439
 248:../../Middlewares/Camera_Middleware/ISP_Library/isp/Src/isp_services.c ****       (ISP_SVC_StatEngine.downRequest & ISP_STAT_TYPE_ALL_TMP))
 4760              		.loc 1 248 6 is_stmt 0 view .LVU1440
 4761 0298 4B07     		lsls	r3, r1, #29
 4762 029a 03D4     		bmi	.L364
 249:../../Middlewares/Camera_Middleware/ISP_Library/isp/Src/isp_services.c ****   {
 4763              		.loc 1 249 26 view .LVU1441
 4764 029c 94F85931 		ldrb	r3, [r4, #345]	@ zero_extendqisi2
 248:../../Middlewares/Camera_Middleware/ISP_Library/isp/Src/isp_services.c ****       (ISP_SVC_StatEngine.downRequest & ISP_STAT_TYPE_ALL_TMP))
 4765              		.loc 1 248 62 discriminator 1 view .LVU1442
 4766 02a0 5F07     		lsls	r7, r3, #29
 4767 02a2 61D5     		bpl	.L365
 4768              	.L364:
 251:../../Middlewares/Camera_Middleware/ISP_Library/isp/Src/isp_services.c ****     return next;
 4769              		.loc 1 251 5 is_stmt 1 view .LVU1443
 251:../../Middlewares/Camera_Middleware/ISP_Library/isp/Src/isp_services.c ****     return next;
 4770              		.loc 1 251 12 is_stmt 0 discriminator 1 view .LVU1444
 4771 02a4 531C     		adds	r3, r2, #1
 4772 02a6 DBB2     		uxtb	r3, r3
 4773 02a8 092A     		cmp	r2, #9
 4774 02aa 38BF     		it	cc
 4775 02ac 1E46     		movcc	r6, r3
 4776              	.LVL398:
 4777              	.L366:
 251:../../Middlewares/Camera_Middleware/ISP_Library/isp/Src/isp_services.c ****     return next;
 4778              		.loc 1 251 12 discriminator 1 view .LVU1445
 4779              	.LBE213:
 4780              	.LBE215:
1902:../../Middlewares/Camera_Middleware/ISP_Library/isp/Src/isp_services.c **** }
 4781              		.loc 1 1902 28 discriminator 1 view .LVU1446
 4782 02ae 2670     		strb	r6, [r4]
 4783 02b0 69E7     		b	.L325
 4784              	.L413:
 4785 02b2 00BF     		.align	2
 4786              	.L412:
 4787 02b4 00000000 		.word	.LC0
 4788 02b8 00000000 		.word	ISP_SVC_StatEngine
 4789 02bc 80000000 		.word	ISP_SVC_StatEngine+128
 4790 02c0 8C000000 		.word	ISP_SVC_StatEngine+140
 4791 02c4 98000000 		.word	ISP_SVC_StatEngine+152
 4792 02c8 A4000000 		.word	ISP_SVC_StatEngine+164
 4793 02cc 00000000 		.word	ISP_IQParamCache
 4794 02d0 B4000000 		.word	ISP_SVC_StatEngine+180
 4795 02d4 C0000000 		.word	ISP_SVC_StatEngine+192
 4796 02d8 CC000000 		.word	ISP_SVC_StatEngine+204
 4797 02dc D8000000 		.word	ISP_SVC_StatEngine+216
 4798 02e0 1B000000 		.word	.LC1
ARM GAS  C:\Users\Antonio\AppData\Local\Temp\ccF6VN3M.s 			page 132


 4799 02e4 00000000 		.word	statConfUpBins_0_2
 4800 02e8 00000000 		.word	statConfUpBins_3_5
 4801 02ec 00000000 		.word	statConfUpBins_6_8
 4802 02f0 00000000 		.word	statConfUpBins_9_11
 4803 02f4 00000000 		.word	statConfDownBins_0_2
 4804 02f8 00000000 		.word	statConfDownBins_3_5
 4805 02fc 00000000 		.word	statConfDownBins_6_8
 4806 0300 00000000 		.word	statConfDownBins_9_11
 4807 0304 49000000 		.word	.LC2
 4808 0308 38000000 		.word	ISP_SVC_StatEngine+56
 4809 030c 00000000 		.word	stagePrevious1.0
 4810 0310 00000000 		.word	stagePrevious2.1
 4811              	.LVL399:
 4812              	.L359:
1866:../../Middlewares/Camera_Middleware/ISP_Library/isp/Src/isp_services.c ****   {
 4813              		.loc 1 1866 3 is_stmt 1 view .LVU1447
 4814              	.LBB216:
 399:../../Middlewares/Camera_Middleware/ISP_Library/isp/Src/isp_services.c **** {
 4815              		.loc 1 399 32 view .LVU1448
 4816              	.LBB208:
 401:../../Middlewares/Camera_Middleware/ISP_Library/isp/Src/isp_services.c **** 
 4817              		.loc 1 401 3 view .LVU1449
 403:../../Middlewares/Camera_Middleware/ISP_Library/isp/Src/isp_services.c ****   {
 4818              		.loc 1 403 3 view .LVU1450
 4819              	.LBB206:
 399:../../Middlewares/Camera_Middleware/ISP_Library/isp/Src/isp_services.c **** {
 4820              		.loc 1 399 32 view .LVU1451
 4821              	.LBB204:
 405:../../Middlewares/Camera_Middleware/ISP_Library/isp/Src/isp_services.c ****         (ISP_SVC_StatEngine.upRequest & ISP_STAT_TYPE_ALL_TMP))
 4822              		.loc 1 405 5 view .LVU1452
 431:../../Middlewares/Camera_Middleware/ISP_Library/isp/Src/isp_services.c **** }
 4823              		.loc 1 431 3 view .LVU1453
 431:../../Middlewares/Camera_Middleware/ISP_Library/isp/Src/isp_services.c **** }
 4824              		.loc 1 431 3 is_stmt 0 view .LVU1454
 4825              	.LBE204:
 4826              	.LBE206:
 431:../../Middlewares/Camera_Middleware/ISP_Library/isp/Src/isp_services.c **** }
 4827              		.loc 1 431 3 is_stmt 1 view .LVU1455
 4828              	.LBB207:
 4829              	.LBB205:
 405:../../Middlewares/Camera_Middleware/ISP_Library/isp/Src/isp_services.c ****         (ISP_SVC_StatEngine.upRequest & ISP_STAT_TYPE_ALL_TMP))
 4830              		.loc 1 405 8 is_stmt 0 view .LVU1456
 4831 0314 18F0060F 		tst	r8, #6
 4832 0318 14BF     		ite	ne
 4833 031a 0123     		movne	r3, #1
 4834 031c 0023     		moveq	r3, #0
 4835              	.LBE205:
 4836              	.LBE207:
 4837              	.LBE208:
 4838              	.LBE216:
1866:../../Middlewares/Camera_Middleware/ISP_Library/isp/Src/isp_services.c ****   {
 4839              		.loc 1 1866 6 discriminator 1 view .LVU1457
 4840 031e BBEB830F 		cmp	fp, r3, lsl #2
 4841 0322 7FF47BAF 		bne	.L360
1866:../../Middlewares/Camera_Middleware/ISP_Library/isp/Src/isp_services.c ****   {
 4842              		.loc 1 1866 71 discriminator 1 view .LVU1458
 4843 0326 D4F8E4E0 		ldr	lr, [r4, #228]
ARM GAS  C:\Users\Antonio\AppData\Local\Temp\ccF6VN3M.s 			page 133


1866:../../Middlewares/Camera_Middleware/ISP_Library/isp/Src/isp_services.c ****   {
 4844              		.loc 1 1866 60 discriminator 1 view .LVU1459
 4845 032a BEF1000F 		cmp	lr, #0
 4846 032e 3FF475AF 		beq	.L360
1869:../../Middlewares/Camera_Middleware/ISP_Library/isp/Src/isp_services.c ****     ISP_SVC_StatEngine.last.upFrameIdEnd = frameId;
 4847              		.loc 1 1869 5 is_stmt 1 view .LVU1460
1869:../../Middlewares/Camera_Middleware/ISP_Library/isp/Src/isp_services.c ****     ISP_SVC_StatEngine.last.upFrameIdEnd = frameId;
 4848              		.loc 1 1869 32 is_stmt 0 view .LVU1461
 4849 0332 2F4D     		ldr	r5, .L414
 4850              	.LVL400:
1871:../../Middlewares/Camera_Middleware/ISP_Library/isp/Src/isp_services.c **** 
 4851              		.loc 1 1871 44 view .LVU1462
 4852 0334 C4E91BEA 		strd	lr, r10, [r4, #108]
1869:../../Middlewares/Camera_Middleware/ISP_Library/isp/Src/isp_services.c ****     ISP_SVC_StatEngine.last.upFrameIdEnd = frameId;
 4853              		.loc 1 1869 32 view .LVU1463
 4854 0338 05F1780C 		add	ip, r5, #120
 4855 033c BCE80F00 		ldmia	ip!, {r0, r1, r2, r3}
 4856 0340 0FC5     		stmia	r5!, {r0, r1, r2, r3}
 4857 0342 BCE80F00 		ldmia	ip!, {r0, r1, r2, r3}
 4858 0346 0FC5     		stmia	r5!, {r0, r1, r2, r3}
 4859 0348 BCE80F00 		ldmia	ip!, {r0, r1, r2, r3}
 4860 034c 0FC5     		stmia	r5!, {r0, r1, r2, r3}
 4861 034e 2846     		mov	r0, r5
 4862 0350 DCF80030 		ldr	r3, [ip]
1873:../../Middlewares/Camera_Middleware/ISP_Library/isp/Src/isp_services.c ****     ongoing->upFrameIdStart = 0;
 4863              		.loc 1 1873 5 view .LVU1464
 4864 0354 3422     		movs	r2, #52
1869:../../Middlewares/Camera_Middleware/ISP_Library/isp/Src/isp_services.c ****     ISP_SVC_StatEngine.last.upFrameIdEnd = frameId;
 4865              		.loc 1 1869 32 view .LVU1465
 4866 0356 40F8483B 		str	r3, [r0], #72
1870:../../Middlewares/Camera_Middleware/ISP_Library/isp/Src/isp_services.c ****     ISP_SVC_StatEngine.last.upFrameIdStart = ongoing->upFrameIdStart;
 4867              		.loc 1 1870 5 is_stmt 1 view .LVU1466
1873:../../Middlewares/Camera_Middleware/ISP_Library/isp/Src/isp_services.c ****     ongoing->upFrameIdStart = 0;
 4868              		.loc 1 1873 5 view .LVU1467
 4869 035a 0021     		movs	r1, #0
 4870 035c FFF7FEFF 		bl	memset
 4871              	.LVL401:
1874:../../Middlewares/Camera_Middleware/ISP_Library/isp/Src/isp_services.c ****     ongoing->upFrameIdEnd = 0;
 4872              		.loc 1 1874 5 view .LVU1468
1874:../../Middlewares/Camera_Middleware/ISP_Library/isp/Src/isp_services.c ****     ongoing->upFrameIdEnd = 0;
 4873              		.loc 1 1874 29 is_stmt 0 view .LVU1469
 4874 0360 0023     		movs	r3, #0
1875:../../Middlewares/Camera_Middleware/ISP_Library/isp/Src/isp_services.c ****   }
 4875              		.loc 1 1875 27 view .LVU1470
 4876 0362 C4E93933 		strd	r3, r3, [r4, #228]
 4877 0366 59E7     		b	.L360
 4878              	.LVL402:
 4879              	.L365:
 4880              	.LBB217:
 4881              	.LBB214:
 261:../../Middlewares/Camera_Middleware/ISP_Library/isp/Src/isp_services.c ****   {
 4882              		.loc 1 261 3 is_stmt 1 view .LVU1471
 4883 0368 092A     		cmp	r2, #9
 4884 036a 36D8     		bhi	.L367
 4885 036c DFE802F0 		tbb	[pc, r2]
 4886              	.L369:
 4887 0370 05       		.byte	(.L372-.L369)/2
ARM GAS  C:\Users\Antonio\AppData\Local\Temp\ccF6VN3M.s 			page 134


 4888 0371 35       		.byte	(.L367-.L369)/2
 4889 0372 35       		.byte	(.L367-.L369)/2
 4890 0373 35       		.byte	(.L367-.L369)/2
 4891 0374 11       		.byte	(.L371-.L369)/2
 4892 0375 1D       		.byte	(.L370-.L369)/2
 4893 0376 35       		.byte	(.L367-.L369)/2
 4894 0377 35       		.byte	(.L367-.L369)/2
 4895 0378 35       		.byte	(.L367-.L369)/2
 4896 0379 2A       		.byte	(.L368-.L369)/2
 4897              		.p2align 1
 4898              	.L372:
 265:../../Middlewares/Camera_Middleware/ISP_Library/isp/Src/isp_services.c ****     {
 4899              		.loc 1 265 5 view .LVU1472
 265:../../Middlewares/Camera_Middleware/ISP_Library/isp/Src/isp_services.c ****     {
 4900              		.loc 1 265 8 is_stmt 0 view .LVU1473
 4901 037a 8D07     		lsls	r5, r1, #30
 4902 037c 34D4     		bmi	.L386
 270:../../Middlewares/Camera_Middleware/ISP_Library/isp/Src/isp_services.c ****     {
 4903              		.loc 1 270 10 is_stmt 1 view .LVU1474
 270:../../Middlewares/Camera_Middleware/ISP_Library/isp/Src/isp_services.c ****     {
 4904              		.loc 1 270 13 is_stmt 0 view .LVU1475
 4905 037e D807     		lsls	r0, r3, #31
 4906 0380 34D4     		bmi	.L387
 275:../../Middlewares/Camera_Middleware/ISP_Library/isp/Src/isp_services.c ****     {
 4907              		.loc 1 275 10 is_stmt 1 view .LVU1476
 275:../../Middlewares/Camera_Middleware/ISP_Library/isp/Src/isp_services.c ****     {
 4908              		.loc 1 275 13 is_stmt 0 view .LVU1477
 4909 0382 13F00206 		ands	r6, r3, #2
 4910 0386 2BD1     		bne	.L382
 280:../../Middlewares/Camera_Middleware/ISP_Library/isp/Src/isp_services.c ****     {
 4911              		.loc 1 280 10 is_stmt 1 view .LVU1478
 245:../../Middlewares/Camera_Middleware/ISP_Library/isp/Src/isp_services.c **** 
 4912              		.loc 1 245 27 is_stmt 0 view .LVU1479
 4913 0388 11F0010F 		tst	r1, #1
 4914              	.LVL403:
 4915              	.L410:
 245:../../Middlewares/Camera_Middleware/ISP_Library/isp/Src/isp_services.c **** 
 4916              		.loc 1 245 27 view .LVU1480
 4917 038c 08BF     		it	eq
 4918 038e 0926     		moveq	r6, #9
 4919 0390 8DE7     		b	.L366
 4920              	.LVL404:
 4921              	.L371:
 288:../../Middlewares/Camera_Middleware/ISP_Library/isp/Src/isp_services.c ****     {
 4922              		.loc 1 288 5 is_stmt 1 view .LVU1481
 288:../../Middlewares/Camera_Middleware/ISP_Library/isp/Src/isp_services.c ****     {
 4923              		.loc 1 288 8 is_stmt 0 view .LVU1482
 4924 0392 DA07     		lsls	r2, r3, #31
 4925              	.LVL405:
 288:../../Middlewares/Camera_Middleware/ISP_Library/isp/Src/isp_services.c ****     {
 4926              		.loc 1 288 8 view .LVU1483
 4927 0394 2AD4     		bmi	.L387
 293:../../Middlewares/Camera_Middleware/ISP_Library/isp/Src/isp_services.c ****     {
 4928              		.loc 1 293 10 is_stmt 1 view .LVU1484
 293:../../Middlewares/Camera_Middleware/ISP_Library/isp/Src/isp_services.c ****     {
 4929              		.loc 1 293 13 is_stmt 0 view .LVU1485
 4930 0396 13F00206 		ands	r6, r3, #2
ARM GAS  C:\Users\Antonio\AppData\Local\Temp\ccF6VN3M.s 			page 135


 4931 039a 21D1     		bne	.L382
 298:../../Middlewares/Camera_Middleware/ISP_Library/isp/Src/isp_services.c ****     {
 4932              		.loc 1 298 10 is_stmt 1 view .LVU1486
 298:../../Middlewares/Camera_Middleware/ISP_Library/isp/Src/isp_services.c ****     {
 4933              		.loc 1 298 13 is_stmt 0 view .LVU1487
 4934 039c CB07     		lsls	r3, r1, #31
 4935 039e 86D4     		bmi	.L366
 303:../../Middlewares/Camera_Middleware/ISP_Library/isp/Src/isp_services.c ****     {
 4936              		.loc 1 303 10 is_stmt 1 view .LVU1488
 245:../../Middlewares/Camera_Middleware/ISP_Library/isp/Src/isp_services.c **** 
 4937              		.loc 1 245 27 is_stmt 0 view .LVU1489
 4938 03a0 11F0020F 		tst	r1, #2
 4939 03a4 18BF     		it	ne
 4940 03a6 0126     		movne	r6, #1
 4941 03a8 F0E7     		b	.L410
 4942              	.LVL406:
 4943              	.L370:
 311:../../Middlewares/Camera_Middleware/ISP_Library/isp/Src/isp_services.c ****     {
 4944              		.loc 1 311 5 is_stmt 1 view .LVU1490
 311:../../Middlewares/Camera_Middleware/ISP_Library/isp/Src/isp_services.c ****     {
 4945              		.loc 1 311 8 is_stmt 0 view .LVU1491
 4946 03aa 13F00206 		ands	r6, r3, #2
 4947 03ae 17D1     		bne	.L382
 316:../../Middlewares/Camera_Middleware/ISP_Library/isp/Src/isp_services.c ****     {
 4948              		.loc 1 316 10 is_stmt 1 view .LVU1492
 316:../../Middlewares/Camera_Middleware/ISP_Library/isp/Src/isp_services.c ****     {
 4949              		.loc 1 316 13 is_stmt 0 view .LVU1493
 4950 03b0 CF07     		lsls	r7, r1, #31
 4951 03b2 3FF57CAF 		bmi	.L366
 321:../../Middlewares/Camera_Middleware/ISP_Library/isp/Src/isp_services.c ****     {
 4952              		.loc 1 321 10 is_stmt 1 view .LVU1494
 321:../../Middlewares/Camera_Middleware/ISP_Library/isp/Src/isp_services.c ****     {
 4953              		.loc 1 321 13 is_stmt 0 view .LVU1495
 4954 03b6 8D07     		lsls	r5, r1, #30
 4955 03b8 16D4     		bmi	.L386
 326:../../Middlewares/Camera_Middleware/ISP_Library/isp/Src/isp_services.c ****     {
 4956              		.loc 1 326 10 is_stmt 1 view .LVU1496
 245:../../Middlewares/Camera_Middleware/ISP_Library/isp/Src/isp_services.c **** 
 4957              		.loc 1 245 27 is_stmt 0 view .LVU1497
 4958 03ba 13F0010F 		tst	r3, #1
 4959 03be 18BF     		it	ne
 4960 03c0 1646     		movne	r6, r2
 4961 03c2 E3E7     		b	.L410
 4962              	.L368:
 334:../../Middlewares/Camera_Middleware/ISP_Library/isp/Src/isp_services.c ****     {
 4963              		.loc 1 334 5 is_stmt 1 view .LVU1498
 334:../../Middlewares/Camera_Middleware/ISP_Library/isp/Src/isp_services.c ****     {
 4964              		.loc 1 334 8 is_stmt 0 view .LVU1499
 4965 03c4 C807     		lsls	r0, r1, #31
 4966 03c6 0DD4     		bmi	.L385
 339:../../Middlewares/Camera_Middleware/ISP_Library/isp/Src/isp_services.c ****     {
 4967              		.loc 1 339 10 is_stmt 1 view .LVU1500
 339:../../Middlewares/Camera_Middleware/ISP_Library/isp/Src/isp_services.c ****     {
 4968              		.loc 1 339 13 is_stmt 0 view .LVU1501
 4969 03c8 8907     		lsls	r1, r1, #30
 4970 03ca 0DD4     		bmi	.L386
 344:../../Middlewares/Camera_Middleware/ISP_Library/isp/Src/isp_services.c ****     {
ARM GAS  C:\Users\Antonio\AppData\Local\Temp\ccF6VN3M.s 			page 136


 4971              		.loc 1 344 10 is_stmt 1 view .LVU1502
 344:../../Middlewares/Camera_Middleware/ISP_Library/isp/Src/isp_services.c ****     {
 4972              		.loc 1 344 13 is_stmt 0 view .LVU1503
 4973 03cc DA07     		lsls	r2, r3, #31
 4974              	.LVL407:
 344:../../Middlewares/Camera_Middleware/ISP_Library/isp/Src/isp_services.c ****     {
 4975              		.loc 1 344 13 view .LVU1504
 4976 03ce 0DD4     		bmi	.L387
 349:../../Middlewares/Camera_Middleware/ISP_Library/isp/Src/isp_services.c ****     {
 4977              		.loc 1 349 10 is_stmt 1 view .LVU1505
 245:../../Middlewares/Camera_Middleware/ISP_Library/isp/Src/isp_services.c **** 
 4978              		.loc 1 245 27 is_stmt 0 view .LVU1506
 4979 03d0 13F0020F 		tst	r3, #2
 4980 03d4 18BF     		it	ne
 4981 03d6 0626     		movne	r6, #6
 4982 03d8 D8E7     		b	.L410
 4983              	.LVL408:
 4984              	.L367:
 357:../../Middlewares/Camera_Middleware/ISP_Library/isp/Src/isp_services.c ****     break;
 4985              		.loc 1 357 5 is_stmt 1 view .LVU1507
 357:../../Middlewares/Camera_Middleware/ISP_Library/isp/Src/isp_services.c ****     break;
 4986              		.loc 1 357 10 is_stmt 0 view .LVU1508
 4987 03da 0132     		adds	r2, r2, #1
 4988              	.LVL409:
 357:../../Middlewares/Camera_Middleware/ISP_Library/isp/Src/isp_services.c ****     break;
 4989              		.loc 1 357 10 view .LVU1509
 4990 03dc D6B2     		uxtb	r6, r2
 4991              	.LVL410:
 358:../../Middlewares/Camera_Middleware/ISP_Library/isp/Src/isp_services.c ****   }
 4992              		.loc 1 358 5 is_stmt 1 view .LVU1510
 4993 03de 66E7     		b	.L366
 4994              	.LVL411:
 4995              	.L382:
 295:../../Middlewares/Camera_Middleware/ISP_Library/isp/Src/isp_services.c ****     }
 4996              		.loc 1 295 12 is_stmt 0 view .LVU1511
 4997 03e0 0626     		movs	r6, #6
 4998 03e2 64E7     		b	.L366
 4999              	.LVL412:
 5000              	.L385:
 251:../../Middlewares/Camera_Middleware/ISP_Library/isp/Src/isp_services.c ****     return next;
 5001              		.loc 1 251 12 discriminator 2 view .LVU1512
 5002 03e4 0026     		movs	r6, #0
 5003 03e6 62E7     		b	.L366
 5004              	.L386:
 323:../../Middlewares/Camera_Middleware/ISP_Library/isp/Src/isp_services.c ****     }
 5005              		.loc 1 323 12 view .LVU1513
 5006 03e8 0126     		movs	r6, #1
 5007 03ea 60E7     		b	.L366
 5008              	.LVL413:
 5009              	.L387:
 272:../../Middlewares/Camera_Middleware/ISP_Library/isp/Src/isp_services.c ****     }
 5010              		.loc 1 272 12 view .LVU1514
 5011 03ec 0526     		movs	r6, #5
 5012 03ee 5EE7     		b	.L366
 5013              	.L415:
 5014              		.align	2
 5015              	.L414:
ARM GAS  C:\Users\Antonio\AppData\Local\Temp\ccF6VN3M.s 			page 137


 5016 03f0 04000000 		.word	ISP_SVC_StatEngine+4
 5017              	.LBE214:
 5018              	.LBE217:
 5019              		.cfi_endproc
 5020              	.LFE894:
 5022              		.section	.text.ISP_SVC_Stats_ProcessCallbacks,"ax",%progbits
 5023              		.align	1
 5024              		.global	ISP_SVC_Stats_ProcessCallbacks
 5025              		.syntax unified
 5026              		.thumb
 5027              		.thumb_func
 5029              	ISP_SVC_Stats_ProcessCallbacks:
 5030              	.LVL414:
 5031              	.LFB895:
1904:../../Middlewares/Camera_Middleware/ISP_Library/isp/Src/isp_services.c **** 
1905:../../Middlewares/Camera_Middleware/ISP_Library/isp/Src/isp_services.c **** /**
1906:../../Middlewares/Camera_Middleware/ISP_Library/isp/Src/isp_services.c ****   * @brief  ISP_SVC_Stats_ProcessCallbacks
1907:../../Middlewares/Camera_Middleware/ISP_Library/isp/Src/isp_services.c ****   *         If the conditions are met, call the client registered callbacks
1908:../../Middlewares/Camera_Middleware/ISP_Library/isp/Src/isp_services.c ****   * @param  hIsp: ISP device handle
1909:../../Middlewares/Camera_Middleware/ISP_Library/isp/Src/isp_services.c ****   * @retval ISP status
1910:../../Middlewares/Camera_Middleware/ISP_Library/isp/Src/isp_services.c ****   */
1911:../../Middlewares/Camera_Middleware/ISP_Library/isp/Src/isp_services.c **** ISP_StatusTypeDef ISP_SVC_Stats_ProcessCallbacks(ISP_HandleTypeDef *hIsp)
1912:../../Middlewares/Camera_Middleware/ISP_Library/isp/Src/isp_services.c **** {
 5032              		.loc 1 1912 1 is_stmt 1 view -0
 5033              		.cfi_startproc
 5034              		@ args = 0, pretend = 0, frame = 0
 5035              		@ frame_needed = 0, uses_anonymous_args = 0
1913:../../Middlewares/Camera_Middleware/ISP_Library/isp/Src/isp_services.c ****   (void)hIsp; /* unused */
 5036              		.loc 1 1913 3 view .LVU1516
1914:../../Middlewares/Camera_Middleware/ISP_Library/isp/Src/isp_services.c ****   ISP_SVC_StatStateTypeDef *pLastStat;
 5037              		.loc 1 1914 3 view .LVU1517
1915:../../Middlewares/Camera_Middleware/ISP_Library/isp/Src/isp_services.c ****   ISP_SVC_StatRegisteredClient *client;
 5038              		.loc 1 1915 3 view .LVU1518
1916:../../Middlewares/Camera_Middleware/ISP_Library/isp/Src/isp_services.c ****   ISP_StatusTypeDef retcb, ret = ISP_OK;
 5039              		.loc 1 1916 3 view .LVU1519
1917:../../Middlewares/Camera_Middleware/ISP_Library/isp/Src/isp_services.c **** 
1918:../../Middlewares/Camera_Middleware/ISP_Library/isp/Src/isp_services.c ****   pLastStat = &ISP_SVC_StatEngine.last;
 5040              		.loc 1 1918 3 view .LVU1520
1919:../../Middlewares/Camera_Middleware/ISP_Library/isp/Src/isp_services.c **** 
1920:../../Middlewares/Camera_Middleware/ISP_Library/isp/Src/isp_services.c ****   for (uint32_t i = 0; i < ISP_SVC_STAT_MAX_CB; i++)
 5041              		.loc 1 1920 3 view .LVU1521
 5042              	.LBB218:
 5043              		.loc 1 1920 8 view .LVU1522
 5044              		.loc 1 1920 26 discriminator 1 view .LVU1523
 5045              	.LBE218:
1912:../../Middlewares/Camera_Middleware/ISP_Library/isp/Src/isp_services.c ****   (void)hIsp; /* unused */
 5046              		.loc 1 1912 1 is_stmt 0 view .LVU1524
 5047 0000 2DE9F047 		push	{r4, r5, r6, r7, r8, r9, r10, lr}
 5048              		.cfi_def_cfa_offset 32
 5049              		.cfi_offset 4, -32
 5050              		.cfi_offset 5, -28
 5051              		.cfi_offset 6, -24
 5052              		.cfi_offset 7, -20
 5053              		.cfi_offset 8, -16
 5054              		.cfi_offset 9, -12
 5055              		.cfi_offset 10, -8
 5056              		.cfi_offset 14, -4
ARM GAS  C:\Users\Antonio\AppData\Local\Temp\ccF6VN3M.s 			page 138


1916:../../Middlewares/Camera_Middleware/ISP_Library/isp/Src/isp_services.c **** 
 5057              		.loc 1 1916 28 view .LVU1525
 5058 0004 0025     		movs	r5, #0
 5059 0006 1C4C     		ldr	r4, .L429
1912:../../Middlewares/Camera_Middleware/ISP_Library/isp/Src/isp_services.c ****   (void)hIsp; /* unused */
 5060              		.loc 1 1912 1 view .LVU1526
 5061 0008 0527     		movs	r7, #5
 5062 000a 2646     		mov	r6, r4
 5063              	.LBB219:
1921:../../Middlewares/Camera_Middleware/ISP_Library/isp/Src/isp_services.c ****   {
1922:../../Middlewares/Camera_Middleware/ISP_Library/isp/Src/isp_services.c ****     client = &ISP_SVC_StatEngine.client[i];
1923:../../Middlewares/Camera_Middleware/ISP_Library/isp/Src/isp_services.c **** 
1924:../../Middlewares/Camera_Middleware/ISP_Library/isp/Src/isp_services.c ****     if (client->callback == NULL)
1925:../../Middlewares/Camera_Middleware/ISP_Library/isp/Src/isp_services.c ****       continue;
1926:../../Middlewares/Camera_Middleware/ISP_Library/isp/Src/isp_services.c **** 
1927:../../Middlewares/Camera_Middleware/ISP_Library/isp/Src/isp_services.c ****     /* Check if stats are available for a client, comparing the location and the specified frameId 
1928:../../Middlewares/Camera_Middleware/ISP_Library/isp/Src/isp_services.c ****     if (((client->location == ISP_STAT_LOC_DOWN) && (client->refFrameId <= pLastStat->downFrameIdSt
1929:../../Middlewares/Camera_Middleware/ISP_Library/isp/Src/isp_services.c ****         ((client->location == ISP_STAT_LOC_UP) && (client->refFrameId <= pLastStat->upFrameIdStart)
1930:../../Middlewares/Camera_Middleware/ISP_Library/isp/Src/isp_services.c ****         ((client->location == ISP_STAT_LOC_UP_AND_DOWN) && (client->refFrameId <= pLastStat->upFram
1931:../../Middlewares/Camera_Middleware/ISP_Library/isp/Src/isp_services.c ****     {
1932:../../Middlewares/Camera_Middleware/ISP_Library/isp/Src/isp_services.c ****       /* Copy the stats into the client buffer */
1933:../../Middlewares/Camera_Middleware/ISP_Library/isp/Src/isp_services.c ****       *(client->pStats) = *pLastStat;
1934:../../Middlewares/Camera_Middleware/ISP_Library/isp/Src/isp_services.c **** 
1935:../../Middlewares/Camera_Middleware/ISP_Library/isp/Src/isp_services.c ****       /* Call its callback */
1936:../../Middlewares/Camera_Middleware/ISP_Library/isp/Src/isp_services.c ****       retcb = client->callback(client->pAlgo);
1937:../../Middlewares/Camera_Middleware/ISP_Library/isp/Src/isp_services.c ****       if (retcb != ISP_OK)
1938:../../Middlewares/Camera_Middleware/ISP_Library/isp/Src/isp_services.c ****       {
1939:../../Middlewares/Camera_Middleware/ISP_Library/isp/Src/isp_services.c ****         ret = retcb;
1940:../../Middlewares/Camera_Middleware/ISP_Library/isp/Src/isp_services.c ****       }
1941:../../Middlewares/Camera_Middleware/ISP_Library/isp/Src/isp_services.c **** 
1942:../../Middlewares/Camera_Middleware/ISP_Library/isp/Src/isp_services.c ****       /* Remove the client from the registered list */
1943:../../Middlewares/Camera_Middleware/ISP_Library/isp/Src/isp_services.c ****       client->callback = NULL;
 5064              		.loc 1 1943 24 view .LVU1527
 5065 000c A946     		mov	r9, r5
1933:../../Middlewares/Camera_Middleware/ISP_Library/isp/Src/isp_services.c **** 
 5066              		.loc 1 1933 25 view .LVU1528
 5067 000e 04F10408 		add	r8, r4, #4
 5068              	.LVL415:
 5069              	.L422:
1922:../../Middlewares/Camera_Middleware/ISP_Library/isp/Src/isp_services.c **** 
 5070              		.loc 1 1922 5 is_stmt 1 view .LVU1529
1924:../../Middlewares/Camera_Middleware/ISP_Library/isp/Src/isp_services.c ****       continue;
 5071              		.loc 1 1924 5 view .LVU1530
1924:../../Middlewares/Camera_Middleware/ISP_Library/isp/Src/isp_services.c ****       continue;
 5072              		.loc 1 1924 15 is_stmt 0 view .LVU1531
 5073 0012 D4F8F4A0 		ldr	r10, [r4, #244]
1924:../../Middlewares/Camera_Middleware/ISP_Library/isp/Src/isp_services.c ****       continue;
 5074              		.loc 1 1924 8 view .LVU1532
 5075 0016 BAF1000F 		cmp	r10, #0
 5076 001a 16D0     		beq	.L417
1928:../../Middlewares/Camera_Middleware/ISP_Library/isp/Src/isp_services.c ****         ((client->location == ISP_STAT_LOC_UP) && (client->refFrameId <= pLastStat->upFrameIdStart)
 5077              		.loc 1 1928 5 is_stmt 1 view .LVU1533
1928:../../Middlewares/Camera_Middleware/ISP_Library/isp/Src/isp_services.c ****         ((client->location == ISP_STAT_LOC_UP) && (client->refFrameId <= pLastStat->upFrameIdStart)
 5078              		.loc 1 1928 17 is_stmt 0 view .LVU1534
 5079 001c 94F80431 		ldrb	r3, [r4, #260]	@ zero_extendqisi2
1928:../../Middlewares/Camera_Middleware/ISP_Library/isp/Src/isp_services.c ****         ((client->location == ISP_STAT_LOC_UP) && (client->refFrameId <= pLastStat->upFrameIdStart)
 5080              		.loc 1 1928 8 view .LVU1535
ARM GAS  C:\Users\Antonio\AppData\Local\Temp\ccF6VN3M.s 			page 139


 5081 0020 022B     		cmp	r3, #2
 5082 0022 19D1     		bne	.L418
1928:../../Middlewares/Camera_Middleware/ISP_Library/isp/Src/isp_services.c ****         ((client->location == ISP_STAT_LOC_UP) && (client->refFrameId <= pLastStat->upFrameIdStart)
 5083              		.loc 1 1928 50 discriminator 1 view .LVU1536
 5084 0024 D4F80021 		ldr	r2, [r4, #256]
 5085 0028 736F     		ldr	r3, [r6, #116]
 5086              	.L428:
1929:../../Middlewares/Camera_Middleware/ISP_Library/isp/Src/isp_services.c ****         ((client->location == ISP_STAT_LOC_UP_AND_DOWN) && (client->refFrameId <= pLastStat->upFram
 5087              		.loc 1 1929 48 view .LVU1537
 5088 002a 9A42     		cmp	r2, r3
 5089              	.L427:
1930:../../Middlewares/Camera_Middleware/ISP_Library/isp/Src/isp_services.c ****     {
 5090              		.loc 1 1930 110 discriminator 1 view .LVU1538
 5091 002c 0DD8     		bhi	.L417
1933:../../Middlewares/Camera_Middleware/ISP_Library/isp/Src/isp_services.c **** 
 5092              		.loc 1 1933 7 is_stmt 1 view .LVU1539
1933:../../Middlewares/Camera_Middleware/ISP_Library/isp/Src/isp_services.c **** 
 5093              		.loc 1 1933 25 is_stmt 0 view .LVU1540
 5094 002e 7822     		movs	r2, #120
 5095 0030 4146     		mov	r1, r8
 5096 0032 D4F8FC00 		ldr	r0, [r4, #252]
 5097 0036 FFF7FEFF 		bl	memcpy
 5098              	.LVL416:
1936:../../Middlewares/Camera_Middleware/ISP_Library/isp/Src/isp_services.c ****       if (retcb != ISP_OK)
 5099              		.loc 1 1936 7 is_stmt 1 view .LVU1541
1936:../../Middlewares/Camera_Middleware/ISP_Library/isp/Src/isp_services.c ****       if (retcb != ISP_OK)
 5100              		.loc 1 1936 15 is_stmt 0 view .LVU1542
 5101 003a D4F8F800 		ldr	r0, [r4, #248]
 5102 003e D047     		blx	r10
 5103              	.LVL417:
1937:../../Middlewares/Camera_Middleware/ISP_Library/isp/Src/isp_services.c ****       {
 5104              		.loc 1 1937 7 is_stmt 1 view .LVU1543
1937:../../Middlewares/Camera_Middleware/ISP_Library/isp/Src/isp_services.c ****       {
 5105              		.loc 1 1937 10 is_stmt 0 view .LVU1544
 5106 0040 0028     		cmp	r0, #0
 5107              	.LVL418:
 5108              		.loc 1 1943 7 is_stmt 1 view .LVU1545
 5109              		.loc 1 1943 24 is_stmt 0 view .LVU1546
 5110 0042 18BF     		it	ne
 5111 0044 0546     		movne	r5, r0
 5112              	.LVL419:
 5113              		.loc 1 1943 24 view .LVU1547
 5114 0046 C4F8F490 		str	r9, [r4, #244]
 5115              	.LVL420:
 5116              	.L417:
1920:../../Middlewares/Camera_Middleware/ISP_Library/isp/Src/isp_services.c ****   {
 5117              		.loc 1 1920 50 is_stmt 1 discriminator 2 view .LVU1548
1920:../../Middlewares/Camera_Middleware/ISP_Library/isp/Src/isp_services.c ****   {
 5118              		.loc 1 1920 26 discriminator 1 view .LVU1549
 5119 004a 013F     		subs	r7, r7, #1
 5120              	.LVL421:
1920:../../Middlewares/Camera_Middleware/ISP_Library/isp/Src/isp_services.c ****   {
 5121              		.loc 1 1920 26 is_stmt 0 discriminator 1 view .LVU1550
 5122 004c 04F11404 		add	r4, r4, #20
 5123 0050 DFD1     		bne	.L422
 5124              	.LBE219:
1944:../../Middlewares/Camera_Middleware/ISP_Library/isp/Src/isp_services.c ****     }
ARM GAS  C:\Users\Antonio\AppData\Local\Temp\ccF6VN3M.s 			page 140


1945:../../Middlewares/Camera_Middleware/ISP_Library/isp/Src/isp_services.c ****   }
1946:../../Middlewares/Camera_Middleware/ISP_Library/isp/Src/isp_services.c **** 
1947:../../Middlewares/Camera_Middleware/ISP_Library/isp/Src/isp_services.c ****   return ret;
 5125              		.loc 1 1947 3 is_stmt 1 view .LVU1551
1948:../../Middlewares/Camera_Middleware/ISP_Library/isp/Src/isp_services.c **** }
 5126              		.loc 1 1948 1 is_stmt 0 view .LVU1552
 5127 0052 2846     		mov	r0, r5
 5128 0054 BDE8F087 		pop	{r4, r5, r6, r7, r8, r9, r10, pc}
 5129              	.LVL422:
 5130              	.L418:
 5131              	.LBB220:
1928:../../Middlewares/Camera_Middleware/ISP_Library/isp/Src/isp_services.c ****         ((client->location == ISP_STAT_LOC_UP) && (client->refFrameId <= pLastStat->upFrameIdStart)
 5132              		.loc 1 1928 106 discriminator 3 view .LVU1553
 5133 0058 012B     		cmp	r3, #1
 5134 005a 03D1     		bne	.L420
1929:../../Middlewares/Camera_Middleware/ISP_Library/isp/Src/isp_services.c ****         ((client->location == ISP_STAT_LOC_UP_AND_DOWN) && (client->refFrameId <= pLastStat->upFram
 5135              		.loc 1 1929 48 view .LVU1554
 5136 005c D4F80021 		ldr	r2, [r4, #256]
 5137 0060 F36E     		ldr	r3, [r6, #108]
 5138 0062 E2E7     		b	.L428
 5139              	.L420:
1929:../../Middlewares/Camera_Middleware/ISP_Library/isp/Src/isp_services.c ****         ((client->location == ISP_STAT_LOC_UP_AND_DOWN) && (client->refFrameId <= pLastStat->upFram
 5140              		.loc 1 1929 102 discriminator 1 view .LVU1555
 5141 0064 032B     		cmp	r3, #3
 5142 0066 F0D1     		bne	.L417
1930:../../Middlewares/Camera_Middleware/ISP_Library/isp/Src/isp_services.c ****     {
 5143              		.loc 1 1930 67 view .LVU1556
 5144 0068 D4F80031 		ldr	r3, [r4, #256]
1930:../../Middlewares/Camera_Middleware/ISP_Library/isp/Src/isp_services.c ****     {
 5145              		.loc 1 1930 57 view .LVU1557
 5146 006c F26E     		ldr	r2, [r6, #108]
 5147 006e 9342     		cmp	r3, r2
 5148 0070 EBD8     		bhi	.L417
1930:../../Middlewares/Camera_Middleware/ISP_Library/isp/Src/isp_services.c ****     {
 5149              		.loc 1 1930 110 discriminator 1 view .LVU1558
 5150 0072 726F     		ldr	r2, [r6, #116]
 5151 0074 9342     		cmp	r3, r2
 5152 0076 D9E7     		b	.L427
 5153              	.L430:
 5154              		.align	2
 5155              	.L429:
 5156 0078 00000000 		.word	ISP_SVC_StatEngine
 5157              	.LBE220:
 5158              		.cfi_endproc
 5159              	.LFE895:
 5161              		.section	.text.ISP_SVC_Stats_GetLatest,"ax",%progbits
 5162              		.align	1
 5163              		.global	ISP_SVC_Stats_GetLatest
 5164              		.syntax unified
 5165              		.thumb
 5166              		.thumb_func
 5168              	ISP_SVC_Stats_GetLatest:
 5169              	.LVL423:
 5170              	.LFB896:
1949:../../Middlewares/Camera_Middleware/ISP_Library/isp/Src/isp_services.c **** 
1950:../../Middlewares/Camera_Middleware/ISP_Library/isp/Src/isp_services.c **** /**
1951:../../Middlewares/Camera_Middleware/ISP_Library/isp/Src/isp_services.c ****   * @brief  ISP_SVC_Stats_GetLatest
ARM GAS  C:\Users\Antonio\AppData\Local\Temp\ccF6VN3M.s 			page 141


1952:../../Middlewares/Camera_Middleware/ISP_Library/isp/Src/isp_services.c ****   *         Get the latest available stats. Stats are immediately returned (no callback)
1953:../../Middlewares/Camera_Middleware/ISP_Library/isp/Src/isp_services.c ****   * @param  hIsp: ISP device handle
1954:../../Middlewares/Camera_Middleware/ISP_Library/isp/Src/isp_services.c ****   * @param  pStats: pointer to the latest computed statistics (output parameter)
1955:../../Middlewares/Camera_Middleware/ISP_Library/isp/Src/isp_services.c ****   * @retval ISP status
1956:../../Middlewares/Camera_Middleware/ISP_Library/isp/Src/isp_services.c ****   */
1957:../../Middlewares/Camera_Middleware/ISP_Library/isp/Src/isp_services.c **** ISP_StatusTypeDef ISP_SVC_Stats_GetLatest(ISP_HandleTypeDef *hIsp, ISP_SVC_StatStateTypeDef *pStats
1958:../../Middlewares/Camera_Middleware/ISP_Library/isp/Src/isp_services.c **** {
 5171              		.loc 1 1958 1 is_stmt 1 view -0
 5172              		.cfi_startproc
 5173              		@ args = 0, pretend = 0, frame = 0
 5174              		@ frame_needed = 0, uses_anonymous_args = 0
1959:../../Middlewares/Camera_Middleware/ISP_Library/isp/Src/isp_services.c ****   /* Check handle validity */
1960:../../Middlewares/Camera_Middleware/ISP_Library/isp/Src/isp_services.c ****   if ((hIsp == NULL) || (pStats == NULL))
 5175              		.loc 1 1960 3 view .LVU1560
1958:../../Middlewares/Camera_Middleware/ISP_Library/isp/Src/isp_services.c ****   /* Check handle validity */
 5176              		.loc 1 1958 1 is_stmt 0 view .LVU1561
 5177 0000 08B5     		push	{r3, lr}
 5178              		.cfi_def_cfa_offset 8
 5179              		.cfi_offset 3, -8
 5180              		.cfi_offset 14, -4
1958:../../Middlewares/Camera_Middleware/ISP_Library/isp/Src/isp_services.c ****   /* Check handle validity */
 5181              		.loc 1 1958 1 view .LVU1562
 5182 0002 0346     		mov	r3, r0
 5183 0004 0846     		mov	r0, r1
 5184              	.LVL424:
 5185              		.loc 1 1960 6 view .LVU1563
 5186 0006 33B1     		cbz	r3, .L434
 5187              		.loc 1 1960 22 discriminator 1 view .LVU1564
 5188 0008 29B1     		cbz	r1, .L434
1961:../../Middlewares/Camera_Middleware/ISP_Library/isp/Src/isp_services.c ****   {
1962:../../Middlewares/Camera_Middleware/ISP_Library/isp/Src/isp_services.c ****     return ISP_ERR_EINVAL;
1963:../../Middlewares/Camera_Middleware/ISP_Library/isp/Src/isp_services.c ****   }
1964:../../Middlewares/Camera_Middleware/ISP_Library/isp/Src/isp_services.c **** 
1965:../../Middlewares/Camera_Middleware/ISP_Library/isp/Src/isp_services.c ****   *pStats = ISP_SVC_StatEngine.last;
 5189              		.loc 1 1965 3 is_stmt 1 view .LVU1565
 5190              		.loc 1 1965 11 is_stmt 0 view .LVU1566
 5191 000a 7822     		movs	r2, #120
 5192 000c 0349     		ldr	r1, .L435
 5193              	.LVL425:
 5194              		.loc 1 1965 11 view .LVU1567
 5195 000e FFF7FEFF 		bl	memcpy
 5196              	.LVL426:
1966:../../Middlewares/Camera_Middleware/ISP_Library/isp/Src/isp_services.c **** 
1967:../../Middlewares/Camera_Middleware/ISP_Library/isp/Src/isp_services.c ****   return ISP_OK;
 5197              		.loc 1 1967 3 is_stmt 1 view .LVU1568
 5198              		.loc 1 1967 10 is_stmt 0 view .LVU1569
 5199 0012 0020     		movs	r0, #0
 5200              	.L432:
1968:../../Middlewares/Camera_Middleware/ISP_Library/isp/Src/isp_services.c **** }
 5201              		.loc 1 1968 1 view .LVU1570
 5202 0014 08BD     		pop	{r3, pc}
 5203              	.LVL427:
 5204              	.L434:
1962:../../Middlewares/Camera_Middleware/ISP_Library/isp/Src/isp_services.c ****   }
 5205              		.loc 1 1962 12 view .LVU1571
 5206 0016 0120     		movs	r0, #1
 5207              	.LVL428:
ARM GAS  C:\Users\Antonio\AppData\Local\Temp\ccF6VN3M.s 			page 142


1962:../../Middlewares/Camera_Middleware/ISP_Library/isp/Src/isp_services.c ****   }
 5208              		.loc 1 1962 12 view .LVU1572
 5209 0018 FCE7     		b	.L432
 5210              	.L436:
 5211 001a 00BF     		.align	2
 5212              	.L435:
 5213 001c 04000000 		.word	ISP_SVC_StatEngine+4
 5214              		.cfi_endproc
 5215              	.LFE896:
 5217              		.section	.text.ISP_SVC_Stats_GetNext,"ax",%progbits
 5218              		.align	1
 5219              		.global	ISP_SVC_Stats_GetNext
 5220              		.syntax unified
 5221              		.thumb
 5222              		.thumb_func
 5224              	ISP_SVC_Stats_GetNext:
 5225              	.LVL429:
 5226              	.LFB897:
1969:../../Middlewares/Camera_Middleware/ISP_Library/isp/Src/isp_services.c **** 
1970:../../Middlewares/Camera_Middleware/ISP_Library/isp/Src/isp_services.c **** /**
1971:../../Middlewares/Camera_Middleware/ISP_Library/isp/Src/isp_services.c ****   * @brief  ISP_SVC_Stats_GetNext
1972:../../Middlewares/Camera_Middleware/ISP_Library/isp/Src/isp_services.c ****   *         Ask to be informed with a callback when stats meeting some conditions(location, type
1973:../../Middlewares/Camera_Middleware/ISP_Library/isp/Src/isp_services.c ****   *         and frameDelay) are available.
1974:../../Middlewares/Camera_Middleware/ISP_Library/isp/Src/isp_services.c ****   * @param  hIsp: ISP device handle
1975:../../Middlewares/Camera_Middleware/ISP_Library/isp/Src/isp_services.c ****   * @param  callback: function to be called when stats are available
1976:../../Middlewares/Camera_Middleware/ISP_Library/isp/Src/isp_services.c ****   * @param  pAlgo: pointer to the algorithm context. Will be provided as the callback parameter.
1977:../../Middlewares/Camera_Middleware/ISP_Library/isp/Src/isp_services.c ****   * @param  pStats: pointer to the statistics. Updated just before the callback is called.
1978:../../Middlewares/Camera_Middleware/ISP_Library/isp/Src/isp_services.c ****   * @param  location: location (up and/or down) where the statistics are requested.
1979:../../Middlewares/Camera_Middleware/ISP_Library/isp/Src/isp_services.c ****   * @param  type: type (average, bins or both) of requested statistics.
1980:../../Middlewares/Camera_Middleware/ISP_Library/isp/Src/isp_services.c ****   * @param  frameDelay: number of frames to wait before considering the stats as valid
1981:../../Middlewares/Camera_Middleware/ISP_Library/isp/Src/isp_services.c ****   * @retval ISP status
1982:../../Middlewares/Camera_Middleware/ISP_Library/isp/Src/isp_services.c ****   */
1983:../../Middlewares/Camera_Middleware/ISP_Library/isp/Src/isp_services.c **** ISP_StatusTypeDef ISP_SVC_Stats_GetNext(ISP_HandleTypeDef *hIsp, ISP_stat_ready_cb callback, ISP_Al
1984:../../Middlewares/Camera_Middleware/ISP_Library/isp/Src/isp_services.c ****                                         ISP_SVC_StatLocation location, ISP_SVC_StatType type, uint3
1985:../../Middlewares/Camera_Middleware/ISP_Library/isp/Src/isp_services.c **** {
 5227              		.loc 1 1985 1 is_stmt 1 view -0
 5228              		.cfi_startproc
 5229              		@ args = 12, pretend = 0, frame = 0
 5230              		@ frame_needed = 0, uses_anonymous_args = 0
1986:../../Middlewares/Camera_Middleware/ISP_Library/isp/Src/isp_services.c ****   uint32_t i, refFrameId;
 5231              		.loc 1 1986 3 view .LVU1574
1987:../../Middlewares/Camera_Middleware/ISP_Library/isp/Src/isp_services.c **** 
1988:../../Middlewares/Camera_Middleware/ISP_Library/isp/Src/isp_services.c ****   /* Check handle validity */
1989:../../Middlewares/Camera_Middleware/ISP_Library/isp/Src/isp_services.c ****   if ((hIsp == NULL) || (pStats == NULL))
 5232              		.loc 1 1989 3 view .LVU1575
1985:../../Middlewares/Camera_Middleware/ISP_Library/isp/Src/isp_services.c ****   uint32_t i, refFrameId;
 5233              		.loc 1 1985 1 is_stmt 0 view .LVU1576
 5234 0000 2DE9F043 		push	{r4, r5, r6, r7, r8, r9, lr}
 5235              		.cfi_def_cfa_offset 28
 5236              		.cfi_offset 4, -28
 5237              		.cfi_offset 5, -24
 5238              		.cfi_offset 6, -20
 5239              		.cfi_offset 7, -16
 5240              		.cfi_offset 8, -12
 5241              		.cfi_offset 9, -8
 5242              		.cfi_offset 14, -4
1985:../../Middlewares/Camera_Middleware/ISP_Library/isp/Src/isp_services.c ****   uint32_t i, refFrameId;
ARM GAS  C:\Users\Antonio\AppData\Local\Temp\ccF6VN3M.s 			page 143


 5243              		.loc 1 1985 1 view .LVU1577
 5244 0004 9146     		mov	r9, r2
 5245 0006 9DF81CC0 		ldrb	ip, [sp, #28]	@ zero_extendqisi2
 5246 000a 9DF82050 		ldrb	r5, [sp, #32]	@ zero_extendqisi2
 5247              		.loc 1 1989 6 view .LVU1578
 5248 000e B0B1     		cbz	r0, .L446
 5249              		.loc 1 1989 22 discriminator 1 view .LVU1579
 5250 0010 ABB1     		cbz	r3, .L446
1990:../../Middlewares/Camera_Middleware/ISP_Library/isp/Src/isp_services.c ****   {
1991:../../Middlewares/Camera_Middleware/ISP_Library/isp/Src/isp_services.c ****     return ISP_ERR_EINVAL;
1992:../../Middlewares/Camera_Middleware/ISP_Library/isp/Src/isp_services.c ****   }
1993:../../Middlewares/Camera_Middleware/ISP_Library/isp/Src/isp_services.c **** 
1994:../../Middlewares/Camera_Middleware/ISP_Library/isp/Src/isp_services.c ****   refFrameId = ISP_SVC_Misc_GetMainFrameId(hIsp) + frameDelay;
 5251              		.loc 1 1994 3 is_stmt 1 view .LVU1580
 5252              	.LVL430:
 5253              	.LBB221:
 5254              	.LBI221:
1344:../../Middlewares/Camera_Middleware/ISP_Library/isp/Src/isp_services.c **** {
 5255              		.loc 1 1344 10 view .LVU1581
 5256              	.LBB222:
1346:../../Middlewares/Camera_Middleware/ISP_Library/isp/Src/isp_services.c **** }
 5257              		.loc 1 1346 3 view .LVU1582
 5258 0012 1E4E     		ldr	r6, .L452
 5259              	.LBE222:
 5260              	.LBE221:
1995:../../Middlewares/Camera_Middleware/ISP_Library/isp/Src/isp_services.c **** 
1996:../../Middlewares/Camera_Middleware/ISP_Library/isp/Src/isp_services.c ****   /* Register the callback */
1997:../../Middlewares/Camera_Middleware/ISP_Library/isp/Src/isp_services.c ****   for (i = 0; i < ISP_SVC_STAT_MAX_CB; i++)
 5261              		.loc 1 1997 10 is_stmt 0 view .LVU1583
 5262 0014 4FF0000E 		mov	lr, #0
 5263 0018 3446     		mov	r4, r6
 5264 001a 4FF00508 		mov	r8, #5
 5265              	.LBB224:
 5266              	.LBB223:
1346:../../Middlewares/Camera_Middleware/ISP_Library/isp/Src/isp_services.c **** }
 5267              		.loc 1 1346 14 view .LVU1584
 5268 001e 006C     		ldr	r0, [r0, #64]
 5269              	.LVL431:
1346:../../Middlewares/Camera_Middleware/ISP_Library/isp/Src/isp_services.c **** }
 5270              		.loc 1 1346 14 view .LVU1585
 5271              	.LBE223:
 5272              	.LBE224:
1994:../../Middlewares/Camera_Middleware/ISP_Library/isp/Src/isp_services.c **** 
 5273              		.loc 1 1994 14 discriminator 1 view .LVU1586
 5274 0020 099F     		ldr	r7, [sp, #36]
 5275 0022 0744     		add	r7, r7, r0
 5276              	.LVL432:
 5277              		.loc 1 1997 3 is_stmt 1 view .LVU1587
 5278              		.loc 1 1997 17 discriminator 1 view .LVU1588
 5279              	.L440:
1998:../../Middlewares/Camera_Middleware/ISP_Library/isp/Src/isp_services.c ****   {
1999:../../Middlewares/Camera_Middleware/ISP_Library/isp/Src/isp_services.c ****     if (ISP_SVC_StatEngine.client[i].callback == NULL)
 5280              		.loc 1 1999 5 view .LVU1589
 5281              		.loc 1 1999 8 is_stmt 0 view .LVU1590
 5282 0024 D6F8F420 		ldr	r2, [r6, #244]
 5283 0028 5AB1     		cbz	r2, .L439
1997:../../Middlewares/Camera_Middleware/ISP_Library/isp/Src/isp_services.c ****   {
ARM GAS  C:\Users\Antonio\AppData\Local\Temp\ccF6VN3M.s 			page 144


 5284              		.loc 1 1997 41 is_stmt 1 discriminator 2 view .LVU1591
1997:../../Middlewares/Camera_Middleware/ISP_Library/isp/Src/isp_services.c ****   {
 5285              		.loc 1 1997 17 is_stmt 0 discriminator 1 view .LVU1592
 5286 002a B8F10108 		subs	r8, r8, #1
1997:../../Middlewares/Camera_Middleware/ISP_Library/isp/Src/isp_services.c ****   {
 5287              		.loc 1 1997 41 discriminator 2 view .LVU1593
 5288 002e 0EF1010E 		add	lr, lr, #1
 5289              	.LVL433:
1997:../../Middlewares/Camera_Middleware/ISP_Library/isp/Src/isp_services.c ****   {
 5290              		.loc 1 1997 17 is_stmt 1 discriminator 1 view .LVU1594
 5291 0032 06F11406 		add	r6, r6, #20
 5292 0036 F5D1     		bne	.L440
2000:../../Middlewares/Camera_Middleware/ISP_Library/isp/Src/isp_services.c ****       break;
2001:../../Middlewares/Camera_Middleware/ISP_Library/isp/Src/isp_services.c ****   }
2002:../../Middlewares/Camera_Middleware/ISP_Library/isp/Src/isp_services.c **** 
2003:../../Middlewares/Camera_Middleware/ISP_Library/isp/Src/isp_services.c ****   if (i == ISP_SVC_STAT_MAX_CB)
2004:../../Middlewares/Camera_Middleware/ISP_Library/isp/Src/isp_services.c ****   {
2005:../../Middlewares/Camera_Middleware/ISP_Library/isp/Src/isp_services.c ****     /* Too much callback registered */
2006:../../Middlewares/Camera_Middleware/ISP_Library/isp/Src/isp_services.c ****     return ISP_ERR_STAT_MAXCLIENTS;
 5293              		.loc 1 2006 12 is_stmt 0 view .LVU1595
 5294 0038 AC20     		movs	r0, #172
 5295              	.LVL434:
 5296              	.L451:
2007:../../Middlewares/Camera_Middleware/ISP_Library/isp/Src/isp_services.c ****   }
2008:../../Middlewares/Camera_Middleware/ISP_Library/isp/Src/isp_services.c **** 
2009:../../Middlewares/Camera_Middleware/ISP_Library/isp/Src/isp_services.c ****   /* Add this requested stat to the list of requested stats */
2010:../../Middlewares/Camera_Middleware/ISP_Library/isp/Src/isp_services.c ****   if (location & ISP_STAT_LOC_UP)
2011:../../Middlewares/Camera_Middleware/ISP_Library/isp/Src/isp_services.c ****   {
2012:../../Middlewares/Camera_Middleware/ISP_Library/isp/Src/isp_services.c ****     ISP_SVC_StatEngine.upRequest |= type;
2013:../../Middlewares/Camera_Middleware/ISP_Library/isp/Src/isp_services.c ****   }
2014:../../Middlewares/Camera_Middleware/ISP_Library/isp/Src/isp_services.c ****   if (location & ISP_STAT_LOC_DOWN)
2015:../../Middlewares/Camera_Middleware/ISP_Library/isp/Src/isp_services.c ****   {
2016:../../Middlewares/Camera_Middleware/ISP_Library/isp/Src/isp_services.c ****     ISP_SVC_StatEngine.downRequest |= type;
2017:../../Middlewares/Camera_Middleware/ISP_Library/isp/Src/isp_services.c ****   }
2018:../../Middlewares/Camera_Middleware/ISP_Library/isp/Src/isp_services.c **** 
2019:../../Middlewares/Camera_Middleware/ISP_Library/isp/Src/isp_services.c ****   if (type == ISP_STAT_TYPE_ALL_TMP)
2020:../../Middlewares/Camera_Middleware/ISP_Library/isp/Src/isp_services.c ****   {
2021:../../Middlewares/Camera_Middleware/ISP_Library/isp/Src/isp_services.c ****     /* Special case: request all stats for a short time (3 cycle) */
2022:../../Middlewares/Camera_Middleware/ISP_Library/isp/Src/isp_services.c ****     ISP_SVC_StatEngine.requestAllCounter = ISP_SVC_Misc_GetMainFrameId(hIsp) + 3 * ISP_STAT_CFG_CYC
2023:../../Middlewares/Camera_Middleware/ISP_Library/isp/Src/isp_services.c ****   }
2024:../../Middlewares/Camera_Middleware/ISP_Library/isp/Src/isp_services.c **** 
2025:../../Middlewares/Camera_Middleware/ISP_Library/isp/Src/isp_services.c ****   /* Register client */
2026:../../Middlewares/Camera_Middleware/ISP_Library/isp/Src/isp_services.c ****   ISP_SVC_StatEngine.client[i].callback = callback;
2027:../../Middlewares/Camera_Middleware/ISP_Library/isp/Src/isp_services.c ****   ISP_SVC_StatEngine.client[i].pAlgo = pAlgo;
2028:../../Middlewares/Camera_Middleware/ISP_Library/isp/Src/isp_services.c ****   ISP_SVC_StatEngine.client[i].pStats = pStats;
2029:../../Middlewares/Camera_Middleware/ISP_Library/isp/Src/isp_services.c ****   ISP_SVC_StatEngine.client[i].location = location;
2030:../../Middlewares/Camera_Middleware/ISP_Library/isp/Src/isp_services.c ****   ISP_SVC_StatEngine.client[i].type = type;
2031:../../Middlewares/Camera_Middleware/ISP_Library/isp/Src/isp_services.c ****   ISP_SVC_StatEngine.client[i].refFrameId = refFrameId;
2032:../../Middlewares/Camera_Middleware/ISP_Library/isp/Src/isp_services.c **** 
2033:../../Middlewares/Camera_Middleware/ISP_Library/isp/Src/isp_services.c ****   return ISP_OK;
2034:../../Middlewares/Camera_Middleware/ISP_Library/isp/Src/isp_services.c **** }
 5297              		.loc 1 2034 1 view .LVU1596
 5298 003a BDE8F083 		pop	{r4, r5, r6, r7, r8, r9, pc}
 5299              	.LVL435:
 5300              	.L446:
1991:../../Middlewares/Camera_Middleware/ISP_Library/isp/Src/isp_services.c ****   }
 5301              		.loc 1 1991 12 view .LVU1597
ARM GAS  C:\Users\Antonio\AppData\Local\Temp\ccF6VN3M.s 			page 145


 5302 003e 0120     		movs	r0, #1
 5303              	.LVL436:
1991:../../Middlewares/Camera_Middleware/ISP_Library/isp/Src/isp_services.c ****   }
 5304              		.loc 1 1991 12 view .LVU1598
 5305 0040 FBE7     		b	.L451
 5306              	.LVL437:
 5307              	.L439:
2003:../../Middlewares/Camera_Middleware/ISP_Library/isp/Src/isp_services.c ****   {
 5308              		.loc 1 2003 3 is_stmt 1 view .LVU1599
2010:../../Middlewares/Camera_Middleware/ISP_Library/isp/Src/isp_services.c ****   {
 5309              		.loc 1 2010 3 view .LVU1600
2010:../../Middlewares/Camera_Middleware/ISP_Library/isp/Src/isp_services.c ****   {
 5310              		.loc 1 2010 6 is_stmt 0 view .LVU1601
 5311 0042 1CF0010F 		tst	ip, #1
 5312 0046 04D0     		beq	.L444
2012:../../Middlewares/Camera_Middleware/ISP_Library/isp/Src/isp_services.c ****   }
 5313              		.loc 1 2012 5 is_stmt 1 view .LVU1602
2012:../../Middlewares/Camera_Middleware/ISP_Library/isp/Src/isp_services.c ****   }
 5314              		.loc 1 2012 34 is_stmt 0 view .LVU1603
 5315 0048 94F85861 		ldrb	r6, [r4, #344]	@ zero_extendqisi2
 5316 004c 2E43     		orrs	r6, r6, r5
 5317 004e 84F85861 		strb	r6, [r4, #344]
 5318              	.L444:
2014:../../Middlewares/Camera_Middleware/ISP_Library/isp/Src/isp_services.c ****   {
 5319              		.loc 1 2014 3 is_stmt 1 view .LVU1604
2014:../../Middlewares/Camera_Middleware/ISP_Library/isp/Src/isp_services.c ****   {
 5320              		.loc 1 2014 6 is_stmt 0 view .LVU1605
 5321 0052 1CF0020F 		tst	ip, #2
2016:../../Middlewares/Camera_Middleware/ISP_Library/isp/Src/isp_services.c ****   }
 5322              		.loc 1 2016 5 is_stmt 1 view .LVU1606
2016:../../Middlewares/Camera_Middleware/ISP_Library/isp/Src/isp_services.c ****   }
 5323              		.loc 1 2016 36 is_stmt 0 view .LVU1607
 5324 0056 1EBF     		ittt	ne
 5325 0058 94F85961 		ldrbne	r6, [r4, #345]	@ zero_extendqisi2
 5326 005c 2E43     		orrne	r6, r6, r5
 5327 005e 84F85961 		strbne	r6, [r4, #345]
2019:../../Middlewares/Camera_Middleware/ISP_Library/isp/Src/isp_services.c ****   {
 5328              		.loc 1 2019 3 is_stmt 1 view .LVU1608
2019:../../Middlewares/Camera_Middleware/ISP_Library/isp/Src/isp_services.c ****   {
 5329              		.loc 1 2019 6 is_stmt 0 view .LVU1609
 5330 0062 042D     		cmp	r5, #4
2022:../../Middlewares/Camera_Middleware/ISP_Library/isp/Src/isp_services.c ****   }
 5331              		.loc 1 2022 5 is_stmt 1 view .LVU1610
2022:../../Middlewares/Camera_Middleware/ISP_Library/isp/Src/isp_services.c ****   }
 5332              		.loc 1 2022 78 is_stmt 0 discriminator 1 view .LVU1611
 5333 0064 04BF     		itt	eq
 5334 0066 1E30     		addeq	r0, r0, #30
2022:../../Middlewares/Camera_Middleware/ISP_Library/isp/Src/isp_services.c ****   }
 5335              		.loc 1 2022 42 discriminator 1 view .LVU1612
 5336 0068 C4F85C01 		streq	r0, [r4, #348]
2026:../../Middlewares/Camera_Middleware/ISP_Library/isp/Src/isp_services.c ****   ISP_SVC_StatEngine.client[i].pAlgo = pAlgo;
 5337              		.loc 1 2026 3 is_stmt 1 view .LVU1613
2026:../../Middlewares/Camera_Middleware/ISP_Library/isp/Src/isp_services.c ****   ISP_SVC_StatEngine.client[i].pAlgo = pAlgo;
 5338              		.loc 1 2026 41 is_stmt 0 view .LVU1614
 5339 006c 1420     		movs	r0, #20
 5340 006e 00FB0E40 		mla	r0, r0, lr, r4
2027:../../Middlewares/Camera_Middleware/ISP_Library/isp/Src/isp_services.c ****   ISP_SVC_StatEngine.client[i].pStats = pStats;
ARM GAS  C:\Users\Antonio\AppData\Local\Temp\ccF6VN3M.s 			page 146


 5341              		.loc 1 2027 38 view .LVU1615
 5342 0072 C0E93D19 		strd	r1, r9, [r0, #244]
2028:../../Middlewares/Camera_Middleware/ISP_Library/isp/Src/isp_services.c ****   ISP_SVC_StatEngine.client[i].location = location;
 5343              		.loc 1 2028 3 is_stmt 1 view .LVU1616
2028:../../Middlewares/Camera_Middleware/ISP_Library/isp/Src/isp_services.c ****   ISP_SVC_StatEngine.client[i].location = location;
 5344              		.loc 1 2028 39 is_stmt 0 view .LVU1617
 5345 0076 C0F8FC30 		str	r3, [r0, #252]
2029:../../Middlewares/Camera_Middleware/ISP_Library/isp/Src/isp_services.c ****   ISP_SVC_StatEngine.client[i].type = type;
 5346              		.loc 1 2029 3 is_stmt 1 view .LVU1618
2029:../../Middlewares/Camera_Middleware/ISP_Library/isp/Src/isp_services.c ****   ISP_SVC_StatEngine.client[i].type = type;
 5347              		.loc 1 2029 41 is_stmt 0 view .LVU1619
 5348 007a 80F804C1 		strb	ip, [r0, #260]
2030:../../Middlewares/Camera_Middleware/ISP_Library/isp/Src/isp_services.c ****   ISP_SVC_StatEngine.client[i].refFrameId = refFrameId;
 5349              		.loc 1 2030 3 is_stmt 1 view .LVU1620
2030:../../Middlewares/Camera_Middleware/ISP_Library/isp/Src/isp_services.c ****   ISP_SVC_StatEngine.client[i].refFrameId = refFrameId;
 5350              		.loc 1 2030 37 is_stmt 0 view .LVU1621
 5351 007e 80F80551 		strb	r5, [r0, #261]
2031:../../Middlewares/Camera_Middleware/ISP_Library/isp/Src/isp_services.c **** 
 5352              		.loc 1 2031 3 is_stmt 1 view .LVU1622
2031:../../Middlewares/Camera_Middleware/ISP_Library/isp/Src/isp_services.c **** 
 5353              		.loc 1 2031 43 is_stmt 0 view .LVU1623
 5354 0082 C0F80071 		str	r7, [r0, #256]
2033:../../Middlewares/Camera_Middleware/ISP_Library/isp/Src/isp_services.c **** }
 5355              		.loc 1 2033 3 is_stmt 1 view .LVU1624
2033:../../Middlewares/Camera_Middleware/ISP_Library/isp/Src/isp_services.c **** }
 5356              		.loc 1 2033 10 is_stmt 0 view .LVU1625
 5357 0086 0020     		movs	r0, #0
 5358 0088 D7E7     		b	.L451
 5359              	.L453:
 5360 008a 00BF     		.align	2
 5361              	.L452:
 5362 008c 00000000 		.word	ISP_SVC_StatEngine
 5363              		.cfi_endproc
 5364              	.LFE897:
 5366              		.section	.data.stagePrevious1.0,"aw"
 5369              	stagePrevious1.0:
 5370 0000 09       		.byte	9
 5371              		.section	.data.stagePrevious2.1,"aw"
 5374              	stagePrevious2.1:
 5375 0000 09       		.byte	9
 5376              		.section	.rodata.statConfDownBins_9_11,"a"
 5377              		.align	2
 5380              	statConfDownBins_9_11:
 5381 0000 80000000 		.word	128
 5382 0004 70000000 		.word	112
 5383 0008 0C000000 		.word	12
 5384              		.section	.rodata.statConfDownBins_6_8,"a"
 5385              		.align	2
 5388              	statConfDownBins_6_8:
 5389 0000 80000000 		.word	128
 5390 0004 70000000 		.word	112
 5391 0008 08000000 		.word	8
 5392              		.section	.rodata.statConfDownBins_3_5,"a"
 5393              		.align	2
 5396              	statConfDownBins_3_5:
 5397 0000 80000000 		.word	128
 5398 0004 70000000 		.word	112
ARM GAS  C:\Users\Antonio\AppData\Local\Temp\ccF6VN3M.s 			page 147


 5399 0008 04000000 		.word	4
 5400              		.section	.rodata.statConfDownBins_0_2,"a"
 5401              		.align	2
 5404              	statConfDownBins_0_2:
 5405 0000 80000000 		.word	128
 5406 0004 70000000 		.word	112
 5407 0008 00000000 		.word	0
 5408              		.section	.rodata.statConfUpBins_9_11,"a"
 5409              		.align	2
 5412              	statConfUpBins_9_11:
 5413 0000 80000000 		.word	128
 5414 0004 30000000 		.word	48
 5415 0008 0C000000 		.word	12
 5416              		.section	.rodata.statConfUpBins_6_8,"a"
 5417              		.align	2
 5420              	statConfUpBins_6_8:
 5421 0000 80000000 		.word	128
 5422 0004 30000000 		.word	48
 5423 0008 08000000 		.word	8
 5424              		.section	.rodata.statConfUpBins_3_5,"a"
 5425              		.align	2
 5428              	statConfUpBins_3_5:
 5429 0000 80000000 		.word	128
 5430 0004 30000000 		.word	48
 5431 0008 04000000 		.word	4
 5432              		.section	.rodata.statConfUpBins_0_2,"a"
 5433              		.align	2
 5436              	statConfUpBins_0_2:
 5437 0000 80000000 		.word	128
 5438 0004 30000000 		.word	48
 5439 0008 00000000 		.word	0
 5440              		.section	.bss.ISP_SensorDelayMeasureRun,"aw",%nobits
 5443              	ISP_SensorDelayMeasureRun:
 5444 0000 00       		.space	1
 5445              		.section	.bss.ISP_SVC_StatEngine,"aw",%nobits
 5446              		.align	2
 5449              	ISP_SVC_StatEngine:
 5450 0000 00000000 		.space	352
 5450      00000000 
 5450      00000000 
 5450      00000000 
 5450      00000000 
 5451              		.section	.bss.ISP_IQParamCache,"aw",%nobits
 5452              		.align	2
 5455              	ISP_IQParamCache:
 5456 0000 00000000 		.space	600
 5456      00000000 
 5456      00000000 
 5456      00000000 
 5456      00000000 
 5457              		.section	.data.ISP_DecimationValue,"aw"
 5460              	ISP_DecimationValue:
 5461 0000 01       		.byte	1
 5462              		.section	.bss.ISP_ManualWBRefColorTemp,"aw",%nobits
 5463              		.align	2
 5466              	ISP_ManualWBRefColorTemp:
 5467 0000 00000000 		.space	4
ARM GAS  C:\Users\Antonio\AppData\Local\Temp\ccF6VN3M.s 			page 148


 5468              		.text
 5469              	.Letext0:
 5470              		.file 2 "C:\\ST\\STM32CubeIDE_1.19.0\\STM32CubeIDE\\plugins\\com.st.stm32cube.ide.mcu.externaltool
 5471              		.file 3 "C:\\ST\\STM32CubeIDE_1.19.0\\STM32CubeIDE\\plugins\\com.st.stm32cube.ide.mcu.externaltool
 5472              		.file 4 "C:\\ST\\STM32CubeIDE_1.19.0\\STM32CubeIDE\\plugins\\com.st.stm32cube.ide.mcu.externaltool
 5473              		.file 5 "../../STM32Cube_FW_N6/Drivers/CMSIS/Device/ST/STM32N6xx/Include/stm32n657xx.h"
 5474              		.file 6 "../../STM32Cube_FW_N6/Drivers/CMSIS/Device/ST/STM32N6xx/Include/stm32n6xx.h"
 5475              		.file 7 "../../STM32Cube_FW_N6/Drivers/STM32N6xx_HAL_Driver/Inc/stm32n6xx_hal_def.h"
 5476              		.file 8 "../../STM32Cube_FW_N6/Drivers/STM32N6xx_HAL_Driver/Inc/stm32n6xx_hal_dcmipp.h"
 5477              		.file 9 "../../Middlewares/Camera_Middleware/ISP_Library/isp/Inc/isp_core.h"
 5478              		.file 10 "../../Middlewares/Camera_Middleware/ISP_Library/isp/Inc/isp_services.h"
 5479              		.file 11 "../../STM32Cube_FW_N6/Drivers/STM32N6xx_HAL_Driver/Inc/stm32n6xx_hal.h"
 5480              		.file 12 "C:\\ST\\STM32CubeIDE_1.19.0\\STM32CubeIDE\\plugins\\com.st.stm32cube.ide.mcu.externaltoo
 5481              		.file 13 "<built-in>"
ARM GAS  C:\Users\Antonio\AppData\Local\Temp\ccF6VN3M.s 			page 149


DEFINED SYMBOLS
                            *ABS*:00000000 isp_services.c
C:\Users\Antonio\AppData\Local\Temp\ccF6VN3M.s:26     .text.GetAvgStats:00000000 $t
C:\Users\Antonio\AppData\Local\Temp\ccF6VN3M.s:31     .text.GetAvgStats:00000000 GetAvgStats
C:\Users\Antonio\AppData\Local\Temp\ccF6VN3M.s:110    .text.GetAvgStats:00000040 $d
C:\Users\Antonio\AppData\Local\Temp\ccF6VN3M.s:5460   .data.ISP_DecimationValue:00000000 ISP_DecimationValue
C:\Users\Antonio\AppData\Local\Temp\ccF6VN3M.s:115    .text.SetStatConfig:00000000 $t
C:\Users\Antonio\AppData\Local\Temp\ccF6VN3M.s:120    .text.SetStatConfig:00000000 SetStatConfig
C:\Users\Antonio\AppData\Local\Temp\ccF6VN3M.s:173    .text.ReadStatHistogram:00000000 $t
C:\Users\Antonio\AppData\Local\Temp\ccF6VN3M.s:178    .text.ReadStatHistogram:00000000 ReadStatHistogram
C:\Users\Antonio\AppData\Local\Temp\ccF6VN3M.s:229    .text.LuminanceFromRGB:00000000 $t
C:\Users\Antonio\AppData\Local\Temp\ccF6VN3M.s:235    .text.LuminanceFromRGB:00000000 LuminanceFromRGB
C:\Users\Antonio\AppData\Local\Temp\ccF6VN3M.s:283    .text.LuminanceFromRGB:00000048 $d
C:\Users\Antonio\AppData\Local\Temp\ccF6VN3M.s:293    .text.LuminanceFromRGBMono:00000000 $t
C:\Users\Antonio\AppData\Local\Temp\ccF6VN3M.s:299    .text.LuminanceFromRGBMono:00000000 LuminanceFromRGBMono
C:\Users\Antonio\AppData\Local\Temp\ccF6VN3M.s:321    .text.ISP_SVC_ISP_SetDemosaicing:00000000 $t
C:\Users\Antonio\AppData\Local\Temp\ccF6VN3M.s:327    .text.ISP_SVC_ISP_SetDemosaicing:00000000 ISP_SVC_ISP_SetDemosaicing
C:\Users\Antonio\AppData\Local\Temp\ccF6VN3M.s:469    .text.ISP_SVC_ISP_SetStatRemoval:00000000 $t
C:\Users\Antonio\AppData\Local\Temp\ccF6VN3M.s:475    .text.ISP_SVC_ISP_SetStatRemoval:00000000 ISP_SVC_ISP_SetStatRemoval
C:\Users\Antonio\AppData\Local\Temp\ccF6VN3M.s:564    .text.ISP_SVC_ISP_SetDecimation:00000000 $t
C:\Users\Antonio\AppData\Local\Temp\ccF6VN3M.s:570    .text.ISP_SVC_ISP_SetDecimation:00000000 ISP_SVC_ISP_SetDecimation
C:\Users\Antonio\AppData\Local\Temp\ccF6VN3M.s:600    .text.ISP_SVC_ISP_SetDecimation:00000016 $d
C:\Users\Antonio\AppData\Local\Temp\ccF6VN3M.s:608    .text.ISP_SVC_ISP_SetDecimation:0000001e $t
C:\Users\Antonio\AppData\Local\Temp\ccF6VN3M.s:688    .text.ISP_SVC_ISP_SetDecimation:00000064 $d
C:\Users\Antonio\AppData\Local\Temp\ccF6VN3M.s:693    .text.ISP_SVC_ISP_GetDecimation:00000000 $t
C:\Users\Antonio\AppData\Local\Temp\ccF6VN3M.s:699    .text.ISP_SVC_ISP_GetDecimation:00000000 ISP_SVC_ISP_GetDecimation
C:\Users\Antonio\AppData\Local\Temp\ccF6VN3M.s:722    .text.ISP_SVC_ISP_GetDecimation:0000000c $d
C:\Users\Antonio\AppData\Local\Temp\ccF6VN3M.s:727    .text.ISP_SVC_ISP_SetContrast:00000000 $t
C:\Users\Antonio\AppData\Local\Temp\ccF6VN3M.s:733    .text.ISP_SVC_ISP_SetContrast:00000000 ISP_SVC_ISP_SetContrast
C:\Users\Antonio\AppData\Local\Temp\ccF6VN3M.s:941    .text.ISP_SVC_ISP_SetStatArea:00000000 $t
C:\Users\Antonio\AppData\Local\Temp\ccF6VN3M.s:947    .text.ISP_SVC_ISP_SetStatArea:00000000 ISP_SVC_ISP_SetStatArea
C:\Users\Antonio\AppData\Local\Temp\ccF6VN3M.s:1101   .text.ISP_SVC_ISP_SetStatArea:00000094 $d
C:\Users\Antonio\AppData\Local\Temp\ccF6VN3M.s:1106   .text.ISP_SVC_ISP_GetStatArea:00000000 $t
C:\Users\Antonio\AppData\Local\Temp\ccF6VN3M.s:1112   .text.ISP_SVC_ISP_GetStatArea:00000000 ISP_SVC_ISP_GetStatArea
C:\Users\Antonio\AppData\Local\Temp\ccF6VN3M.s:1214   .text.ISP_SVC_ISP_GetStatArea:00000050 $d
C:\Users\Antonio\AppData\Local\Temp\ccF6VN3M.s:1219   .text.ISP_SVC_ISP_SetBadPixel:00000000 $t
C:\Users\Antonio\AppData\Local\Temp\ccF6VN3M.s:1225   .text.ISP_SVC_ISP_SetBadPixel:00000000 ISP_SVC_ISP_SetBadPixel
C:\Users\Antonio\AppData\Local\Temp\ccF6VN3M.s:1309   .text.ISP_SVC_ISP_GetBadPixel:00000000 $t
C:\Users\Antonio\AppData\Local\Temp\ccF6VN3M.s:1315   .text.ISP_SVC_ISP_GetBadPixel:00000000 ISP_SVC_ISP_GetBadPixel
C:\Users\Antonio\AppData\Local\Temp\ccF6VN3M.s:1386   .text.ISP_SVC_ISP_SetBlackLevel:00000000 $t
C:\Users\Antonio\AppData\Local\Temp\ccF6VN3M.s:1392   .text.ISP_SVC_ISP_SetBlackLevel:00000000 ISP_SVC_ISP_SetBlackLevel
C:\Users\Antonio\AppData\Local\Temp\ccF6VN3M.s:1496   .text.ISP_SVC_ISP_GetBlackLevel:00000000 $t
C:\Users\Antonio\AppData\Local\Temp\ccF6VN3M.s:1502   .text.ISP_SVC_ISP_GetBlackLevel:00000000 ISP_SVC_ISP_GetBlackLevel
C:\Users\Antonio\AppData\Local\Temp\ccF6VN3M.s:1578   .text.ISP_SVC_ISP_SetGain:00000000 $t
C:\Users\Antonio\AppData\Local\Temp\ccF6VN3M.s:1584   .text.ISP_SVC_ISP_SetGain:00000000 ISP_SVC_ISP_SetGain
C:\Users\Antonio\AppData\Local\Temp\ccF6VN3M.s:1955   .text.ISP_SVC_ISP_SetGain:00000128 $d
C:\Users\Antonio\AppData\Local\Temp\ccF6VN3M.s:1962   .text.ISP_SVC_ISP_GetGain:00000000 $t
C:\Users\Antonio\AppData\Local\Temp\ccF6VN3M.s:1968   .text.ISP_SVC_ISP_GetGain:00000000 ISP_SVC_ISP_GetGain
C:\Users\Antonio\AppData\Local\Temp\ccF6VN3M.s:2128   .text.ISP_SVC_ISP_GetGain:00000090 $d
C:\Users\Antonio\AppData\Local\Temp\ccF6VN3M.s:2133   .text.ISP_SVC_ISP_SetColorConv:00000000 $t
C:\Users\Antonio\AppData\Local\Temp\ccF6VN3M.s:2139   .text.ISP_SVC_ISP_SetColorConv:00000000 ISP_SVC_ISP_SetColorConv
C:\Users\Antonio\AppData\Local\Temp\ccF6VN3M.s:2472   .text.ISP_SVC_ISP_SetColorConv:00000104 $d
C:\Users\Antonio\AppData\Local\Temp\ccF6VN3M.s:2479   .text.ISP_SVC_ISP_GetColorConv:00000000 $t
C:\Users\Antonio\AppData\Local\Temp\ccF6VN3M.s:2485   .text.ISP_SVC_ISP_GetColorConv:00000000 ISP_SVC_ISP_GetColorConv
C:\Users\Antonio\AppData\Local\Temp\ccF6VN3M.s:2719   .text.ISP_SVC_ISP_GetColorConv:0000008c $d
C:\Users\Antonio\AppData\Local\Temp\ccF6VN3M.s:2724   .text.ISP_SVC_Sensor_GetInfo:00000000 $t
C:\Users\Antonio\AppData\Local\Temp\ccF6VN3M.s:2730   .text.ISP_SVC_Sensor_GetInfo:00000000 ISP_SVC_Sensor_GetInfo
ARM GAS  C:\Users\Antonio\AppData\Local\Temp\ccF6VN3M.s 			page 150


C:\Users\Antonio\AppData\Local\Temp\ccF6VN3M.s:2783   .text.ISP_SVC_Sensor_SetGain:00000000 $t
C:\Users\Antonio\AppData\Local\Temp\ccF6VN3M.s:2789   .text.ISP_SVC_Sensor_SetGain:00000000 ISP_SVC_Sensor_SetGain
C:\Users\Antonio\AppData\Local\Temp\ccF6VN3M.s:2854   .text.ISP_SVC_Sensor_SetGain:00000028 $d
C:\Users\Antonio\AppData\Local\Temp\ccF6VN3M.s:2859   .text.ISP_SVC_Sensor_GetGain:00000000 $t
C:\Users\Antonio\AppData\Local\Temp\ccF6VN3M.s:2865   .text.ISP_SVC_Sensor_GetGain:00000000 ISP_SVC_Sensor_GetGain
C:\Users\Antonio\AppData\Local\Temp\ccF6VN3M.s:2918   .text.ISP_SVC_Sensor_SetExposure:00000000 $t
C:\Users\Antonio\AppData\Local\Temp\ccF6VN3M.s:2924   .text.ISP_SVC_Sensor_SetExposure:00000000 ISP_SVC_Sensor_SetExposure
C:\Users\Antonio\AppData\Local\Temp\ccF6VN3M.s:2989   .text.ISP_SVC_Sensor_SetExposure:00000028 $d
C:\Users\Antonio\AppData\Local\Temp\ccF6VN3M.s:2994   .text.ISP_SVC_Sensor_GetExposure:00000000 $t
C:\Users\Antonio\AppData\Local\Temp\ccF6VN3M.s:3000   .text.ISP_SVC_Sensor_GetExposure:00000000 ISP_SVC_Sensor_GetExposure
C:\Users\Antonio\AppData\Local\Temp\ccF6VN3M.s:3053   .text.ISP_SVC_Sensor_SetTestPattern:00000000 $t
C:\Users\Antonio\AppData\Local\Temp\ccF6VN3M.s:3059   .text.ISP_SVC_Sensor_SetTestPattern:00000000 ISP_SVC_Sensor_SetTestPattern
C:\Users\Antonio\AppData\Local\Temp\ccF6VN3M.s:3115   .text.ISP_SVC_Misc_GetDCMIPPVersion:00000000 $t
C:\Users\Antonio\AppData\Local\Temp\ccF6VN3M.s:3121   .text.ISP_SVC_Misc_GetDCMIPPVersion:00000000 ISP_SVC_Misc_GetDCMIPPVersion
C:\Users\Antonio\AppData\Local\Temp\ccF6VN3M.s:3173   .text.ISP_SVC_Misc_IsDCMIPPReady:00000000 $t
C:\Users\Antonio\AppData\Local\Temp\ccF6VN3M.s:3179   .text.ISP_SVC_Misc_IsDCMIPPReady:00000000 ISP_SVC_Misc_IsDCMIPPReady
C:\Users\Antonio\AppData\Local\Temp\ccF6VN3M.s:3220   .text.ISP_SVC_Misc_GetFirmwareConfig:00000000 $t
C:\Users\Antonio\AppData\Local\Temp\ccF6VN3M.s:3226   .text.ISP_SVC_Misc_GetFirmwareConfig:00000000 ISP_SVC_Misc_GetFirmwareConfig
C:\Users\Antonio\AppData\Local\Temp\ccF6VN3M.s:3312   .text.ISP_SVC_Misc_IncMainFrameId:00000000 $t
C:\Users\Antonio\AppData\Local\Temp\ccF6VN3M.s:3318   .text.ISP_SVC_Misc_IncMainFrameId:00000000 ISP_SVC_Misc_IncMainFrameId
C:\Users\Antonio\AppData\Local\Temp\ccF6VN3M.s:3337   .text.ISP_SVC_Misc_GetMainFrameId:00000000 $t
C:\Users\Antonio\AppData\Local\Temp\ccF6VN3M.s:3343   .text.ISP_SVC_Misc_GetMainFrameId:00000000 ISP_SVC_Misc_GetMainFrameId
C:\Users\Antonio\AppData\Local\Temp\ccF6VN3M.s:3361   .text.ISP_SVC_Misc_IncAncillaryFrameId:00000000 $t
C:\Users\Antonio\AppData\Local\Temp\ccF6VN3M.s:3367   .text.ISP_SVC_Misc_IncAncillaryFrameId:00000000 ISP_SVC_Misc_IncAncillaryFrameId
C:\Users\Antonio\AppData\Local\Temp\ccF6VN3M.s:3386   .text.ISP_SVC_Misc_GetAncillaryFrameId:00000000 $t
C:\Users\Antonio\AppData\Local\Temp\ccF6VN3M.s:3392   .text.ISP_SVC_Misc_GetAncillaryFrameId:00000000 ISP_SVC_Misc_GetAncillaryFrameId
C:\Users\Antonio\AppData\Local\Temp\ccF6VN3M.s:3410   .text.ISP_SVC_Misc_IncDumpFrameId:00000000 $t
C:\Users\Antonio\AppData\Local\Temp\ccF6VN3M.s:3416   .text.ISP_SVC_Misc_IncDumpFrameId:00000000 ISP_SVC_Misc_IncDumpFrameId
C:\Users\Antonio\AppData\Local\Temp\ccF6VN3M.s:3435   .text.ISP_SVC_Misc_GetDumpFrameId:00000000 $t
C:\Users\Antonio\AppData\Local\Temp\ccF6VN3M.s:3441   .text.ISP_SVC_Misc_GetDumpFrameId:00000000 ISP_SVC_Misc_GetDumpFrameId
C:\Users\Antonio\AppData\Local\Temp\ccF6VN3M.s:3459   .text.ISP_SVC_Misc_SetWBRefMode:00000000 $t
C:\Users\Antonio\AppData\Local\Temp\ccF6VN3M.s:3465   .text.ISP_SVC_Misc_SetWBRefMode:00000000 ISP_SVC_Misc_SetWBRefMode
C:\Users\Antonio\AppData\Local\Temp\ccF6VN3M.s:3488   .text.ISP_SVC_Misc_SetWBRefMode:00000008 $d
C:\Users\Antonio\AppData\Local\Temp\ccF6VN3M.s:5466   .bss.ISP_ManualWBRefColorTemp:00000000 ISP_ManualWBRefColorTemp
C:\Users\Antonio\AppData\Local\Temp\ccF6VN3M.s:3493   .text.ISP_SVC_Misc_GetWBRefMode:00000000 $t
C:\Users\Antonio\AppData\Local\Temp\ccF6VN3M.s:3499   .text.ISP_SVC_Misc_GetWBRefMode:00000000 ISP_SVC_Misc_GetWBRefMode
C:\Users\Antonio\AppData\Local\Temp\ccF6VN3M.s:3523   .text.ISP_SVC_Misc_GetWBRefMode:0000000c $d
C:\Users\Antonio\AppData\Local\Temp\ccF6VN3M.s:3528   .text.ISP_SVC_Misc_SensorDelayMeasureStart:00000000 $t
C:\Users\Antonio\AppData\Local\Temp\ccF6VN3M.s:3534   .text.ISP_SVC_Misc_SensorDelayMeasureStart:00000000 ISP_SVC_Misc_SensorDelayMeasureStart
C:\Users\Antonio\AppData\Local\Temp\ccF6VN3M.s:3551   .text.ISP_SVC_Misc_SensorDelayMeasureStart:00000008 $d
C:\Users\Antonio\AppData\Local\Temp\ccF6VN3M.s:5443   .bss.ISP_SensorDelayMeasureRun:00000000 ISP_SensorDelayMeasureRun
C:\Users\Antonio\AppData\Local\Temp\ccF6VN3M.s:3556   .text.ISP_SVC_Misc_SensorDelayMeasureStop:00000000 $t
C:\Users\Antonio\AppData\Local\Temp\ccF6VN3M.s:3562   .text.ISP_SVC_Misc_SensorDelayMeasureStop:00000000 ISP_SVC_Misc_SensorDelayMeasureStop
C:\Users\Antonio\AppData\Local\Temp\ccF6VN3M.s:3579   .text.ISP_SVC_Misc_SensorDelayMeasureStop:00000008 $d
C:\Users\Antonio\AppData\Local\Temp\ccF6VN3M.s:3584   .text.ISP_SVC_Misc_SensorDelayMeasureIsRunning:00000000 $t
C:\Users\Antonio\AppData\Local\Temp\ccF6VN3M.s:3590   .text.ISP_SVC_Misc_SensorDelayMeasureIsRunning:00000000 ISP_SVC_Misc_SensorDelayMeasureIsRunning
C:\Users\Antonio\AppData\Local\Temp\ccF6VN3M.s:3605   .text.ISP_SVC_Misc_SensorDelayMeasureIsRunning:00000008 $d
C:\Users\Antonio\AppData\Local\Temp\ccF6VN3M.s:3610   .text.ISP_SVC_Misc_SendSensorDelayMeasure:00000000 $t
C:\Users\Antonio\AppData\Local\Temp\ccF6VN3M.s:3616   .text.ISP_SVC_Misc_SendSensorDelayMeasure:00000000 ISP_SVC_Misc_SendSensorDelayMeasure
C:\Users\Antonio\AppData\Local\Temp\ccF6VN3M.s:3634   .text.ISP_SVC_Misc_StopPreview:00000000 $t
C:\Users\Antonio\AppData\Local\Temp\ccF6VN3M.s:3640   .text.ISP_SVC_Misc_StopPreview:00000000 ISP_SVC_Misc_StopPreview
C:\Users\Antonio\AppData\Local\Temp\ccF6VN3M.s:3680   .text.ISP_SVC_Misc_StartPreview:00000000 $t
C:\Users\Antonio\AppData\Local\Temp\ccF6VN3M.s:3686   .text.ISP_SVC_Misc_StartPreview:00000000 ISP_SVC_Misc_StartPreview
C:\Users\Antonio\AppData\Local\Temp\ccF6VN3M.s:3726   .text.ISP_SVC_Misc_IsGammaEnabled:00000000 $t
C:\Users\Antonio\AppData\Local\Temp\ccF6VN3M.s:3732   .text.ISP_SVC_Misc_IsGammaEnabled:00000000 ISP_SVC_Misc_IsGammaEnabled
C:\Users\Antonio\AppData\Local\Temp\ccF6VN3M.s:3791   .text.ISP_SVC_ISP_SetGamma:00000000 $t
C:\Users\Antonio\AppData\Local\Temp\ccF6VN3M.s:3797   .text.ISP_SVC_ISP_SetGamma:00000000 ISP_SVC_ISP_SetGamma
ARM GAS  C:\Users\Antonio\AppData\Local\Temp\ccF6VN3M.s 			page 151


C:\Users\Antonio\AppData\Local\Temp\ccF6VN3M.s:3884   .text.ISP_SVC_Dump_GetFrame:00000000 $t
C:\Users\Antonio\AppData\Local\Temp\ccF6VN3M.s:3890   .text.ISP_SVC_Dump_GetFrame:00000000 ISP_SVC_Dump_GetFrame
C:\Users\Antonio\AppData\Local\Temp\ccF6VN3M.s:3962   .text.ISP_SVC_IQParam_Init:00000000 $t
C:\Users\Antonio\AppData\Local\Temp\ccF6VN3M.s:3968   .text.ISP_SVC_IQParam_Init:00000000 ISP_SVC_IQParam_Init
C:\Users\Antonio\AppData\Local\Temp\ccF6VN3M.s:3996   .text.ISP_SVC_IQParam_Init:00000010 $d
C:\Users\Antonio\AppData\Local\Temp\ccF6VN3M.s:5455   .bss.ISP_IQParamCache:00000000 ISP_IQParamCache
C:\Users\Antonio\AppData\Local\Temp\ccF6VN3M.s:4001   .text.ISP_SVC_IQParam_Get:00000000 $t
C:\Users\Antonio\AppData\Local\Temp\ccF6VN3M.s:4007   .text.ISP_SVC_IQParam_Get:00000000 ISP_SVC_IQParam_Get
C:\Users\Antonio\AppData\Local\Temp\ccF6VN3M.s:4025   .text.ISP_SVC_IQParam_Get:00000004 $d
C:\Users\Antonio\AppData\Local\Temp\ccF6VN3M.s:4030   .text.ISP_SVC_Stats_Init:00000000 $t
C:\Users\Antonio\AppData\Local\Temp\ccF6VN3M.s:4036   .text.ISP_SVC_Stats_Init:00000000 ISP_SVC_Stats_Init
C:\Users\Antonio\AppData\Local\Temp\ccF6VN3M.s:4055   .text.ISP_SVC_Stats_Init:0000000c $d
C:\Users\Antonio\AppData\Local\Temp\ccF6VN3M.s:5449   .bss.ISP_SVC_StatEngine:00000000 ISP_SVC_StatEngine
C:\Users\Antonio\AppData\Local\Temp\ccF6VN3M.s:4068   .text.ISP_SVC_Stats_Gather:00000000 $t
C:\Users\Antonio\AppData\Local\Temp\ccF6VN3M.s:4074   .text.ISP_SVC_Stats_Gather:00000000 ISP_SVC_Stats_Gather
C:\Users\Antonio\AppData\Local\Temp\ccF6VN3M.s:4148   .text.ISP_SVC_Stats_Gather:00000030 $d
C:\Users\Antonio\AppData\Local\Temp\ccF6VN3M.s:4158   .text.ISP_SVC_Stats_Gather:0000003a $t
C:\Users\Antonio\AppData\Local\Temp\ccF6VN3M.s:4234   .text.ISP_SVC_Stats_Gather:000000a4 $d
C:\Users\Antonio\AppData\Local\Temp\ccF6VN3M.s:4244   .text.ISP_SVC_Stats_Gather:000000ae $t
C:\Users\Antonio\AppData\Local\Temp\ccF6VN3M.s:4787   .text.ISP_SVC_Stats_Gather:000002b4 $d
C:\Users\Antonio\AppData\Local\Temp\ccF6VN3M.s:5436   .rodata.statConfUpBins_0_2:00000000 statConfUpBins_0_2
C:\Users\Antonio\AppData\Local\Temp\ccF6VN3M.s:5428   .rodata.statConfUpBins_3_5:00000000 statConfUpBins_3_5
C:\Users\Antonio\AppData\Local\Temp\ccF6VN3M.s:5420   .rodata.statConfUpBins_6_8:00000000 statConfUpBins_6_8
C:\Users\Antonio\AppData\Local\Temp\ccF6VN3M.s:5412   .rodata.statConfUpBins_9_11:00000000 statConfUpBins_9_11
C:\Users\Antonio\AppData\Local\Temp\ccF6VN3M.s:5404   .rodata.statConfDownBins_0_2:00000000 statConfDownBins_0_2
C:\Users\Antonio\AppData\Local\Temp\ccF6VN3M.s:5396   .rodata.statConfDownBins_3_5:00000000 statConfDownBins_3_5
C:\Users\Antonio\AppData\Local\Temp\ccF6VN3M.s:5388   .rodata.statConfDownBins_6_8:00000000 statConfDownBins_6_8
C:\Users\Antonio\AppData\Local\Temp\ccF6VN3M.s:5380   .rodata.statConfDownBins_9_11:00000000 statConfDownBins_9_11
C:\Users\Antonio\AppData\Local\Temp\ccF6VN3M.s:5369   .data.stagePrevious1.0:00000000 stagePrevious1.0
C:\Users\Antonio\AppData\Local\Temp\ccF6VN3M.s:5374   .data.stagePrevious2.1:00000000 stagePrevious2.1
C:\Users\Antonio\AppData\Local\Temp\ccF6VN3M.s:4831   .text.ISP_SVC_Stats_Gather:00000314 $t
C:\Users\Antonio\AppData\Local\Temp\ccF6VN3M.s:4887   .text.ISP_SVC_Stats_Gather:00000370 $d
C:\Users\Antonio\AppData\Local\Temp\ccF6VN3M.s:4897   .text.ISP_SVC_Stats_Gather:0000037a $t
C:\Users\Antonio\AppData\Local\Temp\ccF6VN3M.s:5016   .text.ISP_SVC_Stats_Gather:000003f0 $d
C:\Users\Antonio\AppData\Local\Temp\ccF6VN3M.s:5023   .text.ISP_SVC_Stats_ProcessCallbacks:00000000 $t
C:\Users\Antonio\AppData\Local\Temp\ccF6VN3M.s:5029   .text.ISP_SVC_Stats_ProcessCallbacks:00000000 ISP_SVC_Stats_ProcessCallbacks
C:\Users\Antonio\AppData\Local\Temp\ccF6VN3M.s:5156   .text.ISP_SVC_Stats_ProcessCallbacks:00000078 $d
C:\Users\Antonio\AppData\Local\Temp\ccF6VN3M.s:5162   .text.ISP_SVC_Stats_GetLatest:00000000 $t
C:\Users\Antonio\AppData\Local\Temp\ccF6VN3M.s:5168   .text.ISP_SVC_Stats_GetLatest:00000000 ISP_SVC_Stats_GetLatest
C:\Users\Antonio\AppData\Local\Temp\ccF6VN3M.s:5213   .text.ISP_SVC_Stats_GetLatest:0000001c $d
C:\Users\Antonio\AppData\Local\Temp\ccF6VN3M.s:5218   .text.ISP_SVC_Stats_GetNext:00000000 $t
C:\Users\Antonio\AppData\Local\Temp\ccF6VN3M.s:5224   .text.ISP_SVC_Stats_GetNext:00000000 ISP_SVC_Stats_GetNext
C:\Users\Antonio\AppData\Local\Temp\ccF6VN3M.s:5362   .text.ISP_SVC_Stats_GetNext:0000008c $d
C:\Users\Antonio\AppData\Local\Temp\ccF6VN3M.s:5377   .rodata.statConfDownBins_9_11:00000000 $d
C:\Users\Antonio\AppData\Local\Temp\ccF6VN3M.s:5385   .rodata.statConfDownBins_6_8:00000000 $d
C:\Users\Antonio\AppData\Local\Temp\ccF6VN3M.s:5393   .rodata.statConfDownBins_3_5:00000000 $d
C:\Users\Antonio\AppData\Local\Temp\ccF6VN3M.s:5401   .rodata.statConfDownBins_0_2:00000000 $d
C:\Users\Antonio\AppData\Local\Temp\ccF6VN3M.s:5409   .rodata.statConfUpBins_9_11:00000000 $d
C:\Users\Antonio\AppData\Local\Temp\ccF6VN3M.s:5417   .rodata.statConfUpBins_6_8:00000000 $d
C:\Users\Antonio\AppData\Local\Temp\ccF6VN3M.s:5425   .rodata.statConfUpBins_3_5:00000000 $d
C:\Users\Antonio\AppData\Local\Temp\ccF6VN3M.s:5433   .rodata.statConfUpBins_0_2:00000000 $d
C:\Users\Antonio\AppData\Local\Temp\ccF6VN3M.s:5444   .bss.ISP_SensorDelayMeasureRun:00000000 $d
C:\Users\Antonio\AppData\Local\Temp\ccF6VN3M.s:5446   .bss.ISP_SVC_StatEngine:00000000 $d
C:\Users\Antonio\AppData\Local\Temp\ccF6VN3M.s:5452   .bss.ISP_IQParamCache:00000000 $d
C:\Users\Antonio\AppData\Local\Temp\ccF6VN3M.s:5463   .bss.ISP_ManualWBRefColorTemp:00000000 $d
                           .group:00000000 wm4.0.edffc6ad2f5eb1e671bbefdf8c481eb3
                           .group:00000000 wm4.isp_conf.h.21.f38432dbfef47e2ce2a64e60ef6a2d79
ARM GAS  C:\Users\Antonio\AppData\Local\Temp\ccF6VN3M.s 			page 152


                           .group:00000000 wm4.stm32n6xx_hal_conf.h.21.e6f895f5dec93fd886896ef3aa220611
                           .group:00000000 wm4.stddef.h.39.0dc9006b34572d4d9cae4c8b422c4971
                           .group:00000000 wm4.arm_cmse.h.103.a0d15a79c4c9a67da8d5831704d7248e
                           .group:00000000 wm4.stm32n6xx.h.34.80585dd08aa426c932f6311fdb7386da
                           .group:00000000 wm4.stm32n657xx.h.26.acd272cb67318cc1a4791ce2f0720ca6
                           .group:00000000 wm4._newlib_version.h.4.411db44ea2338a62eca2f0777f81481b
                           .group:00000000 wm4.features.h.33.e0c9f337c65cb9f22ed5f23d082bc78b
                           .group:00000000 wm4._default_types.h.15.247e5cd201eca3442cbf5404108c4935
                           .group:00000000 wm4._intsup.h.10.48bafbb683905c4daa4565a85aeeb264
                           .group:00000000 wm4._stdint.h.10.c24fa3af3bc1706662bb5593a907e841
                           .group:00000000 wm4.stdint.h.23.d53047a68f4a85177f80b422d52785ed
                           .group:00000000 wm4.cmsis_version.h.32.0ac195c83bb4537824e6ad1c47474b79
                           .group:00000000 wm4.core_cm55.h.68.832d5cf835639cc0d28219c3d2867330
                           .group:00000000 wm4.cmsis_gcc.h.26.7a5fd1a99dbedde687044a4433ab3e15
                           .group:00000000 wm4.core_cm55.h.196.52e437a270752da561676e507b35baeb
                           .group:00000000 wm4.mpu_armv8.h.32.9d72426c8e2b47753456dcb84802c5b3
                           .group:00000000 wm4.pmu_armv8.h.32.eaa95f88a71b29390b135fd81c071b6b
                           .group:00000000 wm4.core_cm55.h.4411.860dad8650880893dd57b815844f7186
                           .group:00000000 wm4.cachel1_armv7.h.32.abd77761a989e008b0c60891114a33c7
                           .group:00000000 wm4.stm32n657xx.h.575.1c2a5e6bedffc6f9083dcc857bc6d09d
                           .group:00000000 wm4.stm32n6xx.h.114.5cf793d8af485e14f110e3e24bde1aa5
                           .group:00000000 wm4.stm32_hal_legacy.h.22.87fb12bf5a1a1e00fc134f22bc9aa8c4
                           .group:00000000 wm4.newlib.h.7.a37ffbe9e5aff74303f4e60b1cc1c01b
                           .group:00000000 wm4.ieeefp.h.77.bd5feb87d9990dd328793ced294f6a87
                           .group:00000000 wm4.config.h.224.10ee1ad185d877c6e334e6581faab44d
                           .group:00000000 wm4._ansi.h.31.de524f58584151836e90d8620a16f8e8
                           .group:00000000 wm4.cdefs.h.49.70fc7af612f78ddcace70fdd90b5623b
                           .group:00000000 wm4._types.h.20.dd0d04dca3800a0d2a6129b87f3adbb2
                           .group:00000000 wm4.stddef.h.158.6f8e08a347b1cff664332fa350bfceb3
                           .group:00000000 wm4._types.h.127.3bdfe3ff8ea2d0985b03d9cbe93480e3
                           .group:00000000 wm4.reent.h.18.25503cdc8b7e55dd0d6ea7b3e5af7a03
                           .group:00000000 wm4.lock.h.2.1461d1fff82dffe8bfddc23307f6484f
                           .group:00000000 wm4.reent.h.78.6b87466b04591b1f1cb88c14fdf2ba9e
                           .group:00000000 wm4.math.h.13.47cfc34cae8a1153323939c4d32cf7c2
                           .group:00000000 wm4.stm32n6xx_hal_def.h.63.3a8f01490e8852464e9fcb69092e9c75
                           .group:00000000 wm4.stm32n6xx_ll_bus.h.38.2366a295ee4cdb04833997d3787fcd2d
                           .group:00000000 wm4.stm32n6xx_ll_rcc.h.21.002e22a16fd7f67dde6dce41e8ba9620
                           .group:00000000 wm4.stm32n6xx_hal_rcc.h.194.1cb1283e40f9bebcd3fba2a9a961838e
                           .group:00000000 wm4.stm32n6xx_hal_rcc_ex.h.21.79aa32178dfef625fbd20d362449acfa
                           .group:00000000 wm4.stm32n6xx_hal_rcc.h.4359.3f0b7ad33826d95438602c9aebc08af9
                           .group:00000000 wm4.stm32n6xx_hal_gpio.h.21.89d54af663b98eb8fc098192053f7eeb
                           .group:00000000 wm4.stm32n6xx_hal_gpio_ex.h.22.4acb2e3511a98bb48b81cfc8e09fd59e
                           .group:00000000 wm4.stm32n6xx_hal_rif.h.21.424d0bafb874a777dee3742a22e13037
                           .group:00000000 wm4.stm32n6xx_hal_dma.h.21.61e48c5c2e8d25d22177834b232fe45c
                           .group:00000000 wm4.stm32n6xx_hal_dma_ex.h.21.66e597beb090a165329d6ccf665e41bc
                           .group:00000000 wm4.stm32n6xx_hal_dma.h.1020.87e2180c009560b617c1f8208140c950
                           .group:00000000 wm4.stm32n6xx_hal_cortex.h.21.f493623cc58f9454ab4eae41e395c5cc
                           .group:00000000 wm4.stm32n6xx_hal_bsec.h.21.61b309e67dd810e28897a01b1b21a97f
                           .group:00000000 wm4.stm32n6xx_hal_dcmipp.h.21.f538bfd785c6469670251ac9bc7af55d
                           .group:00000000 wm4.stm32n6xx_hal_dma2d.h.21.75c8d46cdbb72970123b3f34ae2043d7
                           .group:00000000 wm4.stm32n6xx_hal_exti.h.21.fda87e715ea6b98239ec30171d1df594
                           .group:00000000 wm4.stm32n6xx_hal_i2c.h.21.3f483626ff64c5bf027265bb2e1d1331
                           .group:00000000 wm4.stm32n6xx_hal_i2c_ex.h.21.79e9196c22282cdaf6b4047893638c45
                           .group:00000000 wm4.stm32n6xx_hal_i2c.h.741.1084702632703acc669e4282b3043372
                           .group:00000000 wm4.stm32n6xx_hal_ltdc.h.21.ae1eb09930e7e550e48e418ac5849e4d
                           .group:00000000 wm4.stm32n6xx_hal_ltdc.h.1002.b13ede7fc94ed5ad1c6768a157d2149a
                           .group:00000000 wm4.stm32n6xx_hal_pwr.h.21.cdb73e4869c3fed3fc84f901ec0e5f0a
ARM GAS  C:\Users\Antonio\AppData\Local\Temp\ccF6VN3M.s 			page 153


                           .group:00000000 wm4.stm32n6xx_hal_pwr_ex.h.21.1a673224a58b0c1e5fad8eeda6514208
                           .group:00000000 wm4.stm32n6xx_hal_ramcfg.h.21.a62dfbb4d2c14e9a8c634a215e37bd3d
                           .group:00000000 wm4.stm32n6xx_hal_uart.h.21.230f549bfa0d5ebfd77bfb311b2aca15
                           .group:00000000 wm4.stm32n6xx_hal_uart_ex.h.21.a0d5511e1d0703b7b5278c8f5472b96d
                           .group:00000000 wm4.stm32n6xx_hal_xspi.h.21.e17898be2073b6b6b19faf30b4e304e9
                           .group:00000000 wm4.stm32n6xx_hal_cacheaxi.h.21.7c3375b7903ec42376e4883320997f74
                           .group:00000000 wm4.stm32n6xx_hal.h.81.5e59143eba07faca3e9aeaa5470826c8
                           .group:00000000 wm4.stdio.h.27.3fc80220048df77954e38daec3bb9670
                           .group:00000000 wm4.stddef.h.158.eec8bf00b5213f43d095cb984c5f22e3
                           .group:00000000 wm4.stdarg.h.34.3a23a216c0c293b3d2ea2e89281481e6
                           .group:00000000 wm4.stdio.h.47.dc31ec4674d7bcb103c9f08809549f45
                           .group:00000000 wm4.stdio.h.2.4aa87247282eca6c8f36f9de33d8df1a
                           .group:00000000 wm4.stdio.h.87.a1e20d2651f9bfb66e51bfbe849db00a
                           .group:00000000 wm4.stdlib.h.13.4ed386f5c1a80d71e72172885d946ef2
                           .group:00000000 wm4.alloca.h.8.dfc0c703c47ec3e69746825b17d9e66d
                           .group:00000000 wm4.stdlib.h.56.f4862cfbf4363a1db01842d5bdf72c18
                           .group:00000000 wm4.string.h.8.c4b8571ce60dff2817f43fec8b86aecd
                           .group:00000000 wm4.string.h.177.59a005921fa78485abc80a0267de5752
                           .group:00000000 wm4.stdbool.h.29.c08aa3eec75cf5b9b5003883f43253f0
                           .group:00000000 wm4.isp_core.h.109.be5387f515355b6edcb70af2607f9a68
                           .group:00000000 wm4.isp_services.h.55.aa3787e002060687ddf24cf4424c9532

UNDEFINED SYMBOLS
HAL_DCMIPP_PIPE_GetISPAccumulatedStatisticsCounter
HAL_DCMIPP_PIPE_DisableISPRawBayer2RGB
HAL_DCMIPP_PIPE_SetISPRawBayer2RGBConfig
HAL_DCMIPP_PIPE_EnableISPRawBayer2RGB
HAL_DCMIPP_PIPE_DisableISPRemovalStatistic
HAL_DCMIPP_PIPE_SetISPRemovalStatisticConfig
HAL_DCMIPP_PIPE_EnableISPRemovalStatistic
HAL_DCMIPP_PIPE_SetISPDecimationConfig
HAL_DCMIPP_PIPE_EnableISPDecimation
HAL_DCMIPP_PIPE_DisableISPCtrlContrast
HAL_DCMIPP_PIPE_SetISPCtrlContrastConfig
HAL_DCMIPP_PIPE_EnableISPCtrlContrast
HAL_DCMIPP_PIPE_SetISPAreaStatisticExtractionConfig
HAL_DCMIPP_PIPE_EnableISPAreaStatisticExtraction
HAL_DCMIPP_PIPE_IsEnabledISPAreaStatisticExtraction
HAL_DCMIPP_PIPE_GetISPAreaStatisticExtractionConfig
HAL_DCMIPP_PIPE_DisableISPBadPixelRemoval
HAL_DCMIPP_PIPE_SetISPBadPixelRemovalConfig
HAL_DCMIPP_PIPE_EnableISPBadPixelRemoval
HAL_DCMIPP_PIPE_IsEnabledISPBadPixelRemoval
HAL_DCMIPP_PIPE_GetISPBadPixelRemovalConfig
HAL_DCMIPP_PIPE_GetISPRemovedBadPixelCounter
HAL_DCMIPP_PIPE_DisableISPBlackLevelCalibration
HAL_DCMIPP_PIPE_SetISPBlackLevelCalibrationConfig
HAL_DCMIPP_PIPE_EnableISPBlackLevelCalibration
HAL_DCMIPP_PIPE_IsEnabledISPBlackLevelCalibration
HAL_DCMIPP_PIPE_GetISPBlackLevelCalibrationConfig
__aeabi_uldivmod
__aeabi_ldivmod
HAL_DCMIPP_PIPE_DisableISPExposure
HAL_DCMIPP_PIPE_SetISPExposureConfig
HAL_DCMIPP_PIPE_EnableISPExposure
HAL_DCMIPP_PIPE_IsEnabledISPExposure
HAL_DCMIPP_PIPE_GetISPExposureConfig
ARM GAS  C:\Users\Antonio\AppData\Local\Temp\ccF6VN3M.s 			page 154


memset
HAL_DCMIPP_PIPE_DisableISPColorConversion
HAL_DCMIPP_PIPE_SetISPColorConversionConfig
HAL_DCMIPP_PIPE_EnableISPColorConversion
HAL_DCMIPP_PIPE_IsEnabledISPColorConversion
HAL_DCMIPP_PIPE_GetISPColorConversionConfig
Meta
HAL_DCMIPP_GetState
HAL_GetDEVID
HAL_GetUIDw0
HAL_GetUIDw1
HAL_GetUIDw2
HAL_DCMIPP_PIPE_IsEnabledGammaConversion
HAL_DCMIPP_PIPE_DisableGammaConversion
HAL_DCMIPP_PIPE_EnableGammaConversion
memcpy
puts
HAL_DCMIPP_PIPE_SetISPStatisticExtractionConfig
HAL_DCMIPP_PIPE_EnableISPStatisticExtraction
