ARM GAS  C:\Users\Antonio\AppData\Local\Temp\ccP00qEn.s 			page 1


   1              		.arch armv8.1-m.main
   2              		.fpu fpv5-d16
   3              		.arch_extension dsp
   4              		.arch_extension fp
   5              		.arch_extension fp.dp
   6              		.arch_extension mve
   7              		.arch_extension mve.fp
   8              		.eabi_attribute 5, "cortex-m55"
   9              		.eabi_attribute 28, 1
  10              		.eabi_attribute 20, 1
  11              		.eabi_attribute 21, 1
  12              		.eabi_attribute 23, 3
  13              		.eabi_attribute 24, 1
  14              		.eabi_attribute 25, 1
  15              		.eabi_attribute 26, 1
  16              		.eabi_attribute 30, 4
  17              		.eabi_attribute 34, 1
  18              		.eabi_attribute 38, 1
  19              		.eabi_attribute 18, 4
  20              		.file	"isp_algo.c"
  21              		.text
  22              	.Ltext0:
  23              		.cfi_sections	.debug_frame
  24              		.file 1 "../../Middlewares/Camera_Middleware/ISP_Library/isp/Src/isp_algo.c"
  25              		.section	.text.ISP_Algo_BadPixel_Init,"ax",%progbits
  26              		.align	1
  27              		.global	ISP_Algo_BadPixel_Init
  28              		.syntax unified
  29              		.thumb
  30              		.thumb_func
  32              	ISP_Algo_BadPixel_Init:
  33              	.LVL0:
  34              	.LFB838:
   1:../../Middlewares/Camera_Middleware/ISP_Library/isp/Src/isp_algo.c **** /**
   2:../../Middlewares/Camera_Middleware/ISP_Library/isp/Src/isp_algo.c ****  ******************************************************************************
   3:../../Middlewares/Camera_Middleware/ISP_Library/isp/Src/isp_algo.c ****  * @file    isp_algo.c
   4:../../Middlewares/Camera_Middleware/ISP_Library/isp/Src/isp_algo.c ****  * @author  AIS Application Team
   5:../../Middlewares/Camera_Middleware/ISP_Library/isp/Src/isp_algo.c ****  * @brief   ISP algorithm
   6:../../Middlewares/Camera_Middleware/ISP_Library/isp/Src/isp_algo.c ****  ******************************************************************************
   7:../../Middlewares/Camera_Middleware/ISP_Library/isp/Src/isp_algo.c ****  * @attention
   8:../../Middlewares/Camera_Middleware/ISP_Library/isp/Src/isp_algo.c ****  *
   9:../../Middlewares/Camera_Middleware/ISP_Library/isp/Src/isp_algo.c ****  * Copyright (c) 2023 STMicroelectronics.
  10:../../Middlewares/Camera_Middleware/ISP_Library/isp/Src/isp_algo.c ****  * All rights reserved.
  11:../../Middlewares/Camera_Middleware/ISP_Library/isp/Src/isp_algo.c ****  *
  12:../../Middlewares/Camera_Middleware/ISP_Library/isp/Src/isp_algo.c ****  * This software is licensed under terms that can be found in the LICENSE file
  13:../../Middlewares/Camera_Middleware/ISP_Library/isp/Src/isp_algo.c ****  * in the root directory of this software component.
  14:../../Middlewares/Camera_Middleware/ISP_Library/isp/Src/isp_algo.c ****  * If no LICENSE file comes with this software, it is provided AS-IS.
  15:../../Middlewares/Camera_Middleware/ISP_Library/isp/Src/isp_algo.c ****  *
  16:../../Middlewares/Camera_Middleware/ISP_Library/isp/Src/isp_algo.c ****  ******************************************************************************
  17:../../Middlewares/Camera_Middleware/ISP_Library/isp/Src/isp_algo.c ****  */
  18:../../Middlewares/Camera_Middleware/ISP_Library/isp/Src/isp_algo.c **** 
  19:../../Middlewares/Camera_Middleware/ISP_Library/isp/Src/isp_algo.c **** /* Includes ------------------------------------------------------------------*/
  20:../../Middlewares/Camera_Middleware/ISP_Library/isp/Src/isp_algo.c **** #include "isp_core.h"
  21:../../Middlewares/Camera_Middleware/ISP_Library/isp/Src/isp_algo.c **** #include "isp_algo.h"
  22:../../Middlewares/Camera_Middleware/ISP_Library/isp/Src/isp_algo.c **** #include "isp_services.h"
  23:../../Middlewares/Camera_Middleware/ISP_Library/isp/Src/isp_algo.c **** #include "evision-api-st-ae.h"
  24:../../Middlewares/Camera_Middleware/ISP_Library/isp/Src/isp_algo.c **** #include "evision-api-awb.h"
ARM GAS  C:\Users\Antonio\AppData\Local\Temp\ccP00qEn.s 			page 2


  25:../../Middlewares/Camera_Middleware/ISP_Library/isp/Src/isp_algo.c **** #include "evision-api-utils.h"
  26:../../Middlewares/Camera_Middleware/ISP_Library/isp/Src/isp_algo.c **** #include <limits.h>
  27:../../Middlewares/Camera_Middleware/ISP_Library/isp/Src/isp_algo.c **** #include <math.h>
  28:../../Middlewares/Camera_Middleware/ISP_Library/isp/Src/isp_algo.c **** 
  29:../../Middlewares/Camera_Middleware/ISP_Library/isp/Src/isp_algo.c **** /* Private types -------------------------------------------------------------*/
  30:../../Middlewares/Camera_Middleware/ISP_Library/isp/Src/isp_algo.c **** /* ISP algorithms identifier */
  31:../../Middlewares/Camera_Middleware/ISP_Library/isp/Src/isp_algo.c **** typedef enum
  32:../../Middlewares/Camera_Middleware/ISP_Library/isp/Src/isp_algo.c **** {
  33:../../Middlewares/Camera_Middleware/ISP_Library/isp/Src/isp_algo.c ****   ISP_ALGO_ID_BADPIXEL = 0U,
  34:../../Middlewares/Camera_Middleware/ISP_Library/isp/Src/isp_algo.c ****   ISP_ALGO_ID_AEC,
  35:../../Middlewares/Camera_Middleware/ISP_Library/isp/Src/isp_algo.c ****   ISP_ALGO_ID_AWB,
  36:../../Middlewares/Camera_Middleware/ISP_Library/isp/Src/isp_algo.c ****   ISP_ALGO_ID_SENSOR_DELAY = 255U,
  37:../../Middlewares/Camera_Middleware/ISP_Library/isp/Src/isp_algo.c **** } ISP_AlgoIDTypeDef;
  38:../../Middlewares/Camera_Middleware/ISP_Library/isp/Src/isp_algo.c **** 
  39:../../Middlewares/Camera_Middleware/ISP_Library/isp/Src/isp_algo.c **** /* Private constants ---------------------------------------------------------*/
  40:../../Middlewares/Camera_Middleware/ISP_Library/isp/Src/isp_algo.c **** /* Delay (in number of VSYNC) between the time an ISP control (e.g. ColorConv)
  41:../../Middlewares/Camera_Middleware/ISP_Library/isp/Src/isp_algo.c ****  * is updated and the time the frame is actually updated. Typical user = AWB algo. */
  42:../../Middlewares/Camera_Middleware/ISP_Library/isp/Src/isp_algo.c **** #define ALGO_ISP_LATENCY                             2
  43:../../Middlewares/Camera_Middleware/ISP_Library/isp/Src/isp_algo.c **** /* Additional delay to let things getting stable after an AWB update */
  44:../../Middlewares/Camera_Middleware/ISP_Library/isp/Src/isp_algo.c **** #define ALGO_AWB_ADDITIONAL_LATENCY                  3
  45:../../Middlewares/Camera_Middleware/ISP_Library/isp/Src/isp_algo.c **** #define ALGO_AWB_STAT_CHECK_SKIP_AFTER_INIT          10
  46:../../Middlewares/Camera_Middleware/ISP_Library/isp/Src/isp_algo.c **** #define ALGO_AWB_STAT_CHECK_SKIP_AFTER_CT_ESTIMATION 4
  47:../../Middlewares/Camera_Middleware/ISP_Library/isp/Src/isp_algo.c **** 
  48:../../Middlewares/Camera_Middleware/ISP_Library/isp/Src/isp_algo.c **** /* Debug logs control */
  49:../../Middlewares/Camera_Middleware/ISP_Library/isp/Src/isp_algo.c **** //#define ALGO_AWB_DBG_LOGS
  50:../../Middlewares/Camera_Middleware/ISP_Library/isp/Src/isp_algo.c **** //#define ALGO_AEC_DBG_LOGS
  51:../../Middlewares/Camera_Middleware/ISP_Library/isp/Src/isp_algo.c **** //#define ALGO_PERF_DBG_LOGS
  52:../../Middlewares/Camera_Middleware/ISP_Library/isp/Src/isp_algo.c **** 
  53:../../Middlewares/Camera_Middleware/ISP_Library/isp/Src/isp_algo.c **** /* Max acceptable sensor delay */
  54:../../Middlewares/Camera_Middleware/ISP_Library/isp/Src/isp_algo.c **** #define ALGO_DELAY_MAX               10
  55:../../Middlewares/Camera_Middleware/ISP_Library/isp/Src/isp_algo.c **** /* Number of delay test configurations */
  56:../../Middlewares/Camera_Middleware/ISP_Library/isp/Src/isp_algo.c **** #define ALGO_DELAY_NB_CONFIG         12
  57:../../Middlewares/Camera_Middleware/ISP_Library/isp/Src/isp_algo.c **** /* Minimum Luminance update during delay test measurements */
  58:../../Middlewares/Camera_Middleware/ISP_Library/isp/Src/isp_algo.c **** #define ALGO_DELAY_L_MARGIN          3
  59:../../Middlewares/Camera_Middleware/ISP_Library/isp/Src/isp_algo.c **** 
  60:../../Middlewares/Camera_Middleware/ISP_Library/isp/Src/isp_algo.c **** /* Private macro -------------------------------------------------------------*/
  61:../../Middlewares/Camera_Middleware/ISP_Library/isp/Src/isp_algo.c **** /* Private function prototypes -----------------------------------------------*/
  62:../../Middlewares/Camera_Middleware/ISP_Library/isp/Src/isp_algo.c **** ISP_StatusTypeDef ISP_Algo_BadPixel_Init(void *hIsp, void *pAlgo);
  63:../../Middlewares/Camera_Middleware/ISP_Library/isp/Src/isp_algo.c **** ISP_StatusTypeDef ISP_Algo_BadPixel_DeInit(void *hIsp, void *pAlgo);
  64:../../Middlewares/Camera_Middleware/ISP_Library/isp/Src/isp_algo.c **** ISP_StatusTypeDef ISP_Algo_BadPixel_Process(void *hIsp, void *pAlgo);
  65:../../Middlewares/Camera_Middleware/ISP_Library/isp/Src/isp_algo.c **** ISP_StatusTypeDef ISP_Algo_AEC_Init(void *hIsp, void *pAlgo);
  66:../../Middlewares/Camera_Middleware/ISP_Library/isp/Src/isp_algo.c **** ISP_StatusTypeDef ISP_Algo_AEC_DeInit(void *hIsp, void *pAlgo);
  67:../../Middlewares/Camera_Middleware/ISP_Library/isp/Src/isp_algo.c **** ISP_StatusTypeDef ISP_Algo_AEC_Process(void *hIsp, void *pAlgo);
  68:../../Middlewares/Camera_Middleware/ISP_Library/isp/Src/isp_algo.c **** ISP_StatusTypeDef ISP_Algo_AWB_Init(void *hIsp, void *pAlgo);
  69:../../Middlewares/Camera_Middleware/ISP_Library/isp/Src/isp_algo.c **** ISP_StatusTypeDef ISP_Algo_AWB_DeInit(void *hIsp, void *pAlgo);
  70:../../Middlewares/Camera_Middleware/ISP_Library/isp/Src/isp_algo.c **** ISP_StatusTypeDef ISP_Algo_AWB_Process(void *hIsp, void *pAlgo);
  71:../../Middlewares/Camera_Middleware/ISP_Library/isp/Src/isp_algo.c **** #ifdef ISP_MW_TUNING_TOOL_SUPPORT
  72:../../Middlewares/Camera_Middleware/ISP_Library/isp/Src/isp_algo.c **** ISP_StatusTypeDef ISP_Algo_SensorDelay_Init(void *hIsp, void *pAlgo);
  73:../../Middlewares/Camera_Middleware/ISP_Library/isp/Src/isp_algo.c **** ISP_StatusTypeDef ISP_Algo_SensorDelay_DeInit(void *hIsp, void *pAlgo);
  74:../../Middlewares/Camera_Middleware/ISP_Library/isp/Src/isp_algo.c **** ISP_StatusTypeDef ISP_Algo_SensorDelay_Process(void *hIsp, void *pAlgo);
  75:../../Middlewares/Camera_Middleware/ISP_Library/isp/Src/isp_algo.c **** #endif
  76:../../Middlewares/Camera_Middleware/ISP_Library/isp/Src/isp_algo.c **** 
  77:../../Middlewares/Camera_Middleware/ISP_Library/isp/Src/isp_algo.c **** /* Private variables ---------------------------------------------------------*/
  78:../../Middlewares/Camera_Middleware/ISP_Library/isp/Src/isp_algo.c **** /* Bad Pixel algorithm handle */
  79:../../Middlewares/Camera_Middleware/ISP_Library/isp/Src/isp_algo.c **** ISP_AlgoTypeDef ISP_Algo_BadPixel = {
  80:../../Middlewares/Camera_Middleware/ISP_Library/isp/Src/isp_algo.c ****     .id = ISP_ALGO_ID_BADPIXEL,
  81:../../Middlewares/Camera_Middleware/ISP_Library/isp/Src/isp_algo.c ****     .Init = ISP_Algo_BadPixel_Init,
ARM GAS  C:\Users\Antonio\AppData\Local\Temp\ccP00qEn.s 			page 3


  82:../../Middlewares/Camera_Middleware/ISP_Library/isp/Src/isp_algo.c ****     .DeInit = ISP_Algo_BadPixel_DeInit,
  83:../../Middlewares/Camera_Middleware/ISP_Library/isp/Src/isp_algo.c ****     .Process = ISP_Algo_BadPixel_Process,
  84:../../Middlewares/Camera_Middleware/ISP_Library/isp/Src/isp_algo.c **** };
  85:../../Middlewares/Camera_Middleware/ISP_Library/isp/Src/isp_algo.c **** 
  86:../../Middlewares/Camera_Middleware/ISP_Library/isp/Src/isp_algo.c **** #ifdef ISP_MW_SW_AEC_ALGO_SUPPORT
  87:../../Middlewares/Camera_Middleware/ISP_Library/isp/Src/isp_algo.c **** /* AEC algorithm handle */
  88:../../Middlewares/Camera_Middleware/ISP_Library/isp/Src/isp_algo.c **** ISP_AlgoTypeDef ISP_Algo_AEC = {
  89:../../Middlewares/Camera_Middleware/ISP_Library/isp/Src/isp_algo.c ****     .id = ISP_ALGO_ID_AEC,
  90:../../Middlewares/Camera_Middleware/ISP_Library/isp/Src/isp_algo.c ****     .Init = ISP_Algo_AEC_Init,
  91:../../Middlewares/Camera_Middleware/ISP_Library/isp/Src/isp_algo.c ****     .DeInit = ISP_Algo_AEC_DeInit,
  92:../../Middlewares/Camera_Middleware/ISP_Library/isp/Src/isp_algo.c ****     .Process = ISP_Algo_AEC_Process,
  93:../../Middlewares/Camera_Middleware/ISP_Library/isp/Src/isp_algo.c **** };
  94:../../Middlewares/Camera_Middleware/ISP_Library/isp/Src/isp_algo.c **** 
  95:../../Middlewares/Camera_Middleware/ISP_Library/isp/Src/isp_algo.c **** /* Default hyper parameter of the AEC algorithm */
  96:../../Middlewares/Camera_Middleware/ISP_Library/isp/Src/isp_algo.c **** #define HYPERPARAM_AEC_TOLERANCE                10      /* Max delta between lum stat and target in
  97:../../Middlewares/Camera_Middleware/ISP_Library/isp/Src/isp_algo.c **** #define HYPERPARAM_AEC_GAIN_INCREMENT_COEFF     100     /* Factor applied to increment gain update 
  98:../../Middlewares/Camera_Middleware/ISP_Library/isp/Src/isp_algo.c **** #define HYPERPARAM_AEC_GAIN_LOW_DELTA           45      /* Max delta value between lum stat and tar
  99:../../Middlewares/Camera_Middleware/ISP_Library/isp/Src/isp_algo.c **** #define HYPERPARAM_AEC_GAIN_HIGH_DELTA          120     /* Min delta value between lum stat and tar
 100:../../Middlewares/Camera_Middleware/ISP_Library/isp/Src/isp_algo.c **** #define HYPERPARAM_AEC_GAIN_LOW_INC_MAX         1500    /* Maximum gain update value in luminance l
 101:../../Middlewares/Camera_Middleware/ISP_Library/isp/Src/isp_algo.c **** #define HYPERPARAM_AEC_GAIN_MEDIUM_INC_MAX      6000    /* Maximum gain update value in luminance m
 102:../../Middlewares/Camera_Middleware/ISP_Library/isp/Src/isp_algo.c **** #define HYPERPARAM_AEC_GAIN_HIGH_INC_MAX        12000   /* Maximum gain update value in luminance h
 103:../../Middlewares/Camera_Middleware/ISP_Library/isp/Src/isp_algo.c **** #define HYPERPARAM_AEC_EXPOSURE_UP_RATIO        0.020F  /* Factor applied to increment exposure */
 104:../../Middlewares/Camera_Middleware/ISP_Library/isp/Src/isp_algo.c **** #define HYPERPARAM_AEC_EXPOSURE_DOWN_RATIO      0.004F  /* Factor applied to decrement exposure */
 105:../../Middlewares/Camera_Middleware/ISP_Library/isp/Src/isp_algo.c **** #define HYPERPARAM_AEC_DARKZONE_LUM_LIMIT       5       /* Default value for dark zone luminance li
 106:../../Middlewares/Camera_Middleware/ISP_Library/isp/Src/isp_algo.c **** #endif /* ISP_MW_SW_AEC_ALGO_SUPPORT */
 107:../../Middlewares/Camera_Middleware/ISP_Library/isp/Src/isp_algo.c **** 
 108:../../Middlewares/Camera_Middleware/ISP_Library/isp/Src/isp_algo.c **** #ifdef ISP_MW_SW_AWB_ALGO_SUPPORT
 109:../../Middlewares/Camera_Middleware/ISP_Library/isp/Src/isp_algo.c **** /* AWB algorithm handle */
 110:../../Middlewares/Camera_Middleware/ISP_Library/isp/Src/isp_algo.c **** ISP_AlgoTypeDef ISP_Algo_AWB = {
 111:../../Middlewares/Camera_Middleware/ISP_Library/isp/Src/isp_algo.c ****     .id = ISP_ALGO_ID_AWB,
 112:../../Middlewares/Camera_Middleware/ISP_Library/isp/Src/isp_algo.c ****     .Init = ISP_Algo_AWB_Init,
 113:../../Middlewares/Camera_Middleware/ISP_Library/isp/Src/isp_algo.c ****     .DeInit = ISP_Algo_AWB_DeInit,
 114:../../Middlewares/Camera_Middleware/ISP_Library/isp/Src/isp_algo.c ****     .Process = ISP_Algo_AWB_Process,
 115:../../Middlewares/Camera_Middleware/ISP_Library/isp/Src/isp_algo.c **** };
 116:../../Middlewares/Camera_Middleware/ISP_Library/isp/Src/isp_algo.c **** #endif /* ISP_MW_SW_AWB_ALGO_SUPPORT */
 117:../../Middlewares/Camera_Middleware/ISP_Library/isp/Src/isp_algo.c **** 
 118:../../Middlewares/Camera_Middleware/ISP_Library/isp/Src/isp_algo.c **** #ifdef ISP_MW_TUNING_TOOL_SUPPORT
 119:../../Middlewares/Camera_Middleware/ISP_Library/isp/Src/isp_algo.c **** /* Sensor Delay measurement algorithm handle */
 120:../../Middlewares/Camera_Middleware/ISP_Library/isp/Src/isp_algo.c **** ISP_AlgoTypeDef ISP_Algo_SensorDelay = {
 121:../../Middlewares/Camera_Middleware/ISP_Library/isp/Src/isp_algo.c ****     .id = ISP_ALGO_ID_SENSOR_DELAY,
 122:../../Middlewares/Camera_Middleware/ISP_Library/isp/Src/isp_algo.c ****     .Init = ISP_Algo_SensorDelay_Init,
 123:../../Middlewares/Camera_Middleware/ISP_Library/isp/Src/isp_algo.c ****     .DeInit = ISP_Algo_SensorDelay_DeInit,
 124:../../Middlewares/Camera_Middleware/ISP_Library/isp/Src/isp_algo.c ****     .Process = ISP_Algo_SensorDelay_Process,
 125:../../Middlewares/Camera_Middleware/ISP_Library/isp/Src/isp_algo.c **** };
 126:../../Middlewares/Camera_Middleware/ISP_Library/isp/Src/isp_algo.c **** #endif
 127:../../Middlewares/Camera_Middleware/ISP_Library/isp/Src/isp_algo.c **** 
 128:../../Middlewares/Camera_Middleware/ISP_Library/isp/Src/isp_algo.c **** #ifdef ALGO_PERF_DBG_LOGS
 129:../../Middlewares/Camera_Middleware/ISP_Library/isp/Src/isp_algo.c **** #define MEAS_ITERATION 10
 130:../../Middlewares/Camera_Middleware/ISP_Library/isp/Src/isp_algo.c **** uint32_t tickstart;
 131:../../Middlewares/Camera_Middleware/ISP_Library/isp/Src/isp_algo.c **** uint32_t duration[MEAS_ITERATION];
 132:../../Middlewares/Camera_Middleware/ISP_Library/isp/Src/isp_algo.c **** uint32_t iter = 0;
 133:../../Middlewares/Camera_Middleware/ISP_Library/isp/Src/isp_algo.c **** #endif
 134:../../Middlewares/Camera_Middleware/ISP_Library/isp/Src/isp_algo.c **** 
 135:../../Middlewares/Camera_Middleware/ISP_Library/isp/Src/isp_algo.c **** /* Registered algorithm list */
 136:../../Middlewares/Camera_Middleware/ISP_Library/isp/Src/isp_algo.c **** ISP_AlgoTypeDef *ISP_Algo_List[] = {
 137:../../Middlewares/Camera_Middleware/ISP_Library/isp/Src/isp_algo.c ****     &ISP_Algo_BadPixel,
 138:../../Middlewares/Camera_Middleware/ISP_Library/isp/Src/isp_algo.c **** #ifdef ISP_MW_SW_AEC_ALGO_SUPPORT
ARM GAS  C:\Users\Antonio\AppData\Local\Temp\ccP00qEn.s 			page 4


 139:../../Middlewares/Camera_Middleware/ISP_Library/isp/Src/isp_algo.c ****     &ISP_Algo_AEC,
 140:../../Middlewares/Camera_Middleware/ISP_Library/isp/Src/isp_algo.c **** #endif /* ISP_MW_SW_AEC_ALGO_SUPPORT */
 141:../../Middlewares/Camera_Middleware/ISP_Library/isp/Src/isp_algo.c **** #ifdef ISP_MW_SW_AWB_ALGO_SUPPORT
 142:../../Middlewares/Camera_Middleware/ISP_Library/isp/Src/isp_algo.c ****     &ISP_Algo_AWB,
 143:../../Middlewares/Camera_Middleware/ISP_Library/isp/Src/isp_algo.c **** #endif /* ISP_MW_SW_AWB_ALGO_SUPPORT */
 144:../../Middlewares/Camera_Middleware/ISP_Library/isp/Src/isp_algo.c **** #ifdef ISP_MW_TUNING_TOOL_SUPPORT
 145:../../Middlewares/Camera_Middleware/ISP_Library/isp/Src/isp_algo.c ****     &ISP_Algo_SensorDelay,
 146:../../Middlewares/Camera_Middleware/ISP_Library/isp/Src/isp_algo.c **** #endif /* ISP_MW_TUNING_TOOL_SUPPORT */
 147:../../Middlewares/Camera_Middleware/ISP_Library/isp/Src/isp_algo.c **** };
 148:../../Middlewares/Camera_Middleware/ISP_Library/isp/Src/isp_algo.c **** 
 149:../../Middlewares/Camera_Middleware/ISP_Library/isp/Src/isp_algo.c **** #ifdef ISP_MW_SW_AEC_ALGO_SUPPORT
 150:../../Middlewares/Camera_Middleware/ISP_Library/isp/Src/isp_algo.c **** /* Algo internal */
 151:../../Middlewares/Camera_Middleware/ISP_Library/isp/Src/isp_algo.c **** static evision_st_ae_process_t *pIspAEprocess;
 152:../../Middlewares/Camera_Middleware/ISP_Library/isp/Src/isp_algo.c **** #endif /* ISP_MW_SW_AEC_ALGO_SUPPORT */
 153:../../Middlewares/Camera_Middleware/ISP_Library/isp/Src/isp_algo.c **** 
 154:../../Middlewares/Camera_Middleware/ISP_Library/isp/Src/isp_algo.c **** #ifdef ISP_MW_SW_AWB_ALGO_SUPPORT
 155:../../Middlewares/Camera_Middleware/ISP_Library/isp/Src/isp_algo.c **** /* Algo internal */
 156:../../Middlewares/Camera_Middleware/ISP_Library/isp/Src/isp_algo.c **** static evision_awb_estimator_t* pIspAWBestimator;
 157:../../Middlewares/Camera_Middleware/ISP_Library/isp/Src/isp_algo.c **** #endif /* ISP_MW_SW_AWB_ALGO_SUPPORT */
 158:../../Middlewares/Camera_Middleware/ISP_Library/isp/Src/isp_algo.c **** 
 159:../../Middlewares/Camera_Middleware/ISP_Library/isp/Src/isp_algo.c **** /* Global variables ----------------------------------------------------------*/
 160:../../Middlewares/Camera_Middleware/ISP_Library/isp/Src/isp_algo.c **** uint32_t current_awb_profId = 0;
 161:../../Middlewares/Camera_Middleware/ISP_Library/isp/Src/isp_algo.c **** ISP_MetaTypeDef Meta = {0};
 162:../../Middlewares/Camera_Middleware/ISP_Library/isp/Src/isp_algo.c **** 
 163:../../Middlewares/Camera_Middleware/ISP_Library/isp/Src/isp_algo.c **** /* Private functions ---------------------------------------------------------*/
 164:../../Middlewares/Camera_Middleware/ISP_Library/isp/Src/isp_algo.c **** /**
 165:../../Middlewares/Camera_Middleware/ISP_Library/isp/Src/isp_algo.c ****   * @brief  ISP_Algo_BadPixel_Init
 166:../../Middlewares/Camera_Middleware/ISP_Library/isp/Src/isp_algo.c ****   *         Initialize the BadPixel algorithm
 167:../../Middlewares/Camera_Middleware/ISP_Library/isp/Src/isp_algo.c ****   * @param  hIsp:  ISP device handle. To cast in (ISP_HandleTypeDef *).
 168:../../Middlewares/Camera_Middleware/ISP_Library/isp/Src/isp_algo.c ****   * @param  pAlgo: ISP algorithm handle. To cast in (ISP_AlgoTypeDef *).
 169:../../Middlewares/Camera_Middleware/ISP_Library/isp/Src/isp_algo.c ****   * @retval operation result
 170:../../Middlewares/Camera_Middleware/ISP_Library/isp/Src/isp_algo.c ****   */
 171:../../Middlewares/Camera_Middleware/ISP_Library/isp/Src/isp_algo.c **** ISP_StatusTypeDef ISP_Algo_BadPixel_Init(void *hIsp, void *pAlgo)
 172:../../Middlewares/Camera_Middleware/ISP_Library/isp/Src/isp_algo.c **** {
  35              		.loc 1 172 1 view -0
  36              		.cfi_startproc
  37              		@ args = 0, pretend = 0, frame = 0
  38              		@ frame_needed = 0, uses_anonymous_args = 0
  39              		@ link register save eliminated.
 173:../../Middlewares/Camera_Middleware/ISP_Library/isp/Src/isp_algo.c ****   (void)hIsp; /* unused */
  40              		.loc 1 173 3 view .LVU1
 174:../../Middlewares/Camera_Middleware/ISP_Library/isp/Src/isp_algo.c **** 
 175:../../Middlewares/Camera_Middleware/ISP_Library/isp/Src/isp_algo.c ****   ((ISP_AlgoTypeDef *)pAlgo)->state = ISP_ALGO_STATE_INIT;
  41              		.loc 1 175 3 view .LVU2
  42              		.loc 1 175 37 is_stmt 0 view .LVU3
  43 0000 0020     		movs	r0, #0
  44              	.LVL1:
  45              		.loc 1 175 37 view .LVU4
  46 0002 4870     		strb	r0, [r1, #1]
 176:../../Middlewares/Camera_Middleware/ISP_Library/isp/Src/isp_algo.c **** 
 177:../../Middlewares/Camera_Middleware/ISP_Library/isp/Src/isp_algo.c ****   return ISP_OK;
  47              		.loc 1 177 3 is_stmt 1 view .LVU5
 178:../../Middlewares/Camera_Middleware/ISP_Library/isp/Src/isp_algo.c **** }
  48              		.loc 1 178 1 is_stmt 0 view .LVU6
  49 0004 7047     		bx	lr
  50              		.cfi_endproc
  51              	.LFE838:
ARM GAS  C:\Users\Antonio\AppData\Local\Temp\ccP00qEn.s 			page 5


  53              		.section	.text.ISP_Algo_BadPixel_DeInit,"ax",%progbits
  54              		.align	1
  55              		.global	ISP_Algo_BadPixel_DeInit
  56              		.syntax unified
  57              		.thumb
  58              		.thumb_func
  60              	ISP_Algo_BadPixel_DeInit:
  61              	.LVL2:
  62              	.LFB839:
 179:../../Middlewares/Camera_Middleware/ISP_Library/isp/Src/isp_algo.c **** 
 180:../../Middlewares/Camera_Middleware/ISP_Library/isp/Src/isp_algo.c **** /**
 181:../../Middlewares/Camera_Middleware/ISP_Library/isp/Src/isp_algo.c ****   * @brief  ISP_Algo_BadPixel_DeInit
 182:../../Middlewares/Camera_Middleware/ISP_Library/isp/Src/isp_algo.c ****   *         Deinitialize the BadPixel algorithm
 183:../../Middlewares/Camera_Middleware/ISP_Library/isp/Src/isp_algo.c ****   * @param  hIsp:  ISP device handle. To cast in (ISP_HandleTypeDef *).
 184:../../Middlewares/Camera_Middleware/ISP_Library/isp/Src/isp_algo.c ****   * @param  pAlgo: ISP algorithm handle. To cast in (ISP_AlgoTypeDef *).
 185:../../Middlewares/Camera_Middleware/ISP_Library/isp/Src/isp_algo.c ****   * @retval operation result
 186:../../Middlewares/Camera_Middleware/ISP_Library/isp/Src/isp_algo.c ****   */
 187:../../Middlewares/Camera_Middleware/ISP_Library/isp/Src/isp_algo.c **** ISP_StatusTypeDef ISP_Algo_BadPixel_DeInit(void *hIsp, void *pAlgo)
 188:../../Middlewares/Camera_Middleware/ISP_Library/isp/Src/isp_algo.c **** {
  63              		.loc 1 188 1 is_stmt 1 view -0
  64              		.cfi_startproc
  65              		@ args = 0, pretend = 0, frame = 0
  66              		@ frame_needed = 0, uses_anonymous_args = 0
  67              		@ link register save eliminated.
 189:../../Middlewares/Camera_Middleware/ISP_Library/isp/Src/isp_algo.c ****   (void)hIsp; /* unused */
  68              		.loc 1 189 3 view .LVU8
 190:../../Middlewares/Camera_Middleware/ISP_Library/isp/Src/isp_algo.c ****   (void)pAlgo; /* unused */
  69              		.loc 1 190 3 view .LVU9
 191:../../Middlewares/Camera_Middleware/ISP_Library/isp/Src/isp_algo.c **** 
 192:../../Middlewares/Camera_Middleware/ISP_Library/isp/Src/isp_algo.c ****   return ISP_OK;
  70              		.loc 1 192 3 view .LVU10
 193:../../Middlewares/Camera_Middleware/ISP_Library/isp/Src/isp_algo.c **** }
  71              		.loc 1 193 1 is_stmt 0 view .LVU11
  72 0000 0020     		movs	r0, #0
  73              	.LVL3:
  74              		.loc 1 193 1 view .LVU12
  75 0002 7047     		bx	lr
  76              		.cfi_endproc
  77              	.LFE839:
  79              		.section	.text.ISP_Algo_AEC_StatCb,"ax",%progbits
  80              		.align	1
  81              		.global	ISP_Algo_AEC_StatCb
  82              		.syntax unified
  83              		.thumb
  84              		.thumb_func
  86              	ISP_Algo_AEC_StatCb:
  87              	.LVL4:
  88              	.LFB844:
 194:../../Middlewares/Camera_Middleware/ISP_Library/isp/Src/isp_algo.c **** 
 195:../../Middlewares/Camera_Middleware/ISP_Library/isp/Src/isp_algo.c **** /**
 196:../../Middlewares/Camera_Middleware/ISP_Library/isp/Src/isp_algo.c ****   * @brief  ISP_Algo_BadPixel_Process
 197:../../Middlewares/Camera_Middleware/ISP_Library/isp/Src/isp_algo.c ****   *         Process the BadPixel algorithm
 198:../../Middlewares/Camera_Middleware/ISP_Library/isp/Src/isp_algo.c ****   * @param  hIsp:  ISP device handle. To cast in (ISP_HandleTypeDef *).
 199:../../Middlewares/Camera_Middleware/ISP_Library/isp/Src/isp_algo.c ****   * @param  pAlgo: ISP algorithm handle. To cast in (ISP_AlgoTypeDef *).
 200:../../Middlewares/Camera_Middleware/ISP_Library/isp/Src/isp_algo.c ****   * @retval operation result
 201:../../Middlewares/Camera_Middleware/ISP_Library/isp/Src/isp_algo.c ****   */
 202:../../Middlewares/Camera_Middleware/ISP_Library/isp/Src/isp_algo.c **** ISP_StatusTypeDef ISP_Algo_BadPixel_Process(void *hIsp, void *pAlgo)
ARM GAS  C:\Users\Antonio\AppData\Local\Temp\ccP00qEn.s 			page 6


 203:../../Middlewares/Camera_Middleware/ISP_Library/isp/Src/isp_algo.c **** {
 204:../../Middlewares/Camera_Middleware/ISP_Library/isp/Src/isp_algo.c ****   (void)hIsp; /* unused */
 205:../../Middlewares/Camera_Middleware/ISP_Library/isp/Src/isp_algo.c ****   (void)pAlgo; /* unused */
 206:../../Middlewares/Camera_Middleware/ISP_Library/isp/Src/isp_algo.c ****   static uint32_t BadPixelCount, LastFrameId;
 207:../../Middlewares/Camera_Middleware/ISP_Library/isp/Src/isp_algo.c ****   static int8_t Step;
 208:../../Middlewares/Camera_Middleware/ISP_Library/isp/Src/isp_algo.c ****   uint32_t CurrentFrameId;
 209:../../Middlewares/Camera_Middleware/ISP_Library/isp/Src/isp_algo.c ****   ISP_BadPixelTypeDef BadPixelConfig;
 210:../../Middlewares/Camera_Middleware/ISP_Library/isp/Src/isp_algo.c ****   ISP_IQParamTypeDef *IQParamConfig;
 211:../../Middlewares/Camera_Middleware/ISP_Library/isp/Src/isp_algo.c ****   ISP_StatusTypeDef ret;
 212:../../Middlewares/Camera_Middleware/ISP_Library/isp/Src/isp_algo.c **** 
 213:../../Middlewares/Camera_Middleware/ISP_Library/isp/Src/isp_algo.c ****   IQParamConfig = ISP_SVC_IQParam_Get(hIsp);
 214:../../Middlewares/Camera_Middleware/ISP_Library/isp/Src/isp_algo.c **** 
 215:../../Middlewares/Camera_Middleware/ISP_Library/isp/Src/isp_algo.c ****   if (IQParamConfig->badPixelAlgo.enable == false)
 216:../../Middlewares/Camera_Middleware/ISP_Library/isp/Src/isp_algo.c ****   {
 217:../../Middlewares/Camera_Middleware/ISP_Library/isp/Src/isp_algo.c ****     return ISP_OK;
 218:../../Middlewares/Camera_Middleware/ISP_Library/isp/Src/isp_algo.c ****   }
 219:../../Middlewares/Camera_Middleware/ISP_Library/isp/Src/isp_algo.c **** 
 220:../../Middlewares/Camera_Middleware/ISP_Library/isp/Src/isp_algo.c ****   /* Wait for a new frame */
 221:../../Middlewares/Camera_Middleware/ISP_Library/isp/Src/isp_algo.c ****   CurrentFrameId = ISP_SVC_Misc_GetMainFrameId(hIsp);
 222:../../Middlewares/Camera_Middleware/ISP_Library/isp/Src/isp_algo.c ****   if (CurrentFrameId == LastFrameId)
 223:../../Middlewares/Camera_Middleware/ISP_Library/isp/Src/isp_algo.c ****   {
 224:../../Middlewares/Camera_Middleware/ISP_Library/isp/Src/isp_algo.c ****     return ISP_OK;
 225:../../Middlewares/Camera_Middleware/ISP_Library/isp/Src/isp_algo.c ****   }
 226:../../Middlewares/Camera_Middleware/ISP_Library/isp/Src/isp_algo.c ****   LastFrameId = CurrentFrameId;
 227:../../Middlewares/Camera_Middleware/ISP_Library/isp/Src/isp_algo.c **** 
 228:../../Middlewares/Camera_Middleware/ISP_Library/isp/Src/isp_algo.c ****   if (Step++ >= 0)
 229:../../Middlewares/Camera_Middleware/ISP_Library/isp/Src/isp_algo.c ****   {
 230:../../Middlewares/Camera_Middleware/ISP_Library/isp/Src/isp_algo.c ****     /* Measure the number of bad pixels */
 231:../../Middlewares/Camera_Middleware/ISP_Library/isp/Src/isp_algo.c ****     ret  = ISP_SVC_ISP_GetBadPixel(hIsp, &BadPixelConfig);
 232:../../Middlewares/Camera_Middleware/ISP_Library/isp/Src/isp_algo.c ****     if (ret != ISP_OK)
 233:../../Middlewares/Camera_Middleware/ISP_Library/isp/Src/isp_algo.c ****     {
 234:../../Middlewares/Camera_Middleware/ISP_Library/isp/Src/isp_algo.c ****       return ret;
 235:../../Middlewares/Camera_Middleware/ISP_Library/isp/Src/isp_algo.c ****     }
 236:../../Middlewares/Camera_Middleware/ISP_Library/isp/Src/isp_algo.c ****     BadPixelCount += BadPixelConfig.count;
 237:../../Middlewares/Camera_Middleware/ISP_Library/isp/Src/isp_algo.c ****   }
 238:../../Middlewares/Camera_Middleware/ISP_Library/isp/Src/isp_algo.c **** 
 239:../../Middlewares/Camera_Middleware/ISP_Library/isp/Src/isp_algo.c ****   if (Step == 10)
 240:../../Middlewares/Camera_Middleware/ISP_Library/isp/Src/isp_algo.c ****   {
 241:../../Middlewares/Camera_Middleware/ISP_Library/isp/Src/isp_algo.c ****     /* All measures done : make an average and compare with threshold */
 242:../../Middlewares/Camera_Middleware/ISP_Library/isp/Src/isp_algo.c ****     BadPixelCount /= 10;
 243:../../Middlewares/Camera_Middleware/ISP_Library/isp/Src/isp_algo.c **** 
 244:../../Middlewares/Camera_Middleware/ISP_Library/isp/Src/isp_algo.c ****     if ((BadPixelCount > IQParamConfig->badPixelAlgo.threshold) && (BadPixelConfig.strength > 0))
 245:../../Middlewares/Camera_Middleware/ISP_Library/isp/Src/isp_algo.c ****     {
 246:../../Middlewares/Camera_Middleware/ISP_Library/isp/Src/isp_algo.c ****       /* Bad pixel is above target : decrease strength */
 247:../../Middlewares/Camera_Middleware/ISP_Library/isp/Src/isp_algo.c ****       BadPixelConfig.strength--;
 248:../../Middlewares/Camera_Middleware/ISP_Library/isp/Src/isp_algo.c ****     }
 249:../../Middlewares/Camera_Middleware/ISP_Library/isp/Src/isp_algo.c ****     else if ((BadPixelCount < IQParamConfig->badPixelAlgo.threshold) && (BadPixelConfig.strength < 
 250:../../Middlewares/Camera_Middleware/ISP_Library/isp/Src/isp_algo.c ****     {
 251:../../Middlewares/Camera_Middleware/ISP_Library/isp/Src/isp_algo.c ****       /* Bad pixel is below target : increase strength. (exclude ISP_BADPIXEL_STRENGTH_MAX which gi
 252:../../Middlewares/Camera_Middleware/ISP_Library/isp/Src/isp_algo.c ****       BadPixelConfig.strength++;
 253:../../Middlewares/Camera_Middleware/ISP_Library/isp/Src/isp_algo.c ****     }
 254:../../Middlewares/Camera_Middleware/ISP_Library/isp/Src/isp_algo.c **** 
 255:../../Middlewares/Camera_Middleware/ISP_Library/isp/Src/isp_algo.c ****     /* Set updated Strength */
 256:../../Middlewares/Camera_Middleware/ISP_Library/isp/Src/isp_algo.c ****     BadPixelConfig.enable = 1;
 257:../../Middlewares/Camera_Middleware/ISP_Library/isp/Src/isp_algo.c ****     ret = ISP_SVC_ISP_SetBadPixel(hIsp, &BadPixelConfig);
 258:../../Middlewares/Camera_Middleware/ISP_Library/isp/Src/isp_algo.c ****     if (ret != ISP_OK)
 259:../../Middlewares/Camera_Middleware/ISP_Library/isp/Src/isp_algo.c ****     {
ARM GAS  C:\Users\Antonio\AppData\Local\Temp\ccP00qEn.s 			page 7


 260:../../Middlewares/Camera_Middleware/ISP_Library/isp/Src/isp_algo.c ****       return ret;
 261:../../Middlewares/Camera_Middleware/ISP_Library/isp/Src/isp_algo.c ****     }
 262:../../Middlewares/Camera_Middleware/ISP_Library/isp/Src/isp_algo.c **** 
 263:../../Middlewares/Camera_Middleware/ISP_Library/isp/Src/isp_algo.c ****     /* Set Step to -1 to wait for an extra frame before a new measurement (the ISP HW needs one fra
 264:../../Middlewares/Camera_Middleware/ISP_Library/isp/Src/isp_algo.c ****     Step = -1;
 265:../../Middlewares/Camera_Middleware/ISP_Library/isp/Src/isp_algo.c ****     BadPixelCount = 0;
 266:../../Middlewares/Camera_Middleware/ISP_Library/isp/Src/isp_algo.c ****   }
 267:../../Middlewares/Camera_Middleware/ISP_Library/isp/Src/isp_algo.c **** 
 268:../../Middlewares/Camera_Middleware/ISP_Library/isp/Src/isp_algo.c ****   return ISP_OK;
 269:../../Middlewares/Camera_Middleware/ISP_Library/isp/Src/isp_algo.c **** }
 270:../../Middlewares/Camera_Middleware/ISP_Library/isp/Src/isp_algo.c **** 
 271:../../Middlewares/Camera_Middleware/ISP_Library/isp/Src/isp_algo.c **** #if defined(ISP_MW_SW_AEC_ALGO_SUPPORT) || defined(ISP_MW_SW_AWB_ALGO_SUPPORT)
 272:../../Middlewares/Camera_Middleware/ISP_Library/isp/Src/isp_algo.c **** static void log_cb(const char *const msg)
 273:../../Middlewares/Camera_Middleware/ISP_Library/isp/Src/isp_algo.c **** {
 274:../../Middlewares/Camera_Middleware/ISP_Library/isp/Src/isp_algo.c ****   printf("%s", msg);
 275:../../Middlewares/Camera_Middleware/ISP_Library/isp/Src/isp_algo.c ****   printf("\r\n");
 276:../../Middlewares/Camera_Middleware/ISP_Library/isp/Src/isp_algo.c **** }
 277:../../Middlewares/Camera_Middleware/ISP_Library/isp/Src/isp_algo.c **** #endif
 278:../../Middlewares/Camera_Middleware/ISP_Library/isp/Src/isp_algo.c **** 
 279:../../Middlewares/Camera_Middleware/ISP_Library/isp/Src/isp_algo.c **** #ifdef ISP_MW_SW_AEC_ALGO_SUPPORT
 280:../../Middlewares/Camera_Middleware/ISP_Library/isp/Src/isp_algo.c **** /**
 281:../../Middlewares/Camera_Middleware/ISP_Library/isp/Src/isp_algo.c ****   * @brief  ISP_Algo_AEC_Init
 282:../../Middlewares/Camera_Middleware/ISP_Library/isp/Src/isp_algo.c ****   *         Initialize the AEC algorithm
 283:../../Middlewares/Camera_Middleware/ISP_Library/isp/Src/isp_algo.c ****   * @param  hIsp:  ISP device handle. To cast in (ISP_HandleTypeDef *).
 284:../../Middlewares/Camera_Middleware/ISP_Library/isp/Src/isp_algo.c ****   * @param  pAlgo: ISP algorithm handle. To cast in (ISP_AlgoTypeDef *).
 285:../../Middlewares/Camera_Middleware/ISP_Library/isp/Src/isp_algo.c ****   * @retval operation result
 286:../../Middlewares/Camera_Middleware/ISP_Library/isp/Src/isp_algo.c ****   */
 287:../../Middlewares/Camera_Middleware/ISP_Library/isp/Src/isp_algo.c **** ISP_StatusTypeDef ISP_Algo_AEC_Init(void *hIsp, void *pAlgo)
 288:../../Middlewares/Camera_Middleware/ISP_Library/isp/Src/isp_algo.c **** {
 289:../../Middlewares/Camera_Middleware/ISP_Library/isp/Src/isp_algo.c ****   ISP_HandleTypeDef *pIsp_handle = (ISP_HandleTypeDef*) hIsp;
 290:../../Middlewares/Camera_Middleware/ISP_Library/isp/Src/isp_algo.c ****   ISP_AlgoTypeDef *algo = (ISP_AlgoTypeDef *)pAlgo;
 291:../../Middlewares/Camera_Middleware/ISP_Library/isp/Src/isp_algo.c ****   ISP_SensorExposureTypeDef exposureConfig;
 292:../../Middlewares/Camera_Middleware/ISP_Library/isp/Src/isp_algo.c ****   ISP_SensorGainTypeDef gainConfig;
 293:../../Middlewares/Camera_Middleware/ISP_Library/isp/Src/isp_algo.c ****   ISP_IQParamTypeDef *IQParamConfig;
 294:../../Middlewares/Camera_Middleware/ISP_Library/isp/Src/isp_algo.c ****   evision_return_t e_ret;
 295:../../Middlewares/Camera_Middleware/ISP_Library/isp/Src/isp_algo.c **** 
 296:../../Middlewares/Camera_Middleware/ISP_Library/isp/Src/isp_algo.c ****   IQParamConfig = ISP_SVC_IQParam_Get(hIsp);
 297:../../Middlewares/Camera_Middleware/ISP_Library/isp/Src/isp_algo.c **** 
 298:../../Middlewares/Camera_Middleware/ISP_Library/isp/Src/isp_algo.c ****   if (IQParamConfig->sensorDelay.delay == 0)
 299:../../Middlewares/Camera_Middleware/ISP_Library/isp/Src/isp_algo.c ****   {
 300:../../Middlewares/Camera_Middleware/ISP_Library/isp/Src/isp_algo.c ****     /* A value of 0 is invalid, it would break the AEC algo */
 301:../../Middlewares/Camera_Middleware/ISP_Library/isp/Src/isp_algo.c ****     IQParamConfig->sensorDelay.delay = 1;
 302:../../Middlewares/Camera_Middleware/ISP_Library/isp/Src/isp_algo.c ****   }
 303:../../Middlewares/Camera_Middleware/ISP_Library/isp/Src/isp_algo.c **** 
 304:../../Middlewares/Camera_Middleware/ISP_Library/isp/Src/isp_algo.c ****   /* Create st_ae_process instance */
 305:../../Middlewares/Camera_Middleware/ISP_Library/isp/Src/isp_algo.c ****   pIspAEprocess = evision_api_st_ae_new(log_cb);
 306:../../Middlewares/Camera_Middleware/ISP_Library/isp/Src/isp_algo.c ****   if (pIspAEprocess == NULL)
 307:../../Middlewares/Camera_Middleware/ISP_Library/isp/Src/isp_algo.c ****   {
 308:../../Middlewares/Camera_Middleware/ISP_Library/isp/Src/isp_algo.c ****     return ISP_ERR_ALGO;
 309:../../Middlewares/Camera_Middleware/ISP_Library/isp/Src/isp_algo.c ****   }
 310:../../Middlewares/Camera_Middleware/ISP_Library/isp/Src/isp_algo.c **** 
 311:../../Middlewares/Camera_Middleware/ISP_Library/isp/Src/isp_algo.c ****   /* Initialize st_ae_process instance */
 312:../../Middlewares/Camera_Middleware/ISP_Library/isp/Src/isp_algo.c ****   e_ret = evision_api_st_ae_init(pIspAEprocess);
 313:../../Middlewares/Camera_Middleware/ISP_Library/isp/Src/isp_algo.c ****   if (e_ret != EVISION_RET_SUCCESS)
 314:../../Middlewares/Camera_Middleware/ISP_Library/isp/Src/isp_algo.c ****   {
 315:../../Middlewares/Camera_Middleware/ISP_Library/isp/Src/isp_algo.c ****     evision_api_st_ae_delete(pIspAEprocess);
 316:../../Middlewares/Camera_Middleware/ISP_Library/isp/Src/isp_algo.c ****     return ISP_ERR_ALGO;
ARM GAS  C:\Users\Antonio\AppData\Local\Temp\ccP00qEn.s 			page 8


 317:../../Middlewares/Camera_Middleware/ISP_Library/isp/Src/isp_algo.c ****   }
 318:../../Middlewares/Camera_Middleware/ISP_Library/isp/Src/isp_algo.c **** 
 319:../../Middlewares/Camera_Middleware/ISP_Library/isp/Src/isp_algo.c ****   /* Configure algo (AEC target and anti-flicker setting) */
 320:../../Middlewares/Camera_Middleware/ISP_Library/isp/Src/isp_algo.c ****   pIspAEprocess->hyper_params.target = IQParamConfig->AECAlgo.exposureTarget;
 321:../../Middlewares/Camera_Middleware/ISP_Library/isp/Src/isp_algo.c ****   pIspAEprocess->hyper_params.compat_freq = IQParamConfig->AECAlgo.antiFlickerFreq;
 322:../../Middlewares/Camera_Middleware/ISP_Library/isp/Src/isp_algo.c **** 
 323:../../Middlewares/Camera_Middleware/ISP_Library/isp/Src/isp_algo.c ****   /* Configure algo (sensor config) */
 324:../../Middlewares/Camera_Middleware/ISP_Library/isp/Src/isp_algo.c ****   pIspAEprocess->hyper_params.exposure_min = pIsp_handle->sensorInfo.exposure_min;
 325:../../Middlewares/Camera_Middleware/ISP_Library/isp/Src/isp_algo.c ****   pIspAEprocess->hyper_params.exposure_max = pIsp_handle->sensorInfo.exposure_max;
 326:../../Middlewares/Camera_Middleware/ISP_Library/isp/Src/isp_algo.c ****   pIspAEprocess->hyper_params.gain_min = pIsp_handle->sensorInfo.gain_min;
 327:../../Middlewares/Camera_Middleware/ISP_Library/isp/Src/isp_algo.c ****   pIspAEprocess->hyper_params.gain_max = pIsp_handle->sensorInfo.gain_max;
 328:../../Middlewares/Camera_Middleware/ISP_Library/isp/Src/isp_algo.c **** 
 329:../../Middlewares/Camera_Middleware/ISP_Library/isp/Src/isp_algo.c ****   /* Force hyper parameters with configuration defined in evision-api-st-ae.h */
 330:../../Middlewares/Camera_Middleware/ISP_Library/isp/Src/isp_algo.c ****   pIspAEprocess->hyper_params.tolerance = HYPERPARAM_AEC_TOLERANCE;
 331:../../Middlewares/Camera_Middleware/ISP_Library/isp/Src/isp_algo.c ****   pIspAEprocess->hyper_params.gain_increment_coeff = HYPERPARAM_AEC_GAIN_INCREMENT_COEFF;
 332:../../Middlewares/Camera_Middleware/ISP_Library/isp/Src/isp_algo.c ****   pIspAEprocess->hyper_params.gain_low_delta = HYPERPARAM_AEC_GAIN_LOW_DELTA;
 333:../../Middlewares/Camera_Middleware/ISP_Library/isp/Src/isp_algo.c ****   pIspAEprocess->hyper_params.gain_high_delta = HYPERPARAM_AEC_GAIN_HIGH_DELTA;
 334:../../Middlewares/Camera_Middleware/ISP_Library/isp/Src/isp_algo.c ****   pIspAEprocess->hyper_params.gain_low_increment_max = HYPERPARAM_AEC_GAIN_LOW_INC_MAX;
 335:../../Middlewares/Camera_Middleware/ISP_Library/isp/Src/isp_algo.c ****   pIspAEprocess->hyper_params.gain_medium_increment_max = HYPERPARAM_AEC_GAIN_MEDIUM_INC_MAX;
 336:../../Middlewares/Camera_Middleware/ISP_Library/isp/Src/isp_algo.c ****   pIspAEprocess->hyper_params.gain_high_increment_max = HYPERPARAM_AEC_GAIN_HIGH_INC_MAX;
 337:../../Middlewares/Camera_Middleware/ISP_Library/isp/Src/isp_algo.c ****   pIspAEprocess->hyper_params.exposure_up_ratio = HYPERPARAM_AEC_EXPOSURE_UP_RATIO;
 338:../../Middlewares/Camera_Middleware/ISP_Library/isp/Src/isp_algo.c ****   pIspAEprocess->hyper_params.exposure_down_ratio = HYPERPARAM_AEC_EXPOSURE_DOWN_RATIO;
 339:../../Middlewares/Camera_Middleware/ISP_Library/isp/Src/isp_algo.c ****   pIspAEprocess->hyper_params.dark_zone_lum_limit = HYPERPARAM_AEC_DARKZONE_LUM_LIMIT;
 340:../../Middlewares/Camera_Middleware/ISP_Library/isp/Src/isp_algo.c **** 
 341:../../Middlewares/Camera_Middleware/ISP_Library/isp/Src/isp_algo.c ****   /* Initialize exposure and gain at min value */
 342:../../Middlewares/Camera_Middleware/ISP_Library/isp/Src/isp_algo.c ****   if (IQParamConfig->AECAlgo.enable == true)
 343:../../Middlewares/Camera_Middleware/ISP_Library/isp/Src/isp_algo.c ****   {
 344:../../Middlewares/Camera_Middleware/ISP_Library/isp/Src/isp_algo.c ****     exposureConfig.exposure = pIsp_handle->sensorInfo.exposure_min;
 345:../../Middlewares/Camera_Middleware/ISP_Library/isp/Src/isp_algo.c ****     gainConfig.gain = pIsp_handle->sensorInfo.gain_min;
 346:../../Middlewares/Camera_Middleware/ISP_Library/isp/Src/isp_algo.c ****     if ((ISP_SVC_Sensor_SetExposure(hIsp, &exposureConfig) != ISP_OK) || (ISP_SVC_Sensor_SetGain(hI
 347:../../Middlewares/Camera_Middleware/ISP_Library/isp/Src/isp_algo.c ****     {
 348:../../Middlewares/Camera_Middleware/ISP_Library/isp/Src/isp_algo.c ****       return ISP_ERR_ALGO;
 349:../../Middlewares/Camera_Middleware/ISP_Library/isp/Src/isp_algo.c ****     }
 350:../../Middlewares/Camera_Middleware/ISP_Library/isp/Src/isp_algo.c ****   }
 351:../../Middlewares/Camera_Middleware/ISP_Library/isp/Src/isp_algo.c **** 
 352:../../Middlewares/Camera_Middleware/ISP_Library/isp/Src/isp_algo.c ****   /* Update State */
 353:../../Middlewares/Camera_Middleware/ISP_Library/isp/Src/isp_algo.c ****   algo->state = ISP_ALGO_STATE_INIT;
 354:../../Middlewares/Camera_Middleware/ISP_Library/isp/Src/isp_algo.c **** 
 355:../../Middlewares/Camera_Middleware/ISP_Library/isp/Src/isp_algo.c ****   return ISP_OK;
 356:../../Middlewares/Camera_Middleware/ISP_Library/isp/Src/isp_algo.c **** }
 357:../../Middlewares/Camera_Middleware/ISP_Library/isp/Src/isp_algo.c **** 
 358:../../Middlewares/Camera_Middleware/ISP_Library/isp/Src/isp_algo.c **** /**
 359:../../Middlewares/Camera_Middleware/ISP_Library/isp/Src/isp_algo.c ****   * @brief  ISP_Algo_AEC_DeInit
 360:../../Middlewares/Camera_Middleware/ISP_Library/isp/Src/isp_algo.c ****   *         Deinitialize the AEC algorithm
 361:../../Middlewares/Camera_Middleware/ISP_Library/isp/Src/isp_algo.c ****   * @param  hIsp:  ISP device handle. To cast in (ISP_HandleTypeDef *).
 362:../../Middlewares/Camera_Middleware/ISP_Library/isp/Src/isp_algo.c ****   * @param  pAlgo: ISP algorithm handle. To cast in (ISP_AlgoTypeDef *).
 363:../../Middlewares/Camera_Middleware/ISP_Library/isp/Src/isp_algo.c ****   * @retval operation result
 364:../../Middlewares/Camera_Middleware/ISP_Library/isp/Src/isp_algo.c ****   */
 365:../../Middlewares/Camera_Middleware/ISP_Library/isp/Src/isp_algo.c **** ISP_StatusTypeDef ISP_Algo_AEC_DeInit(void *hIsp, void *pAlgo)
 366:../../Middlewares/Camera_Middleware/ISP_Library/isp/Src/isp_algo.c **** {
 367:../../Middlewares/Camera_Middleware/ISP_Library/isp/Src/isp_algo.c ****   (void)hIsp; /* unused */
 368:../../Middlewares/Camera_Middleware/ISP_Library/isp/Src/isp_algo.c ****   (void)pAlgo; /* unused */
 369:../../Middlewares/Camera_Middleware/ISP_Library/isp/Src/isp_algo.c **** 
 370:../../Middlewares/Camera_Middleware/ISP_Library/isp/Src/isp_algo.c ****   if (pIspAEprocess != NULL)
 371:../../Middlewares/Camera_Middleware/ISP_Library/isp/Src/isp_algo.c ****   {
 372:../../Middlewares/Camera_Middleware/ISP_Library/isp/Src/isp_algo.c ****     evision_api_st_ae_delete(pIspAEprocess);
 373:../../Middlewares/Camera_Middleware/ISP_Library/isp/Src/isp_algo.c ****   }
ARM GAS  C:\Users\Antonio\AppData\Local\Temp\ccP00qEn.s 			page 9


 374:../../Middlewares/Camera_Middleware/ISP_Library/isp/Src/isp_algo.c ****   return ISP_OK;
 375:../../Middlewares/Camera_Middleware/ISP_Library/isp/Src/isp_algo.c **** }
 376:../../Middlewares/Camera_Middleware/ISP_Library/isp/Src/isp_algo.c **** 
 377:../../Middlewares/Camera_Middleware/ISP_Library/isp/Src/isp_algo.c **** /**
 378:../../Middlewares/Camera_Middleware/ISP_Library/isp/Src/isp_algo.c ****   * @brief  ISP_Algo_AEC_StatCb
 379:../../Middlewares/Camera_Middleware/ISP_Library/isp/Src/isp_algo.c ****   *         Callback informing that statistics are available
 380:../../Middlewares/Camera_Middleware/ISP_Library/isp/Src/isp_algo.c ****   * @param  pAlgo: ISP algorithm handle.
 381:../../Middlewares/Camera_Middleware/ISP_Library/isp/Src/isp_algo.c ****   * @retval operation result
 382:../../Middlewares/Camera_Middleware/ISP_Library/isp/Src/isp_algo.c ****   */
 383:../../Middlewares/Camera_Middleware/ISP_Library/isp/Src/isp_algo.c **** ISP_StatusTypeDef ISP_Algo_AEC_StatCb(ISP_AlgoTypeDef *pAlgo)
 384:../../Middlewares/Camera_Middleware/ISP_Library/isp/Src/isp_algo.c **** {
  89              		.loc 1 384 1 is_stmt 1 view -0
  90              		.cfi_startproc
  91              		@ args = 0, pretend = 0, frame = 0
  92              		@ frame_needed = 0, uses_anonymous_args = 0
  93              		@ link register save eliminated.
 385:../../Middlewares/Camera_Middleware/ISP_Library/isp/Src/isp_algo.c ****   /* Update State */
 386:../../Middlewares/Camera_Middleware/ISP_Library/isp/Src/isp_algo.c ****   pAlgo->state = ISP_ALGO_STATE_STAT_READY;
  94              		.loc 1 386 3 view .LVU14
  95              		.loc 1 386 16 is_stmt 0 view .LVU15
  96 0000 0323     		movs	r3, #3
  97 0002 4370     		strb	r3, [r0, #1]
 387:../../Middlewares/Camera_Middleware/ISP_Library/isp/Src/isp_algo.c **** 
 388:../../Middlewares/Camera_Middleware/ISP_Library/isp/Src/isp_algo.c ****   return ISP_OK;
  98              		.loc 1 388 3 is_stmt 1 view .LVU16
 389:../../Middlewares/Camera_Middleware/ISP_Library/isp/Src/isp_algo.c **** }
  99              		.loc 1 389 1 is_stmt 0 view .LVU17
 100 0004 0020     		movs	r0, #0
 101              	.LVL5:
 102              		.loc 1 389 1 view .LVU18
 103 0006 7047     		bx	lr
 104              		.cfi_endproc
 105              	.LFE844:
 107              		.section	.text.ISP_Algo_AWB_StatCb,"ax",%progbits
 108              		.align	1
 109              		.global	ISP_Algo_AWB_StatCb
 110              		.syntax unified
 111              		.thumb
 112              		.thumb_func
 114              	ISP_Algo_AWB_StatCb:
 115              	.LVL6:
 116              	.LFB851:
 390:../../Middlewares/Camera_Middleware/ISP_Library/isp/Src/isp_algo.c **** 
 391:../../Middlewares/Camera_Middleware/ISP_Library/isp/Src/isp_algo.c **** /**
 392:../../Middlewares/Camera_Middleware/ISP_Library/isp/Src/isp_algo.c ****   * @brief  ISP_Algo_AEC_Process
 393:../../Middlewares/Camera_Middleware/ISP_Library/isp/Src/isp_algo.c ****   *         Process the AEC algorithm. This basic algorithm controls the sensor gain
 394:../../Middlewares/Camera_Middleware/ISP_Library/isp/Src/isp_algo.c ****   *         in order to reach an average luminance of exposureTarget.
 395:../../Middlewares/Camera_Middleware/ISP_Library/isp/Src/isp_algo.c ****   * @param  hIsp:  ISP device handle. To cast in (ISP_HandleTypeDef *).
 396:../../Middlewares/Camera_Middleware/ISP_Library/isp/Src/isp_algo.c ****   * @param  pAlgo: ISP algorithm handle. To cast in (ISP_AlgoTypeDef *).
 397:../../Middlewares/Camera_Middleware/ISP_Library/isp/Src/isp_algo.c ****   * @retval operation result
 398:../../Middlewares/Camera_Middleware/ISP_Library/isp/Src/isp_algo.c ****   */
 399:../../Middlewares/Camera_Middleware/ISP_Library/isp/Src/isp_algo.c **** ISP_StatusTypeDef ISP_Algo_AEC_Process(void *hIsp, void *pAlgo)
 400:../../Middlewares/Camera_Middleware/ISP_Library/isp/Src/isp_algo.c **** {
 401:../../Middlewares/Camera_Middleware/ISP_Library/isp/Src/isp_algo.c ****   static ISP_SVC_StatStateTypeDef stats;
 402:../../Middlewares/Camera_Middleware/ISP_Library/isp/Src/isp_algo.c ****   ISP_AlgoTypeDef *algo = (ISP_AlgoTypeDef *)pAlgo;
 403:../../Middlewares/Camera_Middleware/ISP_Library/isp/Src/isp_algo.c ****   ISP_IQParamTypeDef *IQParamConfig;
 404:../../Middlewares/Camera_Middleware/ISP_Library/isp/Src/isp_algo.c ****   ISP_StatusTypeDef ret = ISP_OK;
ARM GAS  C:\Users\Antonio\AppData\Local\Temp\ccP00qEn.s 			page 10


 405:../../Middlewares/Camera_Middleware/ISP_Library/isp/Src/isp_algo.c ****   ISP_SensorGainTypeDef gainConfig;
 406:../../Middlewares/Camera_Middleware/ISP_Library/isp/Src/isp_algo.c ****   ISP_SensorExposureTypeDef exposureConfig;
 407:../../Middlewares/Camera_Middleware/ISP_Library/isp/Src/isp_algo.c ****   uint32_t avgL;
 408:../../Middlewares/Camera_Middleware/ISP_Library/isp/Src/isp_algo.c **** #ifdef ALGO_AEC_DBG_LOGS
 409:../../Middlewares/Camera_Middleware/ISP_Library/isp/Src/isp_algo.c ****   static uint32_t currentL;
 410:../../Middlewares/Camera_Middleware/ISP_Library/isp/Src/isp_algo.c **** #endif
 411:../../Middlewares/Camera_Middleware/ISP_Library/isp/Src/isp_algo.c ****   evision_return_t e_ret;
 412:../../Middlewares/Camera_Middleware/ISP_Library/isp/Src/isp_algo.c **** 
 413:../../Middlewares/Camera_Middleware/ISP_Library/isp/Src/isp_algo.c ****   IQParamConfig = ISP_SVC_IQParam_Get(hIsp);
 414:../../Middlewares/Camera_Middleware/ISP_Library/isp/Src/isp_algo.c ****   if (IQParamConfig->AECAlgo.enable == false)
 415:../../Middlewares/Camera_Middleware/ISP_Library/isp/Src/isp_algo.c ****   {
 416:../../Middlewares/Camera_Middleware/ISP_Library/isp/Src/isp_algo.c ****     return ISP_OK;
 417:../../Middlewares/Camera_Middleware/ISP_Library/isp/Src/isp_algo.c ****   }
 418:../../Middlewares/Camera_Middleware/ISP_Library/isp/Src/isp_algo.c **** 
 419:../../Middlewares/Camera_Middleware/ISP_Library/isp/Src/isp_algo.c ****   switch(algo->state)
 420:../../Middlewares/Camera_Middleware/ISP_Library/isp/Src/isp_algo.c ****   {
 421:../../Middlewares/Camera_Middleware/ISP_Library/isp/Src/isp_algo.c ****   case ISP_ALGO_STATE_INIT:
 422:../../Middlewares/Camera_Middleware/ISP_Library/isp/Src/isp_algo.c ****   case ISP_ALGO_STATE_NEED_STAT:
 423:../../Middlewares/Camera_Middleware/ISP_Library/isp/Src/isp_algo.c ****     /* Ask for stats */
 424:../../Middlewares/Camera_Middleware/ISP_Library/isp/Src/isp_algo.c ****     ret = ISP_SVC_Stats_GetNext(hIsp, &ISP_Algo_AEC_StatCb, pAlgo, &stats, ISP_STAT_LOC_DOWN,
 425:../../Middlewares/Camera_Middleware/ISP_Library/isp/Src/isp_algo.c ****                                 ISP_STAT_TYPE_AVG, IQParamConfig->sensorDelay.delay);
 426:../../Middlewares/Camera_Middleware/ISP_Library/isp/Src/isp_algo.c ****     if (ret != ISP_OK)
 427:../../Middlewares/Camera_Middleware/ISP_Library/isp/Src/isp_algo.c ****     {
 428:../../Middlewares/Camera_Middleware/ISP_Library/isp/Src/isp_algo.c ****       return ret;
 429:../../Middlewares/Camera_Middleware/ISP_Library/isp/Src/isp_algo.c ****     }
 430:../../Middlewares/Camera_Middleware/ISP_Library/isp/Src/isp_algo.c **** 
 431:../../Middlewares/Camera_Middleware/ISP_Library/isp/Src/isp_algo.c ****     /* Wait for stats to be ready */
 432:../../Middlewares/Camera_Middleware/ISP_Library/isp/Src/isp_algo.c ****     algo->state = ISP_ALGO_STATE_WAITING_STAT;
 433:../../Middlewares/Camera_Middleware/ISP_Library/isp/Src/isp_algo.c ****     break;
 434:../../Middlewares/Camera_Middleware/ISP_Library/isp/Src/isp_algo.c **** 
 435:../../Middlewares/Camera_Middleware/ISP_Library/isp/Src/isp_algo.c ****   case ISP_ALGO_STATE_WAITING_STAT:
 436:../../Middlewares/Camera_Middleware/ISP_Library/isp/Src/isp_algo.c ****     /* Do nothing */
 437:../../Middlewares/Camera_Middleware/ISP_Library/isp/Src/isp_algo.c ****     break;
 438:../../Middlewares/Camera_Middleware/ISP_Library/isp/Src/isp_algo.c **** 
 439:../../Middlewares/Camera_Middleware/ISP_Library/isp/Src/isp_algo.c ****   case ISP_ALGO_STATE_STAT_READY:
 440:../../Middlewares/Camera_Middleware/ISP_Library/isp/Src/isp_algo.c ****     /* Align on the target update (may have been updated with ISP_SetExposureTarget()) */
 441:../../Middlewares/Camera_Middleware/ISP_Library/isp/Src/isp_algo.c ****     pIspAEprocess->hyper_params.target = IQParamConfig->AECAlgo.exposureTarget;
 442:../../Middlewares/Camera_Middleware/ISP_Library/isp/Src/isp_algo.c **** 
 443:../../Middlewares/Camera_Middleware/ISP_Library/isp/Src/isp_algo.c ****     /* Align on the anti-flicker frequency (may have been updated by IQTune)*/
 444:../../Middlewares/Camera_Middleware/ISP_Library/isp/Src/isp_algo.c ****     pIspAEprocess->hyper_params.compat_freq = IQParamConfig->AECAlgo.antiFlickerFreq;
 445:../../Middlewares/Camera_Middleware/ISP_Library/isp/Src/isp_algo.c **** 
 446:../../Middlewares/Camera_Middleware/ISP_Library/isp/Src/isp_algo.c ****     avgL = stats.down.averageL;
 447:../../Middlewares/Camera_Middleware/ISP_Library/isp/Src/isp_algo.c **** #ifdef ALGO_AEC_DBG_LOGS
 448:../../Middlewares/Camera_Middleware/ISP_Library/isp/Src/isp_algo.c ****     if (avgL != currentL)
 449:../../Middlewares/Camera_Middleware/ISP_Library/isp/Src/isp_algo.c ****     {
 450:../../Middlewares/Camera_Middleware/ISP_Library/isp/Src/isp_algo.c ****       printf("L = %ld\r\n", avgL);
 451:../../Middlewares/Camera_Middleware/ISP_Library/isp/Src/isp_algo.c ****       currentL = avgL;
 452:../../Middlewares/Camera_Middleware/ISP_Library/isp/Src/isp_algo.c ****     }
 453:../../Middlewares/Camera_Middleware/ISP_Library/isp/Src/isp_algo.c **** #endif
 454:../../Middlewares/Camera_Middleware/ISP_Library/isp/Src/isp_algo.c ****     /* Read the current sensor gain */
 455:../../Middlewares/Camera_Middleware/ISP_Library/isp/Src/isp_algo.c ****     ret = ISP_SVC_Sensor_GetGain(hIsp, &gainConfig);
 456:../../Middlewares/Camera_Middleware/ISP_Library/isp/Src/isp_algo.c ****     if (ret != ISP_OK)
 457:../../Middlewares/Camera_Middleware/ISP_Library/isp/Src/isp_algo.c ****     {
 458:../../Middlewares/Camera_Middleware/ISP_Library/isp/Src/isp_algo.c ****       return ret;
 459:../../Middlewares/Camera_Middleware/ISP_Library/isp/Src/isp_algo.c ****     }
 460:../../Middlewares/Camera_Middleware/ISP_Library/isp/Src/isp_algo.c **** 
 461:../../Middlewares/Camera_Middleware/ISP_Library/isp/Src/isp_algo.c ****     ret = ISP_SVC_Sensor_GetExposure(hIsp, &exposureConfig);
ARM GAS  C:\Users\Antonio\AppData\Local\Temp\ccP00qEn.s 			page 11


 462:../../Middlewares/Camera_Middleware/ISP_Library/isp/Src/isp_algo.c ****     if (ret != ISP_OK)
 463:../../Middlewares/Camera_Middleware/ISP_Library/isp/Src/isp_algo.c ****     {
 464:../../Middlewares/Camera_Middleware/ISP_Library/isp/Src/isp_algo.c ****       return ret;
 465:../../Middlewares/Camera_Middleware/ISP_Library/isp/Src/isp_algo.c ****     }
 466:../../Middlewares/Camera_Middleware/ISP_Library/isp/Src/isp_algo.c **** 
 467:../../Middlewares/Camera_Middleware/ISP_Library/isp/Src/isp_algo.c ****     /* Store meta data */
 468:../../Middlewares/Camera_Middleware/ISP_Library/isp/Src/isp_algo.c ****     Meta.averageL = avgL;
 469:../../Middlewares/Camera_Middleware/ISP_Library/isp/Src/isp_algo.c ****     Meta.exposureTarget = IQParamConfig->AECAlgo.exposureTarget;
 470:../../Middlewares/Camera_Middleware/ISP_Library/isp/Src/isp_algo.c **** 
 471:../../Middlewares/Camera_Middleware/ISP_Library/isp/Src/isp_algo.c ****     /* Run algo to calculate new gain and exposure */
 472:../../Middlewares/Camera_Middleware/ISP_Library/isp/Src/isp_algo.c ****     e_ret = evision_api_st_ae_process(pIspAEprocess, gainConfig.gain, exposureConfig.exposure, avgL
 473:../../Middlewares/Camera_Middleware/ISP_Library/isp/Src/isp_algo.c ****     if (e_ret == EVISION_RET_SUCCESS)
 474:../../Middlewares/Camera_Middleware/ISP_Library/isp/Src/isp_algo.c ****     {
 475:../../Middlewares/Camera_Middleware/ISP_Library/isp/Src/isp_algo.c ****       if (gainConfig.gain != pIspAEprocess->new_gain)
 476:../../Middlewares/Camera_Middleware/ISP_Library/isp/Src/isp_algo.c ****       {
 477:../../Middlewares/Camera_Middleware/ISP_Library/isp/Src/isp_algo.c ****         /* Set new gain */
 478:../../Middlewares/Camera_Middleware/ISP_Library/isp/Src/isp_algo.c ****         gainConfig.gain = pIspAEprocess->new_gain;
 479:../../Middlewares/Camera_Middleware/ISP_Library/isp/Src/isp_algo.c **** 
 480:../../Middlewares/Camera_Middleware/ISP_Library/isp/Src/isp_algo.c ****         ret = ISP_SVC_Sensor_SetGain(hIsp, &gainConfig);
 481:../../Middlewares/Camera_Middleware/ISP_Library/isp/Src/isp_algo.c ****         if (ret != ISP_OK)
 482:../../Middlewares/Camera_Middleware/ISP_Library/isp/Src/isp_algo.c ****         {
 483:../../Middlewares/Camera_Middleware/ISP_Library/isp/Src/isp_algo.c ****           return ret;
 484:../../Middlewares/Camera_Middleware/ISP_Library/isp/Src/isp_algo.c ****         }
 485:../../Middlewares/Camera_Middleware/ISP_Library/isp/Src/isp_algo.c **** 
 486:../../Middlewares/Camera_Middleware/ISP_Library/isp/Src/isp_algo.c **** #ifdef ALGO_AEC_DBG_LOGS
 487:../../Middlewares/Camera_Middleware/ISP_Library/isp/Src/isp_algo.c ****         printf("New gain = %ld\r\n", gainConfig.gain);
 488:../../Middlewares/Camera_Middleware/ISP_Library/isp/Src/isp_algo.c **** #endif
 489:../../Middlewares/Camera_Middleware/ISP_Library/isp/Src/isp_algo.c ****       }
 490:../../Middlewares/Camera_Middleware/ISP_Library/isp/Src/isp_algo.c **** 
 491:../../Middlewares/Camera_Middleware/ISP_Library/isp/Src/isp_algo.c ****       if (exposureConfig.exposure != pIspAEprocess->new_exposure)
 492:../../Middlewares/Camera_Middleware/ISP_Library/isp/Src/isp_algo.c ****       {
 493:../../Middlewares/Camera_Middleware/ISP_Library/isp/Src/isp_algo.c ****         /* Set new exposure */
 494:../../Middlewares/Camera_Middleware/ISP_Library/isp/Src/isp_algo.c ****         exposureConfig.exposure = pIspAEprocess->new_exposure;
 495:../../Middlewares/Camera_Middleware/ISP_Library/isp/Src/isp_algo.c **** 
 496:../../Middlewares/Camera_Middleware/ISP_Library/isp/Src/isp_algo.c ****         ret = ISP_SVC_Sensor_SetExposure(hIsp, &exposureConfig);
 497:../../Middlewares/Camera_Middleware/ISP_Library/isp/Src/isp_algo.c ****         if (ret != ISP_OK)
 498:../../Middlewares/Camera_Middleware/ISP_Library/isp/Src/isp_algo.c ****         {
 499:../../Middlewares/Camera_Middleware/ISP_Library/isp/Src/isp_algo.c ****           return ret;
 500:../../Middlewares/Camera_Middleware/ISP_Library/isp/Src/isp_algo.c ****         }
 501:../../Middlewares/Camera_Middleware/ISP_Library/isp/Src/isp_algo.c **** 
 502:../../Middlewares/Camera_Middleware/ISP_Library/isp/Src/isp_algo.c **** #ifdef ALGO_AEC_DBG_LOGS
 503:../../Middlewares/Camera_Middleware/ISP_Library/isp/Src/isp_algo.c ****         printf("New exposure = %ld\r\n", exposureConfig.exposure);
 504:../../Middlewares/Camera_Middleware/ISP_Library/isp/Src/isp_algo.c **** #endif
 505:../../Middlewares/Camera_Middleware/ISP_Library/isp/Src/isp_algo.c ****       }
 506:../../Middlewares/Camera_Middleware/ISP_Library/isp/Src/isp_algo.c ****     }
 507:../../Middlewares/Camera_Middleware/ISP_Library/isp/Src/isp_algo.c **** 
 508:../../Middlewares/Camera_Middleware/ISP_Library/isp/Src/isp_algo.c ****     /* Ask for stats */
 509:../../Middlewares/Camera_Middleware/ISP_Library/isp/Src/isp_algo.c ****     ret = ISP_SVC_Stats_GetNext(hIsp, &ISP_Algo_AEC_StatCb, pAlgo, &stats, ISP_STAT_LOC_DOWN,
 510:../../Middlewares/Camera_Middleware/ISP_Library/isp/Src/isp_algo.c ****                                 ISP_STAT_TYPE_AVG, IQParamConfig->sensorDelay.delay);
 511:../../Middlewares/Camera_Middleware/ISP_Library/isp/Src/isp_algo.c **** 
 512:../../Middlewares/Camera_Middleware/ISP_Library/isp/Src/isp_algo.c ****     /* Wait for stats to be ready */
 513:../../Middlewares/Camera_Middleware/ISP_Library/isp/Src/isp_algo.c ****     algo->state = ISP_ALGO_STATE_WAITING_STAT;
 514:../../Middlewares/Camera_Middleware/ISP_Library/isp/Src/isp_algo.c ****     break;
 515:../../Middlewares/Camera_Middleware/ISP_Library/isp/Src/isp_algo.c ****   }
 516:../../Middlewares/Camera_Middleware/ISP_Library/isp/Src/isp_algo.c **** 
 517:../../Middlewares/Camera_Middleware/ISP_Library/isp/Src/isp_algo.c ****   return ret;
 518:../../Middlewares/Camera_Middleware/ISP_Library/isp/Src/isp_algo.c **** }
ARM GAS  C:\Users\Antonio\AppData\Local\Temp\ccP00qEn.s 			page 12


 519:../../Middlewares/Camera_Middleware/ISP_Library/isp/Src/isp_algo.c **** #endif /* ISP_MW_SW_AEC_ALGO_SUPPORT */
 520:../../Middlewares/Camera_Middleware/ISP_Library/isp/Src/isp_algo.c **** 
 521:../../Middlewares/Camera_Middleware/ISP_Library/isp/Src/isp_algo.c **** #ifdef ISP_MW_SW_AWB_ALGO_SUPPORT
 522:../../Middlewares/Camera_Middleware/ISP_Library/isp/Src/isp_algo.c **** /**
 523:../../Middlewares/Camera_Middleware/ISP_Library/isp/Src/isp_algo.c ****   * @brief  ISP_Algo_ApplyGammaInverse
 524:../../Middlewares/Camera_Middleware/ISP_Library/isp/Src/isp_algo.c ****   *         Apply Gamma 1/2.2 correction to a component value
 525:../../Middlewares/Camera_Middleware/ISP_Library/isp/Src/isp_algo.c ****   * @param  hIsp:  ISP device handle.
 526:../../Middlewares/Camera_Middleware/ISP_Library/isp/Src/isp_algo.c ****   * @param  comp: component value
 527:../../Middlewares/Camera_Middleware/ISP_Library/isp/Src/isp_algo.c ****   * @retval gamma corrected value
 528:../../Middlewares/Camera_Middleware/ISP_Library/isp/Src/isp_algo.c ****   */
 529:../../Middlewares/Camera_Middleware/ISP_Library/isp/Src/isp_algo.c **** double ISP_Algo_ApplyGammaInverse(ISP_HandleTypeDef *hIsp, uint32_t comp)
 530:../../Middlewares/Camera_Middleware/ISP_Library/isp/Src/isp_algo.c **** {
 531:../../Middlewares/Camera_Middleware/ISP_Library/isp/Src/isp_algo.c ****   double out;
 532:../../Middlewares/Camera_Middleware/ISP_Library/isp/Src/isp_algo.c **** 
 533:../../Middlewares/Camera_Middleware/ISP_Library/isp/Src/isp_algo.c ****   /* Check if gamma is enabled */
 534:../../Middlewares/Camera_Middleware/ISP_Library/isp/Src/isp_algo.c ****   if (ISP_SVC_Misc_IsGammaEnabled(hIsp, 1 /*main pipe*/) != 0) {
 535:../../Middlewares/Camera_Middleware/ISP_Library/isp/Src/isp_algo.c ****     out = 255 * pow((float)comp / 255, 1.0 / 2.2);
 536:../../Middlewares/Camera_Middleware/ISP_Library/isp/Src/isp_algo.c ****   }
 537:../../Middlewares/Camera_Middleware/ISP_Library/isp/Src/isp_algo.c ****   else
 538:../../Middlewares/Camera_Middleware/ISP_Library/isp/Src/isp_algo.c ****   {
 539:../../Middlewares/Camera_Middleware/ISP_Library/isp/Src/isp_algo.c ****     out = (double) comp;
 540:../../Middlewares/Camera_Middleware/ISP_Library/isp/Src/isp_algo.c ****   }
 541:../../Middlewares/Camera_Middleware/ISP_Library/isp/Src/isp_algo.c ****   return out;
 542:../../Middlewares/Camera_Middleware/ISP_Library/isp/Src/isp_algo.c **** }
 543:../../Middlewares/Camera_Middleware/ISP_Library/isp/Src/isp_algo.c **** 
 544:../../Middlewares/Camera_Middleware/ISP_Library/isp/Src/isp_algo.c **** /**
 545:../../Middlewares/Camera_Middleware/ISP_Library/isp/Src/isp_algo.c ****   * @brief  ISP_Algo_GetUpStat
 546:../../Middlewares/Camera_Middleware/ISP_Library/isp/Src/isp_algo.c ****   *         Recalculate average up statistics from collected down statistics
 547:../../Middlewares/Camera_Middleware/ISP_Library/isp/Src/isp_algo.c ****   * @param  hIsp:  ISP device handle.
 548:../../Middlewares/Camera_Middleware/ISP_Library/isp/Src/isp_algo.c ****   * @param  pStats: pointer to the statistics
 549:../../Middlewares/Camera_Middleware/ISP_Library/isp/Src/isp_algo.c ****   */
 550:../../Middlewares/Camera_Middleware/ISP_Library/isp/Src/isp_algo.c **** void ISP_Algo_GetUpStat(ISP_HandleTypeDef *hIsp, ISP_SVC_StatStateTypeDef *pStats)
 551:../../Middlewares/Camera_Middleware/ISP_Library/isp/Src/isp_algo.c **** {
 552:../../Middlewares/Camera_Middleware/ISP_Library/isp/Src/isp_algo.c ****   ISP_ISPGainTypeDef ISPGain;
 553:../../Middlewares/Camera_Middleware/ISP_Library/isp/Src/isp_algo.c ****   ISP_BlackLevelTypeDef BlackLevel;
 554:../../Middlewares/Camera_Middleware/ISP_Library/isp/Src/isp_algo.c ****   int64_t upR, upG, upB;
 555:../../Middlewares/Camera_Middleware/ISP_Library/isp/Src/isp_algo.c **** 
 556:../../Middlewares/Camera_Middleware/ISP_Library/isp/Src/isp_algo.c ****   if ((ISP_SVC_ISP_GetGain(hIsp, &ISPGain) == ISP_OK) && (ISPGain.enable == 1))
 557:../../Middlewares/Camera_Middleware/ISP_Library/isp/Src/isp_algo.c ****   {
 558:../../Middlewares/Camera_Middleware/ISP_Library/isp/Src/isp_algo.c **** 
 559:../../Middlewares/Camera_Middleware/ISP_Library/isp/Src/isp_algo.c ****     /* reverse gain */
 560:../../Middlewares/Camera_Middleware/ISP_Library/isp/Src/isp_algo.c ****     upR = (int64_t) pStats->down.averageR * ISP_GAIN_PRECISION_FACTOR / ISPGain.ispGainR;
 561:../../Middlewares/Camera_Middleware/ISP_Library/isp/Src/isp_algo.c ****     upG = (int64_t) pStats->down.averageG * ISP_GAIN_PRECISION_FACTOR / ISPGain.ispGainG;
 562:../../Middlewares/Camera_Middleware/ISP_Library/isp/Src/isp_algo.c ****     upB = (int64_t) pStats->down.averageB * ISP_GAIN_PRECISION_FACTOR / ISPGain.ispGainB;
 563:../../Middlewares/Camera_Middleware/ISP_Library/isp/Src/isp_algo.c **** 
 564:../../Middlewares/Camera_Middleware/ISP_Library/isp/Src/isp_algo.c ****     pStats->up.averageR = (uint32_t) upR;
 565:../../Middlewares/Camera_Middleware/ISP_Library/isp/Src/isp_algo.c ****     pStats->up.averageG = (uint32_t) upG;
 566:../../Middlewares/Camera_Middleware/ISP_Library/isp/Src/isp_algo.c ****     pStats->up.averageB = (uint32_t) upB;
 567:../../Middlewares/Camera_Middleware/ISP_Library/isp/Src/isp_algo.c **** 
 568:../../Middlewares/Camera_Middleware/ISP_Library/isp/Src/isp_algo.c ****     if ((ISP_SVC_ISP_GetBlackLevel(hIsp, &BlackLevel) == ISP_OK) && (BlackLevel.enable == 1))
 569:../../Middlewares/Camera_Middleware/ISP_Library/isp/Src/isp_algo.c ****     {
 570:../../Middlewares/Camera_Middleware/ISP_Library/isp/Src/isp_algo.c ****         /* reverse black level */
 571:../../Middlewares/Camera_Middleware/ISP_Library/isp/Src/isp_algo.c ****     pStats->up.averageR += BlackLevel.BLCR;
 572:../../Middlewares/Camera_Middleware/ISP_Library/isp/Src/isp_algo.c ****     pStats->up.averageG += BlackLevel.BLCG;
 573:../../Middlewares/Camera_Middleware/ISP_Library/isp/Src/isp_algo.c ****     pStats->up.averageB += BlackLevel.BLCB;
 574:../../Middlewares/Camera_Middleware/ISP_Library/isp/Src/isp_algo.c ****     }
 575:../../Middlewares/Camera_Middleware/ISP_Library/isp/Src/isp_algo.c ****   }
ARM GAS  C:\Users\Antonio\AppData\Local\Temp\ccP00qEn.s 			page 13


 576:../../Middlewares/Camera_Middleware/ISP_Library/isp/Src/isp_algo.c ****   else
 577:../../Middlewares/Camera_Middleware/ISP_Library/isp/Src/isp_algo.c ****   {
 578:../../Middlewares/Camera_Middleware/ISP_Library/isp/Src/isp_algo.c ****     pStats->up.averageR = pStats->down.averageR;
 579:../../Middlewares/Camera_Middleware/ISP_Library/isp/Src/isp_algo.c ****     pStats->up.averageG = pStats->down.averageG;
 580:../../Middlewares/Camera_Middleware/ISP_Library/isp/Src/isp_algo.c ****     pStats->up.averageB = pStats->down.averageB;
 581:../../Middlewares/Camera_Middleware/ISP_Library/isp/Src/isp_algo.c ****   }
 582:../../Middlewares/Camera_Middleware/ISP_Library/isp/Src/isp_algo.c **** }
 583:../../Middlewares/Camera_Middleware/ISP_Library/isp/Src/isp_algo.c **** 
 584:../../Middlewares/Camera_Middleware/ISP_Library/isp/Src/isp_algo.c **** /**
 585:../../Middlewares/Camera_Middleware/ISP_Library/isp/Src/isp_algo.c ****   * @brief  ISP_Algo_ApplyCConv
 586:../../Middlewares/Camera_Middleware/ISP_Library/isp/Src/isp_algo.c ****   *         Apply Color Conversion matrix to RGB components, clamping output values to [0-255]
 587:../../Middlewares/Camera_Middleware/ISP_Library/isp/Src/isp_algo.c ****   * @param  hIsp:  ISP device handle.
 588:../../Middlewares/Camera_Middleware/ISP_Library/isp/Src/isp_algo.c ****   * @param  inR: Red component value
 589:../../Middlewares/Camera_Middleware/ISP_Library/isp/Src/isp_algo.c ****   * @param  inG: Green component value
 590:../../Middlewares/Camera_Middleware/ISP_Library/isp/Src/isp_algo.c ****   * @param  inB: Blue component value
 591:../../Middlewares/Camera_Middleware/ISP_Library/isp/Src/isp_algo.c ****   * @param  outR: pointer to Red component value after color conversion
 592:../../Middlewares/Camera_Middleware/ISP_Library/isp/Src/isp_algo.c ****   * @param  outG: pointer to Green component value after color conversion
 593:../../Middlewares/Camera_Middleware/ISP_Library/isp/Src/isp_algo.c ****   * @param  outB: pointer to Blue component value after color conversion
 594:../../Middlewares/Camera_Middleware/ISP_Library/isp/Src/isp_algo.c ****   * @retval None
 595:../../Middlewares/Camera_Middleware/ISP_Library/isp/Src/isp_algo.c ****   */
 596:../../Middlewares/Camera_Middleware/ISP_Library/isp/Src/isp_algo.c **** void ISP_Algo_ApplyCConv(ISP_HandleTypeDef *hIsp, uint32_t inR, uint32_t inG, uint32_t inB, uint32_
 597:../../Middlewares/Camera_Middleware/ISP_Library/isp/Src/isp_algo.c **** {
 598:../../Middlewares/Camera_Middleware/ISP_Library/isp/Src/isp_algo.c ****   ISP_ColorConvTypeDef colorConv;
 599:../../Middlewares/Camera_Middleware/ISP_Library/isp/Src/isp_algo.c ****   int64_t ccR, ccG, ccB;
 600:../../Middlewares/Camera_Middleware/ISP_Library/isp/Src/isp_algo.c **** 
 601:../../Middlewares/Camera_Middleware/ISP_Library/isp/Src/isp_algo.c ****   if ((ISP_SVC_ISP_GetColorConv(hIsp, &colorConv) == ISP_OK) && (colorConv.enable == 1))
 602:../../Middlewares/Camera_Middleware/ISP_Library/isp/Src/isp_algo.c ****   {
 603:../../Middlewares/Camera_Middleware/ISP_Library/isp/Src/isp_algo.c ****     /* Apply ColorConversion matrix to the input components */
 604:../../Middlewares/Camera_Middleware/ISP_Library/isp/Src/isp_algo.c ****     ccR = (int64_t) inR * colorConv.coeff[0][0] + (int64_t) inG * colorConv.coeff[0][1] + (int64_t)
 605:../../Middlewares/Camera_Middleware/ISP_Library/isp/Src/isp_algo.c ****     ccG = (int64_t) inR * colorConv.coeff[1][0] + (int64_t) inG * colorConv.coeff[1][1] + (int64_t)
 606:../../Middlewares/Camera_Middleware/ISP_Library/isp/Src/isp_algo.c ****     ccB = (int64_t) inR * colorConv.coeff[2][0] + (int64_t) inG * colorConv.coeff[2][1] + (int64_t)
 607:../../Middlewares/Camera_Middleware/ISP_Library/isp/Src/isp_algo.c **** 
 608:../../Middlewares/Camera_Middleware/ISP_Library/isp/Src/isp_algo.c ****     ccR /= ISP_CCM_PRECISION_FACTOR;
 609:../../Middlewares/Camera_Middleware/ISP_Library/isp/Src/isp_algo.c ****     ccG /= ISP_CCM_PRECISION_FACTOR;
 610:../../Middlewares/Camera_Middleware/ISP_Library/isp/Src/isp_algo.c ****     ccB /= ISP_CCM_PRECISION_FACTOR;
 611:../../Middlewares/Camera_Middleware/ISP_Library/isp/Src/isp_algo.c **** 
 612:../../Middlewares/Camera_Middleware/ISP_Library/isp/Src/isp_algo.c ****     /* Clamp values to 0-255 */
 613:../../Middlewares/Camera_Middleware/ISP_Library/isp/Src/isp_algo.c ****     ccR = (ccR < 0) ? 0 : (ccR > 255) ? 255 : ccR;
 614:../../Middlewares/Camera_Middleware/ISP_Library/isp/Src/isp_algo.c ****     ccG = (ccG < 0) ? 0 : (ccG > 255) ? 255 : ccG;
 615:../../Middlewares/Camera_Middleware/ISP_Library/isp/Src/isp_algo.c ****     ccB = (ccB < 0) ? 0 : (ccB > 255) ? 255 : ccB;
 616:../../Middlewares/Camera_Middleware/ISP_Library/isp/Src/isp_algo.c **** 
 617:../../Middlewares/Camera_Middleware/ISP_Library/isp/Src/isp_algo.c ****     *outR = (uint32_t) ccR;
 618:../../Middlewares/Camera_Middleware/ISP_Library/isp/Src/isp_algo.c ****     *outG = (uint32_t) ccG;
 619:../../Middlewares/Camera_Middleware/ISP_Library/isp/Src/isp_algo.c ****     *outB = (uint32_t) ccB;
 620:../../Middlewares/Camera_Middleware/ISP_Library/isp/Src/isp_algo.c ****   }
 621:../../Middlewares/Camera_Middleware/ISP_Library/isp/Src/isp_algo.c ****   else
 622:../../Middlewares/Camera_Middleware/ISP_Library/isp/Src/isp_algo.c ****   {
 623:../../Middlewares/Camera_Middleware/ISP_Library/isp/Src/isp_algo.c ****     *outR = inR;
 624:../../Middlewares/Camera_Middleware/ISP_Library/isp/Src/isp_algo.c ****     *outG = inG;
 625:../../Middlewares/Camera_Middleware/ISP_Library/isp/Src/isp_algo.c ****     *outB = inB;
 626:../../Middlewares/Camera_Middleware/ISP_Library/isp/Src/isp_algo.c ****   }
 627:../../Middlewares/Camera_Middleware/ISP_Library/isp/Src/isp_algo.c **** }
 628:../../Middlewares/Camera_Middleware/ISP_Library/isp/Src/isp_algo.c **** 
 629:../../Middlewares/Camera_Middleware/ISP_Library/isp/Src/isp_algo.c **** /**
 630:../../Middlewares/Camera_Middleware/ISP_Library/isp/Src/isp_algo.c ****   * @brief  ISP_Algo_AWB_Init
 631:../../Middlewares/Camera_Middleware/ISP_Library/isp/Src/isp_algo.c ****   *         Initialize the AWB algorithm
 632:../../Middlewares/Camera_Middleware/ISP_Library/isp/Src/isp_algo.c ****   * @param  hIsp:  ISP device handle. To cast in (ISP_HandleTypeDef *).
ARM GAS  C:\Users\Antonio\AppData\Local\Temp\ccP00qEn.s 			page 14


 633:../../Middlewares/Camera_Middleware/ISP_Library/isp/Src/isp_algo.c ****   * @param  pAlgo: ISP algorithm handle. To cast in (ISP_AlgoTypeDef *).
 634:../../Middlewares/Camera_Middleware/ISP_Library/isp/Src/isp_algo.c ****   * @retval operation result
 635:../../Middlewares/Camera_Middleware/ISP_Library/isp/Src/isp_algo.c ****   */
 636:../../Middlewares/Camera_Middleware/ISP_Library/isp/Src/isp_algo.c **** ISP_StatusTypeDef ISP_Algo_AWB_Init(void *hIsp, void *pAlgo)
 637:../../Middlewares/Camera_Middleware/ISP_Library/isp/Src/isp_algo.c **** {
 638:../../Middlewares/Camera_Middleware/ISP_Library/isp/Src/isp_algo.c ****   (void)hIsp; /* unused */
 639:../../Middlewares/Camera_Middleware/ISP_Library/isp/Src/isp_algo.c ****   ISP_AlgoTypeDef *algo = (ISP_AlgoTypeDef *)pAlgo;
 640:../../Middlewares/Camera_Middleware/ISP_Library/isp/Src/isp_algo.c **** 
 641:../../Middlewares/Camera_Middleware/ISP_Library/isp/Src/isp_algo.c ****   /* Create estimator */
 642:../../Middlewares/Camera_Middleware/ISP_Library/isp/Src/isp_algo.c ****   pIspAWBestimator = evision_api_awb_new(log_cb);
 643:../../Middlewares/Camera_Middleware/ISP_Library/isp/Src/isp_algo.c ****   if (pIspAWBestimator == NULL)
 644:../../Middlewares/Camera_Middleware/ISP_Library/isp/Src/isp_algo.c ****   {
 645:../../Middlewares/Camera_Middleware/ISP_Library/isp/Src/isp_algo.c ****     return ISP_ERR_ALGO;
 646:../../Middlewares/Camera_Middleware/ISP_Library/isp/Src/isp_algo.c ****   }
 647:../../Middlewares/Camera_Middleware/ISP_Library/isp/Src/isp_algo.c **** 
 648:../../Middlewares/Camera_Middleware/ISP_Library/isp/Src/isp_algo.c ****   /* Continue the initialization in ISP_Algo_AWB_Process() function when state is ISP_ALGO_STATE_IN
 649:../../Middlewares/Camera_Middleware/ISP_Library/isp/Src/isp_algo.c ****    * This allows to read the IQ params after an algo stop/start cycle */
 650:../../Middlewares/Camera_Middleware/ISP_Library/isp/Src/isp_algo.c ****   algo->state = ISP_ALGO_STATE_INIT;
 651:../../Middlewares/Camera_Middleware/ISP_Library/isp/Src/isp_algo.c **** 
 652:../../Middlewares/Camera_Middleware/ISP_Library/isp/Src/isp_algo.c ****   return ISP_OK;
 653:../../Middlewares/Camera_Middleware/ISP_Library/isp/Src/isp_algo.c **** }
 654:../../Middlewares/Camera_Middleware/ISP_Library/isp/Src/isp_algo.c **** 
 655:../../Middlewares/Camera_Middleware/ISP_Library/isp/Src/isp_algo.c **** /**
 656:../../Middlewares/Camera_Middleware/ISP_Library/isp/Src/isp_algo.c ****   * @brief  ISP_Algo_AWB_DeInit
 657:../../Middlewares/Camera_Middleware/ISP_Library/isp/Src/isp_algo.c ****   *         Deinitialize the AWB algorithm
 658:../../Middlewares/Camera_Middleware/ISP_Library/isp/Src/isp_algo.c ****   * @param  hIsp:  ISP device handle. To cast in (ISP_HandleTypeDef *).
 659:../../Middlewares/Camera_Middleware/ISP_Library/isp/Src/isp_algo.c ****   * @param  pAlgo: ISP algorithm handle. To cast in (ISP_AlgoTypeDef *).
 660:../../Middlewares/Camera_Middleware/ISP_Library/isp/Src/isp_algo.c ****   * @retval operation result
 661:../../Middlewares/Camera_Middleware/ISP_Library/isp/Src/isp_algo.c ****   */
 662:../../Middlewares/Camera_Middleware/ISP_Library/isp/Src/isp_algo.c **** ISP_StatusTypeDef ISP_Algo_AWB_DeInit(void *hIsp, void *pAlgo)
 663:../../Middlewares/Camera_Middleware/ISP_Library/isp/Src/isp_algo.c **** {
 664:../../Middlewares/Camera_Middleware/ISP_Library/isp/Src/isp_algo.c ****   (void)hIsp; /* unused */
 665:../../Middlewares/Camera_Middleware/ISP_Library/isp/Src/isp_algo.c ****   (void)pAlgo; /* unused */
 666:../../Middlewares/Camera_Middleware/ISP_Library/isp/Src/isp_algo.c **** 
 667:../../Middlewares/Camera_Middleware/ISP_Library/isp/Src/isp_algo.c ****   if (pIspAWBestimator != NULL)
 668:../../Middlewares/Camera_Middleware/ISP_Library/isp/Src/isp_algo.c ****   {
 669:../../Middlewares/Camera_Middleware/ISP_Library/isp/Src/isp_algo.c ****     evision_api_awb_delete(pIspAWBestimator);
 670:../../Middlewares/Camera_Middleware/ISP_Library/isp/Src/isp_algo.c ****   }
 671:../../Middlewares/Camera_Middleware/ISP_Library/isp/Src/isp_algo.c **** 
 672:../../Middlewares/Camera_Middleware/ISP_Library/isp/Src/isp_algo.c ****   return ISP_OK;
 673:../../Middlewares/Camera_Middleware/ISP_Library/isp/Src/isp_algo.c **** }
 674:../../Middlewares/Camera_Middleware/ISP_Library/isp/Src/isp_algo.c **** 
 675:../../Middlewares/Camera_Middleware/ISP_Library/isp/Src/isp_algo.c **** /**
 676:../../Middlewares/Camera_Middleware/ISP_Library/isp/Src/isp_algo.c ****   * @brief  ISP_Algo_AWB_StatCb
 677:../../Middlewares/Camera_Middleware/ISP_Library/isp/Src/isp_algo.c ****   *         Callback informing that statistics are available
 678:../../Middlewares/Camera_Middleware/ISP_Library/isp/Src/isp_algo.c ****   * @param  pAlgo: ISP algorithm handle.
 679:../../Middlewares/Camera_Middleware/ISP_Library/isp/Src/isp_algo.c ****   * @retval operation result
 680:../../Middlewares/Camera_Middleware/ISP_Library/isp/Src/isp_algo.c ****   */
 681:../../Middlewares/Camera_Middleware/ISP_Library/isp/Src/isp_algo.c **** ISP_StatusTypeDef ISP_Algo_AWB_StatCb(ISP_AlgoTypeDef *pAlgo)
 682:../../Middlewares/Camera_Middleware/ISP_Library/isp/Src/isp_algo.c **** {
 117              		.loc 1 682 1 is_stmt 1 view -0
 118              		.cfi_startproc
 119              		@ args = 0, pretend = 0, frame = 0
 120              		@ frame_needed = 0, uses_anonymous_args = 0
 121              		@ link register save eliminated.
 683:../../Middlewares/Camera_Middleware/ISP_Library/isp/Src/isp_algo.c ****   /* Update State */
 684:../../Middlewares/Camera_Middleware/ISP_Library/isp/Src/isp_algo.c ****   if (pAlgo->state != ISP_ALGO_STATE_INIT)
ARM GAS  C:\Users\Antonio\AppData\Local\Temp\ccP00qEn.s 			page 15


 122              		.loc 1 684 3 view .LVU20
 123              		.loc 1 684 6 is_stmt 0 view .LVU21
 124 0000 4378     		ldrb	r3, [r0, #1]	@ zero_extendqisi2
 125 0002 0BB1     		cbz	r3, .L5
 685:../../Middlewares/Camera_Middleware/ISP_Library/isp/Src/isp_algo.c ****   {
 686:../../Middlewares/Camera_Middleware/ISP_Library/isp/Src/isp_algo.c ****     pAlgo->state = ISP_ALGO_STATE_STAT_READY;
 126              		.loc 1 686 5 is_stmt 1 view .LVU22
 127              		.loc 1 686 18 is_stmt 0 view .LVU23
 128 0004 0323     		movs	r3, #3
 129 0006 4370     		strb	r3, [r0, #1]
 130              	.L5:
 687:../../Middlewares/Camera_Middleware/ISP_Library/isp/Src/isp_algo.c ****   }
 688:../../Middlewares/Camera_Middleware/ISP_Library/isp/Src/isp_algo.c **** 
 689:../../Middlewares/Camera_Middleware/ISP_Library/isp/Src/isp_algo.c ****   return ISP_OK;
 131              		.loc 1 689 3 is_stmt 1 view .LVU24
 690:../../Middlewares/Camera_Middleware/ISP_Library/isp/Src/isp_algo.c **** }
 132              		.loc 1 690 1 is_stmt 0 view .LVU25
 133 0008 0020     		movs	r0, #0
 134              	.LVL7:
 135              		.loc 1 690 1 view .LVU26
 136 000a 7047     		bx	lr
 137              		.cfi_endproc
 138              	.LFE851:
 140              		.section	.text.ISP_Algo_BadPixel_Process,"ax",%progbits
 141              		.align	1
 142              		.global	ISP_Algo_BadPixel_Process
 143              		.syntax unified
 144              		.thumb
 145              		.thumb_func
 147              	ISP_Algo_BadPixel_Process:
 148              	.LVL8:
 149              	.LFB840:
 203:../../Middlewares/Camera_Middleware/ISP_Library/isp/Src/isp_algo.c ****   (void)hIsp; /* unused */
 150              		.loc 1 203 1 is_stmt 1 view -0
 151              		.cfi_startproc
 152              		@ args = 0, pretend = 0, frame = 8
 153              		@ frame_needed = 0, uses_anonymous_args = 0
 204:../../Middlewares/Camera_Middleware/ISP_Library/isp/Src/isp_algo.c ****   (void)pAlgo; /* unused */
 154              		.loc 1 204 3 view .LVU28
 205:../../Middlewares/Camera_Middleware/ISP_Library/isp/Src/isp_algo.c ****   static uint32_t BadPixelCount, LastFrameId;
 155              		.loc 1 205 3 view .LVU29
 206:../../Middlewares/Camera_Middleware/ISP_Library/isp/Src/isp_algo.c ****   static int8_t Step;
 156              		.loc 1 206 3 view .LVU30
 207:../../Middlewares/Camera_Middleware/ISP_Library/isp/Src/isp_algo.c ****   uint32_t CurrentFrameId;
 157              		.loc 1 207 3 view .LVU31
 208:../../Middlewares/Camera_Middleware/ISP_Library/isp/Src/isp_algo.c ****   ISP_BadPixelTypeDef BadPixelConfig;
 158              		.loc 1 208 3 view .LVU32
 209:../../Middlewares/Camera_Middleware/ISP_Library/isp/Src/isp_algo.c ****   ISP_IQParamTypeDef *IQParamConfig;
 159              		.loc 1 209 3 view .LVU33
 210:../../Middlewares/Camera_Middleware/ISP_Library/isp/Src/isp_algo.c ****   ISP_StatusTypeDef ret;
 160              		.loc 1 210 3 view .LVU34
 211:../../Middlewares/Camera_Middleware/ISP_Library/isp/Src/isp_algo.c **** 
 161              		.loc 1 211 3 view .LVU35
 213:../../Middlewares/Camera_Middleware/ISP_Library/isp/Src/isp_algo.c **** 
 162              		.loc 1 213 3 view .LVU36
 203:../../Middlewares/Camera_Middleware/ISP_Library/isp/Src/isp_algo.c ****   (void)hIsp; /* unused */
 163              		.loc 1 203 1 is_stmt 0 view .LVU37
ARM GAS  C:\Users\Antonio\AppData\Local\Temp\ccP00qEn.s 			page 16


 164 0000 F7B5     		push	{r0, r1, r2, r4, r5, r6, r7, lr}
 165              		.cfi_def_cfa_offset 32
 166              		.cfi_offset 4, -20
 167              		.cfi_offset 5, -16
 168              		.cfi_offset 6, -12
 169              		.cfi_offset 7, -8
 170              		.cfi_offset 14, -4
 203:../../Middlewares/Camera_Middleware/ISP_Library/isp/Src/isp_algo.c ****   (void)hIsp; /* unused */
 171              		.loc 1 203 1 view .LVU38
 172 0002 0446     		mov	r4, r0
 213:../../Middlewares/Camera_Middleware/ISP_Library/isp/Src/isp_algo.c **** 
 173              		.loc 1 213 19 view .LVU39
 174 0004 FFF7FEFF 		bl	ISP_SVC_IQParam_Get
 175              	.LVL9:
 215:../../Middlewares/Camera_Middleware/ISP_Library/isp/Src/isp_algo.c ****   {
 176              		.loc 1 215 6 view .LVU40
 177 0008 90F85430 		ldrb	r3, [r0, #84]	@ zero_extendqisi2
 213:../../Middlewares/Camera_Middleware/ISP_Library/isp/Src/isp_algo.c **** 
 178              		.loc 1 213 19 view .LVU41
 179 000c 0746     		mov	r7, r0
 180              	.LVL10:
 215:../../Middlewares/Camera_Middleware/ISP_Library/isp/Src/isp_algo.c ****   {
 181              		.loc 1 215 3 is_stmt 1 view .LVU42
 215:../../Middlewares/Camera_Middleware/ISP_Library/isp/Src/isp_algo.c ****   {
 182              		.loc 1 215 6 is_stmt 0 view .LVU43
 183 000e 13B9     		cbnz	r3, .L10
 184              	.LVL11:
 185              	.L12:
 217:../../Middlewares/Camera_Middleware/ISP_Library/isp/Src/isp_algo.c ****   }
 186              		.loc 1 217 12 view .LVU44
 187 0010 0020     		movs	r0, #0
 188              	.L11:
 269:../../Middlewares/Camera_Middleware/ISP_Library/isp/Src/isp_algo.c **** 
 189              		.loc 1 269 1 view .LVU45
 190 0012 03B0     		add	sp, sp, #12
 191              		.cfi_remember_state
 192              		.cfi_def_cfa_offset 20
 193              		@ sp needed
 194 0014 F0BD     		pop	{r4, r5, r6, r7, pc}
 195              	.LVL12:
 196              	.L10:
 197              		.cfi_restore_state
 221:../../Middlewares/Camera_Middleware/ISP_Library/isp/Src/isp_algo.c ****   if (CurrentFrameId == LastFrameId)
 198              		.loc 1 221 3 is_stmt 1 view .LVU46
 221:../../Middlewares/Camera_Middleware/ISP_Library/isp/Src/isp_algo.c ****   if (CurrentFrameId == LastFrameId)
 199              		.loc 1 221 20 is_stmt 0 view .LVU47
 200 0016 2046     		mov	r0, r4
 201              	.LVL13:
 221:../../Middlewares/Camera_Middleware/ISP_Library/isp/Src/isp_algo.c ****   if (CurrentFrameId == LastFrameId)
 202              		.loc 1 221 20 view .LVU48
 203 0018 FFF7FEFF 		bl	ISP_SVC_Misc_GetMainFrameId
 204              	.LVL14:
 222:../../Middlewares/Camera_Middleware/ISP_Library/isp/Src/isp_algo.c ****   {
 205              		.loc 1 222 3 is_stmt 1 view .LVU49
 222:../../Middlewares/Camera_Middleware/ISP_Library/isp/Src/isp_algo.c ****   {
 206              		.loc 1 222 22 is_stmt 0 view .LVU50
 207 001c 1E4B     		ldr	r3, .L21
ARM GAS  C:\Users\Antonio\AppData\Local\Temp\ccP00qEn.s 			page 17


 222:../../Middlewares/Camera_Middleware/ISP_Library/isp/Src/isp_algo.c ****   {
 208              		.loc 1 222 6 view .LVU51
 209 001e 1A68     		ldr	r2, [r3]
 210 0020 8242     		cmp	r2, r0
 211 0022 F5D0     		beq	.L12
 226:../../Middlewares/Camera_Middleware/ISP_Library/isp/Src/isp_algo.c **** 
 212              		.loc 1 226 3 is_stmt 1 view .LVU52
 228:../../Middlewares/Camera_Middleware/ISP_Library/isp/Src/isp_algo.c ****   {
 213              		.loc 1 228 11 is_stmt 0 view .LVU53
 214 0024 1D4D     		ldr	r5, .L21+4
 226:../../Middlewares/Camera_Middleware/ISP_Library/isp/Src/isp_algo.c **** 
 215              		.loc 1 226 15 view .LVU54
 216 0026 1860     		str	r0, [r3]
 228:../../Middlewares/Camera_Middleware/ISP_Library/isp/Src/isp_algo.c ****   {
 217              		.loc 1 228 3 is_stmt 1 view .LVU55
 228:../../Middlewares/Camera_Middleware/ISP_Library/isp/Src/isp_algo.c ****   {
 218              		.loc 1 228 11 is_stmt 0 view .LVU56
 219 0028 95F90030 		ldrsb	r3, [r5]
 220 002c 5A1C     		adds	r2, r3, #1
 228:../../Middlewares/Camera_Middleware/ISP_Library/isp/Src/isp_algo.c ****   {
 221              		.loc 1 228 6 view .LVU57
 222 002e 002B     		cmp	r3, #0
 228:../../Middlewares/Camera_Middleware/ISP_Library/isp/Src/isp_algo.c ****   {
 223              		.loc 1 228 11 view .LVU58
 224 0030 2A70     		strb	r2, [r5]
 228:../../Middlewares/Camera_Middleware/ISP_Library/isp/Src/isp_algo.c ****   {
 225              		.loc 1 228 6 view .LVU59
 226 0032 0ADB     		blt	.L13
 231:../../Middlewares/Camera_Middleware/ISP_Library/isp/Src/isp_algo.c ****     if (ret != ISP_OK)
 227              		.loc 1 231 5 is_stmt 1 view .LVU60
 231:../../Middlewares/Camera_Middleware/ISP_Library/isp/Src/isp_algo.c ****     if (ret != ISP_OK)
 228              		.loc 1 231 12 is_stmt 0 view .LVU61
 229 0034 6946     		mov	r1, sp
 230 0036 2046     		mov	r0, r4
 231              	.LVL15:
 231:../../Middlewares/Camera_Middleware/ISP_Library/isp/Src/isp_algo.c ****     if (ret != ISP_OK)
 232              		.loc 1 231 12 view .LVU62
 233 0038 FFF7FEFF 		bl	ISP_SVC_ISP_GetBadPixel
 234              	.LVL16:
 232:../../Middlewares/Camera_Middleware/ISP_Library/isp/Src/isp_algo.c ****     {
 235              		.loc 1 232 5 is_stmt 1 view .LVU63
 232:../../Middlewares/Camera_Middleware/ISP_Library/isp/Src/isp_algo.c ****     {
 236              		.loc 1 232 8 is_stmt 0 view .LVU64
 237 003c 0028     		cmp	r0, #0
 238 003e E8D1     		bne	.L11
 236:../../Middlewares/Camera_Middleware/ISP_Library/isp/Src/isp_algo.c ****   }
 239              		.loc 1 236 5 is_stmt 1 view .LVU65
 236:../../Middlewares/Camera_Middleware/ISP_Library/isp/Src/isp_algo.c ****   }
 240              		.loc 1 236 19 is_stmt 0 view .LVU66
 241 0040 174A     		ldr	r2, .L21+8
 242 0042 019B     		ldr	r3, [sp, #4]
 243 0044 1168     		ldr	r1, [r2]
 244 0046 0B44     		add	r3, r3, r1
 245 0048 1360     		str	r3, [r2]
 246              	.LVL17:
 247              	.L13:
 239:../../Middlewares/Camera_Middleware/ISP_Library/isp/Src/isp_algo.c ****   {
ARM GAS  C:\Users\Antonio\AppData\Local\Temp\ccP00qEn.s 			page 18


 248              		.loc 1 239 3 is_stmt 1 view .LVU67
 239:../../Middlewares/Camera_Middleware/ISP_Library/isp/Src/isp_algo.c ****   {
 249              		.loc 1 239 6 is_stmt 0 view .LVU68
 250 004a 95F90020 		ldrsb	r2, [r5]
 251 004e 0A2A     		cmp	r2, #10
 252 0050 DED1     		bne	.L12
 242:../../Middlewares/Camera_Middleware/ISP_Library/isp/Src/isp_algo.c **** 
 253              		.loc 1 242 5 is_stmt 1 view .LVU69
 242:../../Middlewares/Camera_Middleware/ISP_Library/isp/Src/isp_algo.c **** 
 254              		.loc 1 242 19 is_stmt 0 view .LVU70
 255 0052 134E     		ldr	r6, .L21+8
 256 0054 3368     		ldr	r3, [r6]
 257 0056 B3FBF2F3 		udiv	r3, r3, r2
 244:../../Middlewares/Camera_Middleware/ISP_Library/isp/Src/isp_algo.c ****     {
 258              		.loc 1 244 53 view .LVU71
 259 005a BA6D     		ldr	r2, [r7, #88]
 242:../../Middlewares/Camera_Middleware/ISP_Library/isp/Src/isp_algo.c **** 
 260              		.loc 1 242 19 view .LVU72
 261 005c 3360     		str	r3, [r6]
 244:../../Middlewares/Camera_Middleware/ISP_Library/isp/Src/isp_algo.c ****     {
 262              		.loc 1 244 5 is_stmt 1 view .LVU73
 244:../../Middlewares/Camera_Middleware/ISP_Library/isp/Src/isp_algo.c ****     {
 263              		.loc 1 244 8 is_stmt 0 view .LVU74
 264 005e 9342     		cmp	r3, r2
 265 0060 12D9     		bls	.L14
 244:../../Middlewares/Camera_Middleware/ISP_Library/isp/Src/isp_algo.c ****     {
 266              		.loc 1 244 83 discriminator 1 view .LVU75
 267 0062 9DF80130 		ldrb	r3, [sp, #1]	@ zero_extendqisi2
 244:../../Middlewares/Camera_Middleware/ISP_Library/isp/Src/isp_algo.c ****     {
 268              		.loc 1 244 65 discriminator 1 view .LVU76
 269 0066 13B1     		cbz	r3, .L15
 247:../../Middlewares/Camera_Middleware/ISP_Library/isp/Src/isp_algo.c ****     }
 270              		.loc 1 247 7 is_stmt 1 view .LVU77
 247:../../Middlewares/Camera_Middleware/ISP_Library/isp/Src/isp_algo.c ****     }
 271              		.loc 1 247 30 is_stmt 0 view .LVU78
 272 0068 013B     		subs	r3, r3, #1
 273              	.L20:
 252:../../Middlewares/Camera_Middleware/ISP_Library/isp/Src/isp_algo.c ****     }
 274              		.loc 1 252 30 view .LVU79
 275 006a 8DF80130 		strb	r3, [sp, #1]
 276              	.L15:
 256:../../Middlewares/Camera_Middleware/ISP_Library/isp/Src/isp_algo.c ****     ret = ISP_SVC_ISP_SetBadPixel(hIsp, &BadPixelConfig);
 277              		.loc 1 256 5 is_stmt 1 view .LVU80
 256:../../Middlewares/Camera_Middleware/ISP_Library/isp/Src/isp_algo.c ****     ret = ISP_SVC_ISP_SetBadPixel(hIsp, &BadPixelConfig);
 278              		.loc 1 256 27 is_stmt 0 view .LVU81
 279 006e 0123     		movs	r3, #1
 257:../../Middlewares/Camera_Middleware/ISP_Library/isp/Src/isp_algo.c ****     if (ret != ISP_OK)
 280              		.loc 1 257 11 view .LVU82
 281 0070 6946     		mov	r1, sp
 282 0072 2046     		mov	r0, r4
 256:../../Middlewares/Camera_Middleware/ISP_Library/isp/Src/isp_algo.c ****     ret = ISP_SVC_ISP_SetBadPixel(hIsp, &BadPixelConfig);
 283              		.loc 1 256 27 view .LVU83
 284 0074 8DF80030 		strb	r3, [sp]
 257:../../Middlewares/Camera_Middleware/ISP_Library/isp/Src/isp_algo.c ****     if (ret != ISP_OK)
 285              		.loc 1 257 5 is_stmt 1 view .LVU84
 257:../../Middlewares/Camera_Middleware/ISP_Library/isp/Src/isp_algo.c ****     if (ret != ISP_OK)
 286              		.loc 1 257 11 is_stmt 0 view .LVU85
ARM GAS  C:\Users\Antonio\AppData\Local\Temp\ccP00qEn.s 			page 19


 287 0078 FFF7FEFF 		bl	ISP_SVC_ISP_SetBadPixel
 288              	.LVL18:
 258:../../Middlewares/Camera_Middleware/ISP_Library/isp/Src/isp_algo.c ****     {
 289              		.loc 1 258 5 is_stmt 1 view .LVU86
 258:../../Middlewares/Camera_Middleware/ISP_Library/isp/Src/isp_algo.c ****     {
 290              		.loc 1 258 8 is_stmt 0 view .LVU87
 291 007c 0028     		cmp	r0, #0
 292 007e C8D1     		bne	.L11
 264:../../Middlewares/Camera_Middleware/ISP_Library/isp/Src/isp_algo.c ****     BadPixelCount = 0;
 293              		.loc 1 264 5 is_stmt 1 view .LVU88
 264:../../Middlewares/Camera_Middleware/ISP_Library/isp/Src/isp_algo.c ****     BadPixelCount = 0;
 294              		.loc 1 264 10 is_stmt 0 view .LVU89
 295 0080 FF23     		movs	r3, #255
 265:../../Middlewares/Camera_Middleware/ISP_Library/isp/Src/isp_algo.c ****   }
 296              		.loc 1 265 19 view .LVU90
 297 0082 3060     		str	r0, [r6]
 264:../../Middlewares/Camera_Middleware/ISP_Library/isp/Src/isp_algo.c ****     BadPixelCount = 0;
 298              		.loc 1 264 10 view .LVU91
 299 0084 2B70     		strb	r3, [r5]
 265:../../Middlewares/Camera_Middleware/ISP_Library/isp/Src/isp_algo.c ****   }
 300              		.loc 1 265 5 is_stmt 1 view .LVU92
 301 0086 C4E7     		b	.L11
 302              	.LVL19:
 303              	.L14:
 249:../../Middlewares/Camera_Middleware/ISP_Library/isp/Src/isp_algo.c ****     {
 304              		.loc 1 249 10 view .LVU93
 249:../../Middlewares/Camera_Middleware/ISP_Library/isp/Src/isp_algo.c ****     {
 305              		.loc 1 249 13 is_stmt 0 view .LVU94
 306 0088 F1D2     		bcs	.L15
 249:../../Middlewares/Camera_Middleware/ISP_Library/isp/Src/isp_algo.c ****     {
 307              		.loc 1 249 88 discriminator 1 view .LVU95
 308 008a 9DF80130 		ldrb	r3, [sp, #1]	@ zero_extendqisi2
 249:../../Middlewares/Camera_Middleware/ISP_Library/isp/Src/isp_algo.c ****     {
 309              		.loc 1 249 70 discriminator 1 view .LVU96
 310 008e 052B     		cmp	r3, #5
 311 0090 EDD8     		bhi	.L15
 252:../../Middlewares/Camera_Middleware/ISP_Library/isp/Src/isp_algo.c ****     }
 312              		.loc 1 252 7 is_stmt 1 view .LVU97
 252:../../Middlewares/Camera_Middleware/ISP_Library/isp/Src/isp_algo.c ****     }
 313              		.loc 1 252 30 is_stmt 0 view .LVU98
 314 0092 0133     		adds	r3, r3, #1
 315 0094 E9E7     		b	.L20
 316              	.L22:
 317 0096 00BF     		.align	2
 318              	.L21:
 319 0098 00000000 		.word	LastFrameId.12
 320 009c 00000000 		.word	Step.11
 321 00a0 00000000 		.word	BadPixelCount.10
 322              		.cfi_endproc
 323              	.LFE840:
 325              		.section	.text.ISP_Algo_AEC_DeInit,"ax",%progbits
 326              		.align	1
 327              		.global	ISP_Algo_AEC_DeInit
 328              		.syntax unified
 329              		.thumb
 330              		.thumb_func
 332              	ISP_Algo_AEC_DeInit:
ARM GAS  C:\Users\Antonio\AppData\Local\Temp\ccP00qEn.s 			page 20


 333              	.LVL20:
 334              	.LFB843:
 366:../../Middlewares/Camera_Middleware/ISP_Library/isp/Src/isp_algo.c ****   (void)hIsp; /* unused */
 335              		.loc 1 366 1 is_stmt 1 view -0
 336              		.cfi_startproc
 337              		@ args = 0, pretend = 0, frame = 0
 338              		@ frame_needed = 0, uses_anonymous_args = 0
 367:../../Middlewares/Camera_Middleware/ISP_Library/isp/Src/isp_algo.c ****   (void)pAlgo; /* unused */
 339              		.loc 1 367 3 view .LVU100
 368:../../Middlewares/Camera_Middleware/ISP_Library/isp/Src/isp_algo.c **** 
 340              		.loc 1 368 3 view .LVU101
 370:../../Middlewares/Camera_Middleware/ISP_Library/isp/Src/isp_algo.c ****   {
 341              		.loc 1 370 3 view .LVU102
 366:../../Middlewares/Camera_Middleware/ISP_Library/isp/Src/isp_algo.c ****   (void)hIsp; /* unused */
 342              		.loc 1 366 1 is_stmt 0 view .LVU103
 343 0000 08B5     		push	{r3, lr}
 344              		.cfi_def_cfa_offset 8
 345              		.cfi_offset 3, -8
 346              		.cfi_offset 14, -4
 370:../../Middlewares/Camera_Middleware/ISP_Library/isp/Src/isp_algo.c ****   {
 347              		.loc 1 370 21 view .LVU104
 348 0002 034B     		ldr	r3, .L28
 349 0004 1868     		ldr	r0, [r3]
 350              	.LVL21:
 370:../../Middlewares/Camera_Middleware/ISP_Library/isp/Src/isp_algo.c ****   {
 351              		.loc 1 370 6 view .LVU105
 352 0006 08B1     		cbz	r0, .L24
 372:../../Middlewares/Camera_Middleware/ISP_Library/isp/Src/isp_algo.c ****   }
 353              		.loc 1 372 5 is_stmt 1 view .LVU106
 354 0008 FFF7FEFF 		bl	evision_api_st_ae_delete
 355              	.LVL22:
 356              	.L24:
 374:../../Middlewares/Camera_Middleware/ISP_Library/isp/Src/isp_algo.c **** }
 357              		.loc 1 374 3 view .LVU107
 375:../../Middlewares/Camera_Middleware/ISP_Library/isp/Src/isp_algo.c **** 
 358              		.loc 1 375 1 is_stmt 0 view .LVU108
 359 000c 0020     		movs	r0, #0
 360 000e 08BD     		pop	{r3, pc}
 361              	.L29:
 362              		.align	2
 363              	.L28:
 364 0010 00000000 		.word	pIspAEprocess
 365              		.cfi_endproc
 366              	.LFE843:
 368              		.section	.text.ISP_Algo_AEC_Init,"ax",%progbits
 369              		.align	1
 370              		.global	ISP_Algo_AEC_Init
 371              		.syntax unified
 372              		.thumb
 373              		.thumb_func
 375              	ISP_Algo_AEC_Init:
 376              	.LVL23:
 377              	.LFB842:
 288:../../Middlewares/Camera_Middleware/ISP_Library/isp/Src/isp_algo.c ****   ISP_HandleTypeDef *pIsp_handle = (ISP_HandleTypeDef*) hIsp;
 378              		.loc 1 288 1 is_stmt 1 view -0
 379              		.cfi_startproc
 380              		@ args = 0, pretend = 0, frame = 8
ARM GAS  C:\Users\Antonio\AppData\Local\Temp\ccP00qEn.s 			page 21


 381              		@ frame_needed = 0, uses_anonymous_args = 0
 289:../../Middlewares/Camera_Middleware/ISP_Library/isp/Src/isp_algo.c ****   ISP_AlgoTypeDef *algo = (ISP_AlgoTypeDef *)pAlgo;
 382              		.loc 1 289 3 view .LVU110
 288:../../Middlewares/Camera_Middleware/ISP_Library/isp/Src/isp_algo.c ****   ISP_HandleTypeDef *pIsp_handle = (ISP_HandleTypeDef*) hIsp;
 383              		.loc 1 288 1 is_stmt 0 view .LVU111
 384 0000 F7B5     		push	{r0, r1, r2, r4, r5, r6, r7, lr}
 385              		.cfi_def_cfa_offset 32
 386              		.cfi_offset 4, -20
 387              		.cfi_offset 5, -16
 388              		.cfi_offset 6, -12
 389              		.cfi_offset 7, -8
 390              		.cfi_offset 14, -4
 288:../../Middlewares/Camera_Middleware/ISP_Library/isp/Src/isp_algo.c ****   ISP_HandleTypeDef *pIsp_handle = (ISP_HandleTypeDef*) hIsp;
 391              		.loc 1 288 1 view .LVU112
 392 0002 0446     		mov	r4, r0
 393              	.LVL24:
 290:../../Middlewares/Camera_Middleware/ISP_Library/isp/Src/isp_algo.c ****   ISP_SensorExposureTypeDef exposureConfig;
 394              		.loc 1 290 3 is_stmt 1 view .LVU113
 288:../../Middlewares/Camera_Middleware/ISP_Library/isp/Src/isp_algo.c ****   ISP_HandleTypeDef *pIsp_handle = (ISP_HandleTypeDef*) hIsp;
 395              		.loc 1 288 1 is_stmt 0 view .LVU114
 396 0004 0E46     		mov	r6, r1
 397              	.LVL25:
 291:../../Middlewares/Camera_Middleware/ISP_Library/isp/Src/isp_algo.c ****   ISP_SensorGainTypeDef gainConfig;
 398              		.loc 1 291 3 is_stmt 1 view .LVU115
 292:../../Middlewares/Camera_Middleware/ISP_Library/isp/Src/isp_algo.c ****   ISP_IQParamTypeDef *IQParamConfig;
 399              		.loc 1 292 3 view .LVU116
 293:../../Middlewares/Camera_Middleware/ISP_Library/isp/Src/isp_algo.c ****   evision_return_t e_ret;
 400              		.loc 1 293 3 view .LVU117
 294:../../Middlewares/Camera_Middleware/ISP_Library/isp/Src/isp_algo.c **** 
 401              		.loc 1 294 3 view .LVU118
 296:../../Middlewares/Camera_Middleware/ISP_Library/isp/Src/isp_algo.c **** 
 402              		.loc 1 296 3 view .LVU119
 296:../../Middlewares/Camera_Middleware/ISP_Library/isp/Src/isp_algo.c **** 
 403              		.loc 1 296 19 is_stmt 0 view .LVU120
 404 0006 FFF7FEFF 		bl	ISP_SVC_IQParam_Get
 405              	.LVL26:
 298:../../Middlewares/Camera_Middleware/ISP_Library/isp/Src/isp_algo.c ****   {
 406              		.loc 1 298 6 view .LVU121
 407 000a 90F85632 		ldrb	r3, [r0, #598]	@ zero_extendqisi2
 296:../../Middlewares/Camera_Middleware/ISP_Library/isp/Src/isp_algo.c **** 
 408              		.loc 1 296 19 view .LVU122
 409 000e 0546     		mov	r5, r0
 410              	.LVL27:
 298:../../Middlewares/Camera_Middleware/ISP_Library/isp/Src/isp_algo.c ****   {
 411              		.loc 1 298 3 is_stmt 1 view .LVU123
 298:../../Middlewares/Camera_Middleware/ISP_Library/isp/Src/isp_algo.c ****   {
 412              		.loc 1 298 6 is_stmt 0 view .LVU124
 413 0010 13B9     		cbnz	r3, .L31
 301:../../Middlewares/Camera_Middleware/ISP_Library/isp/Src/isp_algo.c ****   }
 414              		.loc 1 301 5 is_stmt 1 view .LVU125
 301:../../Middlewares/Camera_Middleware/ISP_Library/isp/Src/isp_algo.c ****   }
 415              		.loc 1 301 38 is_stmt 0 view .LVU126
 416 0012 0123     		movs	r3, #1
 417 0014 80F85632 		strb	r3, [r0, #598]
 418              	.L31:
 305:../../Middlewares/Camera_Middleware/ISP_Library/isp/Src/isp_algo.c ****   if (pIspAEprocess == NULL)
 419              		.loc 1 305 3 is_stmt 1 view .LVU127
ARM GAS  C:\Users\Antonio\AppData\Local\Temp\ccP00qEn.s 			page 22


 305:../../Middlewares/Camera_Middleware/ISP_Library/isp/Src/isp_algo.c ****   if (pIspAEprocess == NULL)
 420              		.loc 1 305 19 is_stmt 0 view .LVU128
 421 0018 2D48     		ldr	r0, .L39+16
 422              	.LVL28:
 305:../../Middlewares/Camera_Middleware/ISP_Library/isp/Src/isp_algo.c ****   if (pIspAEprocess == NULL)
 423              		.loc 1 305 19 view .LVU129
 424 001a FFF7FEFF 		bl	evision_api_st_ae_new
 425              	.LVL29:
 305:../../Middlewares/Camera_Middleware/ISP_Library/isp/Src/isp_algo.c ****   if (pIspAEprocess == NULL)
 426              		.loc 1 305 17 discriminator 1 view .LVU130
 427 001e 2D4F     		ldr	r7, .L39+20
 428 0020 3860     		str	r0, [r7]
 306:../../Middlewares/Camera_Middleware/ISP_Library/isp/Src/isp_algo.c ****   {
 429              		.loc 1 306 3 is_stmt 1 view .LVU131
 306:../../Middlewares/Camera_Middleware/ISP_Library/isp/Src/isp_algo.c ****   {
 430              		.loc 1 306 6 is_stmt 0 view .LVU132
 431 0022 30B1     		cbz	r0, .L33
 312:../../Middlewares/Camera_Middleware/ISP_Library/isp/Src/isp_algo.c ****   if (e_ret != EVISION_RET_SUCCESS)
 432              		.loc 1 312 3 is_stmt 1 view .LVU133
 312:../../Middlewares/Camera_Middleware/ISP_Library/isp/Src/isp_algo.c ****   if (e_ret != EVISION_RET_SUCCESS)
 433              		.loc 1 312 11 is_stmt 0 view .LVU134
 434 0024 FFF7FEFF 		bl	evision_api_st_ae_init
 435              	.LVL30:
 313:../../Middlewares/Camera_Middleware/ISP_Library/isp/Src/isp_algo.c ****   {
 436              		.loc 1 313 3 is_stmt 1 view .LVU135
 313:../../Middlewares/Camera_Middleware/ISP_Library/isp/Src/isp_algo.c ****   {
 437              		.loc 1 313 6 is_stmt 0 view .LVU136
 438 0028 0128     		cmp	r0, #1
 439 002a 04D0     		beq	.L34
 315:../../Middlewares/Camera_Middleware/ISP_Library/isp/Src/isp_algo.c ****     return ISP_ERR_ALGO;
 440              		.loc 1 315 5 is_stmt 1 view .LVU137
 441 002c 3868     		ldr	r0, [r7]
 442              	.LVL31:
 315:../../Middlewares/Camera_Middleware/ISP_Library/isp/Src/isp_algo.c ****     return ISP_ERR_ALGO;
 443              		.loc 1 315 5 is_stmt 0 view .LVU138
 444 002e FFF7FEFF 		bl	evision_api_st_ae_delete
 445              	.LVL32:
 316:../../Middlewares/Camera_Middleware/ISP_Library/isp/Src/isp_algo.c ****   }
 446              		.loc 1 316 5 is_stmt 1 view .LVU139
 447              	.L33:
 308:../../Middlewares/Camera_Middleware/ISP_Library/isp/Src/isp_algo.c ****   }
 448              		.loc 1 308 12 is_stmt 0 view .LVU140
 449 0032 BE20     		movs	r0, #190
 450 0034 33E0     		b	.L36
 451              	.LVL33:
 452              	.L34:
 320:../../Middlewares/Camera_Middleware/ISP_Library/isp/Src/isp_algo.c ****   pIspAEprocess->hyper_params.compat_freq = IQParamConfig->AECAlgo.antiFlickerFreq;
 453              		.loc 1 320 3 is_stmt 1 view .LVU141
 320:../../Middlewares/Camera_Middleware/ISP_Library/isp/Src/isp_algo.c ****   pIspAEprocess->hyper_params.compat_freq = IQParamConfig->AECAlgo.antiFlickerFreq;
 454              		.loc 1 320 16 is_stmt 0 view .LVU142
 455 0036 3B68     		ldr	r3, [r7]
 320:../../Middlewares/Camera_Middleware/ISP_Library/isp/Src/isp_algo.c ****   pIspAEprocess->hyper_params.compat_freq = IQParamConfig->AECAlgo.antiFlickerFreq;
 456              		.loc 1 320 38 view .LVU143
 457 0038 EA6E     		ldr	r2, [r5, #108]
 327:../../Middlewares/Camera_Middleware/ISP_Library/isp/Src/isp_algo.c **** 
 458              		.loc 1 327 40 view .LVU144
 459 003a E16F     		ldr	r1, [r4, #124]
ARM GAS  C:\Users\Antonio\AppData\Local\Temp\ccP00qEn.s 			page 23


 320:../../Middlewares/Camera_Middleware/ISP_Library/isp/Src/isp_algo.c ****   pIspAEprocess->hyper_params.compat_freq = IQParamConfig->AECAlgo.antiFlickerFreq;
 460              		.loc 1 320 38 view .LVU145
 461 003c 1A61     		str	r2, [r3, #16]
 321:../../Middlewares/Camera_Middleware/ISP_Library/isp/Src/isp_algo.c **** 
 462              		.loc 1 321 3 is_stmt 1 view .LVU146
 321:../../Middlewares/Camera_Middleware/ISP_Library/isp/Src/isp_algo.c **** 
 463              		.loc 1 321 67 is_stmt 0 view .LVU147
 464 003e 95F87020 		ldrb	r2, [r5, #112]	@ zero_extendqisi2
 324:../../Middlewares/Camera_Middleware/ISP_Library/isp/Src/isp_algo.c ****   pIspAEprocess->hyper_params.exposure_max = pIsp_handle->sensorInfo.exposure_max;
 465              		.loc 1 324 69 view .LVU148
 466 0042 D4F88070 		ldr	r7, [r4, #128]
 321:../../Middlewares/Camera_Middleware/ISP_Library/isp/Src/isp_algo.c **** 
 467              		.loc 1 321 67 view .LVU149
 468 0046 5A65     		str	r2, [r3, #84]
 324:../../Middlewares/Camera_Middleware/ISP_Library/isp/Src/isp_algo.c ****   pIspAEprocess->hyper_params.exposure_max = pIsp_handle->sensorInfo.exposure_max;
 469              		.loc 1 324 3 is_stmt 1 view .LVU150
 325:../../Middlewares/Camera_Middleware/ISP_Library/isp/Src/isp_algo.c ****   pIspAEprocess->hyper_params.gain_min = pIsp_handle->sensorInfo.gain_min;
 470              		.loc 1 325 44 is_stmt 0 view .LVU151
 471 0048 D4F88420 		ldr	r2, [r4, #132]
 331:../../Middlewares/Camera_Middleware/ISP_Library/isp/Src/isp_algo.c ****   pIspAEprocess->hyper_params.gain_low_delta = HYPERPARAM_AEC_GAIN_LOW_DELTA;
 472              		.loc 1 331 52 view .LVU152
 473 004c 0A20     		movs	r0, #10
 474              	.LVL34:
 325:../../Middlewares/Camera_Middleware/ISP_Library/isp/Src/isp_algo.c ****   pIspAEprocess->hyper_params.gain_min = pIsp_handle->sensorInfo.gain_min;
 475              		.loc 1 325 44 view .LVU153
 476 004e 5A64     		str	r2, [r3, #68]
 326:../../Middlewares/Camera_Middleware/ISP_Library/isp/Src/isp_algo.c ****   pIspAEprocess->hyper_params.gain_max = pIsp_handle->sensorInfo.gain_max;
 477              		.loc 1 326 65 view .LVU154
 478 0050 A26F     		ldr	r2, [r4, #120]
 327:../../Middlewares/Camera_Middleware/ISP_Library/isp/Src/isp_algo.c **** 
 479              		.loc 1 327 40 view .LVU155
 480 0052 D964     		str	r1, [r3, #76]
 331:../../Middlewares/Camera_Middleware/ISP_Library/isp/Src/isp_algo.c ****   pIspAEprocess->hyper_params.gain_low_delta = HYPERPARAM_AEC_GAIN_LOW_DELTA;
 481              		.loc 1 331 52 view .LVU156
 482 0054 6421     		movs	r1, #100
 333:../../Middlewares/Camera_Middleware/ISP_Library/isp/Src/isp_algo.c ****   pIspAEprocess->hyper_params.gain_low_increment_max = HYPERPARAM_AEC_GAIN_LOW_INC_MAX;
 483              		.loc 1 333 47 view .LVU157
 484 0056 4FF02D0C 		mov	ip, #45
 331:../../Middlewares/Camera_Middleware/ISP_Library/isp/Src/isp_algo.c ****   pIspAEprocess->hyper_params.gain_low_delta = HYPERPARAM_AEC_GAIN_LOW_DELTA;
 485              		.loc 1 331 52 view .LVU158
 486 005a C3E90501 		strd	r0, r1, [r3, #20]
 333:../../Middlewares/Camera_Middleware/ISP_Library/isp/Src/isp_algo.c ****   pIspAEprocess->hyper_params.gain_low_increment_max = HYPERPARAM_AEC_GAIN_LOW_INC_MAX;
 487              		.loc 1 333 47 view .LVU159
 488 005e 7821     		movs	r1, #120
 335:../../Middlewares/Camera_Middleware/ISP_Library/isp/Src/isp_algo.c ****   pIspAEprocess->hyper_params.gain_high_increment_max = HYPERPARAM_AEC_GAIN_HIGH_INC_MAX;
 489              		.loc 1 335 57 view .LVU160
 490 0060 40F2DC50 		movw	r0, #1500
 333:../../Middlewares/Camera_Middleware/ISP_Library/isp/Src/isp_algo.c ****   pIspAEprocess->hyper_params.gain_low_increment_max = HYPERPARAM_AEC_GAIN_LOW_INC_MAX;
 491              		.loc 1 333 47 view .LVU161
 492 0064 C3E907C1 		strd	ip, r1, [r3, #28]
 335:../../Middlewares/Camera_Middleware/ISP_Library/isp/Src/isp_algo.c ****   pIspAEprocess->hyper_params.gain_high_increment_max = HYPERPARAM_AEC_GAIN_HIGH_INC_MAX;
 493              		.loc 1 335 57 view .LVU162
 494 0068 41F27071 		movw	r1, #6000
 495 006c C3E90901 		strd	r0, r1, [r3, #36]
 336:../../Middlewares/Camera_Middleware/ISP_Library/isp/Src/isp_algo.c ****   pIspAEprocess->hyper_params.exposure_up_ratio = HYPERPARAM_AEC_EXPOSURE_UP_RATIO;
 496              		.loc 1 336 55 view .LVU163
 497 0070 42F6E061 		movw	r1, #12000
ARM GAS  C:\Users\Antonio\AppData\Local\Temp\ccP00qEn.s 			page 24


 498 0074 D962     		str	r1, [r3, #44]
 337:../../Middlewares/Camera_Middleware/ISP_Library/isp/Src/isp_algo.c ****   pIspAEprocess->hyper_params.exposure_down_ratio = HYPERPARAM_AEC_EXPOSURE_DOWN_RATIO;
 499              		.loc 1 337 49 view .LVU164
 500 0076 12A1     		adr	r1, .L39
 501 0078 D1E90001 		ldrd	r0, [r1]
 502 007c C3E90C01 		strd	r0, [r3, #48]
 338:../../Middlewares/Camera_Middleware/ISP_Library/isp/Src/isp_algo.c ****   pIspAEprocess->hyper_params.dark_zone_lum_limit = HYPERPARAM_AEC_DARKZONE_LUM_LIMIT;
 503              		.loc 1 338 51 view .LVU165
 504 0080 11A1     		adr	r1, .L39+8
 505 0082 D1E90001 		ldrd	r0, [r1]
 506 0086 C3E90E01 		strd	r0, [r3, #56]
 339:../../Middlewares/Camera_Middleware/ISP_Library/isp/Src/isp_algo.c **** 
 507              		.loc 1 339 51 view .LVU166
 508 008a 0521     		movs	r1, #5
 324:../../Middlewares/Camera_Middleware/ISP_Library/isp/Src/isp_algo.c ****   pIspAEprocess->hyper_params.exposure_max = pIsp_handle->sensorInfo.exposure_max;
 509              		.loc 1 324 44 view .LVU167
 510 008c 1F64     		str	r7, [r3, #64]
 325:../../Middlewares/Camera_Middleware/ISP_Library/isp/Src/isp_algo.c ****   pIspAEprocess->hyper_params.gain_min = pIsp_handle->sensorInfo.gain_min;
 511              		.loc 1 325 3 is_stmt 1 view .LVU168
 326:../../Middlewares/Camera_Middleware/ISP_Library/isp/Src/isp_algo.c ****   pIspAEprocess->hyper_params.gain_max = pIsp_handle->sensorInfo.gain_max;
 512              		.loc 1 326 3 view .LVU169
 326:../../Middlewares/Camera_Middleware/ISP_Library/isp/Src/isp_algo.c ****   pIspAEprocess->hyper_params.gain_max = pIsp_handle->sensorInfo.gain_max;
 513              		.loc 1 326 40 is_stmt 0 view .LVU170
 514 008e 9A64     		str	r2, [r3, #72]
 327:../../Middlewares/Camera_Middleware/ISP_Library/isp/Src/isp_algo.c **** 
 515              		.loc 1 327 3 is_stmt 1 view .LVU171
 330:../../Middlewares/Camera_Middleware/ISP_Library/isp/Src/isp_algo.c ****   pIspAEprocess->hyper_params.gain_increment_coeff = HYPERPARAM_AEC_GAIN_INCREMENT_COEFF;
 516              		.loc 1 330 3 view .LVU172
 332:../../Middlewares/Camera_Middleware/ISP_Library/isp/Src/isp_algo.c ****   pIspAEprocess->hyper_params.gain_high_delta = HYPERPARAM_AEC_GAIN_HIGH_DELTA;
 517              		.loc 1 332 3 view .LVU173
 334:../../Middlewares/Camera_Middleware/ISP_Library/isp/Src/isp_algo.c ****   pIspAEprocess->hyper_params.gain_medium_increment_max = HYPERPARAM_AEC_GAIN_MEDIUM_INC_MAX;
 518              		.loc 1 334 3 view .LVU174
 336:../../Middlewares/Camera_Middleware/ISP_Library/isp/Src/isp_algo.c ****   pIspAEprocess->hyper_params.exposure_up_ratio = HYPERPARAM_AEC_EXPOSURE_UP_RATIO;
 519              		.loc 1 336 3 view .LVU175
 337:../../Middlewares/Camera_Middleware/ISP_Library/isp/Src/isp_algo.c ****   pIspAEprocess->hyper_params.exposure_down_ratio = HYPERPARAM_AEC_EXPOSURE_DOWN_RATIO;
 520              		.loc 1 337 3 view .LVU176
 338:../../Middlewares/Camera_Middleware/ISP_Library/isp/Src/isp_algo.c ****   pIspAEprocess->hyper_params.dark_zone_lum_limit = HYPERPARAM_AEC_DARKZONE_LUM_LIMIT;
 521              		.loc 1 338 3 view .LVU177
 339:../../Middlewares/Camera_Middleware/ISP_Library/isp/Src/isp_algo.c **** 
 522              		.loc 1 339 3 view .LVU178
 339:../../Middlewares/Camera_Middleware/ISP_Library/isp/Src/isp_algo.c **** 
 523              		.loc 1 339 51 is_stmt 0 view .LVU179
 524 0090 1965     		str	r1, [r3, #80]
 342:../../Middlewares/Camera_Middleware/ISP_Library/isp/Src/isp_algo.c ****   {
 525              		.loc 1 342 3 is_stmt 1 view .LVU180
 342:../../Middlewares/Camera_Middleware/ISP_Library/isp/Src/isp_algo.c ****   {
 526              		.loc 1 342 6 is_stmt 0 view .LVU181
 527 0092 95F86830 		ldrb	r3, [r5, #104]	@ zero_extendqisi2
 528 0096 012B     		cmp	r3, #1
 529 0098 03D0     		beq	.L35
 530              	.L38:
 353:../../Middlewares/Camera_Middleware/ISP_Library/isp/Src/isp_algo.c **** 
 531              		.loc 1 353 3 is_stmt 1 view .LVU182
 353:../../Middlewares/Camera_Middleware/ISP_Library/isp/Src/isp_algo.c **** 
 532              		.loc 1 353 15 is_stmt 0 view .LVU183
 533 009a 0020     		movs	r0, #0
 534 009c 7070     		strb	r0, [r6, #1]
ARM GAS  C:\Users\Antonio\AppData\Local\Temp\ccP00qEn.s 			page 25


 355:../../Middlewares/Camera_Middleware/ISP_Library/isp/Src/isp_algo.c **** }
 535              		.loc 1 355 3 is_stmt 1 view .LVU184
 536              	.LVL35:
 537              	.L36:
 356:../../Middlewares/Camera_Middleware/ISP_Library/isp/Src/isp_algo.c **** 
 538              		.loc 1 356 1 is_stmt 0 view .LVU185
 539 009e 03B0     		add	sp, sp, #12
 540              		.cfi_remember_state
 541              		.cfi_def_cfa_offset 20
 542              		@ sp needed
 543 00a0 F0BD     		pop	{r4, r5, r6, r7, pc}
 544              	.LVL36:
 545              	.L35:
 546              		.cfi_restore_state
 344:../../Middlewares/Camera_Middleware/ISP_Library/isp/Src/isp_algo.c ****     gainConfig.gain = pIsp_handle->sensorInfo.gain_min;
 547              		.loc 1 344 5 is_stmt 1 view .LVU186
 346:../../Middlewares/Camera_Middleware/ISP_Library/isp/Src/isp_algo.c ****     {
 548              		.loc 1 346 10 is_stmt 0 view .LVU187
 549 00a2 6946     		mov	r1, sp
 550 00a4 2046     		mov	r0, r4
 345:../../Middlewares/Camera_Middleware/ISP_Library/isp/Src/isp_algo.c ****     if ((ISP_SVC_Sensor_SetExposure(hIsp, &exposureConfig) != ISP_OK) || (ISP_SVC_Sensor_SetGain(hI
 551              		.loc 1 345 21 view .LVU188
 552 00a6 CDE90072 		strd	r7, r2, [sp]
 346:../../Middlewares/Camera_Middleware/ISP_Library/isp/Src/isp_algo.c ****     {
 553              		.loc 1 346 5 is_stmt 1 view .LVU189
 346:../../Middlewares/Camera_Middleware/ISP_Library/isp/Src/isp_algo.c ****     {
 554              		.loc 1 346 10 is_stmt 0 view .LVU190
 555 00aa FFF7FEFF 		bl	ISP_SVC_Sensor_SetExposure
 556              	.LVL37:
 346:../../Middlewares/Camera_Middleware/ISP_Library/isp/Src/isp_algo.c ****     {
 557              		.loc 1 346 8 discriminator 1 view .LVU191
 558 00ae 0028     		cmp	r0, #0
 559 00b0 BFD1     		bne	.L33
 346:../../Middlewares/Camera_Middleware/ISP_Library/isp/Src/isp_algo.c ****     {
 560              		.loc 1 346 75 discriminator 1 view .LVU192
 561 00b2 2046     		mov	r0, r4
 562 00b4 01A9     		add	r1, sp, #4
 563 00b6 FFF7FEFF 		bl	ISP_SVC_Sensor_SetGain
 564              	.LVL38:
 346:../../Middlewares/Camera_Middleware/ISP_Library/isp/Src/isp_algo.c ****     {
 565              		.loc 1 346 71 discriminator 1 view .LVU193
 566 00ba 0028     		cmp	r0, #0
 567 00bc EDD0     		beq	.L38
 568 00be B8E7     		b	.L33
 569              	.L40:
 570              		.align	3
 571              	.L39:
 572 00c0 00000040 		.word	1073741824
 573 00c4 E17A943F 		.word	1066695393
 574 00c8 000000E0 		.word	-536870912
 575 00cc 4D62703F 		.word	1064329805
 576 00d0 00000000 		.word	log_cb
 577 00d4 00000000 		.word	pIspAEprocess
 578              		.cfi_endproc
 579              	.LFE842:
 581              		.section	.rodata.log_cb.str1.1,"aMS",%progbits,1
 582              	.LC0:
ARM GAS  C:\Users\Antonio\AppData\Local\Temp\ccP00qEn.s 			page 26


 583 0000 257300   		.ascii	"%s\000"
 584              	.LC1:
 585 0003 0D00     		.ascii	"\015\000"
 586              		.section	.text.log_cb,"ax",%progbits
 587              		.align	1
 588              		.syntax unified
 589              		.thumb
 590              		.thumb_func
 592              	log_cb:
 593              	.LVL39:
 594              	.LFB841:
 273:../../Middlewares/Camera_Middleware/ISP_Library/isp/Src/isp_algo.c ****   printf("%s", msg);
 595              		.loc 1 273 1 is_stmt 1 view -0
 596              		.cfi_startproc
 597              		@ args = 0, pretend = 0, frame = 0
 598              		@ frame_needed = 0, uses_anonymous_args = 0
 274:../../Middlewares/Camera_Middleware/ISP_Library/isp/Src/isp_algo.c ****   printf("\r\n");
 599              		.loc 1 274 3 view .LVU195
 273:../../Middlewares/Camera_Middleware/ISP_Library/isp/Src/isp_algo.c ****   printf("%s", msg);
 600              		.loc 1 273 1 is_stmt 0 view .LVU196
 601 0000 08B5     		push	{r3, lr}
 602              		.cfi_def_cfa_offset 8
 603              		.cfi_offset 3, -8
 604              		.cfi_offset 14, -4
 273:../../Middlewares/Camera_Middleware/ISP_Library/isp/Src/isp_algo.c ****   printf("%s", msg);
 605              		.loc 1 273 1 view .LVU197
 606 0002 0146     		mov	r1, r0
 274:../../Middlewares/Camera_Middleware/ISP_Library/isp/Src/isp_algo.c ****   printf("\r\n");
 607              		.loc 1 274 3 view .LVU198
 608 0004 0348     		ldr	r0, .L42
 609              	.LVL40:
 274:../../Middlewares/Camera_Middleware/ISP_Library/isp/Src/isp_algo.c ****   printf("\r\n");
 610              		.loc 1 274 3 view .LVU199
 611 0006 FFF7FEFF 		bl	printf
 612              	.LVL41:
 275:../../Middlewares/Camera_Middleware/ISP_Library/isp/Src/isp_algo.c **** }
 613              		.loc 1 275 3 is_stmt 1 view .LVU200
 276:../../Middlewares/Camera_Middleware/ISP_Library/isp/Src/isp_algo.c **** #endif
 614              		.loc 1 276 1 is_stmt 0 view .LVU201
 615 000a BDE80840 		pop	{r3, lr}
 616              		.cfi_restore 14
 617              		.cfi_restore 3
 618              		.cfi_def_cfa_offset 0
 275:../../Middlewares/Camera_Middleware/ISP_Library/isp/Src/isp_algo.c **** }
 619              		.loc 1 275 3 view .LVU202
 620 000e 0248     		ldr	r0, .L42+4
 621 0010 FFF7FEBF 		b	puts
 622              	.LVL42:
 623              	.L43:
 624              		.align	2
 625              	.L42:
 626 0014 00000000 		.word	.LC0
 627 0018 03000000 		.word	.LC1
 628              		.cfi_endproc
 629              	.LFE841:
 631              		.section	.text.ISP_Algo_AEC_Process,"ax",%progbits
 632              		.align	1
ARM GAS  C:\Users\Antonio\AppData\Local\Temp\ccP00qEn.s 			page 27


 633              		.global	ISP_Algo_AEC_Process
 634              		.syntax unified
 635              		.thumb
 636              		.thumb_func
 638              	ISP_Algo_AEC_Process:
 639              	.LVL43:
 640              	.LFB845:
 400:../../Middlewares/Camera_Middleware/ISP_Library/isp/Src/isp_algo.c ****   static ISP_SVC_StatStateTypeDef stats;
 641              		.loc 1 400 1 is_stmt 1 view -0
 642              		.cfi_startproc
 643              		@ args = 0, pretend = 0, frame = 8
 644              		@ frame_needed = 0, uses_anonymous_args = 0
 401:../../Middlewares/Camera_Middleware/ISP_Library/isp/Src/isp_algo.c ****   ISP_AlgoTypeDef *algo = (ISP_AlgoTypeDef *)pAlgo;
 645              		.loc 1 401 3 view .LVU204
 402:../../Middlewares/Camera_Middleware/ISP_Library/isp/Src/isp_algo.c ****   ISP_IQParamTypeDef *IQParamConfig;
 646              		.loc 1 402 3 view .LVU205
 400:../../Middlewares/Camera_Middleware/ISP_Library/isp/Src/isp_algo.c ****   static ISP_SVC_StatStateTypeDef stats;
 647              		.loc 1 400 1 is_stmt 0 view .LVU206
 648 0000 2DE9F041 		push	{r4, r5, r6, r7, r8, lr}
 649              		.cfi_def_cfa_offset 24
 650              		.cfi_offset 4, -24
 651              		.cfi_offset 5, -20
 652              		.cfi_offset 6, -16
 653              		.cfi_offset 7, -12
 654              		.cfi_offset 8, -8
 655              		.cfi_offset 14, -4
 656 0004 86B0     		sub	sp, sp, #24
 657              		.cfi_def_cfa_offset 48
 400:../../Middlewares/Camera_Middleware/ISP_Library/isp/Src/isp_algo.c ****   static ISP_SVC_StatStateTypeDef stats;
 658              		.loc 1 400 1 view .LVU207
 659 0006 0546     		mov	r5, r0
 660 0008 0C46     		mov	r4, r1
 661              	.LVL44:
 403:../../Middlewares/Camera_Middleware/ISP_Library/isp/Src/isp_algo.c ****   ISP_StatusTypeDef ret = ISP_OK;
 662              		.loc 1 403 3 is_stmt 1 view .LVU208
 404:../../Middlewares/Camera_Middleware/ISP_Library/isp/Src/isp_algo.c ****   ISP_SensorGainTypeDef gainConfig;
 663              		.loc 1 404 3 view .LVU209
 405:../../Middlewares/Camera_Middleware/ISP_Library/isp/Src/isp_algo.c ****   ISP_SensorExposureTypeDef exposureConfig;
 664              		.loc 1 405 3 view .LVU210
 406:../../Middlewares/Camera_Middleware/ISP_Library/isp/Src/isp_algo.c ****   uint32_t avgL;
 665              		.loc 1 406 3 view .LVU211
 407:../../Middlewares/Camera_Middleware/ISP_Library/isp/Src/isp_algo.c **** #ifdef ALGO_AEC_DBG_LOGS
 666              		.loc 1 407 3 view .LVU212
 411:../../Middlewares/Camera_Middleware/ISP_Library/isp/Src/isp_algo.c **** 
 667              		.loc 1 411 3 view .LVU213
 413:../../Middlewares/Camera_Middleware/ISP_Library/isp/Src/isp_algo.c ****   if (IQParamConfig->AECAlgo.enable == false)
 668              		.loc 1 413 3 view .LVU214
 413:../../Middlewares/Camera_Middleware/ISP_Library/isp/Src/isp_algo.c ****   if (IQParamConfig->AECAlgo.enable == false)
 669              		.loc 1 413 19 is_stmt 0 view .LVU215
 670 000a FFF7FEFF 		bl	ISP_SVC_IQParam_Get
 671              	.LVL45:
 413:../../Middlewares/Camera_Middleware/ISP_Library/isp/Src/isp_algo.c ****   if (IQParamConfig->AECAlgo.enable == false)
 672              		.loc 1 413 19 view .LVU216
 673 000e 0646     		mov	r6, r0
 674              	.LVL46:
 414:../../Middlewares/Camera_Middleware/ISP_Library/isp/Src/isp_algo.c ****   {
 675              		.loc 1 414 3 is_stmt 1 view .LVU217
ARM GAS  C:\Users\Antonio\AppData\Local\Temp\ccP00qEn.s 			page 28


 414:../../Middlewares/Camera_Middleware/ISP_Library/isp/Src/isp_algo.c ****   {
 676              		.loc 1 414 29 is_stmt 0 view .LVU218
 677 0010 90F86800 		ldrb	r0, [r0, #104]	@ zero_extendqisi2
 678              	.LVL47:
 414:../../Middlewares/Camera_Middleware/ISP_Library/isp/Src/isp_algo.c ****   {
 679              		.loc 1 414 6 view .LVU219
 680 0014 28B1     		cbz	r0, .L45
 419:../../Middlewares/Camera_Middleware/ISP_Library/isp/Src/isp_algo.c ****   {
 681              		.loc 1 419 3 is_stmt 1 view .LVU220
 419:../../Middlewares/Camera_Middleware/ISP_Library/isp/Src/isp_algo.c ****   {
 682              		.loc 1 419 14 is_stmt 0 view .LVU221
 683 0016 6378     		ldrb	r3, [r4, #1]	@ zero_extendqisi2
 419:../../Middlewares/Camera_Middleware/ISP_Library/isp/Src/isp_algo.c ****   {
 684              		.loc 1 419 3 view .LVU222
 685 0018 012B     		cmp	r3, #1
 686 001a 05D9     		bls	.L46
 687 001c 032B     		cmp	r3, #3
 688 001e 14D0     		beq	.L47
 416:../../Middlewares/Camera_Middleware/ISP_Library/isp/Src/isp_algo.c ****   }
 689              		.loc 1 416 12 view .LVU223
 690 0020 0020     		movs	r0, #0
 691              	.LVL48:
 692              	.L45:
 518:../../Middlewares/Camera_Middleware/ISP_Library/isp/Src/isp_algo.c **** #endif /* ISP_MW_SW_AEC_ALGO_SUPPORT */
 693              		.loc 1 518 1 view .LVU224
 694 0022 06B0     		add	sp, sp, #24
 695              		.cfi_remember_state
 696              		.cfi_def_cfa_offset 24
 697              		@ sp needed
 698 0024 BDE8F081 		pop	{r4, r5, r6, r7, r8, pc}
 699              	.LVL49:
 700              	.L46:
 701              		.cfi_restore_state
 424:../../Middlewares/Camera_Middleware/ISP_Library/isp/Src/isp_algo.c ****                                 ISP_STAT_TYPE_AVG, IQParamConfig->sensorDelay.delay);
 702              		.loc 1 424 5 is_stmt 1 view .LVU225
 424:../../Middlewares/Camera_Middleware/ISP_Library/isp/Src/isp_algo.c ****                                 ISP_STAT_TYPE_AVG, IQParamConfig->sensorDelay.delay);
 703              		.loc 1 424 11 is_stmt 0 view .LVU226
 704 0028 96F85632 		ldrb	r3, [r6, #598]	@ zero_extendqisi2
 705 002c 0226     		movs	r6, #2
 706              	.LVL50:
 424:../../Middlewares/Camera_Middleware/ISP_Library/isp/Src/isp_algo.c ****                                 ISP_STAT_TYPE_AVG, IQParamConfig->sensorDelay.delay);
 707              		.loc 1 424 11 view .LVU227
 708 002e 0293     		str	r3, [sp, #8]
 709 0030 0123     		movs	r3, #1
 710 0032 2246     		mov	r2, r4
 711 0034 CDE90063 		strd	r6, r3, [sp]
 712 0038 2846     		mov	r0, r5
 713 003a 294B     		ldr	r3, .L61
 714 003c 2949     		ldr	r1, .L61+4
 715 003e FFF7FEFF 		bl	ISP_SVC_Stats_GetNext
 716              	.LVL51:
 426:../../Middlewares/Camera_Middleware/ISP_Library/isp/Src/isp_algo.c ****     {
 717              		.loc 1 426 5 is_stmt 1 view .LVU228
 426:../../Middlewares/Camera_Middleware/ISP_Library/isp/Src/isp_algo.c ****     {
 718              		.loc 1 426 8 is_stmt 0 view .LVU229
 719 0042 0028     		cmp	r0, #0
 720 0044 EDD1     		bne	.L45
ARM GAS  C:\Users\Antonio\AppData\Local\Temp\ccP00qEn.s 			page 29


 721              	.LVL52:
 722              	.L60:
 513:../../Middlewares/Camera_Middleware/ISP_Library/isp/Src/isp_algo.c ****     break;
 723              		.loc 1 513 5 is_stmt 1 view .LVU230
 513:../../Middlewares/Camera_Middleware/ISP_Library/isp/Src/isp_algo.c ****     break;
 724              		.loc 1 513 17 is_stmt 0 view .LVU231
 725 0046 6670     		strb	r6, [r4, #1]
 514:../../Middlewares/Camera_Middleware/ISP_Library/isp/Src/isp_algo.c ****   }
 726              		.loc 1 514 5 is_stmt 1 view .LVU232
 727 0048 EBE7     		b	.L45
 728              	.LVL53:
 729              	.L47:
 441:../../Middlewares/Camera_Middleware/ISP_Library/isp/Src/isp_algo.c **** 
 730              		.loc 1 441 5 view .LVU233
 441:../../Middlewares/Camera_Middleware/ISP_Library/isp/Src/isp_algo.c **** 
 731              		.loc 1 441 18 is_stmt 0 view .LVU234
 732 004a 274F     		ldr	r7, .L61+8
 441:../../Middlewares/Camera_Middleware/ISP_Library/isp/Src/isp_algo.c **** 
 733              		.loc 1 441 40 view .LVU235
 734 004c F26E     		ldr	r2, [r6, #108]
 441:../../Middlewares/Camera_Middleware/ISP_Library/isp/Src/isp_algo.c **** 
 735              		.loc 1 441 18 view .LVU236
 736 004e 3B68     		ldr	r3, [r7]
 455:../../Middlewares/Camera_Middleware/ISP_Library/isp/Src/isp_algo.c ****     if (ret != ISP_OK)
 737              		.loc 1 455 11 view .LVU237
 738 0050 2846     		mov	r0, r5
 441:../../Middlewares/Camera_Middleware/ISP_Library/isp/Src/isp_algo.c **** 
 739              		.loc 1 441 40 view .LVU238
 740 0052 1A61     		str	r2, [r3, #16]
 444:../../Middlewares/Camera_Middleware/ISP_Library/isp/Src/isp_algo.c **** 
 741              		.loc 1 444 5 is_stmt 1 view .LVU239
 444:../../Middlewares/Camera_Middleware/ISP_Library/isp/Src/isp_algo.c **** 
 742              		.loc 1 444 69 is_stmt 0 view .LVU240
 743 0054 96F87020 		ldrb	r2, [r6, #112]	@ zero_extendqisi2
 455:../../Middlewares/Camera_Middleware/ISP_Library/isp/Src/isp_algo.c ****     if (ret != ISP_OK)
 744              		.loc 1 455 11 view .LVU241
 745 0058 04A9     		add	r1, sp, #16
 444:../../Middlewares/Camera_Middleware/ISP_Library/isp/Src/isp_algo.c **** 
 746              		.loc 1 444 69 view .LVU242
 747 005a 5A65     		str	r2, [r3, #84]
 446:../../Middlewares/Camera_Middleware/ISP_Library/isp/Src/isp_algo.c **** #ifdef ALGO_AEC_DBG_LOGS
 748              		.loc 1 446 5 is_stmt 1 view .LVU243
 446:../../Middlewares/Camera_Middleware/ISP_Library/isp/Src/isp_algo.c **** #ifdef ALGO_AEC_DBG_LOGS
 749              		.loc 1 446 22 is_stmt 0 view .LVU244
 750 005c 204B     		ldr	r3, .L61
 751 005e 93F83780 		ldrb	r8, [r3, #55]	@ zero_extendqisi2
 752              	.LVL54:
 455:../../Middlewares/Camera_Middleware/ISP_Library/isp/Src/isp_algo.c ****     if (ret != ISP_OK)
 753              		.loc 1 455 5 is_stmt 1 view .LVU245
 455:../../Middlewares/Camera_Middleware/ISP_Library/isp/Src/isp_algo.c ****     if (ret != ISP_OK)
 754              		.loc 1 455 11 is_stmt 0 view .LVU246
 755 0062 FFF7FEFF 		bl	ISP_SVC_Sensor_GetGain
 756              	.LVL55:
 456:../../Middlewares/Camera_Middleware/ISP_Library/isp/Src/isp_algo.c ****     {
 757              		.loc 1 456 5 is_stmt 1 view .LVU247
 456:../../Middlewares/Camera_Middleware/ISP_Library/isp/Src/isp_algo.c ****     {
 758              		.loc 1 456 8 is_stmt 0 view .LVU248
ARM GAS  C:\Users\Antonio\AppData\Local\Temp\ccP00qEn.s 			page 30


 759 0066 0028     		cmp	r0, #0
 760 0068 DBD1     		bne	.L45
 461:../../Middlewares/Camera_Middleware/ISP_Library/isp/Src/isp_algo.c ****     if (ret != ISP_OK)
 761              		.loc 1 461 5 is_stmt 1 view .LVU249
 461:../../Middlewares/Camera_Middleware/ISP_Library/isp/Src/isp_algo.c ****     if (ret != ISP_OK)
 762              		.loc 1 461 11 is_stmt 0 view .LVU250
 763 006a 2846     		mov	r0, r5
 764              	.LVL56:
 461:../../Middlewares/Camera_Middleware/ISP_Library/isp/Src/isp_algo.c ****     if (ret != ISP_OK)
 765              		.loc 1 461 11 view .LVU251
 766 006c 05A9     		add	r1, sp, #20
 767 006e FFF7FEFF 		bl	ISP_SVC_Sensor_GetExposure
 768              	.LVL57:
 462:../../Middlewares/Camera_Middleware/ISP_Library/isp/Src/isp_algo.c ****     {
 769              		.loc 1 462 5 is_stmt 1 view .LVU252
 462:../../Middlewares/Camera_Middleware/ISP_Library/isp/Src/isp_algo.c ****     {
 770              		.loc 1 462 8 is_stmt 0 view .LVU253
 771 0072 0028     		cmp	r0, #0
 772 0074 D5D1     		bne	.L45
 468:../../Middlewares/Camera_Middleware/ISP_Library/isp/Src/isp_algo.c ****     Meta.exposureTarget = IQParamConfig->AECAlgo.exposureTarget;
 773              		.loc 1 468 5 is_stmt 1 view .LVU254
 468:../../Middlewares/Camera_Middleware/ISP_Library/isp/Src/isp_algo.c ****     Meta.exposureTarget = IQParamConfig->AECAlgo.exposureTarget;
 774              		.loc 1 468 19 is_stmt 0 view .LVU255
 775 0076 1D4B     		ldr	r3, .L61+12
 469:../../Middlewares/Camera_Middleware/ISP_Library/isp/Src/isp_algo.c **** 
 776              		.loc 1 469 25 view .LVU256
 777 0078 F26E     		ldr	r2, [r6, #108]
 468:../../Middlewares/Camera_Middleware/ISP_Library/isp/Src/isp_algo.c ****     Meta.exposureTarget = IQParamConfig->AECAlgo.exposureTarget;
 778              		.loc 1 468 19 view .LVU257
 779 007a 83F80180 		strb	r8, [r3, #1]
 469:../../Middlewares/Camera_Middleware/ISP_Library/isp/Src/isp_algo.c **** 
 780              		.loc 1 469 5 is_stmt 1 view .LVU258
 469:../../Middlewares/Camera_Middleware/ISP_Library/isp/Src/isp_algo.c **** 
 781              		.loc 1 469 25 is_stmt 0 view .LVU259
 782 007e 5A60     		str	r2, [r3, #4]
 472:../../Middlewares/Camera_Middleware/ISP_Library/isp/Src/isp_algo.c ****     if (e_ret == EVISION_RET_SUCCESS)
 783              		.loc 1 472 5 is_stmt 1 view .LVU260
 472:../../Middlewares/Camera_Middleware/ISP_Library/isp/Src/isp_algo.c ****     if (e_ret == EVISION_RET_SUCCESS)
 784              		.loc 1 472 13 is_stmt 0 view .LVU261
 785 0080 3868     		ldr	r0, [r7]
 786              	.LVL58:
 472:../../Middlewares/Camera_Middleware/ISP_Library/isp/Src/isp_algo.c ****     if (e_ret == EVISION_RET_SUCCESS)
 787              		.loc 1 472 13 view .LVU262
 788 0082 4346     		mov	r3, r8
 789 0084 DDE90412 		ldrd	r1, r2, [sp, #16]
 790 0088 FFF7FEFF 		bl	evision_api_st_ae_process
 791              	.LVL59:
 473:../../Middlewares/Camera_Middleware/ISP_Library/isp/Src/isp_algo.c ****     {
 792              		.loc 1 473 5 is_stmt 1 view .LVU263
 473:../../Middlewares/Camera_Middleware/ISP_Library/isp/Src/isp_algo.c ****     {
 793              		.loc 1 473 8 is_stmt 0 view .LVU264
 794 008c 0128     		cmp	r0, #1
 795 008e 0DD0     		beq	.L49
 796              	.LVL60:
 797              	.L52:
 509:../../Middlewares/Camera_Middleware/ISP_Library/isp/Src/isp_algo.c ****                                 ISP_STAT_TYPE_AVG, IQParamConfig->sensorDelay.delay);
 798              		.loc 1 509 5 is_stmt 1 view .LVU265
ARM GAS  C:\Users\Antonio\AppData\Local\Temp\ccP00qEn.s 			page 31


 509:../../Middlewares/Camera_Middleware/ISP_Library/isp/Src/isp_algo.c ****                                 ISP_STAT_TYPE_AVG, IQParamConfig->sensorDelay.delay);
 799              		.loc 1 509 11 is_stmt 0 view .LVU266
 800 0090 96F85632 		ldrb	r3, [r6, #598]	@ zero_extendqisi2
 801 0094 0226     		movs	r6, #2
 802              	.LVL61:
 509:../../Middlewares/Camera_Middleware/ISP_Library/isp/Src/isp_algo.c ****                                 ISP_STAT_TYPE_AVG, IQParamConfig->sensorDelay.delay);
 803              		.loc 1 509 11 view .LVU267
 804 0096 0293     		str	r3, [sp, #8]
 805 0098 0123     		movs	r3, #1
 806 009a 2246     		mov	r2, r4
 807 009c CDE90063 		strd	r6, r3, [sp]
 808 00a0 2846     		mov	r0, r5
 809 00a2 0F4B     		ldr	r3, .L61
 810 00a4 0F49     		ldr	r1, .L61+4
 811 00a6 FFF7FEFF 		bl	ISP_SVC_Stats_GetNext
 812              	.LVL62:
 813 00aa CCE7     		b	.L60
 814              	.LVL63:
 815              	.L49:
 475:../../Middlewares/Camera_Middleware/ISP_Library/isp/Src/isp_algo.c ****       {
 816              		.loc 1 475 7 is_stmt 1 view .LVU268
 475:../../Middlewares/Camera_Middleware/ISP_Library/isp/Src/isp_algo.c ****       {
 817              		.loc 1 475 43 is_stmt 0 view .LVU269
 818 00ac 3B68     		ldr	r3, [r7]
 475:../../Middlewares/Camera_Middleware/ISP_Library/isp/Src/isp_algo.c ****       {
 819              		.loc 1 475 10 view .LVU270
 820 00ae 049A     		ldr	r2, [sp, #16]
 475:../../Middlewares/Camera_Middleware/ISP_Library/isp/Src/isp_algo.c ****       {
 821              		.loc 1 475 43 view .LVU271
 822 00b0 9B68     		ldr	r3, [r3, #8]
 475:../../Middlewares/Camera_Middleware/ISP_Library/isp/Src/isp_algo.c ****       {
 823              		.loc 1 475 10 view .LVU272
 824 00b2 9A42     		cmp	r2, r3
 825 00b4 0CD1     		bne	.L50
 826              	.LVL64:
 827              	.L53:
 491:../../Middlewares/Camera_Middleware/ISP_Library/isp/Src/isp_algo.c ****       {
 828              		.loc 1 491 7 is_stmt 1 view .LVU273
 491:../../Middlewares/Camera_Middleware/ISP_Library/isp/Src/isp_algo.c ****       {
 829              		.loc 1 491 51 is_stmt 0 view .LVU274
 830 00b6 3B68     		ldr	r3, [r7]
 491:../../Middlewares/Camera_Middleware/ISP_Library/isp/Src/isp_algo.c ****       {
 831              		.loc 1 491 10 view .LVU275
 832 00b8 059A     		ldr	r2, [sp, #20]
 491:../../Middlewares/Camera_Middleware/ISP_Library/isp/Src/isp_algo.c ****       {
 833              		.loc 1 491 51 view .LVU276
 834 00ba 5B68     		ldr	r3, [r3, #4]
 491:../../Middlewares/Camera_Middleware/ISP_Library/isp/Src/isp_algo.c ****       {
 835              		.loc 1 491 10 view .LVU277
 836 00bc 9A42     		cmp	r2, r3
 837 00be E7D0     		beq	.L52
 494:../../Middlewares/Camera_Middleware/ISP_Library/isp/Src/isp_algo.c **** 
 838              		.loc 1 494 9 is_stmt 1 view .LVU278
 496:../../Middlewares/Camera_Middleware/ISP_Library/isp/Src/isp_algo.c ****         if (ret != ISP_OK)
 839              		.loc 1 496 15 is_stmt 0 view .LVU279
 840 00c0 2846     		mov	r0, r5
 841 00c2 05A9     		add	r1, sp, #20
ARM GAS  C:\Users\Antonio\AppData\Local\Temp\ccP00qEn.s 			page 32


 494:../../Middlewares/Camera_Middleware/ISP_Library/isp/Src/isp_algo.c **** 
 842              		.loc 1 494 33 view .LVU280
 843 00c4 0593     		str	r3, [sp, #20]
 496:../../Middlewares/Camera_Middleware/ISP_Library/isp/Src/isp_algo.c ****         if (ret != ISP_OK)
 844              		.loc 1 496 9 is_stmt 1 view .LVU281
 496:../../Middlewares/Camera_Middleware/ISP_Library/isp/Src/isp_algo.c ****         if (ret != ISP_OK)
 845              		.loc 1 496 15 is_stmt 0 view .LVU282
 846 00c6 FFF7FEFF 		bl	ISP_SVC_Sensor_SetExposure
 847              	.LVL65:
 497:../../Middlewares/Camera_Middleware/ISP_Library/isp/Src/isp_algo.c ****         {
 848              		.loc 1 497 9 is_stmt 1 view .LVU283
 497:../../Middlewares/Camera_Middleware/ISP_Library/isp/Src/isp_algo.c ****         {
 849              		.loc 1 497 12 is_stmt 0 view .LVU284
 850 00ca 0028     		cmp	r0, #0
 851 00cc E0D0     		beq	.L52
 852 00ce A8E7     		b	.L45
 853              	.LVL66:
 854              	.L50:
 478:../../Middlewares/Camera_Middleware/ISP_Library/isp/Src/isp_algo.c **** 
 855              		.loc 1 478 9 is_stmt 1 view .LVU285
 480:../../Middlewares/Camera_Middleware/ISP_Library/isp/Src/isp_algo.c ****         if (ret != ISP_OK)
 856              		.loc 1 480 15 is_stmt 0 view .LVU286
 857 00d0 2846     		mov	r0, r5
 858              	.LVL67:
 480:../../Middlewares/Camera_Middleware/ISP_Library/isp/Src/isp_algo.c ****         if (ret != ISP_OK)
 859              		.loc 1 480 15 view .LVU287
 860 00d2 04A9     		add	r1, sp, #16
 478:../../Middlewares/Camera_Middleware/ISP_Library/isp/Src/isp_algo.c **** 
 861              		.loc 1 478 25 view .LVU288
 862 00d4 0493     		str	r3, [sp, #16]
 480:../../Middlewares/Camera_Middleware/ISP_Library/isp/Src/isp_algo.c ****         if (ret != ISP_OK)
 863              		.loc 1 480 9 is_stmt 1 view .LVU289
 480:../../Middlewares/Camera_Middleware/ISP_Library/isp/Src/isp_algo.c ****         if (ret != ISP_OK)
 864              		.loc 1 480 15 is_stmt 0 view .LVU290
 865 00d6 FFF7FEFF 		bl	ISP_SVC_Sensor_SetGain
 866              	.LVL68:
 481:../../Middlewares/Camera_Middleware/ISP_Library/isp/Src/isp_algo.c ****         {
 867              		.loc 1 481 9 is_stmt 1 view .LVU291
 481:../../Middlewares/Camera_Middleware/ISP_Library/isp/Src/isp_algo.c ****         {
 868              		.loc 1 481 12 is_stmt 0 view .LVU292
 869 00da 0028     		cmp	r0, #0
 870 00dc EBD0     		beq	.L53
 871 00de A0E7     		b	.L45
 872              	.L62:
 873              		.align	2
 874              	.L61:
 875 00e0 00000000 		.word	stats.9
 876 00e4 00000000 		.word	ISP_Algo_AEC_StatCb
 877 00e8 00000000 		.word	pIspAEprocess
 878 00ec 00000000 		.word	Meta
 879              		.cfi_endproc
 880              	.LFE845:
 882              		.section	.text.ISP_Algo_AWB_Init,"ax",%progbits
 883              		.align	1
 884              		.global	ISP_Algo_AWB_Init
 885              		.syntax unified
 886              		.thumb
ARM GAS  C:\Users\Antonio\AppData\Local\Temp\ccP00qEn.s 			page 33


 887              		.thumb_func
 889              	ISP_Algo_AWB_Init:
 890              	.LVL69:
 891              	.LFB849:
 637:../../Middlewares/Camera_Middleware/ISP_Library/isp/Src/isp_algo.c ****   (void)hIsp; /* unused */
 892              		.loc 1 637 1 is_stmt 1 view -0
 893              		.cfi_startproc
 894              		@ args = 0, pretend = 0, frame = 0
 895              		@ frame_needed = 0, uses_anonymous_args = 0
 638:../../Middlewares/Camera_Middleware/ISP_Library/isp/Src/isp_algo.c ****   ISP_AlgoTypeDef *algo = (ISP_AlgoTypeDef *)pAlgo;
 896              		.loc 1 638 3 view .LVU294
 639:../../Middlewares/Camera_Middleware/ISP_Library/isp/Src/isp_algo.c **** 
 897              		.loc 1 639 3 view .LVU295
 637:../../Middlewares/Camera_Middleware/ISP_Library/isp/Src/isp_algo.c ****   (void)hIsp; /* unused */
 898              		.loc 1 637 1 is_stmt 0 view .LVU296
 899 0000 10B5     		push	{r4, lr}
 900              		.cfi_def_cfa_offset 8
 901              		.cfi_offset 4, -8
 902              		.cfi_offset 14, -4
 642:../../Middlewares/Camera_Middleware/ISP_Library/isp/Src/isp_algo.c ****   if (pIspAWBestimator == NULL)
 903              		.loc 1 642 22 view .LVU297
 904 0002 0648     		ldr	r0, .L66
 905              	.LVL70:
 637:../../Middlewares/Camera_Middleware/ISP_Library/isp/Src/isp_algo.c ****   (void)hIsp; /* unused */
 906              		.loc 1 637 1 view .LVU298
 907 0004 0C46     		mov	r4, r1
 908              	.LVL71:
 642:../../Middlewares/Camera_Middleware/ISP_Library/isp/Src/isp_algo.c ****   if (pIspAWBestimator == NULL)
 909              		.loc 1 642 3 is_stmt 1 view .LVU299
 642:../../Middlewares/Camera_Middleware/ISP_Library/isp/Src/isp_algo.c ****   if (pIspAWBestimator == NULL)
 910              		.loc 1 642 22 is_stmt 0 view .LVU300
 911 0006 FFF7FEFF 		bl	evision_api_awb_new
 912              	.LVL72:
 642:../../Middlewares/Camera_Middleware/ISP_Library/isp/Src/isp_algo.c ****   if (pIspAWBestimator == NULL)
 913              		.loc 1 642 20 discriminator 1 view .LVU301
 914 000a 054B     		ldr	r3, .L66+4
 915 000c 1860     		str	r0, [r3]
 643:../../Middlewares/Camera_Middleware/ISP_Library/isp/Src/isp_algo.c ****   {
 916              		.loc 1 643 3 is_stmt 1 view .LVU302
 643:../../Middlewares/Camera_Middleware/ISP_Library/isp/Src/isp_algo.c ****   {
 917              		.loc 1 643 6 is_stmt 0 view .LVU303
 918 000e 10B1     		cbz	r0, .L65
 650:../../Middlewares/Camera_Middleware/ISP_Library/isp/Src/isp_algo.c **** 
 919              		.loc 1 650 3 is_stmt 1 view .LVU304
 650:../../Middlewares/Camera_Middleware/ISP_Library/isp/Src/isp_algo.c **** 
 920              		.loc 1 650 15 is_stmt 0 view .LVU305
 921 0010 0020     		movs	r0, #0
 922 0012 6070     		strb	r0, [r4, #1]
 652:../../Middlewares/Camera_Middleware/ISP_Library/isp/Src/isp_algo.c **** }
 923              		.loc 1 652 3 is_stmt 1 view .LVU306
 924              	.L64:
 653:../../Middlewares/Camera_Middleware/ISP_Library/isp/Src/isp_algo.c **** 
 925              		.loc 1 653 1 is_stmt 0 view .LVU307
 926 0014 10BD     		pop	{r4, pc}
 927              	.LVL73:
 928              	.L65:
 645:../../Middlewares/Camera_Middleware/ISP_Library/isp/Src/isp_algo.c ****   }
ARM GAS  C:\Users\Antonio\AppData\Local\Temp\ccP00qEn.s 			page 34


 929              		.loc 1 645 12 view .LVU308
 930 0016 BE20     		movs	r0, #190
 931 0018 FCE7     		b	.L64
 932              	.L67:
 933 001a 00BF     		.align	2
 934              	.L66:
 935 001c 00000000 		.word	log_cb
 936 0020 00000000 		.word	pIspAWBestimator
 937              		.cfi_endproc
 938              	.LFE849:
 940              		.section	.text.ISP_Algo_AWB_DeInit,"ax",%progbits
 941              		.align	1
 942              		.global	ISP_Algo_AWB_DeInit
 943              		.syntax unified
 944              		.thumb
 945              		.thumb_func
 947              	ISP_Algo_AWB_DeInit:
 948              	.LVL74:
 949              	.LFB850:
 663:../../Middlewares/Camera_Middleware/ISP_Library/isp/Src/isp_algo.c ****   (void)hIsp; /* unused */
 950              		.loc 1 663 1 is_stmt 1 view -0
 951              		.cfi_startproc
 952              		@ args = 0, pretend = 0, frame = 0
 953              		@ frame_needed = 0, uses_anonymous_args = 0
 664:../../Middlewares/Camera_Middleware/ISP_Library/isp/Src/isp_algo.c ****   (void)pAlgo; /* unused */
 954              		.loc 1 664 3 view .LVU310
 665:../../Middlewares/Camera_Middleware/ISP_Library/isp/Src/isp_algo.c **** 
 955              		.loc 1 665 3 view .LVU311
 667:../../Middlewares/Camera_Middleware/ISP_Library/isp/Src/isp_algo.c ****   {
 956              		.loc 1 667 3 view .LVU312
 663:../../Middlewares/Camera_Middleware/ISP_Library/isp/Src/isp_algo.c ****   (void)hIsp; /* unused */
 957              		.loc 1 663 1 is_stmt 0 view .LVU313
 958 0000 08B5     		push	{r3, lr}
 959              		.cfi_def_cfa_offset 8
 960              		.cfi_offset 3, -8
 961              		.cfi_offset 14, -4
 667:../../Middlewares/Camera_Middleware/ISP_Library/isp/Src/isp_algo.c ****   {
 962              		.loc 1 667 24 view .LVU314
 963 0002 034B     		ldr	r3, .L73
 964 0004 1868     		ldr	r0, [r3]
 965              	.LVL75:
 667:../../Middlewares/Camera_Middleware/ISP_Library/isp/Src/isp_algo.c ****   {
 966              		.loc 1 667 6 view .LVU315
 967 0006 08B1     		cbz	r0, .L69
 669:../../Middlewares/Camera_Middleware/ISP_Library/isp/Src/isp_algo.c ****   }
 968              		.loc 1 669 5 is_stmt 1 view .LVU316
 969 0008 FFF7FEFF 		bl	evision_api_awb_delete
 970              	.LVL76:
 971              	.L69:
 672:../../Middlewares/Camera_Middleware/ISP_Library/isp/Src/isp_algo.c **** }
 972              		.loc 1 672 3 view .LVU317
 673:../../Middlewares/Camera_Middleware/ISP_Library/isp/Src/isp_algo.c **** 
 973              		.loc 1 673 1 is_stmt 0 view .LVU318
 974 000c 0020     		movs	r0, #0
 975 000e 08BD     		pop	{r3, pc}
 976              	.L74:
 977              		.align	2
ARM GAS  C:\Users\Antonio\AppData\Local\Temp\ccP00qEn.s 			page 35


 978              	.L73:
 979 0010 00000000 		.word	pIspAWBestimator
 980              		.cfi_endproc
 981              	.LFE850:
 983              		.section	.text.ISP_Algo_ApplyGammaInverse,"ax",%progbits
 984              		.align	1
 985              		.global	ISP_Algo_ApplyGammaInverse
 986              		.syntax unified
 987              		.thumb
 988              		.thumb_func
 990              	ISP_Algo_ApplyGammaInverse:
 991              	.LVL77:
 992              	.LFB846:
 530:../../Middlewares/Camera_Middleware/ISP_Library/isp/Src/isp_algo.c ****   double out;
 993              		.loc 1 530 1 is_stmt 1 view -0
 994              		.cfi_startproc
 995              		@ args = 0, pretend = 0, frame = 0
 996              		@ frame_needed = 0, uses_anonymous_args = 0
 531:../../Middlewares/Camera_Middleware/ISP_Library/isp/Src/isp_algo.c **** 
 997              		.loc 1 531 3 view .LVU320
 534:../../Middlewares/Camera_Middleware/ISP_Library/isp/Src/isp_algo.c ****     out = 255 * pow((float)comp / 255, 1.0 / 2.2);
 998              		.loc 1 534 3 view .LVU321
 530:../../Middlewares/Camera_Middleware/ISP_Library/isp/Src/isp_algo.c ****   double out;
 999              		.loc 1 530 1 is_stmt 0 view .LVU322
 1000 0000 08B5     		push	{r3, lr}
 1001              		.cfi_def_cfa_offset 8
 1002              		.cfi_offset 3, -8
 1003              		.cfi_offset 14, -4
 1004 0002 2DED028B 		vpush.64	{d8}
 1005              		.cfi_def_cfa_offset 16
 1006              		.cfi_offset 80, -16
 1007              		.cfi_offset 81, -12
 530:../../Middlewares/Camera_Middleware/ISP_Library/isp/Src/isp_algo.c ****   double out;
 1008              		.loc 1 530 1 view .LVU323
 1009 0006 08EE101A 		vmov	s16, r1	@ int
 534:../../Middlewares/Camera_Middleware/ISP_Library/isp/Src/isp_algo.c ****     out = 255 * pow((float)comp / 255, 1.0 / 2.2);
 1010              		.loc 1 534 7 view .LVU324
 1011 000a 0121     		movs	r1, #1
 1012              	.LVL78:
 534:../../Middlewares/Camera_Middleware/ISP_Library/isp/Src/isp_algo.c ****     out = 255 * pow((float)comp / 255, 1.0 / 2.2);
 1013              		.loc 1 534 7 view .LVU325
 1014 000c FFF7FEFF 		bl	ISP_SVC_Misc_IsGammaEnabled
 1015              	.LVL79:
 534:../../Middlewares/Camera_Middleware/ISP_Library/isp/Src/isp_algo.c ****     out = 255 * pow((float)comp / 255, 1.0 / 2.2);
 1016              		.loc 1 534 6 discriminator 1 view .LVU326
 1017 0010 90B1     		cbz	r0, .L76
 1018              	.LVL80:
 1019              	.LBB4:
 1020              	.LBI4:
 529:../../Middlewares/Camera_Middleware/ISP_Library/isp/Src/isp_algo.c **** {
 1021              		.loc 1 529 8 is_stmt 1 view .LVU327
 1022              	.LBB5:
 535:../../Middlewares/Camera_Middleware/ISP_Library/isp/Src/isp_algo.c ****   }
 1023              		.loc 1 535 5 view .LVU328
 535:../../Middlewares/Camera_Middleware/ISP_Library/isp/Src/isp_algo.c ****   }
 1024              		.loc 1 535 33 is_stmt 0 view .LVU329
 1025 0012 DFED0F7A 		vldr.32	s15, .L78+16
ARM GAS  C:\Users\Antonio\AppData\Local\Temp\ccP00qEn.s 			page 36


 535:../../Middlewares/Camera_Middleware/ISP_Library/isp/Src/isp_algo.c ****   }
 1026              		.loc 1 535 21 view .LVU330
 1027 0016 B8EE488A 		vcvt.f32.u32	s16, s16
 1028              	.LVL81:
 535:../../Middlewares/Camera_Middleware/ISP_Library/isp/Src/isp_algo.c ****   }
 1029              		.loc 1 535 33 view .LVU331
 1030 001a 88EE270A 		vdiv.f32	s0, s16, s15
 535:../../Middlewares/Camera_Middleware/ISP_Library/isp/Src/isp_algo.c ****   }
 1031              		.loc 1 535 17 view .LVU332
 1032 001e 9FED081B 		vldr.64	d1, .L78
 1033 0022 B7EEC00A 		vcvt.f64.f32	d0, s0
 1034 0026 FFF7FEFF 		bl	pow
 1035              	.LVL82:
 535:../../Middlewares/Camera_Middleware/ISP_Library/isp/Src/isp_algo.c ****   }
 1036              		.loc 1 535 9 discriminator 1 view .LVU333
 1037 002a 9FED077B 		vldr.64	d7, .L78+8
 1038 002e 20EE070B 		vmul.f64	d0, d0, d7
 1039              	.LVL83:
 541:../../Middlewares/Camera_Middleware/ISP_Library/isp/Src/isp_algo.c **** }
 1040              		.loc 1 541 3 is_stmt 1 view .LVU334
 1041              	.L75:
 541:../../Middlewares/Camera_Middleware/ISP_Library/isp/Src/isp_algo.c **** }
 1042              		.loc 1 541 3 is_stmt 0 view .LVU335
 1043              	.LBE5:
 1044              	.LBE4:
 542:../../Middlewares/Camera_Middleware/ISP_Library/isp/Src/isp_algo.c **** 
 1045              		.loc 1 542 1 view .LVU336
 1046 0032 BDEC028B 		vldm	sp!, {d8}
 1047              		.cfi_remember_state
 1048              		.cfi_restore 80
 1049              		.cfi_restore 81
 1050              		.cfi_def_cfa_offset 8
 1051 0036 08BD     		pop	{r3, pc}
 1052              	.LVL84:
 1053              	.L76:
 1054              		.cfi_restore_state
 539:../../Middlewares/Camera_Middleware/ISP_Library/isp/Src/isp_algo.c ****   }
 1055              		.loc 1 539 5 is_stmt 1 view .LVU337
 539:../../Middlewares/Camera_Middleware/ISP_Library/isp/Src/isp_algo.c ****   }
 1056              		.loc 1 539 9 is_stmt 0 view .LVU338
 1057 0038 B8EE480B 		vcvt.f64.u32	d0, s16
 1058              	.LVL85:
 541:../../Middlewares/Camera_Middleware/ISP_Library/isp/Src/isp_algo.c **** }
 1059              		.loc 1 541 3 is_stmt 1 view .LVU339
 541:../../Middlewares/Camera_Middleware/ISP_Library/isp/Src/isp_algo.c **** }
 1060              		.loc 1 541 10 is_stmt 0 view .LVU340
 1061 003c F9E7     		b	.L75
 1062              	.L79:
 1063 003e 00BF     		.align	3
 1064              	.L78:
 1065 0040 175D74D1 		.word	-780903145
 1066 0044 4517DD3F 		.word	1071454021
 1067 0048 00000000 		.word	0
 1068 004c 00E06F40 		.word	1081073664
 1069 0050 00007F43 		.word	1132396544
 1070              		.cfi_endproc
 1071              	.LFE846:
ARM GAS  C:\Users\Antonio\AppData\Local\Temp\ccP00qEn.s 			page 37


 1073              		.global	__aeabi_uldivmod
 1074              		.global	__aeabi_ldivmod
 1075              		.section	.text.ISP_Algo_GetUpStat,"ax",%progbits
 1076              		.align	1
 1077              		.global	ISP_Algo_GetUpStat
 1078              		.syntax unified
 1079              		.thumb
 1080              		.thumb_func
 1082              	ISP_Algo_GetUpStat:
 1083              	.LVL86:
 1084              	.LFB847:
 551:../../Middlewares/Camera_Middleware/ISP_Library/isp/Src/isp_algo.c ****   ISP_ISPGainTypeDef ISPGain;
 1085              		.loc 1 551 1 is_stmt 1 view -0
 1086              		.cfi_startproc
 1087              		@ args = 0, pretend = 0, frame = 24
 1088              		@ frame_needed = 0, uses_anonymous_args = 0
 552:../../Middlewares/Camera_Middleware/ISP_Library/isp/Src/isp_algo.c ****   ISP_BlackLevelTypeDef BlackLevel;
 1089              		.loc 1 552 3 view .LVU342
 553:../../Middlewares/Camera_Middleware/ISP_Library/isp/Src/isp_algo.c ****   int64_t upR, upG, upB;
 1090              		.loc 1 553 3 view .LVU343
 554:../../Middlewares/Camera_Middleware/ISP_Library/isp/Src/isp_algo.c **** 
 1091              		.loc 1 554 3 view .LVU344
 556:../../Middlewares/Camera_Middleware/ISP_Library/isp/Src/isp_algo.c ****   {
 1092              		.loc 1 556 3 view .LVU345
 551:../../Middlewares/Camera_Middleware/ISP_Library/isp/Src/isp_algo.c ****   ISP_ISPGainTypeDef ISPGain;
 1093              		.loc 1 551 1 is_stmt 0 view .LVU346
 1094 0000 2DE9F043 		push	{r4, r5, r6, r7, r8, r9, lr}
 1095              		.cfi_def_cfa_offset 28
 1096              		.cfi_offset 4, -28
 1097              		.cfi_offset 5, -24
 1098              		.cfi_offset 6, -20
 1099              		.cfi_offset 7, -16
 1100              		.cfi_offset 8, -12
 1101              		.cfi_offset 9, -8
 1102              		.cfi_offset 14, -4
 1103 0004 87B0     		sub	sp, sp, #28
 1104              		.cfi_def_cfa_offset 56
 551:../../Middlewares/Camera_Middleware/ISP_Library/isp/Src/isp_algo.c ****   ISP_ISPGainTypeDef ISPGain;
 1105              		.loc 1 551 1 view .LVU347
 1106 0006 0C46     		mov	r4, r1
 556:../../Middlewares/Camera_Middleware/ISP_Library/isp/Src/isp_algo.c ****   {
 1107              		.loc 1 556 8 view .LVU348
 1108 0008 02A9     		add	r1, sp, #8
 1109              	.LVL87:
 551:../../Middlewares/Camera_Middleware/ISP_Library/isp/Src/isp_algo.c ****   ISP_ISPGainTypeDef ISPGain;
 1110              		.loc 1 551 1 view .LVU349
 1111 000a 8046     		mov	r8, r0
 556:../../Middlewares/Camera_Middleware/ISP_Library/isp/Src/isp_algo.c ****   {
 1112              		.loc 1 556 8 view .LVU350
 1113 000c FFF7FEFF 		bl	ISP_SVC_ISP_GetGain
 1114              	.LVL88:
 556:../../Middlewares/Camera_Middleware/ISP_Library/isp/Src/isp_algo.c ****   {
 1115              		.loc 1 556 8 view .LVU351
 1116 0010 94F83670 		ldrb	r7, [r4, #54]	@ zero_extendqisi2
 556:../../Middlewares/Camera_Middleware/ISP_Library/isp/Src/isp_algo.c ****   {
 1117              		.loc 1 556 6 discriminator 1 view .LVU352
 1118 0014 0646     		mov	r6, r0
ARM GAS  C:\Users\Antonio\AppData\Local\Temp\ccP00qEn.s 			page 38


 1119 0016 0028     		cmp	r0, #0
 1120 0018 3BD1     		bne	.L81
 556:../../Middlewares/Camera_Middleware/ISP_Library/isp/Src/isp_algo.c ****   {
 1121              		.loc 1 556 55 discriminator 1 view .LVU353
 1122 001a 9DF80830 		ldrb	r3, [sp, #8]	@ zero_extendqisi2
 1123 001e 012B     		cmp	r3, #1
 1124 0020 37D1     		bne	.L81
 560:../../Middlewares/Camera_Middleware/ISP_Library/isp/Src/isp_algo.c ****     upG = (int64_t) pStats->down.averageG * ISP_GAIN_PRECISION_FACTOR / ISPGain.ispGainG;
 1125              		.loc 1 560 5 is_stmt 1 view .LVU354
 1126              	.LVL89:
 561:../../Middlewares/Camera_Middleware/ISP_Library/isp/Src/isp_algo.c ****     upB = (int64_t) pStats->down.averageB * ISP_GAIN_PRECISION_FACTOR / ISPGain.ispGainB;
 1127              		.loc 1 561 5 view .LVU355
 561:../../Middlewares/Camera_Middleware/ISP_Library/isp/Src/isp_algo.c ****     upB = (int64_t) pStats->down.averageB * ISP_GAIN_PRECISION_FACTOR / ISPGain.ispGainB;
 1128              		.loc 1 561 43 is_stmt 0 view .LVU356
 1129 0022 1E4D     		ldr	r5, .L83
 561:../../Middlewares/Camera_Middleware/ISP_Library/isp/Src/isp_algo.c ****     upB = (int64_t) pStats->down.averageB * ISP_GAIN_PRECISION_FACTOR / ISPGain.ispGainB;
 1130              		.loc 1 561 11 view .LVU357
 1131 0024 94F83510 		ldrb	r1, [r4, #53]	@ zero_extendqisi2
 561:../../Middlewares/Camera_Middleware/ISP_Library/isp/Src/isp_algo.c ****     upB = (int64_t) pStats->down.averageB * ISP_GAIN_PRECISION_FACTOR / ISPGain.ispGainB;
 1132              		.loc 1 561 9 view .LVU358
 1133 0028 0346     		mov	r3, r0
 1134 002a 049A     		ldr	r2, [sp, #16]
 1135 002c A1FB0501 		umull	r0, r1, r1, r5
 1136 0030 FFF7FEFF 		bl	__aeabi_ldivmod
 1137              	.LVL90:
 562:../../Middlewares/Camera_Middleware/ISP_Library/isp/Src/isp_algo.c **** 
 1138              		.loc 1 562 9 view .LVU359
 1139 0034 3346     		mov	r3, r6
 561:../../Middlewares/Camera_Middleware/ISP_Library/isp/Src/isp_algo.c ****     upB = (int64_t) pStats->down.averageB * ISP_GAIN_PRECISION_FACTOR / ISPGain.ispGainB;
 1140              		.loc 1 561 9 view .LVU360
 1141 0036 8146     		mov	r9, r0
 1142              	.LVL91:
 562:../../Middlewares/Camera_Middleware/ISP_Library/isp/Src/isp_algo.c **** 
 1143              		.loc 1 562 5 is_stmt 1 view .LVU361
 562:../../Middlewares/Camera_Middleware/ISP_Library/isp/Src/isp_algo.c **** 
 1144              		.loc 1 562 9 is_stmt 0 view .LVU362
 1145 0038 059A     		ldr	r2, [sp, #20]
 1146 003a A7FB0501 		umull	r0, r1, r7, r5
 1147              	.LVL92:
 562:../../Middlewares/Camera_Middleware/ISP_Library/isp/Src/isp_algo.c **** 
 1148              		.loc 1 562 9 view .LVU363
 1149 003e FFF7FEFF 		bl	__aeabi_ldivmod
 1150              	.LVL93:
 560:../../Middlewares/Camera_Middleware/ISP_Library/isp/Src/isp_algo.c ****     upG = (int64_t) pStats->down.averageG * ISP_GAIN_PRECISION_FACTOR / ISPGain.ispGainG;
 1151              		.loc 1 560 11 view .LVU364
 1152 0042 94F83410 		ldrb	r1, [r4, #52]	@ zero_extendqisi2
 562:../../Middlewares/Camera_Middleware/ISP_Library/isp/Src/isp_algo.c **** 
 1153              		.loc 1 562 9 view .LVU365
 1154 0046 0746     		mov	r7, r0
 1155              	.LVL94:
 564:../../Middlewares/Camera_Middleware/ISP_Library/isp/Src/isp_algo.c ****     pStats->up.averageG = (uint32_t) upG;
 1156              		.loc 1 564 5 is_stmt 1 view .LVU366
 560:../../Middlewares/Camera_Middleware/ISP_Library/isp/Src/isp_algo.c ****     upG = (int64_t) pStats->down.averageG * ISP_GAIN_PRECISION_FACTOR / ISPGain.ispGainG;
 1157              		.loc 1 560 9 is_stmt 0 view .LVU367
 1158 0048 3346     		mov	r3, r6
 1159 004a A1FB0501 		umull	r0, r1, r1, r5
 560:../../Middlewares/Camera_Middleware/ISP_Library/isp/Src/isp_algo.c ****     upG = (int64_t) pStats->down.averageG * ISP_GAIN_PRECISION_FACTOR / ISPGain.ispGainG;
ARM GAS  C:\Users\Antonio\AppData\Local\Temp\ccP00qEn.s 			page 39


 1160              		.loc 1 560 9 view .LVU368
 1161 004e 039A     		ldr	r2, [sp, #12]
 1162 0050 FFF7FEFF 		bl	__aeabi_ldivmod
 1163              	.LVL95:
 565:../../Middlewares/Camera_Middleware/ISP_Library/isp/Src/isp_algo.c ****     pStats->up.averageB = (uint32_t) upB;
 1164              		.loc 1 565 25 view .LVU369
 1165 0054 84F80190 		strb	r9, [r4, #1]
 564:../../Middlewares/Camera_Middleware/ISP_Library/isp/Src/isp_algo.c ****     pStats->up.averageG = (uint32_t) upG;
 1166              		.loc 1 564 25 view .LVU370
 1167 0058 2070     		strb	r0, [r4]
 565:../../Middlewares/Camera_Middleware/ISP_Library/isp/Src/isp_algo.c ****     pStats->up.averageB = (uint32_t) upB;
 1168              		.loc 1 565 5 is_stmt 1 view .LVU371
 566:../../Middlewares/Camera_Middleware/ISP_Library/isp/Src/isp_algo.c **** 
 1169              		.loc 1 566 5 view .LVU372
 566:../../Middlewares/Camera_Middleware/ISP_Library/isp/Src/isp_algo.c **** 
 1170              		.loc 1 566 25 is_stmt 0 view .LVU373
 1171 005a A770     		strb	r7, [r4, #2]
 568:../../Middlewares/Camera_Middleware/ISP_Library/isp/Src/isp_algo.c ****     {
 1172              		.loc 1 568 5 is_stmt 1 view .LVU374
 568:../../Middlewares/Camera_Middleware/ISP_Library/isp/Src/isp_algo.c ****     {
 1173              		.loc 1 568 10 is_stmt 0 view .LVU375
 1174 005c 4046     		mov	r0, r8
 1175 005e 01A9     		add	r1, sp, #4
 1176 0060 FFF7FEFF 		bl	ISP_SVC_ISP_GetBlackLevel
 1177              	.LVL96:
 568:../../Middlewares/Camera_Middleware/ISP_Library/isp/Src/isp_algo.c ****     {
 1178              		.loc 1 568 8 discriminator 1 view .LVU376
 1179 0064 90B9     		cbnz	r0, .L80
 568:../../Middlewares/Camera_Middleware/ISP_Library/isp/Src/isp_algo.c ****     {
 1180              		.loc 1 568 66 discriminator 1 view .LVU377
 1181 0066 9DF80430 		ldrb	r3, [sp, #4]	@ zero_extendqisi2
 1182 006a 012B     		cmp	r3, #1
 1183 006c 0ED1     		bne	.L80
 571:../../Middlewares/Camera_Middleware/ISP_Library/isp/Src/isp_algo.c ****     pStats->up.averageG += BlackLevel.BLCG;
 1184              		.loc 1 571 5 is_stmt 1 view .LVU378
 571:../../Middlewares/Camera_Middleware/ISP_Library/isp/Src/isp_algo.c ****     pStats->up.averageG += BlackLevel.BLCG;
 1185              		.loc 1 571 25 is_stmt 0 view .LVU379
 1186 006e 2378     		ldrb	r3, [r4]	@ zero_extendqisi2
 1187 0070 9DF80520 		ldrb	r2, [sp, #5]	@ zero_extendqisi2
 1188 0074 1344     		add	r3, r3, r2
 1189 0076 2370     		strb	r3, [r4]
 572:../../Middlewares/Camera_Middleware/ISP_Library/isp/Src/isp_algo.c ****     pStats->up.averageB += BlackLevel.BLCB;
 1190              		.loc 1 572 5 is_stmt 1 view .LVU380
 572:../../Middlewares/Camera_Middleware/ISP_Library/isp/Src/isp_algo.c ****     pStats->up.averageB += BlackLevel.BLCB;
 1191              		.loc 1 572 25 is_stmt 0 view .LVU381
 1192 0078 9DF80620 		ldrb	r2, [sp, #6]	@ zero_extendqisi2
 1193 007c 6378     		ldrb	r3, [r4, #1]	@ zero_extendqisi2
 1194 007e 1344     		add	r3, r3, r2
 1195 0080 6370     		strb	r3, [r4, #1]
 573:../../Middlewares/Camera_Middleware/ISP_Library/isp/Src/isp_algo.c ****     }
 1196              		.loc 1 573 5 is_stmt 1 view .LVU382
 573:../../Middlewares/Camera_Middleware/ISP_Library/isp/Src/isp_algo.c ****     }
 1197              		.loc 1 573 25 is_stmt 0 view .LVU383
 1198 0082 9DF80720 		ldrb	r2, [sp, #7]	@ zero_extendqisi2
 1199 0086 A378     		ldrb	r3, [r4, #2]	@ zero_extendqisi2
 1200 0088 1344     		add	r3, r3, r2
 1201 008a A370     		strb	r3, [r4, #2]
ARM GAS  C:\Users\Antonio\AppData\Local\Temp\ccP00qEn.s 			page 40


 1202              	.LVL97:
 1203              	.L80:
 582:../../Middlewares/Camera_Middleware/ISP_Library/isp/Src/isp_algo.c **** 
 1204              		.loc 1 582 1 view .LVU384
 1205 008c 07B0     		add	sp, sp, #28
 1206              		.cfi_remember_state
 1207              		.cfi_def_cfa_offset 28
 1208              		@ sp needed
 1209 008e BDE8F083 		pop	{r4, r5, r6, r7, r8, r9, pc}
 1210              	.LVL98:
 1211              	.L81:
 1212              		.cfi_restore_state
 578:../../Middlewares/Camera_Middleware/ISP_Library/isp/Src/isp_algo.c ****     pStats->up.averageG = pStats->down.averageG;
 1213              		.loc 1 578 5 is_stmt 1 view .LVU385
 579:../../Middlewares/Camera_Middleware/ISP_Library/isp/Src/isp_algo.c ****     pStats->up.averageB = pStats->down.averageB;
 1214              		.loc 1 579 5 view .LVU386
 580:../../Middlewares/Camera_Middleware/ISP_Library/isp/Src/isp_algo.c ****   }
 1215              		.loc 1 580 5 view .LVU387
 578:../../Middlewares/Camera_Middleware/ISP_Library/isp/Src/isp_algo.c ****     pStats->up.averageG = pStats->down.averageG;
 1216              		.loc 1 578 25 is_stmt 0 view .LVU388
 1217 0092 A38E     		ldrh	r3, [r4, #52]
 580:../../Middlewares/Camera_Middleware/ISP_Library/isp/Src/isp_algo.c ****   }
 1218              		.loc 1 580 25 view .LVU389
 1219 0094 A770     		strb	r7, [r4, #2]
 578:../../Middlewares/Camera_Middleware/ISP_Library/isp/Src/isp_algo.c ****     pStats->up.averageG = pStats->down.averageG;
 1220              		.loc 1 578 25 view .LVU390
 1221 0096 2380     		strh	r3, [r4]	@ movhi
 582:../../Middlewares/Camera_Middleware/ISP_Library/isp/Src/isp_algo.c **** 
 1222              		.loc 1 582 1 view .LVU391
 1223 0098 F8E7     		b	.L80
 1224              	.L84:
 1225 009a 00BF     		.align	2
 1226              	.L83:
 1227 009c 00E1F505 		.word	100000000
 1228              		.cfi_endproc
 1229              	.LFE847:
 1231              		.section	.text.ISP_Algo_ApplyCConv,"ax",%progbits
 1232              		.align	1
 1233              		.global	ISP_Algo_ApplyCConv
 1234              		.syntax unified
 1235              		.thumb
 1236              		.thumb_func
 1238              	ISP_Algo_ApplyCConv:
 1239              	.LVL99:
 1240              	.LFB848:
 597:../../Middlewares/Camera_Middleware/ISP_Library/isp/Src/isp_algo.c ****   ISP_ColorConvTypeDef colorConv;
 1241              		.loc 1 597 1 is_stmt 1 view -0
 1242              		.cfi_startproc
 1243              		@ args = 12, pretend = 0, frame = 40
 1244              		@ frame_needed = 0, uses_anonymous_args = 0
 598:../../Middlewares/Camera_Middleware/ISP_Library/isp/Src/isp_algo.c ****   int64_t ccR, ccG, ccB;
 1245              		.loc 1 598 3 view .LVU393
 599:../../Middlewares/Camera_Middleware/ISP_Library/isp/Src/isp_algo.c **** 
 1246              		.loc 1 599 3 view .LVU394
 601:../../Middlewares/Camera_Middleware/ISP_Library/isp/Src/isp_algo.c ****   {
 1247              		.loc 1 601 3 view .LVU395
 597:../../Middlewares/Camera_Middleware/ISP_Library/isp/Src/isp_algo.c ****   ISP_ColorConvTypeDef colorConv;
ARM GAS  C:\Users\Antonio\AppData\Local\Temp\ccP00qEn.s 			page 41


 1248              		.loc 1 597 1 is_stmt 0 view .LVU396
 1249 0000 2DE9F043 		push	{r4, r5, r6, r7, r8, r9, lr}
 1250              		.cfi_def_cfa_offset 28
 1251              		.cfi_offset 4, -28
 1252              		.cfi_offset 5, -24
 1253              		.cfi_offset 6, -20
 1254              		.cfi_offset 7, -16
 1255              		.cfi_offset 8, -12
 1256              		.cfi_offset 9, -8
 1257              		.cfi_offset 14, -4
 1258 0004 8BB0     		sub	sp, sp, #44
 1259              		.cfi_def_cfa_offset 72
 597:../../Middlewares/Camera_Middleware/ISP_Library/isp/Src/isp_algo.c ****   ISP_ColorConvTypeDef colorConv;
 1260              		.loc 1 597 1 view .LVU397
 1261 0006 0E46     		mov	r6, r1
 601:../../Middlewares/Camera_Middleware/ISP_Library/isp/Src/isp_algo.c ****   {
 1262              		.loc 1 601 8 view .LVU398
 1263 0008 6946     		mov	r1, sp
 1264              	.LVL100:
 597:../../Middlewares/Camera_Middleware/ISP_Library/isp/Src/isp_algo.c ****   ISP_ColorConvTypeDef colorConv;
 1265              		.loc 1 597 1 view .LVU399
 1266 000a 1546     		mov	r5, r2
 1267 000c 1C46     		mov	r4, r3
 601:../../Middlewares/Camera_Middleware/ISP_Library/isp/Src/isp_algo.c ****   {
 1268              		.loc 1 601 8 view .LVU400
 1269 000e FFF7FEFF 		bl	ISP_SVC_ISP_GetColorConv
 1270              	.LVL101:
 601:../../Middlewares/Camera_Middleware/ISP_Library/isp/Src/isp_algo.c ****   {
 1271              		.loc 1 601 6 discriminator 1 view .LVU401
 1272 0012 0246     		mov	r2, r0
 1273 0014 0028     		cmp	r0, #0
 1274 0016 40F09680 		bne	.L86
 601:../../Middlewares/Camera_Middleware/ISP_Library/isp/Src/isp_algo.c ****   {
 1275              		.loc 1 601 62 discriminator 1 view .LVU402
 1276 001a 9DF80030 		ldrb	r3, [sp]	@ zero_extendqisi2
 1277 001e 012B     		cmp	r3, #1
 1278 0020 40F09180 		bne	.L86
 604:../../Middlewares/Camera_Middleware/ISP_Library/isp/Src/isp_algo.c ****     ccG = (int64_t) inR * colorConv.coeff[1][0] + (int64_t) inG * colorConv.coeff[1][1] + (int64_t)
 1279              		.loc 1 604 5 is_stmt 1 view .LVU403
 604:../../Middlewares/Camera_Middleware/ISP_Library/isp/Src/isp_algo.c ****     ccG = (int64_t) inR * colorConv.coeff[1][0] + (int64_t) inG * colorConv.coeff[1][1] + (int64_t)
 1280              		.loc 1 604 45 is_stmt 0 view .LVU404
 1281 0024 019B     		ldr	r3, [sp, #4]
 1282 0026 D917     		asrs	r1, r3, #31
 604:../../Middlewares/Camera_Middleware/ISP_Library/isp/Src/isp_algo.c ****     ccG = (int64_t) inR * colorConv.coeff[1][0] + (int64_t) inG * colorConv.coeff[1][1] + (int64_t)
 1283              		.loc 1 604 25 view .LVU405
 1284 0028 A3FB0637 		umull	r3, r7, r3, r6
 1285 002c 06FB0177 		mla	r7, r6, r1, r7
 604:../../Middlewares/Camera_Middleware/ISP_Library/isp/Src/isp_algo.c ****     ccG = (int64_t) inR * colorConv.coeff[1][0] + (int64_t) inG * colorConv.coeff[1][1] + (int64_t)
 1286              		.loc 1 604 85 view .LVU406
 1287 0030 0299     		ldr	r1, [sp, #8]
 1288 0032 4FEAE17C 		asr	ip, r1, #31
 604:../../Middlewares/Camera_Middleware/ISP_Library/isp/Src/isp_algo.c ****     ccG = (int64_t) inR * colorConv.coeff[1][0] + (int64_t) inG * colorConv.coeff[1][1] + (int64_t)
 1289              		.loc 1 604 65 view .LVU407
 1290 0036 A1FB0510 		umull	r1, r0, r1, r5
 1291 003a 05FB0C00 		mla	r0, r5, ip, r0
 604:../../Middlewares/Camera_Middleware/ISP_Library/isp/Src/isp_algo.c ****     ccG = (int64_t) inR * colorConv.coeff[1][0] + (int64_t) inG * colorConv.coeff[1][1] + (int64_t)
 1292              		.loc 1 604 49 view .LVU408
ARM GAS  C:\Users\Antonio\AppData\Local\Temp\ccP00qEn.s 			page 42


 1293 003e 5B18     		adds	r3, r3, r1
 1294 0040 47EB0007 		adc	r7, r7, r0
 604:../../Middlewares/Camera_Middleware/ISP_Library/isp/Src/isp_algo.c ****     ccG = (int64_t) inR * colorConv.coeff[1][0] + (int64_t) inG * colorConv.coeff[1][1] + (int64_t)
 1295              		.loc 1 604 125 view .LVU409
 1296 0044 0398     		ldr	r0, [sp, #12]
 1297 0046 4FEAE07C 		asr	ip, r0, #31
 604:../../Middlewares/Camera_Middleware/ISP_Library/isp/Src/isp_algo.c ****     ccG = (int64_t) inR * colorConv.coeff[1][0] + (int64_t) inG * colorConv.coeff[1][1] + (int64_t)
 1298              		.loc 1 604 105 view .LVU410
 1299 004a A0FB0401 		umull	r0, r1, r0, r4
 1300 004e 04FB0C11 		mla	r1, r4, ip, r1
 604:../../Middlewares/Camera_Middleware/ISP_Library/isp/Src/isp_algo.c ****     ccG = (int64_t) inR * colorConv.coeff[1][0] + (int64_t) inG * colorConv.coeff[1][1] + (int64_t)
 1301              		.loc 1 604 9 view .LVU411
 1302 0052 1818     		adds	r0, r3, r0
 605:../../Middlewares/Camera_Middleware/ISP_Library/isp/Src/isp_algo.c ****     ccB = (int64_t) inR * colorConv.coeff[2][0] + (int64_t) inG * colorConv.coeff[2][1] + (int64_t)
 1303              		.loc 1 605 45 view .LVU412
 1304 0054 049B     		ldr	r3, [sp, #16]
 604:../../Middlewares/Camera_Middleware/ISP_Library/isp/Src/isp_algo.c ****     ccG = (int64_t) inR * colorConv.coeff[1][0] + (int64_t) inG * colorConv.coeff[1][1] + (int64_t)
 1305              		.loc 1 604 9 view .LVU413
 1306 0056 41EB0701 		adc	r1, r1, r7
 1307              	.LVL102:
 605:../../Middlewares/Camera_Middleware/ISP_Library/isp/Src/isp_algo.c ****     ccB = (int64_t) inR * colorConv.coeff[2][0] + (int64_t) inG * colorConv.coeff[2][1] + (int64_t)
 1308              		.loc 1 605 5 is_stmt 1 view .LVU414
 605:../../Middlewares/Camera_Middleware/ISP_Library/isp/Src/isp_algo.c ****     ccB = (int64_t) inR * colorConv.coeff[2][0] + (int64_t) inG * colorConv.coeff[2][1] + (int64_t)
 1309              		.loc 1 605 45 is_stmt 0 view .LVU415
 1310 005a DF17     		asrs	r7, r3, #31
 605:../../Middlewares/Camera_Middleware/ISP_Library/isp/Src/isp_algo.c ****     ccB = (int64_t) inR * colorConv.coeff[2][0] + (int64_t) inG * colorConv.coeff[2][1] + (int64_t)
 1311              		.loc 1 605 25 view .LVU416
 1312 005c A3FB0683 		umull	r8, r3, r3, r6
 1313 0060 06FB0733 		mla	r3, r6, r7, r3
 605:../../Middlewares/Camera_Middleware/ISP_Library/isp/Src/isp_algo.c ****     ccB = (int64_t) inR * colorConv.coeff[2][0] + (int64_t) inG * colorConv.coeff[2][1] + (int64_t)
 1314              		.loc 1 605 85 view .LVU417
 1315 0064 059F     		ldr	r7, [sp, #20]
 605:../../Middlewares/Camera_Middleware/ISP_Library/isp/Src/isp_algo.c ****     ccB = (int64_t) inR * colorConv.coeff[2][0] + (int64_t) inG * colorConv.coeff[2][1] + (int64_t)
 1316              		.loc 1 605 65 view .LVU418
 1317 0066 A7FB05CE 		umull	ip, lr, r7, r5
 605:../../Middlewares/Camera_Middleware/ISP_Library/isp/Src/isp_algo.c ****     ccB = (int64_t) inR * colorConv.coeff[2][0] + (int64_t) inG * colorConv.coeff[2][1] + (int64_t)
 1318              		.loc 1 605 85 view .LVU419
 1319 006a 4FEAE779 		asr	r9, r7, #31
 605:../../Middlewares/Camera_Middleware/ISP_Library/isp/Src/isp_algo.c ****     ccB = (int64_t) inR * colorConv.coeff[2][0] + (int64_t) inG * colorConv.coeff[2][1] + (int64_t)
 1320              		.loc 1 605 65 view .LVU420
 1321 006e 05FB09EE 		mla	lr, r5, r9, lr
 605:../../Middlewares/Camera_Middleware/ISP_Library/isp/Src/isp_algo.c ****     ccB = (int64_t) inR * colorConv.coeff[2][0] + (int64_t) inG * colorConv.coeff[2][1] + (int64_t)
 1322              		.loc 1 605 49 view .LVU421
 1323 0072 18EB0C07 		adds	r7, r8, ip
 605:../../Middlewares/Camera_Middleware/ISP_Library/isp/Src/isp_algo.c ****     ccB = (int64_t) inR * colorConv.coeff[2][0] + (int64_t) inG * colorConv.coeff[2][1] + (int64_t)
 1324              		.loc 1 605 125 view .LVU422
 1325 0076 DDF818C0 		ldr	ip, [sp, #24]
 605:../../Middlewares/Camera_Middleware/ISP_Library/isp/Src/isp_algo.c ****     ccB = (int64_t) inR * colorConv.coeff[2][0] + (int64_t) inG * colorConv.coeff[2][1] + (int64_t)
 1326              		.loc 1 605 49 view .LVU423
 1327 007a 43EB0E03 		adc	r3, r3, lr
 605:../../Middlewares/Camera_Middleware/ISP_Library/isp/Src/isp_algo.c ****     ccB = (int64_t) inR * colorConv.coeff[2][0] + (int64_t) inG * colorConv.coeff[2][1] + (int64_t)
 1328              		.loc 1 605 125 view .LVU424
 1329 007e 4FEAEC7E 		asr	lr, ip, #31
 605:../../Middlewares/Camera_Middleware/ISP_Library/isp/Src/isp_algo.c ****     ccB = (int64_t) inR * colorConv.coeff[2][0] + (int64_t) inG * colorConv.coeff[2][1] + (int64_t)
 1330              		.loc 1 605 105 view .LVU425
 1331 0082 ACFB04C8 		umull	ip, r8, ip, r4
 1332 0086 04FB0E88 		mla	r8, r4, lr, r8
ARM GAS  C:\Users\Antonio\AppData\Local\Temp\ccP00qEn.s 			page 43


 605:../../Middlewares/Camera_Middleware/ISP_Library/isp/Src/isp_algo.c ****     ccB = (int64_t) inR * colorConv.coeff[2][0] + (int64_t) inG * colorConv.coeff[2][1] + (int64_t)
 1333              		.loc 1 605 9 view .LVU426
 1334 008a 17EB0C07 		adds	r7, r7, ip
 1335 008e 48EB0308 		adc	r8, r8, r3
 1336              	.LVL103:
 606:../../Middlewares/Camera_Middleware/ISP_Library/isp/Src/isp_algo.c **** 
 1337              		.loc 1 606 5 is_stmt 1 view .LVU427
 606:../../Middlewares/Camera_Middleware/ISP_Library/isp/Src/isp_algo.c **** 
 1338              		.loc 1 606 45 is_stmt 0 view .LVU428
 1339 0092 079B     		ldr	r3, [sp, #28]
 1340 0094 4FEAE37C 		asr	ip, r3, #31
 606:../../Middlewares/Camera_Middleware/ISP_Library/isp/Src/isp_algo.c **** 
 1341              		.loc 1 606 25 view .LVU429
 1342 0098 A3FB06E3 		umull	lr, r3, r3, r6
 1343 009c 06FB0C3C 		mla	ip, r6, ip, r3
 606:../../Middlewares/Camera_Middleware/ISP_Library/isp/Src/isp_algo.c **** 
 1344              		.loc 1 606 85 view .LVU430
 1345 00a0 089B     		ldr	r3, [sp, #32]
 1346 00a2 4FEAE379 		asr	r9, r3, #31
 606:../../Middlewares/Camera_Middleware/ISP_Library/isp/Src/isp_algo.c **** 
 1347              		.loc 1 606 65 view .LVU431
 1348 00a6 A3FB0536 		umull	r3, r6, r3, r5
 1349              	.LVL104:
 606:../../Middlewares/Camera_Middleware/ISP_Library/isp/Src/isp_algo.c **** 
 1350              		.loc 1 606 65 view .LVU432
 1351 00aa 05FB0965 		mla	r5, r5, r9, r6
 1352              	.LVL105:
 606:../../Middlewares/Camera_Middleware/ISP_Library/isp/Src/isp_algo.c **** 
 1353              		.loc 1 606 49 view .LVU433
 1354 00ae 1EEB0303 		adds	r3, lr, r3
 1355 00b2 4CEB050C 		adc	ip, ip, r5
 606:../../Middlewares/Camera_Middleware/ISP_Library/isp/Src/isp_algo.c **** 
 1356              		.loc 1 606 125 view .LVU434
 1357 00b6 099D     		ldr	r5, [sp, #36]
 1358 00b8 4FEAE57E 		asr	lr, r5, #31
 606:../../Middlewares/Camera_Middleware/ISP_Library/isp/Src/isp_algo.c **** 
 1359              		.loc 1 606 105 view .LVU435
 1360 00bc A5FB0456 		umull	r5, r6, r5, r4
 1361 00c0 04FB0E66 		mla	r6, r4, lr, r6
 606:../../Middlewares/Camera_Middleware/ISP_Library/isp/Src/isp_algo.c **** 
 1362              		.loc 1 606 9 view .LVU436
 1363 00c4 5C19     		adds	r4, r3, r5
 1364              	.LVL106:
 613:../../Middlewares/Camera_Middleware/ISP_Library/isp/Src/isp_algo.c ****     ccG = (ccG < 0) ? 0 : (ccG > 255) ? 255 : ccG;
 1365              		.loc 1 613 25 view .LVU437
 1366 00c6 4FF0FF33 		mov	r3, #-1
 1367 00ca 294D     		ldr	r5, .L96+8
 606:../../Middlewares/Camera_Middleware/ISP_Library/isp/Src/isp_algo.c **** 
 1368              		.loc 1 606 9 view .LVU438
 1369 00cc 46EB0C06 		adc	r6, r6, ip
 1370              	.LVL107:
 608:../../Middlewares/Camera_Middleware/ISP_Library/isp/Src/isp_algo.c ****     ccG /= ISP_CCM_PRECISION_FACTOR;
 1371              		.loc 1 608 5 is_stmt 1 view .LVU439
 609:../../Middlewares/Camera_Middleware/ISP_Library/isp/Src/isp_algo.c ****     ccB /= ISP_CCM_PRECISION_FACTOR;
 1372              		.loc 1 609 5 view .LVU440
 610:../../Middlewares/Camera_Middleware/ISP_Library/isp/Src/isp_algo.c **** 
 1373              		.loc 1 610 5 view .LVU441
ARM GAS  C:\Users\Antonio\AppData\Local\Temp\ccP00qEn.s 			page 44


 613:../../Middlewares/Camera_Middleware/ISP_Library/isp/Src/isp_algo.c ****     ccG = (ccG < 0) ? 0 : (ccG > 255) ? 255 : ccG;
 1374              		.loc 1 613 5 view .LVU442
 613:../../Middlewares/Camera_Middleware/ISP_Library/isp/Src/isp_algo.c ****     ccG = (ccG < 0) ? 0 : (ccG > 255) ? 255 : ccG;
 1375              		.loc 1 613 25 is_stmt 0 view .LVU443
 1376 00d0 A842     		cmp	r0, r5
 1377 00d2 71EB0303 		sbcs	r3, r1, r3
 1378 00d6 3FDB     		blt	.L93
 608:../../Middlewares/Camera_Middleware/ISP_Library/isp/Src/isp_algo.c ****     ccG /= ISP_CCM_PRECISION_FACTOR;
 1379              		.loc 1 608 9 view .LVU444
 1380 00d8 23A3     		adr	r3, .L96
 1381 00da D3E90023 		ldrd	r2, [r3]
 1382 00de FFF7FEFF 		bl	__aeabi_ldivmod
 1383              	.LVL108:
 613:../../Middlewares/Camera_Middleware/ISP_Library/isp/Src/isp_algo.c ****     ccG = (ccG < 0) ? 0 : (ccG > 255) ? 255 : ccG;
 1384              		.loc 1 613 25 discriminator 1 view .LVU445
 1385 00e2 B0F5807F 		cmp	r0, #256
 1386 00e6 71F10001 		sbcs	r1, r1, #0
 1387 00ea 8146     		mov	r9, r0
 1388 00ec 01DB     		blt	.L87
 1389 00ee 4FF0FF09 		mov	r9, #255
 1390              	.L87:
 614:../../Middlewares/Camera_Middleware/ISP_Library/isp/Src/isp_algo.c ****     ccB = (ccB < 0) ? 0 : (ccB > 255) ? 255 : ccB;
 1391              		.loc 1 614 5 is_stmt 1 view .LVU446
 614:../../Middlewares/Camera_Middleware/ISP_Library/isp/Src/isp_algo.c ****     ccB = (ccB < 0) ? 0 : (ccB > 255) ? 255 : ccB;
 1392              		.loc 1 614 25 is_stmt 0 view .LVU447
 1393 00f2 4FF0FF33 		mov	r3, #-1
 1394 00f6 AF42     		cmp	r7, r5
 1395 00f8 78EB0303 		sbcs	r3, r8, r3
 1396 00fc 2EDB     		blt	.L94
 609:../../Middlewares/Camera_Middleware/ISP_Library/isp/Src/isp_algo.c ****     ccB /= ISP_CCM_PRECISION_FACTOR;
 1397              		.loc 1 609 9 view .LVU448
 1398 00fe 1AA3     		adr	r3, .L96
 1399 0100 D3E90023 		ldrd	r2, [r3]
 1400 0104 3846     		mov	r0, r7
 1401 0106 4146     		mov	r1, r8
 1402 0108 FFF7FEFF 		bl	__aeabi_ldivmod
 1403              	.LVL109:
 614:../../Middlewares/Camera_Middleware/ISP_Library/isp/Src/isp_algo.c ****     ccB = (ccB < 0) ? 0 : (ccB > 255) ? 255 : ccB;
 1404              		.loc 1 614 25 discriminator 1 view .LVU449
 1405 010c B0F5807F 		cmp	r0, #256
 1406 0110 71F10001 		sbcs	r1, r1, #0
 1407 0114 0746     		mov	r7, r0
 1408              	.LVL110:
 614:../../Middlewares/Camera_Middleware/ISP_Library/isp/Src/isp_algo.c ****     ccB = (ccB < 0) ? 0 : (ccB > 255) ? 255 : ccB;
 1409              		.loc 1 614 25 discriminator 1 view .LVU450
 1410 0116 00DB     		blt	.L89
 1411 0118 FF27     		movs	r7, #255
 1412              	.L89:
 615:../../Middlewares/Camera_Middleware/ISP_Library/isp/Src/isp_algo.c **** 
 1413              		.loc 1 615 5 is_stmt 1 view .LVU451
 615:../../Middlewares/Camera_Middleware/ISP_Library/isp/Src/isp_algo.c **** 
 1414              		.loc 1 615 25 is_stmt 0 view .LVU452
 1415 011a 4FF0FF33 		mov	r3, #-1
 1416 011e AC42     		cmp	r4, r5
 1417 0120 76EB0303 		sbcs	r3, r6, r3
 1418 0124 1CDB     		blt	.L95
 610:../../Middlewares/Camera_Middleware/ISP_Library/isp/Src/isp_algo.c **** 
ARM GAS  C:\Users\Antonio\AppData\Local\Temp\ccP00qEn.s 			page 45


 1419              		.loc 1 610 9 view .LVU453
 1420 0126 10A3     		adr	r3, .L96
 1421 0128 D3E90023 		ldrd	r2, [r3]
 1422 012c 2046     		mov	r0, r4
 1423 012e 3146     		mov	r1, r6
 1424 0130 FFF7FEFF 		bl	__aeabi_ldivmod
 1425              	.LVL111:
 615:../../Middlewares/Camera_Middleware/ISP_Library/isp/Src/isp_algo.c **** 
 1426              		.loc 1 615 25 discriminator 1 view .LVU454
 1427 0134 B0F5807F 		cmp	r0, #256
 1428 0138 71F10001 		sbcs	r1, r1, #0
 1429 013c 0446     		mov	r4, r0
 1430              	.LVL112:
 615:../../Middlewares/Camera_Middleware/ISP_Library/isp/Src/isp_algo.c **** 
 1431              		.loc 1 615 25 discriminator 1 view .LVU455
 1432 013e 00DB     		blt	.L91
 1433 0140 FF24     		movs	r4, #255
 1434              	.L91:
 617:../../Middlewares/Camera_Middleware/ISP_Library/isp/Src/isp_algo.c ****     *outG = (uint32_t) ccG;
 1435              		.loc 1 617 5 is_stmt 1 view .LVU456
 617:../../Middlewares/Camera_Middleware/ISP_Library/isp/Src/isp_algo.c ****     *outG = (uint32_t) ccG;
 1436              		.loc 1 617 13 is_stmt 0 view .LVU457
 1437 0142 4E46     		mov	r6, r9
 618:../../Middlewares/Camera_Middleware/ISP_Library/isp/Src/isp_algo.c ****     *outB = (uint32_t) ccB;
 1438              		.loc 1 618 5 is_stmt 1 view .LVU458
 618:../../Middlewares/Camera_Middleware/ISP_Library/isp/Src/isp_algo.c ****     *outB = (uint32_t) ccB;
 1439              		.loc 1 618 13 is_stmt 0 view .LVU459
 1440 0144 3D46     		mov	r5, r7
 619:../../Middlewares/Camera_Middleware/ISP_Library/isp/Src/isp_algo.c ****   }
 1441              		.loc 1 619 5 is_stmt 1 view .LVU460
 1442              	.LVL113:
 1443              	.L86:
 617:../../Middlewares/Camera_Middleware/ISP_Library/isp/Src/isp_algo.c ****     *outG = (uint32_t) ccG;
 1444              		.loc 1 617 11 is_stmt 0 view .LVU461
 1445 0146 129B     		ldr	r3, [sp, #72]
 1446 0148 1E60     		str	r6, [r3]
 618:../../Middlewares/Camera_Middleware/ISP_Library/isp/Src/isp_algo.c ****     *outB = (uint32_t) ccB;
 1447              		.loc 1 618 11 view .LVU462
 1448 014a 139B     		ldr	r3, [sp, #76]
 1449 014c 1D60     		str	r5, [r3]
 619:../../Middlewares/Camera_Middleware/ISP_Library/isp/Src/isp_algo.c ****   }
 1450              		.loc 1 619 11 view .LVU463
 1451 014e 149B     		ldr	r3, [sp, #80]
 1452 0150 1C60     		str	r4, [r3]
 627:../../Middlewares/Camera_Middleware/ISP_Library/isp/Src/isp_algo.c **** 
 1453              		.loc 1 627 1 view .LVU464
 1454 0152 0BB0     		add	sp, sp, #44
 1455              		.cfi_remember_state
 1456              		.cfi_def_cfa_offset 28
 1457              		@ sp needed
 1458 0154 BDE8F083 		pop	{r4, r5, r6, r7, r8, r9, pc}
 1459              	.LVL114:
 1460              	.L93:
 1461              		.cfi_restore_state
 613:../../Middlewares/Camera_Middleware/ISP_Library/isp/Src/isp_algo.c ****     ccG = (ccG < 0) ? 0 : (ccG > 255) ? 255 : ccG;
 1462              		.loc 1 613 25 discriminator 2 view .LVU465
 1463 0158 9146     		mov	r9, r2
ARM GAS  C:\Users\Antonio\AppData\Local\Temp\ccP00qEn.s 			page 46


 1464 015a CAE7     		b	.L87
 1465              	.LVL115:
 1466              	.L94:
 614:../../Middlewares/Camera_Middleware/ISP_Library/isp/Src/isp_algo.c ****     ccB = (ccB < 0) ? 0 : (ccB > 255) ? 255 : ccB;
 1467              		.loc 1 614 25 discriminator 2 view .LVU466
 1468 015c 0027     		movs	r7, #0
 1469              	.LVL116:
 614:../../Middlewares/Camera_Middleware/ISP_Library/isp/Src/isp_algo.c ****     ccB = (ccB < 0) ? 0 : (ccB > 255) ? 255 : ccB;
 1470              		.loc 1 614 25 discriminator 2 view .LVU467
 1471 015e DCE7     		b	.L89
 1472              	.L95:
 615:../../Middlewares/Camera_Middleware/ISP_Library/isp/Src/isp_algo.c **** 
 1473              		.loc 1 615 25 discriminator 2 view .LVU468
 1474 0160 0024     		movs	r4, #0
 1475              	.LVL117:
 615:../../Middlewares/Camera_Middleware/ISP_Library/isp/Src/isp_algo.c **** 
 1476              		.loc 1 615 25 discriminator 2 view .LVU469
 1477 0162 EEE7     		b	.L91
 1478              	.L97:
 1479 0164 AFF30080 		.align	3
 1480              	.L96:
 1481 0168 00E1F505 		.word	100000000
 1482 016c 00000000 		.word	0
 1483 0170 011F0AFA 		.word	-99999999
 1484              		.cfi_endproc
 1485              	.LFE848:
 1487              		.section	.text.ISP_Algo_AWB_Process,"ax",%progbits
 1488              		.align	1
 1489              		.global	ISP_Algo_AWB_Process
 1490              		.syntax unified
 1491              		.thumb
 1492              		.thumb_func
 1494              	ISP_Algo_AWB_Process:
 1495              	.LVL118:
 1496              	.LFB852:
 691:../../Middlewares/Camera_Middleware/ISP_Library/isp/Src/isp_algo.c **** 
 692:../../Middlewares/Camera_Middleware/ISP_Library/isp/Src/isp_algo.c **** /**
 693:../../Middlewares/Camera_Middleware/ISP_Library/isp/Src/isp_algo.c ****   * @brief  ISP_Algo_AWB_Process
 694:../../Middlewares/Camera_Middleware/ISP_Library/isp/Src/isp_algo.c ****   *         Process the AWB algorithm. This algorithm controls the ISP gain and color conversion
 695:../../Middlewares/Camera_Middleware/ISP_Library/isp/Src/isp_algo.c ****   *         in order to output realistic colors (white balance).
 696:../../Middlewares/Camera_Middleware/ISP_Library/isp/Src/isp_algo.c ****   * @param  hIsp:  ISP device handle. To cast in (ISP_HandleTypeDef *).
 697:../../Middlewares/Camera_Middleware/ISP_Library/isp/Src/isp_algo.c ****   * @param  pAlgo: ISP algorithm handle. To cast in (ISP_AlgoTypeDef *).
 698:../../Middlewares/Camera_Middleware/ISP_Library/isp/Src/isp_algo.c ****   * @retval operation result
 699:../../Middlewares/Camera_Middleware/ISP_Library/isp/Src/isp_algo.c ****   */
 700:../../Middlewares/Camera_Middleware/ISP_Library/isp/Src/isp_algo.c **** ISP_StatusTypeDef ISP_Algo_AWB_Process(void *hIsp, void *pAlgo)
 701:../../Middlewares/Camera_Middleware/ISP_Library/isp/Src/isp_algo.c **** {
 1497              		.loc 1 701 1 is_stmt 1 view -0
 1498              		.cfi_startproc
 1499              		@ args = 0, pretend = 0, frame = 112
 1500              		@ frame_needed = 0, uses_anonymous_args = 0
 702:../../Middlewares/Camera_Middleware/ISP_Library/isp/Src/isp_algo.c ****   static ISP_SVC_StatStateTypeDef stats;
 1501              		.loc 1 702 3 view .LVU471
 703:../../Middlewares/Camera_Middleware/ISP_Library/isp/Src/isp_algo.c ****   static uint8_t enableCurrent = false;
 1502              		.loc 1 703 3 view .LVU472
 704:../../Middlewares/Camera_Middleware/ISP_Library/isp/Src/isp_algo.c ****   static uint8_t reconfigureRequest = false;
 1503              		.loc 1 704 3 view .LVU473
 705:../../Middlewares/Camera_Middleware/ISP_Library/isp/Src/isp_algo.c ****   static uint32_t currentColorTemp = 0;
ARM GAS  C:\Users\Antonio\AppData\Local\Temp\ccP00qEn.s 			page 47


 1504              		.loc 1 705 3 view .LVU474
 706:../../Middlewares/Camera_Middleware/ISP_Library/isp/Src/isp_algo.c ****   static evision_awb_profile_t awbProfiles[ISP_AWB_COLORTEMP_REF];
 1505              		.loc 1 706 3 view .LVU475
 707:../../Middlewares/Camera_Middleware/ISP_Library/isp/Src/isp_algo.c ****   static float colorTempThresholds[ISP_AWB_COLORTEMP_REF - 1];
 1506              		.loc 1 707 3 view .LVU476
 708:../../Middlewares/Camera_Middleware/ISP_Library/isp/Src/isp_algo.c ****   ISP_IQParamTypeDef *IQParamConfig;
 1507              		.loc 1 708 3 view .LVU477
 709:../../Middlewares/Camera_Middleware/ISP_Library/isp/Src/isp_algo.c ****   ISP_ColorConvTypeDef ColorConvConfig;
 1508              		.loc 1 709 3 view .LVU478
 710:../../Middlewares/Camera_Middleware/ISP_Library/isp/Src/isp_algo.c ****   ISP_ISPGainTypeDef ISPGainConfig;
 1509              		.loc 1 710 3 view .LVU479
 711:../../Middlewares/Camera_Middleware/ISP_Library/isp/Src/isp_algo.c ****   ISP_AlgoTypeDef *algo = (ISP_AlgoTypeDef *)pAlgo;
 1510              		.loc 1 711 3 view .LVU480
 701:../../Middlewares/Camera_Middleware/ISP_Library/isp/Src/isp_algo.c ****   static ISP_SVC_StatStateTypeDef stats;
 1511              		.loc 1 701 1 is_stmt 0 view .LVU481
 1512 0000 2DE9F04F 		push	{r4, r5, r6, r7, r8, r9, r10, fp, lr}
 1513              		.cfi_def_cfa_offset 36
 1514              		.cfi_offset 4, -36
 1515              		.cfi_offset 5, -32
 1516              		.cfi_offset 6, -28
 1517              		.cfi_offset 7, -24
 1518              		.cfi_offset 8, -20
 1519              		.cfi_offset 9, -16
 1520              		.cfi_offset 10, -12
 1521              		.cfi_offset 11, -8
 1522              		.cfi_offset 14, -4
 1523 0004 2DED028B 		vpush.64	{d8}
 1524              		.cfi_def_cfa_offset 44
 1525              		.cfi_offset 80, -44
 1526              		.cfi_offset 81, -40
 712:../../Middlewares/Camera_Middleware/ISP_Library/isp/Src/isp_algo.c ****   ISP_StatusTypeDef ret_stat, ret = ISP_OK;
 713:../../Middlewares/Camera_Middleware/ISP_Library/isp/Src/isp_algo.c ****   evision_return_t e_ret;
 714:../../Middlewares/Camera_Middleware/ISP_Library/isp/Src/isp_algo.c ****   uint32_t ccAvgR, ccAvgG, ccAvgB, colorTemp, i, j, profId, profNb;
 715:../../Middlewares/Camera_Middleware/ISP_Library/isp/Src/isp_algo.c ****   float cfaGains[4], ccmCoeffs[3][3], ccmOffsets[3] = { 0 };
 1527              		.loc 1 715 39 view .LVU482
 1528 0008 0024     		movs	r4, #0
 701:../../Middlewares/Camera_Middleware/ISP_Library/isp/Src/isp_algo.c ****   static ISP_SVC_StatStateTypeDef stats;
 1529              		.loc 1 701 1 view .LVU483
 1530 000a A1B0     		sub	sp, sp, #132
 1531              		.cfi_def_cfa_offset 176
 701:../../Middlewares/Camera_Middleware/ISP_Library/isp/Src/isp_algo.c ****   static ISP_SVC_StatStateTypeDef stats;
 1532              		.loc 1 701 1 view .LVU484
 1533 000c 0646     		mov	r6, r0
 1534 000e 8846     		mov	r8, r1
 1535              	.LVL119:
 712:../../Middlewares/Camera_Middleware/ISP_Library/isp/Src/isp_algo.c ****   ISP_StatusTypeDef ret_stat, ret = ISP_OK;
 1536              		.loc 1 712 3 is_stmt 1 view .LVU485
 713:../../Middlewares/Camera_Middleware/ISP_Library/isp/Src/isp_algo.c ****   uint32_t ccAvgR, ccAvgG, ccAvgB, colorTemp, i, j, profId, profNb;
 1537              		.loc 1 713 3 view .LVU486
 714:../../Middlewares/Camera_Middleware/ISP_Library/isp/Src/isp_algo.c ****   float cfaGains[4], ccmCoeffs[3][3], ccmOffsets[3] = { 0 };
 1538              		.loc 1 714 3 view .LVU487
 1539              		.loc 1 715 3 view .LVU488
 1540              		.loc 1 715 39 is_stmt 0 view .LVU489
 1541 0010 CDE90944 		strd	r4, r4, [sp, #36]
 1542 0014 0B94     		str	r4, [sp, #44]
 716:../../Middlewares/Camera_Middleware/ISP_Library/isp/Src/isp_algo.c ****   double meas[3];
 1543              		.loc 1 716 3 is_stmt 1 view .LVU490
ARM GAS  C:\Users\Antonio\AppData\Local\Temp\ccP00qEn.s 			page 48


 717:../../Middlewares/Camera_Middleware/ISP_Library/isp/Src/isp_algo.c ****   static uint32_t statsHistory[3][3] = { 0 };
 1544              		.loc 1 717 3 view .LVU491
 718:../../Middlewares/Camera_Middleware/ISP_Library/isp/Src/isp_algo.c ****   static uint32_t colorTempHistory[2] = { 0 };
 1545              		.loc 1 718 3 view .LVU492
 719:../../Middlewares/Camera_Middleware/ISP_Library/isp/Src/isp_algo.c ****   static uint8_t skip_stat_check_count = ALGO_AWB_STAT_CHECK_SKIP_AFTER_INIT;
 1546              		.loc 1 719 3 view .LVU493
 720:../../Middlewares/Camera_Middleware/ISP_Library/isp/Src/isp_algo.c ****   uint8_t stat_has_changed = false;
 1547              		.loc 1 720 3 view .LVU494
 1548              	.LVL120:
 721:../../Middlewares/Camera_Middleware/ISP_Library/isp/Src/isp_algo.c **** 
 722:../../Middlewares/Camera_Middleware/ISP_Library/isp/Src/isp_algo.c ****   IQParamConfig = ISP_SVC_IQParam_Get(hIsp);
 1549              		.loc 1 722 3 view .LVU495
 1550              		.loc 1 722 19 is_stmt 0 view .LVU496
 1551 0016 FFF7FEFF 		bl	ISP_SVC_IQParam_Get
 1552              	.LVL121:
 723:../../Middlewares/Camera_Middleware/ISP_Library/isp/Src/isp_algo.c **** 
 724:../../Middlewares/Camera_Middleware/ISP_Library/isp/Src/isp_algo.c ****   if (IQParamConfig->AWBAlgo.enable == false)
 1553              		.loc 1 724 29 view .LVU497
 1554 001a 90F87420 		ldrb	r2, [r0, #116]	@ zero_extendqisi2
 722:../../Middlewares/Camera_Middleware/ISP_Library/isp/Src/isp_algo.c **** 
 1555              		.loc 1 722 19 view .LVU498
 1556 001e 0546     		mov	r5, r0
 1557              	.LVL122:
 1558              		.loc 1 724 3 is_stmt 1 view .LVU499
 1559 0020 714B     		ldr	r3, .L163+16
 1560              		.loc 1 724 6 is_stmt 0 view .LVU500
 1561 0022 32B9     		cbnz	r2, .L99
 725:../../Middlewares/Camera_Middleware/ISP_Library/isp/Src/isp_algo.c ****   {
 726:../../Middlewares/Camera_Middleware/ISP_Library/isp/Src/isp_algo.c ****     enableCurrent = false;
 1562              		.loc 1 726 5 is_stmt 1 view .LVU501
 1563              		.loc 1 726 19 is_stmt 0 view .LVU502
 1564 0024 1A70     		strb	r2, [r3]
 727:../../Middlewares/Camera_Middleware/ISP_Library/isp/Src/isp_algo.c ****     return ISP_OK;
 1565              		.loc 1 727 5 is_stmt 1 view .LVU503
 1566              	.L105:
 1567              		.loc 1 727 12 is_stmt 0 view .LVU504
 1568 0026 0020     		movs	r0, #0
 1569              	.LVL123:
 1570              	.L140:
 728:../../Middlewares/Camera_Middleware/ISP_Library/isp/Src/isp_algo.c ****   }
 729:../../Middlewares/Camera_Middleware/ISP_Library/isp/Src/isp_algo.c ****   else if ((enableCurrent == false) || (IQParamConfig->AWBAlgo.enable == ISP_AWB_ENABLE_RECONFIGURE
 730:../../Middlewares/Camera_Middleware/ISP_Library/isp/Src/isp_algo.c ****   {
 731:../../Middlewares/Camera_Middleware/ISP_Library/isp/Src/isp_algo.c ****     /* Start or resume algo : set state to INIT in order to read the IQ params */
 732:../../Middlewares/Camera_Middleware/ISP_Library/isp/Src/isp_algo.c ****     algo->state = ISP_ALGO_STATE_INIT;
 733:../../Middlewares/Camera_Middleware/ISP_Library/isp/Src/isp_algo.c ****     IQParamConfig->AWBAlgo.enable = true;
 734:../../Middlewares/Camera_Middleware/ISP_Library/isp/Src/isp_algo.c ****     reconfigureRequest = true;
 735:../../Middlewares/Camera_Middleware/ISP_Library/isp/Src/isp_algo.c ****     enableCurrent = true;
 736:../../Middlewares/Camera_Middleware/ISP_Library/isp/Src/isp_algo.c ****     skip_stat_check_count = ALGO_AWB_STAT_CHECK_SKIP_AFTER_CT_ESTIMATION;
 737:../../Middlewares/Camera_Middleware/ISP_Library/isp/Src/isp_algo.c ****   }
 738:../../Middlewares/Camera_Middleware/ISP_Library/isp/Src/isp_algo.c **** 
 739:../../Middlewares/Camera_Middleware/ISP_Library/isp/Src/isp_algo.c ****   switch(algo->state)
 740:../../Middlewares/Camera_Middleware/ISP_Library/isp/Src/isp_algo.c ****   {
 741:../../Middlewares/Camera_Middleware/ISP_Library/isp/Src/isp_algo.c ****   case ISP_ALGO_STATE_INIT:
 742:../../Middlewares/Camera_Middleware/ISP_Library/isp/Src/isp_algo.c ****     /* Set profiles (color temperature, gains, color conv matrix) */
 743:../../Middlewares/Camera_Middleware/ISP_Library/isp/Src/isp_algo.c ****     profNb = 0;
 744:../../Middlewares/Camera_Middleware/ISP_Library/isp/Src/isp_algo.c ****     for (profId = 0; profId < ISP_AWB_COLORTEMP_REF; profId++)
 745:../../Middlewares/Camera_Middleware/ISP_Library/isp/Src/isp_algo.c ****     {
ARM GAS  C:\Users\Antonio\AppData\Local\Temp\ccP00qEn.s 			page 49


 746:../../Middlewares/Camera_Middleware/ISP_Library/isp/Src/isp_algo.c ****       colorTemp = IQParamConfig->AWBAlgo.referenceColorTemp[profId];
 747:../../Middlewares/Camera_Middleware/ISP_Library/isp/Src/isp_algo.c ****       if (colorTemp == 0)
 748:../../Middlewares/Camera_Middleware/ISP_Library/isp/Src/isp_algo.c ****         break;
 749:../../Middlewares/Camera_Middleware/ISP_Library/isp/Src/isp_algo.c **** 
 750:../../Middlewares/Camera_Middleware/ISP_Library/isp/Src/isp_algo.c ****       if (profNb > 0)
 751:../../Middlewares/Camera_Middleware/ISP_Library/isp/Src/isp_algo.c ****       {
 752:../../Middlewares/Camera_Middleware/ISP_Library/isp/Src/isp_algo.c ****         /* Profile decision threshold = lowest ref. temperature + 1/4 of the distance between two r
 753:../../Middlewares/Camera_Middleware/ISP_Library/isp/Src/isp_algo.c ****         colorTempThresholds[profNb - 1] = (float) ((colorTemp + 3 * IQParamConfig->AWBAlgo.referenc
 754:../../Middlewares/Camera_Middleware/ISP_Library/isp/Src/isp_algo.c ****       }
 755:../../Middlewares/Camera_Middleware/ISP_Library/isp/Src/isp_algo.c **** 
 756:../../Middlewares/Camera_Middleware/ISP_Library/isp/Src/isp_algo.c ****       /* Set cfa gains (RGGB) */
 757:../../Middlewares/Camera_Middleware/ISP_Library/isp/Src/isp_algo.c ****       cfaGains[0] = (float) IQParamConfig->AWBAlgo.ispGainR[profId] / ISP_GAIN_PRECISION_FACTOR;
 758:../../Middlewares/Camera_Middleware/ISP_Library/isp/Src/isp_algo.c ****       cfaGains[1] = (float) IQParamConfig->AWBAlgo.ispGainG[profId] / ISP_GAIN_PRECISION_FACTOR;
 759:../../Middlewares/Camera_Middleware/ISP_Library/isp/Src/isp_algo.c ****       cfaGains[2] = cfaGains[1];
 760:../../Middlewares/Camera_Middleware/ISP_Library/isp/Src/isp_algo.c ****       cfaGains[3] = (float) IQParamConfig->AWBAlgo.ispGainB[profId] / ISP_GAIN_PRECISION_FACTOR;
 761:../../Middlewares/Camera_Middleware/ISP_Library/isp/Src/isp_algo.c **** 
 762:../../Middlewares/Camera_Middleware/ISP_Library/isp/Src/isp_algo.c ****       /* Set CCM Coeff */
 763:../../Middlewares/Camera_Middleware/ISP_Library/isp/Src/isp_algo.c ****       for (i = 0; i < 3; i++)
 764:../../Middlewares/Camera_Middleware/ISP_Library/isp/Src/isp_algo.c ****       {
 765:../../Middlewares/Camera_Middleware/ISP_Library/isp/Src/isp_algo.c ****         for (j = 0; j < 3; j++)
 766:../../Middlewares/Camera_Middleware/ISP_Library/isp/Src/isp_algo.c ****         {
 767:../../Middlewares/Camera_Middleware/ISP_Library/isp/Src/isp_algo.c ****           ccmCoeffs[i][j] = (float) IQParamConfig->AWBAlgo.coeff[profId][i][j] / ISP_CCM_PRECISION_
 768:../../Middlewares/Camera_Middleware/ISP_Library/isp/Src/isp_algo.c ****         }
 769:../../Middlewares/Camera_Middleware/ISP_Library/isp/Src/isp_algo.c ****       }
 770:../../Middlewares/Camera_Middleware/ISP_Library/isp/Src/isp_algo.c **** 
 771:../../Middlewares/Camera_Middleware/ISP_Library/isp/Src/isp_algo.c ****       /* Set profile */
 772:../../Middlewares/Camera_Middleware/ISP_Library/isp/Src/isp_algo.c ****       evision_api_awb_set_profile(&awbProfiles[profId], (float) colorTemp, cfaGains, ccmCoeffs, ccm
 773:../../Middlewares/Camera_Middleware/ISP_Library/isp/Src/isp_algo.c ****       profNb++;
 774:../../Middlewares/Camera_Middleware/ISP_Library/isp/Src/isp_algo.c ****     }
 775:../../Middlewares/Camera_Middleware/ISP_Library/isp/Src/isp_algo.c **** 
 776:../../Middlewares/Camera_Middleware/ISP_Library/isp/Src/isp_algo.c ****     if (profNb == 0)
 777:../../Middlewares/Camera_Middleware/ISP_Library/isp/Src/isp_algo.c ****     {
 778:../../Middlewares/Camera_Middleware/ISP_Library/isp/Src/isp_algo.c ****       return ISP_ERR_WB_COLORTEMP;
 779:../../Middlewares/Camera_Middleware/ISP_Library/isp/Src/isp_algo.c ****     }
 780:../../Middlewares/Camera_Middleware/ISP_Library/isp/Src/isp_algo.c **** 
 781:../../Middlewares/Camera_Middleware/ISP_Library/isp/Src/isp_algo.c ****     /* Register profiles */
 782:../../Middlewares/Camera_Middleware/ISP_Library/isp/Src/isp_algo.c ****     e_ret = evision_api_awb_init_profiles(pIspAWBestimator, (double) IQParamConfig->AWBAlgo.referen
 783:../../Middlewares/Camera_Middleware/ISP_Library/isp/Src/isp_algo.c ****                                           (double) IQParamConfig->AWBAlgo.referenceColorTemp[profNb
 784:../../Middlewares/Camera_Middleware/ISP_Library/isp/Src/isp_algo.c ****                                           colorTempThresholds, awbProfiles);
 785:../../Middlewares/Camera_Middleware/ISP_Library/isp/Src/isp_algo.c ****     if (e_ret != EVISION_RET_SUCCESS)
 786:../../Middlewares/Camera_Middleware/ISP_Library/isp/Src/isp_algo.c ****     {
 787:../../Middlewares/Camera_Middleware/ISP_Library/isp/Src/isp_algo.c ****       return ISP_ERR_ALGO;
 788:../../Middlewares/Camera_Middleware/ISP_Library/isp/Src/isp_algo.c ****     }
 789:../../Middlewares/Camera_Middleware/ISP_Library/isp/Src/isp_algo.c **** 
 790:../../Middlewares/Camera_Middleware/ISP_Library/isp/Src/isp_algo.c ****     /* Configure algo */
 791:../../Middlewares/Camera_Middleware/ISP_Library/isp/Src/isp_algo.c ****     pIspAWBestimator->hyper_params.speed_p_min = 1.35;
 792:../../Middlewares/Camera_Middleware/ISP_Library/isp/Src/isp_algo.c ****     pIspAWBestimator->hyper_params.speed_p_max = (profNb < 4)? 1.8 : 2.0;
 793:../../Middlewares/Camera_Middleware/ISP_Library/isp/Src/isp_algo.c ****     pIspAWBestimator->hyper_params.gm_tolerance = 1;
 794:../../Middlewares/Camera_Middleware/ISP_Library/isp/Src/isp_algo.c ****     pIspAWBestimator->hyper_params.conv_criterion = 3;
 795:../../Middlewares/Camera_Middleware/ISP_Library/isp/Src/isp_algo.c **** 
 796:../../Middlewares/Camera_Middleware/ISP_Library/isp/Src/isp_algo.c ****     /* Ask for stats */
 797:../../Middlewares/Camera_Middleware/ISP_Library/isp/Src/isp_algo.c ****     ret = ISP_SVC_Stats_GetNext(hIsp, &ISP_Algo_AWB_StatCb, pAlgo, &stats, ISP_STAT_LOC_DOWN,
 798:../../Middlewares/Camera_Middleware/ISP_Library/isp/Src/isp_algo.c ****                                 ISP_STAT_TYPE_AVG, ALGO_ISP_LATENCY + ALGO_AWB_ADDITIONAL_LATENCY);
 799:../../Middlewares/Camera_Middleware/ISP_Library/isp/Src/isp_algo.c ****     if (ret != ISP_OK)
 800:../../Middlewares/Camera_Middleware/ISP_Library/isp/Src/isp_algo.c ****     {
 801:../../Middlewares/Camera_Middleware/ISP_Library/isp/Src/isp_algo.c ****       return ret;
 802:../../Middlewares/Camera_Middleware/ISP_Library/isp/Src/isp_algo.c ****     }
ARM GAS  C:\Users\Antonio\AppData\Local\Temp\ccP00qEn.s 			page 50


 803:../../Middlewares/Camera_Middleware/ISP_Library/isp/Src/isp_algo.c **** 
 804:../../Middlewares/Camera_Middleware/ISP_Library/isp/Src/isp_algo.c ****     /* Wait for stats to be ready */
 805:../../Middlewares/Camera_Middleware/ISP_Library/isp/Src/isp_algo.c ****     algo->state = ISP_ALGO_STATE_WAITING_STAT;
 806:../../Middlewares/Camera_Middleware/ISP_Library/isp/Src/isp_algo.c ****     break;
 807:../../Middlewares/Camera_Middleware/ISP_Library/isp/Src/isp_algo.c **** 
 808:../../Middlewares/Camera_Middleware/ISP_Library/isp/Src/isp_algo.c ****   case ISP_ALGO_STATE_NEED_STAT:
 809:../../Middlewares/Camera_Middleware/ISP_Library/isp/Src/isp_algo.c ****     ret = ISP_SVC_Stats_GetNext(hIsp, &ISP_Algo_AWB_StatCb, pAlgo, &stats, ISP_STAT_LOC_DOWN,
 810:../../Middlewares/Camera_Middleware/ISP_Library/isp/Src/isp_algo.c ****                                 ISP_STAT_TYPE_AVG, ALGO_ISP_LATENCY + ALGO_AWB_ADDITIONAL_LATENCY);
 811:../../Middlewares/Camera_Middleware/ISP_Library/isp/Src/isp_algo.c ****     if (ret != ISP_OK)
 812:../../Middlewares/Camera_Middleware/ISP_Library/isp/Src/isp_algo.c ****     {
 813:../../Middlewares/Camera_Middleware/ISP_Library/isp/Src/isp_algo.c ****       return ret;
 814:../../Middlewares/Camera_Middleware/ISP_Library/isp/Src/isp_algo.c ****     }
 815:../../Middlewares/Camera_Middleware/ISP_Library/isp/Src/isp_algo.c **** 
 816:../../Middlewares/Camera_Middleware/ISP_Library/isp/Src/isp_algo.c ****     /* Wait for stats to be ready */
 817:../../Middlewares/Camera_Middleware/ISP_Library/isp/Src/isp_algo.c ****     algo->state = ISP_ALGO_STATE_WAITING_STAT;
 818:../../Middlewares/Camera_Middleware/ISP_Library/isp/Src/isp_algo.c ****     break;
 819:../../Middlewares/Camera_Middleware/ISP_Library/isp/Src/isp_algo.c **** 
 820:../../Middlewares/Camera_Middleware/ISP_Library/isp/Src/isp_algo.c ****   case ISP_ALGO_STATE_WAITING_STAT:
 821:../../Middlewares/Camera_Middleware/ISP_Library/isp/Src/isp_algo.c ****     /* Do nothing */
 822:../../Middlewares/Camera_Middleware/ISP_Library/isp/Src/isp_algo.c ****     break;
 823:../../Middlewares/Camera_Middleware/ISP_Library/isp/Src/isp_algo.c **** 
 824:../../Middlewares/Camera_Middleware/ISP_Library/isp/Src/isp_algo.c ****   case ISP_ALGO_STATE_STAT_READY:
 825:../../Middlewares/Camera_Middleware/ISP_Library/isp/Src/isp_algo.c ****     ISP_Algo_GetUpStat(hIsp, &stats);
 826:../../Middlewares/Camera_Middleware/ISP_Library/isp/Src/isp_algo.c **** 
 827:../../Middlewares/Camera_Middleware/ISP_Library/isp/Src/isp_algo.c ****     for (i = 0; i < 3; i++)
 828:../../Middlewares/Camera_Middleware/ISP_Library/isp/Src/isp_algo.c ****     {
 829:../../Middlewares/Camera_Middleware/ISP_Library/isp/Src/isp_algo.c ****       if ((abs(stats.up.averageR - statsHistory[i][0]) > 2) || (abs(stats.up.averageG - statsHistor
 830:../../Middlewares/Camera_Middleware/ISP_Library/isp/Src/isp_algo.c ****       {
 831:../../Middlewares/Camera_Middleware/ISP_Library/isp/Src/isp_algo.c ****         stat_has_changed = true;
 832:../../Middlewares/Camera_Middleware/ISP_Library/isp/Src/isp_algo.c ****       }
 833:../../Middlewares/Camera_Middleware/ISP_Library/isp/Src/isp_algo.c ****     }
 834:../../Middlewares/Camera_Middleware/ISP_Library/isp/Src/isp_algo.c **** 
 835:../../Middlewares/Camera_Middleware/ISP_Library/isp/Src/isp_algo.c ****     if (skip_stat_check_count || stat_has_changed || reconfigureRequest)
 836:../../Middlewares/Camera_Middleware/ISP_Library/isp/Src/isp_algo.c ****     {
 837:../../Middlewares/Camera_Middleware/ISP_Library/isp/Src/isp_algo.c ****         statsHistory[2][0] = stats.up.averageR;
 838:../../Middlewares/Camera_Middleware/ISP_Library/isp/Src/isp_algo.c ****         statsHistory[2][1] = stats.up.averageG;
 839:../../Middlewares/Camera_Middleware/ISP_Library/isp/Src/isp_algo.c ****         statsHistory[2][2] = stats.up.averageB;
 840:../../Middlewares/Camera_Middleware/ISP_Library/isp/Src/isp_algo.c **** 
 841:../../Middlewares/Camera_Middleware/ISP_Library/isp/Src/isp_algo.c ****         /* Get stats after color conversion */
 842:../../Middlewares/Camera_Middleware/ISP_Library/isp/Src/isp_algo.c ****         ISP_Algo_ApplyCConv(hIsp, stats.down.averageR, stats.down.averageG, stats.down.averageB, &c
 843:../../Middlewares/Camera_Middleware/ISP_Library/isp/Src/isp_algo.c **** 
 844:../../Middlewares/Camera_Middleware/ISP_Library/isp/Src/isp_algo.c ****         /* Apply gamma */
 845:../../Middlewares/Camera_Middleware/ISP_Library/isp/Src/isp_algo.c ****         meas[0] = ISP_Algo_ApplyGammaInverse(hIsp, ccAvgR);
 846:../../Middlewares/Camera_Middleware/ISP_Library/isp/Src/isp_algo.c ****         meas[1] = ISP_Algo_ApplyGammaInverse(hIsp, ccAvgG);
 847:../../Middlewares/Camera_Middleware/ISP_Library/isp/Src/isp_algo.c ****         meas[2] = ISP_Algo_ApplyGammaInverse(hIsp, ccAvgB);
 848:../../Middlewares/Camera_Middleware/ISP_Library/isp/Src/isp_algo.c **** 
 849:../../Middlewares/Camera_Middleware/ISP_Library/isp/Src/isp_algo.c ****         /* Run algo to estimate gain and color conversion to apply */
 850:../../Middlewares/Camera_Middleware/ISP_Library/isp/Src/isp_algo.c ****         e_ret = evision_api_awb_run_average(pIspAWBestimator, NULL, 1, meas);
 851:../../Middlewares/Camera_Middleware/ISP_Library/isp/Src/isp_algo.c ****         if (e_ret == EVISION_RET_SUCCESS)
 852:../../Middlewares/Camera_Middleware/ISP_Library/isp/Src/isp_algo.c ****         {
 853:../../Middlewares/Camera_Middleware/ISP_Library/isp/Src/isp_algo.c **** #ifdef ALGO_AWB_DBG_LOGS
 854:../../Middlewares/Camera_Middleware/ISP_Library/isp/Src/isp_algo.c ****           static int nb_meas, nb_changes;
 855:../../Middlewares/Camera_Middleware/ISP_Library/isp/Src/isp_algo.c ****           static int nb_colortemp_change[ISP_AWB_COLORTEMP_REF];
 856:../../Middlewares/Camera_Middleware/ISP_Library/isp/Src/isp_algo.c **** 
 857:../../Middlewares/Camera_Middleware/ISP_Library/isp/Src/isp_algo.c ****           nb_meas++;
 858:../../Middlewares/Camera_Middleware/ISP_Library/isp/Src/isp_algo.c ****           if (pIspAWBestimator->out_temp != currentColorTemp)
 859:../../Middlewares/Camera_Middleware/ISP_Library/isp/Src/isp_algo.c ****             nb_changes++;
ARM GAS  C:\Users\Antonio\AppData\Local\Temp\ccP00qEn.s 			page 51


 860:../../Middlewares/Camera_Middleware/ISP_Library/isp/Src/isp_algo.c ****           for (int i = 0; i < ISP_AWB_COLORTEMP_REF; i++) {
 861:../../Middlewares/Camera_Middleware/ISP_Library/isp/Src/isp_algo.c ****             if (pIspAWBestimator->out_temp == IQParamConfig->AWBAlgo.referenceColorTemp[i])
 862:../../Middlewares/Camera_Middleware/ISP_Library/isp/Src/isp_algo.c ****             {
 863:../../Middlewares/Camera_Middleware/ISP_Library/isp/Src/isp_algo.c ****               nb_colortemp_change[i]++;
 864:../../Middlewares/Camera_Middleware/ISP_Library/isp/Src/isp_algo.c ****               continue;
 865:../../Middlewares/Camera_Middleware/ISP_Library/isp/Src/isp_algo.c ****             }
 866:../../Middlewares/Camera_Middleware/ISP_Library/isp/Src/isp_algo.c ****           }
 867:../../Middlewares/Camera_Middleware/ISP_Library/isp/Src/isp_algo.c **** 
 868:../../Middlewares/Camera_Middleware/ISP_Library/isp/Src/isp_algo.c ****           if (nb_meas == 100)
 869:../../Middlewares/Camera_Middleware/ISP_Library/isp/Src/isp_algo.c ****           {
 870:../../Middlewares/Camera_Middleware/ISP_Library/isp/Src/isp_algo.c ****             printf("Last 100 measures:\r\n");
 871:../../Middlewares/Camera_Middleware/ISP_Library/isp/Src/isp_algo.c ****             for (int i = 0; i < ISP_AWB_COLORTEMP_REF; i++) {
 872:../../Middlewares/Camera_Middleware/ISP_Library/isp/Src/isp_algo.c ****               printf("\t%ld: %d\r\n",
 873:../../Middlewares/Camera_Middleware/ISP_Library/isp/Src/isp_algo.c ****                      IQParamConfig->AWBAlgo.referenceColorTemp[i],
 874:../../Middlewares/Camera_Middleware/ISP_Library/isp/Src/isp_algo.c ****                      nb_colortemp_change[i]);
 875:../../Middlewares/Camera_Middleware/ISP_Library/isp/Src/isp_algo.c ****             }
 876:../../Middlewares/Camera_Middleware/ISP_Library/isp/Src/isp_algo.c ****             printf("\nChanges: %d\r\n", nb_changes);
 877:../../Middlewares/Camera_Middleware/ISP_Library/isp/Src/isp_algo.c **** 
 878:../../Middlewares/Camera_Middleware/ISP_Library/isp/Src/isp_algo.c ****             nb_meas = 0;
 879:../../Middlewares/Camera_Middleware/ISP_Library/isp/Src/isp_algo.c ****             nb_changes = 0;
 880:../../Middlewares/Camera_Middleware/ISP_Library/isp/Src/isp_algo.c ****             for (int i = 0; i < ISP_AWB_COLORTEMP_REF; i++) {
 881:../../Middlewares/Camera_Middleware/ISP_Library/isp/Src/isp_algo.c ****               nb_colortemp_change[i] = 0;
 882:../../Middlewares/Camera_Middleware/ISP_Library/isp/Src/isp_algo.c ****             }
 883:../../Middlewares/Camera_Middleware/ISP_Library/isp/Src/isp_algo.c ****           }
 884:../../Middlewares/Camera_Middleware/ISP_Library/isp/Src/isp_algo.c **** #endif
 885:../../Middlewares/Camera_Middleware/ISP_Library/isp/Src/isp_algo.c ****           if (pIspAWBestimator->out_temp != currentColorTemp || reconfigureRequest == true)
 886:../../Middlewares/Camera_Middleware/ISP_Library/isp/Src/isp_algo.c ****           {
 887:../../Middlewares/Camera_Middleware/ISP_Library/isp/Src/isp_algo.c **** #ifdef ALGO_AWB_DBG_LOGS
 888:../../Middlewares/Camera_Middleware/ISP_Library/isp/Src/isp_algo.c ****             printf("Color temperature = %ld\r\n", (uint32_t) pIspAWBestimator->out_temp);
 889:../../Middlewares/Camera_Middleware/ISP_Library/isp/Src/isp_algo.c **** #endif
 890:../../Middlewares/Camera_Middleware/ISP_Library/isp/Src/isp_algo.c ****             if (pIspAWBestimator->out_temp == colorTempHistory[1])
 891:../../Middlewares/Camera_Middleware/ISP_Library/isp/Src/isp_algo.c ****             {
 892:../../Middlewares/Camera_Middleware/ISP_Library/isp/Src/isp_algo.c ****               skip_stat_check_count = 0; //oscillation detected
 893:../../Middlewares/Camera_Middleware/ISP_Library/isp/Src/isp_algo.c ****             }
 894:../../Middlewares/Camera_Middleware/ISP_Library/isp/Src/isp_algo.c ****             else
 895:../../Middlewares/Camera_Middleware/ISP_Library/isp/Src/isp_algo.c ****             {
 896:../../Middlewares/Camera_Middleware/ISP_Library/isp/Src/isp_algo.c ****               if (skip_stat_check_count <= ALGO_AWB_STAT_CHECK_SKIP_AFTER_CT_ESTIMATION) skip_stat_
 897:../../Middlewares/Camera_Middleware/ISP_Library/isp/Src/isp_algo.c **** 
 898:../../Middlewares/Camera_Middleware/ISP_Library/isp/Src/isp_algo.c ****               /* Store meta data */
 899:../../Middlewares/Camera_Middleware/ISP_Library/isp/Src/isp_algo.c ****               Meta.colorTemp = (uint32_t) pIspAWBestimator->out_temp;
 900:../../Middlewares/Camera_Middleware/ISP_Library/isp/Src/isp_algo.c **** 
 901:../../Middlewares/Camera_Middleware/ISP_Library/isp/Src/isp_algo.c ****               /* Find the index profile for this referenceColorTemp */
 902:../../Middlewares/Camera_Middleware/ISP_Library/isp/Src/isp_algo.c ****               for (profId = 0; profId < ISP_AWB_COLORTEMP_REF; profId++)
 903:../../Middlewares/Camera_Middleware/ISP_Library/isp/Src/isp_algo.c ****               {
 904:../../Middlewares/Camera_Middleware/ISP_Library/isp/Src/isp_algo.c ****                 if (pIspAWBestimator->out_temp == IQParamConfig->AWBAlgo.referenceColorTemp[profId]
 905:../../Middlewares/Camera_Middleware/ISP_Library/isp/Src/isp_algo.c ****                   break;
 906:../../Middlewares/Camera_Middleware/ISP_Library/isp/Src/isp_algo.c ****               }
 907:../../Middlewares/Camera_Middleware/ISP_Library/isp/Src/isp_algo.c **** 
 908:../../Middlewares/Camera_Middleware/ISP_Library/isp/Src/isp_algo.c ****               if (profId == ISP_AWB_COLORTEMP_REF)
 909:../../Middlewares/Camera_Middleware/ISP_Library/isp/Src/isp_algo.c ****               {
 910:../../Middlewares/Camera_Middleware/ISP_Library/isp/Src/isp_algo.c ****                 /* Unknown profile */
 911:../../Middlewares/Camera_Middleware/ISP_Library/isp/Src/isp_algo.c ****                 ret  = ISP_ERR_WB_COLORTEMP;
 912:../../Middlewares/Camera_Middleware/ISP_Library/isp/Src/isp_algo.c ****               }
 913:../../Middlewares/Camera_Middleware/ISP_Library/isp/Src/isp_algo.c ****               else
 914:../../Middlewares/Camera_Middleware/ISP_Library/isp/Src/isp_algo.c ****               {
 915:../../Middlewares/Camera_Middleware/ISP_Library/isp/Src/isp_algo.c ****                 /* Apply Color Conversion */
 916:../../Middlewares/Camera_Middleware/ISP_Library/isp/Src/isp_algo.c ****                 ColorConvConfig.enable = 1;
ARM GAS  C:\Users\Antonio\AppData\Local\Temp\ccP00qEn.s 			page 52


 917:../../Middlewares/Camera_Middleware/ISP_Library/isp/Src/isp_algo.c ****                 memcpy(ColorConvConfig.coeff, IQParamConfig->AWBAlgo.coeff[profId], sizeof(ColorCon
 918:../../Middlewares/Camera_Middleware/ISP_Library/isp/Src/isp_algo.c ****                 ret = ISP_SVC_ISP_SetColorConv(hIsp, &ColorConvConfig);
 919:../../Middlewares/Camera_Middleware/ISP_Library/isp/Src/isp_algo.c **** 
 920:../../Middlewares/Camera_Middleware/ISP_Library/isp/Src/isp_algo.c ****                 /* Apply gain */
 921:../../Middlewares/Camera_Middleware/ISP_Library/isp/Src/isp_algo.c ****                 if (ret == ISP_OK)
 922:../../Middlewares/Camera_Middleware/ISP_Library/isp/Src/isp_algo.c ****                 {
 923:../../Middlewares/Camera_Middleware/ISP_Library/isp/Src/isp_algo.c ****                   ISPGainConfig.enable = 1;
 924:../../Middlewares/Camera_Middleware/ISP_Library/isp/Src/isp_algo.c ****                   ISPGainConfig.ispGainR = IQParamConfig->AWBAlgo.ispGainR[profId];
 925:../../Middlewares/Camera_Middleware/ISP_Library/isp/Src/isp_algo.c ****                   ISPGainConfig.ispGainG = IQParamConfig->AWBAlgo.ispGainG[profId];
 926:../../Middlewares/Camera_Middleware/ISP_Library/isp/Src/isp_algo.c ****                   ISPGainConfig.ispGainB = IQParamConfig->AWBAlgo.ispGainB[profId];
 927:../../Middlewares/Camera_Middleware/ISP_Library/isp/Src/isp_algo.c ****                   ret = ISP_SVC_ISP_SetGain(hIsp, &ISPGainConfig);
 928:../../Middlewares/Camera_Middleware/ISP_Library/isp/Src/isp_algo.c ****                   if (ret == ISP_OK)
 929:../../Middlewares/Camera_Middleware/ISP_Library/isp/Src/isp_algo.c ****                   {
 930:../../Middlewares/Camera_Middleware/ISP_Library/isp/Src/isp_algo.c ****                     currentColorTemp = (uint32_t) pIspAWBestimator->out_temp ;
 931:../../Middlewares/Camera_Middleware/ISP_Library/isp/Src/isp_algo.c ****                     current_awb_profId = profId;
 932:../../Middlewares/Camera_Middleware/ISP_Library/isp/Src/isp_algo.c ****                   }
 933:../../Middlewares/Camera_Middleware/ISP_Library/isp/Src/isp_algo.c ****                 }
 934:../../Middlewares/Camera_Middleware/ISP_Library/isp/Src/isp_algo.c ****               }
 935:../../Middlewares/Camera_Middleware/ISP_Library/isp/Src/isp_algo.c ****             }
 936:../../Middlewares/Camera_Middleware/ISP_Library/isp/Src/isp_algo.c ****           }
 937:../../Middlewares/Camera_Middleware/ISP_Library/isp/Src/isp_algo.c ****         }
 938:../../Middlewares/Camera_Middleware/ISP_Library/isp/Src/isp_algo.c ****         else
 939:../../Middlewares/Camera_Middleware/ISP_Library/isp/Src/isp_algo.c ****         {
 940:../../Middlewares/Camera_Middleware/ISP_Library/isp/Src/isp_algo.c ****           ret = ISP_ERR_ALGO;
 941:../../Middlewares/Camera_Middleware/ISP_Library/isp/Src/isp_algo.c ****         }
 942:../../Middlewares/Camera_Middleware/ISP_Library/isp/Src/isp_algo.c ****     }
 943:../../Middlewares/Camera_Middleware/ISP_Library/isp/Src/isp_algo.c **** 
 944:../../Middlewares/Camera_Middleware/ISP_Library/isp/Src/isp_algo.c ****     /* Reset reconfigureRequest */
 945:../../Middlewares/Camera_Middleware/ISP_Library/isp/Src/isp_algo.c ****     reconfigureRequest = false;
 946:../../Middlewares/Camera_Middleware/ISP_Library/isp/Src/isp_algo.c **** 
 947:../../Middlewares/Camera_Middleware/ISP_Library/isp/Src/isp_algo.c ****     /* Decrease counter to limit the number of estimations before reaching convergence */
 948:../../Middlewares/Camera_Middleware/ISP_Library/isp/Src/isp_algo.c ****     if (skip_stat_check_count > 0) skip_stat_check_count--;
 949:../../Middlewares/Camera_Middleware/ISP_Library/isp/Src/isp_algo.c **** 
 950:../../Middlewares/Camera_Middleware/ISP_Library/isp/Src/isp_algo.c ****     /* Store history to be able to detect variations*/
 951:../../Middlewares/Camera_Middleware/ISP_Library/isp/Src/isp_algo.c ****     statsHistory[1][0] = statsHistory[0][0];
 952:../../Middlewares/Camera_Middleware/ISP_Library/isp/Src/isp_algo.c ****     statsHistory[1][1] = statsHistory[0][1];
 953:../../Middlewares/Camera_Middleware/ISP_Library/isp/Src/isp_algo.c ****     statsHistory[1][2] = statsHistory[0][2];
 954:../../Middlewares/Camera_Middleware/ISP_Library/isp/Src/isp_algo.c ****     statsHistory[0][0] = stats.up.averageR;
 955:../../Middlewares/Camera_Middleware/ISP_Library/isp/Src/isp_algo.c ****     statsHistory[0][1] = stats.up.averageG;
 956:../../Middlewares/Camera_Middleware/ISP_Library/isp/Src/isp_algo.c ****     statsHistory[0][2] = stats.up.averageB;
 957:../../Middlewares/Camera_Middleware/ISP_Library/isp/Src/isp_algo.c ****     colorTempHistory[1] = colorTempHistory[0];
 958:../../Middlewares/Camera_Middleware/ISP_Library/isp/Src/isp_algo.c ****     colorTempHistory[0] = currentColorTemp;
 959:../../Middlewares/Camera_Middleware/ISP_Library/isp/Src/isp_algo.c **** 
 960:../../Middlewares/Camera_Middleware/ISP_Library/isp/Src/isp_algo.c ****     /* Ask for stats */
 961:../../Middlewares/Camera_Middleware/ISP_Library/isp/Src/isp_algo.c ****     ret_stat = ISP_SVC_Stats_GetNext(hIsp, &ISP_Algo_AWB_StatCb, pAlgo, &stats, ISP_STAT_LOC_DOWN,
 962:../../Middlewares/Camera_Middleware/ISP_Library/isp/Src/isp_algo.c ****                                      ISP_STAT_TYPE_AVG, ALGO_ISP_LATENCY + ALGO_AWB_ADDITIONAL_LATE
 963:../../Middlewares/Camera_Middleware/ISP_Library/isp/Src/isp_algo.c ****     ret = (ret != ISP_OK) ? ret : ret_stat;
 964:../../Middlewares/Camera_Middleware/ISP_Library/isp/Src/isp_algo.c **** 
 965:../../Middlewares/Camera_Middleware/ISP_Library/isp/Src/isp_algo.c ****     /* Wait for stats to be ready */
 966:../../Middlewares/Camera_Middleware/ISP_Library/isp/Src/isp_algo.c ****     algo->state = ISP_ALGO_STATE_WAITING_STAT;
 967:../../Middlewares/Camera_Middleware/ISP_Library/isp/Src/isp_algo.c ****     break;
 968:../../Middlewares/Camera_Middleware/ISP_Library/isp/Src/isp_algo.c ****   }
 969:../../Middlewares/Camera_Middleware/ISP_Library/isp/Src/isp_algo.c **** 
 970:../../Middlewares/Camera_Middleware/ISP_Library/isp/Src/isp_algo.c ****   return ret;
 971:../../Middlewares/Camera_Middleware/ISP_Library/isp/Src/isp_algo.c **** }
 1571              		.loc 1 971 1 view .LVU505
 1572 0028 21B0     		add	sp, sp, #132
ARM GAS  C:\Users\Antonio\AppData\Local\Temp\ccP00qEn.s 			page 53


 1573              		.cfi_remember_state
 1574              		.cfi_def_cfa_offset 44
 1575              		@ sp needed
 1576 002a BDEC028B 		vldm	sp!, {d8}
 1577              		.cfi_restore 80
 1578              		.cfi_restore 81
 1579              		.cfi_def_cfa_offset 36
 1580 002e BDE8F08F 		pop	{r4, r5, r6, r7, r8, r9, r10, fp, pc}
 1581              	.LVL124:
 1582              	.L99:
 1583              		.cfi_restore_state
 729:../../Middlewares/Camera_Middleware/ISP_Library/isp/Src/isp_algo.c ****   {
 1584              		.loc 1 729 8 is_stmt 1 view .LVU506
 729:../../Middlewares/Camera_Middleware/ISP_Library/isp/Src/isp_algo.c ****   {
 1585              		.loc 1 729 11 is_stmt 0 view .LVU507
 1586 0032 1978     		ldrb	r1, [r3]	@ zero_extendqisi2
 1587 0034 11B1     		cbz	r1, .L101
 729:../../Middlewares/Camera_Middleware/ISP_Library/isp/Src/isp_algo.c ****   {
 1588              		.loc 1 729 37 discriminator 1 view .LVU508
 1589 0036 FF2A     		cmp	r2, #255
 1590 0038 40F0B680 		bne	.L102
 1591              	.L101:
 732:../../Middlewares/Camera_Middleware/ISP_Library/isp/Src/isp_algo.c ****     IQParamConfig->AWBAlgo.enable = true;
 1592              		.loc 1 732 5 is_stmt 1 view .LVU509
 732:../../Middlewares/Camera_Middleware/ISP_Library/isp/Src/isp_algo.c ****     IQParamConfig->AWBAlgo.enable = true;
 1593              		.loc 1 732 17 is_stmt 0 view .LVU510
 1594 003c 0022     		movs	r2, #0
 1595 003e 88F80120 		strb	r2, [r8, #1]
 733:../../Middlewares/Camera_Middleware/ISP_Library/isp/Src/isp_algo.c ****     reconfigureRequest = true;
 1596              		.loc 1 733 5 is_stmt 1 view .LVU511
 733:../../Middlewares/Camera_Middleware/ISP_Library/isp/Src/isp_algo.c ****     reconfigureRequest = true;
 1597              		.loc 1 733 35 is_stmt 0 view .LVU512
 1598 0042 0122     		movs	r2, #1
 734:../../Middlewares/Camera_Middleware/ISP_Library/isp/Src/isp_algo.c ****     enableCurrent = true;
 1599              		.loc 1 734 24 view .LVU513
 1600 0044 6949     		ldr	r1, .L163+20
 735:../../Middlewares/Camera_Middleware/ISP_Library/isp/Src/isp_algo.c ****     skip_stat_check_count = ALGO_AWB_STAT_CHECK_SKIP_AFTER_CT_ESTIMATION;
 1601              		.loc 1 735 19 view .LVU514
 1602 0046 1A70     		strb	r2, [r3]
 733:../../Middlewares/Camera_Middleware/ISP_Library/isp/Src/isp_algo.c ****     reconfigureRequest = true;
 1603              		.loc 1 733 35 view .LVU515
 1604 0048 85F87420 		strb	r2, [r5, #116]
 734:../../Middlewares/Camera_Middleware/ISP_Library/isp/Src/isp_algo.c ****     enableCurrent = true;
 1605              		.loc 1 734 5 is_stmt 1 view .LVU516
 734:../../Middlewares/Camera_Middleware/ISP_Library/isp/Src/isp_algo.c ****     enableCurrent = true;
 1606              		.loc 1 734 24 is_stmt 0 view .LVU517
 1607 004c 0A70     		strb	r2, [r1]
 735:../../Middlewares/Camera_Middleware/ISP_Library/isp/Src/isp_algo.c ****     skip_stat_check_count = ALGO_AWB_STAT_CHECK_SKIP_AFTER_CT_ESTIMATION;
 1608              		.loc 1 735 5 is_stmt 1 view .LVU518
 736:../../Middlewares/Camera_Middleware/ISP_Library/isp/Src/isp_algo.c ****   }
 1609              		.loc 1 736 5 view .LVU519
 736:../../Middlewares/Camera_Middleware/ISP_Library/isp/Src/isp_algo.c ****   }
 1610              		.loc 1 736 27 is_stmt 0 view .LVU520
 1611 004e 0422     		movs	r2, #4
 1612 0050 674B     		ldr	r3, .L163+24
 1613 0052 1A70     		strb	r2, [r3]
 739:../../Middlewares/Camera_Middleware/ISP_Library/isp/Src/isp_algo.c ****   {
ARM GAS  C:\Users\Antonio\AppData\Local\Temp\ccP00qEn.s 			page 54


 1614              		.loc 1 739 3 is_stmt 1 view .LVU521
 1615              	.L103:
 1616              	.LVL125:
 744:../../Middlewares/Camera_Middleware/ISP_Library/isp/Src/isp_algo.c ****     {
 1617              		.loc 1 744 29 discriminator 1 view .LVU522
 744:../../Middlewares/Camera_Middleware/ISP_Library/isp/Src/isp_algo.c ****     {
 1618              		.loc 1 744 17 is_stmt 0 view .LVU523
 1619 0054 0024     		movs	r4, #0
 757:../../Middlewares/Camera_Middleware/ISP_Library/isp/Src/isp_algo.c ****       cfaGains[1] = (float) IQParamConfig->AWBAlgo.ispGainG[profId] / ISP_GAIN_PRECISION_FACTOR;
 1620              		.loc 1 757 69 view .LVU524
 1621 0056 9FED678A 		vldr.32	s16, .L163+28
 1622 005a DFF8A491 		ldr	r9, .L163+40
 772:../../Middlewares/Camera_Middleware/ISP_Library/isp/Src/isp_algo.c ****       profNb++;
 1623              		.loc 1 772 7 view .LVU525
 1624 005e DFF89CA1 		ldr	r10, .L163+36
 1625 0062 05F58A77 		add	r7, r5, #276
 1626              	.LVL126:
 1627              	.L110:
 746:../../Middlewares/Camera_Middleware/ISP_Library/isp/Src/isp_algo.c ****       if (colorTemp == 0)
 1628              		.loc 1 746 7 is_stmt 1 view .LVU526
 746:../../Middlewares/Camera_Middleware/ISP_Library/isp/Src/isp_algo.c ****       if (colorTemp == 0)
 1629              		.loc 1 746 17 is_stmt 0 view .LVU527
 1630 0066 7868     		ldr	r0, [r7, #4]
 1631              	.LVL127:
 747:../../Middlewares/Camera_Middleware/ISP_Library/isp/Src/isp_algo.c ****         break;
 1632              		.loc 1 747 7 is_stmt 1 view .LVU528
 747:../../Middlewares/Camera_Middleware/ISP_Library/isp/Src/isp_algo.c ****         break;
 1633              		.loc 1 747 10 is_stmt 0 view .LVU529
 1634 0068 0028     		cmp	r0, #0
 1635 006a 00F0AD80 		beq	.L107
 750:../../Middlewares/Camera_Middleware/ISP_Library/isp/Src/isp_algo.c ****       {
 1636              		.loc 1 750 7 is_stmt 1 view .LVU530
 750:../../Middlewares/Camera_Middleware/ISP_Library/isp/Src/isp_algo.c ****       {
 1637              		.loc 1 750 10 is_stmt 0 view .LVU531
 1638 006e 54B1     		cbz	r4, .L108
 753:../../Middlewares/Camera_Middleware/ISP_Library/isp/Src/isp_algo.c ****       }
 1639              		.loc 1 753 9 is_stmt 1 view .LVU532
 753:../../Middlewares/Camera_Middleware/ISP_Library/isp/Src/isp_algo.c ****       }
 1640              		.loc 1 753 67 is_stmt 0 view .LVU533
 1641 0070 3B68     		ldr	r3, [r7]
 1642 0072 03EB4303 		add	r3, r3, r3, lsl #1
 753:../../Middlewares/Camera_Middleware/ISP_Library/isp/Src/isp_algo.c ****       }
 1643              		.loc 1 753 63 view .LVU534
 1644 0076 0344     		add	r3, r3, r0
 753:../../Middlewares/Camera_Middleware/ISP_Library/isp/Src/isp_algo.c ****       }
 1645              		.loc 1 753 124 view .LVU535
 1646 0078 9B08     		lsrs	r3, r3, #2
 753:../../Middlewares/Camera_Middleware/ISP_Library/isp/Src/isp_algo.c ****       }
 1647              		.loc 1 753 43 view .LVU536
 1648 007a 07EE903A 		vmov	s15, r3	@ int
 1649 007e F8EEE77A 		vcvt.f32.s32	s15, s15
 1650 0082 49ED017A 		vstr.32	s15, [r9, #-4]
 1651              	.L108:
 757:../../Middlewares/Camera_Middleware/ISP_Library/isp/Src/isp_algo.c ****       cfaGains[1] = (float) IQParamConfig->AWBAlgo.ispGainG[profId] / ISP_GAIN_PRECISION_FACTOR;
 1652              		.loc 1 757 7 is_stmt 1 view .LVU537
 757:../../Middlewares/Camera_Middleware/ISP_Library/isp/Src/isp_algo.c ****       cfaGains[1] = (float) IQParamConfig->AWBAlgo.ispGainG[profId] / ISP_GAIN_PRECISION_FACTOR;
 1653              		.loc 1 757 21 is_stmt 0 view .LVU538
ARM GAS  C:\Users\Antonio\AppData\Local\Temp\ccP00qEn.s 			page 55


 1654 0086 D7ED067A 		vldr.32	s15, [r7, #24]	@ int
 1655 008a F8EE677A 		vcvt.f32.u32	s15, s15
 757:../../Middlewares/Camera_Middleware/ISP_Library/isp/Src/isp_algo.c ****       cfaGains[1] = (float) IQParamConfig->AWBAlgo.ispGainG[profId] / ISP_GAIN_PRECISION_FACTOR;
 1656              		.loc 1 757 69 view .LVU539
 1657 008e 87EE887A 		vdiv.f32	s14, s15, s16
 758:../../Middlewares/Camera_Middleware/ISP_Library/isp/Src/isp_algo.c ****       cfaGains[2] = cfaGains[1];
 1658              		.loc 1 758 21 view .LVU540
 1659 0092 D7ED0B7A 		vldr.32	s15, [r7, #44]	@ int
 1660 0096 F8EE677A 		vcvt.f32.u32	s15, s15
 757:../../Middlewares/Camera_Middleware/ISP_Library/isp/Src/isp_algo.c ****       cfaGains[1] = (float) IQParamConfig->AWBAlgo.ispGainG[profId] / ISP_GAIN_PRECISION_FACTOR;
 1661              		.loc 1 757 19 view .LVU541
 1662 009a 8DED107A 		vstr.32	s14, [sp, #64]
 758:../../Middlewares/Camera_Middleware/ISP_Library/isp/Src/isp_algo.c ****       cfaGains[2] = cfaGains[1];
 1663              		.loc 1 758 7 is_stmt 1 view .LVU542
 758:../../Middlewares/Camera_Middleware/ISP_Library/isp/Src/isp_algo.c ****       cfaGains[2] = cfaGains[1];
 1664              		.loc 1 758 69 is_stmt 0 view .LVU543
 1665 009e 87EE887A 		vdiv.f32	s14, s15, s16
 760:../../Middlewares/Camera_Middleware/ISP_Library/isp/Src/isp_algo.c **** 
 1666              		.loc 1 760 21 view .LVU544
 1667 00a2 D7ED107A 		vldr.32	s15, [r7, #64]	@ int
 1668 00a6 F8EE677A 		vcvt.f32.u32	s15, s15
 758:../../Middlewares/Camera_Middleware/ISP_Library/isp/Src/isp_algo.c ****       cfaGains[2] = cfaGains[1];
 1669              		.loc 1 758 19 view .LVU545
 1670 00aa 8DED117A 		vstr.32	s14, [sp, #68]
 759:../../Middlewares/Camera_Middleware/ISP_Library/isp/Src/isp_algo.c ****       cfaGains[3] = (float) IQParamConfig->AWBAlgo.ispGainB[profId] / ISP_GAIN_PRECISION_FACTOR;
 1671              		.loc 1 759 7 is_stmt 1 view .LVU546
 759:../../Middlewares/Camera_Middleware/ISP_Library/isp/Src/isp_algo.c ****       cfaGains[3] = (float) IQParamConfig->AWBAlgo.ispGainB[profId] / ISP_GAIN_PRECISION_FACTOR;
 1672              		.loc 1 759 19 is_stmt 0 view .LVU547
 1673 00ae 8DED127A 		vstr.32	s14, [sp, #72]
 760:../../Middlewares/Camera_Middleware/ISP_Library/isp/Src/isp_algo.c **** 
 1674              		.loc 1 760 7 is_stmt 1 view .LVU548
 760:../../Middlewares/Camera_Middleware/ISP_Library/isp/Src/isp_algo.c **** 
 1675              		.loc 1 760 69 is_stmt 0 view .LVU549
 1676 00b2 87EE887A 		vdiv.f32	s14, s15, s16
 1677 00b6 2423     		movs	r3, #36
 1678 00b8 16A9     		add	r1, sp, #88
 760:../../Middlewares/Camera_Middleware/ISP_Library/isp/Src/isp_algo.c **** 
 1679              		.loc 1 760 19 view .LVU550
 1680 00ba 8DED137A 		vstr.32	s14, [sp, #76]
 763:../../Middlewares/Camera_Middleware/ISP_Library/isp/Src/isp_algo.c ****       {
 1681              		.loc 1 763 7 is_stmt 1 view .LVU551
 1682              	.LVL128:
 763:../../Middlewares/Camera_Middleware/ISP_Library/isp/Src/isp_algo.c ****       {
 1683              		.loc 1 763 21 discriminator 1 view .LVU552
 763:../../Middlewares/Camera_Middleware/ISP_Library/isp/Src/isp_algo.c ****       {
 1684              		.loc 1 763 14 is_stmt 0 view .LVU553
 1685 00be 4FF0000C 		mov	ip, #0
 1686 00c2 0A46     		mov	r2, r1
 1687 00c4 03FB0453 		mla	r3, r3, r4, r5
 1688              	.LVL129:
 1689              	.L109:
 765:../../Middlewares/Camera_Middleware/ISP_Library/isp/Src/isp_algo.c ****         {
 1690              		.loc 1 765 23 is_stmt 1 discriminator 1 view .LVU554
 767:../../Middlewares/Camera_Middleware/ISP_Library/isp/Src/isp_algo.c ****         }
 1691              		.loc 1 767 11 view .LVU555
 767:../../Middlewares/Camera_Middleware/ISP_Library/isp/Src/isp_algo.c ****         }
 1692              		.loc 1 767 29 is_stmt 0 view .LVU556
ARM GAS  C:\Users\Antonio\AppData\Local\Temp\ccP00qEn.s 			page 56


 1693 00c8 D3ED5A7A 		vldr.32	s15, [r3, #360]	@ int
 1694 00cc F8EEE77A 		vcvt.f32.s32	s15, s15
 767:../../Middlewares/Camera_Middleware/ISP_Library/isp/Src/isp_algo.c ****         }
 1695              		.loc 1 767 80 view .LVU557
 1696 00d0 87EE887A 		vdiv.f32	s14, s15, s16
 767:../../Middlewares/Camera_Middleware/ISP_Library/isp/Src/isp_algo.c ****         }
 1697              		.loc 1 767 29 view .LVU558
 1698 00d4 D3ED5B7A 		vldr.32	s15, [r3, #364]	@ int
 1699 00d8 F8EEE77A 		vcvt.f32.s32	s15, s15
 767:../../Middlewares/Camera_Middleware/ISP_Library/isp/Src/isp_algo.c ****         }
 1700              		.loc 1 767 27 view .LVU559
 1701 00dc 81ED007A 		vstr.32	s14, [r1]
 765:../../Middlewares/Camera_Middleware/ISP_Library/isp/Src/isp_algo.c ****         {
 1702              		.loc 1 765 29 is_stmt 1 discriminator 3 view .LVU560
 1703              	.LVL130:
 765:../../Middlewares/Camera_Middleware/ISP_Library/isp/Src/isp_algo.c ****         {
 1704              		.loc 1 765 23 discriminator 1 view .LVU561
 767:../../Middlewares/Camera_Middleware/ISP_Library/isp/Src/isp_algo.c ****         }
 1705              		.loc 1 767 11 view .LVU562
 767:../../Middlewares/Camera_Middleware/ISP_Library/isp/Src/isp_algo.c ****         }
 1706              		.loc 1 767 80 is_stmt 0 view .LVU563
 1707 00e0 87EE887A 		vdiv.f32	s14, s15, s16
 767:../../Middlewares/Camera_Middleware/ISP_Library/isp/Src/isp_algo.c ****         }
 1708              		.loc 1 767 29 view .LVU564
 1709 00e4 D3ED5C7A 		vldr.32	s15, [r3, #368]	@ int
 1710 00e8 F8EEE77A 		vcvt.f32.s32	s15, s15
 767:../../Middlewares/Camera_Middleware/ISP_Library/isp/Src/isp_algo.c ****         }
 1711              		.loc 1 767 27 view .LVU565
 1712 00ec 81ED017A 		vstr.32	s14, [r1, #4]
 765:../../Middlewares/Camera_Middleware/ISP_Library/isp/Src/isp_algo.c ****         {
 1713              		.loc 1 765 29 is_stmt 1 discriminator 3 view .LVU566
 1714              	.LVL131:
 765:../../Middlewares/Camera_Middleware/ISP_Library/isp/Src/isp_algo.c ****         {
 1715              		.loc 1 765 23 discriminator 1 view .LVU567
 767:../../Middlewares/Camera_Middleware/ISP_Library/isp/Src/isp_algo.c ****         }
 1716              		.loc 1 767 11 view .LVU568
 767:../../Middlewares/Camera_Middleware/ISP_Library/isp/Src/isp_algo.c ****         }
 1717              		.loc 1 767 80 is_stmt 0 view .LVU569
 1718 00f0 87EE887A 		vdiv.f32	s14, s15, s16
 763:../../Middlewares/Camera_Middleware/ISP_Library/isp/Src/isp_algo.c ****       {
 1719              		.loc 1 763 27 discriminator 2 view .LVU570
 1720 00f4 0CF1010C 		add	ip, ip, #1
 1721              	.LVL132:
 763:../../Middlewares/Camera_Middleware/ISP_Library/isp/Src/isp_algo.c ****       {
 1722              		.loc 1 763 21 discriminator 1 view .LVU571
 1723 00f8 BCF1030F 		cmp	ip, #3
 767:../../Middlewares/Camera_Middleware/ISP_Library/isp/Src/isp_algo.c ****         }
 1724              		.loc 1 767 27 view .LVU572
 1725 00fc 81ED027A 		vstr.32	s14, [r1, #8]
 765:../../Middlewares/Camera_Middleware/ISP_Library/isp/Src/isp_algo.c ****         {
 1726              		.loc 1 765 29 is_stmt 1 discriminator 3 view .LVU573
 1727              	.LVL133:
 765:../../Middlewares/Camera_Middleware/ISP_Library/isp/Src/isp_algo.c ****         {
 1728              		.loc 1 765 23 discriminator 1 view .LVU574
 763:../../Middlewares/Camera_Middleware/ISP_Library/isp/Src/isp_algo.c ****       {
 1729              		.loc 1 763 27 discriminator 2 view .LVU575
 763:../../Middlewares/Camera_Middleware/ISP_Library/isp/Src/isp_algo.c ****       {
ARM GAS  C:\Users\Antonio\AppData\Local\Temp\ccP00qEn.s 			page 57


 1730              		.loc 1 763 21 discriminator 1 view .LVU576
 1731 0100 03F10C03 		add	r3, r3, #12
 1732 0104 01F10C01 		add	r1, r1, #12
 1733 0108 DED1     		bne	.L109
 772:../../Middlewares/Camera_Middleware/ISP_Library/isp/Src/isp_algo.c ****       profNb++;
 1734              		.loc 1 772 7 view .LVU577
 1735 010a 07EE900A 		vmov	s15, r0	@ int
 1736 010e 4420     		movs	r0, #68
 1737              	.LVL134:
 772:../../Middlewares/Camera_Middleware/ISP_Library/isp/Src/isp_algo.c ****       profNb++;
 1738              		.loc 1 772 7 is_stmt 0 view .LVU578
 1739 0110 B8EE670A 		vcvt.f32.u32	s0, s15
 1740 0114 00FB04A0 		mla	r0, r0, r4, r10
 1741 0118 09AB     		add	r3, sp, #36
 1742 011a 10A9     		add	r1, sp, #64
 773:../../Middlewares/Camera_Middleware/ISP_Library/isp/Src/isp_algo.c ****     }
 1743              		.loc 1 773 13 view .LVU579
 1744 011c 0134     		adds	r4, r4, #1
 1745              	.LVL135:
 772:../../Middlewares/Camera_Middleware/ISP_Library/isp/Src/isp_algo.c ****       profNb++;
 1746              		.loc 1 772 7 view .LVU580
 1747 011e FFF7FEFF 		bl	evision_api_awb_set_profile
 1748              	.LVL136:
 773:../../Middlewares/Camera_Middleware/ISP_Library/isp/Src/isp_algo.c ****     }
 1749              		.loc 1 773 7 is_stmt 1 view .LVU581
 744:../../Middlewares/Camera_Middleware/ISP_Library/isp/Src/isp_algo.c ****     {
 1750              		.loc 1 744 60 discriminator 2 view .LVU582
 744:../../Middlewares/Camera_Middleware/ISP_Library/isp/Src/isp_algo.c ****     {
 1751              		.loc 1 744 29 discriminator 1 view .LVU583
 1752 0122 052C     		cmp	r4, #5
 1753 0124 07F10407 		add	r7, r7, #4
 1754 0128 09F10409 		add	r9, r9, #4
 1755 012c 9BD1     		bne	.L110
 1756              	.LVL137:
 1757              	.L111:
 782:../../Middlewares/Camera_Middleware/ISP_Library/isp/Src/isp_algo.c ****                                           (double) IQParamConfig->AWBAlgo.referenceColorTemp[profNb
 1758              		.loc 1 782 5 view .LVU584
 783:../../Middlewares/Camera_Middleware/ISP_Library/isp/Src/isp_algo.c ****                                           colorTempThresholds, awbProfiles);
 1759              		.loc 1 783 93 is_stmt 0 view .LVU585
 1760 012e 05EB8403 		add	r3, r5, r4, lsl #2
 782:../../Middlewares/Camera_Middleware/ISP_Library/isp/Src/isp_algo.c ****                                           (double) IQParamConfig->AWBAlgo.referenceColorTemp[profNb
 1761              		.loc 1 782 13 view .LVU586
 1762 0132 93ED451A 		vldr.32	s2, [r3, #276]	@ int
 1763 0136 95ED460A 		vldr.32	s0, [r5, #280]	@ int
 1764 013a 2F4D     		ldr	r5, .L163+32
 1765              	.LVL138:
 782:../../Middlewares/Camera_Middleware/ISP_Library/isp/Src/isp_algo.c ****                                           (double) IQParamConfig->AWBAlgo.referenceColorTemp[profNb
 1766              		.loc 1 782 13 view .LVU587
 1767 013c B8EE411B 		vcvt.f64.u32	d1, s2
 1768 0140 B8EE400B 		vcvt.f64.u32	d0, s0
 1769 0144 2D4B     		ldr	r3, .L163+36
 1770 0146 2E4A     		ldr	r2, .L163+40
 1771 0148 2868     		ldr	r0, [r5]
 1772 014a A1B2     		uxth	r1, r4
 1773 014c FFF7FEFF 		bl	evision_api_awb_init_profiles
 1774              	.LVL139:
 785:../../Middlewares/Camera_Middleware/ISP_Library/isp/Src/isp_algo.c ****     {
ARM GAS  C:\Users\Antonio\AppData\Local\Temp\ccP00qEn.s 			page 58


 1775              		.loc 1 785 5 is_stmt 1 view .LVU588
 785:../../Middlewares/Camera_Middleware/ISP_Library/isp/Src/isp_algo.c ****     {
 1776              		.loc 1 785 8 is_stmt 0 view .LVU589
 1777 0150 0128     		cmp	r0, #1
 1778 0152 40F04481 		bne	.L134
 791:../../Middlewares/Camera_Middleware/ISP_Library/isp/Src/isp_algo.c ****     pIspAWBestimator->hyper_params.speed_p_max = (profNb < 4)? 1.8 : 2.0;
 1779              		.loc 1 791 5 is_stmt 1 view .LVU590
 791:../../Middlewares/Camera_Middleware/ISP_Library/isp/Src/isp_algo.c ****     pIspAWBestimator->hyper_params.speed_p_max = (profNb < 4)? 1.8 : 2.0;
 1780              		.loc 1 791 48 is_stmt 0 view .LVU591
 1781 0156 0FF2800B 		adr	fp, .L163
 1782 015a DBE900AB 		ldrd	r10, [fp]
 792:../../Middlewares/Camera_Middleware/ISP_Library/isp/Src/isp_algo.c ****     pIspAWBestimator->hyper_params.gm_tolerance = 1;
 1783              		.loc 1 792 68 discriminator 1 view .LVU592
 1784 015e B0EE007B 		vmov.f64	d7, #2.0e+0
 1785 0162 9FED1F6B 		vldr.64	d6, .L163+8
 793:../../Middlewares/Camera_Middleware/ISP_Library/isp/Src/isp_algo.c ****     pIspAWBestimator->hyper_params.conv_criterion = 3;
 1786              		.loc 1 793 49 view .LVU593
 1787 0166 4FF07E52 		mov	r2, #1065353216
 792:../../Middlewares/Camera_Middleware/ISP_Library/isp/Src/isp_algo.c ****     pIspAWBestimator->hyper_params.gm_tolerance = 1;
 1788              		.loc 1 792 68 discriminator 1 view .LVU594
 1789 016a 032C     		cmp	r4, #3
 1790 016c 98BF     		it	ls
 1791 016e B0EE467B 		vmovls.f64	d7, d6
 791:../../Middlewares/Camera_Middleware/ISP_Library/isp/Src/isp_algo.c ****     pIspAWBestimator->hyper_params.speed_p_max = (profNb < 4)? 1.8 : 2.0;
 1792              		.loc 1 791 21 view .LVU595
 1793 0172 2B68     		ldr	r3, [r5]
 793:../../Middlewares/Camera_Middleware/ISP_Library/isp/Src/isp_algo.c ****     pIspAWBestimator->hyper_params.conv_criterion = 3;
 1794              		.loc 1 793 49 view .LVU596
 1795 0174 C3F8B822 		str	r2, [r3, #696]	@ float
 794:../../Middlewares/Camera_Middleware/ISP_Library/isp/Src/isp_algo.c **** 
 1796              		.loc 1 794 51 view .LVU597
 1797 0178 224A     		ldr	r2, .L163+44
 792:../../Middlewares/Camera_Middleware/ISP_Library/isp/Src/isp_algo.c ****     pIspAWBestimator->hyper_params.gm_tolerance = 1;
 1798              		.loc 1 792 48 discriminator 4 view .LVU598
 1799 017a 83EDA87B 		vstr.64	d7, [r3, #672]
 791:../../Middlewares/Camera_Middleware/ISP_Library/isp/Src/isp_algo.c ****     pIspAWBestimator->hyper_params.speed_p_max = (profNb < 4)? 1.8 : 2.0;
 1800              		.loc 1 791 48 view .LVU599
 1801 017e C3E9A6AB 		strd	r10, [r3, #664]
 792:../../Middlewares/Camera_Middleware/ISP_Library/isp/Src/isp_algo.c ****     pIspAWBestimator->hyper_params.gm_tolerance = 1;
 1802              		.loc 1 792 5 is_stmt 1 view .LVU600
 793:../../Middlewares/Camera_Middleware/ISP_Library/isp/Src/isp_algo.c ****     pIspAWBestimator->hyper_params.conv_criterion = 3;
 1803              		.loc 1 793 5 view .LVU601
 794:../../Middlewares/Camera_Middleware/ISP_Library/isp/Src/isp_algo.c **** 
 1804              		.loc 1 794 5 view .LVU602
 794:../../Middlewares/Camera_Middleware/ISP_Library/isp/Src/isp_algo.c **** 
 1805              		.loc 1 794 51 is_stmt 0 view .LVU603
 1806 0182 C3F8B422 		str	r2, [r3, #692]	@ float
 797:../../Middlewares/Camera_Middleware/ISP_Library/isp/Src/isp_algo.c ****                                 ISP_STAT_TYPE_AVG, ALGO_ISP_LATENCY + ALGO_AWB_ADDITIONAL_LATENCY);
 1807              		.loc 1 797 5 is_stmt 1 view .LVU604
 797:../../Middlewares/Camera_Middleware/ISP_Library/isp/Src/isp_algo.c ****                                 ISP_STAT_TYPE_AVG, ALGO_ISP_LATENCY + ALGO_AWB_ADDITIONAL_LATENCY);
 1808              		.loc 1 797 11 is_stmt 0 view .LVU605
 1809 0186 0523     		movs	r3, #5
 1810 0188 CDE90103 		strd	r0, r3, [sp, #4]
 1811              	.LVL140:
 1812              	.L162:
 809:../../Middlewares/Camera_Middleware/ISP_Library/isp/Src/isp_algo.c ****                                 ISP_STAT_TYPE_AVG, ALGO_ISP_LATENCY + ALGO_AWB_ADDITIONAL_LATENCY);
 1813              		.loc 1 809 11 view .LVU606
ARM GAS  C:\Users\Antonio\AppData\Local\Temp\ccP00qEn.s 			page 59


 1814 018c 0224     		movs	r4, #2
 1815 018e 4246     		mov	r2, r8
 1816 0190 3046     		mov	r0, r6
 1817 0192 1D4B     		ldr	r3, .L163+48
 1818 0194 1D49     		ldr	r1, .L163+52
 1819 0196 0094     		str	r4, [sp]
 1820 0198 FFF7FEFF 		bl	ISP_SVC_Stats_GetNext
 1821              	.LVL141:
 811:../../Middlewares/Camera_Middleware/ISP_Library/isp/Src/isp_algo.c ****     {
 1822              		.loc 1 811 5 is_stmt 1 view .LVU607
 811:../../Middlewares/Camera_Middleware/ISP_Library/isp/Src/isp_algo.c ****     {
 1823              		.loc 1 811 8 is_stmt 0 view .LVU608
 1824 019c 0028     		cmp	r0, #0
 1825 019e 7FF443AF 		bne	.L140
 817:../../Middlewares/Camera_Middleware/ISP_Library/isp/Src/isp_algo.c ****     break;
 1826              		.loc 1 817 5 is_stmt 1 view .LVU609
 817:../../Middlewares/Camera_Middleware/ISP_Library/isp/Src/isp_algo.c ****     break;
 1827              		.loc 1 817 17 is_stmt 0 view .LVU610
 1828 01a2 88F80140 		strb	r4, [r8, #1]
 818:../../Middlewares/Camera_Middleware/ISP_Library/isp/Src/isp_algo.c **** 
 1829              		.loc 1 818 5 is_stmt 1 view .LVU611
 1830 01a6 3FE7     		b	.L140
 1831              	.LVL142:
 1832              	.L102:
 739:../../Middlewares/Camera_Middleware/ISP_Library/isp/Src/isp_algo.c ****   {
 1833              		.loc 1 739 3 view .LVU612
 739:../../Middlewares/Camera_Middleware/ISP_Library/isp/Src/isp_algo.c ****   {
 1834              		.loc 1 739 14 is_stmt 0 view .LVU613
 1835 01a8 98F80130 		ldrb	r3, [r8, #1]	@ zero_extendqisi2
 739:../../Middlewares/Camera_Middleware/ISP_Library/isp/Src/isp_algo.c ****   {
 1836              		.loc 1 739 3 view .LVU614
 1837 01ac 032B     		cmp	r3, #3
 1838 01ae 2FD0     		beq	.L104
 1839 01b0 3FF639AF 		bhi	.L105
 1840 01b4 002B     		cmp	r3, #0
 1841 01b6 3FF44DAF 		beq	.L103
 1842 01ba 012B     		cmp	r3, #1
 1843 01bc 7FF433AF 		bne	.L105
 809:../../Middlewares/Camera_Middleware/ISP_Library/isp/Src/isp_algo.c ****                                 ISP_STAT_TYPE_AVG, ALGO_ISP_LATENCY + ALGO_AWB_ADDITIONAL_LATENCY);
 1844              		.loc 1 809 5 is_stmt 1 view .LVU615
 809:../../Middlewares/Camera_Middleware/ISP_Library/isp/Src/isp_algo.c ****                                 ISP_STAT_TYPE_AVG, ALGO_ISP_LATENCY + ALGO_AWB_ADDITIONAL_LATENCY);
 1845              		.loc 1 809 11 is_stmt 0 view .LVU616
 1846 01c0 0522     		movs	r2, #5
 1847 01c2 CDE90132 		strd	r3, r2, [sp, #4]
 1848 01c6 E1E7     		b	.L162
 1849              	.LVL143:
 1850              	.L107:
 776:../../Middlewares/Camera_Middleware/ISP_Library/isp/Src/isp_algo.c ****     {
 1851              		.loc 1 776 5 is_stmt 1 view .LVU617
 778:../../Middlewares/Camera_Middleware/ISP_Library/isp/Src/isp_algo.c ****     }
 1852              		.loc 1 778 14 is_stmt 0 view .LVU618
 1853 01c8 9620     		movs	r0, #150
 1854              	.LVL144:
 776:../../Middlewares/Camera_Middleware/ISP_Library/isp/Src/isp_algo.c ****     {
 1855              		.loc 1 776 8 view .LVU619
 1856 01ca 002C     		cmp	r4, #0
 1857 01cc 3FF42CAF 		beq	.L140
ARM GAS  C:\Users\Antonio\AppData\Local\Temp\ccP00qEn.s 			page 60


 1858 01d0 ADE7     		b	.L111
 1859              	.L164:
 1860 01d2 00BFAFF3 		.align	3
 1860      0080
 1861              	.L163:
 1862 01d8 9A999999 		.word	-1717986918
 1863 01dc 9999F53F 		.word	1073060249
 1864 01e0 CDCCCCCC 		.word	-858993459
 1865 01e4 CCCCFC3F 		.word	1073532108
 1866 01e8 00000000 		.word	enableCurrent.8
 1867 01ec 00000000 		.word	reconfigureRequest.7
 1868 01f0 00000000 		.word	skip_stat_check_count.6
 1869 01f4 20BCBE4C 		.word	1287568416
 1870 01f8 00000000 		.word	pIspAWBestimator
 1871 01fc 00000000 		.word	awbProfiles.4
 1872 0200 00000000 		.word	colorTempThresholds.5
 1873 0204 00004040 		.word	1077936128
 1874 0208 00000000 		.word	stats.3
 1875 020c 00000000 		.word	ISP_Algo_AWB_StatCb
 1876              	.LVL145:
 1877              	.L104:
 825:../../Middlewares/Camera_Middleware/ISP_Library/isp/Src/isp_algo.c **** 
 1878              		.loc 1 825 5 is_stmt 1 view .LVU620
 1879 0210 DFF86C92 		ldr	r9, .L165+16
 1880 0214 3046     		mov	r0, r6
 1881              	.LVL146:
 825:../../Middlewares/Camera_Middleware/ISP_Library/isp/Src/isp_algo.c **** 
 1882              		.loc 1 825 5 is_stmt 0 view .LVU621
 1883 0216 4946     		mov	r1, r9
 1884 0218 FFF7FEFF 		bl	ISP_Algo_GetUpStat
 1885              	.LVL147:
 827:../../Middlewares/Camera_Middleware/ISP_Library/isp/Src/isp_algo.c ****     {
 1886              		.loc 1 827 5 is_stmt 1 view .LVU622
 827:../../Middlewares/Camera_Middleware/ISP_Library/isp/Src/isp_algo.c ****     {
 1887              		.loc 1 827 19 discriminator 1 view .LVU623
 1888 021c DFF86CC2 		ldr	ip, .L165+28
 827:../../Middlewares/Camera_Middleware/ISP_Library/isp/Src/isp_algo.c ****     {
 1889              		.loc 1 827 12 is_stmt 0 view .LVU624
 1890 0220 A646     		mov	lr, r4
 1891 0222 6746     		mov	r7, ip
 829:../../Middlewares/Camera_Middleware/ISP_Library/isp/Src/isp_algo.c ****       {
 1892              		.loc 1 829 24 view .LVU625
 1893 0224 99F80000 		ldrb	r0, [r9]	@ zero_extendqisi2
 829:../../Middlewares/Camera_Middleware/ISP_Library/isp/Src/isp_algo.c ****       {
 1894              		.loc 1 829 77 discriminator 1 view .LVU626
 1895 0228 99F80110 		ldrb	r1, [r9, #1]	@ zero_extendqisi2
 829:../../Middlewares/Camera_Middleware/ISP_Library/isp/Src/isp_algo.c ****       {
 1896              		.loc 1 829 130 discriminator 2 view .LVU627
 1897 022c 99F80220 		ldrb	r2, [r9, #2]	@ zero_extendqisi2
 1898              	.LVL148:
 1899              	.L117:
 829:../../Middlewares/Camera_Middleware/ISP_Library/isp/Src/isp_algo.c ****       {
 1900              		.loc 1 829 7 is_stmt 1 view .LVU628
 829:../../Middlewares/Camera_Middleware/ISP_Library/isp/Src/isp_algo.c ****       {
 1901              		.loc 1 829 34 is_stmt 0 view .LVU629
 1902 0230 DCF80030 		ldr	r3, [ip]
 1903 0234 C31A     		subs	r3, r0, r3
ARM GAS  C:\Users\Antonio\AppData\Local\Temp\ccP00qEn.s 			page 61


 829:../../Middlewares/Camera_Middleware/ISP_Library/isp/Src/isp_algo.c ****       {
 1904              		.loc 1 829 12 view .LVU630
 1905 0236 002B     		cmp	r3, #0
 1906 0238 B8BF     		it	lt
 1907 023a 5B42     		rsblt	r3, r3, #0
 829:../../Middlewares/Camera_Middleware/ISP_Library/isp/Src/isp_algo.c ****       {
 1908              		.loc 1 829 10 view .LVU631
 1909 023c 022B     		cmp	r3, #2
 1910 023e 00F3A880 		bgt	.L137
 829:../../Middlewares/Camera_Middleware/ISP_Library/isp/Src/isp_algo.c ****       {
 1911              		.loc 1 829 87 discriminator 1 view .LVU632
 1912 0242 DCF80430 		ldr	r3, [ip, #4]
 1913 0246 CB1A     		subs	r3, r1, r3
 829:../../Middlewares/Camera_Middleware/ISP_Library/isp/Src/isp_algo.c ****       {
 1914              		.loc 1 829 65 discriminator 1 view .LVU633
 1915 0248 002B     		cmp	r3, #0
 1916 024a B8BF     		it	lt
 1917 024c 5B42     		rsblt	r3, r3, #0
 829:../../Middlewares/Camera_Middleware/ISP_Library/isp/Src/isp_algo.c ****       {
 1918              		.loc 1 829 61 discriminator 1 view .LVU634
 1919 024e 022B     		cmp	r3, #2
 1920 0250 00F39F80 		bgt	.L137
 829:../../Middlewares/Camera_Middleware/ISP_Library/isp/Src/isp_algo.c ****       {
 1921              		.loc 1 829 140 discriminator 2 view .LVU635
 1922 0254 DCF80830 		ldr	r3, [ip, #8]
 1923 0258 D31A     		subs	r3, r2, r3
 829:../../Middlewares/Camera_Middleware/ISP_Library/isp/Src/isp_algo.c ****       {
 1924              		.loc 1 829 118 discriminator 2 view .LVU636
 1925 025a 002B     		cmp	r3, #0
 1926 025c B8BF     		it	lt
 1927 025e 5B42     		rsblt	r3, r3, #0
 831:../../Middlewares/Camera_Middleware/ISP_Library/isp/Src/isp_algo.c ****       }
 1928              		.loc 1 831 26 view .LVU637
 1929 0260 032B     		cmp	r3, #3
 1930 0262 A8BF     		it	ge
 1931 0264 0124     		movge	r4, #1
 1932              	.LVL149:
 1933              	.L116:
 827:../../Middlewares/Camera_Middleware/ISP_Library/isp/Src/isp_algo.c ****     {
 1934              		.loc 1 827 25 is_stmt 1 discriminator 2 view .LVU638
 1935 0266 0EF1010E 		add	lr, lr, #1
 1936              	.LVL150:
 827:../../Middlewares/Camera_Middleware/ISP_Library/isp/Src/isp_algo.c ****     {
 1937              		.loc 1 827 19 discriminator 1 view .LVU639
 1938 026a BEF1030F 		cmp	lr, #3
 1939 026e 0CF10C0C 		add	ip, ip, #12
 1940 0272 DDD1     		bne	.L117
 835:../../Middlewares/Camera_Middleware/ISP_Library/isp/Src/isp_algo.c ****     {
 1941              		.loc 1 835 5 view .LVU640
 835:../../Middlewares/Camera_Middleware/ISP_Library/isp/Src/isp_algo.c ****     {
 1942              		.loc 1 835 51 is_stmt 0 discriminator 2 view .LVU641
 1943 0274 7E4B     		ldr	r3, .L165
 835:../../Middlewares/Camera_Middleware/ISP_Library/isp/Src/isp_algo.c ****     {
 1944              		.loc 1 835 9 view .LVU642
 1945 0276 DFF818A2 		ldr	r10, .L165+32
 835:../../Middlewares/Camera_Middleware/ISP_Library/isp/Src/isp_algo.c ****     {
 1946              		.loc 1 835 51 discriminator 2 view .LVU643
ARM GAS  C:\Users\Antonio\AppData\Local\Temp\ccP00qEn.s 			page 62


 1947 027a 93F800C0 		ldrb	ip, [r3]	@ zero_extendqisi2
 1948 027e 9AF800E0 		ldrb	lr, [r10]	@ zero_extendqisi2
 1949              	.LVL151:
 835:../../Middlewares/Camera_Middleware/ISP_Library/isp/Src/isp_algo.c ****     {
 1950              		.loc 1 835 51 discriminator 2 view .LVU644
 1951 0282 DFF810B2 		ldr	fp, .L165+36
 1952 0286 4EEA0C03 		orr	r3, lr, ip
 1953 028a 1C43     		orrs	r4, r4, r3
 1954              	.LVL152:
 835:../../Middlewares/Camera_Middleware/ISP_Library/isp/Src/isp_algo.c ****     {
 1955              		.loc 1 835 51 discriminator 2 view .LVU645
 1956 028c E4B2     		uxtb	r4, r4
 1957 028e 002C     		cmp	r4, #0
 1958 0290 4CD0     		beq	.L119
 837:../../Middlewares/Camera_Middleware/ISP_Library/isp/Src/isp_algo.c ****         statsHistory[2][1] = stats.up.averageG;
 1959              		.loc 1 837 9 is_stmt 1 view .LVU646
 842:../../Middlewares/Camera_Middleware/ISP_Library/isp/Src/isp_algo.c **** 
 1960              		.loc 1 842 9 is_stmt 0 view .LVU647
 1961 0292 08AB     		add	r3, sp, #32
 838:../../Middlewares/Camera_Middleware/ISP_Library/isp/Src/isp_algo.c ****         statsHistory[2][2] = stats.up.averageB;
 1962              		.loc 1 838 28 view .LVU648
 1963 0294 C7E90601 		strd	r0, r1, [r7, #24]
 839:../../Middlewares/Camera_Middleware/ISP_Library/isp/Src/isp_algo.c **** 
 1964              		.loc 1 839 9 is_stmt 1 view .LVU649
 839:../../Middlewares/Camera_Middleware/ISP_Library/isp/Src/isp_algo.c **** 
 1965              		.loc 1 839 28 is_stmt 0 view .LVU650
 1966 0298 3A62     		str	r2, [r7, #32]
 842:../../Middlewares/Camera_Middleware/ISP_Library/isp/Src/isp_algo.c **** 
 1967              		.loc 1 842 9 is_stmt 1 view .LVU651
 1968 029a 0293     		str	r3, [sp, #8]
 1969 029c 07AB     		add	r3, sp, #28
 1970 029e 0193     		str	r3, [sp, #4]
 1971 02a0 06AB     		add	r3, sp, #24
 1972 02a2 0093     		str	r3, [sp]
 1973 02a4 99F83630 		ldrb	r3, [r9, #54]	@ zero_extendqisi2
 1974 02a8 99F83520 		ldrb	r2, [r9, #53]	@ zero_extendqisi2
 1975 02ac 3046     		mov	r0, r6
 1976 02ae 99F83410 		ldrb	r1, [r9, #52]	@ zero_extendqisi2
 1977 02b2 FFF7FEFF 		bl	ISP_Algo_ApplyCConv
 1978              	.LVL153:
 845:../../Middlewares/Camera_Middleware/ISP_Library/isp/Src/isp_algo.c ****         meas[1] = ISP_Algo_ApplyGammaInverse(hIsp, ccAvgG);
 1979              		.loc 1 845 9 view .LVU652
 845:../../Middlewares/Camera_Middleware/ISP_Library/isp/Src/isp_algo.c ****         meas[1] = ISP_Algo_ApplyGammaInverse(hIsp, ccAvgG);
 1980              		.loc 1 845 19 is_stmt 0 view .LVU653
 1981 02b6 3046     		mov	r0, r6
 1982 02b8 0699     		ldr	r1, [sp, #24]
 1983 02ba FFF7FEFF 		bl	ISP_Algo_ApplyGammaInverse
 1984              	.LVL154:
 846:../../Middlewares/Camera_Middleware/ISP_Library/isp/Src/isp_algo.c ****         meas[2] = ISP_Algo_ApplyGammaInverse(hIsp, ccAvgB);
 1985              		.loc 1 846 19 view .LVU654
 1986 02be 3046     		mov	r0, r6
 1987 02c0 0799     		ldr	r1, [sp, #28]
 845:../../Middlewares/Camera_Middleware/ISP_Library/isp/Src/isp_algo.c ****         meas[1] = ISP_Algo_ApplyGammaInverse(hIsp, ccAvgG);
 1988              		.loc 1 845 17 discriminator 1 view .LVU655
 1989 02c2 8DED100B 		vstr.64	d0, [sp, #64]
 846:../../Middlewares/Camera_Middleware/ISP_Library/isp/Src/isp_algo.c ****         meas[2] = ISP_Algo_ApplyGammaInverse(hIsp, ccAvgB);
 1990              		.loc 1 846 9 is_stmt 1 view .LVU656
ARM GAS  C:\Users\Antonio\AppData\Local\Temp\ccP00qEn.s 			page 63


 846:../../Middlewares/Camera_Middleware/ISP_Library/isp/Src/isp_algo.c ****         meas[2] = ISP_Algo_ApplyGammaInverse(hIsp, ccAvgB);
 1991              		.loc 1 846 19 is_stmt 0 view .LVU657
 1992 02c6 FFF7FEFF 		bl	ISP_Algo_ApplyGammaInverse
 1993              	.LVL155:
 847:../../Middlewares/Camera_Middleware/ISP_Library/isp/Src/isp_algo.c **** 
 1994              		.loc 1 847 19 view .LVU658
 1995 02ca 3046     		mov	r0, r6
 1996 02cc 0899     		ldr	r1, [sp, #32]
 846:../../Middlewares/Camera_Middleware/ISP_Library/isp/Src/isp_algo.c ****         meas[2] = ISP_Algo_ApplyGammaInverse(hIsp, ccAvgB);
 1997              		.loc 1 846 17 discriminator 1 view .LVU659
 1998 02ce 8DED120B 		vstr.64	d0, [sp, #72]
 847:../../Middlewares/Camera_Middleware/ISP_Library/isp/Src/isp_algo.c **** 
 1999              		.loc 1 847 9 is_stmt 1 view .LVU660
 847:../../Middlewares/Camera_Middleware/ISP_Library/isp/Src/isp_algo.c **** 
 2000              		.loc 1 847 19 is_stmt 0 view .LVU661
 2001 02d2 FFF7FEFF 		bl	ISP_Algo_ApplyGammaInverse
 2002              	.LVL156:
 850:../../Middlewares/Camera_Middleware/ISP_Library/isp/Src/isp_algo.c ****         if (e_ret == EVISION_RET_SUCCESS)
 2003              		.loc 1 850 17 view .LVU662
 2004 02d6 6748     		ldr	r0, .L165+4
 2005 02d8 0122     		movs	r2, #1
 2006 02da 0021     		movs	r1, #0
 2007 02dc 0068     		ldr	r0, [r0]
 2008 02de 10AB     		add	r3, sp, #64
 847:../../Middlewares/Camera_Middleware/ISP_Library/isp/Src/isp_algo.c **** 
 2009              		.loc 1 847 17 discriminator 1 view .LVU663
 2010 02e0 8DED140B 		vstr.64	d0, [sp, #80]
 850:../../Middlewares/Camera_Middleware/ISP_Library/isp/Src/isp_algo.c ****         if (e_ret == EVISION_RET_SUCCESS)
 2011              		.loc 1 850 9 is_stmt 1 view .LVU664
 850:../../Middlewares/Camera_Middleware/ISP_Library/isp/Src/isp_algo.c ****         if (e_ret == EVISION_RET_SUCCESS)
 2012              		.loc 1 850 17 is_stmt 0 view .LVU665
 2013 02e4 FFF7FEFF 		bl	evision_api_awb_run_average
 2014              	.LVL157:
 851:../../Middlewares/Camera_Middleware/ISP_Library/isp/Src/isp_algo.c ****         {
 2015              		.loc 1 851 9 is_stmt 1 view .LVU666
 851:../../Middlewares/Camera_Middleware/ISP_Library/isp/Src/isp_algo.c ****         {
 2016              		.loc 1 851 12 is_stmt 0 view .LVU667
 2017 02e8 0128     		cmp	r0, #1
 2018 02ea 76D1     		bne	.L139
 885:../../Middlewares/Camera_Middleware/ISP_Library/isp/Src/isp_algo.c ****           {
 2019              		.loc 1 885 11 is_stmt 1 view .LVU668
 885:../../Middlewares/Camera_Middleware/ISP_Library/isp/Src/isp_algo.c ****           {
 2020              		.loc 1 885 31 is_stmt 0 view .LVU669
 2021 02ec 614B     		ldr	r3, .L165+4
 2022 02ee 1B68     		ldr	r3, [r3]
 2023 02f0 93ED127B 		vldr.64	d7, [r3, #72]
 885:../../Middlewares/Camera_Middleware/ISP_Library/isp/Src/isp_algo.c ****           {
 2024              		.loc 1 885 42 view .LVU670
 2025 02f4 604B     		ldr	r3, .L165+8
 2026 02f6 1B68     		ldr	r3, [r3]
 2027 02f8 06EE903A 		vmov	s13, r3	@ int
 2028 02fc B8EE666B 		vcvt.f64.u32	d6, s13
 885:../../Middlewares/Camera_Middleware/ISP_Library/isp/Src/isp_algo.c ****           {
 2029              		.loc 1 885 14 view .LVU671
 2030 0300 B4EE467B 		vcmp.f64	d7, d6
 2031 0304 F1EE10FA 		vmrs	APSR_nzcv, FPSCR
 885:../../Middlewares/Camera_Middleware/ISP_Library/isp/Src/isp_algo.c ****           {
ARM GAS  C:\Users\Antonio\AppData\Local\Temp\ccP00qEn.s 			page 64


 2032              		.loc 1 885 42 view .LVU672
 2033 0308 0593     		str	r3, [sp, #20]
 885:../../Middlewares/Camera_Middleware/ISP_Library/isp/Src/isp_algo.c ****           {
 2034              		.loc 1 885 14 view .LVU673
 2035 030a 03D1     		bne	.L121
 885:../../Middlewares/Camera_Middleware/ISP_Library/isp/Src/isp_algo.c ****           {
 2036              		.loc 1 885 62 discriminator 1 view .LVU674
 2037 030c 584B     		ldr	r3, .L165
 2038 030e 1B78     		ldrb	r3, [r3]	@ zero_extendqisi2
 2039 0310 012B     		cmp	r3, #1
 2040 0312 0BD1     		bne	.L119
 2041              	.L121:
 890:../../Middlewares/Camera_Middleware/ISP_Library/isp/Src/isp_algo.c ****             {
 2042              		.loc 1 890 13 is_stmt 1 view .LVU675
 890:../../Middlewares/Camera_Middleware/ISP_Library/isp/Src/isp_algo.c ****             {
 2043              		.loc 1 890 44 is_stmt 0 view .LVU676
 2044 0314 DBED016A 		vldr.32	s13, [fp, #4]	@ int
 2045 0318 B8EE666B 		vcvt.f64.u32	d6, s13
 890:../../Middlewares/Camera_Middleware/ISP_Library/isp/Src/isp_algo.c ****             {
 2046              		.loc 1 890 16 view .LVU677
 2047 031c B4EE467B 		vcmp.f64	d7, d6
 2048 0320 F1EE10FA 		vmrs	APSR_nzcv, FPSCR
 2049 0324 37D1     		bne	.L123
 892:../../Middlewares/Camera_Middleware/ISP_Library/isp/Src/isp_algo.c ****             }
 2050              		.loc 1 892 15 is_stmt 1 view .LVU678
 892:../../Middlewares/Camera_Middleware/ISP_Library/isp/Src/isp_algo.c ****             }
 2051              		.loc 1 892 37 is_stmt 0 view .LVU679
 2052 0326 0023     		movs	r3, #0
 2053 0328 8AF80030 		strb	r3, [r10]
 2054              	.LVL158:
 2055              	.L119:
 712:../../Middlewares/Camera_Middleware/ISP_Library/isp/Src/isp_algo.c ****   evision_return_t e_ret;
 2056              		.loc 1 712 31 view .LVU680
 2057 032c 0024     		movs	r4, #0
 2058              	.LVL159:
 2059              	.L120:
 945:../../Middlewares/Camera_Middleware/ISP_Library/isp/Src/isp_algo.c **** 
 2060              		.loc 1 945 5 is_stmt 1 view .LVU681
 945:../../Middlewares/Camera_Middleware/ISP_Library/isp/Src/isp_algo.c **** 
 2061              		.loc 1 945 24 is_stmt 0 view .LVU682
 2062 032e 0023     		movs	r3, #0
 2063 0330 4F4A     		ldr	r2, .L165
 2064 0332 1370     		strb	r3, [r2]
 948:../../Middlewares/Camera_Middleware/ISP_Library/isp/Src/isp_algo.c **** 
 2065              		.loc 1 948 5 is_stmt 1 view .LVU683
 948:../../Middlewares/Camera_Middleware/ISP_Library/isp/Src/isp_algo.c **** 
 2066              		.loc 1 948 31 is_stmt 0 view .LVU684
 2067 0334 9AF80030 		ldrb	r3, [r10]	@ zero_extendqisi2
 948:../../Middlewares/Camera_Middleware/ISP_Library/isp/Src/isp_algo.c **** 
 2068              		.loc 1 948 8 view .LVU685
 2069 0338 13B1     		cbz	r3, .L129
 948:../../Middlewares/Camera_Middleware/ISP_Library/isp/Src/isp_algo.c **** 
 2070              		.loc 1 948 36 is_stmt 1 discriminator 1 view .LVU686
 948:../../Middlewares/Camera_Middleware/ISP_Library/isp/Src/isp_algo.c **** 
 2071              		.loc 1 948 57 is_stmt 0 discriminator 1 view .LVU687
 2072 033a 013B     		subs	r3, r3, #1
 2073 033c 8AF80030 		strb	r3, [r10]
ARM GAS  C:\Users\Antonio\AppData\Local\Temp\ccP00qEn.s 			page 65


 2074              	.L129:
 951:../../Middlewares/Camera_Middleware/ISP_Library/isp/Src/isp_algo.c ****     statsHistory[1][1] = statsHistory[0][1];
 2075              		.loc 1 951 5 is_stmt 1 view .LVU688
 951:../../Middlewares/Camera_Middleware/ISP_Library/isp/Src/isp_algo.c ****     statsHistory[1][1] = statsHistory[0][1];
 2076              		.loc 1 951 24 is_stmt 0 view .LVU689
 2077 0340 3B68     		ldr	r3, [r7]
 961:../../Middlewares/Camera_Middleware/ISP_Library/isp/Src/isp_algo.c ****                                      ISP_STAT_TYPE_AVG, ALGO_ISP_LATENCY + ALGO_AWB_ADDITIONAL_LATE
 2078              		.loc 1 961 16 view .LVU690
 2079 0342 0522     		movs	r2, #5
 951:../../Middlewares/Camera_Middleware/ISP_Library/isp/Src/isp_algo.c ****     statsHistory[1][1] = statsHistory[0][1];
 2080              		.loc 1 951 24 view .LVU691
 2081 0344 FB60     		str	r3, [r7, #12]
 952:../../Middlewares/Camera_Middleware/ISP_Library/isp/Src/isp_algo.c ****     statsHistory[1][2] = statsHistory[0][2];
 2082              		.loc 1 952 5 is_stmt 1 view .LVU692
 952:../../Middlewares/Camera_Middleware/ISP_Library/isp/Src/isp_algo.c ****     statsHistory[1][2] = statsHistory[0][2];
 2083              		.loc 1 952 24 is_stmt 0 view .LVU693
 2084 0346 7B68     		ldr	r3, [r7, #4]
 961:../../Middlewares/Camera_Middleware/ISP_Library/isp/Src/isp_algo.c ****                                      ISP_STAT_TYPE_AVG, ALGO_ISP_LATENCY + ALGO_AWB_ADDITIONAL_LATE
 2085              		.loc 1 961 16 view .LVU694
 2086 0348 0225     		movs	r5, #2
 952:../../Middlewares/Camera_Middleware/ISP_Library/isp/Src/isp_algo.c ****     statsHistory[1][2] = statsHistory[0][2];
 2087              		.loc 1 952 24 view .LVU695
 2088 034a 3B61     		str	r3, [r7, #16]
 953:../../Middlewares/Camera_Middleware/ISP_Library/isp/Src/isp_algo.c ****     statsHistory[0][0] = stats.up.averageR;
 2089              		.loc 1 953 5 is_stmt 1 view .LVU696
 953:../../Middlewares/Camera_Middleware/ISP_Library/isp/Src/isp_algo.c ****     statsHistory[0][0] = stats.up.averageR;
 2090              		.loc 1 953 24 is_stmt 0 view .LVU697
 2091 034c BB68     		ldr	r3, [r7, #8]
 961:../../Middlewares/Camera_Middleware/ISP_Library/isp/Src/isp_algo.c ****                                      ISP_STAT_TYPE_AVG, ALGO_ISP_LATENCY + ALGO_AWB_ADDITIONAL_LATE
 2092              		.loc 1 961 16 view .LVU698
 2093 034e 3046     		mov	r0, r6
 953:../../Middlewares/Camera_Middleware/ISP_Library/isp/Src/isp_algo.c ****     statsHistory[0][0] = stats.up.averageR;
 2094              		.loc 1 953 24 view .LVU699
 2095 0350 7B61     		str	r3, [r7, #20]
 954:../../Middlewares/Camera_Middleware/ISP_Library/isp/Src/isp_algo.c ****     statsHistory[0][1] = stats.up.averageG;
 2096              		.loc 1 954 5 is_stmt 1 view .LVU700
 954:../../Middlewares/Camera_Middleware/ISP_Library/isp/Src/isp_algo.c ****     statsHistory[0][1] = stats.up.averageG;
 2097              		.loc 1 954 34 is_stmt 0 view .LVU701
 2098 0352 99F80030 		ldrb	r3, [r9]	@ zero_extendqisi2
 961:../../Middlewares/Camera_Middleware/ISP_Library/isp/Src/isp_algo.c ****                                      ISP_STAT_TYPE_AVG, ALGO_ISP_LATENCY + ALGO_AWB_ADDITIONAL_LATE
 2099              		.loc 1 961 16 view .LVU702
 2100 0356 4949     		ldr	r1, .L165+12
 954:../../Middlewares/Camera_Middleware/ISP_Library/isp/Src/isp_algo.c ****     statsHistory[0][1] = stats.up.averageG;
 2101              		.loc 1 954 34 view .LVU703
 2102 0358 3B60     		str	r3, [r7]
 955:../../Middlewares/Camera_Middleware/ISP_Library/isp/Src/isp_algo.c ****     statsHistory[0][2] = stats.up.averageB;
 2103              		.loc 1 955 5 is_stmt 1 view .LVU704
 955:../../Middlewares/Camera_Middleware/ISP_Library/isp/Src/isp_algo.c ****     statsHistory[0][2] = stats.up.averageB;
 2104              		.loc 1 955 34 is_stmt 0 view .LVU705
 2105 035a 99F80130 		ldrb	r3, [r9, #1]	@ zero_extendqisi2
 2106 035e 7B60     		str	r3, [r7, #4]
 956:../../Middlewares/Camera_Middleware/ISP_Library/isp/Src/isp_algo.c ****     colorTempHistory[1] = colorTempHistory[0];
 2107              		.loc 1 956 5 is_stmt 1 view .LVU706
 956:../../Middlewares/Camera_Middleware/ISP_Library/isp/Src/isp_algo.c ****     colorTempHistory[1] = colorTempHistory[0];
 2108              		.loc 1 956 34 is_stmt 0 view .LVU707
 2109 0360 99F80230 		ldrb	r3, [r9, #2]	@ zero_extendqisi2
 2110 0364 BB60     		str	r3, [r7, #8]
ARM GAS  C:\Users\Antonio\AppData\Local\Temp\ccP00qEn.s 			page 66


 957:../../Middlewares/Camera_Middleware/ISP_Library/isp/Src/isp_algo.c ****     colorTempHistory[0] = currentColorTemp;
 2111              		.loc 1 957 5 is_stmt 1 view .LVU708
 957:../../Middlewares/Camera_Middleware/ISP_Library/isp/Src/isp_algo.c ****     colorTempHistory[0] = currentColorTemp;
 2112              		.loc 1 957 25 is_stmt 0 view .LVU709
 2113 0366 DBF80030 		ldr	r3, [fp]
 2114 036a CBF80430 		str	r3, [fp, #4]
 958:../../Middlewares/Camera_Middleware/ISP_Library/isp/Src/isp_algo.c **** 
 2115              		.loc 1 958 5 is_stmt 1 view .LVU710
 958:../../Middlewares/Camera_Middleware/ISP_Library/isp/Src/isp_algo.c **** 
 2116              		.loc 1 958 25 is_stmt 0 view .LVU711
 2117 036e 424B     		ldr	r3, .L165+8
 2118 0370 1B68     		ldr	r3, [r3]
 2119 0372 CBF80030 		str	r3, [fp]
 961:../../Middlewares/Camera_Middleware/ISP_Library/isp/Src/isp_algo.c ****                                      ISP_STAT_TYPE_AVG, ALGO_ISP_LATENCY + ALGO_AWB_ADDITIONAL_LATE
 2120              		.loc 1 961 5 is_stmt 1 view .LVU712
 961:../../Middlewares/Camera_Middleware/ISP_Library/isp/Src/isp_algo.c ****                                      ISP_STAT_TYPE_AVG, ALGO_ISP_LATENCY + ALGO_AWB_ADDITIONAL_LATE
 2121              		.loc 1 961 16 is_stmt 0 view .LVU713
 2122 0376 0123     		movs	r3, #1
 2123 0378 0095     		str	r5, [sp]
 2124 037a CDE90132 		strd	r3, r2, [sp, #4]
 2125 037e 4246     		mov	r2, r8
 2126 0380 3F4B     		ldr	r3, .L165+16
 2127 0382 FFF7FEFF 		bl	ISP_SVC_Stats_GetNext
 2128              	.LVL160:
 963:../../Middlewares/Camera_Middleware/ISP_Library/isp/Src/isp_algo.c **** 
 2129              		.loc 1 963 5 is_stmt 1 view .LVU714
 963:../../Middlewares/Camera_Middleware/ISP_Library/isp/Src/isp_algo.c **** 
 2130              		.loc 1 963 33 is_stmt 0 discriminator 1 view .LVU715
 2131 0386 002C     		cmp	r4, #0
 2132 0388 18BF     		it	ne
 2133 038a 2046     		movne	r0, r4
 2134              	.LVL161:
 966:../../Middlewares/Camera_Middleware/ISP_Library/isp/Src/isp_algo.c ****     break;
 2135              		.loc 1 966 5 is_stmt 1 view .LVU716
 966:../../Middlewares/Camera_Middleware/ISP_Library/isp/Src/isp_algo.c ****     break;
 2136              		.loc 1 966 17 is_stmt 0 view .LVU717
 2137 038c 88F80150 		strb	r5, [r8, #1]
 967:../../Middlewares/Camera_Middleware/ISP_Library/isp/Src/isp_algo.c ****   }
 2138              		.loc 1 967 5 is_stmt 1 view .LVU718
 2139 0390 4AE6     		b	.L140
 2140              	.LVL162:
 2141              	.L137:
 831:../../Middlewares/Camera_Middleware/ISP_Library/isp/Src/isp_algo.c ****       }
 2142              		.loc 1 831 26 is_stmt 0 view .LVU719
 2143 0392 0124     		movs	r4, #1
 2144              	.LVL163:
 831:../../Middlewares/Camera_Middleware/ISP_Library/isp/Src/isp_algo.c ****       }
 2145              		.loc 1 831 26 view .LVU720
 2146 0394 67E7     		b	.L116
 2147              	.LVL164:
 2148              	.L123:
 896:../../Middlewares/Camera_Middleware/ISP_Library/isp/Src/isp_algo.c **** 
 2149              		.loc 1 896 15 is_stmt 1 view .LVU721
 896:../../Middlewares/Camera_Middleware/ISP_Library/isp/Src/isp_algo.c **** 
 2150              		.loc 1 896 18 is_stmt 0 view .LVU722
 2151 0396 9AF80030 		ldrb	r3, [r10]	@ zero_extendqisi2
 899:../../Middlewares/Camera_Middleware/ISP_Library/isp/Src/isp_algo.c **** 
ARM GAS  C:\Users\Antonio\AppData\Local\Temp\ccP00qEn.s 			page 67


 2152              		.loc 1 899 32 view .LVU723
 2153 039a FCEEC76B 		vcvt.u32.f64	s13, d7
 896:../../Middlewares/Camera_Middleware/ISP_Library/isp/Src/isp_algo.c **** 
 2154              		.loc 1 896 18 view .LVU724
 2155 039e 042B     		cmp	r3, #4
 896:../../Middlewares/Camera_Middleware/ISP_Library/isp/Src/isp_algo.c **** 
 2156              		.loc 1 896 90 is_stmt 1 discriminator 1 view .LVU725
 896:../../Middlewares/Camera_Middleware/ISP_Library/isp/Src/isp_algo.c **** 
 2157              		.loc 1 896 112 is_stmt 0 discriminator 1 view .LVU726
 2158 03a0 98BF     		it	ls
 2159 03a2 0423     		movls	r3, #4
 899:../../Middlewares/Camera_Middleware/ISP_Library/isp/Src/isp_algo.c **** 
 2160              		.loc 1 899 32 view .LVU727
 2161 03a4 374A     		ldr	r2, .L165+20
 896:../../Middlewares/Camera_Middleware/ISP_Library/isp/Src/isp_algo.c **** 
 2162              		.loc 1 896 112 discriminator 1 view .LVU728
 2163 03a6 98BF     		it	ls
 2164 03a8 8AF80030 		strbls	r3, [r10]
 899:../../Middlewares/Camera_Middleware/ISP_Library/isp/Src/isp_algo.c **** 
 2165              		.loc 1 899 15 is_stmt 1 view .LVU729
 899:../../Middlewares/Camera_Middleware/ISP_Library/isp/Src/isp_algo.c **** 
 2166              		.loc 1 899 32 is_stmt 0 view .LVU730
 2167 03ac C2ED046A 		vstr.32	s13, [r2, #16]	@ int
 902:../../Middlewares/Camera_Middleware/ISP_Library/isp/Src/isp_algo.c ****               {
 2168              		.loc 1 902 15 is_stmt 1 view .LVU731
 2169              	.LVL165:
 902:../../Middlewares/Camera_Middleware/ISP_Library/isp/Src/isp_algo.c ****               {
 2170              		.loc 1 902 39 discriminator 1 view .LVU732
 902:../../Middlewares/Camera_Middleware/ISP_Library/isp/Src/isp_algo.c ****               {
 2171              		.loc 1 902 27 is_stmt 0 view .LVU733
 2172 03b0 0523     		movs	r3, #5
 2173 03b2 0022     		movs	r2, #0
 2174 03b4 05F58A71 		add	r1, r5, #276
 2175              	.LVL166:
 2176              	.L126:
 904:../../Middlewares/Camera_Middleware/ISP_Library/isp/Src/isp_algo.c ****                   break;
 2177              		.loc 1 904 17 is_stmt 1 view .LVU734
 904:../../Middlewares/Camera_Middleware/ISP_Library/isp/Src/isp_algo.c ****                   break;
 2178              		.loc 1 904 48 is_stmt 0 view .LVU735
 2179 03b8 91ED016A 		vldr.32	s12, [r1, #4]	@ int
 2180 03bc B8EE466B 		vcvt.f64.u32	d6, s12
 904:../../Middlewares/Camera_Middleware/ISP_Library/isp/Src/isp_algo.c ****                   break;
 2181              		.loc 1 904 20 view .LVU736
 2182 03c0 B4EE467B 		vcmp.f64	d7, d6
 2183 03c4 F1EE10FA 		vmrs	APSR_nzcv, FPSCR
 904:../../Middlewares/Camera_Middleware/ISP_Library/isp/Src/isp_algo.c ****                   break;
 2184              		.loc 1 904 48 view .LVU737
 2185 03c8 01F10401 		add	r1, r1, #4
 904:../../Middlewares/Camera_Middleware/ISP_Library/isp/Src/isp_algo.c ****                   break;
 2186              		.loc 1 904 20 view .LVU738
 2187 03cc 09D0     		beq	.L125
 902:../../Middlewares/Camera_Middleware/ISP_Library/isp/Src/isp_algo.c ****               {
 2188              		.loc 1 902 70 is_stmt 1 discriminator 2 view .LVU739
 902:../../Middlewares/Camera_Middleware/ISP_Library/isp/Src/isp_algo.c ****               {
 2189              		.loc 1 902 39 is_stmt 0 discriminator 1 view .LVU740
 2190 03ce 013B     		subs	r3, r3, #1
 902:../../Middlewares/Camera_Middleware/ISP_Library/isp/Src/isp_algo.c ****               {
ARM GAS  C:\Users\Antonio\AppData\Local\Temp\ccP00qEn.s 			page 68


 2191              		.loc 1 902 70 discriminator 2 view .LVU741
 2192 03d0 02F10102 		add	r2, r2, #1
 2193              	.LVL167:
 902:../../Middlewares/Camera_Middleware/ISP_Library/isp/Src/isp_algo.c ****               {
 2194              		.loc 1 902 39 is_stmt 1 discriminator 1 view .LVU742
 2195 03d4 F0D1     		bne	.L126
 911:../../Middlewares/Camera_Middleware/ISP_Library/isp/Src/isp_algo.c ****               }
 2196              		.loc 1 911 22 is_stmt 0 view .LVU743
 2197 03d6 9624     		movs	r4, #150
 2198 03d8 A9E7     		b	.L120
 2199              	.LVL168:
 2200              	.L139:
 940:../../Middlewares/Camera_Middleware/ISP_Library/isp/Src/isp_algo.c ****         }
 2201              		.loc 1 940 15 view .LVU744
 2202 03da BE24     		movs	r4, #190
 2203 03dc A7E7     		b	.L120
 2204              	.LVL169:
 2205              	.L134:
 787:../../Middlewares/Camera_Middleware/ISP_Library/isp/Src/isp_algo.c ****     }
 2206              		.loc 1 787 14 view .LVU745
 2207 03de BE20     		movs	r0, #190
 2208              	.LVL170:
 787:../../Middlewares/Camera_Middleware/ISP_Library/isp/Src/isp_algo.c ****     }
 2209              		.loc 1 787 14 view .LVU746
 2210 03e0 22E6     		b	.L140
 2211              	.LVL171:
 2212              	.L125:
 908:../../Middlewares/Camera_Middleware/ISP_Library/isp/Src/isp_algo.c ****               {
 2213              		.loc 1 908 15 is_stmt 1 view .LVU747
 916:../../Middlewares/Camera_Middleware/ISP_Library/isp/Src/isp_algo.c ****                 memcpy(ColorConvConfig.coeff, IQParamConfig->AWBAlgo.coeff[profId], sizeof(ColorCon
 2214              		.loc 1 916 17 view .LVU748
 916:../../Middlewares/Camera_Middleware/ISP_Library/isp/Src/isp_algo.c ****                 memcpy(ColorConvConfig.coeff, IQParamConfig->AWBAlgo.coeff[profId], sizeof(ColorCon
 2215              		.loc 1 916 40 is_stmt 0 view .LVU749
 2216 03e2 0123     		movs	r3, #1
 917:../../Middlewares/Camera_Middleware/ISP_Library/isp/Src/isp_algo.c ****                 ret = ISP_SVC_ISP_SetColorConv(hIsp, &ColorConvConfig);
 2217              		.loc 1 917 17 view .LVU750
 2218 03e4 4FF0040E 		mov	lr, #4
 916:../../Middlewares/Camera_Middleware/ISP_Library/isp/Src/isp_algo.c ****                 memcpy(ColorConvConfig.coeff, IQParamConfig->AWBAlgo.coeff[profId], sizeof(ColorCon
 2219              		.loc 1 916 40 view .LVU751
 2220 03e8 8DF85830 		strb	r3, [sp, #88]
 917:../../Middlewares/Camera_Middleware/ISP_Library/isp/Src/isp_algo.c ****                 ret = ISP_SVC_ISP_SetColorConv(hIsp, &ColorConvConfig);
 2221              		.loc 1 917 17 is_stmt 1 view .LVU752
 917:../../Middlewares/Camera_Middleware/ISP_Library/isp/Src/isp_algo.c ****                 ret = ISP_SVC_ISP_SetColorConv(hIsp, &ColorConvConfig);
 2222              		.loc 1 917 75 is_stmt 0 view .LVU753
 2223 03ec 2423     		movs	r3, #36
 917:../../Middlewares/Camera_Middleware/ISP_Library/isp/Src/isp_algo.c ****                 ret = ISP_SVC_ISP_SetColorConv(hIsp, &ColorConvConfig);
 2224              		.loc 1 917 17 view .LVU754
 2225 03ee 4EF001E0 		dls	lr, lr
 917:../../Middlewares/Camera_Middleware/ISP_Library/isp/Src/isp_algo.c ****                 ret = ISP_SVC_ISP_SetColorConv(hIsp, &ColorConvConfig);
 2226              		.loc 1 917 75 view .LVU755
 2227 03f2 03FB0253 		mla	r3, r3, r2, r5
 917:../../Middlewares/Camera_Middleware/ISP_Library/isp/Src/isp_algo.c ****                 ret = ISP_SVC_ISP_SetColorConv(hIsp, &ColorConvConfig);
 2228              		.loc 1 917 17 view .LVU756
 2229 03f6 17AC     		add	r4, sp, #92
 917:../../Middlewares/Camera_Middleware/ISP_Library/isp/Src/isp_algo.c ****                 ret = ISP_SVC_ISP_SetColorConv(hIsp, &ColorConvConfig);
 2230              		.loc 1 917 75 view .LVU757
 2231 03f8 03F5B473 		add	r3, r3, #360
ARM GAS  C:\Users\Antonio\AppData\Local\Temp\ccP00qEn.s 			page 69


 2232              	.LVL172:
 2233              	.L131:
 917:../../Middlewares/Camera_Middleware/ISP_Library/isp/Src/isp_algo.c ****                 ret = ISP_SVC_ISP_SetColorConv(hIsp, &ColorConvConfig);
 2234              		.loc 1 917 17 view .LVU758
 2235 03fc A446     		mov	ip, r4
 2236 03fe 1868     		ldr	r0, [r3]	@ unaligned
 2237 0400 5968     		ldr	r1, [r3, #4]	@ unaligned
 2238 0402 0833     		adds	r3, r3, #8
 2239 0404 ACE80300 		stmia	ip!, {r0, r1}
 2240 0408 6446     		mov	r4, ip
 2241 040a 0FF009C8 		le	lr, .L131
 2242 040e 0592     		str	r2, [sp, #20]
 2243 0410 1868     		ldr	r0, [r3]	@ unaligned
 918:../../Middlewares/Camera_Middleware/ISP_Library/isp/Src/isp_algo.c **** 
 2244              		.loc 1 918 23 view .LVU759
 2245 0412 16A9     		add	r1, sp, #88
 917:../../Middlewares/Camera_Middleware/ISP_Library/isp/Src/isp_algo.c ****                 ret = ISP_SVC_ISP_SetColorConv(hIsp, &ColorConvConfig);
 2246              		.loc 1 917 17 view .LVU760
 2247 0414 CCF80000 		str	r0, [ip]
 918:../../Middlewares/Camera_Middleware/ISP_Library/isp/Src/isp_algo.c **** 
 2248              		.loc 1 918 17 is_stmt 1 view .LVU761
 918:../../Middlewares/Camera_Middleware/ISP_Library/isp/Src/isp_algo.c **** 
 2249              		.loc 1 918 23 is_stmt 0 view .LVU762
 2250 0418 3046     		mov	r0, r6
 2251 041a FFF7FEFF 		bl	ISP_SVC_ISP_SetColorConv
 2252              	.LVL173:
 921:../../Middlewares/Camera_Middleware/ISP_Library/isp/Src/isp_algo.c ****                 {
 2253              		.loc 1 921 17 is_stmt 1 view .LVU763
 921:../../Middlewares/Camera_Middleware/ISP_Library/isp/Src/isp_algo.c ****                 {
 2254              		.loc 1 921 20 is_stmt 0 view .LVU764
 2255 041e 059A     		ldr	r2, [sp, #20]
 2256 0420 0446     		mov	r4, r0
 2257 0422 0028     		cmp	r0, #0
 2258 0424 83D1     		bne	.L120
 923:../../Middlewares/Camera_Middleware/ISP_Library/isp/Src/isp_algo.c ****                   ISPGainConfig.ispGainR = IQParamConfig->AWBAlgo.ispGainR[profId];
 2259              		.loc 1 923 19 is_stmt 1 view .LVU765
 923:../../Middlewares/Camera_Middleware/ISP_Library/isp/Src/isp_algo.c ****                   ISPGainConfig.ispGainR = IQParamConfig->AWBAlgo.ispGainR[profId];
 2260              		.loc 1 923 40 is_stmt 0 view .LVU766
 2261 0426 0123     		movs	r3, #1
 2262 0428 05EB8205 		add	r5, r5, r2, lsl #2
 2263              	.LVL174:
 923:../../Middlewares/Camera_Middleware/ISP_Library/isp/Src/isp_algo.c ****                   ISPGainConfig.ispGainR = IQParamConfig->AWBAlgo.ispGainR[profId];
 2264              		.loc 1 923 40 view .LVU767
 2265 042c 8DF83030 		strb	r3, [sp, #48]
 924:../../Middlewares/Camera_Middleware/ISP_Library/isp/Src/isp_algo.c ****                   ISPGainConfig.ispGainG = IQParamConfig->AWBAlgo.ispGainG[profId];
 2266              		.loc 1 924 19 is_stmt 1 view .LVU768
 924:../../Middlewares/Camera_Middleware/ISP_Library/isp/Src/isp_algo.c ****                   ISPGainConfig.ispGainG = IQParamConfig->AWBAlgo.ispGainG[profId];
 2267              		.loc 1 924 42 is_stmt 0 view .LVU769
 2268 0430 D5F82C31 		ldr	r3, [r5, #300]
 927:../../Middlewares/Camera_Middleware/ISP_Library/isp/Src/isp_algo.c ****                   if (ret == ISP_OK)
 2269              		.loc 1 927 25 view .LVU770
 2270 0434 3046     		mov	r0, r6
 2271              	.LVL175:
 924:../../Middlewares/Camera_Middleware/ISP_Library/isp/Src/isp_algo.c ****                   ISPGainConfig.ispGainG = IQParamConfig->AWBAlgo.ispGainG[profId];
 2272              		.loc 1 924 42 view .LVU771
 2273 0436 0D93     		str	r3, [sp, #52]
 925:../../Middlewares/Camera_Middleware/ISP_Library/isp/Src/isp_algo.c ****                   ISPGainConfig.ispGainB = IQParamConfig->AWBAlgo.ispGainB[profId];
ARM GAS  C:\Users\Antonio\AppData\Local\Temp\ccP00qEn.s 			page 70


 2274              		.loc 1 925 19 is_stmt 1 view .LVU772
 925:../../Middlewares/Camera_Middleware/ISP_Library/isp/Src/isp_algo.c ****                   ISPGainConfig.ispGainB = IQParamConfig->AWBAlgo.ispGainB[profId];
 2275              		.loc 1 925 42 is_stmt 0 view .LVU773
 2276 0438 D5F84031 		ldr	r3, [r5, #320]
 927:../../Middlewares/Camera_Middleware/ISP_Library/isp/Src/isp_algo.c ****                   if (ret == ISP_OK)
 2277              		.loc 1 927 25 view .LVU774
 2278 043c 0CA9     		add	r1, sp, #48
 925:../../Middlewares/Camera_Middleware/ISP_Library/isp/Src/isp_algo.c ****                   ISPGainConfig.ispGainB = IQParamConfig->AWBAlgo.ispGainB[profId];
 2279              		.loc 1 925 42 view .LVU775
 2280 043e 0E93     		str	r3, [sp, #56]
 926:../../Middlewares/Camera_Middleware/ISP_Library/isp/Src/isp_algo.c ****                   ret = ISP_SVC_ISP_SetGain(hIsp, &ISPGainConfig);
 2281              		.loc 1 926 19 is_stmt 1 view .LVU776
 926:../../Middlewares/Camera_Middleware/ISP_Library/isp/Src/isp_algo.c ****                   ret = ISP_SVC_ISP_SetGain(hIsp, &ISPGainConfig);
 2282              		.loc 1 926 42 is_stmt 0 view .LVU777
 2283 0440 D5F85431 		ldr	r3, [r5, #340]
 2284 0444 0592     		str	r2, [sp, #20]
 2285 0446 0F93     		str	r3, [sp, #60]
 927:../../Middlewares/Camera_Middleware/ISP_Library/isp/Src/isp_algo.c ****                   if (ret == ISP_OK)
 2286              		.loc 1 927 19 is_stmt 1 view .LVU778
 927:../../Middlewares/Camera_Middleware/ISP_Library/isp/Src/isp_algo.c ****                   if (ret == ISP_OK)
 2287              		.loc 1 927 25 is_stmt 0 view .LVU779
 2288 0448 FFF7FEFF 		bl	ISP_SVC_ISP_SetGain
 2289              	.LVL176:
 928:../../Middlewares/Camera_Middleware/ISP_Library/isp/Src/isp_algo.c ****                   {
 2290              		.loc 1 928 19 is_stmt 1 view .LVU780
 928:../../Middlewares/Camera_Middleware/ISP_Library/isp/Src/isp_algo.c ****                   {
 2291              		.loc 1 928 22 is_stmt 0 view .LVU781
 2292 044c 0446     		mov	r4, r0
 2293 044e 0028     		cmp	r0, #0
 2294 0450 7FF46DAF 		bne	.L120
 930:../../Middlewares/Camera_Middleware/ISP_Library/isp/Src/isp_algo.c ****                     current_awb_profId = profId;
 2295              		.loc 1 930 21 is_stmt 1 view .LVU782
 930:../../Middlewares/Camera_Middleware/ISP_Library/isp/Src/isp_algo.c ****                     current_awb_profId = profId;
 2296              		.loc 1 930 67 is_stmt 0 view .LVU783
 2297 0454 074B     		ldr	r3, .L165+4
 931:../../Middlewares/Camera_Middleware/ISP_Library/isp/Src/isp_algo.c ****                   }
 2298              		.loc 1 931 40 view .LVU784
 2299 0456 059A     		ldr	r2, [sp, #20]
 930:../../Middlewares/Camera_Middleware/ISP_Library/isp/Src/isp_algo.c ****                     current_awb_profId = profId;
 2300              		.loc 1 930 67 view .LVU785
 2301 0458 1B68     		ldr	r3, [r3]
 930:../../Middlewares/Camera_Middleware/ISP_Library/isp/Src/isp_algo.c ****                     current_awb_profId = profId;
 2302              		.loc 1 930 40 view .LVU786
 2303 045a 93ED127B 		vldr.64	d7, [r3, #72]
 2304 045e BCEEC77B 		vcvt.u32.f64	s14, d7
 2305 0462 054B     		ldr	r3, .L165+8
 2306 0464 83ED007A 		vstr.32	s14, [r3]	@ int
 931:../../Middlewares/Camera_Middleware/ISP_Library/isp/Src/isp_algo.c ****                   }
 2307              		.loc 1 931 21 is_stmt 1 view .LVU787
 931:../../Middlewares/Camera_Middleware/ISP_Library/isp/Src/isp_algo.c ****                   }
 2308              		.loc 1 931 40 is_stmt 0 view .LVU788
 2309 0468 074B     		ldr	r3, .L165+24
 2310 046a 1A60     		str	r2, [r3]
 2311 046c 5FE7     		b	.L120
 2312              	.L166:
 2313 046e 00BF     		.align	2
 2314              	.L165:
ARM GAS  C:\Users\Antonio\AppData\Local\Temp\ccP00qEn.s 			page 71


 2315 0470 00000000 		.word	reconfigureRequest.7
 2316 0474 00000000 		.word	pIspAWBestimator
 2317 0478 00000000 		.word	currentColorTemp.1
 2318 047c 00000000 		.word	ISP_Algo_AWB_StatCb
 2319 0480 00000000 		.word	stats.3
 2320 0484 00000000 		.word	Meta
 2321 0488 00000000 		.word	current_awb_profId
 2322 048c 00000000 		.word	statsHistory.2
 2323 0490 00000000 		.word	skip_stat_check_count.6
 2324 0494 00000000 		.word	colorTempHistory.0
 2325              		.cfi_endproc
 2326              	.LFE852:
 2328              		.section	.text.ISP_Algo_Init,"ax",%progbits
 2329              		.align	1
 2330              		.global	ISP_Algo_Init
 2331              		.syntax unified
 2332              		.thumb
 2333              		.thumb_func
 2335              	ISP_Algo_Init:
 2336              	.LVL177:
 2337              	.LFB853:
 972:../../Middlewares/Camera_Middleware/ISP_Library/isp/Src/isp_algo.c **** #endif /* ISP_MW_SW_AWB_ALGO_SUPPORT */
 973:../../Middlewares/Camera_Middleware/ISP_Library/isp/Src/isp_algo.c **** 
 974:../../Middlewares/Camera_Middleware/ISP_Library/isp/Src/isp_algo.c **** #ifdef ISP_MW_TUNING_TOOL_SUPPORT
 975:../../Middlewares/Camera_Middleware/ISP_Library/isp/Src/isp_algo.c **** /**
 976:../../Middlewares/Camera_Middleware/ISP_Library/isp/Src/isp_algo.c ****   * @brief  ISP_Algo_SensorDelay_Init
 977:../../Middlewares/Camera_Middleware/ISP_Library/isp/Src/isp_algo.c ****   *         Initialize the SensorDelay algorithm
 978:../../Middlewares/Camera_Middleware/ISP_Library/isp/Src/isp_algo.c ****   * @param  hIsp:  ISP device handle. To cast in (ISP_HandleTypeDef *).
 979:../../Middlewares/Camera_Middleware/ISP_Library/isp/Src/isp_algo.c ****   * @param  pAlgo: ISP algorithm handle. To cast in (ISP_AlgoTypeDef *).
 980:../../Middlewares/Camera_Middleware/ISP_Library/isp/Src/isp_algo.c ****   * @retval operation result
 981:../../Middlewares/Camera_Middleware/ISP_Library/isp/Src/isp_algo.c ****   */
 982:../../Middlewares/Camera_Middleware/ISP_Library/isp/Src/isp_algo.c **** ISP_StatusTypeDef ISP_Algo_SensorDelay_Init(void *hIsp, void *pAlgo)
 983:../../Middlewares/Camera_Middleware/ISP_Library/isp/Src/isp_algo.c **** {
 984:../../Middlewares/Camera_Middleware/ISP_Library/isp/Src/isp_algo.c ****   (void)hIsp; /* unused */
 985:../../Middlewares/Camera_Middleware/ISP_Library/isp/Src/isp_algo.c **** 
 986:../../Middlewares/Camera_Middleware/ISP_Library/isp/Src/isp_algo.c ****   ((ISP_AlgoTypeDef *)pAlgo)->state = ISP_ALGO_STATE_INIT;
 987:../../Middlewares/Camera_Middleware/ISP_Library/isp/Src/isp_algo.c **** 
 988:../../Middlewares/Camera_Middleware/ISP_Library/isp/Src/isp_algo.c ****   return ISP_OK;
 989:../../Middlewares/Camera_Middleware/ISP_Library/isp/Src/isp_algo.c **** }
 990:../../Middlewares/Camera_Middleware/ISP_Library/isp/Src/isp_algo.c **** 
 991:../../Middlewares/Camera_Middleware/ISP_Library/isp/Src/isp_algo.c **** /**
 992:../../Middlewares/Camera_Middleware/ISP_Library/isp/Src/isp_algo.c ****   * @brief  ISP_Algo_SensorDelay_DeInit
 993:../../Middlewares/Camera_Middleware/ISP_Library/isp/Src/isp_algo.c ****   *         Deinitialize the SensorDelay algorithm
 994:../../Middlewares/Camera_Middleware/ISP_Library/isp/Src/isp_algo.c ****   * @param  hIsp:  ISP device handle. To cast in (ISP_HandleTypeDef *).
 995:../../Middlewares/Camera_Middleware/ISP_Library/isp/Src/isp_algo.c ****   * @param  pAlgo: ISP algorithm handle. To cast in (ISP_AlgoTypeDef *).
 996:../../Middlewares/Camera_Middleware/ISP_Library/isp/Src/isp_algo.c ****   * @retval operation result
 997:../../Middlewares/Camera_Middleware/ISP_Library/isp/Src/isp_algo.c ****   */
 998:../../Middlewares/Camera_Middleware/ISP_Library/isp/Src/isp_algo.c **** ISP_StatusTypeDef ISP_Algo_SensorDelay_DeInit(void *hIsp, void *pAlgo)
 999:../../Middlewares/Camera_Middleware/ISP_Library/isp/Src/isp_algo.c **** {
1000:../../Middlewares/Camera_Middleware/ISP_Library/isp/Src/isp_algo.c ****   (void)hIsp; /* unused */
1001:../../Middlewares/Camera_Middleware/ISP_Library/isp/Src/isp_algo.c **** 
1002:../../Middlewares/Camera_Middleware/ISP_Library/isp/Src/isp_algo.c ****   ((ISP_AlgoTypeDef *)pAlgo)->state = ISP_ALGO_STATE_INIT;
1003:../../Middlewares/Camera_Middleware/ISP_Library/isp/Src/isp_algo.c **** 
1004:../../Middlewares/Camera_Middleware/ISP_Library/isp/Src/isp_algo.c ****   return ISP_OK;
1005:../../Middlewares/Camera_Middleware/ISP_Library/isp/Src/isp_algo.c **** }
1006:../../Middlewares/Camera_Middleware/ISP_Library/isp/Src/isp_algo.c **** 
1007:../../Middlewares/Camera_Middleware/ISP_Library/isp/Src/isp_algo.c **** /**
ARM GAS  C:\Users\Antonio\AppData\Local\Temp\ccP00qEn.s 			page 72


1008:../../Middlewares/Camera_Middleware/ISP_Library/isp/Src/isp_algo.c ****   * @brief  ISP_Algo_SensorDelay_StatCb
1009:../../Middlewares/Camera_Middleware/ISP_Library/isp/Src/isp_algo.c ****   *         Callback informing that statistics are available
1010:../../Middlewares/Camera_Middleware/ISP_Library/isp/Src/isp_algo.c ****   * @param  pAlgo: ISP algorithm handle.
1011:../../Middlewares/Camera_Middleware/ISP_Library/isp/Src/isp_algo.c ****   * @retval operation result
1012:../../Middlewares/Camera_Middleware/ISP_Library/isp/Src/isp_algo.c ****   */
1013:../../Middlewares/Camera_Middleware/ISP_Library/isp/Src/isp_algo.c **** ISP_StatusTypeDef ISP_Algo_SensorDelay_StatCb(ISP_AlgoTypeDef *pAlgo)
1014:../../Middlewares/Camera_Middleware/ISP_Library/isp/Src/isp_algo.c **** {
1015:../../Middlewares/Camera_Middleware/ISP_Library/isp/Src/isp_algo.c ****   /* Update State */
1016:../../Middlewares/Camera_Middleware/ISP_Library/isp/Src/isp_algo.c ****   pAlgo->state = ISP_ALGO_STATE_STAT_READY;
1017:../../Middlewares/Camera_Middleware/ISP_Library/isp/Src/isp_algo.c **** 
1018:../../Middlewares/Camera_Middleware/ISP_Library/isp/Src/isp_algo.c ****   return ISP_OK;
1019:../../Middlewares/Camera_Middleware/ISP_Library/isp/Src/isp_algo.c **** }
1020:../../Middlewares/Camera_Middleware/ISP_Library/isp/Src/isp_algo.c **** 
1021:../../Middlewares/Camera_Middleware/ISP_Library/isp/Src/isp_algo.c **** /**
1022:../../Middlewares/Camera_Middleware/ISP_Library/isp/Src/isp_algo.c ****   * @brief  ISP_Algo_SensorDelay_Process
1023:../../Middlewares/Camera_Middleware/ISP_Library/isp/Src/isp_algo.c ****   *         Process the SensorDelay algorithm. Change the sensor gain and exposure and
1024:../../Middlewares/Camera_Middleware/ISP_Library/isp/Src/isp_algo.c ****   *         measure the number of frames it takes to have the frame updated.
1025:../../Middlewares/Camera_Middleware/ISP_Library/isp/Src/isp_algo.c ****   * @param  hIsp:  ISP device handle. To cast in (ISP_HandleTypeDef *).
1026:../../Middlewares/Camera_Middleware/ISP_Library/isp/Src/isp_algo.c ****   * @param  pAlgo: ISP algorithm handle. To cast in (ISP_AlgoTypeDef *).
1027:../../Middlewares/Camera_Middleware/ISP_Library/isp/Src/isp_algo.c ****   * @retval operation result
1028:../../Middlewares/Camera_Middleware/ISP_Library/isp/Src/isp_algo.c ****   */
1029:../../Middlewares/Camera_Middleware/ISP_Library/isp/Src/isp_algo.c **** ISP_StatusTypeDef ISP_Algo_SensorDelay_Process(void *hIsp, void *pAlgo)
1030:../../Middlewares/Camera_Middleware/ISP_Library/isp/Src/isp_algo.c **** {
1031:../../Middlewares/Camera_Middleware/ISP_Library/isp/Src/isp_algo.c ****   ISP_AlgoTypeDef *algo = (ISP_AlgoTypeDef *)pAlgo;
1032:../../Middlewares/Camera_Middleware/ISP_Library/isp/Src/isp_algo.c ****   ISP_SensorInfoTypeDef *pSensorInfo;
1033:../../Middlewares/Camera_Middleware/ISP_Library/isp/Src/isp_algo.c ****   ISP_IQParamTypeDef *IQParamConfig;
1034:../../Middlewares/Camera_Middleware/ISP_Library/isp/Src/isp_algo.c ****   ISP_StatusTypeDef ret = ISP_OK;
1035:../../Middlewares/Camera_Middleware/ISP_Library/isp/Src/isp_algo.c ****   uint8_t sensorDelay;
1036:../../Middlewares/Camera_Middleware/ISP_Library/isp/Src/isp_algo.c ****   int32_t avgL, i;
1037:../../Middlewares/Camera_Middleware/ISP_Library/isp/Src/isp_algo.c ****   static int32_t refL, delay, delays[ALGO_DELAY_NB_CONFIG - 1], configId;
1038:../../Middlewares/Camera_Middleware/ISP_Library/isp/Src/isp_algo.c ****   static ISP_SensorExposureTypeDef configExposure[ALGO_DELAY_NB_CONFIG];
1039:../../Middlewares/Camera_Middleware/ISP_Library/isp/Src/isp_algo.c ****   static ISP_SensorGainTypeDef configGain[ALGO_DELAY_NB_CONFIG];
1040:../../Middlewares/Camera_Middleware/ISP_Library/isp/Src/isp_algo.c ****   static ISP_SensorExposureTypeDef prevExposureConfig;
1041:../../Middlewares/Camera_Middleware/ISP_Library/isp/Src/isp_algo.c ****   static ISP_SensorGainTypeDef prevGainConfig;
1042:../../Middlewares/Camera_Middleware/ISP_Library/isp/Src/isp_algo.c ****   static uint8_t prevAECStatus, prevAWBStatus;
1043:../../Middlewares/Camera_Middleware/ISP_Library/isp/Src/isp_algo.c ****   static ISP_SVC_StatStateTypeDef stats;
1044:../../Middlewares/Camera_Middleware/ISP_Library/isp/Src/isp_algo.c **** 
1045:../../Middlewares/Camera_Middleware/ISP_Library/isp/Src/isp_algo.c ****   if (ISP_SVC_Misc_SensorDelayMeasureIsRunning() == false)
1046:../../Middlewares/Camera_Middleware/ISP_Library/isp/Src/isp_algo.c ****   {
1047:../../Middlewares/Camera_Middleware/ISP_Library/isp/Src/isp_algo.c ****     return ISP_OK;
1048:../../Middlewares/Camera_Middleware/ISP_Library/isp/Src/isp_algo.c ****   }
1049:../../Middlewares/Camera_Middleware/ISP_Library/isp/Src/isp_algo.c **** 
1050:../../Middlewares/Camera_Middleware/ISP_Library/isp/Src/isp_algo.c ****   IQParamConfig = ISP_SVC_IQParam_Get(hIsp);
1051:../../Middlewares/Camera_Middleware/ISP_Library/isp/Src/isp_algo.c **** 
1052:../../Middlewares/Camera_Middleware/ISP_Library/isp/Src/isp_algo.c ****   switch(algo->state)
1053:../../Middlewares/Camera_Middleware/ISP_Library/isp/Src/isp_algo.c ****   {
1054:../../Middlewares/Camera_Middleware/ISP_Library/isp/Src/isp_algo.c ****   case ISP_ALGO_STATE_INIT:
1055:../../Middlewares/Camera_Middleware/ISP_Library/isp/Src/isp_algo.c ****     /* Get current AEC and AWB algo status and sensor configuration */
1056:../../Middlewares/Camera_Middleware/ISP_Library/isp/Src/isp_algo.c ****     prevAECStatus = IQParamConfig->AECAlgo.enable;
1057:../../Middlewares/Camera_Middleware/ISP_Library/isp/Src/isp_algo.c ****     prevAWBStatus = IQParamConfig->AWBAlgo.enable;
1058:../../Middlewares/Camera_Middleware/ISP_Library/isp/Src/isp_algo.c ****     ret = ISP_SVC_Sensor_GetGain(hIsp, &prevGainConfig);
1059:../../Middlewares/Camera_Middleware/ISP_Library/isp/Src/isp_algo.c ****     if (ret != ISP_OK)
1060:../../Middlewares/Camera_Middleware/ISP_Library/isp/Src/isp_algo.c ****     {
1061:../../Middlewares/Camera_Middleware/ISP_Library/isp/Src/isp_algo.c ****       return ret;
1062:../../Middlewares/Camera_Middleware/ISP_Library/isp/Src/isp_algo.c ****     }
1063:../../Middlewares/Camera_Middleware/ISP_Library/isp/Src/isp_algo.c ****     ret = ISP_SVC_Sensor_GetExposure(hIsp, &prevExposureConfig);
1064:../../Middlewares/Camera_Middleware/ISP_Library/isp/Src/isp_algo.c ****     if (ret != ISP_OK)
ARM GAS  C:\Users\Antonio\AppData\Local\Temp\ccP00qEn.s 			page 73


1065:../../Middlewares/Camera_Middleware/ISP_Library/isp/Src/isp_algo.c ****     {
1066:../../Middlewares/Camera_Middleware/ISP_Library/isp/Src/isp_algo.c ****       return ret;
1067:../../Middlewares/Camera_Middleware/ISP_Library/isp/Src/isp_algo.c ****     }
1068:../../Middlewares/Camera_Middleware/ISP_Library/isp/Src/isp_algo.c **** 
1069:../../Middlewares/Camera_Middleware/ISP_Library/isp/Src/isp_algo.c ****     /* Disable AEC and AWB algo to avoid interferences */
1070:../../Middlewares/Camera_Middleware/ISP_Library/isp/Src/isp_algo.c ****     IQParamConfig->AECAlgo.enable = false;
1071:../../Middlewares/Camera_Middleware/ISP_Library/isp/Src/isp_algo.c ****     IQParamConfig->AWBAlgo.enable = false;
1072:../../Middlewares/Camera_Middleware/ISP_Library/isp/Src/isp_algo.c **** 
1073:../../Middlewares/Camera_Middleware/ISP_Library/isp/Src/isp_algo.c ****     /* Initialize the sensor test configurations */
1074:../../Middlewares/Camera_Middleware/ISP_Library/isp/Src/isp_algo.c ****     pSensorInfo = &((ISP_HandleTypeDef*) hIsp)->sensorInfo;
1075:../../Middlewares/Camera_Middleware/ISP_Library/isp/Src/isp_algo.c ****     /* Config  0: Exposure =   0%  -  Gain =  0%
1076:../../Middlewares/Camera_Middleware/ISP_Library/isp/Src/isp_algo.c ****      *    .................. +20% ...........
1077:../../Middlewares/Camera_Middleware/ISP_Library/isp/Src/isp_algo.c ****      * Config  5: Exposure = 100%  -  Gain =  0%
1078:../../Middlewares/Camera_Middleware/ISP_Library/isp/Src/isp_algo.c ****      *    ................................. +10%
1079:../../Middlewares/Camera_Middleware/ISP_Library/isp/Src/isp_algo.c ****      * Config 11: Exposure = 100%  -  Gain = 60%
1080:../../Middlewares/Camera_Middleware/ISP_Library/isp/Src/isp_algo.c ****      */
1081:../../Middlewares/Camera_Middleware/ISP_Library/isp/Src/isp_algo.c ****     for (i = 0; i < 6; i++)
1082:../../Middlewares/Camera_Middleware/ISP_Library/isp/Src/isp_algo.c ****     {
1083:../../Middlewares/Camera_Middleware/ISP_Library/isp/Src/isp_algo.c ****       configExposure[i].exposure = i ? (pSensorInfo->exposure_max * 20 * i) / 100 : pSensorInfo->ex
1084:../../Middlewares/Camera_Middleware/ISP_Library/isp/Src/isp_algo.c ****       configGain[i].gain = pSensorInfo->gain_min;
1085:../../Middlewares/Camera_Middleware/ISP_Library/isp/Src/isp_algo.c ****       configExposure[i + 6].exposure = pSensorInfo->exposure_max;
1086:../../Middlewares/Camera_Middleware/ISP_Library/isp/Src/isp_algo.c ****       configGain[i + 6].gain = (pSensorInfo->gain_max * 10 * (i + 1)) / 100;
1087:../../Middlewares/Camera_Middleware/ISP_Library/isp/Src/isp_algo.c ****     }
1088:../../Middlewares/Camera_Middleware/ISP_Library/isp/Src/isp_algo.c **** 
1089:../../Middlewares/Camera_Middleware/ISP_Library/isp/Src/isp_algo.c ****     /* Apply first test configuration */
1090:../../Middlewares/Camera_Middleware/ISP_Library/isp/Src/isp_algo.c ****     configId = 0;
1091:../../Middlewares/Camera_Middleware/ISP_Library/isp/Src/isp_algo.c ****     ret = ISP_SVC_Sensor_SetGain(hIsp, &configGain[configId]);
1092:../../Middlewares/Camera_Middleware/ISP_Library/isp/Src/isp_algo.c ****     if (ret != ISP_OK)
1093:../../Middlewares/Camera_Middleware/ISP_Library/isp/Src/isp_algo.c ****     {
1094:../../Middlewares/Camera_Middleware/ISP_Library/isp/Src/isp_algo.c ****       return ret;
1095:../../Middlewares/Camera_Middleware/ISP_Library/isp/Src/isp_algo.c ****     }
1096:../../Middlewares/Camera_Middleware/ISP_Library/isp/Src/isp_algo.c ****     ret = ISP_SVC_Sensor_SetExposure(hIsp, &configExposure[configId]);
1097:../../Middlewares/Camera_Middleware/ISP_Library/isp/Src/isp_algo.c ****     if (ret != ISP_OK)
1098:../../Middlewares/Camera_Middleware/ISP_Library/isp/Src/isp_algo.c ****     {
1099:../../Middlewares/Camera_Middleware/ISP_Library/isp/Src/isp_algo.c ****       return ret;
1100:../../Middlewares/Camera_Middleware/ISP_Library/isp/Src/isp_algo.c ****     }
1101:../../Middlewares/Camera_Middleware/ISP_Library/isp/Src/isp_algo.c **** 
1102:../../Middlewares/Camera_Middleware/ISP_Library/isp/Src/isp_algo.c ****     /* Ask for stats lately (just to define a test starting point) */
1103:../../Middlewares/Camera_Middleware/ISP_Library/isp/Src/isp_algo.c ****     delay = 0;
1104:../../Middlewares/Camera_Middleware/ISP_Library/isp/Src/isp_algo.c ****     refL = 0;
1105:../../Middlewares/Camera_Middleware/ISP_Library/isp/Src/isp_algo.c ****     memset(delays, 0, sizeof(delays));
1106:../../Middlewares/Camera_Middleware/ISP_Library/isp/Src/isp_algo.c ****     ret = ISP_SVC_Stats_GetNext(hIsp, &ISP_Algo_SensorDelay_StatCb, pAlgo, &stats, ISP_STAT_LOC_DOW
1107:../../Middlewares/Camera_Middleware/ISP_Library/isp/Src/isp_algo.c ****     if (ret != ISP_OK)
1108:../../Middlewares/Camera_Middleware/ISP_Library/isp/Src/isp_algo.c ****     {
1109:../../Middlewares/Camera_Middleware/ISP_Library/isp/Src/isp_algo.c ****       return ret;
1110:../../Middlewares/Camera_Middleware/ISP_Library/isp/Src/isp_algo.c ****     }
1111:../../Middlewares/Camera_Middleware/ISP_Library/isp/Src/isp_algo.c **** 
1112:../../Middlewares/Camera_Middleware/ISP_Library/isp/Src/isp_algo.c ****     /* Wait for stats to be ready */
1113:../../Middlewares/Camera_Middleware/ISP_Library/isp/Src/isp_algo.c ****     algo->state = ISP_ALGO_STATE_WAITING_STAT;
1114:../../Middlewares/Camera_Middleware/ISP_Library/isp/Src/isp_algo.c ****     break;
1115:../../Middlewares/Camera_Middleware/ISP_Library/isp/Src/isp_algo.c **** 
1116:../../Middlewares/Camera_Middleware/ISP_Library/isp/Src/isp_algo.c ****   case ISP_ALGO_STATE_NEED_STAT:
1117:../../Middlewares/Camera_Middleware/ISP_Library/isp/Src/isp_algo.c ****     break;
1118:../../Middlewares/Camera_Middleware/ISP_Library/isp/Src/isp_algo.c **** 
1119:../../Middlewares/Camera_Middleware/ISP_Library/isp/Src/isp_algo.c ****   case ISP_ALGO_STATE_WAITING_STAT:
1120:../../Middlewares/Camera_Middleware/ISP_Library/isp/Src/isp_algo.c ****     /* Do nothing */
1121:../../Middlewares/Camera_Middleware/ISP_Library/isp/Src/isp_algo.c ****     break;
ARM GAS  C:\Users\Antonio\AppData\Local\Temp\ccP00qEn.s 			page 74


1122:../../Middlewares/Camera_Middleware/ISP_Library/isp/Src/isp_algo.c **** 
1123:../../Middlewares/Camera_Middleware/ISP_Library/isp/Src/isp_algo.c ****   case ISP_ALGO_STATE_STAT_READY:
1124:../../Middlewares/Camera_Middleware/ISP_Library/isp/Src/isp_algo.c ****     avgL = (int32_t)stats.down.averageL;
1125:../../Middlewares/Camera_Middleware/ISP_Library/isp/Src/isp_algo.c ****     if (configId > 0)
1126:../../Middlewares/Camera_Middleware/ISP_Library/isp/Src/isp_algo.c ****     {
1127:../../Middlewares/Camera_Middleware/ISP_Library/isp/Src/isp_algo.c ****       /* New stat available, check if Luminance has changed */
1128:../../Middlewares/Camera_Middleware/ISP_Library/isp/Src/isp_algo.c ****       delay++;
1129:../../Middlewares/Camera_Middleware/ISP_Library/isp/Src/isp_algo.c **** 
1130:../../Middlewares/Camera_Middleware/ISP_Library/isp/Src/isp_algo.c ****       if (abs(avgL- refL) <= ALGO_DELAY_L_MARGIN && delay != ALGO_DELAY_MAX)
1131:../../Middlewares/Camera_Middleware/ISP_Library/isp/Src/isp_algo.c ****       {
1132:../../Middlewares/Camera_Middleware/ISP_Library/isp/Src/isp_algo.c ****         /* No change, wait for next frame */
1133:../../Middlewares/Camera_Middleware/ISP_Library/isp/Src/isp_algo.c ****         ret = ISP_SVC_Stats_GetNext(hIsp, &ISP_Algo_SensorDelay_StatCb, pAlgo, &stats, ISP_STAT_LOC
1134:../../Middlewares/Camera_Middleware/ISP_Library/isp/Src/isp_algo.c ****         algo->state = ISP_ALGO_STATE_WAITING_STAT;
1135:../../Middlewares/Camera_Middleware/ISP_Library/isp/Src/isp_algo.c ****         return ret;
1136:../../Middlewares/Camera_Middleware/ISP_Library/isp/Src/isp_algo.c ****       }
1137:../../Middlewares/Camera_Middleware/ISP_Library/isp/Src/isp_algo.c **** 
1138:../../Middlewares/Camera_Middleware/ISP_Library/isp/Src/isp_algo.c ****       /* Luminance was updated since we applied a new sensor configuration : store the result for t
1139:../../Middlewares/Camera_Middleware/ISP_Library/isp/Src/isp_algo.c ****        * Reaching ALGO_DELAY_MAX happens when we have a totally black or white frame. The measure s
1140:../../Middlewares/Camera_Middleware/ISP_Library/isp/Src/isp_algo.c ****       delays[configId - 1] = delay;
1141:../../Middlewares/Camera_Middleware/ISP_Library/isp/Src/isp_algo.c ****     }
1142:../../Middlewares/Camera_Middleware/ISP_Library/isp/Src/isp_algo.c **** 
1143:../../Middlewares/Camera_Middleware/ISP_Library/isp/Src/isp_algo.c ****     /* New delay measure available */
1144:../../Middlewares/Camera_Middleware/ISP_Library/isp/Src/isp_algo.c ****     if (++configId != ALGO_DELAY_NB_CONFIG)
1145:../../Middlewares/Camera_Middleware/ISP_Library/isp/Src/isp_algo.c ****     {
1146:../../Middlewares/Camera_Middleware/ISP_Library/isp/Src/isp_algo.c ****       /* Apply new sensor test configuration  */
1147:../../Middlewares/Camera_Middleware/ISP_Library/isp/Src/isp_algo.c ****       ret = ISP_SVC_Sensor_SetGain(hIsp, &configGain[configId]);
1148:../../Middlewares/Camera_Middleware/ISP_Library/isp/Src/isp_algo.c ****       if (ret != ISP_OK)
1149:../../Middlewares/Camera_Middleware/ISP_Library/isp/Src/isp_algo.c ****       {
1150:../../Middlewares/Camera_Middleware/ISP_Library/isp/Src/isp_algo.c ****         return ret;
1151:../../Middlewares/Camera_Middleware/ISP_Library/isp/Src/isp_algo.c ****       }
1152:../../Middlewares/Camera_Middleware/ISP_Library/isp/Src/isp_algo.c ****       ret = ISP_SVC_Sensor_SetExposure(hIsp, &configExposure[configId]);
1153:../../Middlewares/Camera_Middleware/ISP_Library/isp/Src/isp_algo.c ****       if (ret != ISP_OK)
1154:../../Middlewares/Camera_Middleware/ISP_Library/isp/Src/isp_algo.c ****       {
1155:../../Middlewares/Camera_Middleware/ISP_Library/isp/Src/isp_algo.c ****         return ret;
1156:../../Middlewares/Camera_Middleware/ISP_Library/isp/Src/isp_algo.c ****       }
1157:../../Middlewares/Camera_Middleware/ISP_Library/isp/Src/isp_algo.c **** 
1158:../../Middlewares/Camera_Middleware/ISP_Library/isp/Src/isp_algo.c ****       /* Ask for stats at next frame */
1159:../../Middlewares/Camera_Middleware/ISP_Library/isp/Src/isp_algo.c ****       delay = 0;
1160:../../Middlewares/Camera_Middleware/ISP_Library/isp/Src/isp_algo.c ****       refL = avgL;
1161:../../Middlewares/Camera_Middleware/ISP_Library/isp/Src/isp_algo.c ****       ret = ISP_SVC_Stats_GetNext(hIsp, &ISP_Algo_SensorDelay_StatCb, pAlgo, &stats, ISP_STAT_LOC_D
1162:../../Middlewares/Camera_Middleware/ISP_Library/isp/Src/isp_algo.c ****       if (ret != ISP_OK)
1163:../../Middlewares/Camera_Middleware/ISP_Library/isp/Src/isp_algo.c ****       {
1164:../../Middlewares/Camera_Middleware/ISP_Library/isp/Src/isp_algo.c ****         return ret;
1165:../../Middlewares/Camera_Middleware/ISP_Library/isp/Src/isp_algo.c ****       }
1166:../../Middlewares/Camera_Middleware/ISP_Library/isp/Src/isp_algo.c **** 
1167:../../Middlewares/Camera_Middleware/ISP_Library/isp/Src/isp_algo.c ****       /* Wait for stats to be ready */
1168:../../Middlewares/Camera_Middleware/ISP_Library/isp/Src/isp_algo.c ****       algo->state = ISP_ALGO_STATE_WAITING_STAT;
1169:../../Middlewares/Camera_Middleware/ISP_Library/isp/Src/isp_algo.c ****     }
1170:../../Middlewares/Camera_Middleware/ISP_Library/isp/Src/isp_algo.c ****     else
1171:../../Middlewares/Camera_Middleware/ISP_Library/isp/Src/isp_algo.c ****     {
1172:../../Middlewares/Camera_Middleware/ISP_Library/isp/Src/isp_algo.c ****       /* All the configurations have been tested, finalize the test procedure */
1173:../../Middlewares/Camera_Middleware/ISP_Library/isp/Src/isp_algo.c ****       /* Find the max valid delay (ALGO_DELAY_MAX being considered as invalid) */
1174:../../Middlewares/Camera_Middleware/ISP_Library/isp/Src/isp_algo.c ****       sensorDelay = 0;
1175:../../Middlewares/Camera_Middleware/ISP_Library/isp/Src/isp_algo.c ****       for (i = 0; i < ALGO_DELAY_NB_CONFIG - 1; i++)
1176:../../Middlewares/Camera_Middleware/ISP_Library/isp/Src/isp_algo.c ****       {
1177:../../Middlewares/Camera_Middleware/ISP_Library/isp/Src/isp_algo.c ****         if ((delays[i] != ALGO_DELAY_MAX) && (delays[i] > sensorDelay))
1178:../../Middlewares/Camera_Middleware/ISP_Library/isp/Src/isp_algo.c ****         {
ARM GAS  C:\Users\Antonio\AppData\Local\Temp\ccP00qEn.s 			page 75


1179:../../Middlewares/Camera_Middleware/ISP_Library/isp/Src/isp_algo.c ****           sensorDelay = delays[i];
1180:../../Middlewares/Camera_Middleware/ISP_Library/isp/Src/isp_algo.c ****         }
1181:../../Middlewares/Camera_Middleware/ISP_Library/isp/Src/isp_algo.c ****       }
1182:../../Middlewares/Camera_Middleware/ISP_Library/isp/Src/isp_algo.c **** 
1183:../../Middlewares/Camera_Middleware/ISP_Library/isp/Src/isp_algo.c ****       /* Restore initial AEC, AWB and sensor states */
1184:../../Middlewares/Camera_Middleware/ISP_Library/isp/Src/isp_algo.c ****       IQParamConfig->AECAlgo.enable = prevAECStatus;
1185:../../Middlewares/Camera_Middleware/ISP_Library/isp/Src/isp_algo.c ****       IQParamConfig->AWBAlgo.enable = prevAWBStatus;
1186:../../Middlewares/Camera_Middleware/ISP_Library/isp/Src/isp_algo.c ****       ret = ISP_SVC_Sensor_SetGain(hIsp, &prevGainConfig);
1187:../../Middlewares/Camera_Middleware/ISP_Library/isp/Src/isp_algo.c ****       if (ret != ISP_OK)
1188:../../Middlewares/Camera_Middleware/ISP_Library/isp/Src/isp_algo.c ****       {
1189:../../Middlewares/Camera_Middleware/ISP_Library/isp/Src/isp_algo.c ****         return ret;
1190:../../Middlewares/Camera_Middleware/ISP_Library/isp/Src/isp_algo.c ****       }
1191:../../Middlewares/Camera_Middleware/ISP_Library/isp/Src/isp_algo.c ****       ret = ISP_SVC_Sensor_SetExposure(hIsp, &prevExposureConfig);
1192:../../Middlewares/Camera_Middleware/ISP_Library/isp/Src/isp_algo.c ****       if (ret != ISP_OK)
1193:../../Middlewares/Camera_Middleware/ISP_Library/isp/Src/isp_algo.c ****       {
1194:../../Middlewares/Camera_Middleware/ISP_Library/isp/Src/isp_algo.c ****         return ret;
1195:../../Middlewares/Camera_Middleware/ISP_Library/isp/Src/isp_algo.c ****       }
1196:../../Middlewares/Camera_Middleware/ISP_Library/isp/Src/isp_algo.c **** 
1197:../../Middlewares/Camera_Middleware/ISP_Library/isp/Src/isp_algo.c ****       /* Apply the measure (if valid) and send answer to the remote IQTune */
1198:../../Middlewares/Camera_Middleware/ISP_Library/isp/Src/isp_algo.c ****       if (sensorDelay)
1199:../../Middlewares/Camera_Middleware/ISP_Library/isp/Src/isp_algo.c ****       {
1200:../../Middlewares/Camera_Middleware/ISP_Library/isp/Src/isp_algo.c ****         IQParamConfig->sensorDelay.delay = sensorDelay;
1201:../../Middlewares/Camera_Middleware/ISP_Library/isp/Src/isp_algo.c ****       }
1202:../../Middlewares/Camera_Middleware/ISP_Library/isp/Src/isp_algo.c ****       ret = ISP_SVC_Misc_SendSensorDelayMeasure(hIsp, (ISP_SensorDelayTypeDef *)&sensorDelay);
1203:../../Middlewares/Camera_Middleware/ISP_Library/isp/Src/isp_algo.c **** 
1204:../../Middlewares/Camera_Middleware/ISP_Library/isp/Src/isp_algo.c ****       /* Stop delay algo */
1205:../../Middlewares/Camera_Middleware/ISP_Library/isp/Src/isp_algo.c ****       ISP_SVC_Misc_SensorDelayMeasureStop();
1206:../../Middlewares/Camera_Middleware/ISP_Library/isp/Src/isp_algo.c **** 
1207:../../Middlewares/Camera_Middleware/ISP_Library/isp/Src/isp_algo.c ****       algo->state = ISP_ALGO_STATE_INIT;
1208:../../Middlewares/Camera_Middleware/ISP_Library/isp/Src/isp_algo.c ****     }
1209:../../Middlewares/Camera_Middleware/ISP_Library/isp/Src/isp_algo.c ****     break;
1210:../../Middlewares/Camera_Middleware/ISP_Library/isp/Src/isp_algo.c ****   }
1211:../../Middlewares/Camera_Middleware/ISP_Library/isp/Src/isp_algo.c **** 
1212:../../Middlewares/Camera_Middleware/ISP_Library/isp/Src/isp_algo.c ****   return ret;
1213:../../Middlewares/Camera_Middleware/ISP_Library/isp/Src/isp_algo.c **** }
1214:../../Middlewares/Camera_Middleware/ISP_Library/isp/Src/isp_algo.c **** #endif /* ISP_MW_TUNING_TOOL_SUPPORT */
1215:../../Middlewares/Camera_Middleware/ISP_Library/isp/Src/isp_algo.c **** 
1216:../../Middlewares/Camera_Middleware/ISP_Library/isp/Src/isp_algo.c **** /* Exported functions --------------------------------------------------------*/
1217:../../Middlewares/Camera_Middleware/ISP_Library/isp/Src/isp_algo.c **** /**
1218:../../Middlewares/Camera_Middleware/ISP_Library/isp/Src/isp_algo.c ****   * @brief  ISP_Algo_Init
1219:../../Middlewares/Camera_Middleware/ISP_Library/isp/Src/isp_algo.c ****   *         Register and initialize all the algorithms
1220:../../Middlewares/Camera_Middleware/ISP_Library/isp/Src/isp_algo.c ****   * @param  hIsp: ISP device handle
1221:../../Middlewares/Camera_Middleware/ISP_Library/isp/Src/isp_algo.c ****   * @retval operation result
1222:../../Middlewares/Camera_Middleware/ISP_Library/isp/Src/isp_algo.c ****   */
1223:../../Middlewares/Camera_Middleware/ISP_Library/isp/Src/isp_algo.c **** ISP_StatusTypeDef ISP_Algo_Init(ISP_HandleTypeDef *hIsp)
1224:../../Middlewares/Camera_Middleware/ISP_Library/isp/Src/isp_algo.c **** {
 2338              		.loc 1 1224 1 is_stmt 1 view -0
 2339              		.cfi_startproc
 2340              		@ args = 0, pretend = 0, frame = 0
 2341              		@ frame_needed = 0, uses_anonymous_args = 0
1225:../../Middlewares/Camera_Middleware/ISP_Library/isp/Src/isp_algo.c ****   ISP_AlgoTypeDef *algo;
 2342              		.loc 1 1225 3 view .LVU790
1226:../../Middlewares/Camera_Middleware/ISP_Library/isp/Src/isp_algo.c ****   ISP_StatusTypeDef ret;
 2343              		.loc 1 1226 3 view .LVU791
1227:../../Middlewares/Camera_Middleware/ISP_Library/isp/Src/isp_algo.c ****   uint8_t i;
 2344              		.loc 1 1227 3 view .LVU792
1228:../../Middlewares/Camera_Middleware/ISP_Library/isp/Src/isp_algo.c **** 
ARM GAS  C:\Users\Antonio\AppData\Local\Temp\ccP00qEn.s 			page 76


1229:../../Middlewares/Camera_Middleware/ISP_Library/isp/Src/isp_algo.c ****   hIsp->algorithm = ISP_Algo_List;
 2345              		.loc 1 1229 3 view .LVU793
1224:../../Middlewares/Camera_Middleware/ISP_Library/isp/Src/isp_algo.c ****   ISP_AlgoTypeDef *algo;
 2346              		.loc 1 1224 1 is_stmt 0 view .LVU794
 2347 0000 38B5     		push	{r3, r4, r5, lr}
 2348              		.cfi_def_cfa_offset 16
 2349              		.cfi_offset 3, -16
 2350              		.cfi_offset 4, -12
 2351              		.cfi_offset 5, -8
 2352              		.cfi_offset 14, -4
1224:../../Middlewares/Camera_Middleware/ISP_Library/isp/Src/isp_algo.c ****   ISP_AlgoTypeDef *algo;
 2353              		.loc 1 1224 1 view .LVU795
 2354 0002 0446     		mov	r4, r0
 2355              		.loc 1 1229 19 view .LVU796
 2356 0004 0025     		movs	r5, #0
 2357 0006 094B     		ldr	r3, .L179
 2358 0008 8361     		str	r3, [r0, #24]
1230:../../Middlewares/Camera_Middleware/ISP_Library/isp/Src/isp_algo.c **** 
1231:../../Middlewares/Camera_Middleware/ISP_Library/isp/Src/isp_algo.c ****   for (i = 0; i < sizeof(ISP_Algo_List) / sizeof(*ISP_Algo_List); i++)
 2359              		.loc 1 1231 3 is_stmt 1 view .LVU797
 2360              	.LVL178:
 2361              		.loc 1 1231 17 discriminator 1 view .LVU798
 2362              	.L169:
1232:../../Middlewares/Camera_Middleware/ISP_Library/isp/Src/isp_algo.c ****   {
1233:../../Middlewares/Camera_Middleware/ISP_Library/isp/Src/isp_algo.c ****     algo = hIsp->algorithm[i];
 2363              		.loc 1 1233 5 view .LVU799
 2364              		.loc 1 1233 10 is_stmt 0 view .LVU800
 2365 000a A369     		ldr	r3, [r4, #24]
 2366 000c 5959     		ldr	r1, [r3, r5]
 2367              	.LVL179:
1234:../../Middlewares/Camera_Middleware/ISP_Library/isp/Src/isp_algo.c ****     if ((algo != NULL) && (algo->Init != NULL))
 2368              		.loc 1 1234 5 is_stmt 1 view .LVU801
 2369              		.loc 1 1234 8 is_stmt 0 view .LVU802
 2370 000e 21B9     		cbnz	r1, .L168
 2371              	.LVL180:
 2372              	.L171:
1231:../../Middlewares/Camera_Middleware/ISP_Library/isp/Src/isp_algo.c ****   {
 2373              		.loc 1 1231 68 is_stmt 1 discriminator 2 view .LVU803
1231:../../Middlewares/Camera_Middleware/ISP_Library/isp/Src/isp_algo.c ****   {
 2374              		.loc 1 1231 17 discriminator 1 view .LVU804
 2375 0010 0435     		adds	r5, r5, #4
 2376              	.LVL181:
1231:../../Middlewares/Camera_Middleware/ISP_Library/isp/Src/isp_algo.c ****   {
 2377              		.loc 1 1231 17 is_stmt 0 discriminator 1 view .LVU805
 2378 0012 0C2D     		cmp	r5, #12
 2379 0014 F9D1     		bne	.L169
1235:../../Middlewares/Camera_Middleware/ISP_Library/isp/Src/isp_algo.c ****     {
1236:../../Middlewares/Camera_Middleware/ISP_Library/isp/Src/isp_algo.c ****       ret = algo->Init((void*)hIsp, (void*)algo);
1237:../../Middlewares/Camera_Middleware/ISP_Library/isp/Src/isp_algo.c ****       if (ret != ISP_OK)
1238:../../Middlewares/Camera_Middleware/ISP_Library/isp/Src/isp_algo.c ****       {
1239:../../Middlewares/Camera_Middleware/ISP_Library/isp/Src/isp_algo.c ****         return ret;
1240:../../Middlewares/Camera_Middleware/ISP_Library/isp/Src/isp_algo.c ****       }
1241:../../Middlewares/Camera_Middleware/ISP_Library/isp/Src/isp_algo.c ****     }
1242:../../Middlewares/Camera_Middleware/ISP_Library/isp/Src/isp_algo.c ****   }
1243:../../Middlewares/Camera_Middleware/ISP_Library/isp/Src/isp_algo.c **** 
1244:../../Middlewares/Camera_Middleware/ISP_Library/isp/Src/isp_algo.c ****   return ISP_OK;
 2380              		.loc 1 1244 10 view .LVU806
ARM GAS  C:\Users\Antonio\AppData\Local\Temp\ccP00qEn.s 			page 77


 2381 0016 0020     		movs	r0, #0
 2382              	.LVL182:
 2383              	.L170:
1245:../../Middlewares/Camera_Middleware/ISP_Library/isp/Src/isp_algo.c **** }
 2384              		.loc 1 1245 1 view .LVU807
 2385 0018 38BD     		pop	{r3, r4, r5, pc}
 2386              	.LVL183:
 2387              	.L168:
1234:../../Middlewares/Camera_Middleware/ISP_Library/isp/Src/isp_algo.c ****     {
 2388              		.loc 1 1234 32 discriminator 1 view .LVU808
 2389 001a 4B68     		ldr	r3, [r1, #4]
1234:../../Middlewares/Camera_Middleware/ISP_Library/isp/Src/isp_algo.c ****     {
 2390              		.loc 1 1234 24 discriminator 1 view .LVU809
 2391 001c 002B     		cmp	r3, #0
 2392 001e F7D0     		beq	.L171
1236:../../Middlewares/Camera_Middleware/ISP_Library/isp/Src/isp_algo.c ****       if (ret != ISP_OK)
 2393              		.loc 1 1236 7 is_stmt 1 view .LVU810
1236:../../Middlewares/Camera_Middleware/ISP_Library/isp/Src/isp_algo.c ****       if (ret != ISP_OK)
 2394              		.loc 1 1236 13 is_stmt 0 view .LVU811
 2395 0020 2046     		mov	r0, r4
 2396 0022 9847     		blx	r3
 2397              	.LVL184:
1237:../../Middlewares/Camera_Middleware/ISP_Library/isp/Src/isp_algo.c ****       {
 2398              		.loc 1 1237 7 is_stmt 1 view .LVU812
1237:../../Middlewares/Camera_Middleware/ISP_Library/isp/Src/isp_algo.c ****       {
 2399              		.loc 1 1237 10 is_stmt 0 view .LVU813
 2400 0024 0028     		cmp	r0, #0
 2401 0026 F3D0     		beq	.L171
 2402 0028 F6E7     		b	.L170
 2403              	.L180:
 2404 002a 00BF     		.align	2
 2405              	.L179:
 2406 002c 00000000 		.word	ISP_Algo_List
 2407              		.cfi_endproc
 2408              	.LFE853:
 2410              		.section	.text.ISP_Algo_DeInit,"ax",%progbits
 2411              		.align	1
 2412              		.global	ISP_Algo_DeInit
 2413              		.syntax unified
 2414              		.thumb
 2415              		.thumb_func
 2417              	ISP_Algo_DeInit:
 2418              	.LVL185:
 2419              	.LFB854:
1246:../../Middlewares/Camera_Middleware/ISP_Library/isp/Src/isp_algo.c **** 
1247:../../Middlewares/Camera_Middleware/ISP_Library/isp/Src/isp_algo.c **** /**
1248:../../Middlewares/Camera_Middleware/ISP_Library/isp/Src/isp_algo.c ****   * @brief  ISP_Algo_DeInit
1249:../../Middlewares/Camera_Middleware/ISP_Library/isp/Src/isp_algo.c ****   *         Deinitialize all the algorithms
1250:../../Middlewares/Camera_Middleware/ISP_Library/isp/Src/isp_algo.c ****   * @param  hIsp: ISP device handle
1251:../../Middlewares/Camera_Middleware/ISP_Library/isp/Src/isp_algo.c ****   * @retval operation result
1252:../../Middlewares/Camera_Middleware/ISP_Library/isp/Src/isp_algo.c ****   */
1253:../../Middlewares/Camera_Middleware/ISP_Library/isp/Src/isp_algo.c **** ISP_StatusTypeDef ISP_Algo_DeInit(ISP_HandleTypeDef *hIsp)
1254:../../Middlewares/Camera_Middleware/ISP_Library/isp/Src/isp_algo.c **** {
 2420              		.loc 1 1254 1 is_stmt 1 view -0
 2421              		.cfi_startproc
 2422              		@ args = 0, pretend = 0, frame = 0
 2423              		@ frame_needed = 0, uses_anonymous_args = 0
ARM GAS  C:\Users\Antonio\AppData\Local\Temp\ccP00qEn.s 			page 78


1255:../../Middlewares/Camera_Middleware/ISP_Library/isp/Src/isp_algo.c ****   ISP_AlgoTypeDef *algo;
 2424              		.loc 1 1255 3 view .LVU815
1256:../../Middlewares/Camera_Middleware/ISP_Library/isp/Src/isp_algo.c ****   ISP_StatusTypeDef ret;
 2425              		.loc 1 1256 3 view .LVU816
1257:../../Middlewares/Camera_Middleware/ISP_Library/isp/Src/isp_algo.c ****   uint8_t i;
 2426              		.loc 1 1257 3 view .LVU817
1258:../../Middlewares/Camera_Middleware/ISP_Library/isp/Src/isp_algo.c **** 
1259:../../Middlewares/Camera_Middleware/ISP_Library/isp/Src/isp_algo.c ****   for (i = 0; i < sizeof(ISP_Algo_List) / sizeof(*ISP_Algo_List); i++)
 2427              		.loc 1 1259 3 view .LVU818
 2428              		.loc 1 1259 17 discriminator 1 view .LVU819
1254:../../Middlewares/Camera_Middleware/ISP_Library/isp/Src/isp_algo.c ****   ISP_AlgoTypeDef *algo;
 2429              		.loc 1 1254 1 is_stmt 0 view .LVU820
 2430 0000 38B5     		push	{r3, r4, r5, lr}
 2431              		.cfi_def_cfa_offset 16
 2432              		.cfi_offset 3, -16
 2433              		.cfi_offset 4, -12
 2434              		.cfi_offset 5, -8
 2435              		.cfi_offset 14, -4
1254:../../Middlewares/Camera_Middleware/ISP_Library/isp/Src/isp_algo.c ****   ISP_AlgoTypeDef *algo;
 2436              		.loc 1 1254 1 view .LVU821
 2437 0002 0446     		mov	r4, r0
 2438 0004 0025     		movs	r5, #0
 2439              	.LVL186:
 2440              	.L183:
1260:../../Middlewares/Camera_Middleware/ISP_Library/isp/Src/isp_algo.c ****   {
1261:../../Middlewares/Camera_Middleware/ISP_Library/isp/Src/isp_algo.c ****     algo = hIsp->algorithm[i];
 2441              		.loc 1 1261 5 is_stmt 1 view .LVU822
 2442              		.loc 1 1261 10 is_stmt 0 view .LVU823
 2443 0006 A369     		ldr	r3, [r4, #24]
 2444 0008 5959     		ldr	r1, [r3, r5]
 2445              	.LVL187:
1262:../../Middlewares/Camera_Middleware/ISP_Library/isp/Src/isp_algo.c ****     if ((algo != NULL) && (algo->DeInit != NULL))
 2446              		.loc 1 1262 5 is_stmt 1 view .LVU824
 2447              		.loc 1 1262 8 is_stmt 0 view .LVU825
 2448 000a 21B9     		cbnz	r1, .L182
 2449              	.LVL188:
 2450              	.L185:
1259:../../Middlewares/Camera_Middleware/ISP_Library/isp/Src/isp_algo.c ****   {
 2451              		.loc 1 1259 68 is_stmt 1 discriminator 2 view .LVU826
1259:../../Middlewares/Camera_Middleware/ISP_Library/isp/Src/isp_algo.c ****   {
 2452              		.loc 1 1259 17 discriminator 1 view .LVU827
 2453 000c 0435     		adds	r5, r5, #4
 2454              	.LVL189:
1259:../../Middlewares/Camera_Middleware/ISP_Library/isp/Src/isp_algo.c ****   {
 2455              		.loc 1 1259 17 is_stmt 0 discriminator 1 view .LVU828
 2456 000e 0C2D     		cmp	r5, #12
 2457 0010 F9D1     		bne	.L183
1263:../../Middlewares/Camera_Middleware/ISP_Library/isp/Src/isp_algo.c ****     {
1264:../../Middlewares/Camera_Middleware/ISP_Library/isp/Src/isp_algo.c ****       ret = algo->DeInit((void*)hIsp, (void*)algo);
1265:../../Middlewares/Camera_Middleware/ISP_Library/isp/Src/isp_algo.c ****       if (ret != ISP_OK)
1266:../../Middlewares/Camera_Middleware/ISP_Library/isp/Src/isp_algo.c ****       {
1267:../../Middlewares/Camera_Middleware/ISP_Library/isp/Src/isp_algo.c ****         return ret;
1268:../../Middlewares/Camera_Middleware/ISP_Library/isp/Src/isp_algo.c ****       }
1269:../../Middlewares/Camera_Middleware/ISP_Library/isp/Src/isp_algo.c ****     }
1270:../../Middlewares/Camera_Middleware/ISP_Library/isp/Src/isp_algo.c ****   }
1271:../../Middlewares/Camera_Middleware/ISP_Library/isp/Src/isp_algo.c **** 
1272:../../Middlewares/Camera_Middleware/ISP_Library/isp/Src/isp_algo.c ****   return ISP_OK;
ARM GAS  C:\Users\Antonio\AppData\Local\Temp\ccP00qEn.s 			page 79


 2458              		.loc 1 1272 10 view .LVU829
 2459 0012 0020     		movs	r0, #0
 2460              	.LVL190:
 2461              	.L184:
1273:../../Middlewares/Camera_Middleware/ISP_Library/isp/Src/isp_algo.c **** }
 2462              		.loc 1 1273 1 view .LVU830
 2463 0014 38BD     		pop	{r3, r4, r5, pc}
 2464              	.LVL191:
 2465              	.L182:
1262:../../Middlewares/Camera_Middleware/ISP_Library/isp/Src/isp_algo.c ****     {
 2466              		.loc 1 1262 32 discriminator 1 view .LVU831
 2467 0016 8B68     		ldr	r3, [r1, #8]
1262:../../Middlewares/Camera_Middleware/ISP_Library/isp/Src/isp_algo.c ****     {
 2468              		.loc 1 1262 24 discriminator 1 view .LVU832
 2469 0018 002B     		cmp	r3, #0
 2470 001a F7D0     		beq	.L185
1264:../../Middlewares/Camera_Middleware/ISP_Library/isp/Src/isp_algo.c ****       if (ret != ISP_OK)
 2471              		.loc 1 1264 7 is_stmt 1 view .LVU833
1264:../../Middlewares/Camera_Middleware/ISP_Library/isp/Src/isp_algo.c ****       if (ret != ISP_OK)
 2472              		.loc 1 1264 13 is_stmt 0 view .LVU834
 2473 001c 2046     		mov	r0, r4
 2474 001e 9847     		blx	r3
 2475              	.LVL192:
1265:../../Middlewares/Camera_Middleware/ISP_Library/isp/Src/isp_algo.c ****       {
 2476              		.loc 1 1265 7 is_stmt 1 view .LVU835
1265:../../Middlewares/Camera_Middleware/ISP_Library/isp/Src/isp_algo.c ****       {
 2477              		.loc 1 1265 10 is_stmt 0 view .LVU836
 2478 0020 0028     		cmp	r0, #0
 2479 0022 F3D0     		beq	.L185
 2480 0024 F6E7     		b	.L184
 2481              		.cfi_endproc
 2482              	.LFE854:
 2484              		.section	.text.ISP_Algo_Process,"ax",%progbits
 2485              		.align	1
 2486              		.global	ISP_Algo_Process
 2487              		.syntax unified
 2488              		.thumb
 2489              		.thumb_func
 2491              	ISP_Algo_Process:
 2492              	.LVL193:
 2493              	.LFB855:
1274:../../Middlewares/Camera_Middleware/ISP_Library/isp/Src/isp_algo.c **** 
1275:../../Middlewares/Camera_Middleware/ISP_Library/isp/Src/isp_algo.c **** /**
1276:../../Middlewares/Camera_Middleware/ISP_Library/isp/Src/isp_algo.c ****   * @brief  ISP_Algo_Process
1277:../../Middlewares/Camera_Middleware/ISP_Library/isp/Src/isp_algo.c ****   *         Process all the algorithms
1278:../../Middlewares/Camera_Middleware/ISP_Library/isp/Src/isp_algo.c ****   * @param  hIsp: ISP device handle
1279:../../Middlewares/Camera_Middleware/ISP_Library/isp/Src/isp_algo.c ****   * @retval operation result
1280:../../Middlewares/Camera_Middleware/ISP_Library/isp/Src/isp_algo.c ****   */
1281:../../Middlewares/Camera_Middleware/ISP_Library/isp/Src/isp_algo.c **** ISP_StatusTypeDef ISP_Algo_Process(ISP_HandleTypeDef *hIsp)
1282:../../Middlewares/Camera_Middleware/ISP_Library/isp/Src/isp_algo.c **** {
 2494              		.loc 1 1282 1 is_stmt 1 view -0
 2495              		.cfi_startproc
 2496              		@ args = 0, pretend = 0, frame = 0
 2497              		@ frame_needed = 0, uses_anonymous_args = 0
1283:../../Middlewares/Camera_Middleware/ISP_Library/isp/Src/isp_algo.c ****   ISP_AlgoTypeDef *algo;
 2498              		.loc 1 1283 3 view .LVU838
1284:../../Middlewares/Camera_Middleware/ISP_Library/isp/Src/isp_algo.c ****   ISP_StatusTypeDef ret;
ARM GAS  C:\Users\Antonio\AppData\Local\Temp\ccP00qEn.s 			page 80


 2499              		.loc 1 1284 3 view .LVU839
1285:../../Middlewares/Camera_Middleware/ISP_Library/isp/Src/isp_algo.c ****   uint8_t i;
 2500              		.loc 1 1285 3 view .LVU840
1286:../../Middlewares/Camera_Middleware/ISP_Library/isp/Src/isp_algo.c **** 
1287:../../Middlewares/Camera_Middleware/ISP_Library/isp/Src/isp_algo.c ****   for (i = 0; i < sizeof(ISP_Algo_List) / sizeof(*ISP_Algo_List); i++)
 2501              		.loc 1 1287 3 view .LVU841
 2502              		.loc 1 1287 17 discriminator 1 view .LVU842
1282:../../Middlewares/Camera_Middleware/ISP_Library/isp/Src/isp_algo.c ****   ISP_AlgoTypeDef *algo;
 2503              		.loc 1 1282 1 is_stmt 0 view .LVU843
 2504 0000 38B5     		push	{r3, r4, r5, lr}
 2505              		.cfi_def_cfa_offset 16
 2506              		.cfi_offset 3, -16
 2507              		.cfi_offset 4, -12
 2508              		.cfi_offset 5, -8
 2509              		.cfi_offset 14, -4
1282:../../Middlewares/Camera_Middleware/ISP_Library/isp/Src/isp_algo.c ****   ISP_AlgoTypeDef *algo;
 2510              		.loc 1 1282 1 view .LVU844
 2511 0002 0446     		mov	r4, r0
 2512 0004 0025     		movs	r5, #0
 2513              	.LVL194:
 2514              	.L195:
1288:../../Middlewares/Camera_Middleware/ISP_Library/isp/Src/isp_algo.c ****   {
1289:../../Middlewares/Camera_Middleware/ISP_Library/isp/Src/isp_algo.c ****     algo = hIsp->algorithm[i];
 2515              		.loc 1 1289 5 is_stmt 1 view .LVU845
 2516              		.loc 1 1289 10 is_stmt 0 view .LVU846
 2517 0006 A369     		ldr	r3, [r4, #24]
 2518 0008 5959     		ldr	r1, [r3, r5]
 2519              	.LVL195:
1290:../../Middlewares/Camera_Middleware/ISP_Library/isp/Src/isp_algo.c ****     if ((algo != NULL) && (algo->Process != NULL))
 2520              		.loc 1 1290 5 is_stmt 1 view .LVU847
 2521              		.loc 1 1290 8 is_stmt 0 view .LVU848
 2522 000a 21B9     		cbnz	r1, .L194
 2523              	.LVL196:
 2524              	.L197:
1287:../../Middlewares/Camera_Middleware/ISP_Library/isp/Src/isp_algo.c ****   {
 2525              		.loc 1 1287 68 is_stmt 1 discriminator 2 view .LVU849
1287:../../Middlewares/Camera_Middleware/ISP_Library/isp/Src/isp_algo.c ****   {
 2526              		.loc 1 1287 17 discriminator 1 view .LVU850
 2527 000c 0435     		adds	r5, r5, #4
 2528              	.LVL197:
1287:../../Middlewares/Camera_Middleware/ISP_Library/isp/Src/isp_algo.c ****   {
 2529              		.loc 1 1287 17 is_stmt 0 discriminator 1 view .LVU851
 2530 000e 0C2D     		cmp	r5, #12
 2531 0010 F9D1     		bne	.L195
1291:../../Middlewares/Camera_Middleware/ISP_Library/isp/Src/isp_algo.c ****     {
1292:../../Middlewares/Camera_Middleware/ISP_Library/isp/Src/isp_algo.c **** #ifdef ALGO_PERF_DBG_LOGS
1293:../../Middlewares/Camera_Middleware/ISP_Library/isp/Src/isp_algo.c ****       uint32_t tickstart = HAL_GetTick();
1294:../../Middlewares/Camera_Middleware/ISP_Library/isp/Src/isp_algo.c **** #endif
1295:../../Middlewares/Camera_Middleware/ISP_Library/isp/Src/isp_algo.c ****       ret = algo->Process((void*)hIsp, (void*)algo);
1296:../../Middlewares/Camera_Middleware/ISP_Library/isp/Src/isp_algo.c ****       if (ret != ISP_OK)
1297:../../Middlewares/Camera_Middleware/ISP_Library/isp/Src/isp_algo.c ****       {
1298:../../Middlewares/Camera_Middleware/ISP_Library/isp/Src/isp_algo.c ****         return ret;
1299:../../Middlewares/Camera_Middleware/ISP_Library/isp/Src/isp_algo.c ****       }
1300:../../Middlewares/Camera_Middleware/ISP_Library/isp/Src/isp_algo.c **** #ifdef ALGO_PERF_DBG_LOGS
1301:../../Middlewares/Camera_Middleware/ISP_Library/isp/Src/isp_algo.c ****       algo->perf_meas[iter] = HAL_GetTick() - tickstart;
1302:../../Middlewares/Camera_Middleware/ISP_Library/isp/Src/isp_algo.c ****       algo->iter++;
1303:../../Middlewares/Camera_Middleware/ISP_Library/isp/Src/isp_algo.c ****       if (algo->iter == NB_PERF_MEASURES) {
ARM GAS  C:\Users\Antonio\AppData\Local\Temp\ccP00qEn.s 			page 81


1304:../../Middlewares/Camera_Middleware/ISP_Library/isp/Src/isp_algo.c ****         uint32_t sum = 0;
1305:../../Middlewares/Camera_Middleware/ISP_Library/isp/Src/isp_algo.c ****         for(uint32_t j = 0; j < NB_PERF_MEASURES; j++)
1306:../../Middlewares/Camera_Middleware/ISP_Library/isp/Src/isp_algo.c ****         {
1307:../../Middlewares/Camera_Middleware/ISP_Library/isp/Src/isp_algo.c ****           sum += algo->perf_meas[j];
1308:../../Middlewares/Camera_Middleware/ISP_Library/isp/Src/isp_algo.c ****         }
1309:../../Middlewares/Camera_Middleware/ISP_Library/isp/Src/isp_algo.c ****         switch (algo->id)
1310:../../Middlewares/Camera_Middleware/ISP_Library/isp/Src/isp_algo.c ****         {
1311:../../Middlewares/Camera_Middleware/ISP_Library/isp/Src/isp_algo.c ****           case ISP_ALGO_ID_BADPIXEL:
1312:../../Middlewares/Camera_Middleware/ISP_Library/isp/Src/isp_algo.c ****             printf("BadPixel algo      ");
1313:../../Middlewares/Camera_Middleware/ISP_Library/isp/Src/isp_algo.c ****             break;
1314:../../Middlewares/Camera_Middleware/ISP_Library/isp/Src/isp_algo.c **** #ifdef ISP_MW_SW_AEC_ALGO_SUPPORT
1315:../../Middlewares/Camera_Middleware/ISP_Library/isp/Src/isp_algo.c ****           case ISP_ALGO_ID_AEC:
1316:../../Middlewares/Camera_Middleware/ISP_Library/isp/Src/isp_algo.c ****             printf("AEC algo           ");
1317:../../Middlewares/Camera_Middleware/ISP_Library/isp/Src/isp_algo.c ****             break;
1318:../../Middlewares/Camera_Middleware/ISP_Library/isp/Src/isp_algo.c **** #endif /* ISP_MW_SW_AEC_ALGO_SUPPORT */
1319:../../Middlewares/Camera_Middleware/ISP_Library/isp/Src/isp_algo.c **** #ifdef ISP_MW_SW_AWB_ALGO_SUPPORT
1320:../../Middlewares/Camera_Middleware/ISP_Library/isp/Src/isp_algo.c ****           case ISP_ALGO_ID_AWB:
1321:../../Middlewares/Camera_Middleware/ISP_Library/isp/Src/isp_algo.c ****             printf("AWB algo           ");
1322:../../Middlewares/Camera_Middleware/ISP_Library/isp/Src/isp_algo.c ****             break;
1323:../../Middlewares/Camera_Middleware/ISP_Library/isp/Src/isp_algo.c **** #endif /* ISP_MW_SW_AWB_ALGO_SUPPORT */
1324:../../Middlewares/Camera_Middleware/ISP_Library/isp/Src/isp_algo.c ****         }
1325:../../Middlewares/Camera_Middleware/ISP_Library/isp/Src/isp_algo.c ****         uint32_t meas = sum / NB_PERF_MEASURES;
1326:../../Middlewares/Camera_Middleware/ISP_Library/isp/Src/isp_algo.c ****         if (meas == 0)
1327:../../Middlewares/Camera_Middleware/ISP_Library/isp/Src/isp_algo.c ****         {
1328:../../Middlewares/Camera_Middleware/ISP_Library/isp/Src/isp_algo.c ****           printf(" <1 ms\r\n");
1329:../../Middlewares/Camera_Middleware/ISP_Library/isp/Src/isp_algo.c ****         }
1330:../../Middlewares/Camera_Middleware/ISP_Library/isp/Src/isp_algo.c ****         else
1331:../../Middlewares/Camera_Middleware/ISP_Library/isp/Src/isp_algo.c ****         {
1332:../../Middlewares/Camera_Middleware/ISP_Library/isp/Src/isp_algo.c ****           printf(" %ld ms\r\n", meas);
1333:../../Middlewares/Camera_Middleware/ISP_Library/isp/Src/isp_algo.c ****         }
1334:../../Middlewares/Camera_Middleware/ISP_Library/isp/Src/isp_algo.c ****         algo->iter = 0;
1335:../../Middlewares/Camera_Middleware/ISP_Library/isp/Src/isp_algo.c ****       }
1336:../../Middlewares/Camera_Middleware/ISP_Library/isp/Src/isp_algo.c **** #endif
1337:../../Middlewares/Camera_Middleware/ISP_Library/isp/Src/isp_algo.c ****     }
1338:../../Middlewares/Camera_Middleware/ISP_Library/isp/Src/isp_algo.c ****   }
1339:../../Middlewares/Camera_Middleware/ISP_Library/isp/Src/isp_algo.c **** 
1340:../../Middlewares/Camera_Middleware/ISP_Library/isp/Src/isp_algo.c ****   return ISP_OK;
 2532              		.loc 1 1340 10 view .LVU852
 2533 0012 0020     		movs	r0, #0
 2534              	.LVL198:
 2535              	.L196:
1341:../../Middlewares/Camera_Middleware/ISP_Library/isp/Src/isp_algo.c **** }
 2536              		.loc 1 1341 1 view .LVU853
 2537 0014 38BD     		pop	{r3, r4, r5, pc}
 2538              	.LVL199:
 2539              	.L194:
1290:../../Middlewares/Camera_Middleware/ISP_Library/isp/Src/isp_algo.c ****     {
 2540              		.loc 1 1290 32 discriminator 1 view .LVU854
 2541 0016 CB68     		ldr	r3, [r1, #12]
1290:../../Middlewares/Camera_Middleware/ISP_Library/isp/Src/isp_algo.c ****     {
 2542              		.loc 1 1290 24 discriminator 1 view .LVU855
 2543 0018 002B     		cmp	r3, #0
 2544 001a F7D0     		beq	.L197
1295:../../Middlewares/Camera_Middleware/ISP_Library/isp/Src/isp_algo.c ****       if (ret != ISP_OK)
 2545              		.loc 1 1295 7 is_stmt 1 view .LVU856
1295:../../Middlewares/Camera_Middleware/ISP_Library/isp/Src/isp_algo.c ****       if (ret != ISP_OK)
 2546              		.loc 1 1295 13 is_stmt 0 view .LVU857
ARM GAS  C:\Users\Antonio\AppData\Local\Temp\ccP00qEn.s 			page 82


 2547 001c 2046     		mov	r0, r4
 2548 001e 9847     		blx	r3
 2549              	.LVL200:
1296:../../Middlewares/Camera_Middleware/ISP_Library/isp/Src/isp_algo.c ****       {
 2550              		.loc 1 1296 7 is_stmt 1 view .LVU858
1296:../../Middlewares/Camera_Middleware/ISP_Library/isp/Src/isp_algo.c ****       {
 2551              		.loc 1 1296 10 is_stmt 0 view .LVU859
 2552 0020 0028     		cmp	r0, #0
 2553 0022 F3D0     		beq	.L197
 2554 0024 F6E7     		b	.L196
 2555              		.cfi_endproc
 2556              	.LFE855:
 2558              		.section	.bss.colorTempHistory.0,"aw",%nobits
 2559              		.align	2
 2562              	colorTempHistory.0:
 2563 0000 00000000 		.space	8
 2563      00000000 
 2564              		.section	.bss.currentColorTemp.1,"aw",%nobits
 2565              		.align	2
 2568              	currentColorTemp.1:
 2569 0000 00000000 		.space	4
 2570              		.section	.bss.statsHistory.2,"aw",%nobits
 2571              		.align	2
 2574              	statsHistory.2:
 2575 0000 00000000 		.space	36
 2575      00000000 
 2575      00000000 
 2575      00000000 
 2575      00000000 
 2576              		.section	.bss.stats.3,"aw",%nobits
 2577              		.align	2
 2580              	stats.3:
 2581 0000 00000000 		.space	120
 2581      00000000 
 2581      00000000 
 2581      00000000 
 2581      00000000 
 2582              		.section	.bss.awbProfiles.4,"aw",%nobits
 2583              		.align	2
 2586              	awbProfiles.4:
 2587 0000 00000000 		.space	340
 2587      00000000 
 2587      00000000 
 2587      00000000 
 2587      00000000 
 2588              		.section	.bss.colorTempThresholds.5,"aw",%nobits
 2589              		.align	2
 2592              	colorTempThresholds.5:
 2593 0000 00000000 		.space	16
 2593      00000000 
 2593      00000000 
 2593      00000000 
 2594              		.section	.data.skip_stat_check_count.6,"aw"
 2597              	skip_stat_check_count.6:
 2598 0000 0A       		.byte	10
 2599              		.section	.bss.reconfigureRequest.7,"aw",%nobits
 2602              	reconfigureRequest.7:
ARM GAS  C:\Users\Antonio\AppData\Local\Temp\ccP00qEn.s 			page 83


 2603 0000 00       		.space	1
 2604              		.section	.bss.enableCurrent.8,"aw",%nobits
 2607              	enableCurrent.8:
 2608 0000 00       		.space	1
 2609              		.section	.bss.stats.9,"aw",%nobits
 2610              		.align	2
 2613              	stats.9:
 2614 0000 00000000 		.space	120
 2614      00000000 
 2614      00000000 
 2614      00000000 
 2614      00000000 
 2615              		.section	.bss.BadPixelCount.10,"aw",%nobits
 2616              		.align	2
 2619              	BadPixelCount.10:
 2620 0000 00000000 		.space	4
 2621              		.section	.bss.Step.11,"aw",%nobits
 2624              	Step.11:
 2625 0000 00       		.space	1
 2626              		.section	.bss.LastFrameId.12,"aw",%nobits
 2627              		.align	2
 2630              	LastFrameId.12:
 2631 0000 00000000 		.space	4
 2632              		.global	Meta
 2633              		.section	.bss.Meta,"aw",%nobits
 2634              		.align	2
 2637              	Meta:
 2638 0000 00000000 		.space	20
 2638      00000000 
 2638      00000000 
 2638      00000000 
 2638      00000000 
 2639              		.global	current_awb_profId
 2640              		.section	.bss.current_awb_profId,"aw",%nobits
 2641              		.align	2
 2644              	current_awb_profId:
 2645 0000 00000000 		.space	4
 2646              		.section	.bss.pIspAWBestimator,"aw",%nobits
 2647              		.align	2
 2650              	pIspAWBestimator:
 2651 0000 00000000 		.space	4
 2652              		.section	.bss.pIspAEprocess,"aw",%nobits
 2653              		.align	2
 2656              	pIspAEprocess:
 2657 0000 00000000 		.space	4
 2658              		.global	ISP_Algo_List
 2659              		.section	.data.ISP_Algo_List,"aw"
 2660              		.align	2
 2663              	ISP_Algo_List:
 2664 0000 00000000 		.word	ISP_Algo_BadPixel
 2665 0004 00000000 		.word	ISP_Algo_AEC
 2666 0008 00000000 		.word	ISP_Algo_AWB
 2667              		.global	ISP_Algo_AWB
 2668              		.section	.data.ISP_Algo_AWB,"aw"
 2669              		.align	2
 2672              	ISP_Algo_AWB:
 2673 0000 02       		.byte	2
ARM GAS  C:\Users\Antonio\AppData\Local\Temp\ccP00qEn.s 			page 84


 2674 0001 000000   		.space	3
 2675 0004 00000000 		.word	ISP_Algo_AWB_Init
 2676 0008 00000000 		.word	ISP_Algo_AWB_DeInit
 2677 000c 00000000 		.word	ISP_Algo_AWB_Process
 2678 0010 00000000 		.space	44
 2678      00000000 
 2678      00000000 
 2678      00000000 
 2678      00000000 
 2679              		.global	ISP_Algo_AEC
 2680              		.section	.data.ISP_Algo_AEC,"aw"
 2681              		.align	2
 2684              	ISP_Algo_AEC:
 2685 0000 01       		.byte	1
 2686 0001 000000   		.space	3
 2687 0004 00000000 		.word	ISP_Algo_AEC_Init
 2688 0008 00000000 		.word	ISP_Algo_AEC_DeInit
 2689 000c 00000000 		.word	ISP_Algo_AEC_Process
 2690 0010 00000000 		.space	44
 2690      00000000 
 2690      00000000 
 2690      00000000 
 2690      00000000 
 2691              		.global	ISP_Algo_BadPixel
 2692              		.section	.data.ISP_Algo_BadPixel,"aw"
 2693              		.align	2
 2696              	ISP_Algo_BadPixel:
 2697 0000 00       		.byte	0
 2698 0001 000000   		.space	3
 2699 0004 00000000 		.word	ISP_Algo_BadPixel_Init
 2700 0008 00000000 		.word	ISP_Algo_BadPixel_DeInit
 2701 000c 00000000 		.word	ISP_Algo_BadPixel_Process
 2702 0010 00000000 		.space	44
 2702      00000000 
 2702      00000000 
 2702      00000000 
 2702      00000000 
 2703              		.text
 2704              	.Letext0:
 2705              		.file 2 "C:\\ST\\STM32CubeIDE_1.19.0\\STM32CubeIDE\\plugins\\com.st.stm32cube.ide.mcu.externaltool
 2706              		.file 3 "C:\\ST\\STM32CubeIDE_1.19.0\\STM32CubeIDE\\plugins\\com.st.stm32cube.ide.mcu.externaltool
 2707              		.file 4 "C:\\ST\\STM32CubeIDE_1.19.0\\STM32CubeIDE\\plugins\\com.st.stm32cube.ide.mcu.externaltool
 2708              		.file 5 "../../Middlewares/Camera_Middleware/ISP_Library/isp/Inc/isp_core.h"
 2709              		.file 6 "../../Middlewares/Camera_Middleware/ISP_Library/isp/Inc/isp_services.h"
 2710              		.file 7 "../../Middlewares/Camera_Middleware/ISP_Library/evision/Inc/evision-api-utils.h"
 2711              		.file 8 "../../Middlewares/Camera_Middleware/ISP_Library/evision/Inc/evision-api-st-ae.h"
 2712              		.file 9 "../../Middlewares/Camera_Middleware/ISP_Library/evision/Inc/evision-api-awb.h"
 2713              		.file 10 "C:\\ST\\STM32CubeIDE_1.19.0\\STM32CubeIDE\\plugins\\com.st.stm32cube.ide.mcu.externaltoo
 2714              		.file 11 "C:\\ST\\STM32CubeIDE_1.19.0\\STM32CubeIDE\\plugins\\com.st.stm32cube.ide.mcu.externaltoo
 2715              		.file 12 "C:\\ST\\STM32CubeIDE_1.19.0\\STM32CubeIDE\\plugins\\com.st.stm32cube.ide.mcu.externaltoo
 2716              		.file 13 "<built-in>"
ARM GAS  C:\Users\Antonio\AppData\Local\Temp\ccP00qEn.s 			page 85


DEFINED SYMBOLS
                            *ABS*:00000000 isp_algo.c
C:\Users\Antonio\AppData\Local\Temp\ccP00qEn.s:26     .text.ISP_Algo_BadPixel_Init:00000000 $t
C:\Users\Antonio\AppData\Local\Temp\ccP00qEn.s:32     .text.ISP_Algo_BadPixel_Init:00000000 ISP_Algo_BadPixel_Init
C:\Users\Antonio\AppData\Local\Temp\ccP00qEn.s:54     .text.ISP_Algo_BadPixel_DeInit:00000000 $t
C:\Users\Antonio\AppData\Local\Temp\ccP00qEn.s:60     .text.ISP_Algo_BadPixel_DeInit:00000000 ISP_Algo_BadPixel_DeInit
C:\Users\Antonio\AppData\Local\Temp\ccP00qEn.s:80     .text.ISP_Algo_AEC_StatCb:00000000 $t
C:\Users\Antonio\AppData\Local\Temp\ccP00qEn.s:86     .text.ISP_Algo_AEC_StatCb:00000000 ISP_Algo_AEC_StatCb
C:\Users\Antonio\AppData\Local\Temp\ccP00qEn.s:108    .text.ISP_Algo_AWB_StatCb:00000000 $t
C:\Users\Antonio\AppData\Local\Temp\ccP00qEn.s:114    .text.ISP_Algo_AWB_StatCb:00000000 ISP_Algo_AWB_StatCb
C:\Users\Antonio\AppData\Local\Temp\ccP00qEn.s:141    .text.ISP_Algo_BadPixel_Process:00000000 $t
C:\Users\Antonio\AppData\Local\Temp\ccP00qEn.s:147    .text.ISP_Algo_BadPixel_Process:00000000 ISP_Algo_BadPixel_Process
C:\Users\Antonio\AppData\Local\Temp\ccP00qEn.s:319    .text.ISP_Algo_BadPixel_Process:00000098 $d
C:\Users\Antonio\AppData\Local\Temp\ccP00qEn.s:2630   .bss.LastFrameId.12:00000000 LastFrameId.12
C:\Users\Antonio\AppData\Local\Temp\ccP00qEn.s:2624   .bss.Step.11:00000000 Step.11
C:\Users\Antonio\AppData\Local\Temp\ccP00qEn.s:2619   .bss.BadPixelCount.10:00000000 BadPixelCount.10
C:\Users\Antonio\AppData\Local\Temp\ccP00qEn.s:326    .text.ISP_Algo_AEC_DeInit:00000000 $t
C:\Users\Antonio\AppData\Local\Temp\ccP00qEn.s:332    .text.ISP_Algo_AEC_DeInit:00000000 ISP_Algo_AEC_DeInit
C:\Users\Antonio\AppData\Local\Temp\ccP00qEn.s:364    .text.ISP_Algo_AEC_DeInit:00000010 $d
C:\Users\Antonio\AppData\Local\Temp\ccP00qEn.s:2656   .bss.pIspAEprocess:00000000 pIspAEprocess
C:\Users\Antonio\AppData\Local\Temp\ccP00qEn.s:369    .text.ISP_Algo_AEC_Init:00000000 $t
C:\Users\Antonio\AppData\Local\Temp\ccP00qEn.s:375    .text.ISP_Algo_AEC_Init:00000000 ISP_Algo_AEC_Init
C:\Users\Antonio\AppData\Local\Temp\ccP00qEn.s:572    .text.ISP_Algo_AEC_Init:000000c0 $d
C:\Users\Antonio\AppData\Local\Temp\ccP00qEn.s:592    .text.log_cb:00000000 log_cb
C:\Users\Antonio\AppData\Local\Temp\ccP00qEn.s:587    .text.log_cb:00000000 $t
C:\Users\Antonio\AppData\Local\Temp\ccP00qEn.s:626    .text.log_cb:00000014 $d
C:\Users\Antonio\AppData\Local\Temp\ccP00qEn.s:632    .text.ISP_Algo_AEC_Process:00000000 $t
C:\Users\Antonio\AppData\Local\Temp\ccP00qEn.s:638    .text.ISP_Algo_AEC_Process:00000000 ISP_Algo_AEC_Process
C:\Users\Antonio\AppData\Local\Temp\ccP00qEn.s:875    .text.ISP_Algo_AEC_Process:000000e0 $d
C:\Users\Antonio\AppData\Local\Temp\ccP00qEn.s:2613   .bss.stats.9:00000000 stats.9
C:\Users\Antonio\AppData\Local\Temp\ccP00qEn.s:2637   .bss.Meta:00000000 Meta
C:\Users\Antonio\AppData\Local\Temp\ccP00qEn.s:883    .text.ISP_Algo_AWB_Init:00000000 $t
C:\Users\Antonio\AppData\Local\Temp\ccP00qEn.s:889    .text.ISP_Algo_AWB_Init:00000000 ISP_Algo_AWB_Init
C:\Users\Antonio\AppData\Local\Temp\ccP00qEn.s:935    .text.ISP_Algo_AWB_Init:0000001c $d
C:\Users\Antonio\AppData\Local\Temp\ccP00qEn.s:2650   .bss.pIspAWBestimator:00000000 pIspAWBestimator
C:\Users\Antonio\AppData\Local\Temp\ccP00qEn.s:941    .text.ISP_Algo_AWB_DeInit:00000000 $t
C:\Users\Antonio\AppData\Local\Temp\ccP00qEn.s:947    .text.ISP_Algo_AWB_DeInit:00000000 ISP_Algo_AWB_DeInit
C:\Users\Antonio\AppData\Local\Temp\ccP00qEn.s:979    .text.ISP_Algo_AWB_DeInit:00000010 $d
C:\Users\Antonio\AppData\Local\Temp\ccP00qEn.s:984    .text.ISP_Algo_ApplyGammaInverse:00000000 $t
C:\Users\Antonio\AppData\Local\Temp\ccP00qEn.s:990    .text.ISP_Algo_ApplyGammaInverse:00000000 ISP_Algo_ApplyGammaInverse
C:\Users\Antonio\AppData\Local\Temp\ccP00qEn.s:1065   .text.ISP_Algo_ApplyGammaInverse:00000040 $d
C:\Users\Antonio\AppData\Local\Temp\ccP00qEn.s:1076   .text.ISP_Algo_GetUpStat:00000000 $t
C:\Users\Antonio\AppData\Local\Temp\ccP00qEn.s:1082   .text.ISP_Algo_GetUpStat:00000000 ISP_Algo_GetUpStat
C:\Users\Antonio\AppData\Local\Temp\ccP00qEn.s:1227   .text.ISP_Algo_GetUpStat:0000009c $d
C:\Users\Antonio\AppData\Local\Temp\ccP00qEn.s:1232   .text.ISP_Algo_ApplyCConv:00000000 $t
C:\Users\Antonio\AppData\Local\Temp\ccP00qEn.s:1238   .text.ISP_Algo_ApplyCConv:00000000 ISP_Algo_ApplyCConv
C:\Users\Antonio\AppData\Local\Temp\ccP00qEn.s:1481   .text.ISP_Algo_ApplyCConv:00000168 $d
C:\Users\Antonio\AppData\Local\Temp\ccP00qEn.s:1488   .text.ISP_Algo_AWB_Process:00000000 $t
C:\Users\Antonio\AppData\Local\Temp\ccP00qEn.s:1494   .text.ISP_Algo_AWB_Process:00000000 ISP_Algo_AWB_Process
C:\Users\Antonio\AppData\Local\Temp\ccP00qEn.s:1862   .text.ISP_Algo_AWB_Process:000001d8 $d
C:\Users\Antonio\AppData\Local\Temp\ccP00qEn.s:2607   .bss.enableCurrent.8:00000000 enableCurrent.8
C:\Users\Antonio\AppData\Local\Temp\ccP00qEn.s:2602   .bss.reconfigureRequest.7:00000000 reconfigureRequest.7
C:\Users\Antonio\AppData\Local\Temp\ccP00qEn.s:2597   .data.skip_stat_check_count.6:00000000 skip_stat_check_count.6
C:\Users\Antonio\AppData\Local\Temp\ccP00qEn.s:2586   .bss.awbProfiles.4:00000000 awbProfiles.4
C:\Users\Antonio\AppData\Local\Temp\ccP00qEn.s:2592   .bss.colorTempThresholds.5:00000000 colorTempThresholds.5
C:\Users\Antonio\AppData\Local\Temp\ccP00qEn.s:2580   .bss.stats.3:00000000 stats.3
C:\Users\Antonio\AppData\Local\Temp\ccP00qEn.s:1879   .text.ISP_Algo_AWB_Process:00000210 $t
ARM GAS  C:\Users\Antonio\AppData\Local\Temp\ccP00qEn.s 			page 86


C:\Users\Antonio\AppData\Local\Temp\ccP00qEn.s:2315   .text.ISP_Algo_AWB_Process:00000470 $d
C:\Users\Antonio\AppData\Local\Temp\ccP00qEn.s:2568   .bss.currentColorTemp.1:00000000 currentColorTemp.1
C:\Users\Antonio\AppData\Local\Temp\ccP00qEn.s:2644   .bss.current_awb_profId:00000000 current_awb_profId
C:\Users\Antonio\AppData\Local\Temp\ccP00qEn.s:2574   .bss.statsHistory.2:00000000 statsHistory.2
C:\Users\Antonio\AppData\Local\Temp\ccP00qEn.s:2562   .bss.colorTempHistory.0:00000000 colorTempHistory.0
C:\Users\Antonio\AppData\Local\Temp\ccP00qEn.s:2329   .text.ISP_Algo_Init:00000000 $t
C:\Users\Antonio\AppData\Local\Temp\ccP00qEn.s:2335   .text.ISP_Algo_Init:00000000 ISP_Algo_Init
C:\Users\Antonio\AppData\Local\Temp\ccP00qEn.s:2406   .text.ISP_Algo_Init:0000002c $d
C:\Users\Antonio\AppData\Local\Temp\ccP00qEn.s:2663   .data.ISP_Algo_List:00000000 ISP_Algo_List
C:\Users\Antonio\AppData\Local\Temp\ccP00qEn.s:2411   .text.ISP_Algo_DeInit:00000000 $t
C:\Users\Antonio\AppData\Local\Temp\ccP00qEn.s:2417   .text.ISP_Algo_DeInit:00000000 ISP_Algo_DeInit
C:\Users\Antonio\AppData\Local\Temp\ccP00qEn.s:2485   .text.ISP_Algo_Process:00000000 $t
C:\Users\Antonio\AppData\Local\Temp\ccP00qEn.s:2491   .text.ISP_Algo_Process:00000000 ISP_Algo_Process
C:\Users\Antonio\AppData\Local\Temp\ccP00qEn.s:2559   .bss.colorTempHistory.0:00000000 $d
C:\Users\Antonio\AppData\Local\Temp\ccP00qEn.s:2565   .bss.currentColorTemp.1:00000000 $d
C:\Users\Antonio\AppData\Local\Temp\ccP00qEn.s:2571   .bss.statsHistory.2:00000000 $d
C:\Users\Antonio\AppData\Local\Temp\ccP00qEn.s:2577   .bss.stats.3:00000000 $d
C:\Users\Antonio\AppData\Local\Temp\ccP00qEn.s:2583   .bss.awbProfiles.4:00000000 $d
C:\Users\Antonio\AppData\Local\Temp\ccP00qEn.s:2589   .bss.colorTempThresholds.5:00000000 $d
C:\Users\Antonio\AppData\Local\Temp\ccP00qEn.s:2603   .bss.reconfigureRequest.7:00000000 $d
C:\Users\Antonio\AppData\Local\Temp\ccP00qEn.s:2608   .bss.enableCurrent.8:00000000 $d
C:\Users\Antonio\AppData\Local\Temp\ccP00qEn.s:2610   .bss.stats.9:00000000 $d
C:\Users\Antonio\AppData\Local\Temp\ccP00qEn.s:2616   .bss.BadPixelCount.10:00000000 $d
C:\Users\Antonio\AppData\Local\Temp\ccP00qEn.s:2625   .bss.Step.11:00000000 $d
C:\Users\Antonio\AppData\Local\Temp\ccP00qEn.s:2627   .bss.LastFrameId.12:00000000 $d
C:\Users\Antonio\AppData\Local\Temp\ccP00qEn.s:2634   .bss.Meta:00000000 $d
C:\Users\Antonio\AppData\Local\Temp\ccP00qEn.s:2641   .bss.current_awb_profId:00000000 $d
C:\Users\Antonio\AppData\Local\Temp\ccP00qEn.s:2647   .bss.pIspAWBestimator:00000000 $d
C:\Users\Antonio\AppData\Local\Temp\ccP00qEn.s:2653   .bss.pIspAEprocess:00000000 $d
C:\Users\Antonio\AppData\Local\Temp\ccP00qEn.s:2660   .data.ISP_Algo_List:00000000 $d
C:\Users\Antonio\AppData\Local\Temp\ccP00qEn.s:2696   .data.ISP_Algo_BadPixel:00000000 ISP_Algo_BadPixel
C:\Users\Antonio\AppData\Local\Temp\ccP00qEn.s:2684   .data.ISP_Algo_AEC:00000000 ISP_Algo_AEC
C:\Users\Antonio\AppData\Local\Temp\ccP00qEn.s:2672   .data.ISP_Algo_AWB:00000000 ISP_Algo_AWB
C:\Users\Antonio\AppData\Local\Temp\ccP00qEn.s:2669   .data.ISP_Algo_AWB:00000000 $d
C:\Users\Antonio\AppData\Local\Temp\ccP00qEn.s:2681   .data.ISP_Algo_AEC:00000000 $d
C:\Users\Antonio\AppData\Local\Temp\ccP00qEn.s:2693   .data.ISP_Algo_BadPixel:00000000 $d
                           .group:00000000 wm4.0.edffc6ad2f5eb1e671bbefdf8c481eb3
                           .group:00000000 wm4.isp_conf.h.21.f38432dbfef47e2ce2a64e60ef6a2d79
                           .group:00000000 wm4.stm32n6xx_hal_conf.h.21.e6f895f5dec93fd886896ef3aa220611
                           .group:00000000 wm4.stddef.h.39.0dc9006b34572d4d9cae4c8b422c4971
                           .group:00000000 wm4.arm_cmse.h.103.a0d15a79c4c9a67da8d5831704d7248e
                           .group:00000000 wm4.stm32n6xx.h.34.80585dd08aa426c932f6311fdb7386da
                           .group:00000000 wm4.stm32n657xx.h.26.acd272cb67318cc1a4791ce2f0720ca6
                           .group:00000000 wm4._newlib_version.h.4.411db44ea2338a62eca2f0777f81481b
                           .group:00000000 wm4.features.h.33.e0c9f337c65cb9f22ed5f23d082bc78b
                           .group:00000000 wm4._default_types.h.15.247e5cd201eca3442cbf5404108c4935
                           .group:00000000 wm4._intsup.h.10.48bafbb683905c4daa4565a85aeeb264
                           .group:00000000 wm4._stdint.h.10.c24fa3af3bc1706662bb5593a907e841
                           .group:00000000 wm4.stdint.h.23.d53047a68f4a85177f80b422d52785ed
                           .group:00000000 wm4.cmsis_version.h.32.0ac195c83bb4537824e6ad1c47474b79
                           .group:00000000 wm4.core_cm55.h.68.832d5cf835639cc0d28219c3d2867330
                           .group:00000000 wm4.cmsis_gcc.h.26.7a5fd1a99dbedde687044a4433ab3e15
                           .group:00000000 wm4.core_cm55.h.196.52e437a270752da561676e507b35baeb
                           .group:00000000 wm4.mpu_armv8.h.32.9d72426c8e2b47753456dcb84802c5b3
                           .group:00000000 wm4.pmu_armv8.h.32.eaa95f88a71b29390b135fd81c071b6b
                           .group:00000000 wm4.core_cm55.h.4411.860dad8650880893dd57b815844f7186
                           .group:00000000 wm4.cachel1_armv7.h.32.abd77761a989e008b0c60891114a33c7
ARM GAS  C:\Users\Antonio\AppData\Local\Temp\ccP00qEn.s 			page 87


                           .group:00000000 wm4.stm32n657xx.h.575.1c2a5e6bedffc6f9083dcc857bc6d09d
                           .group:00000000 wm4.stm32n6xx.h.114.5cf793d8af485e14f110e3e24bde1aa5
                           .group:00000000 wm4.stm32_hal_legacy.h.22.87fb12bf5a1a1e00fc134f22bc9aa8c4
                           .group:00000000 wm4.newlib.h.7.a37ffbe9e5aff74303f4e60b1cc1c01b
                           .group:00000000 wm4.ieeefp.h.77.bd5feb87d9990dd328793ced294f6a87
                           .group:00000000 wm4.config.h.224.10ee1ad185d877c6e334e6581faab44d
                           .group:00000000 wm4._ansi.h.31.de524f58584151836e90d8620a16f8e8
                           .group:00000000 wm4.cdefs.h.49.70fc7af612f78ddcace70fdd90b5623b
                           .group:00000000 wm4._types.h.20.dd0d04dca3800a0d2a6129b87f3adbb2
                           .group:00000000 wm4.stddef.h.158.6f8e08a347b1cff664332fa350bfceb3
                           .group:00000000 wm4._types.h.127.3bdfe3ff8ea2d0985b03d9cbe93480e3
                           .group:00000000 wm4.reent.h.18.25503cdc8b7e55dd0d6ea7b3e5af7a03
                           .group:00000000 wm4.lock.h.2.1461d1fff82dffe8bfddc23307f6484f
                           .group:00000000 wm4.reent.h.78.6b87466b04591b1f1cb88c14fdf2ba9e
                           .group:00000000 wm4.math.h.13.47cfc34cae8a1153323939c4d32cf7c2
                           .group:00000000 wm4.stm32n6xx_hal_def.h.63.3a8f01490e8852464e9fcb69092e9c75
                           .group:00000000 wm4.stm32n6xx_ll_bus.h.38.2366a295ee4cdb04833997d3787fcd2d
                           .group:00000000 wm4.stm32n6xx_ll_rcc.h.21.002e22a16fd7f67dde6dce41e8ba9620
                           .group:00000000 wm4.stm32n6xx_hal_rcc.h.194.1cb1283e40f9bebcd3fba2a9a961838e
                           .group:00000000 wm4.stm32n6xx_hal_rcc_ex.h.21.79aa32178dfef625fbd20d362449acfa
                           .group:00000000 wm4.stm32n6xx_hal_rcc.h.4359.3f0b7ad33826d95438602c9aebc08af9
                           .group:00000000 wm4.stm32n6xx_hal_gpio.h.21.89d54af663b98eb8fc098192053f7eeb
                           .group:00000000 wm4.stm32n6xx_hal_gpio_ex.h.22.4acb2e3511a98bb48b81cfc8e09fd59e
                           .group:00000000 wm4.stm32n6xx_hal_rif.h.21.424d0bafb874a777dee3742a22e13037
                           .group:00000000 wm4.stm32n6xx_hal_dma.h.21.61e48c5c2e8d25d22177834b232fe45c
                           .group:00000000 wm4.stm32n6xx_hal_dma_ex.h.21.66e597beb090a165329d6ccf665e41bc
                           .group:00000000 wm4.stm32n6xx_hal_dma.h.1020.87e2180c009560b617c1f8208140c950
                           .group:00000000 wm4.stm32n6xx_hal_cortex.h.21.f493623cc58f9454ab4eae41e395c5cc
                           .group:00000000 wm4.stm32n6xx_hal_bsec.h.21.61b309e67dd810e28897a01b1b21a97f
                           .group:00000000 wm4.stm32n6xx_hal_dcmipp.h.21.f538bfd785c6469670251ac9bc7af55d
                           .group:00000000 wm4.stm32n6xx_hal_dma2d.h.21.75c8d46cdbb72970123b3f34ae2043d7
                           .group:00000000 wm4.stm32n6xx_hal_exti.h.21.fda87e715ea6b98239ec30171d1df594
                           .group:00000000 wm4.stm32n6xx_hal_i2c.h.21.3f483626ff64c5bf027265bb2e1d1331
                           .group:00000000 wm4.stm32n6xx_hal_i2c_ex.h.21.79e9196c22282cdaf6b4047893638c45
                           .group:00000000 wm4.stm32n6xx_hal_i2c.h.741.1084702632703acc669e4282b3043372
                           .group:00000000 wm4.stm32n6xx_hal_ltdc.h.21.ae1eb09930e7e550e48e418ac5849e4d
                           .group:00000000 wm4.stm32n6xx_hal_ltdc.h.1002.b13ede7fc94ed5ad1c6768a157d2149a
                           .group:00000000 wm4.stm32n6xx_hal_pwr.h.21.cdb73e4869c3fed3fc84f901ec0e5f0a
                           .group:00000000 wm4.stm32n6xx_hal_pwr_ex.h.21.1a673224a58b0c1e5fad8eeda6514208
                           .group:00000000 wm4.stm32n6xx_hal_ramcfg.h.21.a62dfbb4d2c14e9a8c634a215e37bd3d
                           .group:00000000 wm4.stm32n6xx_hal_uart.h.21.230f549bfa0d5ebfd77bfb311b2aca15
                           .group:00000000 wm4.stm32n6xx_hal_uart_ex.h.21.a0d5511e1d0703b7b5278c8f5472b96d
                           .group:00000000 wm4.stm32n6xx_hal_xspi.h.21.e17898be2073b6b6b19faf30b4e304e9
                           .group:00000000 wm4.stm32n6xx_hal_cacheaxi.h.21.7c3375b7903ec42376e4883320997f74
                           .group:00000000 wm4.stm32n6xx_hal.h.81.5e59143eba07faca3e9aeaa5470826c8
                           .group:00000000 wm4.stdio.h.27.3fc80220048df77954e38daec3bb9670
                           .group:00000000 wm4.stddef.h.158.eec8bf00b5213f43d095cb984c5f22e3
                           .group:00000000 wm4.stdarg.h.34.3a23a216c0c293b3d2ea2e89281481e6
                           .group:00000000 wm4.stdio.h.47.dc31ec4674d7bcb103c9f08809549f45
                           .group:00000000 wm4.stdio.h.2.4aa87247282eca6c8f36f9de33d8df1a
                           .group:00000000 wm4.stdio.h.87.a1e20d2651f9bfb66e51bfbe849db00a
                           .group:00000000 wm4.stdlib.h.13.4ed386f5c1a80d71e72172885d946ef2
                           .group:00000000 wm4.alloca.h.8.dfc0c703c47ec3e69746825b17d9e66d
                           .group:00000000 wm4.stdlib.h.56.f4862cfbf4363a1db01842d5bdf72c18
                           .group:00000000 wm4.string.h.8.c4b8571ce60dff2817f43fec8b86aecd
                           .group:00000000 wm4.string.h.177.59a005921fa78485abc80a0267de5752
                           .group:00000000 wm4.stdbool.h.29.c08aa3eec75cf5b9b5003883f43253f0
ARM GAS  C:\Users\Antonio\AppData\Local\Temp\ccP00qEn.s 			page 88


                           .group:00000000 wm4.isp_core.h.109.be5387f515355b6edcb70af2607f9a68
                           .group:00000000 wm4.isp_services.h.55.aa3787e002060687ddf24cf4424c9532
                           .group:00000000 wm4.evisionapiutils.h.17.42d109d4baa8f282e43af5fe8c49413c
                           .group:00000000 wm4.evisionapistae.h.156.cec5736945968c8750b3db48785fdde1
                           .group:00000000 wm4.evisionapiawb.h.17.5489e68872ddcbc286f4e12340a97515
                           .group:00000000 wm4.syslimits.h.34.de5cbd310098bc5895998b6bde577ed2
                           .group:00000000 wm4.limits.h.9.70fb0ada6f71b16202a66baaa6d8ea70
                           .group:00000000 wm4.limits.h.60.56a1ae353e2028a24298ec6463b8b593

UNDEFINED SYMBOLS
ISP_SVC_IQParam_Get
ISP_SVC_Misc_GetMainFrameId
ISP_SVC_ISP_GetBadPixel
ISP_SVC_ISP_SetBadPixel
evision_api_st_ae_delete
evision_api_st_ae_new
evision_api_st_ae_init
ISP_SVC_Sensor_SetExposure
ISP_SVC_Sensor_SetGain
printf
puts
ISP_SVC_Stats_GetNext
ISP_SVC_Sensor_GetGain
ISP_SVC_Sensor_GetExposure
evision_api_st_ae_process
evision_api_awb_new
evision_api_awb_delete
ISP_SVC_Misc_IsGammaEnabled
pow
__aeabi_uldivmod
__aeabi_ldivmod
ISP_SVC_ISP_GetGain
ISP_SVC_ISP_GetBlackLevel
ISP_SVC_ISP_GetColorConv
evision_api_awb_set_profile
evision_api_awb_init_profiles
evision_api_awb_run_average
ISP_SVC_ISP_SetColorConv
ISP_SVC_ISP_SetGain
