ARM GAS  C:\Users\Antonio\AppData\Local\Temp\ccF6VN3M.s 			page 1


   1              		.arch armv8.1-m.main
   2              		.fpu fpv5-d16
   3              		.arch_extension dsp
   4              		.arch_extension fp
   5              		.arch_extension fp.dp
   6              		.arch_extension mve
   7              		.arch_extension mve.fp
   8              		.eabi_attribute 5, "cortex-m55"
   9              		.eabi_attribute 28, 1
  10              		.eabi_attribute 20, 1
  11              		.eabi_attribute 21, 1
  12              		.eabi_attribute 23, 3
  13              		.eabi_attribute 24, 1
  14              		.eabi_attribute 25, 1
  15              		.eabi_attribute 26, 1
  16              		.eabi_attribute 30, 4
  17              		.eabi_attribute 34, 1
  18              		.eabi_attribute 38, 1
  19              		.eabi_attribute 18, 4
  20              		.file	"isp_services.c"
  21              		.text
  22              	.Ltext0:
  23              		.cfi_sections	.debug_frame
  24              		.file 1 "../../Middlewares/Camera_Middleware/ISP_Library/isp/Src/isp_services.c"
  25              		.section	.text.GetAvgStats,"ax",%progbits
  26              		.align	1
  27              		.syntax unified
  28              		.thumb
  29              		.thumb_func
  31              	GetAvgStats:
  32              	.LVL0:
  33              	.LFB842:
   1:../../Middlewares/Camera_Middleware/ISP_Library/isp/Src/isp_services.c **** /**
   2:../../Middlewares/Camera_Middleware/ISP_Library/isp/Src/isp_services.c ****  ******************************************************************************
   3:../../Middlewares/Camera_Middleware/ISP_Library/isp/Src/isp_services.c ****  * @file    isp_services.c
   4:../../Middlewares/Camera_Middleware/ISP_Library/isp/Src/isp_services.c ****  * @author  AIS Application Team
   5:../../Middlewares/Camera_Middleware/ISP_Library/isp/Src/isp_services.c ****  * @brief   Services of the ISP middleware
   6:../../Middlewares/Camera_Middleware/ISP_Library/isp/Src/isp_services.c ****  ******************************************************************************
   7:../../Middlewares/Camera_Middleware/ISP_Library/isp/Src/isp_services.c ****  * @attention
   8:../../Middlewares/Camera_Middleware/ISP_Library/isp/Src/isp_services.c ****  *
   9:../../Middlewares/Camera_Middleware/ISP_Library/isp/Src/isp_services.c ****  * Copyright (c) 2023 STMicroelectronics.
  10:../../Middlewares/Camera_Middleware/ISP_Library/isp/Src/isp_services.c ****  * All rights reserved.
  11:../../Middlewares/Camera_Middleware/ISP_Library/isp/Src/isp_services.c ****  *
  12:../../Middlewares/Camera_Middleware/ISP_Library/isp/Src/isp_services.c ****  * This software is licensed under terms that can be found in the LICENSE file
  13:../../Middlewares/Camera_Middleware/ISP_Library/isp/Src/isp_services.c ****  * in the root directory of this software component.
  14:../../Middlewares/Camera_Middleware/ISP_Library/isp/Src/isp_services.c ****  * If no LICENSE file comes with this software, it is provided AS-IS.
  15:../../Middlewares/Camera_Middleware/ISP_Library/isp/Src/isp_services.c ****  *
  16:../../Middlewares/Camera_Middleware/ISP_Library/isp/Src/isp_services.c ****  ******************************************************************************
  17:../../Middlewares/Camera_Middleware/ISP_Library/isp/Src/isp_services.c ****  */
  18:../../Middlewares/Camera_Middleware/ISP_Library/isp/Src/isp_services.c **** 
  19:../../Middlewares/Camera_Middleware/ISP_Library/isp/Src/isp_services.c **** /* Includes ------------------------------------------------------------------*/
  20:../../Middlewares/Camera_Middleware/ISP_Library/isp/Src/isp_services.c **** #include "isp_core.h"
  21:../../Middlewares/Camera_Middleware/ISP_Library/isp/Src/isp_services.c **** #include "isp_services.h"
  22:../../Middlewares/Camera_Middleware/ISP_Library/isp/Src/isp_services.c **** #ifdef ISP_MW_TUNING_TOOL_SUPPORT
  23:../../Middlewares/Camera_Middleware/ISP_Library/isp/Src/isp_services.c **** #include "isp_cmd_parser.h"
  24:../../Middlewares/Camera_Middleware/ISP_Library/isp/Src/isp_services.c **** #endif
  25:../../Middlewares/Camera_Middleware/ISP_Library/isp/Src/isp_services.c **** 
ARM GAS  C:\Users\Antonio\AppData\Local\Temp\ccF6VN3M.s 			page 2


  26:../../Middlewares/Camera_Middleware/ISP_Library/isp/Src/isp_services.c **** /* Private types -------------------------------------------------------------*/
  27:../../Middlewares/Camera_Middleware/ISP_Library/isp/Src/isp_services.c **** typedef enum {
  28:../../Middlewares/Camera_Middleware/ISP_Library/isp/Src/isp_services.c ****   ISP_STAT_CFG_UP_AVG = 0,      /* Configure @Up   for average    */
  29:../../Middlewares/Camera_Middleware/ISP_Library/isp/Src/isp_services.c ****   ISP_STAT_CFG_UP_BINS_0_2,     /* Configure @Up   for bins[0:2]  */
  30:../../Middlewares/Camera_Middleware/ISP_Library/isp/Src/isp_services.c ****   ISP_STAT_CFG_UP_BINS_3_5,     /* Configure @Up   for bins[3:5]  */
  31:../../Middlewares/Camera_Middleware/ISP_Library/isp/Src/isp_services.c ****   ISP_STAT_CFG_UP_BINS_6_8,     /* Configure @Up   for bins[6:8]  */
  32:../../Middlewares/Camera_Middleware/ISP_Library/isp/Src/isp_services.c ****   ISP_STAT_CFG_UP_BINS_9_11,    /* Configure @Up   for bins[9:11] */
  33:../../Middlewares/Camera_Middleware/ISP_Library/isp/Src/isp_services.c ****   ISP_STAT_CFG_DOWN_AVG,        /* Configure @Down for average    */
  34:../../Middlewares/Camera_Middleware/ISP_Library/isp/Src/isp_services.c ****   ISP_STAT_CFG_DOWN_BINS_0_2,   /* Configure @Down for bins[0:2]  */
  35:../../Middlewares/Camera_Middleware/ISP_Library/isp/Src/isp_services.c ****   ISP_STAT_CFG_DOWN_BINS_3_5,   /* Configure @Down for bins[3:5]  */
  36:../../Middlewares/Camera_Middleware/ISP_Library/isp/Src/isp_services.c ****   ISP_STAT_CFG_DOWN_BINS_6_8,   /* Configure @Down for bins[6:8]  */
  37:../../Middlewares/Camera_Middleware/ISP_Library/isp/Src/isp_services.c ****   ISP_STAT_CFG_DOWN_BINS_9_11,  /* Configure @Down for bins[9:11] */
  38:../../Middlewares/Camera_Middleware/ISP_Library/isp/Src/isp_services.c ****   ISP_STAT_CFG_LAST = ISP_STAT_CFG_DOWN_BINS_9_11,
  39:../../Middlewares/Camera_Middleware/ISP_Library/isp/Src/isp_services.c ****   ISP_STAT_CFG_CYCLE_SIZE,
  40:../../Middlewares/Camera_Middleware/ISP_Library/isp/Src/isp_services.c **** } ISP_SVC_StatEngineStage;
  41:../../Middlewares/Camera_Middleware/ISP_Library/isp/Src/isp_services.c **** 
  42:../../Middlewares/Camera_Middleware/ISP_Library/isp/Src/isp_services.c **** typedef enum {
  43:../../Middlewares/Camera_Middleware/ISP_Library/isp/Src/isp_services.c ****   ISP_RED,
  44:../../Middlewares/Camera_Middleware/ISP_Library/isp/Src/isp_services.c ****   ISP_GREEN,
  45:../../Middlewares/Camera_Middleware/ISP_Library/isp/Src/isp_services.c ****   ISP_BLUE,
  46:../../Middlewares/Camera_Middleware/ISP_Library/isp/Src/isp_services.c **** } ISP_SVC_Component;
  47:../../Middlewares/Camera_Middleware/ISP_Library/isp/Src/isp_services.c **** 
  48:../../Middlewares/Camera_Middleware/ISP_Library/isp/Src/isp_services.c **** typedef struct {
  49:../../Middlewares/Camera_Middleware/ISP_Library/isp/Src/isp_services.c ****   ISP_stat_ready_cb callback;           /* Callback to inform that stats are ready */
  50:../../Middlewares/Camera_Middleware/ISP_Library/isp/Src/isp_services.c ****   ISP_AlgoTypeDef *pAlgo;               /* Callback context parameter */
  51:../../Middlewares/Camera_Middleware/ISP_Library/isp/Src/isp_services.c ****   ISP_SVC_StatStateTypeDef *pStats;     /* Output statistics */
  52:../../Middlewares/Camera_Middleware/ISP_Library/isp/Src/isp_services.c ****   uint32_t refFrameId;                  /* Frame reference for which stats are requested */
  53:../../Middlewares/Camera_Middleware/ISP_Library/isp/Src/isp_services.c ****   ISP_SVC_StatLocation location;        /* Location where stats are requested */
  54:../../Middlewares/Camera_Middleware/ISP_Library/isp/Src/isp_services.c ****   ISP_SVC_StatType type;                /* Type of requested stats */
  55:../../Middlewares/Camera_Middleware/ISP_Library/isp/Src/isp_services.c **** } ISP_SVC_StatRegisteredClient;
  56:../../Middlewares/Camera_Middleware/ISP_Library/isp/Src/isp_services.c **** 
  57:../../Middlewares/Camera_Middleware/ISP_Library/isp/Src/isp_services.c **** #define ISP_SVC_STAT_MAX_CB       (5U)
  58:../../Middlewares/Camera_Middleware/ISP_Library/isp/Src/isp_services.c **** typedef struct {
  59:../../Middlewares/Camera_Middleware/ISP_Library/isp/Src/isp_services.c ****   ISP_SVC_StatEngineStage stage;        /* Internal processing stage */
  60:../../Middlewares/Camera_Middleware/ISP_Library/isp/Src/isp_services.c ****   ISP_SVC_StatStateTypeDef last;        /* Last available statistics */
  61:../../Middlewares/Camera_Middleware/ISP_Library/isp/Src/isp_services.c ****   ISP_SVC_StatStateTypeDef ongoing;     /* Statistics being updated */
  62:../../Middlewares/Camera_Middleware/ISP_Library/isp/Src/isp_services.c ****   ISP_SVC_StatRegisteredClient client[ISP_SVC_STAT_MAX_CB]; /* Client waiting for stats */
  63:../../Middlewares/Camera_Middleware/ISP_Library/isp/Src/isp_services.c ****   ISP_SVC_StatType upRequest;           /* Type of statistics request at Up location */
  64:../../Middlewares/Camera_Middleware/ISP_Library/isp/Src/isp_services.c ****   ISP_SVC_StatType downRequest;         /* Type of statistics request at Down location */
  65:../../Middlewares/Camera_Middleware/ISP_Library/isp/Src/isp_services.c ****   uint32_t requestAllCounter;           /* Counter for the temporary "request all stats" mode */
  66:../../Middlewares/Camera_Middleware/ISP_Library/isp/Src/isp_services.c **** } ISP_SVC_StatEngineTypeDef;
  67:../../Middlewares/Camera_Middleware/ISP_Library/isp/Src/isp_services.c **** 
  68:../../Middlewares/Camera_Middleware/ISP_Library/isp/Src/isp_services.c **** /* Private constants ---------------------------------------------------------*/
  69:../../Middlewares/Camera_Middleware/ISP_Library/isp/Src/isp_services.c **** #define ISP_SVC_CONFIG_ORDER_RGB      0
  70:../../Middlewares/Camera_Middleware/ISP_Library/isp/Src/isp_services.c **** #define ISP_SVC_CONFIG_ORDER_BGR      1
  71:../../Middlewares/Camera_Middleware/ISP_Library/isp/Src/isp_services.c **** 
  72:../../Middlewares/Camera_Middleware/ISP_Library/isp/Src/isp_services.c **** #define ISP_SVC_CONFIG_DEVICE_N6      0x00000000
  73:../../Middlewares/Camera_Middleware/ISP_Library/isp/Src/isp_services.c **** #define ISP_SVC_CONFIG_DEVICE_MP25    0x00000001
  74:../../Middlewares/Camera_Middleware/ISP_Library/isp/Src/isp_services.c **** #define ISP_SVC_CONFIG_DEVICE_UNKNOWN 0xFFFFFFFF
  75:../../Middlewares/Camera_Middleware/ISP_Library/isp/Src/isp_services.c **** 
  76:../../Middlewares/Camera_Middleware/ISP_Library/isp/Src/isp_services.c **** /* Private macro -------------------------------------------------------------*/
  77:../../Middlewares/Camera_Middleware/ISP_Library/isp/Src/isp_services.c **** /* Private function prototypes -----------------------------------------------*/
  78:../../Middlewares/Camera_Middleware/ISP_Library/isp/Src/isp_services.c **** static void To_Shift_Multiplier(uint32_t Factor, uint8_t *pShift, uint8_t *pMultiplier);
  79:../../Middlewares/Camera_Middleware/ISP_Library/isp/Src/isp_services.c **** static uint32_t From_Shift_Multiplier(uint8_t Shift, uint8_t Multiplier);
  80:../../Middlewares/Camera_Middleware/ISP_Library/isp/Src/isp_services.c **** static int16_t To_CConv_Reg(int32_t Coeff);
  81:../../Middlewares/Camera_Middleware/ISP_Library/isp/Src/isp_services.c **** static int32_t From_CConv_Reg(int16_t Reg);
  82:../../Middlewares/Camera_Middleware/ISP_Library/isp/Src/isp_services.c **** 
ARM GAS  C:\Users\Antonio\AppData\Local\Temp\ccF6VN3M.s 			page 3


  83:../../Middlewares/Camera_Middleware/ISP_Library/isp/Src/isp_services.c **** /* Private variables ---------------------------------------------------------*/
  84:../../Middlewares/Camera_Middleware/ISP_Library/isp/Src/isp_services.c **** static uint32_t ISP_ManualWBRefColorTemp = 0;
  85:../../Middlewares/Camera_Middleware/ISP_Library/isp/Src/isp_services.c **** static ISP_DecimationTypeDef ISP_DecimationValue = {ISP_DECIM_FACTOR_1};
  86:../../Middlewares/Camera_Middleware/ISP_Library/isp/Src/isp_services.c **** static ISP_IQParamTypeDef ISP_IQParamCache;
  87:../../Middlewares/Camera_Middleware/ISP_Library/isp/Src/isp_services.c **** static ISP_SVC_StatEngineTypeDef ISP_SVC_StatEngine;
  88:../../Middlewares/Camera_Middleware/ISP_Library/isp/Src/isp_services.c **** static bool ISP_SensorDelayMeasureRun;
  89:../../Middlewares/Camera_Middleware/ISP_Library/isp/Src/isp_services.c **** 
  90:../../Middlewares/Camera_Middleware/ISP_Library/isp/Src/isp_services.c **** static const uint32_t avgRGBUp[] = {
  91:../../Middlewares/Camera_Middleware/ISP_Library/isp/Src/isp_services.c ****     DCMIPP_STAT_EXT_SOURCE_PRE_BLKLVL_R, DCMIPP_STAT_EXT_SOURCE_PRE_BLKLVL_G, DCMIPP_STAT_EXT_SOURC
  92:../../Middlewares/Camera_Middleware/ISP_Library/isp/Src/isp_services.c **** };
  93:../../Middlewares/Camera_Middleware/ISP_Library/isp/Src/isp_services.c **** 
  94:../../Middlewares/Camera_Middleware/ISP_Library/isp/Src/isp_services.c **** static const uint32_t avgRGBDown[] = {
  95:../../Middlewares/Camera_Middleware/ISP_Library/isp/Src/isp_services.c ****     DCMIPP_STAT_EXT_SOURCE_POST_DEMOS_R, DCMIPP_STAT_EXT_SOURCE_POST_DEMOS_G, DCMIPP_STAT_EXT_SOURC
  96:../../Middlewares/Camera_Middleware/ISP_Library/isp/Src/isp_services.c **** };
  97:../../Middlewares/Camera_Middleware/ISP_Library/isp/Src/isp_services.c **** 
  98:../../Middlewares/Camera_Middleware/ISP_Library/isp/Src/isp_services.c **** static const DCMIPP_StatisticExtractionConfTypeDef statConfUpBins_0_2 = {
  99:../../Middlewares/Camera_Middleware/ISP_Library/isp/Src/isp_services.c ****     .Mode = DCMIPP_STAT_EXT_MODE_BINS,
 100:../../Middlewares/Camera_Middleware/ISP_Library/isp/Src/isp_services.c ****     .Source = DCMIPP_STAT_EXT_SOURCE_PRE_BLKLVL_L,
 101:../../Middlewares/Camera_Middleware/ISP_Library/isp/Src/isp_services.c ****     .Bins = DCMIPP_STAT_EXT_BINS_MODE_LOWER_BINS
 102:../../Middlewares/Camera_Middleware/ISP_Library/isp/Src/isp_services.c **** };
 103:../../Middlewares/Camera_Middleware/ISP_Library/isp/Src/isp_services.c **** 
 104:../../Middlewares/Camera_Middleware/ISP_Library/isp/Src/isp_services.c **** static const DCMIPP_StatisticExtractionConfTypeDef statConfUpBins_3_5 = {
 105:../../Middlewares/Camera_Middleware/ISP_Library/isp/Src/isp_services.c ****     .Mode = DCMIPP_STAT_EXT_MODE_BINS,
 106:../../Middlewares/Camera_Middleware/ISP_Library/isp/Src/isp_services.c ****     .Source = DCMIPP_STAT_EXT_SOURCE_PRE_BLKLVL_L,
 107:../../Middlewares/Camera_Middleware/ISP_Library/isp/Src/isp_services.c ****     .Bins = DCMIPP_STAT_EXT_BINS_MODE_LOWMID_BINS
 108:../../Middlewares/Camera_Middleware/ISP_Library/isp/Src/isp_services.c **** };
 109:../../Middlewares/Camera_Middleware/ISP_Library/isp/Src/isp_services.c **** 
 110:../../Middlewares/Camera_Middleware/ISP_Library/isp/Src/isp_services.c **** static const DCMIPP_StatisticExtractionConfTypeDef statConfUpBins_6_8 = {
 111:../../Middlewares/Camera_Middleware/ISP_Library/isp/Src/isp_services.c ****     .Mode = DCMIPP_STAT_EXT_MODE_BINS,
 112:../../Middlewares/Camera_Middleware/ISP_Library/isp/Src/isp_services.c ****     .Source = DCMIPP_STAT_EXT_SOURCE_PRE_BLKLVL_L,
 113:../../Middlewares/Camera_Middleware/ISP_Library/isp/Src/isp_services.c ****     .Bins = DCMIPP_STAT_EXT_BINS_MODE_UPMID_BINS
 114:../../Middlewares/Camera_Middleware/ISP_Library/isp/Src/isp_services.c **** };
 115:../../Middlewares/Camera_Middleware/ISP_Library/isp/Src/isp_services.c **** 
 116:../../Middlewares/Camera_Middleware/ISP_Library/isp/Src/isp_services.c **** static const DCMIPP_StatisticExtractionConfTypeDef statConfUpBins_9_11 = {
 117:../../Middlewares/Camera_Middleware/ISP_Library/isp/Src/isp_services.c ****     .Mode = DCMIPP_STAT_EXT_MODE_BINS,
 118:../../Middlewares/Camera_Middleware/ISP_Library/isp/Src/isp_services.c ****     .Source = DCMIPP_STAT_EXT_SOURCE_PRE_BLKLVL_L,
 119:../../Middlewares/Camera_Middleware/ISP_Library/isp/Src/isp_services.c ****     .Bins = DCMIPP_STAT_EXT_BINS_MODE_UP_BINS
 120:../../Middlewares/Camera_Middleware/ISP_Library/isp/Src/isp_services.c **** };
 121:../../Middlewares/Camera_Middleware/ISP_Library/isp/Src/isp_services.c **** 
 122:../../Middlewares/Camera_Middleware/ISP_Library/isp/Src/isp_services.c **** static const DCMIPP_StatisticExtractionConfTypeDef statConfDownBins_0_2 = {
 123:../../Middlewares/Camera_Middleware/ISP_Library/isp/Src/isp_services.c ****     .Mode = DCMIPP_STAT_EXT_MODE_BINS,
 124:../../Middlewares/Camera_Middleware/ISP_Library/isp/Src/isp_services.c ****     .Source = DCMIPP_STAT_EXT_SOURCE_POST_DEMOS_L,
 125:../../Middlewares/Camera_Middleware/ISP_Library/isp/Src/isp_services.c ****     .Bins = DCMIPP_STAT_EXT_BINS_MODE_LOWER_BINS
 126:../../Middlewares/Camera_Middleware/ISP_Library/isp/Src/isp_services.c **** };
 127:../../Middlewares/Camera_Middleware/ISP_Library/isp/Src/isp_services.c **** 
 128:../../Middlewares/Camera_Middleware/ISP_Library/isp/Src/isp_services.c **** static const DCMIPP_StatisticExtractionConfTypeDef statConfDownBins_3_5 = {
 129:../../Middlewares/Camera_Middleware/ISP_Library/isp/Src/isp_services.c ****     .Mode = DCMIPP_STAT_EXT_MODE_BINS,
 130:../../Middlewares/Camera_Middleware/ISP_Library/isp/Src/isp_services.c ****     .Source = DCMIPP_STAT_EXT_SOURCE_POST_DEMOS_L,
 131:../../Middlewares/Camera_Middleware/ISP_Library/isp/Src/isp_services.c ****     .Bins = DCMIPP_STAT_EXT_BINS_MODE_LOWMID_BINS
 132:../../Middlewares/Camera_Middleware/ISP_Library/isp/Src/isp_services.c **** };
 133:../../Middlewares/Camera_Middleware/ISP_Library/isp/Src/isp_services.c **** 
 134:../../Middlewares/Camera_Middleware/ISP_Library/isp/Src/isp_services.c **** static const DCMIPP_StatisticExtractionConfTypeDef statConfDownBins_6_8 = {
 135:../../Middlewares/Camera_Middleware/ISP_Library/isp/Src/isp_services.c ****     .Mode = DCMIPP_STAT_EXT_MODE_BINS,
 136:../../Middlewares/Camera_Middleware/ISP_Library/isp/Src/isp_services.c ****     .Source = DCMIPP_STAT_EXT_SOURCE_POST_DEMOS_L,
 137:../../Middlewares/Camera_Middleware/ISP_Library/isp/Src/isp_services.c ****     .Bins = DCMIPP_STAT_EXT_BINS_MODE_UPMID_BINS
 138:../../Middlewares/Camera_Middleware/ISP_Library/isp/Src/isp_services.c **** };
 139:../../Middlewares/Camera_Middleware/ISP_Library/isp/Src/isp_services.c **** 
ARM GAS  C:\Users\Antonio\AppData\Local\Temp\ccF6VN3M.s 			page 4


 140:../../Middlewares/Camera_Middleware/ISP_Library/isp/Src/isp_services.c **** static const DCMIPP_StatisticExtractionConfTypeDef statConfDownBins_9_11 = {
 141:../../Middlewares/Camera_Middleware/ISP_Library/isp/Src/isp_services.c ****     .Mode = DCMIPP_STAT_EXT_MODE_BINS,
 142:../../Middlewares/Camera_Middleware/ISP_Library/isp/Src/isp_services.c ****     .Source = DCMIPP_STAT_EXT_SOURCE_POST_DEMOS_L,
 143:../../Middlewares/Camera_Middleware/ISP_Library/isp/Src/isp_services.c ****     .Bins = DCMIPP_STAT_EXT_BINS_MODE_UP_BINS
 144:../../Middlewares/Camera_Middleware/ISP_Library/isp/Src/isp_services.c **** };
 145:../../Middlewares/Camera_Middleware/ISP_Library/isp/Src/isp_services.c **** 
 146:../../Middlewares/Camera_Middleware/ISP_Library/isp/Src/isp_services.c **** /* Exported variables --------------------------------------------------------*/
 147:../../Middlewares/Camera_Middleware/ISP_Library/isp/Src/isp_services.c **** extern ISP_MetaTypeDef Meta;
 148:../../Middlewares/Camera_Middleware/ISP_Library/isp/Src/isp_services.c **** 
 149:../../Middlewares/Camera_Middleware/ISP_Library/isp/Src/isp_services.c **** /* Private functions ---------------------------------------------------------*/
 150:../../Middlewares/Camera_Middleware/ISP_Library/isp/Src/isp_services.c **** static void To_Shift_Multiplier(uint32_t Factor, uint8_t *pShift, uint8_t *pMultiplier)
 151:../../Middlewares/Camera_Middleware/ISP_Library/isp/Src/isp_services.c **** {
 152:../../Middlewares/Camera_Middleware/ISP_Library/isp/Src/isp_services.c ****   /* Convert Factor (Unit = 100000000 for "x1.0") to Multiplier (where 128 means "x1.0") */
 153:../../Middlewares/Camera_Middleware/ISP_Library/isp/Src/isp_services.c ****   uint64_t Val = Factor;
 154:../../Middlewares/Camera_Middleware/ISP_Library/isp/Src/isp_services.c ****   Val = (Val * 128) / ISP_GAIN_PRECISION_FACTOR;
 155:../../Middlewares/Camera_Middleware/ISP_Library/isp/Src/isp_services.c **** 
 156:../../Middlewares/Camera_Middleware/ISP_Library/isp/Src/isp_services.c ****   /* Get Shift + Multiplier where Multiplier < 256 */
 157:../../Middlewares/Camera_Middleware/ISP_Library/isp/Src/isp_services.c ****   *pShift = 0;
 158:../../Middlewares/Camera_Middleware/ISP_Library/isp/Src/isp_services.c ****   while (Val >= 256)
 159:../../Middlewares/Camera_Middleware/ISP_Library/isp/Src/isp_services.c ****   {
 160:../../Middlewares/Camera_Middleware/ISP_Library/isp/Src/isp_services.c ****     Val /= 2;
 161:../../Middlewares/Camera_Middleware/ISP_Library/isp/Src/isp_services.c ****     (*pShift)++;
 162:../../Middlewares/Camera_Middleware/ISP_Library/isp/Src/isp_services.c ****   }
 163:../../Middlewares/Camera_Middleware/ISP_Library/isp/Src/isp_services.c **** 
 164:../../Middlewares/Camera_Middleware/ISP_Library/isp/Src/isp_services.c ****   *pMultiplier = Val;
 165:../../Middlewares/Camera_Middleware/ISP_Library/isp/Src/isp_services.c **** }
 166:../../Middlewares/Camera_Middleware/ISP_Library/isp/Src/isp_services.c **** 
 167:../../Middlewares/Camera_Middleware/ISP_Library/isp/Src/isp_services.c **** static uint32_t From_Shift_Multiplier(uint8_t Shift, uint8_t Multiplier)
 168:../../Middlewares/Camera_Middleware/ISP_Library/isp/Src/isp_services.c **** {
 169:../../Middlewares/Camera_Middleware/ISP_Library/isp/Src/isp_services.c ****   /* Convert Shift + Multiplier to Factor (Unit = 100000000 for "x1.0") */
 170:../../Middlewares/Camera_Middleware/ISP_Library/isp/Src/isp_services.c ****   uint64_t Val = (1 << Shift);
 171:../../Middlewares/Camera_Middleware/ISP_Library/isp/Src/isp_services.c ****   Val = (Val * Multiplier * ISP_GAIN_PRECISION_FACTOR) / 128;
 172:../../Middlewares/Camera_Middleware/ISP_Library/isp/Src/isp_services.c ****   return (uint32_t) Val;
 173:../../Middlewares/Camera_Middleware/ISP_Library/isp/Src/isp_services.c **** }
 174:../../Middlewares/Camera_Middleware/ISP_Library/isp/Src/isp_services.c **** 
 175:../../Middlewares/Camera_Middleware/ISP_Library/isp/Src/isp_services.c **** static int16_t To_CConv_Reg(int32_t Coeff)
 176:../../Middlewares/Camera_Middleware/ISP_Library/isp/Src/isp_services.c **** {
 177:../../Middlewares/Camera_Middleware/ISP_Library/isp/Src/isp_services.c ****   /* Convert Coefficient (Unit = 100000000 for "x1.0") to register format */
 178:../../Middlewares/Camera_Middleware/ISP_Library/isp/Src/isp_services.c ****   int64_t Val = Coeff;
 179:../../Middlewares/Camera_Middleware/ISP_Library/isp/Src/isp_services.c **** 
 180:../../Middlewares/Camera_Middleware/ISP_Library/isp/Src/isp_services.c ****   Val = (Val * 256) / ISP_CCM_PRECISION_FACTOR;
 181:../../Middlewares/Camera_Middleware/ISP_Library/isp/Src/isp_services.c **** 
 182:../../Middlewares/Camera_Middleware/ISP_Library/isp/Src/isp_services.c ****   return (int16_t) Val;
 183:../../Middlewares/Camera_Middleware/ISP_Library/isp/Src/isp_services.c **** }
 184:../../Middlewares/Camera_Middleware/ISP_Library/isp/Src/isp_services.c **** 
 185:../../Middlewares/Camera_Middleware/ISP_Library/isp/Src/isp_services.c **** static int32_t From_CConv_Reg(int16_t Reg)
 186:../../Middlewares/Camera_Middleware/ISP_Library/isp/Src/isp_services.c **** {
 187:../../Middlewares/Camera_Middleware/ISP_Library/isp/Src/isp_services.c ****   /* Convert from register format to Coefficient (Unit = 100000000 for "x1.0") */
 188:../../Middlewares/Camera_Middleware/ISP_Library/isp/Src/isp_services.c ****   int64_t Val = Reg;
 189:../../Middlewares/Camera_Middleware/ISP_Library/isp/Src/isp_services.c **** 
 190:../../Middlewares/Camera_Middleware/ISP_Library/isp/Src/isp_services.c ****   Val = (Val * ISP_CCM_PRECISION_FACTOR) / 256;
 191:../../Middlewares/Camera_Middleware/ISP_Library/isp/Src/isp_services.c **** 
 192:../../Middlewares/Camera_Middleware/ISP_Library/isp/Src/isp_services.c ****   return (int32_t) Val;
 193:../../Middlewares/Camera_Middleware/ISP_Library/isp/Src/isp_services.c **** }
 194:../../Middlewares/Camera_Middleware/ISP_Library/isp/Src/isp_services.c **** 
 195:../../Middlewares/Camera_Middleware/ISP_Library/isp/Src/isp_services.c **** static uint8_t GetAvgStats(ISP_HandleTypeDef *hIsp, ISP_SVC_StatLocation location, ISP_SVC_Componen
 196:../../Middlewares/Camera_Middleware/ISP_Library/isp/Src/isp_services.c **** {
ARM GAS  C:\Users\Antonio\AppData\Local\Temp\ccF6VN3M.s 			page 5


  34              		.loc 1 196 1 view -0
  35              		.cfi_startproc
  36              		@ args = 0, pretend = 0, frame = 0
  37              		@ frame_needed = 0, uses_anonymous_args = 0
 197:../../Middlewares/Camera_Middleware/ISP_Library/isp/Src/isp_services.c ****   uint32_t nb_comp_pix, comp_divider;
  38              		.loc 1 197 3 view .LVU1
 198:../../Middlewares/Camera_Middleware/ISP_Library/isp/Src/isp_services.c **** 
 199:../../Middlewares/Camera_Middleware/ISP_Library/isp/Src/isp_services.c ****   /* Number of pixels computed from Stat Area and considering decimation */
 200:../../Middlewares/Camera_Middleware/ISP_Library/isp/Src/isp_services.c ****   nb_comp_pix = hIsp->statArea.XSize * hIsp->statArea.YSize;
  39              		.loc 1 200 3 view .LVU2
 196:../../Middlewares/Camera_Middleware/ISP_Library/isp/Src/isp_services.c ****   uint32_t nb_comp_pix, comp_divider;
  40              		.loc 1 196 1 is_stmt 0 view .LVU3
  41 0000 10B5     		push	{r4, lr}
  42              		.cfi_def_cfa_offset 8
  43              		.cfi_offset 4, -8
  44              		.cfi_offset 14, -4
  45              		.loc 1 200 15 view .LVU4
  46 0002 D0E90440 		ldrd	r4, r0, [r0, #16]
  47              	.LVL1:
  48              		.loc 1 200 15 view .LVU5
  49 0006 6043     		muls	r0, r4, r0
  50              	.LVL2:
 201:../../Middlewares/Camera_Middleware/ISP_Library/isp/Src/isp_services.c ****   nb_comp_pix /= ISP_DecimationValue.factor * ISP_DecimationValue.factor;
  51              		.loc 1 201 3 is_stmt 1 view .LVU6
  52              		.loc 1 201 37 is_stmt 0 view .LVU7
  53 0008 0D4C     		ldr	r4, .L7
 202:../../Middlewares/Camera_Middleware/ISP_Library/isp/Src/isp_services.c **** 
 203:../../Middlewares/Camera_Middleware/ISP_Library/isp/Src/isp_services.c ****   if (location == ISP_STAT_LOC_DOWN)
  54              		.loc 1 203 6 view .LVU8
  55 000a 0229     		cmp	r1, #2
 201:../../Middlewares/Camera_Middleware/ISP_Library/isp/Src/isp_services.c ****   nb_comp_pix /= ISP_DecimationValue.factor * ISP_DecimationValue.factor;
  56              		.loc 1 201 37 view .LVU9
  57 000c 2478     		ldrb	r4, [r4]	@ zero_extendqisi2
 201:../../Middlewares/Camera_Middleware/ISP_Library/isp/Src/isp_services.c ****   nb_comp_pix /= ISP_DecimationValue.factor * ISP_DecimationValue.factor;
  58              		.loc 1 201 45 view .LVU10
  59 000e 04FB04F4 		mul	r4, r4, r4
 201:../../Middlewares/Camera_Middleware/ISP_Library/isp/Src/isp_services.c ****   nb_comp_pix /= ISP_DecimationValue.factor * ISP_DecimationValue.factor;
  60              		.loc 1 201 15 view .LVU11
  61 0012 B0FBF4F0 		udiv	r0, r0, r4
  62              	.LVL3:
  63              		.loc 1 203 3 is_stmt 1 view .LVU12
  64              		.loc 1 203 6 is_stmt 0 view .LVU13
  65 0016 10D0     		beq	.L4
 204:../../Middlewares/Camera_Middleware/ISP_Library/isp/Src/isp_services.c ****   {
 205:../../Middlewares/Camera_Middleware/ISP_Library/isp/Src/isp_services.c ****     /* RGB format after demosaicing : 1 component per pixel */
 206:../../Middlewares/Camera_Middleware/ISP_Library/isp/Src/isp_services.c ****     comp_divider = 1;
 207:../../Middlewares/Camera_Middleware/ISP_Library/isp/Src/isp_services.c ****   }
 208:../../Middlewares/Camera_Middleware/ISP_Library/isp/Src/isp_services.c ****   else
 209:../../Middlewares/Camera_Middleware/ISP_Library/isp/Src/isp_services.c ****   {
 210:../../Middlewares/Camera_Middleware/ISP_Library/isp/Src/isp_services.c ****     /* Only raw bayer sensor expected */
 211:../../Middlewares/Camera_Middleware/ISP_Library/isp/Src/isp_services.c ****     /* raw bayer: RGB component not present for all pixels */
 212:../../Middlewares/Camera_Middleware/ISP_Library/isp/Src/isp_services.c ****     comp_divider = (component == ISP_GREEN) ? 2 : 4;
  66              		.loc 1 212 5 is_stmt 1 view .LVU14
  67              		.loc 1 212 49 is_stmt 0 discriminator 1 view .LVU15
  68 0018 012A     		cmp	r2, #1
  69 001a 14BF     		ite	ne
  70 001c 0422     		movne	r2, #4
ARM GAS  C:\Users\Antonio\AppData\Local\Temp\ccF6VN3M.s 			page 6


  71              	.LVL4:
  72              		.loc 1 212 49 discriminator 1 view .LVU16
  73 001e 0222     		moveq	r2, #2
  74              	.L2:
  75              	.LVL5:
 213:../../Middlewares/Camera_Middleware/ISP_Library/isp/Src/isp_services.c ****   }
 214:../../Middlewares/Camera_Middleware/ISP_Library/isp/Src/isp_services.c **** 
 215:../../Middlewares/Camera_Middleware/ISP_Library/isp/Src/isp_services.c ****   /* Number of pixels per component */
 216:../../Middlewares/Camera_Middleware/ISP_Library/isp/Src/isp_services.c ****   nb_comp_pix /= comp_divider;
  76              		.loc 1 216 3 is_stmt 1 view .LVU17
 217:../../Middlewares/Camera_Middleware/ISP_Library/isp/Src/isp_services.c **** 
 218:../../Middlewares/Camera_Middleware/ISP_Library/isp/Src/isp_services.c ****   /* Compute average (rounding to closest integer) */
 219:../../Middlewares/Camera_Middleware/ISP_Library/isp/Src/isp_services.c ****   if (nb_comp_pix == 0)
  77              		.loc 1 219 3 view .LVU18
  78              		.loc 1 219 6 is_stmt 0 view .LVU19
  79 0020 8242     		cmp	r2, r0
 216:../../Middlewares/Camera_Middleware/ISP_Library/isp/Src/isp_services.c **** 
  80              		.loc 1 216 15 view .LVU20
  81 0022 9FBF     		itttt	ls
  82 0024 B0FBF2F0 		udivls	r0, r0, r2
  83              	.LVL6:
 220:../../Middlewares/Camera_Middleware/ISP_Library/isp/Src/isp_services.c ****   {
 221:../../Middlewares/Camera_Middleware/ISP_Library/isp/Src/isp_services.c ****     return 0;
 222:../../Middlewares/Camera_Middleware/ISP_Library/isp/Src/isp_services.c ****   }
 223:../../Middlewares/Camera_Middleware/ISP_Library/isp/Src/isp_services.c **** 
 224:../../Middlewares/Camera_Middleware/ISP_Library/isp/Src/isp_services.c ****   return ((accu * 256) + (nb_comp_pix / 2)) / nb_comp_pix;
  84              		.loc 1 224 3 is_stmt 1 view .LVU21
  85              		.loc 1 224 39 is_stmt 0 view .LVU22
  86 0028 4208     		lsrls	r2, r0, #1
  87              	.LVL7:
  88              		.loc 1 224 24 view .LVU23
  89 002a 02EB0323 		addls	r3, r2, r3, lsl #8
  90              	.LVL8:
  91              		.loc 1 224 45 view .LVU24
  92 002e B3FBF0F0 		udivls	r0, r3, r0
 221:../../Middlewares/Camera_Middleware/ISP_Library/isp/Src/isp_services.c ****   }
  93              		.loc 1 221 12 view .LVU25
  94 0032 8CBF     		ite	hi
  95 0034 0020     		movhi	r0, #0
  96              		.loc 1 224 45 view .LVU26
  97 0036 C0B2     		uxtbls	r0, r0
 225:../../Middlewares/Camera_Middleware/ISP_Library/isp/Src/isp_services.c **** }
  98              		.loc 1 225 1 view .LVU27
  99 0038 10BD     		pop	{r4, pc}
 100              	.LVL9:
 101              	.L4:
 206:../../Middlewares/Camera_Middleware/ISP_Library/isp/Src/isp_services.c ****   }
 102              		.loc 1 206 18 view .LVU28
 103 003a 0122     		movs	r2, #1
 104              	.LVL10:
 206:../../Middlewares/Camera_Middleware/ISP_Library/isp/Src/isp_services.c ****   }
 105              		.loc 1 206 18 view .LVU29
 106 003c F0E7     		b	.L2
 107              	.L8:
 108 003e 00BF     		.align	2
 109              	.L7:
 110 0040 00000000 		.word	ISP_DecimationValue
ARM GAS  C:\Users\Antonio\AppData\Local\Temp\ccF6VN3M.s 			page 7


 111              		.cfi_endproc
 112              	.LFE842:
 114              		.section	.text.SetStatConfig,"ax",%progbits
 115              		.align	1
 116              		.syntax unified
 117              		.thumb
 118              		.thumb_func
 120              	SetStatConfig:
 121              	.LVL11:
 122              	.LFB844:
 226:../../Middlewares/Camera_Middleware/ISP_Library/isp/Src/isp_services.c **** 
 227:../../Middlewares/Camera_Middleware/ISP_Library/isp/Src/isp_services.c **** static void ReadStatHistogram(ISP_HandleTypeDef *hIsp, uint32_t *histogram)
 228:../../Middlewares/Camera_Middleware/ISP_Library/isp/Src/isp_services.c **** {
 229:../../Middlewares/Camera_Middleware/ISP_Library/isp/Src/isp_services.c ****   for (uint32_t i = DCMIPP_STATEXT_MODULE1; i <= DCMIPP_STATEXT_MODULE3; i++)
 230:../../Middlewares/Camera_Middleware/ISP_Library/isp/Src/isp_services.c ****   {
 231:../../Middlewares/Camera_Middleware/ISP_Library/isp/Src/isp_services.c ****     HAL_DCMIPP_PIPE_GetISPAccumulatedStatisticsCounter(hIsp->hDcmipp, DCMIPP_PIPE1, i, &(histogram[
 232:../../Middlewares/Camera_Middleware/ISP_Library/isp/Src/isp_services.c ****   }
 233:../../Middlewares/Camera_Middleware/ISP_Library/isp/Src/isp_services.c **** }
 234:../../Middlewares/Camera_Middleware/ISP_Library/isp/Src/isp_services.c **** 
 235:../../Middlewares/Camera_Middleware/ISP_Library/isp/Src/isp_services.c **** static void SetStatConfig(DCMIPP_StatisticExtractionConfTypeDef *statConf, const DCMIPP_StatisticEx
 236:../../Middlewares/Camera_Middleware/ISP_Library/isp/Src/isp_services.c **** {
 123              		.loc 1 236 1 is_stmt 1 view -0
 124              		.cfi_startproc
 125              		@ args = 0, pretend = 0, frame = 0
 126              		@ frame_needed = 0, uses_anonymous_args = 0
 237:../../Middlewares/Camera_Middleware/ISP_Library/isp/Src/isp_services.c ****   for (int i = 0; i < 3; i++)
 127              		.loc 1 237 3 view .LVU31
 128              	.LBB58:
 129              		.loc 1 237 8 view .LVU32
 130              		.loc 1 237 21 discriminator 1 view .LVU33
 131              	.LBE58:
 236:../../Middlewares/Camera_Middleware/ISP_Library/isp/Src/isp_services.c ****   for (int i = 0; i < 3; i++)
 132              		.loc 1 236 1 is_stmt 0 view .LVU34
 133 0000 F0B5     		push	{r4, r5, r6, r7, lr}
 134              		.cfi_def_cfa_offset 20
 135              		.cfi_offset 4, -20
 136              		.cfi_offset 5, -16
 137              		.cfi_offset 6, -12
 138              		.cfi_offset 7, -8
 139              		.cfi_offset 14, -4
 236:../../Middlewares/Camera_Middleware/ISP_Library/isp/Src/isp_services.c ****   for (int i = 0; i < 3; i++)
 140              		.loc 1 236 1 view .LVU35
 141 0002 0B46     		mov	r3, r1
 142 0004 0646     		mov	r6, r0
 143              	.LBB59:
 144              		.loc 1 237 12 view .LVU36
 145 0006 0024     		movs	r4, #0
 238:../../Middlewares/Camera_Middleware/ISP_Library/isp/Src/isp_services.c ****   {
 239:../../Middlewares/Camera_Middleware/ISP_Library/isp/Src/isp_services.c ****     statConf[i] = *refConfig;
 146              		.loc 1 239 17 view .LVU37
 147 0008 0C27     		movs	r7, #12
 148              	.LVL12:
 149              	.L10:
 150              		.loc 1 239 5 is_stmt 1 view .LVU38
 151              		.loc 1 239 17 is_stmt 0 view .LVU39
 152 000a 93E80700 		ldm	r3, {r0, r1, r2}
 153 000e 07FB0465 		mla	r5, r7, r4, r6
ARM GAS  C:\Users\Antonio\AppData\Local\Temp\ccF6VN3M.s 			page 8


 237:../../Middlewares/Camera_Middleware/ISP_Library/isp/Src/isp_services.c ****   {
 154              		.loc 1 237 27 discriminator 3 view .LVU40
 155 0012 0134     		adds	r4, r4, #1
 156              	.LVL13:
 237:../../Middlewares/Camera_Middleware/ISP_Library/isp/Src/isp_services.c ****   {
 157              		.loc 1 237 21 discriminator 1 view .LVU41
 158 0014 032C     		cmp	r4, #3
 159              		.loc 1 239 17 view .LVU42
 160 0016 85E80700 		stm	r5, {r0, r1, r2}
 237:../../Middlewares/Camera_Middleware/ISP_Library/isp/Src/isp_services.c ****   {
 161              		.loc 1 237 27 is_stmt 1 discriminator 3 view .LVU43
 162              	.LVL14:
 237:../../Middlewares/Camera_Middleware/ISP_Library/isp/Src/isp_services.c ****   {
 163              		.loc 1 237 21 discriminator 1 view .LVU44
 164 001a F6D1     		bne	.L10
 165              	.LBE59:
 240:../../Middlewares/Camera_Middleware/ISP_Library/isp/Src/isp_services.c ****   }
 241:../../Middlewares/Camera_Middleware/ISP_Library/isp/Src/isp_services.c **** }
 166              		.loc 1 241 1 is_stmt 0 view .LVU45
 167 001c F0BD     		pop	{r4, r5, r6, r7, pc}
 168              		.loc 1 241 1 view .LVU46
 169              		.cfi_endproc
 170              	.LFE844:
 172              		.section	.text.ReadStatHistogram,"ax",%progbits
 173              		.align	1
 174              		.syntax unified
 175              		.thumb
 176              		.thumb_func
 178              	ReadStatHistogram:
 179              	.LVL15:
 180              	.LFB843:
 228:../../Middlewares/Camera_Middleware/ISP_Library/isp/Src/isp_services.c ****   for (uint32_t i = DCMIPP_STATEXT_MODULE1; i <= DCMIPP_STATEXT_MODULE3; i++)
 181              		.loc 1 228 1 is_stmt 1 view -0
 182              		.cfi_startproc
 183              		@ args = 0, pretend = 0, frame = 0
 184              		@ frame_needed = 0, uses_anonymous_args = 0
 229:../../Middlewares/Camera_Middleware/ISP_Library/isp/Src/isp_services.c ****   {
 185              		.loc 1 229 3 view .LVU48
 186              	.LBB60:
 229:../../Middlewares/Camera_Middleware/ISP_Library/isp/Src/isp_services.c ****   {
 187              		.loc 1 229 8 view .LVU49
 229:../../Middlewares/Camera_Middleware/ISP_Library/isp/Src/isp_services.c ****   {
 188              		.loc 1 229 47 discriminator 1 view .LVU50
 189              	.LBE60:
 228:../../Middlewares/Camera_Middleware/ISP_Library/isp/Src/isp_services.c ****   for (uint32_t i = DCMIPP_STATEXT_MODULE1; i <= DCMIPP_STATEXT_MODULE3; i++)
 190              		.loc 1 228 1 is_stmt 0 view .LVU51
 191 0000 70B5     		push	{r4, r5, r6, lr}
 192              		.cfi_def_cfa_offset 16
 193              		.cfi_offset 4, -16
 194              		.cfi_offset 5, -12
 195              		.cfi_offset 6, -8
 196              		.cfi_offset 14, -4
 228:../../Middlewares/Camera_Middleware/ISP_Library/isp/Src/isp_services.c ****   for (uint32_t i = DCMIPP_STATEXT_MODULE1; i <= DCMIPP_STATEXT_MODULE3; i++)
 197              		.loc 1 228 1 view .LVU52
 198 0002 0646     		mov	r6, r0
 199 0004 0C46     		mov	r4, r1
 200              	.LBB61:
ARM GAS  C:\Users\Antonio\AppData\Local\Temp\ccF6VN3M.s 			page 9


 229:../../Middlewares/Camera_Middleware/ISP_Library/isp/Src/isp_services.c ****   {
 201              		.loc 1 229 17 view .LVU53
 202 0006 0125     		movs	r5, #1
 203              	.LVL16:
 204              	.L13:
 231:../../Middlewares/Camera_Middleware/ISP_Library/isp/Src/isp_services.c ****   }
 205              		.loc 1 231 5 is_stmt 1 view .LVU54
 206 0008 2346     		mov	r3, r4
 207 000a EAB2     		uxtb	r2, r5
 208 000c 0121     		movs	r1, #1
 209 000e 3068     		ldr	r0, [r6]
 229:../../Middlewares/Camera_Middleware/ISP_Library/isp/Src/isp_services.c ****   {
 210              		.loc 1 229 75 is_stmt 0 discriminator 3 view .LVU55
 211 0010 0135     		adds	r5, r5, #1
 212              	.LVL17:
 231:../../Middlewares/Camera_Middleware/ISP_Library/isp/Src/isp_services.c ****   }
 213              		.loc 1 231 5 view .LVU56
 214 0012 FFF7FEFF 		bl	HAL_DCMIPP_PIPE_GetISPAccumulatedStatisticsCounter
 215              	.LVL18:
 229:../../Middlewares/Camera_Middleware/ISP_Library/isp/Src/isp_services.c ****   {
 216              		.loc 1 229 75 is_stmt 1 discriminator 3 view .LVU57
 229:../../Middlewares/Camera_Middleware/ISP_Library/isp/Src/isp_services.c ****   {
 217              		.loc 1 229 47 discriminator 1 view .LVU58
 218 0016 042D     		cmp	r5, #4
 219 0018 04F10404 		add	r4, r4, #4
 220 001c F4D1     		bne	.L13
 221              	.LBE61:
 233:../../Middlewares/Camera_Middleware/ISP_Library/isp/Src/isp_services.c **** 
 222              		.loc 1 233 1 is_stmt 0 view .LVU59
 223 001e 70BD     		pop	{r4, r5, r6, pc}
 233:../../Middlewares/Camera_Middleware/ISP_Library/isp/Src/isp_services.c **** 
 224              		.loc 1 233 1 view .LVU60
 225              		.cfi_endproc
 226              	.LFE843:
 228              		.section	.text.LuminanceFromRGB,"ax",%progbits
 229              		.align	1
 230              		.global	LuminanceFromRGB
 231              		.syntax unified
 232              		.thumb
 233              		.thumb_func
 235              	LuminanceFromRGB:
 236              	.LVL19:
 237              	.LFB848:
 242:../../Middlewares/Camera_Middleware/ISP_Library/isp/Src/isp_services.c **** 
 243:../../Middlewares/Camera_Middleware/ISP_Library/isp/Src/isp_services.c **** static ISP_SVC_StatEngineStage GetNextStatStage(ISP_SVC_StatEngineStage current)
 244:../../Middlewares/Camera_Middleware/ISP_Library/isp/Src/isp_services.c **** {
 245:../../Middlewares/Camera_Middleware/ISP_Library/isp/Src/isp_services.c ****   ISP_SVC_StatEngineStage next = ISP_STAT_CFG_LAST;
 246:../../Middlewares/Camera_Middleware/ISP_Library/isp/Src/isp_services.c **** 
 247:../../Middlewares/Camera_Middleware/ISP_Library/isp/Src/isp_services.c ****   /* Special mode for IQ tuning tool asking for all stats : go the the next step, no skip */
 248:../../Middlewares/Camera_Middleware/ISP_Library/isp/Src/isp_services.c ****   if ((ISP_SVC_StatEngine.upRequest & ISP_STAT_TYPE_ALL_TMP) ||
 249:../../Middlewares/Camera_Middleware/ISP_Library/isp/Src/isp_services.c ****       (ISP_SVC_StatEngine.downRequest & ISP_STAT_TYPE_ALL_TMP))
 250:../../Middlewares/Camera_Middleware/ISP_Library/isp/Src/isp_services.c ****   {
 251:../../Middlewares/Camera_Middleware/ISP_Library/isp/Src/isp_services.c ****     next = (ISP_SVC_StatEngineStage) ((current < ISP_STAT_CFG_LAST) ? current + 1 : ISP_STAT_CFG_UP
 252:../../Middlewares/Camera_Middleware/ISP_Library/isp/Src/isp_services.c ****     return next;
 253:../../Middlewares/Camera_Middleware/ISP_Library/isp/Src/isp_services.c ****   }
 254:../../Middlewares/Camera_Middleware/ISP_Library/isp/Src/isp_services.c **** 
 255:../../Middlewares/Camera_Middleware/ISP_Library/isp/Src/isp_services.c ****   /* Follow the below stage cycle, skipping steps where stats are not requested:
ARM GAS  C:\Users\Antonio\AppData\Local\Temp\ccF6VN3M.s 			page 10


 256:../../Middlewares/Camera_Middleware/ISP_Library/isp/Src/isp_services.c ****    * - ISP_STAT_CFG_UP_AVG
 257:../../Middlewares/Camera_Middleware/ISP_Library/isp/Src/isp_services.c ****    * - ISP_STAT_CFG_UP_BINS_0_2 + BINS_3_5 + BINS_6_8 + BINS_9_11
 258:../../Middlewares/Camera_Middleware/ISP_Library/isp/Src/isp_services.c ****    * - ISP_STAT_CFG_DOWN_AVG
 259:../../Middlewares/Camera_Middleware/ISP_Library/isp/Src/isp_services.c ****    * - ISP_STAT_CFG_DOWN_BINS_0_2 + BINS_3_5 + BINS_6_8 + BINS_9_11
 260:../../Middlewares/Camera_Middleware/ISP_Library/isp/Src/isp_services.c ****   */
 261:../../Middlewares/Camera_Middleware/ISP_Library/isp/Src/isp_services.c ****   switch (current)
 262:../../Middlewares/Camera_Middleware/ISP_Library/isp/Src/isp_services.c ****   {
 263:../../Middlewares/Camera_Middleware/ISP_Library/isp/Src/isp_services.c ****   case ISP_STAT_CFG_UP_AVG:
 264:../../Middlewares/Camera_Middleware/ISP_Library/isp/Src/isp_services.c ****     /* Try Up Bins */
 265:../../Middlewares/Camera_Middleware/ISP_Library/isp/Src/isp_services.c ****     if (ISP_SVC_StatEngine.upRequest & ISP_STAT_TYPE_BINS)
 266:../../Middlewares/Camera_Middleware/ISP_Library/isp/Src/isp_services.c ****     {
 267:../../Middlewares/Camera_Middleware/ISP_Library/isp/Src/isp_services.c ****       next = ISP_STAT_CFG_UP_BINS_0_2;
 268:../../Middlewares/Camera_Middleware/ISP_Library/isp/Src/isp_services.c ****     }
 269:../../Middlewares/Camera_Middleware/ISP_Library/isp/Src/isp_services.c ****     /* Skip Up Bins : try Down Avg */
 270:../../Middlewares/Camera_Middleware/ISP_Library/isp/Src/isp_services.c ****     else if (ISP_SVC_StatEngine.downRequest &  ISP_STAT_TYPE_AVG)
 271:../../Middlewares/Camera_Middleware/ISP_Library/isp/Src/isp_services.c ****     {
 272:../../Middlewares/Camera_Middleware/ISP_Library/isp/Src/isp_services.c ****       next = ISP_STAT_CFG_DOWN_AVG;
 273:../../Middlewares/Camera_Middleware/ISP_Library/isp/Src/isp_services.c ****     }
 274:../../Middlewares/Camera_Middleware/ISP_Library/isp/Src/isp_services.c ****     /* Skip Down Avg : try Down Bins */
 275:../../Middlewares/Camera_Middleware/ISP_Library/isp/Src/isp_services.c ****     else if (ISP_SVC_StatEngine.downRequest & ISP_STAT_TYPE_BINS)
 276:../../Middlewares/Camera_Middleware/ISP_Library/isp/Src/isp_services.c ****     {
 277:../../Middlewares/Camera_Middleware/ISP_Library/isp/Src/isp_services.c ****       next = ISP_STAT_CFG_DOWN_BINS_0_2;
 278:../../Middlewares/Camera_Middleware/ISP_Library/isp/Src/isp_services.c ****     }
 279:../../Middlewares/Camera_Middleware/ISP_Library/isp/Src/isp_services.c ****     /* Skip Down Bins : try Up Avg */
 280:../../Middlewares/Camera_Middleware/ISP_Library/isp/Src/isp_services.c ****     else if (ISP_SVC_StatEngine.upRequest & ISP_STAT_TYPE_AVG)
 281:../../Middlewares/Camera_Middleware/ISP_Library/isp/Src/isp_services.c ****     {
 282:../../Middlewares/Camera_Middleware/ISP_Library/isp/Src/isp_services.c ****       next = ISP_STAT_CFG_UP_AVG;
 283:../../Middlewares/Camera_Middleware/ISP_Library/isp/Src/isp_services.c ****     }
 284:../../Middlewares/Camera_Middleware/ISP_Library/isp/Src/isp_services.c ****     break;
 285:../../Middlewares/Camera_Middleware/ISP_Library/isp/Src/isp_services.c **** 
 286:../../Middlewares/Camera_Middleware/ISP_Library/isp/Src/isp_services.c ****   case ISP_STAT_CFG_UP_BINS_9_11:
 287:../../Middlewares/Camera_Middleware/ISP_Library/isp/Src/isp_services.c ****     /* Try Down Avg */
 288:../../Middlewares/Camera_Middleware/ISP_Library/isp/Src/isp_services.c ****     if (ISP_SVC_StatEngine.downRequest & ISP_STAT_TYPE_AVG)
 289:../../Middlewares/Camera_Middleware/ISP_Library/isp/Src/isp_services.c ****     {
 290:../../Middlewares/Camera_Middleware/ISP_Library/isp/Src/isp_services.c ****       next = ISP_STAT_CFG_DOWN_AVG;
 291:../../Middlewares/Camera_Middleware/ISP_Library/isp/Src/isp_services.c ****     }
 292:../../Middlewares/Camera_Middleware/ISP_Library/isp/Src/isp_services.c ****     /* Skip Down Avg : try Down Bins */
 293:../../Middlewares/Camera_Middleware/ISP_Library/isp/Src/isp_services.c ****     else if (ISP_SVC_StatEngine.downRequest & ISP_STAT_TYPE_BINS)
 294:../../Middlewares/Camera_Middleware/ISP_Library/isp/Src/isp_services.c ****     {
 295:../../Middlewares/Camera_Middleware/ISP_Library/isp/Src/isp_services.c ****       next = ISP_STAT_CFG_DOWN_BINS_0_2;
 296:../../Middlewares/Camera_Middleware/ISP_Library/isp/Src/isp_services.c ****     }
 297:../../Middlewares/Camera_Middleware/ISP_Library/isp/Src/isp_services.c ****     /* Skip Down Bins : try Up Avg */
 298:../../Middlewares/Camera_Middleware/ISP_Library/isp/Src/isp_services.c ****     else if (ISP_SVC_StatEngine.upRequest & ISP_STAT_TYPE_AVG)
 299:../../Middlewares/Camera_Middleware/ISP_Library/isp/Src/isp_services.c ****     {
 300:../../Middlewares/Camera_Middleware/ISP_Library/isp/Src/isp_services.c ****       next = ISP_STAT_CFG_UP_AVG;
 301:../../Middlewares/Camera_Middleware/ISP_Library/isp/Src/isp_services.c ****     }
 302:../../Middlewares/Camera_Middleware/ISP_Library/isp/Src/isp_services.c ****     /* Skip Up Avg : try on Up Bins */
 303:../../Middlewares/Camera_Middleware/ISP_Library/isp/Src/isp_services.c ****     else if (ISP_SVC_StatEngine.upRequest & ISP_STAT_TYPE_BINS)
 304:../../Middlewares/Camera_Middleware/ISP_Library/isp/Src/isp_services.c ****     {
 305:../../Middlewares/Camera_Middleware/ISP_Library/isp/Src/isp_services.c ****       next = ISP_STAT_CFG_UP_BINS_0_2;
 306:../../Middlewares/Camera_Middleware/ISP_Library/isp/Src/isp_services.c ****     }
 307:../../Middlewares/Camera_Middleware/ISP_Library/isp/Src/isp_services.c ****     break;
 308:../../Middlewares/Camera_Middleware/ISP_Library/isp/Src/isp_services.c **** 
 309:../../Middlewares/Camera_Middleware/ISP_Library/isp/Src/isp_services.c ****   case ISP_STAT_CFG_DOWN_AVG:
 310:../../Middlewares/Camera_Middleware/ISP_Library/isp/Src/isp_services.c ****     /* Try Down Bins */
 311:../../Middlewares/Camera_Middleware/ISP_Library/isp/Src/isp_services.c ****     if (ISP_SVC_StatEngine.downRequest & ISP_STAT_TYPE_BINS)
 312:../../Middlewares/Camera_Middleware/ISP_Library/isp/Src/isp_services.c ****     {
ARM GAS  C:\Users\Antonio\AppData\Local\Temp\ccF6VN3M.s 			page 11


 313:../../Middlewares/Camera_Middleware/ISP_Library/isp/Src/isp_services.c ****       next = ISP_STAT_CFG_DOWN_BINS_0_2;
 314:../../Middlewares/Camera_Middleware/ISP_Library/isp/Src/isp_services.c ****     }
 315:../../Middlewares/Camera_Middleware/ISP_Library/isp/Src/isp_services.c ****     /* Skip Down Bins : try Up Avg */
 316:../../Middlewares/Camera_Middleware/ISP_Library/isp/Src/isp_services.c ****     else if (ISP_SVC_StatEngine.upRequest & ISP_STAT_TYPE_AVG)
 317:../../Middlewares/Camera_Middleware/ISP_Library/isp/Src/isp_services.c ****     {
 318:../../Middlewares/Camera_Middleware/ISP_Library/isp/Src/isp_services.c ****       next = ISP_STAT_CFG_UP_AVG;
 319:../../Middlewares/Camera_Middleware/ISP_Library/isp/Src/isp_services.c ****     }
 320:../../Middlewares/Camera_Middleware/ISP_Library/isp/Src/isp_services.c ****     /* Skip Up Avg : try Up Bins */
 321:../../Middlewares/Camera_Middleware/ISP_Library/isp/Src/isp_services.c ****     else if (ISP_SVC_StatEngine.upRequest & ISP_STAT_TYPE_BINS)
 322:../../Middlewares/Camera_Middleware/ISP_Library/isp/Src/isp_services.c ****     {
 323:../../Middlewares/Camera_Middleware/ISP_Library/isp/Src/isp_services.c ****       next = ISP_STAT_CFG_UP_BINS_0_2;
 324:../../Middlewares/Camera_Middleware/ISP_Library/isp/Src/isp_services.c ****     }
 325:../../Middlewares/Camera_Middleware/ISP_Library/isp/Src/isp_services.c ****     /* Skip Up Bins : try Down Avg */
 326:../../Middlewares/Camera_Middleware/ISP_Library/isp/Src/isp_services.c ****     else if (ISP_SVC_StatEngine.downRequest & ISP_STAT_TYPE_AVG)
 327:../../Middlewares/Camera_Middleware/ISP_Library/isp/Src/isp_services.c ****     {
 328:../../Middlewares/Camera_Middleware/ISP_Library/isp/Src/isp_services.c ****       next = ISP_STAT_CFG_DOWN_AVG;
 329:../../Middlewares/Camera_Middleware/ISP_Library/isp/Src/isp_services.c ****     }
 330:../../Middlewares/Camera_Middleware/ISP_Library/isp/Src/isp_services.c ****     break;
 331:../../Middlewares/Camera_Middleware/ISP_Library/isp/Src/isp_services.c **** 
 332:../../Middlewares/Camera_Middleware/ISP_Library/isp/Src/isp_services.c ****   case ISP_STAT_CFG_DOWN_BINS_9_11:
 333:../../Middlewares/Camera_Middleware/ISP_Library/isp/Src/isp_services.c ****     /* Try Up Avg */
 334:../../Middlewares/Camera_Middleware/ISP_Library/isp/Src/isp_services.c ****     if (ISP_SVC_StatEngine.upRequest & ISP_STAT_TYPE_AVG)
 335:../../Middlewares/Camera_Middleware/ISP_Library/isp/Src/isp_services.c ****     {
 336:../../Middlewares/Camera_Middleware/ISP_Library/isp/Src/isp_services.c ****       next = ISP_STAT_CFG_UP_AVG;
 337:../../Middlewares/Camera_Middleware/ISP_Library/isp/Src/isp_services.c ****     }
 338:../../Middlewares/Camera_Middleware/ISP_Library/isp/Src/isp_services.c ****     /* Skip Up Avg : try Up Bins */
 339:../../Middlewares/Camera_Middleware/ISP_Library/isp/Src/isp_services.c ****     else if (ISP_SVC_StatEngine.upRequest & ISP_STAT_TYPE_BINS)
 340:../../Middlewares/Camera_Middleware/ISP_Library/isp/Src/isp_services.c ****     {
 341:../../Middlewares/Camera_Middleware/ISP_Library/isp/Src/isp_services.c ****       next = ISP_STAT_CFG_UP_BINS_0_2;
 342:../../Middlewares/Camera_Middleware/ISP_Library/isp/Src/isp_services.c ****     }
 343:../../Middlewares/Camera_Middleware/ISP_Library/isp/Src/isp_services.c ****     /* Skip Up Bins : try Down Avg */
 344:../../Middlewares/Camera_Middleware/ISP_Library/isp/Src/isp_services.c ****     else if (ISP_SVC_StatEngine.downRequest & ISP_STAT_TYPE_AVG)
 345:../../Middlewares/Camera_Middleware/ISP_Library/isp/Src/isp_services.c ****     {
 346:../../Middlewares/Camera_Middleware/ISP_Library/isp/Src/isp_services.c ****       next = ISP_STAT_CFG_DOWN_AVG;
 347:../../Middlewares/Camera_Middleware/ISP_Library/isp/Src/isp_services.c ****     }
 348:../../Middlewares/Camera_Middleware/ISP_Library/isp/Src/isp_services.c ****     /* Skip Down Avg : try Down Bins */
 349:../../Middlewares/Camera_Middleware/ISP_Library/isp/Src/isp_services.c ****     else if (ISP_SVC_StatEngine.downRequest & ISP_STAT_TYPE_BINS)
 350:../../Middlewares/Camera_Middleware/ISP_Library/isp/Src/isp_services.c ****     {
 351:../../Middlewares/Camera_Middleware/ISP_Library/isp/Src/isp_services.c ****       next = ISP_STAT_CFG_DOWN_BINS_0_2;
 352:../../Middlewares/Camera_Middleware/ISP_Library/isp/Src/isp_services.c ****     }
 353:../../Middlewares/Camera_Middleware/ISP_Library/isp/Src/isp_services.c ****     break;
 354:../../Middlewares/Camera_Middleware/ISP_Library/isp/Src/isp_services.c **** 
 355:../../Middlewares/Camera_Middleware/ISP_Library/isp/Src/isp_services.c ****   default:
 356:../../Middlewares/Camera_Middleware/ISP_Library/isp/Src/isp_services.c ****     /* In the middle of the bins measurement: continue with the next bins part */
 357:../../Middlewares/Camera_Middleware/ISP_Library/isp/Src/isp_services.c ****     next = (ISP_SVC_StatEngineStage) (current + 1);
 358:../../Middlewares/Camera_Middleware/ISP_Library/isp/Src/isp_services.c ****     break;
 359:../../Middlewares/Camera_Middleware/ISP_Library/isp/Src/isp_services.c ****   }
 360:../../Middlewares/Camera_Middleware/ISP_Library/isp/Src/isp_services.c **** 
 361:../../Middlewares/Camera_Middleware/ISP_Library/isp/Src/isp_services.c ****   return next;
 362:../../Middlewares/Camera_Middleware/ISP_Library/isp/Src/isp_services.c **** }
 363:../../Middlewares/Camera_Middleware/ISP_Library/isp/Src/isp_services.c **** 
 364:../../Middlewares/Camera_Middleware/ISP_Library/isp/Src/isp_services.c **** static ISP_SVC_StatEngineStage GetStatCycleStart(ISP_SVC_StatLocation location)
 365:../../Middlewares/Camera_Middleware/ISP_Library/isp/Src/isp_services.c **** {
 366:../../Middlewares/Camera_Middleware/ISP_Library/isp/Src/isp_services.c ****   ISP_SVC_StatEngineStage stage;
 367:../../Middlewares/Camera_Middleware/ISP_Library/isp/Src/isp_services.c **** 
 368:../../Middlewares/Camera_Middleware/ISP_Library/isp/Src/isp_services.c ****   if (location == ISP_STAT_LOC_UP)
 369:../../Middlewares/Camera_Middleware/ISP_Library/isp/Src/isp_services.c ****   {
ARM GAS  C:\Users\Antonio\AppData\Local\Temp\ccF6VN3M.s 			page 12


 370:../../Middlewares/Camera_Middleware/ISP_Library/isp/Src/isp_services.c ****     if ((ISP_SVC_StatEngine.upRequest & ISP_STAT_TYPE_AVG) ||
 371:../../Middlewares/Camera_Middleware/ISP_Library/isp/Src/isp_services.c ****         (ISP_SVC_StatEngine.upRequest & ISP_STAT_TYPE_ALL_TMP))
 372:../../Middlewares/Camera_Middleware/ISP_Library/isp/Src/isp_services.c ****     {
 373:../../Middlewares/Camera_Middleware/ISP_Library/isp/Src/isp_services.c ****       /* Stat up cycle starts with AVG measurement */
 374:../../Middlewares/Camera_Middleware/ISP_Library/isp/Src/isp_services.c ****       stage = ISP_STAT_CFG_UP_AVG;
 375:../../Middlewares/Camera_Middleware/ISP_Library/isp/Src/isp_services.c ****     }
 376:../../Middlewares/Camera_Middleware/ISP_Library/isp/Src/isp_services.c ****     else
 377:../../Middlewares/Camera_Middleware/ISP_Library/isp/Src/isp_services.c ****     {
 378:../../Middlewares/Camera_Middleware/ISP_Library/isp/Src/isp_services.c ****       /* Stat up cycle starts with 1st BIN measurement */
 379:../../Middlewares/Camera_Middleware/ISP_Library/isp/Src/isp_services.c ****       stage = ISP_STAT_CFG_UP_BINS_0_2;
 380:../../Middlewares/Camera_Middleware/ISP_Library/isp/Src/isp_services.c ****     }
 381:../../Middlewares/Camera_Middleware/ISP_Library/isp/Src/isp_services.c ****   }
 382:../../Middlewares/Camera_Middleware/ISP_Library/isp/Src/isp_services.c ****   else
 383:../../Middlewares/Camera_Middleware/ISP_Library/isp/Src/isp_services.c ****   {
 384:../../Middlewares/Camera_Middleware/ISP_Library/isp/Src/isp_services.c ****     if ((ISP_SVC_StatEngine.downRequest & ISP_STAT_TYPE_AVG) ||
 385:../../Middlewares/Camera_Middleware/ISP_Library/isp/Src/isp_services.c ****         (ISP_SVC_StatEngine.downRequest & ISP_STAT_TYPE_ALL_TMP))
 386:../../Middlewares/Camera_Middleware/ISP_Library/isp/Src/isp_services.c ****     {
 387:../../Middlewares/Camera_Middleware/ISP_Library/isp/Src/isp_services.c ****       /* Stat down cycle starts with AVG measurement */
 388:../../Middlewares/Camera_Middleware/ISP_Library/isp/Src/isp_services.c ****       stage = ISP_STAT_CFG_DOWN_AVG;
 389:../../Middlewares/Camera_Middleware/ISP_Library/isp/Src/isp_services.c ****     }
 390:../../Middlewares/Camera_Middleware/ISP_Library/isp/Src/isp_services.c ****     else
 391:../../Middlewares/Camera_Middleware/ISP_Library/isp/Src/isp_services.c ****     {
 392:../../Middlewares/Camera_Middleware/ISP_Library/isp/Src/isp_services.c ****       /* Stat down cycle starts with 1st BIN measurement */
 393:../../Middlewares/Camera_Middleware/ISP_Library/isp/Src/isp_services.c ****       stage = ISP_STAT_CFG_DOWN_BINS_0_2;
 394:../../Middlewares/Camera_Middleware/ISP_Library/isp/Src/isp_services.c ****     }
 395:../../Middlewares/Camera_Middleware/ISP_Library/isp/Src/isp_services.c ****   }
 396:../../Middlewares/Camera_Middleware/ISP_Library/isp/Src/isp_services.c ****   return stage;
 397:../../Middlewares/Camera_Middleware/ISP_Library/isp/Src/isp_services.c **** }
 398:../../Middlewares/Camera_Middleware/ISP_Library/isp/Src/isp_services.c **** 
 399:../../Middlewares/Camera_Middleware/ISP_Library/isp/Src/isp_services.c **** static ISP_SVC_StatEngineStage GetStatCycleEnd(ISP_SVC_StatLocation location)
 400:../../Middlewares/Camera_Middleware/ISP_Library/isp/Src/isp_services.c **** {
 401:../../Middlewares/Camera_Middleware/ISP_Library/isp/Src/isp_services.c ****   ISP_SVC_StatEngineStage stage;
 402:../../Middlewares/Camera_Middleware/ISP_Library/isp/Src/isp_services.c **** 
 403:../../Middlewares/Camera_Middleware/ISP_Library/isp/Src/isp_services.c ****   if (location == ISP_STAT_LOC_UP)
 404:../../Middlewares/Camera_Middleware/ISP_Library/isp/Src/isp_services.c ****   {
 405:../../Middlewares/Camera_Middleware/ISP_Library/isp/Src/isp_services.c ****     if ((ISP_SVC_StatEngine.upRequest & ISP_STAT_TYPE_BINS) ||
 406:../../Middlewares/Camera_Middleware/ISP_Library/isp/Src/isp_services.c ****         (ISP_SVC_StatEngine.upRequest & ISP_STAT_TYPE_ALL_TMP))
 407:../../Middlewares/Camera_Middleware/ISP_Library/isp/Src/isp_services.c ****     {
 408:../../Middlewares/Camera_Middleware/ISP_Library/isp/Src/isp_services.c ****       /* Stat up cycle ends with last BINS measurement */
 409:../../Middlewares/Camera_Middleware/ISP_Library/isp/Src/isp_services.c ****       stage = ISP_STAT_CFG_UP_BINS_9_11;
 410:../../Middlewares/Camera_Middleware/ISP_Library/isp/Src/isp_services.c ****     }
 411:../../Middlewares/Camera_Middleware/ISP_Library/isp/Src/isp_services.c ****     else
 412:../../Middlewares/Camera_Middleware/ISP_Library/isp/Src/isp_services.c ****     {
 413:../../Middlewares/Camera_Middleware/ISP_Library/isp/Src/isp_services.c ****       /* Stat up cycle ends with AVG measurement */
 414:../../Middlewares/Camera_Middleware/ISP_Library/isp/Src/isp_services.c ****       stage = ISP_STAT_CFG_UP_AVG;
 415:../../Middlewares/Camera_Middleware/ISP_Library/isp/Src/isp_services.c ****     }
 416:../../Middlewares/Camera_Middleware/ISP_Library/isp/Src/isp_services.c ****   }
 417:../../Middlewares/Camera_Middleware/ISP_Library/isp/Src/isp_services.c ****   else
 418:../../Middlewares/Camera_Middleware/ISP_Library/isp/Src/isp_services.c ****   {
 419:../../Middlewares/Camera_Middleware/ISP_Library/isp/Src/isp_services.c ****     if ((ISP_SVC_StatEngine.downRequest & ISP_STAT_TYPE_BINS) ||
 420:../../Middlewares/Camera_Middleware/ISP_Library/isp/Src/isp_services.c ****         (ISP_SVC_StatEngine.downRequest & ISP_STAT_TYPE_ALL_TMP))
 421:../../Middlewares/Camera_Middleware/ISP_Library/isp/Src/isp_services.c ****     {
 422:../../Middlewares/Camera_Middleware/ISP_Library/isp/Src/isp_services.c ****       /* Stat down cycle ends with last BINS measurement */
 423:../../Middlewares/Camera_Middleware/ISP_Library/isp/Src/isp_services.c ****       stage = ISP_STAT_CFG_DOWN_BINS_9_11;
 424:../../Middlewares/Camera_Middleware/ISP_Library/isp/Src/isp_services.c ****     }
 425:../../Middlewares/Camera_Middleware/ISP_Library/isp/Src/isp_services.c ****     else
 426:../../Middlewares/Camera_Middleware/ISP_Library/isp/Src/isp_services.c ****     {
ARM GAS  C:\Users\Antonio\AppData\Local\Temp\ccF6VN3M.s 			page 13


 427:../../Middlewares/Camera_Middleware/ISP_Library/isp/Src/isp_services.c ****       /* Stat down cycle ends with AVG measurement */
 428:../../Middlewares/Camera_Middleware/ISP_Library/isp/Src/isp_services.c ****       stage = ISP_STAT_CFG_DOWN_AVG;
 429:../../Middlewares/Camera_Middleware/ISP_Library/isp/Src/isp_services.c ****     }
 430:../../Middlewares/Camera_Middleware/ISP_Library/isp/Src/isp_services.c ****   }
 431:../../Middlewares/Camera_Middleware/ISP_Library/isp/Src/isp_services.c ****   return stage;
 432:../../Middlewares/Camera_Middleware/ISP_Library/isp/Src/isp_services.c **** }
 433:../../Middlewares/Camera_Middleware/ISP_Library/isp/Src/isp_services.c **** 
 434:../../Middlewares/Camera_Middleware/ISP_Library/isp/Src/isp_services.c **** uint8_t LuminanceFromRGB(uint8_t r, uint8_t g, uint8_t b)
 435:../../Middlewares/Camera_Middleware/ISP_Library/isp/Src/isp_services.c **** {
 238              		.loc 1 435 1 is_stmt 1 view -0
 239              		.cfi_startproc
 240              		@ args = 0, pretend = 0, frame = 8
 241              		@ frame_needed = 0, uses_anonymous_args = 0
 242              		@ link register save eliminated.
 436:../../Middlewares/Camera_Middleware/ISP_Library/isp/Src/isp_services.c ****   /* Compute luminance from RGB components (BT.601) */
 437:../../Middlewares/Camera_Middleware/ISP_Library/isp/Src/isp_services.c ****   return (uint8_t) (r * 0.299 + g * 0.587 + b * 0.114);
 243              		.loc 1 437 3 view .LVU62
 435:../../Middlewares/Camera_Middleware/ISP_Library/isp/Src/isp_services.c ****   /* Compute luminance from RGB components (BT.601) */
 244              		.loc 1 435 1 is_stmt 0 view .LVU63
 245 0000 07EE101A 		vmov	s14, r1	@ int
 246 0004 05EE100A 		vmov	s10, r0	@ int
 247              		.loc 1 437 35 view .LVU64
 248 0008 9FED0F4B 		vldr.64	d4, .L16
 249 000c B8EEC77B 		vcvt.f64.s32	d7, s14
 435:../../Middlewares/Camera_Middleware/ISP_Library/isp/Src/isp_services.c ****   /* Compute luminance from RGB components (BT.601) */
 250              		.loc 1 435 1 view .LVU65
 251 0010 06EE102A 		vmov	s12, r2	@ int
 252              		.loc 1 437 23 view .LVU66
 253 0014 B8EEC55B 		vcvt.f64.s32	d5, s10
 254              		.loc 1 437 35 view .LVU67
 255 0018 27EE047B 		vmul.f64	d7, d7, d4
 256              		.loc 1 437 31 view .LVU68
 257 001c 9FED0C4B 		vldr.64	d4, .L16+8
 258              		.loc 1 437 47 view .LVU69
 259 0020 B8EEC66B 		vcvt.f64.s32	d6, s12
 260              		.loc 1 437 31 view .LVU70
 261 0024 A5EE047B 		vfma.f64	d7, d5, d4
 262              		.loc 1 437 43 view .LVU71
 263 0028 9FED0B5B 		vldr.64	d5, .L16+16
 264 002c A6EE057B 		vfma.f64	d7, d6, d5
 265              		.loc 1 437 10 view .LVU72
 266 0030 FCEEC77B 		vcvt.u32.f64	s15, d7
 435:../../Middlewares/Camera_Middleware/ISP_Library/isp/Src/isp_services.c ****   /* Compute luminance from RGB components (BT.601) */
 267              		.loc 1 435 1 view .LVU73
 268 0034 82B0     		sub	sp, sp, #8
 269              		.cfi_def_cfa_offset 8
 270              		.loc 1 437 10 view .LVU74
 271 0036 CDED017A 		vstr.32	s15, [sp, #4]	@ int
 438:../../Middlewares/Camera_Middleware/ISP_Library/isp/Src/isp_services.c **** }
 272              		.loc 1 438 1 view .LVU75
 273 003a 9DF80400 		ldrb	r0, [sp, #4]	@ zero_extendqisi2
 274              	.LVL20:
 275              		.loc 1 438 1 view .LVU76
 276 003e 02B0     		add	sp, sp, #8
 277              		.cfi_def_cfa_offset 0
 278              		@ sp needed
 279 0040 7047     		bx	lr
ARM GAS  C:\Users\Antonio\AppData\Local\Temp\ccF6VN3M.s 			page 14


 280              	.L17:
 281 0042 00BFAFF3 		.align	3
 281      0080
 282              	.L16:
 283 0048 62105839 		.word	962072674
 284 004c B4C8E23F 		.word	1071827124
 285 0050 894160E5 		.word	-446676599
 286 0054 D022D33F 		.word	1070801616
 287 0058 C976BE9F 		.word	-1614907703
 288 005c 1A2FBD3F 		.word	1069362970
 289              		.cfi_endproc
 290              	.LFE848:
 292              		.section	.text.LuminanceFromRGBMono,"ax",%progbits
 293              		.align	1
 294              		.global	LuminanceFromRGBMono
 295              		.syntax unified
 296              		.thumb
 297              		.thumb_func
 299              	LuminanceFromRGBMono:
 300              	.LVL21:
 301              	.LFB849:
 439:../../Middlewares/Camera_Middleware/ISP_Library/isp/Src/isp_services.c **** 
 440:../../Middlewares/Camera_Middleware/ISP_Library/isp/Src/isp_services.c **** uint8_t LuminanceFromRGBMono(uint8_t r, uint8_t g, uint8_t b)
 441:../../Middlewares/Camera_Middleware/ISP_Library/isp/Src/isp_services.c **** {
 302              		.loc 1 441 1 is_stmt 1 view -0
 303              		.cfi_startproc
 304              		@ args = 0, pretend = 0, frame = 0
 305              		@ frame_needed = 0, uses_anonymous_args = 0
 306              		@ link register save eliminated.
 442:../../Middlewares/Camera_Middleware/ISP_Library/isp/Src/isp_services.c ****   /* Compute luminance from RGB components
 443:../../Middlewares/Camera_Middleware/ISP_Library/isp/Src/isp_services.c ****    * by adding together R, G, B components for monochrome sensor */
 444:../../Middlewares/Camera_Middleware/ISP_Library/isp/Src/isp_services.c ****   return r + g + b;
 307              		.loc 1 444 3 view .LVU78
 308              		.loc 1 444 16 is_stmt 0 view .LVU79
 309 0000 1144     		add	r1, r1, r2
 310              	.LVL22:
 311              		.loc 1 444 16 view .LVU80
 312 0002 0844     		add	r0, r0, r1
 313              	.LVL23:
 445:../../Middlewares/Camera_Middleware/ISP_Library/isp/Src/isp_services.c **** }
 314              		.loc 1 445 1 view .LVU81
 315 0004 C0B2     		uxtb	r0, r0
 316 0006 7047     		bx	lr
 317              		.cfi_endproc
 318              	.LFE849:
 320              		.section	.text.ISP_SVC_ISP_SetDemosaicing,"ax",%progbits
 321              		.align	1
 322              		.global	ISP_SVC_ISP_SetDemosaicing
 323              		.syntax unified
 324              		.thumb
 325              		.thumb_func
 327              	ISP_SVC_ISP_SetDemosaicing:
 328              	.LVL24:
 329              	.LFB850:
 446:../../Middlewares/Camera_Middleware/ISP_Library/isp/Src/isp_services.c **** 
 447:../../Middlewares/Camera_Middleware/ISP_Library/isp/Src/isp_services.c **** /* Exported functions --------------------------------------------------------*/
 448:../../Middlewares/Camera_Middleware/ISP_Library/isp/Src/isp_services.c **** /**
ARM GAS  C:\Users\Antonio\AppData\Local\Temp\ccF6VN3M.s 			page 15


 449:../../Middlewares/Camera_Middleware/ISP_Library/isp/Src/isp_services.c ****   * @brief  ISP_SVC_ISP_SetDemosaicing
 450:../../Middlewares/Camera_Middleware/ISP_Library/isp/Src/isp_services.c ****   *         Set the ISP demosaicing configuration
 451:../../Middlewares/Camera_Middleware/ISP_Library/isp/Src/isp_services.c ****   * @param  hIsp: ISP device handle
 452:../../Middlewares/Camera_Middleware/ISP_Library/isp/Src/isp_services.c ****   * @param  pConfig: Pointer to the demosaicing configuration
 453:../../Middlewares/Camera_Middleware/ISP_Library/isp/Src/isp_services.c ****   * @retval operation result
 454:../../Middlewares/Camera_Middleware/ISP_Library/isp/Src/isp_services.c ****   */
 455:../../Middlewares/Camera_Middleware/ISP_Library/isp/Src/isp_services.c **** ISP_StatusTypeDef ISP_SVC_ISP_SetDemosaicing(ISP_HandleTypeDef *hIsp, ISP_DemosaicingTypeDef *pConf
 456:../../Middlewares/Camera_Middleware/ISP_Library/isp/Src/isp_services.c **** {
 330              		.loc 1 456 1 is_stmt 1 view -0
 331              		.cfi_startproc
 332              		@ args = 0, pretend = 0, frame = 24
 333              		@ frame_needed = 0, uses_anonymous_args = 0
 457:../../Middlewares/Camera_Middleware/ISP_Library/isp/Src/isp_services.c ****   HAL_StatusTypeDef halStatus;
 334              		.loc 1 457 3 view .LVU83
 458:../../Middlewares/Camera_Middleware/ISP_Library/isp/Src/isp_services.c ****   DCMIPP_RawBayer2RGBConfTypeDef rawBayerCfg;
 335              		.loc 1 458 3 view .LVU84
 459:../../Middlewares/Camera_Middleware/ISP_Library/isp/Src/isp_services.c **** 
 460:../../Middlewares/Camera_Middleware/ISP_Library/isp/Src/isp_services.c ****   if ((hIsp == NULL) || (pConfig == NULL) ||
 336              		.loc 1 460 3 view .LVU85
 456:../../Middlewares/Camera_Middleware/ISP_Library/isp/Src/isp_services.c ****   HAL_StatusTypeDef halStatus;
 337              		.loc 1 456 1 is_stmt 0 view .LVU86
 338 0000 F0B5     		push	{r4, r5, r6, r7, lr}
 339              		.cfi_def_cfa_offset 20
 340              		.cfi_offset 4, -20
 341              		.cfi_offset 5, -16
 342              		.cfi_offset 6, -12
 343              		.cfi_offset 7, -8
 344              		.cfi_offset 14, -4
 345              		.loc 1 460 6 view .LVU87
 346 0002 0446     		mov	r4, r0
 456:../../Middlewares/Camera_Middleware/ISP_Library/isp/Src/isp_services.c ****   HAL_StatusTypeDef halStatus;
 347              		.loc 1 456 1 view .LVU88
 348 0004 87B0     		sub	sp, sp, #28
 349              		.cfi_def_cfa_offset 48
 350              		.loc 1 460 6 view .LVU89
 351 0006 0028     		cmp	r0, #0
 352 0008 37D0     		beq	.L31
 353              		.loc 1 460 22 discriminator 1 view .LVU90
 354 000a 0029     		cmp	r1, #0
 355 000c 35D0     		beq	.L31
 461:../../Middlewares/Camera_Middleware/ISP_Library/isp/Src/isp_services.c ****       (pConfig->peak > ISP_DEMOS_STRENGTH_MAX) || (pConfig->lineV > ISP_DEMOS_STRENGTH_MAX) ||
 356              		.loc 1 461 15 view .LVU91
 357 000e 8F78     		ldrb	r7, [r1, #2]	@ zero_extendqisi2
 460:../../Middlewares/Camera_Middleware/ISP_Library/isp/Src/isp_services.c ****       (pConfig->peak > ISP_DEMOS_STRENGTH_MAX) || (pConfig->lineV > ISP_DEMOS_STRENGTH_MAX) ||
 358              		.loc 1 460 43 discriminator 2 view .LVU92
 359 0010 072F     		cmp	r7, #7
 360 0012 32D8     		bhi	.L31
 361              		.loc 1 461 59 view .LVU93
 362 0014 CE78     		ldrb	r6, [r1, #3]	@ zero_extendqisi2
 363              		.loc 1 461 48 view .LVU94
 364 0016 072E     		cmp	r6, #7
 365 0018 2FD8     		bhi	.L31
 462:../../Middlewares/Camera_Middleware/ISP_Library/isp/Src/isp_services.c ****       (pConfig->lineH > ISP_DEMOS_STRENGTH_MAX) || (pConfig->edge > ISP_DEMOS_STRENGTH_MAX))
 366              		.loc 1 462 15 view .LVU95
 367 001a 0D79     		ldrb	r5, [r1, #4]	@ zero_extendqisi2
 461:../../Middlewares/Camera_Middleware/ISP_Library/isp/Src/isp_services.c ****       (pConfig->peak > ISP_DEMOS_STRENGTH_MAX) || (pConfig->lineV > ISP_DEMOS_STRENGTH_MAX) ||
 368              		.loc 1 461 93 discriminator 1 view .LVU96
ARM GAS  C:\Users\Antonio\AppData\Local\Temp\ccF6VN3M.s 			page 16


 369 001c 072D     		cmp	r5, #7
 370 001e 2CD8     		bhi	.L31
 371              		.loc 1 462 60 view .LVU97
 372 0020 4879     		ldrb	r0, [r1, #5]	@ zero_extendqisi2
 373              	.LVL25:
 374              		.loc 1 462 49 view .LVU98
 375 0022 0728     		cmp	r0, #7
 376 0024 29D8     		bhi	.L31
 463:../../Middlewares/Camera_Middleware/ISP_Library/isp/Src/isp_services.c ****   {
 464:../../Middlewares/Camera_Middleware/ISP_Library/isp/Src/isp_services.c ****     return ISP_ERR_DEMOSAICING_EINVAL;
 465:../../Middlewares/Camera_Middleware/ISP_Library/isp/Src/isp_services.c ****   }
 466:../../Middlewares/Camera_Middleware/ISP_Library/isp/Src/isp_services.c **** 
 467:../../Middlewares/Camera_Middleware/ISP_Library/isp/Src/isp_services.c ****   /* Do not enable demosaicing if the camera sensor is a monochrome sensor */
 468:../../Middlewares/Camera_Middleware/ISP_Library/isp/Src/isp_services.c ****   if ((pConfig->enable == 0) || (pConfig->type == ISP_DEMOS_TYPE_MONO))
 377              		.loc 1 468 3 is_stmt 1 view .LVU99
 378              		.loc 1 468 6 is_stmt 0 view .LVU100
 379 0026 0B78     		ldrb	r3, [r1]	@ zero_extendqisi2
 380 0028 13B1     		cbz	r3, .L21
 381              		.loc 1 468 41 discriminator 1 view .LVU101
 382 002a 4A78     		ldrb	r2, [r1, #1]	@ zero_extendqisi2
 383              		.loc 1 468 30 discriminator 1 view .LVU102
 384 002c 042A     		cmp	r2, #4
 385 002e 07D1     		bne	.L22
 386              	.L21:
 469:../../Middlewares/Camera_Middleware/ISP_Library/isp/Src/isp_services.c ****   {
 470:../../Middlewares/Camera_Middleware/ISP_Library/isp/Src/isp_services.c ****     halStatus = HAL_DCMIPP_PIPE_DisableISPRawBayer2RGB(hIsp->hDcmipp, DCMIPP_PIPE1);
 387              		.loc 1 470 5 is_stmt 1 view .LVU103
 388              		.loc 1 470 17 is_stmt 0 view .LVU104
 389 0030 0121     		movs	r1, #1
 390              	.LVL26:
 391              		.loc 1 470 17 view .LVU105
 392 0032 2068     		ldr	r0, [r4]
 393 0034 FFF7FEFF 		bl	HAL_DCMIPP_PIPE_DisableISPRawBayer2RGB
 394              	.LVL27:
 395              	.L23:
 471:../../Middlewares/Camera_Middleware/ISP_Library/isp/Src/isp_services.c ****   }
 472:../../Middlewares/Camera_Middleware/ISP_Library/isp/Src/isp_services.c ****   else
 473:../../Middlewares/Camera_Middleware/ISP_Library/isp/Src/isp_services.c ****   {
 474:../../Middlewares/Camera_Middleware/ISP_Library/isp/Src/isp_services.c ****     switch(pConfig->type)
 475:../../Middlewares/Camera_Middleware/ISP_Library/isp/Src/isp_services.c ****     {
 476:../../Middlewares/Camera_Middleware/ISP_Library/isp/Src/isp_services.c ****       case ISP_DEMOS_TYPE_RGGB:
 477:../../Middlewares/Camera_Middleware/ISP_Library/isp/Src/isp_services.c ****         rawBayerCfg.RawBayerType = DCMIPP_RAWBAYER_RGGB;
 478:../../Middlewares/Camera_Middleware/ISP_Library/isp/Src/isp_services.c ****         break;
 479:../../Middlewares/Camera_Middleware/ISP_Library/isp/Src/isp_services.c ****       case ISP_DEMOS_TYPE_GRBG:
 480:../../Middlewares/Camera_Middleware/ISP_Library/isp/Src/isp_services.c ****         rawBayerCfg.RawBayerType = DCMIPP_RAWBAYER_GRBG;
 481:../../Middlewares/Camera_Middleware/ISP_Library/isp/Src/isp_services.c ****         break;
 482:../../Middlewares/Camera_Middleware/ISP_Library/isp/Src/isp_services.c ****       case ISP_DEMOS_TYPE_GBRG:
 483:../../Middlewares/Camera_Middleware/ISP_Library/isp/Src/isp_services.c ****         rawBayerCfg.RawBayerType = DCMIPP_RAWBAYER_GBRG;
 484:../../Middlewares/Camera_Middleware/ISP_Library/isp/Src/isp_services.c ****         break;
 485:../../Middlewares/Camera_Middleware/ISP_Library/isp/Src/isp_services.c ****       case ISP_DEMOS_TYPE_BGGR:
 486:../../Middlewares/Camera_Middleware/ISP_Library/isp/Src/isp_services.c ****         rawBayerCfg.RawBayerType = DCMIPP_RAWBAYER_BGGR;
 487:../../Middlewares/Camera_Middleware/ISP_Library/isp/Src/isp_services.c ****         break;
 488:../../Middlewares/Camera_Middleware/ISP_Library/isp/Src/isp_services.c ****       default:
 489:../../Middlewares/Camera_Middleware/ISP_Library/isp/Src/isp_services.c ****         rawBayerCfg.RawBayerType = DCMIPP_RAWBAYER_RGGB;
 490:../../Middlewares/Camera_Middleware/ISP_Library/isp/Src/isp_services.c ****         break;
 491:../../Middlewares/Camera_Middleware/ISP_Library/isp/Src/isp_services.c ****     }
 492:../../Middlewares/Camera_Middleware/ISP_Library/isp/Src/isp_services.c **** 
ARM GAS  C:\Users\Antonio\AppData\Local\Temp\ccF6VN3M.s 			page 17


 493:../../Middlewares/Camera_Middleware/ISP_Library/isp/Src/isp_services.c ****     rawBayerCfg.PeakStrength = (uint32_t) pConfig->peak;
 494:../../Middlewares/Camera_Middleware/ISP_Library/isp/Src/isp_services.c ****     rawBayerCfg.VLineStrength = (uint32_t) pConfig->lineV;
 495:../../Middlewares/Camera_Middleware/ISP_Library/isp/Src/isp_services.c ****     rawBayerCfg.HLineStrength = (uint32_t) pConfig->lineH;
 496:../../Middlewares/Camera_Middleware/ISP_Library/isp/Src/isp_services.c ****     rawBayerCfg.EdgeStrength = (uint32_t) pConfig->edge;
 497:../../Middlewares/Camera_Middleware/ISP_Library/isp/Src/isp_services.c ****     halStatus = HAL_DCMIPP_PIPE_SetISPRawBayer2RGBConfig(hIsp->hDcmipp, DCMIPP_PIPE1, &rawBayerCfg)
 498:../../Middlewares/Camera_Middleware/ISP_Library/isp/Src/isp_services.c **** 
 499:../../Middlewares/Camera_Middleware/ISP_Library/isp/Src/isp_services.c ****     if (halStatus == HAL_OK)
 500:../../Middlewares/Camera_Middleware/ISP_Library/isp/Src/isp_services.c ****     {
 501:../../Middlewares/Camera_Middleware/ISP_Library/isp/Src/isp_services.c ****       halStatus = HAL_DCMIPP_PIPE_EnableISPRawBayer2RGB(hIsp->hDcmipp, DCMIPP_PIPE1);
 502:../../Middlewares/Camera_Middleware/ISP_Library/isp/Src/isp_services.c ****     }
 503:../../Middlewares/Camera_Middleware/ISP_Library/isp/Src/isp_services.c ****   }
 504:../../Middlewares/Camera_Middleware/ISP_Library/isp/Src/isp_services.c **** 
 505:../../Middlewares/Camera_Middleware/ISP_Library/isp/Src/isp_services.c ****   if (halStatus != HAL_OK)
 396              		.loc 1 505 3 is_stmt 1 view .LVU106
 397              		.loc 1 505 6 is_stmt 0 view .LVU107
 398 0038 00B1     		cbz	r0, .L20
 399              	.L25:
 506:../../Middlewares/Camera_Middleware/ISP_Library/isp/Src/isp_services.c ****   {
 507:../../Middlewares/Camera_Middleware/ISP_Library/isp/Src/isp_services.c ****     return ISP_ERR_DEMOSAICING_HAL;
 400              		.loc 1 507 12 view .LVU108
 401 003a 0B20     		movs	r0, #11
 402              	.LVL28:
 403              	.L20:
 508:../../Middlewares/Camera_Middleware/ISP_Library/isp/Src/isp_services.c ****   }
 509:../../Middlewares/Camera_Middleware/ISP_Library/isp/Src/isp_services.c **** 
 510:../../Middlewares/Camera_Middleware/ISP_Library/isp/Src/isp_services.c ****   return ISP_OK;
 511:../../Middlewares/Camera_Middleware/ISP_Library/isp/Src/isp_services.c **** }
 404              		.loc 1 511 1 view .LVU109
 405 003c 07B0     		add	sp, sp, #28
 406              		.cfi_remember_state
 407              		.cfi_def_cfa_offset 20
 408              		@ sp needed
 409 003e F0BD     		pop	{r4, r5, r6, r7, pc}
 410              	.LVL29:
 411              	.L22:
 412              		.cfi_restore_state
 474:../../Middlewares/Camera_Middleware/ISP_Library/isp/Src/isp_services.c ****     {
 413              		.loc 1 474 5 is_stmt 1 view .LVU110
 414 0040 022A     		cmp	r2, #2
 415 0042 18D0     		beq	.L32
 416 0044 511E     		subs	r1, r2, #1
 417              	.LVL30:
 474:../../Middlewares/Camera_Middleware/ISP_Library/isp/Src/isp_services.c ****     {
 418              		.loc 1 474 5 is_stmt 0 view .LVU111
 419 0046 4B42     		rsbs	r3, r1, #0
 420 0048 4B41     		adcs	r3, r3, r1
 421 004a 032A     		cmp	r2, #3
 422 004c 4FEA4303 		lsl	r3, r3, #1
 423 0050 08BF     		it	eq
 424 0052 0623     		moveq	r3, #6
 425              	.L24:
 496:../../Middlewares/Camera_Middleware/ISP_Library/isp/Src/isp_services.c ****     halStatus = HAL_DCMIPP_PIPE_SetISPRawBayer2RGBConfig(hIsp->hDcmipp, DCMIPP_PIPE1, &rawBayerCfg)
 426              		.loc 1 496 32 view .LVU112
 427 0054 0590     		str	r0, [sp, #20]
 497:../../Middlewares/Camera_Middleware/ISP_Library/isp/Src/isp_services.c **** 
 428              		.loc 1 497 17 view .LVU113
 429 0056 0121     		movs	r1, #1
ARM GAS  C:\Users\Antonio\AppData\Local\Temp\ccF6VN3M.s 			page 18


 430 0058 2068     		ldr	r0, [r4]
 431 005a 01AA     		add	r2, sp, #4
 493:../../Middlewares/Camera_Middleware/ISP_Library/isp/Src/isp_services.c ****     rawBayerCfg.VLineStrength = (uint32_t) pConfig->lineV;
 432              		.loc 1 493 32 view .LVU114
 433 005c CDE90337 		strd	r3, r7, [sp, #12]
 494:../../Middlewares/Camera_Middleware/ISP_Library/isp/Src/isp_services.c ****     rawBayerCfg.HLineStrength = (uint32_t) pConfig->lineH;
 434              		.loc 1 494 5 is_stmt 1 view .LVU115
 495:../../Middlewares/Camera_Middleware/ISP_Library/isp/Src/isp_services.c ****     rawBayerCfg.EdgeStrength = (uint32_t) pConfig->edge;
 435              		.loc 1 495 33 is_stmt 0 view .LVU116
 436 0060 CDE90165 		strd	r6, r5, [sp, #4]
 496:../../Middlewares/Camera_Middleware/ISP_Library/isp/Src/isp_services.c ****     halStatus = HAL_DCMIPP_PIPE_SetISPRawBayer2RGBConfig(hIsp->hDcmipp, DCMIPP_PIPE1, &rawBayerCfg)
 437              		.loc 1 496 5 is_stmt 1 view .LVU117
 497:../../Middlewares/Camera_Middleware/ISP_Library/isp/Src/isp_services.c **** 
 438              		.loc 1 497 5 view .LVU118
 497:../../Middlewares/Camera_Middleware/ISP_Library/isp/Src/isp_services.c **** 
 439              		.loc 1 497 17 is_stmt 0 view .LVU119
 440 0064 FFF7FEFF 		bl	HAL_DCMIPP_PIPE_SetISPRawBayer2RGBConfig
 441              	.LVL31:
 499:../../Middlewares/Camera_Middleware/ISP_Library/isp/Src/isp_services.c ****     {
 442              		.loc 1 499 5 is_stmt 1 view .LVU120
 499:../../Middlewares/Camera_Middleware/ISP_Library/isp/Src/isp_services.c ****     {
 443              		.loc 1 499 8 is_stmt 0 view .LVU121
 444 0068 0028     		cmp	r0, #0
 445 006a E6D1     		bne	.L25
 501:../../Middlewares/Camera_Middleware/ISP_Library/isp/Src/isp_services.c ****     }
 446              		.loc 1 501 7 is_stmt 1 view .LVU122
 501:../../Middlewares/Camera_Middleware/ISP_Library/isp/Src/isp_services.c ****     }
 447              		.loc 1 501 19 is_stmt 0 view .LVU123
 448 006c 0121     		movs	r1, #1
 449 006e 2068     		ldr	r0, [r4]
 450              	.LVL32:
 501:../../Middlewares/Camera_Middleware/ISP_Library/isp/Src/isp_services.c ****     }
 451              		.loc 1 501 19 view .LVU124
 452 0070 FFF7FEFF 		bl	HAL_DCMIPP_PIPE_EnableISPRawBayer2RGB
 453              	.LVL33:
 501:../../Middlewares/Camera_Middleware/ISP_Library/isp/Src/isp_services.c ****     }
 454              		.loc 1 501 19 view .LVU125
 455 0074 E0E7     		b	.L23
 456              	.LVL34:
 457              	.L32:
 474:../../Middlewares/Camera_Middleware/ISP_Library/isp/Src/isp_services.c ****     {
 458              		.loc 1 474 5 view .LVU126
 459 0076 0423     		movs	r3, #4
 460 0078 ECE7     		b	.L24
 461              	.L31:
 464:../../Middlewares/Camera_Middleware/ISP_Library/isp/Src/isp_services.c ****   }
 462              		.loc 1 464 12 view .LVU127
 463 007a 0A20     		movs	r0, #10
 464 007c DEE7     		b	.L20
 465              		.cfi_endproc
 466              	.LFE850:
 468              		.section	.text.ISP_SVC_ISP_SetStatRemoval,"ax",%progbits
 469              		.align	1
 470              		.global	ISP_SVC_ISP_SetStatRemoval
 471              		.syntax unified
 472              		.thumb
 473              		.thumb_func
ARM GAS  C:\Users\Antonio\AppData\Local\Temp\ccF6VN3M.s 			page 19


 475              	ISP_SVC_ISP_SetStatRemoval:
 476              	.LVL35:
 477              	.LFB851:
 512:../../Middlewares/Camera_Middleware/ISP_Library/isp/Src/isp_services.c **** 
 513:../../Middlewares/Camera_Middleware/ISP_Library/isp/Src/isp_services.c **** /**
 514:../../Middlewares/Camera_Middleware/ISP_Library/isp/Src/isp_services.c ****   * @brief  ISP_SVC_ISP_SetStatRemoval
 515:../../Middlewares/Camera_Middleware/ISP_Library/isp/Src/isp_services.c ****   *         Set the ISP Stat Removal configuration
 516:../../Middlewares/Camera_Middleware/ISP_Library/isp/Src/isp_services.c ****   * @param  hIsp: ISP device handle
 517:../../Middlewares/Camera_Middleware/ISP_Library/isp/Src/isp_services.c ****   * @param  pConfig: Pointer to the Stat Removal configuration
 518:../../Middlewares/Camera_Middleware/ISP_Library/isp/Src/isp_services.c ****   * @retval operation result
 519:../../Middlewares/Camera_Middleware/ISP_Library/isp/Src/isp_services.c ****   */
 520:../../Middlewares/Camera_Middleware/ISP_Library/isp/Src/isp_services.c **** ISP_StatusTypeDef ISP_SVC_ISP_SetStatRemoval(ISP_HandleTypeDef *hIsp, ISP_StatRemovalTypeDef *pConf
 521:../../Middlewares/Camera_Middleware/ISP_Library/isp/Src/isp_services.c **** {
 478              		.loc 1 521 1 is_stmt 1 view -0
 479              		.cfi_startproc
 480              		@ args = 0, pretend = 0, frame = 0
 481              		@ frame_needed = 0, uses_anonymous_args = 0
 522:../../Middlewares/Camera_Middleware/ISP_Library/isp/Src/isp_services.c ****   HAL_StatusTypeDef halStatus;
 482              		.loc 1 522 3 view .LVU129
 523:../../Middlewares/Camera_Middleware/ISP_Library/isp/Src/isp_services.c **** 
 524:../../Middlewares/Camera_Middleware/ISP_Library/isp/Src/isp_services.c ****   if ((hIsp == NULL) || (pConfig == NULL) ||
 483              		.loc 1 524 3 view .LVU130
 521:../../Middlewares/Camera_Middleware/ISP_Library/isp/Src/isp_services.c ****   HAL_StatusTypeDef halStatus;
 484              		.loc 1 521 1 is_stmt 0 view .LVU131
 485 0000 10B5     		push	{r4, lr}
 486              		.cfi_def_cfa_offset 8
 487              		.cfi_offset 4, -8
 488              		.cfi_offset 14, -4
 489              		.loc 1 524 6 view .LVU132
 490 0002 0446     		mov	r4, r0
 491 0004 D8B1     		cbz	r0, .L49
 492              		.loc 1 524 22 discriminator 1 view .LVU133
 493 0006 D1B1     		cbz	r1, .L49
 525:../../Middlewares/Camera_Middleware/ISP_Library/isp/Src/isp_services.c ****       (pConfig->nbHeadLines > ISP_STATREMOVAL_HEADLINES_MAX) || (pConfig->nbValidLines > ISP_STATRE
 494              		.loc 1 525 15 view .LVU134
 495 0008 4A68     		ldr	r2, [r1, #4]
 524:../../Middlewares/Camera_Middleware/ISP_Library/isp/Src/isp_services.c ****       (pConfig->nbHeadLines > ISP_STATREMOVAL_HEADLINES_MAX) || (pConfig->nbValidLines > ISP_STATRE
 496              		.loc 1 524 43 discriminator 2 view .LVU135
 497 000a 072A     		cmp	r2, #7
 498 000c 17D8     		bhi	.L49
 499              		.loc 1 525 62 view .LVU136
 500 000e 40F6FE70 		movw	r0, #4094
 501              	.LVL36:
 502              		.loc 1 525 73 view .LVU137
 503 0012 8B68     		ldr	r3, [r1, #8]
 504              		.loc 1 525 62 view .LVU138
 505 0014 8342     		cmp	r3, r0
 506 0016 12D8     		bhi	.L49
 526:../../Middlewares/Camera_Middleware/ISP_Library/isp/Src/isp_services.c ****   {
 527:../../Middlewares/Camera_Middleware/ISP_Library/isp/Src/isp_services.c ****     return ISP_ERR_STATREMOVAL_EINVAL;
 528:../../Middlewares/Camera_Middleware/ISP_Library/isp/Src/isp_services.c ****   }
 529:../../Middlewares/Camera_Middleware/ISP_Library/isp/Src/isp_services.c **** 
 530:../../Middlewares/Camera_Middleware/ISP_Library/isp/Src/isp_services.c ****   if (pConfig->enable == 0)
 507              		.loc 1 530 3 is_stmt 1 view .LVU139
 508              		.loc 1 530 6 is_stmt 0 view .LVU140
 509 0018 0978     		ldrb	r1, [r1]	@ zero_extendqisi2
 510              	.LVL37:
ARM GAS  C:\Users\Antonio\AppData\Local\Temp\ccF6VN3M.s 			page 20


 531:../../Middlewares/Camera_Middleware/ISP_Library/isp/Src/isp_services.c ****   {
 532:../../Middlewares/Camera_Middleware/ISP_Library/isp/Src/isp_services.c ****     halStatus = HAL_DCMIPP_PIPE_DisableISPRemovalStatistic(hIsp->hDcmipp, DCMIPP_PIPE1);
 511              		.loc 1 532 64 view .LVU141
 512 001a 2068     		ldr	r0, [r4]
 530:../../Middlewares/Camera_Middleware/ISP_Library/isp/Src/isp_services.c ****   {
 513              		.loc 1 530 6 view .LVU142
 514 001c 21B9     		cbnz	r1, .L42
 515              		.loc 1 532 5 is_stmt 1 view .LVU143
 516              		.loc 1 532 17 is_stmt 0 view .LVU144
 517 001e 0121     		movs	r1, #1
 518 0020 FFF7FEFF 		bl	HAL_DCMIPP_PIPE_DisableISPRemovalStatistic
 519              	.LVL38:
 520              	.L43:
 533:../../Middlewares/Camera_Middleware/ISP_Library/isp/Src/isp_services.c ****   }
 534:../../Middlewares/Camera_Middleware/ISP_Library/isp/Src/isp_services.c ****   else
 535:../../Middlewares/Camera_Middleware/ISP_Library/isp/Src/isp_services.c ****   {
 536:../../Middlewares/Camera_Middleware/ISP_Library/isp/Src/isp_services.c ****     halStatus = HAL_DCMIPP_PIPE_SetISPRemovalStatisticConfig(hIsp->hDcmipp, DCMIPP_PIPE1, pConfig->
 537:../../Middlewares/Camera_Middleware/ISP_Library/isp/Src/isp_services.c **** 
 538:../../Middlewares/Camera_Middleware/ISP_Library/isp/Src/isp_services.c ****     if (halStatus == HAL_OK)
 539:../../Middlewares/Camera_Middleware/ISP_Library/isp/Src/isp_services.c ****     {
 540:../../Middlewares/Camera_Middleware/ISP_Library/isp/Src/isp_services.c ****       halStatus = HAL_DCMIPP_PIPE_EnableISPRemovalStatistic(hIsp->hDcmipp, DCMIPP_PIPE1);
 541:../../Middlewares/Camera_Middleware/ISP_Library/isp/Src/isp_services.c ****     }
 542:../../Middlewares/Camera_Middleware/ISP_Library/isp/Src/isp_services.c ****   }
 543:../../Middlewares/Camera_Middleware/ISP_Library/isp/Src/isp_services.c **** 
 544:../../Middlewares/Camera_Middleware/ISP_Library/isp/Src/isp_services.c ****   if (halStatus != HAL_OK)
 521              		.loc 1 544 3 is_stmt 1 view .LVU145
 522              		.loc 1 544 6 is_stmt 0 view .LVU146
 523 0024 28B1     		cbz	r0, .L41
 524              		.loc 1 544 6 view .LVU147
 525 0026 03E0     		b	.L45
 526              	.LVL39:
 527              	.L42:
 536:../../Middlewares/Camera_Middleware/ISP_Library/isp/Src/isp_services.c **** 
 528              		.loc 1 536 5 is_stmt 1 view .LVU148
 536:../../Middlewares/Camera_Middleware/ISP_Library/isp/Src/isp_services.c **** 
 529              		.loc 1 536 17 is_stmt 0 view .LVU149
 530 0028 0121     		movs	r1, #1
 531 002a FFF7FEFF 		bl	HAL_DCMIPP_PIPE_SetISPRemovalStatisticConfig
 532              	.LVL40:
 538:../../Middlewares/Camera_Middleware/ISP_Library/isp/Src/isp_services.c ****     {
 533              		.loc 1 538 5 is_stmt 1 view .LVU150
 538:../../Middlewares/Camera_Middleware/ISP_Library/isp/Src/isp_services.c ****     {
 534              		.loc 1 538 8 is_stmt 0 view .LVU151
 535 002e 08B1     		cbz	r0, .L44
 536              	.L45:
 545:../../Middlewares/Camera_Middleware/ISP_Library/isp/Src/isp_services.c ****   {
 546:../../Middlewares/Camera_Middleware/ISP_Library/isp/Src/isp_services.c ****     return ISP_ERR_STATREMOVAL_HAL;
 537              		.loc 1 546 12 view .LVU152
 538 0030 1520     		movs	r0, #21
 539              	.LVL41:
 540              	.L41:
 547:../../Middlewares/Camera_Middleware/ISP_Library/isp/Src/isp_services.c ****   }
 548:../../Middlewares/Camera_Middleware/ISP_Library/isp/Src/isp_services.c **** 
 549:../../Middlewares/Camera_Middleware/ISP_Library/isp/Src/isp_services.c ****   return ISP_OK;
 550:../../Middlewares/Camera_Middleware/ISP_Library/isp/Src/isp_services.c **** }
 541              		.loc 1 550 1 view .LVU153
 542 0032 10BD     		pop	{r4, pc}
ARM GAS  C:\Users\Antonio\AppData\Local\Temp\ccF6VN3M.s 			page 21


 543              	.LVL42:
 544              	.L44:
 540:../../Middlewares/Camera_Middleware/ISP_Library/isp/Src/isp_services.c ****     }
 545              		.loc 1 540 7 is_stmt 1 view .LVU154
 540:../../Middlewares/Camera_Middleware/ISP_Library/isp/Src/isp_services.c ****     }
 546              		.loc 1 540 19 is_stmt 0 view .LVU155
 547 0034 0121     		movs	r1, #1
 548 0036 2068     		ldr	r0, [r4]
 549              	.LVL43:
 540:../../Middlewares/Camera_Middleware/ISP_Library/isp/Src/isp_services.c ****     }
 550              		.loc 1 540 19 view .LVU156
 551 0038 FFF7FEFF 		bl	HAL_DCMIPP_PIPE_EnableISPRemovalStatistic
 552              	.LVL44:
 540:../../Middlewares/Camera_Middleware/ISP_Library/isp/Src/isp_services.c ****     }
 553              		.loc 1 540 19 view .LVU157
 554 003c F2E7     		b	.L43
 555              	.LVL45:
 556              	.L49:
 527:../../Middlewares/Camera_Middleware/ISP_Library/isp/Src/isp_services.c ****   }
 557              		.loc 1 527 12 view .LVU158
 558 003e 1420     		movs	r0, #20
 559 0040 F7E7     		b	.L41
 560              		.cfi_endproc
 561              	.LFE851:
 563              		.section	.text.ISP_SVC_ISP_SetDecimation,"ax",%progbits
 564              		.align	1
 565              		.global	ISP_SVC_ISP_SetDecimation
 566              		.syntax unified
 567              		.thumb
 568              		.thumb_func
 570              	ISP_SVC_ISP_SetDecimation:
 571              	.LVL46:
 572              	.LFB852:
 551:../../Middlewares/Camera_Middleware/ISP_Library/isp/Src/isp_services.c **** 
 552:../../Middlewares/Camera_Middleware/ISP_Library/isp/Src/isp_services.c **** /**
 553:../../Middlewares/Camera_Middleware/ISP_Library/isp/Src/isp_services.c ****   * @brief  ISP_SVC_ISP_SetDecimation
 554:../../Middlewares/Camera_Middleware/ISP_Library/isp/Src/isp_services.c ****   *         Set the ISP Decimation configuration
 555:../../Middlewares/Camera_Middleware/ISP_Library/isp/Src/isp_services.c ****   * @param  hIsp: ISP device handle
 556:../../Middlewares/Camera_Middleware/ISP_Library/isp/Src/isp_services.c ****   * @param  pConfig: Pointer to the decimation configuration
 557:../../Middlewares/Camera_Middleware/ISP_Library/isp/Src/isp_services.c ****   * @retval operation result
 558:../../Middlewares/Camera_Middleware/ISP_Library/isp/Src/isp_services.c ****   */
 559:../../Middlewares/Camera_Middleware/ISP_Library/isp/Src/isp_services.c **** ISP_StatusTypeDef ISP_SVC_ISP_SetDecimation(ISP_HandleTypeDef *hIsp, ISP_DecimationTypeDef *pConfig
 560:../../Middlewares/Camera_Middleware/ISP_Library/isp/Src/isp_services.c **** {
 573              		.loc 1 560 1 is_stmt 1 view -0
 574              		.cfi_startproc
 575              		@ args = 0, pretend = 0, frame = 8
 576              		@ frame_needed = 0, uses_anonymous_args = 0
 561:../../Middlewares/Camera_Middleware/ISP_Library/isp/Src/isp_services.c ****   DCMIPP_DecimationConfTypeDef decimationCfg;
 577              		.loc 1 561 3 view .LVU160
 562:../../Middlewares/Camera_Middleware/ISP_Library/isp/Src/isp_services.c ****   ISP_StatusTypeDef ret = ISP_OK;
 578              		.loc 1 562 3 view .LVU161
 563:../../Middlewares/Camera_Middleware/ISP_Library/isp/Src/isp_services.c **** 
 564:../../Middlewares/Camera_Middleware/ISP_Library/isp/Src/isp_services.c ****   /* Check handles validity */
 565:../../Middlewares/Camera_Middleware/ISP_Library/isp/Src/isp_services.c ****   if ((hIsp == NULL) || (pConfig == NULL))
 579              		.loc 1 565 3 view .LVU162
 560:../../Middlewares/Camera_Middleware/ISP_Library/isp/Src/isp_services.c ****   DCMIPP_DecimationConfTypeDef decimationCfg;
 580              		.loc 1 560 1 is_stmt 0 view .LVU163
ARM GAS  C:\Users\Antonio\AppData\Local\Temp\ccF6VN3M.s 			page 22


 581 0000 37B5     		push	{r0, r1, r2, r4, r5, lr}
 582              		.cfi_def_cfa_offset 24
 583              		.cfi_offset 4, -12
 584              		.cfi_offset 5, -8
 585              		.cfi_offset 14, -4
 560:../../Middlewares/Camera_Middleware/ISP_Library/isp/Src/isp_services.c ****   DCMIPP_DecimationConfTypeDef decimationCfg;
 586              		.loc 1 560 1 view .LVU164
 587 0002 0C46     		mov	r4, r1
 588              		.loc 1 565 6 view .LVU165
 589 0004 0546     		mov	r5, r0
 590 0006 50B3     		cbz	r0, .L61
 591              		.loc 1 565 22 discriminator 1 view .LVU166
 592 0008 49B3     		cbz	r1, .L61
 566:../../Middlewares/Camera_Middleware/ISP_Library/isp/Src/isp_services.c ****   {
 567:../../Middlewares/Camera_Middleware/ISP_Library/isp/Src/isp_services.c ****     return ISP_ERR_DECIMATION_EINVAL;
 568:../../Middlewares/Camera_Middleware/ISP_Library/isp/Src/isp_services.c ****   }
 569:../../Middlewares/Camera_Middleware/ISP_Library/isp/Src/isp_services.c **** 
 570:../../Middlewares/Camera_Middleware/ISP_Library/isp/Src/isp_services.c ****   switch (pConfig->factor)
 593              		.loc 1 570 3 is_stmt 1 view .LVU167
 594 000a 0B78     		ldrb	r3, [r1]	@ zero_extendqisi2
 595 000c 013B     		subs	r3, r3, #1
 596 000e 072B     		cmp	r3, #7
 597 0010 25D8     		bhi	.L61
 598 0012 DFE803F0 		tbb	[pc, r3]
 599              	.L53:
 600 0016 17       		.byte	(.L62-.L53)/2
 601 0017 04       		.byte	(.L55-.L53)/2
 602 0018 24       		.byte	(.L61-.L53)/2
 603 0019 11       		.byte	(.L54-.L53)/2
 604 001a 24       		.byte	(.L61-.L53)/2
 605 001b 24       		.byte	(.L61-.L53)/2
 606 001c 24       		.byte	(.L61-.L53)/2
 607 001d 14       		.byte	(.L52-.L53)/2
 608              		.p2align 1
 609              	.L55:
 610 001e 0823     		movs	r3, #8
 611 0020 0222     		movs	r2, #2
 612              	.L56:
 571:../../Middlewares/Camera_Middleware/ISP_Library/isp/Src/isp_services.c ****   {
 572:../../Middlewares/Camera_Middleware/ISP_Library/isp/Src/isp_services.c ****   case ISP_DECIM_FACTOR_1:
 573:../../Middlewares/Camera_Middleware/ISP_Library/isp/Src/isp_services.c ****     decimationCfg.VRatio = DCMIPP_VDEC_ALL;
 574:../../Middlewares/Camera_Middleware/ISP_Library/isp/Src/isp_services.c ****     decimationCfg.HRatio = DCMIPP_HDEC_ALL;
 613              		.loc 1 574 26 is_stmt 0 view .LVU168
 614 0022 CDE90032 		strd	r3, r2, [sp]
 575:../../Middlewares/Camera_Middleware/ISP_Library/isp/Src/isp_services.c ****     break;
 576:../../Middlewares/Camera_Middleware/ISP_Library/isp/Src/isp_services.c **** 
 577:../../Middlewares/Camera_Middleware/ISP_Library/isp/Src/isp_services.c ****   case ISP_DECIM_FACTOR_2:
 578:../../Middlewares/Camera_Middleware/ISP_Library/isp/Src/isp_services.c ****     decimationCfg.VRatio = DCMIPP_VDEC_1_OUT_2;
 579:../../Middlewares/Camera_Middleware/ISP_Library/isp/Src/isp_services.c ****     decimationCfg.HRatio = DCMIPP_HDEC_1_OUT_2;
 580:../../Middlewares/Camera_Middleware/ISP_Library/isp/Src/isp_services.c ****     break;
 581:../../Middlewares/Camera_Middleware/ISP_Library/isp/Src/isp_services.c **** 
 582:../../Middlewares/Camera_Middleware/ISP_Library/isp/Src/isp_services.c ****   case ISP_DECIM_FACTOR_4:
 583:../../Middlewares/Camera_Middleware/ISP_Library/isp/Src/isp_services.c ****     decimationCfg.VRatio = DCMIPP_VDEC_1_OUT_4;
 584:../../Middlewares/Camera_Middleware/ISP_Library/isp/Src/isp_services.c ****     decimationCfg.HRatio = DCMIPP_HDEC_1_OUT_4;
 585:../../Middlewares/Camera_Middleware/ISP_Library/isp/Src/isp_services.c ****     break;
 586:../../Middlewares/Camera_Middleware/ISP_Library/isp/Src/isp_services.c **** 
 587:../../Middlewares/Camera_Middleware/ISP_Library/isp/Src/isp_services.c ****   case ISP_DECIM_FACTOR_8:
ARM GAS  C:\Users\Antonio\AppData\Local\Temp\ccF6VN3M.s 			page 23


 588:../../Middlewares/Camera_Middleware/ISP_Library/isp/Src/isp_services.c ****     decimationCfg.VRatio = DCMIPP_VDEC_1_OUT_8;
 589:../../Middlewares/Camera_Middleware/ISP_Library/isp/Src/isp_services.c ****     decimationCfg.HRatio = DCMIPP_HDEC_1_OUT_8;
 590:../../Middlewares/Camera_Middleware/ISP_Library/isp/Src/isp_services.c ****     break;
 591:../../Middlewares/Camera_Middleware/ISP_Library/isp/Src/isp_services.c **** 
 592:../../Middlewares/Camera_Middleware/ISP_Library/isp/Src/isp_services.c ****   default:
 593:../../Middlewares/Camera_Middleware/ISP_Library/isp/Src/isp_services.c ****     return ISP_ERR_DECIMATION_EINVAL;
 594:../../Middlewares/Camera_Middleware/ISP_Library/isp/Src/isp_services.c ****   }
 595:../../Middlewares/Camera_Middleware/ISP_Library/isp/Src/isp_services.c **** 
 596:../../Middlewares/Camera_Middleware/ISP_Library/isp/Src/isp_services.c ****   if (HAL_DCMIPP_PIPE_SetISPDecimationConfig(hIsp->hDcmipp, DCMIPP_PIPE1, &decimationCfg) != HAL_OK
 615              		.loc 1 596 3 is_stmt 1 view .LVU169
 616              		.loc 1 596 7 is_stmt 0 view .LVU170
 617 0026 0121     		movs	r1, #1
 618              	.LVL47:
 619              		.loc 1 596 7 view .LVU171
 620 0028 6A46     		mov	r2, sp
 621 002a 2868     		ldr	r0, [r5]
 622              	.LVL48:
 623              		.loc 1 596 7 view .LVU172
 624 002c FFF7FEFF 		bl	HAL_DCMIPP_PIPE_SetISPDecimationConfig
 625              	.LVL49:
 626              		.loc 1 596 6 discriminator 1 view .LVU173
 627 0030 58B1     		cbz	r0, .L57
 628              	.L58:
 597:../../Middlewares/Camera_Middleware/ISP_Library/isp/Src/isp_services.c ****   {
 598:../../Middlewares/Camera_Middleware/ISP_Library/isp/Src/isp_services.c ****     return ISP_ERR_DECIMATION_HAL;
 629              		.loc 1 598 12 view .LVU174
 630 0032 1F20     		movs	r0, #31
 631              	.L51:
 599:../../Middlewares/Camera_Middleware/ISP_Library/isp/Src/isp_services.c ****   }
 600:../../Middlewares/Camera_Middleware/ISP_Library/isp/Src/isp_services.c **** 
 601:../../Middlewares/Camera_Middleware/ISP_Library/isp/Src/isp_services.c ****   if (HAL_DCMIPP_PIPE_EnableISPDecimation(hIsp->hDcmipp, DCMIPP_PIPE1) != HAL_OK)
 602:../../Middlewares/Camera_Middleware/ISP_Library/isp/Src/isp_services.c ****   {
 603:../../Middlewares/Camera_Middleware/ISP_Library/isp/Src/isp_services.c ****     return ISP_ERR_DECIMATION_HAL;
 604:../../Middlewares/Camera_Middleware/ISP_Library/isp/Src/isp_services.c ****   }
 605:../../Middlewares/Camera_Middleware/ISP_Library/isp/Src/isp_services.c **** 
 606:../../Middlewares/Camera_Middleware/ISP_Library/isp/Src/isp_services.c ****   /* Save decimation value */
 607:../../Middlewares/Camera_Middleware/ISP_Library/isp/Src/isp_services.c ****   ISP_DecimationValue.factor = pConfig->factor;
 608:../../Middlewares/Camera_Middleware/ISP_Library/isp/Src/isp_services.c **** 
 609:../../Middlewares/Camera_Middleware/ISP_Library/isp/Src/isp_services.c ****   return ret;
 610:../../Middlewares/Camera_Middleware/ISP_Library/isp/Src/isp_services.c **** }
 632              		.loc 1 610 1 view .LVU175
 633 0034 03B0     		add	sp, sp, #12
 634              		.cfi_remember_state
 635              		.cfi_def_cfa_offset 12
 636              		@ sp needed
 637 0036 30BD     		pop	{r4, r5, pc}
 638              	.LVL50:
 639              	.L54:
 640              		.cfi_restore_state
 583:../../Middlewares/Camera_Middleware/ISP_Library/isp/Src/isp_services.c ****     decimationCfg.HRatio = DCMIPP_HDEC_1_OUT_4;
 641              		.loc 1 583 5 is_stmt 1 view .LVU176
 584:../../Middlewares/Camera_Middleware/ISP_Library/isp/Src/isp_services.c ****     break;
 642              		.loc 1 584 5 view .LVU177
 585:../../Middlewares/Camera_Middleware/ISP_Library/isp/Src/isp_services.c **** 
 643              		.loc 1 585 5 view .LVU178
 644 0038 1023     		movs	r3, #16
 645 003a 0422     		movs	r2, #4
ARM GAS  C:\Users\Antonio\AppData\Local\Temp\ccF6VN3M.s 			page 24


 646 003c F1E7     		b	.L56
 647              	.L52:
 588:../../Middlewares/Camera_Middleware/ISP_Library/isp/Src/isp_services.c ****     decimationCfg.HRatio = DCMIPP_HDEC_1_OUT_8;
 648              		.loc 1 588 5 view .LVU179
 589:../../Middlewares/Camera_Middleware/ISP_Library/isp/Src/isp_services.c ****     break;
 649              		.loc 1 589 5 view .LVU180
 590:../../Middlewares/Camera_Middleware/ISP_Library/isp/Src/isp_services.c **** 
 650              		.loc 1 590 5 view .LVU181
 651 003e 1823     		movs	r3, #24
 652 0040 0622     		movs	r2, #6
 653 0042 EEE7     		b	.L56
 654              	.L62:
 570:../../Middlewares/Camera_Middleware/ISP_Library/isp/Src/isp_services.c ****   {
 655              		.loc 1 570 3 is_stmt 0 view .LVU182
 656 0044 0023     		movs	r3, #0
 657 0046 1A46     		mov	r2, r3
 658 0048 EBE7     		b	.L56
 659              	.LVL51:
 660              	.L57:
 601:../../Middlewares/Camera_Middleware/ISP_Library/isp/Src/isp_services.c ****   {
 661              		.loc 1 601 3 is_stmt 1 view .LVU183
 601:../../Middlewares/Camera_Middleware/ISP_Library/isp/Src/isp_services.c ****   {
 662              		.loc 1 601 7 is_stmt 0 view .LVU184
 663 004a 0121     		movs	r1, #1
 664 004c 2868     		ldr	r0, [r5]
 665 004e FFF7FEFF 		bl	HAL_DCMIPP_PIPE_EnableISPDecimation
 666              	.LVL52:
 601:../../Middlewares/Camera_Middleware/ISP_Library/isp/Src/isp_services.c ****   {
 667              		.loc 1 601 6 discriminator 1 view .LVU185
 668 0052 0028     		cmp	r0, #0
 669 0054 EDD1     		bne	.L58
 607:../../Middlewares/Camera_Middleware/ISP_Library/isp/Src/isp_services.c **** 
 670              		.loc 1 607 3 is_stmt 1 view .LVU186
 607:../../Middlewares/Camera_Middleware/ISP_Library/isp/Src/isp_services.c **** 
 671              		.loc 1 607 30 is_stmt 0 view .LVU187
 672 0056 2278     		ldrb	r2, [r4]	@ zero_extendqisi2
 673 0058 024B     		ldr	r3, .L63
 674 005a 1A70     		strb	r2, [r3]
 609:../../Middlewares/Camera_Middleware/ISP_Library/isp/Src/isp_services.c **** }
 675              		.loc 1 609 3 is_stmt 1 view .LVU188
 609:../../Middlewares/Camera_Middleware/ISP_Library/isp/Src/isp_services.c **** }
 676              		.loc 1 609 10 is_stmt 0 view .LVU189
 677 005c EAE7     		b	.L51
 678              	.LVL53:
 679              	.L61:
 570:../../Middlewares/Camera_Middleware/ISP_Library/isp/Src/isp_services.c ****   {
 680              		.loc 1 570 3 view .LVU190
 681 005e 1E20     		movs	r0, #30
 682              	.LVL54:
 570:../../Middlewares/Camera_Middleware/ISP_Library/isp/Src/isp_services.c ****   {
 683              		.loc 1 570 3 view .LVU191
 684 0060 E8E7     		b	.L51
 685              	.L64:
 686 0062 00BF     		.align	2
 687              	.L63:
 688 0064 00000000 		.word	ISP_DecimationValue
 689              		.cfi_endproc
ARM GAS  C:\Users\Antonio\AppData\Local\Temp\ccF6VN3M.s 			page 25


 690              	.LFE852:
 692              		.section	.text.ISP_SVC_ISP_GetDecimation,"ax",%progbits
 693              		.align	1
 694              		.global	ISP_SVC_ISP_GetDecimation
 695              		.syntax unified
 696              		.thumb
 697              		.thumb_func
 699              	ISP_SVC_ISP_GetDecimation:
 700              	.LVL55:
 701              	.LFB853:
 611:../../Middlewares/Camera_Middleware/ISP_Library/isp/Src/isp_services.c **** 
 612:../../Middlewares/Camera_Middleware/ISP_Library/isp/Src/isp_services.c **** /**
 613:../../Middlewares/Camera_Middleware/ISP_Library/isp/Src/isp_services.c ****   * @brief  ISP_SVC_ISP_GetDecimation
 614:../../Middlewares/Camera_Middleware/ISP_Library/isp/Src/isp_services.c ****   *         Get the ISP Decimation configuration
 615:../../Middlewares/Camera_Middleware/ISP_Library/isp/Src/isp_services.c ****   * @param  hIsp: ISP device handle
 616:../../Middlewares/Camera_Middleware/ISP_Library/isp/Src/isp_services.c ****   * @param  pConfig: Pointer to the decimation configuration
 617:../../Middlewares/Camera_Middleware/ISP_Library/isp/Src/isp_services.c ****   * @retval operation result
 618:../../Middlewares/Camera_Middleware/ISP_Library/isp/Src/isp_services.c ****   */
 619:../../Middlewares/Camera_Middleware/ISP_Library/isp/Src/isp_services.c **** ISP_StatusTypeDef ISP_SVC_ISP_GetDecimation(ISP_HandleTypeDef *hIsp, ISP_DecimationTypeDef *pConfig
 620:../../Middlewares/Camera_Middleware/ISP_Library/isp/Src/isp_services.c **** {
 702              		.loc 1 620 1 is_stmt 1 view -0
 703              		.cfi_startproc
 704              		@ args = 0, pretend = 0, frame = 0
 705              		@ frame_needed = 0, uses_anonymous_args = 0
 706              		@ link register save eliminated.
 621:../../Middlewares/Camera_Middleware/ISP_Library/isp/Src/isp_services.c ****   pConfig->factor = ISP_DecimationValue.factor;
 707              		.loc 1 621 3 view .LVU193
 708              		.loc 1 621 40 is_stmt 0 view .LVU194
 709 0000 024B     		ldr	r3, .L66
 622:../../Middlewares/Camera_Middleware/ISP_Library/isp/Src/isp_services.c **** 
 623:../../Middlewares/Camera_Middleware/ISP_Library/isp/Src/isp_services.c ****   return ISP_OK;
 624:../../Middlewares/Camera_Middleware/ISP_Library/isp/Src/isp_services.c **** }
 710              		.loc 1 624 1 view .LVU195
 711 0002 0020     		movs	r0, #0
 712              	.LVL56:
 621:../../Middlewares/Camera_Middleware/ISP_Library/isp/Src/isp_services.c ****   pConfig->factor = ISP_DecimationValue.factor;
 713              		.loc 1 621 19 view .LVU196
 714 0004 1B78     		ldrb	r3, [r3]	@ zero_extendqisi2
 715 0006 0B70     		strb	r3, [r1]
 623:../../Middlewares/Camera_Middleware/ISP_Library/isp/Src/isp_services.c **** }
 716              		.loc 1 623 3 is_stmt 1 view .LVU197
 717              		.loc 1 624 1 is_stmt 0 view .LVU198
 718 0008 7047     		bx	lr
 719              	.L67:
 720 000a 00BF     		.align	2
 721              	.L66:
 722 000c 00000000 		.word	ISP_DecimationValue
 723              		.cfi_endproc
 724              	.LFE853:
 726              		.section	.text.ISP_SVC_ISP_SetContrast,"ax",%progbits
 727              		.align	1
 728              		.global	ISP_SVC_ISP_SetContrast
 729              		.syntax unified
 730              		.thumb
 731              		.thumb_func
 733              	ISP_SVC_ISP_SetContrast:
 734              	.LVL57:
ARM GAS  C:\Users\Antonio\AppData\Local\Temp\ccF6VN3M.s 			page 26


 735              	.LFB854:
 625:../../Middlewares/Camera_Middleware/ISP_Library/isp/Src/isp_services.c **** 
 626:../../Middlewares/Camera_Middleware/ISP_Library/isp/Src/isp_services.c **** /**
 627:../../Middlewares/Camera_Middleware/ISP_Library/isp/Src/isp_services.c ****   * @brief  ISP_SVC_ISP_SetContrast
 628:../../Middlewares/Camera_Middleware/ISP_Library/isp/Src/isp_services.c ****   *         Set the ISP Contrast luminance coefficients
 629:../../Middlewares/Camera_Middleware/ISP_Library/isp/Src/isp_services.c ****   * @param  hIsp: ISP device handle
 630:../../Middlewares/Camera_Middleware/ISP_Library/isp/Src/isp_services.c ****   * @param  pConfig: Pointer to the contrast configuration
 631:../../Middlewares/Camera_Middleware/ISP_Library/isp/Src/isp_services.c ****   * @retval operation result
 632:../../Middlewares/Camera_Middleware/ISP_Library/isp/Src/isp_services.c ****   */
 633:../../Middlewares/Camera_Middleware/ISP_Library/isp/Src/isp_services.c **** ISP_StatusTypeDef ISP_SVC_ISP_SetContrast(ISP_HandleTypeDef *hIsp, ISP_ContrastTypeDef *pConfig)
 634:../../Middlewares/Camera_Middleware/ISP_Library/isp/Src/isp_services.c **** {
 736              		.loc 1 634 1 is_stmt 1 view -0
 737              		.cfi_startproc
 738              		@ args = 0, pretend = 0, frame = 16
 739              		@ frame_needed = 0, uses_anonymous_args = 0
 635:../../Middlewares/Camera_Middleware/ISP_Library/isp/Src/isp_services.c ****   HAL_StatusTypeDef halStatus;
 740              		.loc 1 635 3 view .LVU200
 636:../../Middlewares/Camera_Middleware/ISP_Library/isp/Src/isp_services.c ****   DCMIPP_ContrastConfTypeDef contrast;
 741              		.loc 1 636 3 view .LVU201
 637:../../Middlewares/Camera_Middleware/ISP_Library/isp/Src/isp_services.c **** 
 638:../../Middlewares/Camera_Middleware/ISP_Library/isp/Src/isp_services.c ****   if ((hIsp == NULL) || (pConfig == NULL) ||
 742              		.loc 1 638 3 view .LVU202
 634:../../Middlewares/Camera_Middleware/ISP_Library/isp/Src/isp_services.c ****   HAL_StatusTypeDef halStatus;
 743              		.loc 1 634 1 is_stmt 0 view .LVU203
 744 0000 2DE9F043 		push	{r4, r5, r6, r7, r8, r9, lr}
 745              		.cfi_def_cfa_offset 28
 746              		.cfi_offset 4, -28
 747              		.cfi_offset 5, -24
 748              		.cfi_offset 6, -20
 749              		.cfi_offset 7, -16
 750              		.cfi_offset 8, -12
 751              		.cfi_offset 9, -8
 752              		.cfi_offset 14, -4
 753              		.loc 1 638 6 view .LVU204
 754 0004 0546     		mov	r5, r0
 634:../../Middlewares/Camera_Middleware/ISP_Library/isp/Src/isp_services.c ****   HAL_StatusTypeDef halStatus;
 755              		.loc 1 634 1 view .LVU205
 756 0006 85B0     		sub	sp, sp, #20
 757              		.cfi_def_cfa_offset 48
 758              		.loc 1 638 6 view .LVU206
 759 0008 0028     		cmp	r0, #0
 760 000a 71D0     		beq	.L84
 761              		.loc 1 638 22 discriminator 1 view .LVU207
 762 000c 0029     		cmp	r1, #0
 763 000e 6FD0     		beq	.L84
 639:../../Middlewares/Camera_Middleware/ISP_Library/isp/Src/isp_services.c ****       (pConfig->coeff.LUM_0 > ISP_CONTAST_LUMCOEFF_MAX) ||  (pConfig->coeff.LUM_32 > ISP_CONTAST_LU
 764              		.loc 1 639 22 view .LVU208
 765 0010 4B68     		ldr	r3, [r1, #4]
 638:../../Middlewares/Camera_Middleware/ISP_Library/isp/Src/isp_services.c ****       (pConfig->coeff.LUM_0 > ISP_CONTAST_LUMCOEFF_MAX) ||  (pConfig->coeff.LUM_32 > ISP_CONTAST_LU
 766              		.loc 1 638 43 discriminator 2 view .LVU209
 767 0012 B3F5C57F 		cmp	r3, #394
 768 0016 6BD8     		bhi	.L84
 769              		.loc 1 639 76 view .LVU210
 770 0018 D1F80890 		ldr	r9, [r1, #8]
 771              		.loc 1 639 57 view .LVU211
 772 001c B9F5C57F 		cmp	r9, #394
 773 0020 66D8     		bhi	.L84
ARM GAS  C:\Users\Antonio\AppData\Local\Temp\ccF6VN3M.s 			page 27


 640:../../Middlewares/Camera_Middleware/ISP_Library/isp/Src/isp_services.c ****       (pConfig->coeff.LUM_64 > ISP_CONTAST_LUMCOEFF_MAX) || (pConfig->coeff.LUM_96 > ISP_CONTAST_LU
 774              		.loc 1 640 22 view .LVU212
 775 0022 D1F80C80 		ldr	r8, [r1, #12]
 639:../../Middlewares/Camera_Middleware/ISP_Library/isp/Src/isp_services.c ****       (pConfig->coeff.LUM_0 > ISP_CONTAST_LUMCOEFF_MAX) ||  (pConfig->coeff.LUM_32 > ISP_CONTAST_LU
 776              		.loc 1 639 112 discriminator 1 view .LVU213
 777 0026 B8F5C57F 		cmp	r8, #394
 778 002a 61D8     		bhi	.L84
 779              		.loc 1 640 76 view .LVU214
 780 002c D1F810E0 		ldr	lr, [r1, #16]
 781              		.loc 1 640 58 view .LVU215
 782 0030 BEF5C57F 		cmp	lr, #394
 783 0034 5CD8     		bhi	.L84
 641:../../Middlewares/Camera_Middleware/ISP_Library/isp/Src/isp_services.c ****       (pConfig->coeff.LUM_128 > ISP_CONTAST_LUMCOEFF_MAX) || (pConfig->coeff.LUM_160 > ISP_CONTAST_
 784              		.loc 1 641 22 view .LVU216
 785 0036 D1F814C0 		ldr	ip, [r1, #20]
 640:../../Middlewares/Camera_Middleware/ISP_Library/isp/Src/isp_services.c ****       (pConfig->coeff.LUM_64 > ISP_CONTAST_LUMCOEFF_MAX) || (pConfig->coeff.LUM_96 > ISP_CONTAST_LU
 786              		.loc 1 640 112 discriminator 1 view .LVU217
 787 003a BCF5C57F 		cmp	ip, #394
 788 003e 57D8     		bhi	.L84
 789              		.loc 1 641 77 view .LVU218
 790 0040 8F69     		ldr	r7, [r1, #24]
 791              		.loc 1 641 59 view .LVU219
 792 0042 B7F5C57F 		cmp	r7, #394
 793 0046 53D8     		bhi	.L84
 642:../../Middlewares/Camera_Middleware/ISP_Library/isp/Src/isp_services.c ****       (pConfig->coeff.LUM_192 > ISP_CONTAST_LUMCOEFF_MAX) || (pConfig->coeff.LUM_224 > ISP_CONTAST_
 794              		.loc 1 642 22 view .LVU220
 795 0048 CE69     		ldr	r6, [r1, #28]
 641:../../Middlewares/Camera_Middleware/ISP_Library/isp/Src/isp_services.c ****       (pConfig->coeff.LUM_128 > ISP_CONTAST_LUMCOEFF_MAX) || (pConfig->coeff.LUM_160 > ISP_CONTAST_
 796              		.loc 1 641 114 discriminator 1 view .LVU221
 797 004a B6F5C57F 		cmp	r6, #394
 798 004e 4FD8     		bhi	.L84
 799              		.loc 1 642 77 view .LVU222
 800 0050 0C6A     		ldr	r4, [r1, #32]
 801              		.loc 1 642 59 view .LVU223
 802 0052 B4F5C57F 		cmp	r4, #394
 803 0056 4BD8     		bhi	.L84
 643:../../Middlewares/Camera_Middleware/ISP_Library/isp/Src/isp_services.c ****       (pConfig->coeff.LUM_256 > ISP_CONTAST_LUMCOEFF_MAX))
 804              		.loc 1 643 22 view .LVU224
 805 0058 4A6A     		ldr	r2, [r1, #36]
 642:../../Middlewares/Camera_Middleware/ISP_Library/isp/Src/isp_services.c ****       (pConfig->coeff.LUM_192 > ISP_CONTAST_LUMCOEFF_MAX) || (pConfig->coeff.LUM_224 > ISP_CONTAST_
 806              		.loc 1 642 114 discriminator 1 view .LVU225
 807 005a B2F5C57F 		cmp	r2, #394
 808 005e 47D8     		bhi	.L84
 644:../../Middlewares/Camera_Middleware/ISP_Library/isp/Src/isp_services.c ****   {
 645:../../Middlewares/Camera_Middleware/ISP_Library/isp/Src/isp_services.c ****     return ISP_ERR_CONTRAST_EINVAL;
 646:../../Middlewares/Camera_Middleware/ISP_Library/isp/Src/isp_services.c ****   }
 647:../../Middlewares/Camera_Middleware/ISP_Library/isp/Src/isp_services.c **** 
 648:../../Middlewares/Camera_Middleware/ISP_Library/isp/Src/isp_services.c ****   if (pConfig->enable == 0)
 809              		.loc 1 648 3 is_stmt 1 view .LVU226
 810              		.loc 1 648 6 is_stmt 0 view .LVU227
 811 0060 0978     		ldrb	r1, [r1]	@ zero_extendqisi2
 812              	.LVL58:
 649:../../Middlewares/Camera_Middleware/ISP_Library/isp/Src/isp_services.c ****   {
 650:../../Middlewares/Camera_Middleware/ISP_Library/isp/Src/isp_services.c ****     halStatus = HAL_DCMIPP_PIPE_DisableISPCtrlContrast(hIsp->hDcmipp, DCMIPP_PIPE1);
 813              		.loc 1 650 60 view .LVU228
 814 0062 0068     		ldr	r0, [r0]
 815              	.LVL59:
ARM GAS  C:\Users\Antonio\AppData\Local\Temp\ccF6VN3M.s 			page 28


 648:../../Middlewares/Camera_Middleware/ISP_Library/isp/Src/isp_services.c ****   {
 816              		.loc 1 648 6 view .LVU229
 817 0064 21B9     		cbnz	r1, .L70
 818              		.loc 1 650 5 is_stmt 1 view .LVU230
 819              		.loc 1 650 17 is_stmt 0 view .LVU231
 820 0066 0121     		movs	r1, #1
 821 0068 FFF7FEFF 		bl	HAL_DCMIPP_PIPE_DisableISPCtrlContrast
 822              	.LVL60:
 823              	.L71:
 651:../../Middlewares/Camera_Middleware/ISP_Library/isp/Src/isp_services.c ****   }
 652:../../Middlewares/Camera_Middleware/ISP_Library/isp/Src/isp_services.c ****   else
 653:../../Middlewares/Camera_Middleware/ISP_Library/isp/Src/isp_services.c ****   {
 654:../../Middlewares/Camera_Middleware/ISP_Library/isp/Src/isp_services.c ****     /* Concert coefficient unit from "percentage" to "6 bit" */
 655:../../Middlewares/Camera_Middleware/ISP_Library/isp/Src/isp_services.c ****     contrast.LUM_0 = (pConfig->coeff.LUM_0 * 16) / 100;
 656:../../Middlewares/Camera_Middleware/ISP_Library/isp/Src/isp_services.c ****     contrast.LUM_32 = (pConfig->coeff.LUM_32 * 16) / 100;
 657:../../Middlewares/Camera_Middleware/ISP_Library/isp/Src/isp_services.c ****     contrast.LUM_64 = (pConfig->coeff.LUM_64 * 16) / 100;
 658:../../Middlewares/Camera_Middleware/ISP_Library/isp/Src/isp_services.c ****     contrast.LUM_96 = (pConfig->coeff.LUM_96 * 16) / 100;
 659:../../Middlewares/Camera_Middleware/ISP_Library/isp/Src/isp_services.c ****     contrast.LUM_128 = (pConfig->coeff.LUM_128 * 16) / 100;
 660:../../Middlewares/Camera_Middleware/ISP_Library/isp/Src/isp_services.c ****     contrast.LUM_160 = (pConfig->coeff.LUM_160 * 16) / 100;
 661:../../Middlewares/Camera_Middleware/ISP_Library/isp/Src/isp_services.c ****     contrast.LUM_192 = (pConfig->coeff.LUM_192 * 16) / 100;
 662:../../Middlewares/Camera_Middleware/ISP_Library/isp/Src/isp_services.c ****     contrast.LUM_224 = (pConfig->coeff.LUM_224 * 16) / 100;
 663:../../Middlewares/Camera_Middleware/ISP_Library/isp/Src/isp_services.c ****     contrast.LUM_256 = (pConfig->coeff.LUM_256 * 16) / 100;
 664:../../Middlewares/Camera_Middleware/ISP_Library/isp/Src/isp_services.c ****     halStatus = HAL_DCMIPP_PIPE_SetISPCtrlContrastConfig(hIsp->hDcmipp, DCMIPP_PIPE1, &contrast);
 665:../../Middlewares/Camera_Middleware/ISP_Library/isp/Src/isp_services.c **** 
 666:../../Middlewares/Camera_Middleware/ISP_Library/isp/Src/isp_services.c ****     if (halStatus == HAL_OK)
 667:../../Middlewares/Camera_Middleware/ISP_Library/isp/Src/isp_services.c ****     {
 668:../../Middlewares/Camera_Middleware/ISP_Library/isp/Src/isp_services.c ****       halStatus = HAL_DCMIPP_PIPE_EnableISPCtrlContrast(hIsp->hDcmipp, DCMIPP_PIPE1);
 669:../../Middlewares/Camera_Middleware/ISP_Library/isp/Src/isp_services.c ****     }
 670:../../Middlewares/Camera_Middleware/ISP_Library/isp/Src/isp_services.c ****   }
 671:../../Middlewares/Camera_Middleware/ISP_Library/isp/Src/isp_services.c **** 
 672:../../Middlewares/Camera_Middleware/ISP_Library/isp/Src/isp_services.c ****   if (halStatus != HAL_OK)
 824              		.loc 1 672 3 is_stmt 1 view .LVU232
 825              		.loc 1 672 6 is_stmt 0 view .LVU233
 826 006c C0B3     		cbz	r0, .L69
 827              		.loc 1 672 6 view .LVU234
 828 006e 36E0     		b	.L73
 829              	.LVL61:
 830              	.L70:
 655:../../Middlewares/Camera_Middleware/ISP_Library/isp/Src/isp_services.c ****     contrast.LUM_32 = (pConfig->coeff.LUM_32 * 16) / 100;
 831              		.loc 1 655 5 is_stmt 1 view .LVU235
 655:../../Middlewares/Camera_Middleware/ISP_Library/isp/Src/isp_services.c ****     contrast.LUM_32 = (pConfig->coeff.LUM_32 * 16) / 100;
 832              		.loc 1 655 44 is_stmt 0 view .LVU236
 833 0070 1901     		lsls	r1, r3, #4
 655:../../Middlewares/Camera_Middleware/ISP_Library/isp/Src/isp_services.c ****     contrast.LUM_32 = (pConfig->coeff.LUM_32 * 16) / 100;
 834              		.loc 1 655 50 view .LVU237
 835 0072 6423     		movs	r3, #100
 663:../../Middlewares/Camera_Middleware/ISP_Library/isp/Src/isp_services.c ****     halStatus = HAL_DCMIPP_PIPE_SetISPCtrlContrastConfig(hIsp->hDcmipp, DCMIPP_PIPE1, &contrast);
 836              		.loc 1 663 48 view .LVU238
 837 0074 1201     		lsls	r2, r2, #4
 655:../../Middlewares/Camera_Middleware/ISP_Library/isp/Src/isp_services.c ****     contrast.LUM_32 = (pConfig->coeff.LUM_32 * 16) / 100;
 838              		.loc 1 655 50 view .LVU239
 839 0076 B1FBF3F1 		udiv	r1, r1, r3
 663:../../Middlewares/Camera_Middleware/ISP_Library/isp/Src/isp_services.c ****     halStatus = HAL_DCMIPP_PIPE_SetISPCtrlContrastConfig(hIsp->hDcmipp, DCMIPP_PIPE1, &contrast);
 840              		.loc 1 663 54 view .LVU240
 841 007a B2FBF3F2 		udiv	r2, r2, r3
 656:../../Middlewares/Camera_Middleware/ISP_Library/isp/Src/isp_services.c ****     contrast.LUM_64 = (pConfig->coeff.LUM_64 * 16) / 100;
 842              		.loc 1 656 46 view .LVU241
ARM GAS  C:\Users\Antonio\AppData\Local\Temp\ccF6VN3M.s 			page 29


 843 007e 4FEA0919 		lsl	r9, r9, #4
 657:../../Middlewares/Camera_Middleware/ISP_Library/isp/Src/isp_services.c ****     contrast.LUM_96 = (pConfig->coeff.LUM_96 * 16) / 100;
 844              		.loc 1 657 46 view .LVU242
 845 0082 4FEA0818 		lsl	r8, r8, #4
 658:../../Middlewares/Camera_Middleware/ISP_Library/isp/Src/isp_services.c ****     contrast.LUM_128 = (pConfig->coeff.LUM_128 * 16) / 100;
 846              		.loc 1 658 46 view .LVU243
 847 0086 4FEA0E1E 		lsl	lr, lr, #4
 659:../../Middlewares/Camera_Middleware/ISP_Library/isp/Src/isp_services.c ****     contrast.LUM_160 = (pConfig->coeff.LUM_160 * 16) / 100;
 848              		.loc 1 659 48 view .LVU244
 849 008a 4FEA0C1C 		lsl	ip, ip, #4
 660:../../Middlewares/Camera_Middleware/ISP_Library/isp/Src/isp_services.c ****     contrast.LUM_192 = (pConfig->coeff.LUM_192 * 16) / 100;
 850              		.loc 1 660 48 view .LVU245
 851 008e 3F01     		lsls	r7, r7, #4
 661:../../Middlewares/Camera_Middleware/ISP_Library/isp/Src/isp_services.c ****     contrast.LUM_224 = (pConfig->coeff.LUM_224 * 16) / 100;
 852              		.loc 1 661 48 view .LVU246
 853 0090 3601     		lsls	r6, r6, #4
 662:../../Middlewares/Camera_Middleware/ISP_Library/isp/Src/isp_services.c ****     contrast.LUM_256 = (pConfig->coeff.LUM_256 * 16) / 100;
 854              		.loc 1 662 48 view .LVU247
 855 0092 2401     		lsls	r4, r4, #4
 656:../../Middlewares/Camera_Middleware/ISP_Library/isp/Src/isp_services.c ****     contrast.LUM_64 = (pConfig->coeff.LUM_64 * 16) / 100;
 856              		.loc 1 656 52 view .LVU248
 857 0094 B9FBF3F9 		udiv	r9, r9, r3
 657:../../Middlewares/Camera_Middleware/ISP_Library/isp/Src/isp_services.c ****     contrast.LUM_96 = (pConfig->coeff.LUM_96 * 16) / 100;
 858              		.loc 1 657 52 view .LVU249
 859 0098 B8FBF3F8 		udiv	r8, r8, r3
 658:../../Middlewares/Camera_Middleware/ISP_Library/isp/Src/isp_services.c ****     contrast.LUM_128 = (pConfig->coeff.LUM_128 * 16) / 100;
 860              		.loc 1 658 52 view .LVU250
 861 009c BEFBF3FE 		udiv	lr, lr, r3
 659:../../Middlewares/Camera_Middleware/ISP_Library/isp/Src/isp_services.c ****     contrast.LUM_160 = (pConfig->coeff.LUM_160 * 16) / 100;
 862              		.loc 1 659 54 view .LVU251
 863 00a0 BCFBF3FC 		udiv	ip, ip, r3
 660:../../Middlewares/Camera_Middleware/ISP_Library/isp/Src/isp_services.c ****     contrast.LUM_192 = (pConfig->coeff.LUM_192 * 16) / 100;
 864              		.loc 1 660 54 view .LVU252
 865 00a4 B7FBF3F7 		udiv	r7, r7, r3
 661:../../Middlewares/Camera_Middleware/ISP_Library/isp/Src/isp_services.c ****     contrast.LUM_224 = (pConfig->coeff.LUM_224 * 16) / 100;
 866              		.loc 1 661 54 view .LVU253
 867 00a8 B6FBF3F6 		udiv	r6, r6, r3
 662:../../Middlewares/Camera_Middleware/ISP_Library/isp/Src/isp_services.c ****     contrast.LUM_256 = (pConfig->coeff.LUM_256 * 16) / 100;
 868              		.loc 1 662 54 view .LVU254
 869 00ac B4FBF3F4 		udiv	r4, r4, r3
 655:../../Middlewares/Camera_Middleware/ISP_Library/isp/Src/isp_services.c ****     contrast.LUM_32 = (pConfig->coeff.LUM_32 * 16) / 100;
 870              		.loc 1 655 20 view .LVU255
 871 00b0 8DF80410 		strb	r1, [sp, #4]
 656:../../Middlewares/Camera_Middleware/ISP_Library/isp/Src/isp_services.c ****     contrast.LUM_64 = (pConfig->coeff.LUM_64 * 16) / 100;
 872              		.loc 1 656 5 is_stmt 1 view .LVU256
 663:../../Middlewares/Camera_Middleware/ISP_Library/isp/Src/isp_services.c ****     halStatus = HAL_DCMIPP_PIPE_SetISPCtrlContrastConfig(hIsp->hDcmipp, DCMIPP_PIPE1, &contrast);
 873              		.loc 1 663 22 is_stmt 0 view .LVU257
 874 00b4 8DF80C20 		strb	r2, [sp, #12]
 664:../../Middlewares/Camera_Middleware/ISP_Library/isp/Src/isp_services.c **** 
 875              		.loc 1 664 17 view .LVU258
 876 00b8 0121     		movs	r1, #1
 877 00ba 01AA     		add	r2, sp, #4
 656:../../Middlewares/Camera_Middleware/ISP_Library/isp/Src/isp_services.c ****     contrast.LUM_64 = (pConfig->coeff.LUM_64 * 16) / 100;
 878              		.loc 1 656 21 view .LVU259
 879 00bc 8DF80590 		strb	r9, [sp, #5]
 657:../../Middlewares/Camera_Middleware/ISP_Library/isp/Src/isp_services.c ****     contrast.LUM_96 = (pConfig->coeff.LUM_96 * 16) / 100;
 880              		.loc 1 657 5 is_stmt 1 view .LVU260
ARM GAS  C:\Users\Antonio\AppData\Local\Temp\ccF6VN3M.s 			page 30


 657:../../Middlewares/Camera_Middleware/ISP_Library/isp/Src/isp_services.c ****     contrast.LUM_96 = (pConfig->coeff.LUM_96 * 16) / 100;
 881              		.loc 1 657 21 is_stmt 0 view .LVU261
 882 00c0 8DF80680 		strb	r8, [sp, #6]
 658:../../Middlewares/Camera_Middleware/ISP_Library/isp/Src/isp_services.c ****     contrast.LUM_128 = (pConfig->coeff.LUM_128 * 16) / 100;
 883              		.loc 1 658 5 is_stmt 1 view .LVU262
 658:../../Middlewares/Camera_Middleware/ISP_Library/isp/Src/isp_services.c ****     contrast.LUM_128 = (pConfig->coeff.LUM_128 * 16) / 100;
 884              		.loc 1 658 21 is_stmt 0 view .LVU263
 885 00c4 8DF807E0 		strb	lr, [sp, #7]
 659:../../Middlewares/Camera_Middleware/ISP_Library/isp/Src/isp_services.c ****     contrast.LUM_160 = (pConfig->coeff.LUM_160 * 16) / 100;
 886              		.loc 1 659 5 is_stmt 1 view .LVU264
 659:../../Middlewares/Camera_Middleware/ISP_Library/isp/Src/isp_services.c ****     contrast.LUM_160 = (pConfig->coeff.LUM_160 * 16) / 100;
 887              		.loc 1 659 22 is_stmt 0 view .LVU265
 888 00c8 8DF808C0 		strb	ip, [sp, #8]
 660:../../Middlewares/Camera_Middleware/ISP_Library/isp/Src/isp_services.c ****     contrast.LUM_192 = (pConfig->coeff.LUM_192 * 16) / 100;
 889              		.loc 1 660 5 is_stmt 1 view .LVU266
 660:../../Middlewares/Camera_Middleware/ISP_Library/isp/Src/isp_services.c ****     contrast.LUM_192 = (pConfig->coeff.LUM_192 * 16) / 100;
 890              		.loc 1 660 22 is_stmt 0 view .LVU267
 891 00cc 8DF80970 		strb	r7, [sp, #9]
 661:../../Middlewares/Camera_Middleware/ISP_Library/isp/Src/isp_services.c ****     contrast.LUM_224 = (pConfig->coeff.LUM_224 * 16) / 100;
 892              		.loc 1 661 5 is_stmt 1 view .LVU268
 661:../../Middlewares/Camera_Middleware/ISP_Library/isp/Src/isp_services.c ****     contrast.LUM_224 = (pConfig->coeff.LUM_224 * 16) / 100;
 893              		.loc 1 661 22 is_stmt 0 view .LVU269
 894 00d0 8DF80A60 		strb	r6, [sp, #10]
 662:../../Middlewares/Camera_Middleware/ISP_Library/isp/Src/isp_services.c ****     contrast.LUM_256 = (pConfig->coeff.LUM_256 * 16) / 100;
 895              		.loc 1 662 5 is_stmt 1 view .LVU270
 662:../../Middlewares/Camera_Middleware/ISP_Library/isp/Src/isp_services.c ****     contrast.LUM_256 = (pConfig->coeff.LUM_256 * 16) / 100;
 896              		.loc 1 662 22 is_stmt 0 view .LVU271
 897 00d4 8DF80B40 		strb	r4, [sp, #11]
 663:../../Middlewares/Camera_Middleware/ISP_Library/isp/Src/isp_services.c ****     halStatus = HAL_DCMIPP_PIPE_SetISPCtrlContrastConfig(hIsp->hDcmipp, DCMIPP_PIPE1, &contrast);
 898              		.loc 1 663 5 is_stmt 1 view .LVU272
 664:../../Middlewares/Camera_Middleware/ISP_Library/isp/Src/isp_services.c **** 
 899              		.loc 1 664 5 view .LVU273
 664:../../Middlewares/Camera_Middleware/ISP_Library/isp/Src/isp_services.c **** 
 900              		.loc 1 664 17 is_stmt 0 view .LVU274
 901 00d8 FFF7FEFF 		bl	HAL_DCMIPP_PIPE_SetISPCtrlContrastConfig
 902              	.LVL62:
 666:../../Middlewares/Camera_Middleware/ISP_Library/isp/Src/isp_services.c ****     {
 903              		.loc 1 666 5 is_stmt 1 view .LVU275
 666:../../Middlewares/Camera_Middleware/ISP_Library/isp/Src/isp_services.c ****     {
 904              		.loc 1 666 8 is_stmt 0 view .LVU276
 905 00dc 18B1     		cbz	r0, .L72
 906              	.L73:
 673:../../Middlewares/Camera_Middleware/ISP_Library/isp/Src/isp_services.c ****   {
 674:../../Middlewares/Camera_Middleware/ISP_Library/isp/Src/isp_services.c ****     return ISP_ERR_CONTRAST_HAL;
 907              		.loc 1 674 12 view .LVU277
 908 00de 2920     		movs	r0, #41
 909              	.LVL63:
 910              	.L69:
 675:../../Middlewares/Camera_Middleware/ISP_Library/isp/Src/isp_services.c ****   }
 676:../../Middlewares/Camera_Middleware/ISP_Library/isp/Src/isp_services.c **** 
 677:../../Middlewares/Camera_Middleware/ISP_Library/isp/Src/isp_services.c ****   return ISP_OK;
 678:../../Middlewares/Camera_Middleware/ISP_Library/isp/Src/isp_services.c **** }
 911              		.loc 1 678 1 view .LVU278
 912 00e0 05B0     		add	sp, sp, #20
 913              		.cfi_remember_state
 914              		.cfi_def_cfa_offset 28
 915              		@ sp needed
ARM GAS  C:\Users\Antonio\AppData\Local\Temp\ccF6VN3M.s 			page 31


 916 00e2 BDE8F083 		pop	{r4, r5, r6, r7, r8, r9, pc}
 917              	.LVL64:
 918              	.L72:
 919              		.cfi_restore_state
 668:../../Middlewares/Camera_Middleware/ISP_Library/isp/Src/isp_services.c ****     }
 920              		.loc 1 668 7 is_stmt 1 view .LVU279
 668:../../Middlewares/Camera_Middleware/ISP_Library/isp/Src/isp_services.c ****     }
 921              		.loc 1 668 19 is_stmt 0 view .LVU280
 922 00e6 0121     		movs	r1, #1
 923 00e8 2868     		ldr	r0, [r5]
 924              	.LVL65:
 668:../../Middlewares/Camera_Middleware/ISP_Library/isp/Src/isp_services.c ****     }
 925              		.loc 1 668 19 view .LVU281
 926 00ea FFF7FEFF 		bl	HAL_DCMIPP_PIPE_EnableISPCtrlContrast
 927              	.LVL66:
 668:../../Middlewares/Camera_Middleware/ISP_Library/isp/Src/isp_services.c ****     }
 928              		.loc 1 668 19 view .LVU282
 929 00ee BDE7     		b	.L71
 930              	.LVL67:
 931              	.L84:
 645:../../Middlewares/Camera_Middleware/ISP_Library/isp/Src/isp_services.c ****   }
 932              		.loc 1 645 12 view .LVU283
 933 00f0 2820     		movs	r0, #40
 934              	.LVL68:
 645:../../Middlewares/Camera_Middleware/ISP_Library/isp/Src/isp_services.c ****   }
 935              		.loc 1 645 12 view .LVU284
 936 00f2 F5E7     		b	.L69
 937              		.cfi_endproc
 938              	.LFE854:
 940              		.section	.text.ISP_SVC_ISP_SetStatArea,"ax",%progbits
 941              		.align	1
 942              		.global	ISP_SVC_ISP_SetStatArea
 943              		.syntax unified
 944              		.thumb
 945              		.thumb_func
 947              	ISP_SVC_ISP_SetStatArea:
 948              	.LVL69:
 949              	.LFB855:
 679:../../Middlewares/Camera_Middleware/ISP_Library/isp/Src/isp_services.c **** 
 680:../../Middlewares/Camera_Middleware/ISP_Library/isp/Src/isp_services.c **** /**
 681:../../Middlewares/Camera_Middleware/ISP_Library/isp/Src/isp_services.c ****   * @brief  ISP_SVC_ISP_SetStatArea
 682:../../Middlewares/Camera_Middleware/ISP_Library/isp/Src/isp_services.c ****   *         Set the ISP Statistic area
 683:../../Middlewares/Camera_Middleware/ISP_Library/isp/Src/isp_services.c ****   * @param  hIsp: ISP device handle
 684:../../Middlewares/Camera_Middleware/ISP_Library/isp/Src/isp_services.c ****   * @param  pConfig: Pointer to statistic area used by the IQ algorithms
 685:../../Middlewares/Camera_Middleware/ISP_Library/isp/Src/isp_services.c ****   * @retval operation result
 686:../../Middlewares/Camera_Middleware/ISP_Library/isp/Src/isp_services.c ****   */
 687:../../Middlewares/Camera_Middleware/ISP_Library/isp/Src/isp_services.c **** ISP_StatusTypeDef ISP_SVC_ISP_SetStatArea(ISP_HandleTypeDef *hIsp, ISP_StatAreaTypeDef *pConfig)
 688:../../Middlewares/Camera_Middleware/ISP_Library/isp/Src/isp_services.c **** {
 950              		.loc 1 688 1 is_stmt 1 view -0
 951              		.cfi_startproc
 952              		@ args = 0, pretend = 0, frame = 16
 953              		@ frame_needed = 0, uses_anonymous_args = 0
 689:../../Middlewares/Camera_Middleware/ISP_Library/isp/Src/isp_services.c ****   HAL_StatusTypeDef halStatus;
 954              		.loc 1 689 3 view .LVU286
 690:../../Middlewares/Camera_Middleware/ISP_Library/isp/Src/isp_services.c ****   DCMIPP_StatisticExtractionAreaConfTypeDef currentStatAreaCfg;
 955              		.loc 1 690 3 view .LVU287
 691:../../Middlewares/Camera_Middleware/ISP_Library/isp/Src/isp_services.c ****   ISP_StatusTypeDef ret = ISP_OK;
ARM GAS  C:\Users\Antonio\AppData\Local\Temp\ccF6VN3M.s 			page 32


 956              		.loc 1 691 3 view .LVU288
 692:../../Middlewares/Camera_Middleware/ISP_Library/isp/Src/isp_services.c **** 
 693:../../Middlewares/Camera_Middleware/ISP_Library/isp/Src/isp_services.c ****   if ((hIsp == NULL) || (pConfig == NULL) ||
 957              		.loc 1 693 3 view .LVU289
 688:../../Middlewares/Camera_Middleware/ISP_Library/isp/Src/isp_services.c ****   HAL_StatusTypeDef halStatus;
 958              		.loc 1 688 1 is_stmt 0 view .LVU290
 959 0000 F0B5     		push	{r4, r5, r6, r7, lr}
 960              		.cfi_def_cfa_offset 20
 961              		.cfi_offset 4, -20
 962              		.cfi_offset 5, -16
 963              		.cfi_offset 6, -12
 964              		.cfi_offset 7, -8
 965              		.cfi_offset 14, -4
 966 0002 0E46     		mov	r6, r1
 967              		.loc 1 693 6 view .LVU291
 968 0004 0546     		mov	r5, r0
 688:../../Middlewares/Camera_Middleware/ISP_Library/isp/Src/isp_services.c ****   HAL_StatusTypeDef halStatus;
 969              		.loc 1 688 1 view .LVU292
 970 0006 85B0     		sub	sp, sp, #20
 971              		.cfi_def_cfa_offset 40
 972              		.loc 1 693 6 view .LVU293
 973 0008 0028     		cmp	r0, #0
 974 000a 41D0     		beq	.L97
 975              		.loc 1 693 22 discriminator 1 view .LVU294
 976 000c 0029     		cmp	r1, #0
 977 000e 3FD0     		beq	.L97
 978              		.loc 1 693 43 discriminator 2 view .LVU295
 979 0010 40F6FE72 		movw	r2, #4094
 694:../../Middlewares/Camera_Middleware/ISP_Library/isp/Src/isp_services.c ****       (pConfig->X0 > ISP_STATWINDOW_MAX) ||
 980              		.loc 1 694 15 view .LVU296
 981 0014 0868     		ldr	r0, [r1]
 982              	.LVL70:
 693:../../Middlewares/Camera_Middleware/ISP_Library/isp/Src/isp_services.c ****       (pConfig->X0 > ISP_STATWINDOW_MAX) ||
 983              		.loc 1 693 43 discriminator 2 view .LVU297
 984 0016 9042     		cmp	r0, r2
 985 0018 3AD8     		bhi	.L97
 695:../../Middlewares/Camera_Middleware/ISP_Library/isp/Src/isp_services.c ****       (pConfig->Y0 > ISP_STATWINDOW_MAX) ||
 986              		.loc 1 695 15 view .LVU298
 987 001a 4968     		ldr	r1, [r1, #4]
 988              	.LVL71:
 694:../../Middlewares/Camera_Middleware/ISP_Library/isp/Src/isp_services.c ****       (pConfig->X0 > ISP_STATWINDOW_MAX) ||
 989              		.loc 1 694 42 view .LVU299
 990 001c 9142     		cmp	r1, r2
 991 001e 37D8     		bhi	.L97
 696:../../Middlewares/Camera_Middleware/ISP_Library/isp/Src/isp_services.c ****       (pConfig->XSize > ISP_STATWINDOW_MAX) ||
 992              		.loc 1 696 15 view .LVU300
 993 0020 B368     		ldr	r3, [r6, #8]
 695:../../Middlewares/Camera_Middleware/ISP_Library/isp/Src/isp_services.c ****       (pConfig->Y0 > ISP_STATWINDOW_MAX) ||
 994              		.loc 1 695 42 view .LVU301
 995 0022 9342     		cmp	r3, r2
 996 0024 34D8     		bhi	.L97
 997              		.loc 1 696 45 view .LVU302
 998 0026 40F6FA74 		movw	r4, #4090
 697:../../Middlewares/Camera_Middleware/ISP_Library/isp/Src/isp_services.c ****       (pConfig->YSize > ISP_STATWINDOW_MAX) ||
 999              		.loc 1 697 15 view .LVU303
 1000 002a F268     		ldr	r2, [r6, #12]
 696:../../Middlewares/Camera_Middleware/ISP_Library/isp/Src/isp_services.c ****       (pConfig->XSize > ISP_STATWINDOW_MAX) ||
ARM GAS  C:\Users\Antonio\AppData\Local\Temp\ccF6VN3M.s 			page 33


 1001              		.loc 1 696 45 view .LVU304
 1002 002c 171F     		subs	r7, r2, #4
 1003 002e A742     		cmp	r7, r4
 1004 0030 2ED8     		bhi	.L97
 1005              		.loc 1 697 45 view .LVU305
 1006 0032 032B     		cmp	r3, #3
 1007 0034 2CD9     		bls	.L97
 698:../../Middlewares/Camera_Middleware/ISP_Library/isp/Src/isp_services.c ****       (pConfig->XSize < ISP_STATWINDOW_MIN) ||
 699:../../Middlewares/Camera_Middleware/ISP_Library/isp/Src/isp_services.c ****       (pConfig->YSize < ISP_STATWINDOW_MIN) ||
 1008              		.loc 1 699 45 view .LVU306
 1009 0036 2F6F     		ldr	r7, [r5, #112]
 700:../../Middlewares/Camera_Middleware/ISP_Library/isp/Src/isp_services.c ****       (pConfig->X0 + pConfig->XSize > hIsp->sensorInfo.width) ||
 1010              		.loc 1 700 20 view .LVU307
 1011 0038 C418     		adds	r4, r0, r3
 699:../../Middlewares/Camera_Middleware/ISP_Library/isp/Src/isp_services.c ****       (pConfig->X0 + pConfig->XSize > hIsp->sensorInfo.width) ||
 1012              		.loc 1 699 45 view .LVU308
 1013 003a BC42     		cmp	r4, r7
 1014 003c 28D8     		bhi	.L97
 1015              		.loc 1 700 63 view .LVU309
 1016 003e 6F6F     		ldr	r7, [r5, #116]
 701:../../Middlewares/Camera_Middleware/ISP_Library/isp/Src/isp_services.c ****       (pConfig->Y0 + pConfig->YSize > hIsp->sensorInfo.height))
 1017              		.loc 1 701 20 view .LVU310
 1018 0040 8C18     		adds	r4, r1, r2
 700:../../Middlewares/Camera_Middleware/ISP_Library/isp/Src/isp_services.c ****       (pConfig->X0 + pConfig->XSize > hIsp->sensorInfo.width) ||
 1019              		.loc 1 700 63 view .LVU311
 1020 0042 BC42     		cmp	r4, r7
 1021 0044 24D8     		bhi	.L97
 702:../../Middlewares/Camera_Middleware/ISP_Library/isp/Src/isp_services.c ****   {
 703:../../Middlewares/Camera_Middleware/ISP_Library/isp/Src/isp_services.c ****     return ISP_ERR_STATAREA_EINVAL;
 704:../../Middlewares/Camera_Middleware/ISP_Library/isp/Src/isp_services.c ****   }
 705:../../Middlewares/Camera_Middleware/ISP_Library/isp/Src/isp_services.c **** 
 706:../../Middlewares/Camera_Middleware/ISP_Library/isp/Src/isp_services.c ****   /* Set coordinates in the 'decimated' referential */
 707:../../Middlewares/Camera_Middleware/ISP_Library/isp/Src/isp_services.c ****   currentStatAreaCfg.HStart = pConfig->X0 / ISP_DecimationValue.factor;
 1022              		.loc 1 707 3 is_stmt 1 view .LVU312
 1023              		.loc 1 707 64 is_stmt 0 view .LVU313
 1024 0046 134C     		ldr	r4, .L98
 1025 0048 2478     		ldrb	r4, [r4]	@ zero_extendqisi2
 1026              		.loc 1 707 43 view .LVU314
 1027 004a B0FBF4F0 		udiv	r0, r0, r4
 708:../../Middlewares/Camera_Middleware/ISP_Library/isp/Src/isp_services.c ****   currentStatAreaCfg.VStart = pConfig->Y0 / ISP_DecimationValue.factor;
 1028              		.loc 1 708 43 view .LVU315
 1029 004e B1FBF4F1 		udiv	r1, r1, r4
 709:../../Middlewares/Camera_Middleware/ISP_Library/isp/Src/isp_services.c ****   currentStatAreaCfg.HSize = pConfig->XSize / ISP_DecimationValue.factor;
 710:../../Middlewares/Camera_Middleware/ISP_Library/isp/Src/isp_services.c ****   currentStatAreaCfg.VSize = pConfig->YSize / ISP_DecimationValue.factor;
 1030              		.loc 1 710 45 view .LVU316
 1031 0052 B2FBF4F2 		udiv	r2, r2, r4
 709:../../Middlewares/Camera_Middleware/ISP_Library/isp/Src/isp_services.c ****   currentStatAreaCfg.HSize = pConfig->XSize / ISP_DecimationValue.factor;
 1032              		.loc 1 709 45 view .LVU317
 1033 0056 B3FBF4F3 		udiv	r3, r3, r4
 707:../../Middlewares/Camera_Middleware/ISP_Library/isp/Src/isp_services.c ****   currentStatAreaCfg.VStart = pConfig->Y0 / ISP_DecimationValue.factor;
 1034              		.loc 1 707 29 view .LVU318
 1035 005a 0190     		str	r0, [sp, #4]
 708:../../Middlewares/Camera_Middleware/ISP_Library/isp/Src/isp_services.c ****   currentStatAreaCfg.VStart = pConfig->Y0 / ISP_DecimationValue.factor;
 1036              		.loc 1 708 3 is_stmt 1 view .LVU319
 708:../../Middlewares/Camera_Middleware/ISP_Library/isp/Src/isp_services.c ****   currentStatAreaCfg.VStart = pConfig->Y0 / ISP_DecimationValue.factor;
 1037              		.loc 1 708 29 is_stmt 0 view .LVU320
 1038 005c 0091     		str	r1, [sp]
ARM GAS  C:\Users\Antonio\AppData\Local\Temp\ccF6VN3M.s 			page 34


 709:../../Middlewares/Camera_Middleware/ISP_Library/isp/Src/isp_services.c ****   currentStatAreaCfg.HSize = pConfig->XSize / ISP_DecimationValue.factor;
 1039              		.loc 1 709 3 is_stmt 1 view .LVU321
 1040              		.loc 1 710 28 is_stmt 0 view .LVU322
 1041 005e 0292     		str	r2, [sp, #8]
 711:../../Middlewares/Camera_Middleware/ISP_Library/isp/Src/isp_services.c **** 
 712:../../Middlewares/Camera_Middleware/ISP_Library/isp/Src/isp_services.c ****   if (HAL_DCMIPP_PIPE_SetISPAreaStatisticExtractionConfig(hIsp->hDcmipp, DCMIPP_PIPE1,
 1042              		.loc 1 712 7 view .LVU323
 1043 0060 0121     		movs	r1, #1
 1044 0062 6A46     		mov	r2, sp
 1045 0064 2868     		ldr	r0, [r5]
 709:../../Middlewares/Camera_Middleware/ISP_Library/isp/Src/isp_services.c ****   currentStatAreaCfg.VSize = pConfig->YSize / ISP_DecimationValue.factor;
 1046              		.loc 1 709 28 view .LVU324
 1047 0066 0393     		str	r3, [sp, #12]
 710:../../Middlewares/Camera_Middleware/ISP_Library/isp/Src/isp_services.c **** 
 1048              		.loc 1 710 3 is_stmt 1 view .LVU325
 1049              		.loc 1 712 3 view .LVU326
 1050              		.loc 1 712 7 is_stmt 0 view .LVU327
 1051 0068 FFF7FEFF 		bl	HAL_DCMIPP_PIPE_SetISPAreaStatisticExtractionConfig
 1052              	.LVL72:
 1053              		.loc 1 712 6 discriminator 1 view .LVU328
 1054 006c 18B1     		cbz	r0, .L87
 1055              	.L88:
 713:../../Middlewares/Camera_Middleware/ISP_Library/isp/Src/isp_services.c ****                                                           &currentStatAreaCfg) != HAL_OK)
 714:../../Middlewares/Camera_Middleware/ISP_Library/isp/Src/isp_services.c ****   {
 715:../../Middlewares/Camera_Middleware/ISP_Library/isp/Src/isp_services.c ****     return ISP_ERR_STATAREA_HAL;
 1056              		.loc 1 715 12 view .LVU329
 1057 006e 3324     		movs	r4, #51
 1058              	.LVL73:
 1059              	.L86:
 716:../../Middlewares/Camera_Middleware/ISP_Library/isp/Src/isp_services.c ****   }
 717:../../Middlewares/Camera_Middleware/ISP_Library/isp/Src/isp_services.c ****   else
 718:../../Middlewares/Camera_Middleware/ISP_Library/isp/Src/isp_services.c ****   {
 719:../../Middlewares/Camera_Middleware/ISP_Library/isp/Src/isp_services.c ****     halStatus = HAL_DCMIPP_PIPE_EnableISPAreaStatisticExtraction(hIsp->hDcmipp, DCMIPP_PIPE1);
 720:../../Middlewares/Camera_Middleware/ISP_Library/isp/Src/isp_services.c ****   }
 721:../../Middlewares/Camera_Middleware/ISP_Library/isp/Src/isp_services.c **** 
 722:../../Middlewares/Camera_Middleware/ISP_Library/isp/Src/isp_services.c ****   if (halStatus != HAL_OK)
 723:../../Middlewares/Camera_Middleware/ISP_Library/isp/Src/isp_services.c ****   {
 724:../../Middlewares/Camera_Middleware/ISP_Library/isp/Src/isp_services.c ****     return ISP_ERR_STATAREA_HAL;
 725:../../Middlewares/Camera_Middleware/ISP_Library/isp/Src/isp_services.c ****   }
 726:../../Middlewares/Camera_Middleware/ISP_Library/isp/Src/isp_services.c **** 
 727:../../Middlewares/Camera_Middleware/ISP_Library/isp/Src/isp_services.c ****   /* Update internal state */
 728:../../Middlewares/Camera_Middleware/ISP_Library/isp/Src/isp_services.c ****   hIsp->statArea = *pConfig;
 729:../../Middlewares/Camera_Middleware/ISP_Library/isp/Src/isp_services.c **** 
 730:../../Middlewares/Camera_Middleware/ISP_Library/isp/Src/isp_services.c ****   return ret;
 731:../../Middlewares/Camera_Middleware/ISP_Library/isp/Src/isp_services.c **** }
 1060              		.loc 1 731 1 view .LVU330
 1061 0070 2046     		mov	r0, r4
 1062 0072 05B0     		add	sp, sp, #20
 1063              		.cfi_remember_state
 1064              		.cfi_def_cfa_offset 20
 1065              		@ sp needed
 1066 0074 F0BD     		pop	{r4, r5, r6, r7, pc}
 1067              	.LVL74:
 1068              	.L87:
 1069              		.cfi_restore_state
 719:../../Middlewares/Camera_Middleware/ISP_Library/isp/Src/isp_services.c ****   }
 1070              		.loc 1 719 5 is_stmt 1 view .LVU331
ARM GAS  C:\Users\Antonio\AppData\Local\Temp\ccF6VN3M.s 			page 35


 719:../../Middlewares/Camera_Middleware/ISP_Library/isp/Src/isp_services.c ****   }
 1071              		.loc 1 719 17 is_stmt 0 view .LVU332
 1072 0076 0121     		movs	r1, #1
 1073 0078 2868     		ldr	r0, [r5]
 1074 007a FFF7FEFF 		bl	HAL_DCMIPP_PIPE_EnableISPAreaStatisticExtraction
 1075              	.LVL75:
 722:../../Middlewares/Camera_Middleware/ISP_Library/isp/Src/isp_services.c ****   {
 1076              		.loc 1 722 3 is_stmt 1 view .LVU333
 722:../../Middlewares/Camera_Middleware/ISP_Library/isp/Src/isp_services.c ****   {
 1077              		.loc 1 722 6 is_stmt 0 view .LVU334
 1078 007e 0446     		mov	r4, r0
 1079 0080 0028     		cmp	r0, #0
 1080 0082 F4D1     		bne	.L88
 728:../../Middlewares/Camera_Middleware/ISP_Library/isp/Src/isp_services.c **** 
 1081              		.loc 1 728 3 is_stmt 1 view .LVU335
 728:../../Middlewares/Camera_Middleware/ISP_Library/isp/Src/isp_services.c **** 
 1082              		.loc 1 728 18 is_stmt 0 view .LVU336
 1083 0084 96E80F00 		ldm	r6, {r0, r1, r2, r3}
 1084              	.LVL76:
 728:../../Middlewares/Camera_Middleware/ISP_Library/isp/Src/isp_services.c **** 
 1085              		.loc 1 728 18 view .LVU337
 1086 0088 0835     		adds	r5, r5, #8
 1087              	.LVL77:
 728:../../Middlewares/Camera_Middleware/ISP_Library/isp/Src/isp_services.c **** 
 1088              		.loc 1 728 18 view .LVU338
 1089 008a 85E80F00 		stm	r5, {r0, r1, r2, r3}
 730:../../Middlewares/Camera_Middleware/ISP_Library/isp/Src/isp_services.c **** }
 1090              		.loc 1 730 3 is_stmt 1 view .LVU339
 730:../../Middlewares/Camera_Middleware/ISP_Library/isp/Src/isp_services.c **** }
 1091              		.loc 1 730 10 is_stmt 0 view .LVU340
 1092 008e EFE7     		b	.L86
 1093              	.LVL78:
 1094              	.L97:
 703:../../Middlewares/Camera_Middleware/ISP_Library/isp/Src/isp_services.c ****   }
 1095              		.loc 1 703 12 view .LVU341
 1096 0090 3224     		movs	r4, #50
 1097 0092 EDE7     		b	.L86
 1098              	.L99:
 1099              		.align	2
 1100              	.L98:
 1101 0094 00000000 		.word	ISP_DecimationValue
 1102              		.cfi_endproc
 1103              	.LFE855:
 1105              		.section	.text.ISP_SVC_ISP_GetStatArea,"ax",%progbits
 1106              		.align	1
 1107              		.global	ISP_SVC_ISP_GetStatArea
 1108              		.syntax unified
 1109              		.thumb
 1110              		.thumb_func
 1112              	ISP_SVC_ISP_GetStatArea:
 1113              	.LVL79:
 1114              	.LFB856:
 732:../../Middlewares/Camera_Middleware/ISP_Library/isp/Src/isp_services.c **** 
 733:../../Middlewares/Camera_Middleware/ISP_Library/isp/Src/isp_services.c **** /**
 734:../../Middlewares/Camera_Middleware/ISP_Library/isp/Src/isp_services.c ****   * @brief  ISP_SVC_ISP_GetStatArea
 735:../../Middlewares/Camera_Middleware/ISP_Library/isp/Src/isp_services.c ****   *         Get the ISP Statistic area
 736:../../Middlewares/Camera_Middleware/ISP_Library/isp/Src/isp_services.c ****   * @param  hIsp: ISP device handle
ARM GAS  C:\Users\Antonio\AppData\Local\Temp\ccF6VN3M.s 			page 36


 737:../../Middlewares/Camera_Middleware/ISP_Library/isp/Src/isp_services.c ****   * @param  pConfig: Pointer to statistic area used by the IQ algorithms
 738:../../Middlewares/Camera_Middleware/ISP_Library/isp/Src/isp_services.c ****   * @retval operation result
 739:../../Middlewares/Camera_Middleware/ISP_Library/isp/Src/isp_services.c ****   */
 740:../../Middlewares/Camera_Middleware/ISP_Library/isp/Src/isp_services.c **** ISP_StatusTypeDef ISP_SVC_ISP_GetStatArea(ISP_HandleTypeDef *hIsp, ISP_StatAreaTypeDef *pConfig)
 741:../../Middlewares/Camera_Middleware/ISP_Library/isp/Src/isp_services.c **** {
 1115              		.loc 1 741 1 is_stmt 1 view -0
 1116              		.cfi_startproc
 1117              		@ args = 0, pretend = 0, frame = 16
 1118              		@ frame_needed = 0, uses_anonymous_args = 0
 742:../../Middlewares/Camera_Middleware/ISP_Library/isp/Src/isp_services.c ****   DCMIPP_StatisticExtractionAreaConfTypeDef currentStatAreaCfg;
 1119              		.loc 1 742 3 view .LVU343
 743:../../Middlewares/Camera_Middleware/ISP_Library/isp/Src/isp_services.c **** 
 744:../../Middlewares/Camera_Middleware/ISP_Library/isp/Src/isp_services.c ****   /* Check handles validity */
 745:../../Middlewares/Camera_Middleware/ISP_Library/isp/Src/isp_services.c ****   if ((hIsp == NULL) || (pConfig == NULL))
 1120              		.loc 1 745 3 view .LVU344
 741:../../Middlewares/Camera_Middleware/ISP_Library/isp/Src/isp_services.c ****   DCMIPP_StatisticExtractionAreaConfTypeDef currentStatAreaCfg;
 1121              		.loc 1 741 1 is_stmt 0 view .LVU345
 1122 0000 30B5     		push	{r4, r5, lr}
 1123              		.cfi_def_cfa_offset 12
 1124              		.cfi_offset 4, -12
 1125              		.cfi_offset 5, -8
 1126              		.cfi_offset 14, -4
 1127 0002 0C46     		mov	r4, r1
 1128              		.loc 1 745 6 view .LVU346
 1129 0004 0546     		mov	r5, r0
 741:../../Middlewares/Camera_Middleware/ISP_Library/isp/Src/isp_services.c ****   DCMIPP_StatisticExtractionAreaConfTypeDef currentStatAreaCfg;
 1130              		.loc 1 741 1 view .LVU347
 1131 0006 85B0     		sub	sp, sp, #20
 1132              		.cfi_def_cfa_offset 32
 1133              		.loc 1 745 6 view .LVU348
 1134 0008 00B3     		cbz	r0, .L105
 1135              		.loc 1 745 22 discriminator 1 view .LVU349
 1136 000a F9B1     		cbz	r1, .L105
 746:../../Middlewares/Camera_Middleware/ISP_Library/isp/Src/isp_services.c ****   {
 747:../../Middlewares/Camera_Middleware/ISP_Library/isp/Src/isp_services.c ****     return ISP_ERR_STATAREA_EINVAL;
 748:../../Middlewares/Camera_Middleware/ISP_Library/isp/Src/isp_services.c ****   }
 749:../../Middlewares/Camera_Middleware/ISP_Library/isp/Src/isp_services.c **** 
 750:../../Middlewares/Camera_Middleware/ISP_Library/isp/Src/isp_services.c ****   if (HAL_DCMIPP_PIPE_IsEnabledISPAreaStatisticExtraction(hIsp->hDcmipp, DCMIPP_PIPE1) == 0)
 1137              		.loc 1 750 3 is_stmt 1 view .LVU350
 1138              		.loc 1 750 7 is_stmt 0 view .LVU351
 1139 000c 0121     		movs	r1, #1
 1140              	.LVL80:
 1141              		.loc 1 750 7 view .LVU352
 1142 000e 0068     		ldr	r0, [r0]
 1143              	.LVL81:
 1144              		.loc 1 750 7 view .LVU353
 1145 0010 FFF7FEFF 		bl	HAL_DCMIPP_PIPE_IsEnabledISPAreaStatisticExtraction
 1146              	.LVL82:
 1147              		.loc 1 750 6 discriminator 1 view .LVU354
 1148 0014 30B9     		cbnz	r0, .L102
 751:../../Middlewares/Camera_Middleware/ISP_Library/isp/Src/isp_services.c ****   {
 752:../../Middlewares/Camera_Middleware/ISP_Library/isp/Src/isp_services.c ****     pConfig->X0 = 0;
 1149              		.loc 1 752 5 is_stmt 1 view .LVU355
 753:../../Middlewares/Camera_Middleware/ISP_Library/isp/Src/isp_services.c ****     pConfig->Y0 = 0;
 1150              		.loc 1 753 17 is_stmt 0 view .LVU356
 1151 0016 C4E90000 		strd	r0, r0, [r4]
 754:../../Middlewares/Camera_Middleware/ISP_Library/isp/Src/isp_services.c ****     pConfig->XSize = 0;
ARM GAS  C:\Users\Antonio\AppData\Local\Temp\ccF6VN3M.s 			page 37


 1152              		.loc 1 754 5 is_stmt 1 view .LVU357
 755:../../Middlewares/Camera_Middleware/ISP_Library/isp/Src/isp_services.c ****     pConfig->YSize = 0;
 1153              		.loc 1 755 20 is_stmt 0 view .LVU358
 1154 001a C4E90200 		strd	r0, r0, [r4, #8]
 1155              	.L103:
 756:../../Middlewares/Camera_Middleware/ISP_Library/isp/Src/isp_services.c ****   }
 757:../../Middlewares/Camera_Middleware/ISP_Library/isp/Src/isp_services.c ****   else
 758:../../Middlewares/Camera_Middleware/ISP_Library/isp/Src/isp_services.c ****   {
 759:../../Middlewares/Camera_Middleware/ISP_Library/isp/Src/isp_services.c ****     HAL_DCMIPP_PIPE_GetISPAreaStatisticExtractionConfig(hIsp->hDcmipp, DCMIPP_PIPE1,
 760:../../Middlewares/Camera_Middleware/ISP_Library/isp/Src/isp_services.c ****                                                         &currentStatAreaCfg);
 761:../../Middlewares/Camera_Middleware/ISP_Library/isp/Src/isp_services.c **** 
 762:../../Middlewares/Camera_Middleware/ISP_Library/isp/Src/isp_services.c ****     /* Consider decimation */
 763:../../Middlewares/Camera_Middleware/ISP_Library/isp/Src/isp_services.c ****     pConfig->X0 = currentStatAreaCfg.HStart * ISP_DecimationValue.factor;
 764:../../Middlewares/Camera_Middleware/ISP_Library/isp/Src/isp_services.c ****     pConfig->Y0 = currentStatAreaCfg.VStart * ISP_DecimationValue.factor;
 765:../../Middlewares/Camera_Middleware/ISP_Library/isp/Src/isp_services.c ****     pConfig->XSize = currentStatAreaCfg.HSize * ISP_DecimationValue.factor;
 766:../../Middlewares/Camera_Middleware/ISP_Library/isp/Src/isp_services.c ****     pConfig->YSize = currentStatAreaCfg.VSize * ISP_DecimationValue.factor;
 767:../../Middlewares/Camera_Middleware/ISP_Library/isp/Src/isp_services.c ****   }
 768:../../Middlewares/Camera_Middleware/ISP_Library/isp/Src/isp_services.c **** 
 769:../../Middlewares/Camera_Middleware/ISP_Library/isp/Src/isp_services.c ****   return ISP_OK;
 1156              		.loc 1 769 10 view .LVU359
 1157 001e 0020     		movs	r0, #0
 1158              	.L101:
 770:../../Middlewares/Camera_Middleware/ISP_Library/isp/Src/isp_services.c **** }
 1159              		.loc 1 770 1 view .LVU360
 1160 0020 05B0     		add	sp, sp, #20
 1161              		.cfi_remember_state
 1162              		.cfi_def_cfa_offset 12
 1163              		@ sp needed
 1164 0022 30BD     		pop	{r4, r5, pc}
 1165              	.LVL83:
 1166              	.L102:
 1167              		.cfi_restore_state
 759:../../Middlewares/Camera_Middleware/ISP_Library/isp/Src/isp_services.c ****                                                         &currentStatAreaCfg);
 1168              		.loc 1 759 5 is_stmt 1 view .LVU361
 1169 0024 6A46     		mov	r2, sp
 1170 0026 0121     		movs	r1, #1
 1171 0028 2868     		ldr	r0, [r5]
 1172 002a FFF7FEFF 		bl	HAL_DCMIPP_PIPE_GetISPAreaStatisticExtractionConfig
 1173              	.LVL84:
 763:../../Middlewares/Camera_Middleware/ISP_Library/isp/Src/isp_services.c ****     pConfig->Y0 = currentStatAreaCfg.VStart * ISP_DecimationValue.factor;
 1174              		.loc 1 763 5 view .LVU362
 763:../../Middlewares/Camera_Middleware/ISP_Library/isp/Src/isp_services.c ****     pConfig->Y0 = currentStatAreaCfg.VStart * ISP_DecimationValue.factor;
 1175              		.loc 1 763 66 is_stmt 0 view .LVU363
 1176 002e 084B     		ldr	r3, .L106
 763:../../Middlewares/Camera_Middleware/ISP_Library/isp/Src/isp_services.c ****     pConfig->Y0 = currentStatAreaCfg.VStart * ISP_DecimationValue.factor;
 1177              		.loc 1 763 45 view .LVU364
 1178 0030 019A     		ldr	r2, [sp, #4]
 763:../../Middlewares/Camera_Middleware/ISP_Library/isp/Src/isp_services.c ****     pConfig->Y0 = currentStatAreaCfg.VStart * ISP_DecimationValue.factor;
 1179              		.loc 1 763 66 view .LVU365
 1180 0032 1B78     		ldrb	r3, [r3]	@ zero_extendqisi2
 763:../../Middlewares/Camera_Middleware/ISP_Library/isp/Src/isp_services.c ****     pConfig->Y0 = currentStatAreaCfg.VStart * ISP_DecimationValue.factor;
 1181              		.loc 1 763 45 view .LVU366
 1182 0034 5A43     		muls	r2, r3, r2
 763:../../Middlewares/Camera_Middleware/ISP_Library/isp/Src/isp_services.c ****     pConfig->Y0 = currentStatAreaCfg.VStart * ISP_DecimationValue.factor;
 1183              		.loc 1 763 17 view .LVU367
 1184 0036 2260     		str	r2, [r4]
 764:../../Middlewares/Camera_Middleware/ISP_Library/isp/Src/isp_services.c ****     pConfig->XSize = currentStatAreaCfg.HSize * ISP_DecimationValue.factor;
ARM GAS  C:\Users\Antonio\AppData\Local\Temp\ccF6VN3M.s 			page 38


 1185              		.loc 1 764 5 is_stmt 1 view .LVU368
 764:../../Middlewares/Camera_Middleware/ISP_Library/isp/Src/isp_services.c ****     pConfig->XSize = currentStatAreaCfg.HSize * ISP_DecimationValue.factor;
 1186              		.loc 1 764 45 is_stmt 0 view .LVU369
 1187 0038 009A     		ldr	r2, [sp]
 1188 003a 5A43     		muls	r2, r3, r2
 764:../../Middlewares/Camera_Middleware/ISP_Library/isp/Src/isp_services.c ****     pConfig->XSize = currentStatAreaCfg.HSize * ISP_DecimationValue.factor;
 1189              		.loc 1 764 17 view .LVU370
 1190 003c 6260     		str	r2, [r4, #4]
 765:../../Middlewares/Camera_Middleware/ISP_Library/isp/Src/isp_services.c ****     pConfig->YSize = currentStatAreaCfg.VSize * ISP_DecimationValue.factor;
 1191              		.loc 1 765 5 is_stmt 1 view .LVU371
 765:../../Middlewares/Camera_Middleware/ISP_Library/isp/Src/isp_services.c ****     pConfig->YSize = currentStatAreaCfg.VSize * ISP_DecimationValue.factor;
 1192              		.loc 1 765 47 is_stmt 0 view .LVU372
 1193 003e 039A     		ldr	r2, [sp, #12]
 1194 0040 5A43     		muls	r2, r3, r2
 765:../../Middlewares/Camera_Middleware/ISP_Library/isp/Src/isp_services.c ****     pConfig->YSize = currentStatAreaCfg.VSize * ISP_DecimationValue.factor;
 1195              		.loc 1 765 20 view .LVU373
 1196 0042 A260     		str	r2, [r4, #8]
 766:../../Middlewares/Camera_Middleware/ISP_Library/isp/Src/isp_services.c ****   }
 1197              		.loc 1 766 5 is_stmt 1 view .LVU374
 766:../../Middlewares/Camera_Middleware/ISP_Library/isp/Src/isp_services.c ****   }
 1198              		.loc 1 766 47 is_stmt 0 view .LVU375
 1199 0044 029A     		ldr	r2, [sp, #8]
 1200 0046 5A43     		muls	r2, r3, r2
 766:../../Middlewares/Camera_Middleware/ISP_Library/isp/Src/isp_services.c ****   }
 1201              		.loc 1 766 20 view .LVU376
 1202 0048 E260     		str	r2, [r4, #12]
 1203 004a E8E7     		b	.L103
 1204              	.LVL85:
 1205              	.L105:
 747:../../Middlewares/Camera_Middleware/ISP_Library/isp/Src/isp_services.c ****   }
 1206              		.loc 1 747 12 view .LVU377
 1207 004c 3220     		movs	r0, #50
 1208              	.LVL86:
 747:../../Middlewares/Camera_Middleware/ISP_Library/isp/Src/isp_services.c ****   }
 1209              		.loc 1 747 12 view .LVU378
 1210 004e E7E7     		b	.L101
 1211              	.L107:
 1212              		.align	2
 1213              	.L106:
 1214 0050 00000000 		.word	ISP_DecimationValue
 1215              		.cfi_endproc
 1216              	.LFE856:
 1218              		.section	.text.ISP_SVC_ISP_SetBadPixel,"ax",%progbits
 1219              		.align	1
 1220              		.global	ISP_SVC_ISP_SetBadPixel
 1221              		.syntax unified
 1222              		.thumb
 1223              		.thumb_func
 1225              	ISP_SVC_ISP_SetBadPixel:
 1226              	.LVL87:
 1227              	.LFB857:
 771:../../Middlewares/Camera_Middleware/ISP_Library/isp/Src/isp_services.c **** 
 772:../../Middlewares/Camera_Middleware/ISP_Library/isp/Src/isp_services.c **** /**
 773:../../Middlewares/Camera_Middleware/ISP_Library/isp/Src/isp_services.c ****   * @brief  ISP_SVC_ISP_SetBadPixel
 774:../../Middlewares/Camera_Middleware/ISP_Library/isp/Src/isp_services.c ****   *         Set the ISP Bad pixel control configuration
 775:../../Middlewares/Camera_Middleware/ISP_Library/isp/Src/isp_services.c ****   * @param  hIsp: ISP device handle
 776:../../Middlewares/Camera_Middleware/ISP_Library/isp/Src/isp_services.c ****   * @param  pConfig: Pointer to the bad pixel configuration
ARM GAS  C:\Users\Antonio\AppData\Local\Temp\ccF6VN3M.s 			page 39


 777:../../Middlewares/Camera_Middleware/ISP_Library/isp/Src/isp_services.c ****   * @retval operation result
 778:../../Middlewares/Camera_Middleware/ISP_Library/isp/Src/isp_services.c ****   */
 779:../../Middlewares/Camera_Middleware/ISP_Library/isp/Src/isp_services.c **** ISP_StatusTypeDef ISP_SVC_ISP_SetBadPixel(ISP_HandleTypeDef *hIsp, ISP_BadPixelTypeDef *pConfig)
 780:../../Middlewares/Camera_Middleware/ISP_Library/isp/Src/isp_services.c **** {
 1228              		.loc 1 780 1 is_stmt 1 view -0
 1229              		.cfi_startproc
 1230              		@ args = 0, pretend = 0, frame = 0
 1231              		@ frame_needed = 0, uses_anonymous_args = 0
 781:../../Middlewares/Camera_Middleware/ISP_Library/isp/Src/isp_services.c ****   HAL_StatusTypeDef halStatus;
 1232              		.loc 1 781 3 view .LVU380
 782:../../Middlewares/Camera_Middleware/ISP_Library/isp/Src/isp_services.c **** 
 783:../../Middlewares/Camera_Middleware/ISP_Library/isp/Src/isp_services.c ****   if ((hIsp == NULL) || (pConfig == NULL) || (pConfig->strength > ISP_BADPIXEL_STRENGTH_MAX))
 1233              		.loc 1 783 3 view .LVU381
 780:../../Middlewares/Camera_Middleware/ISP_Library/isp/Src/isp_services.c ****   HAL_StatusTypeDef halStatus;
 1234              		.loc 1 780 1 is_stmt 0 view .LVU382
 1235 0000 10B5     		push	{r4, lr}
 1236              		.cfi_def_cfa_offset 8
 1237              		.cfi_offset 4, -8
 1238              		.cfi_offset 14, -4
 1239              		.loc 1 783 6 view .LVU383
 1240 0002 0446     		mov	r4, r0
 1241 0004 A8B1     		cbz	r0, .L116
 1242              		.loc 1 783 22 discriminator 1 view .LVU384
 1243 0006 A1B1     		cbz	r1, .L116
 1244              		.loc 1 783 54 discriminator 2 view .LVU385
 1245 0008 4A78     		ldrb	r2, [r1, #1]	@ zero_extendqisi2
 1246              		.loc 1 783 43 discriminator 2 view .LVU386
 1247 000a 072A     		cmp	r2, #7
 1248 000c 11D8     		bhi	.L116
 784:../../Middlewares/Camera_Middleware/ISP_Library/isp/Src/isp_services.c ****   {
 785:../../Middlewares/Camera_Middleware/ISP_Library/isp/Src/isp_services.c ****     return ISP_ERR_BADPIXEL_EINVAL;
 786:../../Middlewares/Camera_Middleware/ISP_Library/isp/Src/isp_services.c ****   }
 787:../../Middlewares/Camera_Middleware/ISP_Library/isp/Src/isp_services.c **** 
 788:../../Middlewares/Camera_Middleware/ISP_Library/isp/Src/isp_services.c ****   if (pConfig->enable == 0)
 1249              		.loc 1 788 3 is_stmt 1 view .LVU387
 1250              		.loc 1 788 6 is_stmt 0 view .LVU388
 1251 000e 0B78     		ldrb	r3, [r1]	@ zero_extendqisi2
 789:../../Middlewares/Camera_Middleware/ISP_Library/isp/Src/isp_services.c ****   {
 790:../../Middlewares/Camera_Middleware/ISP_Library/isp/Src/isp_services.c ****     halStatus = HAL_DCMIPP_PIPE_DisableISPBadPixelRemoval(hIsp->hDcmipp, DCMIPP_PIPE1);
 1252              		.loc 1 790 63 view .LVU389
 1253 0010 0068     		ldr	r0, [r0]
 1254              	.LVL88:
 1255              		.loc 1 790 17 view .LVU390
 1256 0012 0121     		movs	r1, #1
 1257              	.LVL89:
 788:../../Middlewares/Camera_Middleware/ISP_Library/isp/Src/isp_services.c ****   {
 1258              		.loc 1 788 6 view .LVU391
 1259 0014 1BB9     		cbnz	r3, .L110
 1260              		.loc 1 790 5 is_stmt 1 view .LVU392
 1261              		.loc 1 790 17 is_stmt 0 view .LVU393
 1262 0016 FFF7FEFF 		bl	HAL_DCMIPP_PIPE_DisableISPBadPixelRemoval
 1263              	.LVL90:
 1264              	.L111:
 791:../../Middlewares/Camera_Middleware/ISP_Library/isp/Src/isp_services.c ****   }
 792:../../Middlewares/Camera_Middleware/ISP_Library/isp/Src/isp_services.c ****   else
 793:../../Middlewares/Camera_Middleware/ISP_Library/isp/Src/isp_services.c ****   {
 794:../../Middlewares/Camera_Middleware/ISP_Library/isp/Src/isp_services.c ****     halStatus = HAL_DCMIPP_PIPE_SetISPBadPixelRemovalConfig(hIsp->hDcmipp, DCMIPP_PIPE1, pConfig->s
ARM GAS  C:\Users\Antonio\AppData\Local\Temp\ccF6VN3M.s 			page 40


 795:../../Middlewares/Camera_Middleware/ISP_Library/isp/Src/isp_services.c **** 
 796:../../Middlewares/Camera_Middleware/ISP_Library/isp/Src/isp_services.c ****     if (halStatus != HAL_OK)
 797:../../Middlewares/Camera_Middleware/ISP_Library/isp/Src/isp_services.c ****     {
 798:../../Middlewares/Camera_Middleware/ISP_Library/isp/Src/isp_services.c ****       return ISP_ERR_BADPIXEL_HAL;
 799:../../Middlewares/Camera_Middleware/ISP_Library/isp/Src/isp_services.c ****     }
 800:../../Middlewares/Camera_Middleware/ISP_Library/isp/Src/isp_services.c **** 
 801:../../Middlewares/Camera_Middleware/ISP_Library/isp/Src/isp_services.c ****     halStatus = HAL_DCMIPP_PIPE_EnableISPBadPixelRemoval(hIsp->hDcmipp, DCMIPP_PIPE1);
 802:../../Middlewares/Camera_Middleware/ISP_Library/isp/Src/isp_services.c ****   }
 803:../../Middlewares/Camera_Middleware/ISP_Library/isp/Src/isp_services.c **** 
 804:../../Middlewares/Camera_Middleware/ISP_Library/isp/Src/isp_services.c ****   if (halStatus != HAL_OK)
 1265              		.loc 1 804 3 is_stmt 1 view .LVU394
 1266              		.loc 1 804 6 is_stmt 0 view .LVU395
 1267 001a 20B1     		cbz	r0, .L109
 1268              		.loc 1 804 6 view .LVU396
 1269 001c 02E0     		b	.L113
 1270              	.LVL91:
 1271              	.L110:
 794:../../Middlewares/Camera_Middleware/ISP_Library/isp/Src/isp_services.c **** 
 1272              		.loc 1 794 5 is_stmt 1 view .LVU397
 794:../../Middlewares/Camera_Middleware/ISP_Library/isp/Src/isp_services.c **** 
 1273              		.loc 1 794 17 is_stmt 0 view .LVU398
 1274 001e FFF7FEFF 		bl	HAL_DCMIPP_PIPE_SetISPBadPixelRemovalConfig
 1275              	.LVL92:
 796:../../Middlewares/Camera_Middleware/ISP_Library/isp/Src/isp_services.c ****     {
 1276              		.loc 1 796 5 is_stmt 1 view .LVU399
 796:../../Middlewares/Camera_Middleware/ISP_Library/isp/Src/isp_services.c ****     {
 1277              		.loc 1 796 8 is_stmt 0 view .LVU400
 1278 0022 08B1     		cbz	r0, .L112
 1279              	.L113:
 798:../../Middlewares/Camera_Middleware/ISP_Library/isp/Src/isp_services.c ****     }
 1280              		.loc 1 798 14 view .LVU401
 1281 0024 3D20     		movs	r0, #61
 1282              	.LVL93:
 1283              	.L109:
 805:../../Middlewares/Camera_Middleware/ISP_Library/isp/Src/isp_services.c ****   {
 806:../../Middlewares/Camera_Middleware/ISP_Library/isp/Src/isp_services.c ****     return ISP_ERR_BADPIXEL_HAL;
 807:../../Middlewares/Camera_Middleware/ISP_Library/isp/Src/isp_services.c ****   }
 808:../../Middlewares/Camera_Middleware/ISP_Library/isp/Src/isp_services.c **** 
 809:../../Middlewares/Camera_Middleware/ISP_Library/isp/Src/isp_services.c ****   return ISP_OK;
 810:../../Middlewares/Camera_Middleware/ISP_Library/isp/Src/isp_services.c **** }
 1284              		.loc 1 810 1 view .LVU402
 1285 0026 10BD     		pop	{r4, pc}
 1286              	.LVL94:
 1287              	.L112:
 801:../../Middlewares/Camera_Middleware/ISP_Library/isp/Src/isp_services.c ****   }
 1288              		.loc 1 801 5 is_stmt 1 view .LVU403
 801:../../Middlewares/Camera_Middleware/ISP_Library/isp/Src/isp_services.c ****   }
 1289              		.loc 1 801 17 is_stmt 0 view .LVU404
 1290 0028 0121     		movs	r1, #1
 1291 002a 2068     		ldr	r0, [r4]
 1292              	.LVL95:
 801:../../Middlewares/Camera_Middleware/ISP_Library/isp/Src/isp_services.c ****   }
 1293              		.loc 1 801 17 view .LVU405
 1294 002c FFF7FEFF 		bl	HAL_DCMIPP_PIPE_EnableISPBadPixelRemoval
 1295              	.LVL96:
 801:../../Middlewares/Camera_Middleware/ISP_Library/isp/Src/isp_services.c ****   }
 1296              		.loc 1 801 17 view .LVU406
ARM GAS  C:\Users\Antonio\AppData\Local\Temp\ccF6VN3M.s 			page 41


 1297 0030 F3E7     		b	.L111
 1298              	.LVL97:
 1299              	.L116:
 785:../../Middlewares/Camera_Middleware/ISP_Library/isp/Src/isp_services.c ****   }
 1300              		.loc 1 785 12 view .LVU407
 1301 0032 3C20     		movs	r0, #60
 1302              	.LVL98:
 785:../../Middlewares/Camera_Middleware/ISP_Library/isp/Src/isp_services.c ****   }
 1303              		.loc 1 785 12 view .LVU408
 1304 0034 F7E7     		b	.L109
 1305              		.cfi_endproc
 1306              	.LFE857:
 1308              		.section	.text.ISP_SVC_ISP_GetBadPixel,"ax",%progbits
 1309              		.align	1
 1310              		.global	ISP_SVC_ISP_GetBadPixel
 1311              		.syntax unified
 1312              		.thumb
 1313              		.thumb_func
 1315              	ISP_SVC_ISP_GetBadPixel:
 1316              	.LVL99:
 1317              	.LFB858:
 811:../../Middlewares/Camera_Middleware/ISP_Library/isp/Src/isp_services.c **** 
 812:../../Middlewares/Camera_Middleware/ISP_Library/isp/Src/isp_services.c **** /**
 813:../../Middlewares/Camera_Middleware/ISP_Library/isp/Src/isp_services.c ****   * @brief  ISP_SVC_ISP_GetBadPixel
 814:../../Middlewares/Camera_Middleware/ISP_Library/isp/Src/isp_services.c ****   *         Get the ISP Bad pixel control configuration
 815:../../Middlewares/Camera_Middleware/ISP_Library/isp/Src/isp_services.c ****   * @param  hIsp: ISP device handle
 816:../../Middlewares/Camera_Middleware/ISP_Library/isp/Src/isp_services.c ****   * @param  pConfig: Pointer to the bad pixel configuration
 817:../../Middlewares/Camera_Middleware/ISP_Library/isp/Src/isp_services.c ****   * @retval operation result
 818:../../Middlewares/Camera_Middleware/ISP_Library/isp/Src/isp_services.c ****   */
 819:../../Middlewares/Camera_Middleware/ISP_Library/isp/Src/isp_services.c **** ISP_StatusTypeDef ISP_SVC_ISP_GetBadPixel(ISP_HandleTypeDef *hIsp, ISP_BadPixelTypeDef *pConfig)
 820:../../Middlewares/Camera_Middleware/ISP_Library/isp/Src/isp_services.c **** {
 1318              		.loc 1 820 1 is_stmt 1 view -0
 1319              		.cfi_startproc
 1320              		@ args = 0, pretend = 0, frame = 0
 1321              		@ frame_needed = 0, uses_anonymous_args = 0
 821:../../Middlewares/Camera_Middleware/ISP_Library/isp/Src/isp_services.c ****   HAL_StatusTypeDef halStatus;
 1322              		.loc 1 821 3 view .LVU410
 822:../../Middlewares/Camera_Middleware/ISP_Library/isp/Src/isp_services.c **** 
 823:../../Middlewares/Camera_Middleware/ISP_Library/isp/Src/isp_services.c ****   /* Check handle validity */
 824:../../Middlewares/Camera_Middleware/ISP_Library/isp/Src/isp_services.c ****   if ((hIsp == NULL) || (pConfig == NULL))
 1323              		.loc 1 824 3 view .LVU411
 820:../../Middlewares/Camera_Middleware/ISP_Library/isp/Src/isp_services.c ****   HAL_StatusTypeDef halStatus;
 1324              		.loc 1 820 1 is_stmt 0 view .LVU412
 1325 0000 38B5     		push	{r3, r4, r5, lr}
 1326              		.cfi_def_cfa_offset 16
 1327              		.cfi_offset 3, -16
 1328              		.cfi_offset 4, -12
 1329              		.cfi_offset 5, -8
 1330              		.cfi_offset 14, -4
 820:../../Middlewares/Camera_Middleware/ISP_Library/isp/Src/isp_services.c ****   HAL_StatusTypeDef halStatus;
 1331              		.loc 1 820 1 view .LVU413
 1332 0002 0D46     		mov	r5, r1
 1333              		.loc 1 824 6 view .LVU414
 1334 0004 0446     		mov	r4, r0
 1335 0006 98B1     		cbz	r0, .L120
 1336              		.loc 1 824 22 discriminator 1 view .LVU415
 1337 0008 91B1     		cbz	r1, .L120
ARM GAS  C:\Users\Antonio\AppData\Local\Temp\ccF6VN3M.s 			page 42


 825:../../Middlewares/Camera_Middleware/ISP_Library/isp/Src/isp_services.c ****   {
 826:../../Middlewares/Camera_Middleware/ISP_Library/isp/Src/isp_services.c ****     return ISP_ERR_BADPIXEL_EINVAL;
 827:../../Middlewares/Camera_Middleware/ISP_Library/isp/Src/isp_services.c ****   }
 828:../../Middlewares/Camera_Middleware/ISP_Library/isp/Src/isp_services.c **** 
 829:../../Middlewares/Camera_Middleware/ISP_Library/isp/Src/isp_services.c ****   pConfig->enable = HAL_DCMIPP_PIPE_IsEnabledISPBadPixelRemoval(hIsp->hDcmipp, DCMIPP_PIPE1);
 1338              		.loc 1 829 3 is_stmt 1 view .LVU416
 1339              		.loc 1 829 21 is_stmt 0 view .LVU417
 1340 000a 0121     		movs	r1, #1
 1341              	.LVL100:
 1342              		.loc 1 829 21 view .LVU418
 1343 000c 0068     		ldr	r0, [r0]
 1344              	.LVL101:
 1345              		.loc 1 829 21 view .LVU419
 1346 000e FFF7FEFF 		bl	HAL_DCMIPP_PIPE_IsEnabledISPBadPixelRemoval
 1347              	.LVL102:
 1348              		.loc 1 829 19 discriminator 1 view .LVU420
 1349 0012 2870     		strb	r0, [r5]
 830:../../Middlewares/Camera_Middleware/ISP_Library/isp/Src/isp_services.c ****   pConfig->strength = (uint8_t) HAL_DCMIPP_PIPE_GetISPBadPixelRemovalConfig(hIsp->hDcmipp, DCMIPP_P
 1350              		.loc 1 830 3 is_stmt 1 view .LVU421
 1351              		.loc 1 830 33 is_stmt 0 view .LVU422
 1352 0014 0121     		movs	r1, #1
 1353 0016 2068     		ldr	r0, [r4]
 1354 0018 FFF7FEFF 		bl	HAL_DCMIPP_PIPE_GetISPBadPixelRemovalConfig
 1355              	.LVL103:
 1356              		.loc 1 830 23 discriminator 1 view .LVU423
 1357 001c 6870     		strb	r0, [r5, #1]
 831:../../Middlewares/Camera_Middleware/ISP_Library/isp/Src/isp_services.c **** 
 832:../../Middlewares/Camera_Middleware/ISP_Library/isp/Src/isp_services.c ****   halStatus = HAL_DCMIPP_PIPE_GetISPRemovedBadPixelCounter(hIsp->hDcmipp, DCMIPP_PIPE1, &pConfig->c
 1358              		.loc 1 832 3 is_stmt 1 view .LVU424
 1359              		.loc 1 832 15 is_stmt 0 view .LVU425
 1360 001e 0121     		movs	r1, #1
 1361 0020 2068     		ldr	r0, [r4]
 1362 0022 2A1D     		adds	r2, r5, #4
 1363 0024 FFF7FEFF 		bl	HAL_DCMIPP_PIPE_GetISPRemovedBadPixelCounter
 1364              	.LVL104:
 833:../../Middlewares/Camera_Middleware/ISP_Library/isp/Src/isp_services.c **** 
 834:../../Middlewares/Camera_Middleware/ISP_Library/isp/Src/isp_services.c ****   if (halStatus != HAL_OK)
 1365              		.loc 1 834 3 is_stmt 1 view .LVU426
 835:../../Middlewares/Camera_Middleware/ISP_Library/isp/Src/isp_services.c ****   {
 836:../../Middlewares/Camera_Middleware/ISP_Library/isp/Src/isp_services.c ****     return ISP_ERR_BADPIXEL_HAL;
 1366              		.loc 1 836 12 is_stmt 0 view .LVU427
 1367 0028 0028     		cmp	r0, #0
 1368              		.loc 1 836 12 view .LVU428
 1369 002a 18BF     		it	ne
 1370 002c 3D20     		movne	r0, #61
 1371              	.LVL105:
 1372              	.L118:
 837:../../Middlewares/Camera_Middleware/ISP_Library/isp/Src/isp_services.c ****   }
 838:../../Middlewares/Camera_Middleware/ISP_Library/isp/Src/isp_services.c **** 
 839:../../Middlewares/Camera_Middleware/ISP_Library/isp/Src/isp_services.c ****   return ISP_OK;
 840:../../Middlewares/Camera_Middleware/ISP_Library/isp/Src/isp_services.c **** }
 1373              		.loc 1 840 1 view .LVU429
 1374 002e 38BD     		pop	{r3, r4, r5, pc}
 1375              	.LVL106:
 1376              	.L120:
 826:../../Middlewares/Camera_Middleware/ISP_Library/isp/Src/isp_services.c ****   }
 1377              		.loc 1 826 12 view .LVU430
ARM GAS  C:\Users\Antonio\AppData\Local\Temp\ccF6VN3M.s 			page 43


 1378 0030 3C20     		movs	r0, #60
 1379              	.LVL107:
 826:../../Middlewares/Camera_Middleware/ISP_Library/isp/Src/isp_services.c ****   }
 1380              		.loc 1 826 12 view .LVU431
 1381 0032 FCE7     		b	.L118
 1382              		.cfi_endproc
 1383              	.LFE858:
 1385              		.section	.text.ISP_SVC_ISP_SetBlackLevel,"ax",%progbits
 1386              		.align	1
 1387              		.global	ISP_SVC_ISP_SetBlackLevel
 1388              		.syntax unified
 1389              		.thumb
 1390              		.thumb_func
 1392              	ISP_SVC_ISP_SetBlackLevel:
 1393              	.LVL108:
 1394              	.LFB859:
 841:../../Middlewares/Camera_Middleware/ISP_Library/isp/Src/isp_services.c **** 
 842:../../Middlewares/Camera_Middleware/ISP_Library/isp/Src/isp_services.c **** /**
 843:../../Middlewares/Camera_Middleware/ISP_Library/isp/Src/isp_services.c ****   * @brief  ISP_SVC_ISP_SetBlackLevel
 844:../../Middlewares/Camera_Middleware/ISP_Library/isp/Src/isp_services.c ****   *         Set the ISP Black Level calibration
 845:../../Middlewares/Camera_Middleware/ISP_Library/isp/Src/isp_services.c ****   * @param  hIsp: ISP device handle
 846:../../Middlewares/Camera_Middleware/ISP_Library/isp/Src/isp_services.c ****   * @param  pConfig: Pointer to the black level configuration
 847:../../Middlewares/Camera_Middleware/ISP_Library/isp/Src/isp_services.c ****   * @retval operation result
 848:../../Middlewares/Camera_Middleware/ISP_Library/isp/Src/isp_services.c ****   */
 849:../../Middlewares/Camera_Middleware/ISP_Library/isp/Src/isp_services.c **** ISP_StatusTypeDef ISP_SVC_ISP_SetBlackLevel(ISP_HandleTypeDef *hIsp, ISP_BlackLevelTypeDef *pConfig
 850:../../Middlewares/Camera_Middleware/ISP_Library/isp/Src/isp_services.c **** {
 1395              		.loc 1 850 1 is_stmt 1 view -0
 1396              		.cfi_startproc
 1397              		@ args = 0, pretend = 0, frame = 8
 1398              		@ frame_needed = 0, uses_anonymous_args = 0
 851:../../Middlewares/Camera_Middleware/ISP_Library/isp/Src/isp_services.c ****   HAL_StatusTypeDef halStatus;
 1399              		.loc 1 851 3 view .LVU433
 852:../../Middlewares/Camera_Middleware/ISP_Library/isp/Src/isp_services.c ****   DCMIPP_BlackLevelConfTypeDef blackLevelConfig;
 1400              		.loc 1 852 3 view .LVU434
 853:../../Middlewares/Camera_Middleware/ISP_Library/isp/Src/isp_services.c **** 
 854:../../Middlewares/Camera_Middleware/ISP_Library/isp/Src/isp_services.c ****   /* Check handle validity */
 855:../../Middlewares/Camera_Middleware/ISP_Library/isp/Src/isp_services.c ****   if ((hIsp == NULL) || (pConfig == NULL))
 1401              		.loc 1 855 3 view .LVU435
 850:../../Middlewares/Camera_Middleware/ISP_Library/isp/Src/isp_services.c ****   HAL_StatusTypeDef halStatus;
 1402              		.loc 1 850 1 is_stmt 0 view .LVU436
 1403 0000 13B5     		push	{r0, r1, r4, lr}
 1404              		.cfi_def_cfa_offset 16
 1405              		.cfi_offset 4, -8
 1406              		.cfi_offset 14, -4
 1407              		.loc 1 855 6 view .LVU437
 1408 0002 0446     		mov	r4, r0
 1409 0004 F0B1     		cbz	r0, .L129
 1410              		.loc 1 855 22 discriminator 1 view .LVU438
 1411 0006 E9B1     		cbz	r1, .L129
 856:../../Middlewares/Camera_Middleware/ISP_Library/isp/Src/isp_services.c ****   {
 857:../../Middlewares/Camera_Middleware/ISP_Library/isp/Src/isp_services.c ****     return ISP_ERR_BLACKLEVEL_EINVAL;
 858:../../Middlewares/Camera_Middleware/ISP_Library/isp/Src/isp_services.c ****   }
 859:../../Middlewares/Camera_Middleware/ISP_Library/isp/Src/isp_services.c **** 
 860:../../Middlewares/Camera_Middleware/ISP_Library/isp/Src/isp_services.c ****   if (pConfig->enable == 0)
 1412              		.loc 1 860 3 is_stmt 1 view .LVU439
 1413              		.loc 1 860 6 is_stmt 0 view .LVU440
 1414 0008 0B78     		ldrb	r3, [r1]	@ zero_extendqisi2
ARM GAS  C:\Users\Antonio\AppData\Local\Temp\ccF6VN3M.s 			page 44


 861:../../Middlewares/Camera_Middleware/ISP_Library/isp/Src/isp_services.c ****   {
 862:../../Middlewares/Camera_Middleware/ISP_Library/isp/Src/isp_services.c ****     halStatus = HAL_DCMIPP_PIPE_DisableISPBlackLevelCalibration(hIsp->hDcmipp, DCMIPP_PIPE1);
 1415              		.loc 1 862 69 view .LVU441
 1416 000a 0068     		ldr	r0, [r0]
 1417              	.LVL109:
 860:../../Middlewares/Camera_Middleware/ISP_Library/isp/Src/isp_services.c ****   {
 1418              		.loc 1 860 6 view .LVU442
 1419 000c 23B9     		cbnz	r3, .L124
 1420              		.loc 1 862 5 is_stmt 1 view .LVU443
 1421              		.loc 1 862 17 is_stmt 0 view .LVU444
 1422 000e 0121     		movs	r1, #1
 1423              	.LVL110:
 1424              		.loc 1 862 17 view .LVU445
 1425 0010 FFF7FEFF 		bl	HAL_DCMIPP_PIPE_DisableISPBlackLevelCalibration
 1426              	.LVL111:
 1427              	.L125:
 863:../../Middlewares/Camera_Middleware/ISP_Library/isp/Src/isp_services.c ****   }
 864:../../Middlewares/Camera_Middleware/ISP_Library/isp/Src/isp_services.c ****   else
 865:../../Middlewares/Camera_Middleware/ISP_Library/isp/Src/isp_services.c ****   {
 866:../../Middlewares/Camera_Middleware/ISP_Library/isp/Src/isp_services.c ****     blackLevelConfig.RedCompBlackLevel = pConfig->BLCR;
 867:../../Middlewares/Camera_Middleware/ISP_Library/isp/Src/isp_services.c ****     blackLevelConfig.GreenCompBlackLevel = pConfig->BLCG;
 868:../../Middlewares/Camera_Middleware/ISP_Library/isp/Src/isp_services.c ****     blackLevelConfig.BlueCompBlackLevel = pConfig->BLCB;
 869:../../Middlewares/Camera_Middleware/ISP_Library/isp/Src/isp_services.c ****     halStatus = HAL_DCMIPP_PIPE_SetISPBlackLevelCalibrationConfig(hIsp->hDcmipp, DCMIPP_PIPE1, &bla
 870:../../Middlewares/Camera_Middleware/ISP_Library/isp/Src/isp_services.c **** 
 871:../../Middlewares/Camera_Middleware/ISP_Library/isp/Src/isp_services.c ****     if (halStatus == HAL_OK)
 872:../../Middlewares/Camera_Middleware/ISP_Library/isp/Src/isp_services.c ****     {
 873:../../Middlewares/Camera_Middleware/ISP_Library/isp/Src/isp_services.c ****       halStatus = HAL_DCMIPP_PIPE_EnableISPBlackLevelCalibration(hIsp->hDcmipp, DCMIPP_PIPE1);
 874:../../Middlewares/Camera_Middleware/ISP_Library/isp/Src/isp_services.c ****     }
 875:../../Middlewares/Camera_Middleware/ISP_Library/isp/Src/isp_services.c ****   }
 876:../../Middlewares/Camera_Middleware/ISP_Library/isp/Src/isp_services.c **** 
 877:../../Middlewares/Camera_Middleware/ISP_Library/isp/Src/isp_services.c ****   if (halStatus != HAL_OK)
 1428              		.loc 1 877 3 is_stmt 1 view .LVU446
 1429              		.loc 1 877 6 is_stmt 0 view .LVU447
 1430 0014 78B1     		cbz	r0, .L123
 1431              		.loc 1 877 6 view .LVU448
 1432 0016 0DE0     		b	.L127
 1433              	.LVL112:
 1434              	.L124:
 866:../../Middlewares/Camera_Middleware/ISP_Library/isp/Src/isp_services.c ****     blackLevelConfig.GreenCompBlackLevel = pConfig->BLCG;
 1435              		.loc 1 866 5 is_stmt 1 view .LVU449
 866:../../Middlewares/Camera_Middleware/ISP_Library/isp/Src/isp_services.c ****     blackLevelConfig.GreenCompBlackLevel = pConfig->BLCG;
 1436              		.loc 1 866 40 is_stmt 0 view .LVU450
 1437 0018 4B78     		ldrb	r3, [r1, #1]	@ zero_extendqisi2
 869:../../Middlewares/Camera_Middleware/ISP_Library/isp/Src/isp_services.c **** 
 1438              		.loc 1 869 17 view .LVU451
 1439 001a 01AA     		add	r2, sp, #4
 866:../../Middlewares/Camera_Middleware/ISP_Library/isp/Src/isp_services.c ****     blackLevelConfig.GreenCompBlackLevel = pConfig->BLCG;
 1440              		.loc 1 866 40 view .LVU452
 1441 001c 8DF80430 		strb	r3, [sp, #4]
 867:../../Middlewares/Camera_Middleware/ISP_Library/isp/Src/isp_services.c ****     blackLevelConfig.BlueCompBlackLevel = pConfig->BLCB;
 1442              		.loc 1 867 5 is_stmt 1 view .LVU453
 867:../../Middlewares/Camera_Middleware/ISP_Library/isp/Src/isp_services.c ****     blackLevelConfig.BlueCompBlackLevel = pConfig->BLCB;
 1443              		.loc 1 867 42 is_stmt 0 view .LVU454
 1444 0020 8B78     		ldrb	r3, [r1, #2]	@ zero_extendqisi2
 1445 0022 8DF80530 		strb	r3, [sp, #5]
 868:../../Middlewares/Camera_Middleware/ISP_Library/isp/Src/isp_services.c ****     halStatus = HAL_DCMIPP_PIPE_SetISPBlackLevelCalibrationConfig(hIsp->hDcmipp, DCMIPP_PIPE1, &bla
 1446              		.loc 1 868 5 is_stmt 1 view .LVU455
ARM GAS  C:\Users\Antonio\AppData\Local\Temp\ccF6VN3M.s 			page 45


 868:../../Middlewares/Camera_Middleware/ISP_Library/isp/Src/isp_services.c ****     halStatus = HAL_DCMIPP_PIPE_SetISPBlackLevelCalibrationConfig(hIsp->hDcmipp, DCMIPP_PIPE1, &bla
 1447              		.loc 1 868 41 is_stmt 0 view .LVU456
 1448 0026 CB78     		ldrb	r3, [r1, #3]	@ zero_extendqisi2
 869:../../Middlewares/Camera_Middleware/ISP_Library/isp/Src/isp_services.c **** 
 1449              		.loc 1 869 17 view .LVU457
 1450 0028 0121     		movs	r1, #1
 1451              	.LVL113:
 868:../../Middlewares/Camera_Middleware/ISP_Library/isp/Src/isp_services.c ****     halStatus = HAL_DCMIPP_PIPE_SetISPBlackLevelCalibrationConfig(hIsp->hDcmipp, DCMIPP_PIPE1, &bla
 1452              		.loc 1 868 41 view .LVU458
 1453 002a 8DF80630 		strb	r3, [sp, #6]
 869:../../Middlewares/Camera_Middleware/ISP_Library/isp/Src/isp_services.c **** 
 1454              		.loc 1 869 5 is_stmt 1 view .LVU459
 869:../../Middlewares/Camera_Middleware/ISP_Library/isp/Src/isp_services.c **** 
 1455              		.loc 1 869 17 is_stmt 0 view .LVU460
 1456 002e FFF7FEFF 		bl	HAL_DCMIPP_PIPE_SetISPBlackLevelCalibrationConfig
 1457              	.LVL114:
 871:../../Middlewares/Camera_Middleware/ISP_Library/isp/Src/isp_services.c ****     {
 1458              		.loc 1 871 5 is_stmt 1 view .LVU461
 871:../../Middlewares/Camera_Middleware/ISP_Library/isp/Src/isp_services.c ****     {
 1459              		.loc 1 871 8 is_stmt 0 view .LVU462
 1460 0032 10B1     		cbz	r0, .L126
 1461              	.L127:
 878:../../Middlewares/Camera_Middleware/ISP_Library/isp/Src/isp_services.c ****   {
 879:../../Middlewares/Camera_Middleware/ISP_Library/isp/Src/isp_services.c ****     return ISP_ERR_BLACKLEVEL_HAL;
 1462              		.loc 1 879 12 view .LVU463
 1463 0034 4720     		movs	r0, #71
 1464              	.LVL115:
 1465              	.L123:
 880:../../Middlewares/Camera_Middleware/ISP_Library/isp/Src/isp_services.c ****   }
 881:../../Middlewares/Camera_Middleware/ISP_Library/isp/Src/isp_services.c **** 
 882:../../Middlewares/Camera_Middleware/ISP_Library/isp/Src/isp_services.c ****   return ISP_OK;
 883:../../Middlewares/Camera_Middleware/ISP_Library/isp/Src/isp_services.c **** }
 1466              		.loc 1 883 1 view .LVU464
 1467 0036 02B0     		add	sp, sp, #8
 1468              		.cfi_remember_state
 1469              		.cfi_def_cfa_offset 8
 1470              		@ sp needed
 1471 0038 10BD     		pop	{r4, pc}
 1472              	.LVL116:
 1473              	.L126:
 1474              		.cfi_restore_state
 873:../../Middlewares/Camera_Middleware/ISP_Library/isp/Src/isp_services.c ****     }
 1475              		.loc 1 873 7 is_stmt 1 view .LVU465
 873:../../Middlewares/Camera_Middleware/ISP_Library/isp/Src/isp_services.c ****     }
 1476              		.loc 1 873 19 is_stmt 0 view .LVU466
 1477 003a 0121     		movs	r1, #1
 1478 003c 2068     		ldr	r0, [r4]
 1479              	.LVL117:
 873:../../Middlewares/Camera_Middleware/ISP_Library/isp/Src/isp_services.c ****     }
 1480              		.loc 1 873 19 view .LVU467
 1481 003e FFF7FEFF 		bl	HAL_DCMIPP_PIPE_EnableISPBlackLevelCalibration
 1482              	.LVL118:
 873:../../Middlewares/Camera_Middleware/ISP_Library/isp/Src/isp_services.c ****     }
 1483              		.loc 1 873 19 view .LVU468
 1484 0042 E7E7     		b	.L125
 1485              	.LVL119:
 1486              	.L129:
ARM GAS  C:\Users\Antonio\AppData\Local\Temp\ccF6VN3M.s 			page 46


 857:../../Middlewares/Camera_Middleware/ISP_Library/isp/Src/isp_services.c ****   }
 1487              		.loc 1 857 12 view .LVU469
 1488 0044 4620     		movs	r0, #70
 1489              	.LVL120:
 857:../../Middlewares/Camera_Middleware/ISP_Library/isp/Src/isp_services.c ****   }
 1490              		.loc 1 857 12 view .LVU470
 1491 0046 F6E7     		b	.L123
 1492              		.cfi_endproc
 1493              	.LFE859:
 1495              		.section	.text.ISP_SVC_ISP_GetBlackLevel,"ax",%progbits
 1496              		.align	1
 1497              		.global	ISP_SVC_ISP_GetBlackLevel
 1498              		.syntax unified
 1499              		.thumb
 1500              		.thumb_func
 1502              	ISP_SVC_ISP_GetBlackLevel:
 1503              	.LVL121:
 1504              	.LFB860:
 884:../../Middlewares/Camera_Middleware/ISP_Library/isp/Src/isp_services.c **** 
 885:../../Middlewares/Camera_Middleware/ISP_Library/isp/Src/isp_services.c **** /**
 886:../../Middlewares/Camera_Middleware/ISP_Library/isp/Src/isp_services.c ****   * @brief  ISP_SVC_ISP_GetBlackLevel
 887:../../Middlewares/Camera_Middleware/ISP_Library/isp/Src/isp_services.c ****   *         Get the ISP Black Level calibration
 888:../../Middlewares/Camera_Middleware/ISP_Library/isp/Src/isp_services.c ****   * @param  hIsp: ISP device handle
 889:../../Middlewares/Camera_Middleware/ISP_Library/isp/Src/isp_services.c ****   * @param  pConfig: Pointer to the black level configuration
 890:../../Middlewares/Camera_Middleware/ISP_Library/isp/Src/isp_services.c ****   * @retval operation result
 891:../../Middlewares/Camera_Middleware/ISP_Library/isp/Src/isp_services.c ****   */
 892:../../Middlewares/Camera_Middleware/ISP_Library/isp/Src/isp_services.c **** ISP_StatusTypeDef ISP_SVC_ISP_GetBlackLevel(ISP_HandleTypeDef *hIsp, ISP_BlackLevelTypeDef *pConfig
 893:../../Middlewares/Camera_Middleware/ISP_Library/isp/Src/isp_services.c **** {
 1505              		.loc 1 893 1 is_stmt 1 view -0
 1506              		.cfi_startproc
 1507              		@ args = 0, pretend = 0, frame = 8
 1508              		@ frame_needed = 0, uses_anonymous_args = 0
 894:../../Middlewares/Camera_Middleware/ISP_Library/isp/Src/isp_services.c ****   DCMIPP_BlackLevelConfTypeDef blackLevelConfig;
 1509              		.loc 1 894 3 view .LVU472
 895:../../Middlewares/Camera_Middleware/ISP_Library/isp/Src/isp_services.c **** 
 896:../../Middlewares/Camera_Middleware/ISP_Library/isp/Src/isp_services.c ****   /* Check handle validity */
 897:../../Middlewares/Camera_Middleware/ISP_Library/isp/Src/isp_services.c ****   if ((hIsp == NULL) || (pConfig == NULL))
 1510              		.loc 1 897 3 view .LVU473
 893:../../Middlewares/Camera_Middleware/ISP_Library/isp/Src/isp_services.c ****   DCMIPP_BlackLevelConfTypeDef blackLevelConfig;
 1511              		.loc 1 893 1 is_stmt 0 view .LVU474
 1512 0000 37B5     		push	{r0, r1, r2, r4, r5, lr}
 1513              		.cfi_def_cfa_offset 24
 1514              		.cfi_offset 4, -12
 1515              		.cfi_offset 5, -8
 1516              		.cfi_offset 14, -4
 893:../../Middlewares/Camera_Middleware/ISP_Library/isp/Src/isp_services.c ****   DCMIPP_BlackLevelConfTypeDef blackLevelConfig;
 1517              		.loc 1 893 1 view .LVU475
 1518 0002 0C46     		mov	r4, r1
 1519              		.loc 1 897 6 view .LVU476
 1520 0004 0546     		mov	r5, r0
 1521 0006 B0B1     		cbz	r0, .L133
 1522              		.loc 1 897 22 discriminator 1 view .LVU477
 1523 0008 A9B1     		cbz	r1, .L133
 898:../../Middlewares/Camera_Middleware/ISP_Library/isp/Src/isp_services.c ****   {
 899:../../Middlewares/Camera_Middleware/ISP_Library/isp/Src/isp_services.c ****     return ISP_ERR_BLACKLEVEL_EINVAL;
 900:../../Middlewares/Camera_Middleware/ISP_Library/isp/Src/isp_services.c ****   }
 901:../../Middlewares/Camera_Middleware/ISP_Library/isp/Src/isp_services.c **** 
ARM GAS  C:\Users\Antonio\AppData\Local\Temp\ccF6VN3M.s 			page 47


 902:../../Middlewares/Camera_Middleware/ISP_Library/isp/Src/isp_services.c ****   pConfig->enable = HAL_DCMIPP_PIPE_IsEnabledISPBlackLevelCalibration(hIsp->hDcmipp, DCMIPP_PIPE1);
 1524              		.loc 1 902 3 is_stmt 1 view .LVU478
 1525              		.loc 1 902 21 is_stmt 0 view .LVU479
 1526 000a 0121     		movs	r1, #1
 1527              	.LVL122:
 1528              		.loc 1 902 21 view .LVU480
 1529 000c 0068     		ldr	r0, [r0]
 1530              	.LVL123:
 1531              		.loc 1 902 21 view .LVU481
 1532 000e FFF7FEFF 		bl	HAL_DCMIPP_PIPE_IsEnabledISPBlackLevelCalibration
 1533              	.LVL124:
 1534              		.loc 1 902 19 discriminator 1 view .LVU482
 1535 0012 2070     		strb	r0, [r4]
 903:../../Middlewares/Camera_Middleware/ISP_Library/isp/Src/isp_services.c **** 
 904:../../Middlewares/Camera_Middleware/ISP_Library/isp/Src/isp_services.c ****   HAL_DCMIPP_PIPE_GetISPBlackLevelCalibrationConfig(hIsp->hDcmipp, DCMIPP_PIPE1, &blackLevelConfig)
 1536              		.loc 1 904 3 is_stmt 1 view .LVU483
 1537 0014 2868     		ldr	r0, [r5]
 1538 0016 0121     		movs	r1, #1
 1539 0018 01AA     		add	r2, sp, #4
 1540 001a FFF7FEFF 		bl	HAL_DCMIPP_PIPE_GetISPBlackLevelCalibrationConfig
 1541              	.LVL125:
 905:../../Middlewares/Camera_Middleware/ISP_Library/isp/Src/isp_services.c **** 
 906:../../Middlewares/Camera_Middleware/ISP_Library/isp/Src/isp_services.c ****   pConfig->BLCR = blackLevelConfig.RedCompBlackLevel;
 1542              		.loc 1 906 3 view .LVU484
 907:../../Middlewares/Camera_Middleware/ISP_Library/isp/Src/isp_services.c ****   pConfig->BLCG = blackLevelConfig.GreenCompBlackLevel;
 908:../../Middlewares/Camera_Middleware/ISP_Library/isp/Src/isp_services.c ****   pConfig->BLCB = blackLevelConfig.BlueCompBlackLevel;
 909:../../Middlewares/Camera_Middleware/ISP_Library/isp/Src/isp_services.c **** 
 910:../../Middlewares/Camera_Middleware/ISP_Library/isp/Src/isp_services.c ****   return ISP_OK;
 1543              		.loc 1 910 10 is_stmt 0 view .LVU485
 1544 001e 0020     		movs	r0, #0
 906:../../Middlewares/Camera_Middleware/ISP_Library/isp/Src/isp_services.c ****   pConfig->BLCG = blackLevelConfig.GreenCompBlackLevel;
 1545              		.loc 1 906 17 view .LVU486
 1546 0020 9DF80430 		ldrb	r3, [sp, #4]	@ zero_extendqisi2
 1547 0024 6370     		strb	r3, [r4, #1]
 907:../../Middlewares/Camera_Middleware/ISP_Library/isp/Src/isp_services.c ****   pConfig->BLCG = blackLevelConfig.GreenCompBlackLevel;
 1548              		.loc 1 907 3 is_stmt 1 view .LVU487
 907:../../Middlewares/Camera_Middleware/ISP_Library/isp/Src/isp_services.c ****   pConfig->BLCG = blackLevelConfig.GreenCompBlackLevel;
 1549              		.loc 1 907 17 is_stmt 0 view .LVU488
 1550 0026 9DF80530 		ldrb	r3, [sp, #5]	@ zero_extendqisi2
 1551 002a A370     		strb	r3, [r4, #2]
 908:../../Middlewares/Camera_Middleware/ISP_Library/isp/Src/isp_services.c **** 
 1552              		.loc 1 908 3 is_stmt 1 view .LVU489
 908:../../Middlewares/Camera_Middleware/ISP_Library/isp/Src/isp_services.c **** 
 1553              		.loc 1 908 17 is_stmt 0 view .LVU490
 1554 002c 9DF80630 		ldrb	r3, [sp, #6]	@ zero_extendqisi2
 1555 0030 E370     		strb	r3, [r4, #3]
 1556              		.loc 1 910 3 is_stmt 1 view .LVU491
 1557              	.L131:
 911:../../Middlewares/Camera_Middleware/ISP_Library/isp/Src/isp_services.c **** }
 1558              		.loc 1 911 1 is_stmt 0 view .LVU492
 1559 0032 03B0     		add	sp, sp, #12
 1560              		.cfi_remember_state
 1561              		.cfi_def_cfa_offset 12
 1562              		@ sp needed
 1563 0034 30BD     		pop	{r4, r5, pc}
 1564              	.LVL126:
 1565              	.L133:
ARM GAS  C:\Users\Antonio\AppData\Local\Temp\ccF6VN3M.s 			page 48


 1566              		.cfi_restore_state
 899:../../Middlewares/Camera_Middleware/ISP_Library/isp/Src/isp_services.c ****   }
 1567              		.loc 1 899 12 view .LVU493
 1568 0036 4620     		movs	r0, #70
 1569              	.LVL127:
 899:../../Middlewares/Camera_Middleware/ISP_Library/isp/Src/isp_services.c ****   }
 1570              		.loc 1 899 12 view .LVU494
 1571 0038 FBE7     		b	.L131
 1572              		.cfi_endproc
 1573              	.LFE860:
 1575              		.global	__aeabi_uldivmod
 1576              		.global	__aeabi_ldivmod
 1577              		.section	.text.ISP_SVC_ISP_SetGain,"ax",%progbits
 1578              		.align	1
 1579              		.global	ISP_SVC_ISP_SetGain
 1580              		.syntax unified
 1581              		.thumb
 1582              		.thumb_func
 1584              	ISP_SVC_ISP_SetGain:
 1585              	.LVL128:
 1586              	.LFB861:
 912:../../Middlewares/Camera_Middleware/ISP_Library/isp/Src/isp_services.c **** 
 913:../../Middlewares/Camera_Middleware/ISP_Library/isp/Src/isp_services.c **** /**
 914:../../Middlewares/Camera_Middleware/ISP_Library/isp/Src/isp_services.c ****   * @brief  ISP_SVC_ISP_SetGain
 915:../../Middlewares/Camera_Middleware/ISP_Library/isp/Src/isp_services.c ****   *         Set the ISP Exposure and White Balance gains
 916:../../Middlewares/Camera_Middleware/ISP_Library/isp/Src/isp_services.c ****   * @param  hIsp: ISP device handle
 917:../../Middlewares/Camera_Middleware/ISP_Library/isp/Src/isp_services.c ****   * @param  pConfig: Pointer to the ISP gain configuration
 918:../../Middlewares/Camera_Middleware/ISP_Library/isp/Src/isp_services.c ****   * @retval operation result
 919:../../Middlewares/Camera_Middleware/ISP_Library/isp/Src/isp_services.c ****   */
 920:../../Middlewares/Camera_Middleware/ISP_Library/isp/Src/isp_services.c **** ISP_StatusTypeDef ISP_SVC_ISP_SetGain(ISP_HandleTypeDef *hIsp, ISP_ISPGainTypeDef *pConfig)
 921:../../Middlewares/Camera_Middleware/ISP_Library/isp/Src/isp_services.c **** {
 1587              		.loc 1 921 1 is_stmt 1 view -0
 1588              		.cfi_startproc
 1589              		@ args = 0, pretend = 0, frame = 8
 1590              		@ frame_needed = 0, uses_anonymous_args = 0
 922:../../Middlewares/Camera_Middleware/ISP_Library/isp/Src/isp_services.c ****   HAL_StatusTypeDef halStatus;
 1591              		.loc 1 922 3 view .LVU496
 923:../../Middlewares/Camera_Middleware/ISP_Library/isp/Src/isp_services.c ****   DCMIPP_ExposureConfTypeDef exposureConfig;
 1592              		.loc 1 923 3 view .LVU497
 924:../../Middlewares/Camera_Middleware/ISP_Library/isp/Src/isp_services.c **** 
 925:../../Middlewares/Camera_Middleware/ISP_Library/isp/Src/isp_services.c ****   if ((hIsp == NULL) || (pConfig == NULL) ||
 1593              		.loc 1 925 3 view .LVU498
 921:../../Middlewares/Camera_Middleware/ISP_Library/isp/Src/isp_services.c ****   HAL_StatusTypeDef halStatus;
 1594              		.loc 1 921 1 is_stmt 0 view .LVU499
 1595 0000 2DE9F74F 		push	{r0, r1, r2, r4, r5, r6, r7, r8, r9, r10, fp, lr}
 1596              		.cfi_def_cfa_offset 48
 1597              		.cfi_offset 4, -36
 1598              		.cfi_offset 5, -32
 1599              		.cfi_offset 6, -28
 1600              		.cfi_offset 7, -24
 1601              		.cfi_offset 8, -20
 1602              		.cfi_offset 9, -16
 1603              		.cfi_offset 10, -12
 1604              		.cfi_offset 11, -8
 1605              		.cfi_offset 14, -4
 1606              		.loc 1 925 6 view .LVU500
 1607 0004 0546     		mov	r5, r0
ARM GAS  C:\Users\Antonio\AppData\Local\Temp\ccF6VN3M.s 			page 49


 1608 0006 0028     		cmp	r0, #0
 1609 0008 00F08B80 		beq	.L156
 1610              		.loc 1 925 22 discriminator 1 view .LVU501
 1611 000c 0029     		cmp	r1, #0
 1612 000e 00F08880 		beq	.L156
 926:../../Middlewares/Camera_Middleware/ISP_Library/isp/Src/isp_services.c ****       (pConfig->ispGainR > ISP_EXPOSURE_GAIN_MAX) || (pConfig->ispGainG > ISP_EXPOSURE_GAIN_MAX) ||
 1613              		.loc 1 926 15 view .LVU502
 1614 0012 4A68     		ldr	r2, [r1, #4]
 925:../../Middlewares/Camera_Middleware/ISP_Library/isp/Src/isp_services.c ****       (pConfig->ispGainR > ISP_EXPOSURE_GAIN_MAX) || (pConfig->ispGainG > ISP_EXPOSURE_GAIN_MAX) ||
 1615              		.loc 1 925 43 discriminator 2 view .LVU503
 1616 0014 464B     		ldr	r3, .L157+8
 1617 0016 9A42     		cmp	r2, r3
 1618 0018 00F28380 		bhi	.L156
 1619              		.loc 1 926 62 view .LVU504
 1620 001c D1F80880 		ldr	r8, [r1, #8]
 1621              		.loc 1 926 51 view .LVU505
 1622 0020 9845     		cmp	r8, r3
 1623 0022 7ED8     		bhi	.L156
 1624              		.loc 1 926 109 discriminator 1 view .LVU506
 1625 0024 CF68     		ldr	r7, [r1, #12]
 1626              		.loc 1 926 98 discriminator 1 view .LVU507
 1627 0026 9F42     		cmp	r7, r3
 1628 0028 7BD8     		bhi	.L156
 927:../../Middlewares/Camera_Middleware/ISP_Library/isp/Src/isp_services.c ****   {
 928:../../Middlewares/Camera_Middleware/ISP_Library/isp/Src/isp_services.c ****     return ISP_ERR_ISPGAIN_EINVAL;
 929:../../Middlewares/Camera_Middleware/ISP_Library/isp/Src/isp_services.c ****   }
 930:../../Middlewares/Camera_Middleware/ISP_Library/isp/Src/isp_services.c **** 
 931:../../Middlewares/Camera_Middleware/ISP_Library/isp/Src/isp_services.c ****   if (pConfig->enable == 0)
 1629              		.loc 1 931 3 is_stmt 1 view .LVU508
 1630              		.loc 1 931 6 is_stmt 0 view .LVU509
 1631 002a 0B78     		ldrb	r3, [r1]	@ zero_extendqisi2
 932:../../Middlewares/Camera_Middleware/ISP_Library/isp/Src/isp_services.c ****   {
 933:../../Middlewares/Camera_Middleware/ISP_Library/isp/Src/isp_services.c ****     halStatus = HAL_DCMIPP_PIPE_DisableISPExposure(hIsp->hDcmipp, DCMIPP_PIPE1);
 1632              		.loc 1 933 56 view .LVU510
 1633 002c 0668     		ldr	r6, [r0]
 931:../../Middlewares/Camera_Middleware/ISP_Library/isp/Src/isp_services.c ****   {
 1634              		.loc 1 931 6 view .LVU511
 1635 002e 33B9     		cbnz	r3, .L136
 1636              		.loc 1 933 5 is_stmt 1 view .LVU512
 1637              		.loc 1 933 17 is_stmt 0 view .LVU513
 1638 0030 0121     		movs	r1, #1
 1639              	.LVL129:
 1640              		.loc 1 933 17 view .LVU514
 1641 0032 3046     		mov	r0, r6
 1642              	.LVL130:
 1643              		.loc 1 933 17 view .LVU515
 1644 0034 FFF7FEFF 		bl	HAL_DCMIPP_PIPE_DisableISPExposure
 1645              	.LVL131:
 1646              	.L137:
 934:../../Middlewares/Camera_Middleware/ISP_Library/isp/Src/isp_services.c ****   }
 935:../../Middlewares/Camera_Middleware/ISP_Library/isp/Src/isp_services.c ****   else
 936:../../Middlewares/Camera_Middleware/ISP_Library/isp/Src/isp_services.c ****   {
 937:../../Middlewares/Camera_Middleware/ISP_Library/isp/Src/isp_services.c ****     To_Shift_Multiplier(pConfig->ispGainR, &exposureConfig.ShiftRed, &exposureConfig.MultiplierRed)
 938:../../Middlewares/Camera_Middleware/ISP_Library/isp/Src/isp_services.c ****     To_Shift_Multiplier(pConfig->ispGainG, &exposureConfig.ShiftGreen, &exposureConfig.MultiplierGr
 939:../../Middlewares/Camera_Middleware/ISP_Library/isp/Src/isp_services.c ****     To_Shift_Multiplier(pConfig->ispGainB, &exposureConfig.ShiftBlue, &exposureConfig.MultiplierBlu
 940:../../Middlewares/Camera_Middleware/ISP_Library/isp/Src/isp_services.c ****     halStatus = HAL_DCMIPP_PIPE_SetISPExposureConfig(hIsp->hDcmipp, DCMIPP_PIPE1, &exposureConfig);
 941:../../Middlewares/Camera_Middleware/ISP_Library/isp/Src/isp_services.c **** 
ARM GAS  C:\Users\Antonio\AppData\Local\Temp\ccF6VN3M.s 			page 50


 942:../../Middlewares/Camera_Middleware/ISP_Library/isp/Src/isp_services.c ****     if (halStatus == HAL_OK)
 943:../../Middlewares/Camera_Middleware/ISP_Library/isp/Src/isp_services.c ****     {
 944:../../Middlewares/Camera_Middleware/ISP_Library/isp/Src/isp_services.c ****       halStatus = HAL_DCMIPP_PIPE_EnableISPExposure(hIsp->hDcmipp, DCMIPP_PIPE1);
 945:../../Middlewares/Camera_Middleware/ISP_Library/isp/Src/isp_services.c ****     }
 946:../../Middlewares/Camera_Middleware/ISP_Library/isp/Src/isp_services.c ****   }
 947:../../Middlewares/Camera_Middleware/ISP_Library/isp/Src/isp_services.c **** 
 948:../../Middlewares/Camera_Middleware/ISP_Library/isp/Src/isp_services.c ****   if (halStatus != HAL_OK)
 1647              		.loc 1 948 3 is_stmt 1 view .LVU516
 1648              		.loc 1 948 6 is_stmt 0 view .LVU517
 1649 0038 0028     		cmp	r0, #0
 1650 003a 5BD0     		beq	.L135
 1651              		.loc 1 948 6 view .LVU518
 1652 003c 59E0     		b	.L151
 1653              	.LVL132:
 1654              	.L136:
 937:../../Middlewares/Camera_Middleware/ISP_Library/isp/Src/isp_services.c ****     To_Shift_Multiplier(pConfig->ispGainG, &exposureConfig.ShiftGreen, &exposureConfig.MultiplierGr
 1655              		.loc 1 937 5 is_stmt 1 view .LVU519
 1656              	.LBB68:
 1657              	.LBI68:
 150:../../Middlewares/Camera_Middleware/ISP_Library/isp/Src/isp_services.c **** {
 1658              		.loc 1 150 13 view .LVU520
 1659              	.LBB69:
 153:../../Middlewares/Camera_Middleware/ISP_Library/isp/Src/isp_services.c ****   Val = (Val * 128) / ISP_GAIN_PRECISION_FACTOR;
 1660              		.loc 1 153 3 view .LVU521
 154:../../Middlewares/Camera_Middleware/ISP_Library/isp/Src/isp_services.c **** 
 1661              		.loc 1 154 3 view .LVU522
 154:../../Middlewares/Camera_Middleware/ISP_Library/isp/Src/isp_services.c **** 
 1662              		.loc 1 154 14 is_stmt 0 view .LVU523
 1663 003e 0024     		movs	r4, #0
 1664 0040 1046     		mov	r0, r2
 1665              	.LVL133:
 154:../../Middlewares/Camera_Middleware/ISP_Library/isp/Src/isp_services.c **** 
 1666              		.loc 1 154 7 view .LVU524
 1667 0042 39A3     		adr	r3, .L157
 1668 0044 D3E90023 		ldrd	r2, [r3]
 1669              	.LVL134:
 154:../../Middlewares/Camera_Middleware/ISP_Library/isp/Src/isp_services.c **** 
 1670              		.loc 1 154 14 view .LVU525
 1671 0048 2146     		mov	r1, r4
 1672              	.LVL135:
 154:../../Middlewares/Camera_Middleware/ISP_Library/isp/Src/isp_services.c **** 
 1673              		.loc 1 154 14 view .LVU526
 1674 004a 50EACF11 		lsll	r0, r1, #7
 1675              	.LVL136:
 154:../../Middlewares/Camera_Middleware/ISP_Library/isp/Src/isp_services.c **** 
 1676              		.loc 1 154 7 view .LVU527
 1677 004e FFF7FEFF 		bl	__aeabi_uldivmod
 1678              	.LVL137:
 158:../../Middlewares/Camera_Middleware/ISP_Library/isp/Src/isp_services.c ****   {
 1679              		.loc 1 158 9 view .LVU528
 1680 0052 2346     		mov	r3, r4
 154:../../Middlewares/Camera_Middleware/ISP_Library/isp/Src/isp_services.c **** 
 1681              		.loc 1 154 7 view .LVU529
 1682 0054 8246     		mov	r10, r0
 1683 0056 8B46     		mov	fp, r1
 1684              	.LVL138:
 157:../../Middlewares/Camera_Middleware/ISP_Library/isp/Src/isp_services.c ****   while (Val >= 256)
ARM GAS  C:\Users\Antonio\AppData\Local\Temp\ccF6VN3M.s 			page 51


 1685              		.loc 1 157 3 is_stmt 1 view .LVU530
 158:../../Middlewares/Camera_Middleware/ISP_Library/isp/Src/isp_services.c ****   {
 1686              		.loc 1 158 3 view .LVU531
 158:../../Middlewares/Camera_Middleware/ISP_Library/isp/Src/isp_services.c ****   {
 1687              		.loc 1 158 9 is_stmt 0 view .LVU532
 1688 0058 2246     		mov	r2, r4
 1689              	.L138:
 158:../../Middlewares/Camera_Middleware/ISP_Library/isp/Src/isp_services.c ****   {
 1690              		.loc 1 158 14 is_stmt 1 view .LVU533
 1691 005a BAF5807F 		cmp	r10, #256
 1692 005e 7BF10000 		sbcs	r0, fp, #0
 1693 0062 03F10101 		add	r1, r3, #1
 1694 0066 48D2     		bcs	.L139
 158:../../Middlewares/Camera_Middleware/ISP_Library/isp/Src/isp_services.c ****   {
 1695              		.loc 1 158 14 is_stmt 0 view .LVU534
 1696              	.LBE69:
 1697              	.LBE68:
 1698              	.LBB74:
 1699              	.LBB75:
 154:../../Middlewares/Camera_Middleware/ISP_Library/isp/Src/isp_services.c **** 
 1700              		.loc 1 154 14 view .LVU535
 1701 0068 0024     		movs	r4, #0
 1702              	.LBE75:
 1703              	.LBE74:
 1704              	.LBB83:
 1705              	.LBB70:
 157:../../Middlewares/Camera_Middleware/ISP_Library/isp/Src/isp_services.c ****   while (Val >= 256)
 1706              		.loc 1 157 11 view .LVU536
 1707 006a 002A     		cmp	r2, #0
 1708 006c 08BF     		it	eq
 1709 006e 1346     		moveq	r3, r2
 1710              	.LBE70:
 1711              	.LBE83:
 1712              	.LBB84:
 1713              	.LBB76:
 154:../../Middlewares/Camera_Middleware/ISP_Library/isp/Src/isp_services.c **** 
 1714              		.loc 1 154 14 view .LVU537
 1715 0070 4046     		mov	r0, r8
 1716 0072 2146     		mov	r1, r4
 1717              	.LBE76:
 1718              	.LBE84:
 1719              	.LBB85:
 1720              	.LBB71:
 157:../../Middlewares/Camera_Middleware/ISP_Library/isp/Src/isp_services.c ****   while (Val >= 256)
 1721              		.loc 1 157 11 view .LVU538
 1722 0074 8DF80030 		strb	r3, [sp]
 164:../../Middlewares/Camera_Middleware/ISP_Library/isp/Src/isp_services.c **** }
 1723              		.loc 1 164 3 is_stmt 1 view .LVU539
 1724              	.LBE71:
 1725              	.LBE85:
 1726              	.LBB86:
 1727              	.LBB77:
 154:../../Middlewares/Camera_Middleware/ISP_Library/isp/Src/isp_services.c **** 
 1728              		.loc 1 154 14 is_stmt 0 view .LVU540
 1729 0078 50EACF11 		lsll	r0, r1, #7
 154:../../Middlewares/Camera_Middleware/ISP_Library/isp/Src/isp_services.c **** 
 1730              		.loc 1 154 7 view .LVU541
ARM GAS  C:\Users\Antonio\AppData\Local\Temp\ccF6VN3M.s 			page 52


 1731 007c 2AA3     		adr	r3, .L157
 1732 007e D3E90023 		ldrd	r2, [r3]
 1733              	.LBE77:
 1734              	.LBE86:
 1735              	.LBB87:
 1736              	.LBB72:
 164:../../Middlewares/Camera_Middleware/ISP_Library/isp/Src/isp_services.c **** }
 1737              		.loc 1 164 16 view .LVU542
 1738 0082 8DF801A0 		strb	r10, [sp, #1]
 1739              	.LVL139:
 164:../../Middlewares/Camera_Middleware/ISP_Library/isp/Src/isp_services.c **** }
 1740              		.loc 1 164 16 view .LVU543
 1741              	.LBE72:
 1742              	.LBE87:
 938:../../Middlewares/Camera_Middleware/ISP_Library/isp/Src/isp_services.c ****     To_Shift_Multiplier(pConfig->ispGainB, &exposureConfig.ShiftBlue, &exposureConfig.MultiplierBlu
 1743              		.loc 1 938 5 is_stmt 1 view .LVU544
 1744              	.LBB88:
 1745              	.LBI74:
 150:../../Middlewares/Camera_Middleware/ISP_Library/isp/Src/isp_services.c **** {
 1746              		.loc 1 150 13 view .LVU545
 1747              	.LBB78:
 153:../../Middlewares/Camera_Middleware/ISP_Library/isp/Src/isp_services.c ****   Val = (Val * 128) / ISP_GAIN_PRECISION_FACTOR;
 1748              		.loc 1 153 3 view .LVU546
 154:../../Middlewares/Camera_Middleware/ISP_Library/isp/Src/isp_services.c **** 
 1749              		.loc 1 154 3 view .LVU547
 154:../../Middlewares/Camera_Middleware/ISP_Library/isp/Src/isp_services.c **** 
 1750              		.loc 1 154 7 is_stmt 0 view .LVU548
 1751 0086 FFF7FEFF 		bl	__aeabi_uldivmod
 1752              	.LVL140:
 158:../../Middlewares/Camera_Middleware/ISP_Library/isp/Src/isp_services.c ****   {
 1753              		.loc 1 158 9 view .LVU549
 1754 008a 2346     		mov	r3, r4
 154:../../Middlewares/Camera_Middleware/ISP_Library/isp/Src/isp_services.c **** 
 1755              		.loc 1 154 7 view .LVU550
 1756 008c 8046     		mov	r8, r0
 1757              	.LVL141:
 154:../../Middlewares/Camera_Middleware/ISP_Library/isp/Src/isp_services.c **** 
 1758              		.loc 1 154 7 view .LVU551
 1759 008e 8946     		mov	r9, r1
 1760              	.LVL142:
 157:../../Middlewares/Camera_Middleware/ISP_Library/isp/Src/isp_services.c ****   while (Val >= 256)
 1761              		.loc 1 157 3 is_stmt 1 view .LVU552
 158:../../Middlewares/Camera_Middleware/ISP_Library/isp/Src/isp_services.c ****   {
 1762              		.loc 1 158 3 view .LVU553
 158:../../Middlewares/Camera_Middleware/ISP_Library/isp/Src/isp_services.c ****   {
 1763              		.loc 1 158 9 is_stmt 0 view .LVU554
 1764 0090 2246     		mov	r2, r4
 1765              	.L142:
 158:../../Middlewares/Camera_Middleware/ISP_Library/isp/Src/isp_services.c ****   {
 1766              		.loc 1 158 14 is_stmt 1 view .LVU555
 1767 0092 B8F5807F 		cmp	r8, #256
 1768 0096 79F10000 		sbcs	r0, r9, #0
 1769 009a 03F10101 		add	r1, r3, #1
 1770 009e 31D2     		bcs	.L143
 158:../../Middlewares/Camera_Middleware/ISP_Library/isp/Src/isp_services.c ****   {
 1771              		.loc 1 158 14 is_stmt 0 view .LVU556
 1772              	.LBE78:
ARM GAS  C:\Users\Antonio\AppData\Local\Temp\ccF6VN3M.s 			page 53


 1773              	.LBE88:
 1774              	.LBB89:
 1775              	.LBB90:
 154:../../Middlewares/Camera_Middleware/ISP_Library/isp/Src/isp_services.c **** 
 1776              		.loc 1 154 14 view .LVU557
 1777 00a0 0024     		movs	r4, #0
 1778              	.LBE90:
 1779              	.LBE89:
 1780              	.LBB96:
 1781              	.LBB79:
 157:../../Middlewares/Camera_Middleware/ISP_Library/isp/Src/isp_services.c ****   while (Val >= 256)
 1782              		.loc 1 157 11 view .LVU558
 1783 00a2 002A     		cmp	r2, #0
 1784 00a4 08BF     		it	eq
 1785 00a6 1346     		moveq	r3, r2
 1786              	.LBE79:
 1787              	.LBE96:
 1788              	.LBB97:
 1789              	.LBB91:
 154:../../Middlewares/Camera_Middleware/ISP_Library/isp/Src/isp_services.c **** 
 1790              		.loc 1 154 14 view .LVU559
 1791 00a8 3846     		mov	r0, r7
 1792 00aa 2146     		mov	r1, r4
 1793              	.LBE91:
 1794              	.LBE97:
 1795              	.LBB98:
 1796              	.LBB80:
 157:../../Middlewares/Camera_Middleware/ISP_Library/isp/Src/isp_services.c ****   while (Val >= 256)
 1797              		.loc 1 157 11 view .LVU560
 1798 00ac 8DF80230 		strb	r3, [sp, #2]
 164:../../Middlewares/Camera_Middleware/ISP_Library/isp/Src/isp_services.c **** }
 1799              		.loc 1 164 3 is_stmt 1 view .LVU561
 1800              	.LBE80:
 1801              	.LBE98:
 1802              	.LBB99:
 1803              	.LBB92:
 154:../../Middlewares/Camera_Middleware/ISP_Library/isp/Src/isp_services.c **** 
 1804              		.loc 1 154 14 is_stmt 0 view .LVU562
 1805 00b0 50EACF11 		lsll	r0, r1, #7
 154:../../Middlewares/Camera_Middleware/ISP_Library/isp/Src/isp_services.c **** 
 1806              		.loc 1 154 7 view .LVU563
 1807 00b4 1CA3     		adr	r3, .L157
 1808 00b6 D3E90023 		ldrd	r2, [r3]
 1809              	.LBE92:
 1810              	.LBE99:
 1811              	.LBB100:
 1812              	.LBB81:
 164:../../Middlewares/Camera_Middleware/ISP_Library/isp/Src/isp_services.c **** }
 1813              		.loc 1 164 16 view .LVU564
 1814 00ba 8DF80380 		strb	r8, [sp, #3]
 1815              	.LVL143:
 164:../../Middlewares/Camera_Middleware/ISP_Library/isp/Src/isp_services.c **** }
 1816              		.loc 1 164 16 view .LVU565
 1817              	.LBE81:
 1818              	.LBE100:
 939:../../Middlewares/Camera_Middleware/ISP_Library/isp/Src/isp_services.c ****     halStatus = HAL_DCMIPP_PIPE_SetISPExposureConfig(hIsp->hDcmipp, DCMIPP_PIPE1, &exposureConfig);
 1819              		.loc 1 939 5 is_stmt 1 view .LVU566
ARM GAS  C:\Users\Antonio\AppData\Local\Temp\ccF6VN3M.s 			page 54


 1820              	.LBB101:
 1821              	.LBI89:
 150:../../Middlewares/Camera_Middleware/ISP_Library/isp/Src/isp_services.c **** {
 1822              		.loc 1 150 13 view .LVU567
 1823              	.LBB93:
 153:../../Middlewares/Camera_Middleware/ISP_Library/isp/Src/isp_services.c ****   Val = (Val * 128) / ISP_GAIN_PRECISION_FACTOR;
 1824              		.loc 1 153 3 view .LVU568
 154:../../Middlewares/Camera_Middleware/ISP_Library/isp/Src/isp_services.c **** 
 1825              		.loc 1 154 3 view .LVU569
 154:../../Middlewares/Camera_Middleware/ISP_Library/isp/Src/isp_services.c **** 
 1826              		.loc 1 154 7 is_stmt 0 view .LVU570
 1827 00be FFF7FEFF 		bl	__aeabi_uldivmod
 1828              	.LVL144:
 158:../../Middlewares/Camera_Middleware/ISP_Library/isp/Src/isp_services.c ****   {
 1829              		.loc 1 158 9 view .LVU571
 1830 00c2 2346     		mov	r3, r4
 154:../../Middlewares/Camera_Middleware/ISP_Library/isp/Src/isp_services.c **** 
 1831              		.loc 1 154 7 view .LVU572
 1832 00c4 8046     		mov	r8, r0
 1833 00c6 8946     		mov	r9, r1
 1834              	.LVL145:
 157:../../Middlewares/Camera_Middleware/ISP_Library/isp/Src/isp_services.c ****   while (Val >= 256)
 1835              		.loc 1 157 3 is_stmt 1 view .LVU573
 158:../../Middlewares/Camera_Middleware/ISP_Library/isp/Src/isp_services.c ****   {
 1836              		.loc 1 158 3 view .LVU574
 158:../../Middlewares/Camera_Middleware/ISP_Library/isp/Src/isp_services.c ****   {
 1837              		.loc 1 158 9 is_stmt 0 view .LVU575
 1838 00c8 2246     		mov	r2, r4
 1839              	.L146:
 158:../../Middlewares/Camera_Middleware/ISP_Library/isp/Src/isp_services.c ****   {
 1840              		.loc 1 158 14 is_stmt 1 view .LVU576
 1841 00ca B8F5807F 		cmp	r8, #256
 1842 00ce 79F10000 		sbcs	r0, r9, #0
 1843 00d2 03F10101 		add	r1, r3, #1
 1844 00d6 1AD2     		bcs	.L147
 157:../../Middlewares/Camera_Middleware/ISP_Library/isp/Src/isp_services.c ****   while (Val >= 256)
 1845              		.loc 1 157 11 is_stmt 0 view .LVU577
 1846 00d8 002A     		cmp	r2, #0
 1847 00da 08BF     		it	eq
 1848 00dc 1346     		moveq	r3, r2
 1849              	.LBE93:
 1850              	.LBE101:
 940:../../Middlewares/Camera_Middleware/ISP_Library/isp/Src/isp_services.c **** 
 1851              		.loc 1 940 17 view .LVU578
 1852 00de 0121     		movs	r1, #1
 1853 00e0 6A46     		mov	r2, sp
 1854 00e2 3046     		mov	r0, r6
 1855              	.LBB102:
 1856              	.LBB94:
 157:../../Middlewares/Camera_Middleware/ISP_Library/isp/Src/isp_services.c ****   while (Val >= 256)
 1857              		.loc 1 157 11 view .LVU579
 1858 00e4 8DF80430 		strb	r3, [sp, #4]
 164:../../Middlewares/Camera_Middleware/ISP_Library/isp/Src/isp_services.c **** }
 1859              		.loc 1 164 3 is_stmt 1 view .LVU580
 164:../../Middlewares/Camera_Middleware/ISP_Library/isp/Src/isp_services.c **** }
 1860              		.loc 1 164 16 is_stmt 0 view .LVU581
 1861 00e8 8DF80580 		strb	r8, [sp, #5]
ARM GAS  C:\Users\Antonio\AppData\Local\Temp\ccF6VN3M.s 			page 55


 1862              	.LVL146:
 164:../../Middlewares/Camera_Middleware/ISP_Library/isp/Src/isp_services.c **** }
 1863              		.loc 1 164 16 view .LVU582
 1864              	.LBE94:
 1865              	.LBE102:
 940:../../Middlewares/Camera_Middleware/ISP_Library/isp/Src/isp_services.c **** 
 1866              		.loc 1 940 5 is_stmt 1 view .LVU583
 940:../../Middlewares/Camera_Middleware/ISP_Library/isp/Src/isp_services.c **** 
 1867              		.loc 1 940 17 is_stmt 0 view .LVU584
 1868 00ec FFF7FEFF 		bl	HAL_DCMIPP_PIPE_SetISPExposureConfig
 1869              	.LVL147:
 942:../../Middlewares/Camera_Middleware/ISP_Library/isp/Src/isp_services.c ****     {
 1870              		.loc 1 942 5 is_stmt 1 view .LVU585
 942:../../Middlewares/Camera_Middleware/ISP_Library/isp/Src/isp_services.c ****     {
 1871              		.loc 1 942 8 is_stmt 0 view .LVU586
 1872 00f0 90B1     		cbz	r0, .L150
 1873              	.L151:
 949:../../Middlewares/Camera_Middleware/ISP_Library/isp/Src/isp_services.c ****   {
 950:../../Middlewares/Camera_Middleware/ISP_Library/isp/Src/isp_services.c ****     return ISP_ERR_ISPGAIN_HAL;
 1874              		.loc 1 950 12 view .LVU587
 1875 00f2 5120     		movs	r0, #81
 1876              	.LVL148:
 1877              	.L135:
 951:../../Middlewares/Camera_Middleware/ISP_Library/isp/Src/isp_services.c ****   }
 952:../../Middlewares/Camera_Middleware/ISP_Library/isp/Src/isp_services.c **** 
 953:../../Middlewares/Camera_Middleware/ISP_Library/isp/Src/isp_services.c ****   return ISP_OK;
 954:../../Middlewares/Camera_Middleware/ISP_Library/isp/Src/isp_services.c **** }
 1878              		.loc 1 954 1 view .LVU588
 1879 00f4 03B0     		add	sp, sp, #12
 1880              		.cfi_remember_state
 1881              		.cfi_def_cfa_offset 36
 1882              		@ sp needed
 1883 00f6 BDE8F08F 		pop	{r4, r5, r6, r7, r8, r9, r10, fp, pc}
 1884              	.LVL149:
 1885              	.L139:
 1886              		.cfi_restore_state
 1887              	.LBB103:
 1888              	.LBB73:
 160:../../Middlewares/Camera_Middleware/ISP_Library/isp/Src/isp_services.c ****     (*pShift)++;
 1889              		.loc 1 160 5 is_stmt 1 view .LVU589
 160:../../Middlewares/Camera_Middleware/ISP_Library/isp/Src/isp_services.c ****     (*pShift)++;
 1890              		.loc 1 160 9 is_stmt 0 view .LVU590
 1891 00fa 5AEA5F0B 		lsrl	r10, fp, #1
 1892              	.LVL150:
 161:../../Middlewares/Camera_Middleware/ISP_Library/isp/Src/isp_services.c ****   }
 1893              		.loc 1 161 5 is_stmt 1 view .LVU591
 160:../../Middlewares/Camera_Middleware/ISP_Library/isp/Src/isp_services.c ****     (*pShift)++;
 1894              		.loc 1 160 9 is_stmt 0 view .LVU592
 1895 00fe 0B46     		mov	r3, r1
 1896 0100 0122     		movs	r2, #1
 1897 0102 AAE7     		b	.L138
 1898              	.LVL151:
 1899              	.L143:
 160:../../Middlewares/Camera_Middleware/ISP_Library/isp/Src/isp_services.c ****     (*pShift)++;
 1900              		.loc 1 160 9 view .LVU593
 1901              	.LBE73:
 1902              	.LBE103:
ARM GAS  C:\Users\Antonio\AppData\Local\Temp\ccF6VN3M.s 			page 56


 1903              	.LBB104:
 1904              	.LBB82:
 160:../../Middlewares/Camera_Middleware/ISP_Library/isp/Src/isp_services.c ****     (*pShift)++;
 1905              		.loc 1 160 5 is_stmt 1 view .LVU594
 160:../../Middlewares/Camera_Middleware/ISP_Library/isp/Src/isp_services.c ****     (*pShift)++;
 1906              		.loc 1 160 9 is_stmt 0 view .LVU595
 1907 0104 58EA5F09 		lsrl	r8, r9, #1
 1908              	.LVL152:
 161:../../Middlewares/Camera_Middleware/ISP_Library/isp/Src/isp_services.c ****   }
 1909              		.loc 1 161 5 is_stmt 1 view .LVU596
 160:../../Middlewares/Camera_Middleware/ISP_Library/isp/Src/isp_services.c ****     (*pShift)++;
 1910              		.loc 1 160 9 is_stmt 0 view .LVU597
 1911 0108 0B46     		mov	r3, r1
 1912 010a 0122     		movs	r2, #1
 1913 010c C1E7     		b	.L142
 1914              	.LVL153:
 1915              	.L147:
 160:../../Middlewares/Camera_Middleware/ISP_Library/isp/Src/isp_services.c ****     (*pShift)++;
 1916              		.loc 1 160 9 view .LVU598
 1917              	.LBE82:
 1918              	.LBE104:
 1919              	.LBB105:
 1920              	.LBB95:
 160:../../Middlewares/Camera_Middleware/ISP_Library/isp/Src/isp_services.c ****     (*pShift)++;
 1921              		.loc 1 160 5 is_stmt 1 view .LVU599
 160:../../Middlewares/Camera_Middleware/ISP_Library/isp/Src/isp_services.c ****     (*pShift)++;
 1922              		.loc 1 160 9 is_stmt 0 view .LVU600
 1923 010e 58EA5F09 		lsrl	r8, r9, #1
 1924              	.LVL154:
 161:../../Middlewares/Camera_Middleware/ISP_Library/isp/Src/isp_services.c ****   }
 1925              		.loc 1 161 5 is_stmt 1 view .LVU601
 160:../../Middlewares/Camera_Middleware/ISP_Library/isp/Src/isp_services.c ****     (*pShift)++;
 1926              		.loc 1 160 9 is_stmt 0 view .LVU602
 1927 0112 0B46     		mov	r3, r1
 1928 0114 0122     		movs	r2, #1
 1929 0116 D8E7     		b	.L146
 1930              	.LVL155:
 1931              	.L150:
 160:../../Middlewares/Camera_Middleware/ISP_Library/isp/Src/isp_services.c ****     (*pShift)++;
 1932              		.loc 1 160 9 view .LVU603
 1933              	.LBE95:
 1934              	.LBE105:
 944:../../Middlewares/Camera_Middleware/ISP_Library/isp/Src/isp_services.c ****     }
 1935              		.loc 1 944 7 is_stmt 1 view .LVU604
 944:../../Middlewares/Camera_Middleware/ISP_Library/isp/Src/isp_services.c ****     }
 1936              		.loc 1 944 19 is_stmt 0 view .LVU605
 1937 0118 0121     		movs	r1, #1
 1938 011a 2868     		ldr	r0, [r5]
 1939              	.LVL156:
 944:../../Middlewares/Camera_Middleware/ISP_Library/isp/Src/isp_services.c ****     }
 1940              		.loc 1 944 19 view .LVU606
 1941 011c FFF7FEFF 		bl	HAL_DCMIPP_PIPE_EnableISPExposure
 1942              	.LVL157:
 944:../../Middlewares/Camera_Middleware/ISP_Library/isp/Src/isp_services.c ****     }
 1943              		.loc 1 944 19 view .LVU607
 1944 0120 8AE7     		b	.L137
 1945              	.LVL158:
ARM GAS  C:\Users\Antonio\AppData\Local\Temp\ccF6VN3M.s 			page 57


 1946              	.L156:
 928:../../Middlewares/Camera_Middleware/ISP_Library/isp/Src/isp_services.c ****   }
 1947              		.loc 1 928 12 view .LVU608
 1948 0122 5020     		movs	r0, #80
 1949              	.LVL159:
 928:../../Middlewares/Camera_Middleware/ISP_Library/isp/Src/isp_services.c ****   }
 1950              		.loc 1 928 12 view .LVU609
 1951 0124 E6E7     		b	.L135
 1952              	.L158:
 1953 0126 00BF     		.align	3
 1954              	.L157:
 1955 0128 00E1F505 		.word	100000000
 1956 012c 00000000 		.word	0
 1957 0130 00105E5F 		.word	1600000000
 1958              		.cfi_endproc
 1959              	.LFE861:
 1961              		.section	.text.ISP_SVC_ISP_GetGain,"ax",%progbits
 1962              		.align	1
 1963              		.global	ISP_SVC_ISP_GetGain
 1964              		.syntax unified
 1965              		.thumb
 1966              		.thumb_func
 1968              	ISP_SVC_ISP_GetGain:
 1969              	.LVL160:
 1970              	.LFB862:
 955:../../Middlewares/Camera_Middleware/ISP_Library/isp/Src/isp_services.c **** 
 956:../../Middlewares/Camera_Middleware/ISP_Library/isp/Src/isp_services.c **** /**
 957:../../Middlewares/Camera_Middleware/ISP_Library/isp/Src/isp_services.c ****   * @brief  ISP_SVC_ISP_GetGain
 958:../../Middlewares/Camera_Middleware/ISP_Library/isp/Src/isp_services.c ****   *         Get the ISP Exposure and White Balance gains
 959:../../Middlewares/Camera_Middleware/ISP_Library/isp/Src/isp_services.c ****   * @param  hIsp: ISP device handle
 960:../../Middlewares/Camera_Middleware/ISP_Library/isp/Src/isp_services.c ****   * @param  pConfig: Pointer to the ISP gain configuration
 961:../../Middlewares/Camera_Middleware/ISP_Library/isp/Src/isp_services.c ****   * @retval operation result
 962:../../Middlewares/Camera_Middleware/ISP_Library/isp/Src/isp_services.c ****   */
 963:../../Middlewares/Camera_Middleware/ISP_Library/isp/Src/isp_services.c **** ISP_StatusTypeDef ISP_SVC_ISP_GetGain(ISP_HandleTypeDef *hIsp, ISP_ISPGainTypeDef *pConfig)
 964:../../Middlewares/Camera_Middleware/ISP_Library/isp/Src/isp_services.c **** {
 1971              		.loc 1 964 1 is_stmt 1 view -0
 1972              		.cfi_startproc
 1973              		@ args = 0, pretend = 0, frame = 8
 1974              		@ frame_needed = 0, uses_anonymous_args = 0
 965:../../Middlewares/Camera_Middleware/ISP_Library/isp/Src/isp_services.c ****   DCMIPP_ExposureConfTypeDef exposureConfig;
 1975              		.loc 1 965 3 view .LVU611
 966:../../Middlewares/Camera_Middleware/ISP_Library/isp/Src/isp_services.c **** 
 967:../../Middlewares/Camera_Middleware/ISP_Library/isp/Src/isp_services.c ****   /* Check handle validity */
 968:../../Middlewares/Camera_Middleware/ISP_Library/isp/Src/isp_services.c ****   if ((hIsp == NULL) || (pConfig == NULL))
 1976              		.loc 1 968 3 view .LVU612
 964:../../Middlewares/Camera_Middleware/ISP_Library/isp/Src/isp_services.c ****   DCMIPP_ExposureConfTypeDef exposureConfig;
 1977              		.loc 1 964 1 is_stmt 0 view .LVU613
 1978 0000 F7B5     		push	{r0, r1, r2, r4, r5, r6, r7, lr}
 1979              		.cfi_def_cfa_offset 32
 1980              		.cfi_offset 4, -20
 1981              		.cfi_offset 5, -16
 1982              		.cfi_offset 6, -12
 1983              		.cfi_offset 7, -8
 1984              		.cfi_offset 14, -4
 964:../../Middlewares/Camera_Middleware/ISP_Library/isp/Src/isp_services.c ****   DCMIPP_ExposureConfTypeDef exposureConfig;
 1985              		.loc 1 964 1 view .LVU614
 1986 0002 0C46     		mov	r4, r1
ARM GAS  C:\Users\Antonio\AppData\Local\Temp\ccF6VN3M.s 			page 58


 1987              		.loc 1 968 6 view .LVU615
 1988 0004 0546     		mov	r5, r0
 1989 0006 0028     		cmp	r0, #0
 1990 0008 3FD0     		beq	.L162
 1991              		.loc 1 968 22 discriminator 1 view .LVU616
 1992 000a 0029     		cmp	r1, #0
 1993 000c 3DD0     		beq	.L162
 969:../../Middlewares/Camera_Middleware/ISP_Library/isp/Src/isp_services.c ****   {
 970:../../Middlewares/Camera_Middleware/ISP_Library/isp/Src/isp_services.c ****     return ISP_ERR_ISPGAIN_EINVAL;
 971:../../Middlewares/Camera_Middleware/ISP_Library/isp/Src/isp_services.c ****   }
 972:../../Middlewares/Camera_Middleware/ISP_Library/isp/Src/isp_services.c **** 
 973:../../Middlewares/Camera_Middleware/ISP_Library/isp/Src/isp_services.c ****   pConfig->enable = HAL_DCMIPP_PIPE_IsEnabledISPExposure(hIsp->hDcmipp, DCMIPP_PIPE1);
 1994              		.loc 1 973 3 is_stmt 1 view .LVU617
 1995              		.loc 1 973 21 is_stmt 0 view .LVU618
 1996 000e 0121     		movs	r1, #1
 1997              	.LVL161:
 1998              		.loc 1 973 21 view .LVU619
 1999 0010 0068     		ldr	r0, [r0]
 2000              	.LVL162:
 2001              		.loc 1 973 21 view .LVU620
 2002 0012 FFF7FEFF 		bl	HAL_DCMIPP_PIPE_IsEnabledISPExposure
 2003              	.LVL163:
 2004              		.loc 1 973 19 discriminator 1 view .LVU621
 2005 0016 2070     		strb	r0, [r4]
 974:../../Middlewares/Camera_Middleware/ISP_Library/isp/Src/isp_services.c ****   HAL_DCMIPP_PIPE_GetISPExposureConfig(hIsp->hDcmipp, DCMIPP_PIPE1, &exposureConfig);
 2006              		.loc 1 974 3 is_stmt 1 view .LVU622
 2007 0018 2868     		ldr	r0, [r5]
 2008 001a 6A46     		mov	r2, sp
 2009 001c 0121     		movs	r1, #1
 2010 001e FFF7FEFF 		bl	HAL_DCMIPP_PIPE_GetISPExposureConfig
 2011              	.LVL164:
 975:../../Middlewares/Camera_Middleware/ISP_Library/isp/Src/isp_services.c **** 
 976:../../Middlewares/Camera_Middleware/ISP_Library/isp/Src/isp_services.c ****   pConfig->ispGainR = From_Shift_Multiplier(exposureConfig.ShiftRed, exposureConfig.MultiplierRed);
 2012              		.loc 1 976 3 view .LVU623
 2013              	.LBB106:
 2014              	.LBI106:
 167:../../Middlewares/Camera_Middleware/ISP_Library/isp/Src/isp_services.c **** {
 2015              		.loc 1 167 17 view .LVU624
 2016              	.LBB107:
 170:../../Middlewares/Camera_Middleware/ISP_Library/isp/Src/isp_services.c ****   Val = (Val * Multiplier * ISP_GAIN_PRECISION_FACTOR) / 128;
 2017              		.loc 1 170 3 view .LVU625
 171:../../Middlewares/Camera_Middleware/ISP_Library/isp/Src/isp_services.c ****   return (uint32_t) Val;
 2018              		.loc 1 171 3 view .LVU626
 172:../../Middlewares/Camera_Middleware/ISP_Library/isp/Src/isp_services.c **** }
 2019              		.loc 1 172 3 view .LVU627
 170:../../Middlewares/Camera_Middleware/ISP_Library/isp/Src/isp_services.c ****   Val = (Val * Multiplier * ISP_GAIN_PRECISION_FACTOR) / 128;
 2020              		.loc 1 170 21 is_stmt 0 view .LVU628
 2021 0022 0123     		movs	r3, #1
 2022 0024 9DF80010 		ldrb	r1, [sp]	@ zero_extendqisi2
 171:../../Middlewares/Camera_Middleware/ISP_Library/isp/Src/isp_services.c ****   return (uint32_t) Val;
 2023              		.loc 1 171 27 view .LVU629
 2024 0028 9DF80120 		ldrb	r2, [sp, #1]	@ zero_extendqisi2
 170:../../Middlewares/Camera_Middleware/ISP_Library/isp/Src/isp_services.c ****   Val = (Val * Multiplier * ISP_GAIN_PRECISION_FACTOR) / 128;
 2025              		.loc 1 170 21 view .LVU630
 2026 002c 03FA01F1 		lsl	r1, r3, r1
 171:../../Middlewares/Camera_Middleware/ISP_Library/isp/Src/isp_services.c ****   return (uint32_t) Val;
 2027              		.loc 1 171 27 view .LVU631
ARM GAS  C:\Users\Antonio\AppData\Local\Temp\ccF6VN3M.s 			page 59


 2028 0030 81FB0210 		smull	r1, r0, r1, r2
 2029 0034 164A     		ldr	r2, .L163
 2030 0036 A1FB0215 		umull	r1, r5, r1, r2
 2031              	.LVL165:
 171:../../Middlewares/Camera_Middleware/ISP_Library/isp/Src/isp_services.c ****   return (uint32_t) Val;
 2032              		.loc 1 171 7 view .LVU632
 2033 003a 0E46     		mov	r6, r1
 2034 003c 02FB0057 		mla	r7, r2, r0, r5
 2035 0040 56EADF17 		lsrl	r6, r7, #7
 2036              	.LBE107:
 2037              	.LBE106:
 2038              	.LBB109:
 2039              	.LBB110:
 170:../../Middlewares/Camera_Middleware/ISP_Library/isp/Src/isp_services.c ****   Val = (Val * Multiplier * ISP_GAIN_PRECISION_FACTOR) / 128;
 2040              		.loc 1 170 21 view .LVU633
 2041 0044 9DF80200 		ldrb	r0, [sp, #2]	@ zero_extendqisi2
 171:../../Middlewares/Camera_Middleware/ISP_Library/isp/Src/isp_services.c ****   return (uint32_t) Val;
 2042              		.loc 1 171 27 view .LVU634
 2043 0048 9DF80310 		ldrb	r1, [sp, #3]	@ zero_extendqisi2
 170:../../Middlewares/Camera_Middleware/ISP_Library/isp/Src/isp_services.c ****   Val = (Val * Multiplier * ISP_GAIN_PRECISION_FACTOR) / 128;
 2044              		.loc 1 170 21 view .LVU635
 2045 004c 03FA00F0 		lsl	r0, r3, r0
 171:../../Middlewares/Camera_Middleware/ISP_Library/isp/Src/isp_services.c ****   return (uint32_t) Val;
 2046              		.loc 1 171 27 view .LVU636
 2047 0050 80FB0101 		smull	r0, r1, r0, r1
 2048 0054 A0FB0205 		umull	r0, r5, r0, r2
 2049              	.LBE110:
 2050              	.LBE109:
 2051              	.LBB113:
 2052              	.LBB108:
 172:../../Middlewares/Camera_Middleware/ISP_Library/isp/Src/isp_services.c **** }
 2053              		.loc 1 172 10 view .LVU637
 2054 0058 6660     		str	r6, [r4, #4]
 2055              	.LBE108:
 2056              	.LBE113:
 977:../../Middlewares/Camera_Middleware/ISP_Library/isp/Src/isp_services.c ****   pConfig->ispGainG = From_Shift_Multiplier(exposureConfig.ShiftGreen, exposureConfig.MultiplierGre
 2057              		.loc 1 977 3 is_stmt 1 view .LVU638
 2058              	.LVL166:
 2059              	.LBB114:
 2060              	.LBI109:
 167:../../Middlewares/Camera_Middleware/ISP_Library/isp/Src/isp_services.c **** {
 2061              		.loc 1 167 17 view .LVU639
 2062              	.LBB111:
 170:../../Middlewares/Camera_Middleware/ISP_Library/isp/Src/isp_services.c ****   Val = (Val * Multiplier * ISP_GAIN_PRECISION_FACTOR) / 128;
 2063              		.loc 1 170 3 view .LVU640
 171:../../Middlewares/Camera_Middleware/ISP_Library/isp/Src/isp_services.c ****   return (uint32_t) Val;
 2064              		.loc 1 171 3 view .LVU641
 172:../../Middlewares/Camera_Middleware/ISP_Library/isp/Src/isp_services.c **** }
 2065              		.loc 1 172 3 view .LVU642
 171:../../Middlewares/Camera_Middleware/ISP_Library/isp/Src/isp_services.c ****   return (uint32_t) Val;
 2066              		.loc 1 171 7 is_stmt 0 view .LVU643
 2067 005a 0646     		mov	r6, r0
 2068 005c 02FB0157 		mla	r7, r2, r1, r5
 2069 0060 56EADF17 		lsrl	r6, r7, #7
 2070              	.LBE111:
 2071              	.LBE114:
 2072              	.LBB115:
ARM GAS  C:\Users\Antonio\AppData\Local\Temp\ccF6VN3M.s 			page 60


 2073              	.LBB116:
 170:../../Middlewares/Camera_Middleware/ISP_Library/isp/Src/isp_services.c ****   Val = (Val * Multiplier * ISP_GAIN_PRECISION_FACTOR) / 128;
 2074              		.loc 1 170 21 view .LVU644
 2075 0064 9DF80410 		ldrb	r1, [sp, #4]	@ zero_extendqisi2
 2076              	.LBE116:
 2077              	.LBE115:
 2078              	.LBB118:
 2079              	.LBB112:
 172:../../Middlewares/Camera_Middleware/ISP_Library/isp/Src/isp_services.c **** }
 2080              		.loc 1 172 10 view .LVU645
 2081 0068 A660     		str	r6, [r4, #8]
 2082              	.LBE112:
 2083              	.LBE118:
 978:../../Middlewares/Camera_Middleware/ISP_Library/isp/Src/isp_services.c ****   pConfig->ispGainB = From_Shift_Multiplier(exposureConfig.ShiftBlue, exposureConfig.MultiplierBlue
 2084              		.loc 1 978 3 is_stmt 1 view .LVU646
 2085              	.LVL167:
 2086              	.LBB119:
 2087              	.LBI115:
 167:../../Middlewares/Camera_Middleware/ISP_Library/isp/Src/isp_services.c **** {
 2088              		.loc 1 167 17 view .LVU647
 2089              	.LBB117:
 170:../../Middlewares/Camera_Middleware/ISP_Library/isp/Src/isp_services.c ****   Val = (Val * Multiplier * ISP_GAIN_PRECISION_FACTOR) / 128;
 2090              		.loc 1 170 3 view .LVU648
 171:../../Middlewares/Camera_Middleware/ISP_Library/isp/Src/isp_services.c ****   return (uint32_t) Val;
 2091              		.loc 1 171 3 view .LVU649
 172:../../Middlewares/Camera_Middleware/ISP_Library/isp/Src/isp_services.c **** }
 2092              		.loc 1 172 3 view .LVU650
 170:../../Middlewares/Camera_Middleware/ISP_Library/isp/Src/isp_services.c ****   Val = (Val * Multiplier * ISP_GAIN_PRECISION_FACTOR) / 128;
 2093              		.loc 1 170 21 is_stmt 0 view .LVU651
 2094 006a 8B40     		lsls	r3, r3, r1
 171:../../Middlewares/Camera_Middleware/ISP_Library/isp/Src/isp_services.c ****   return (uint32_t) Val;
 2095              		.loc 1 171 27 view .LVU652
 2096 006c 9DF80510 		ldrb	r1, [sp, #5]	@ zero_extendqisi2
 2097 0070 83FB0135 		smull	r3, r5, r3, r1
 2098 0074 A3FB0236 		umull	r3, r6, r3, r2
 171:../../Middlewares/Camera_Middleware/ISP_Library/isp/Src/isp_services.c ****   return (uint32_t) Val;
 2099              		.loc 1 171 7 view .LVU653
 2100 0078 1846     		mov	r0, r3
 2101 007a 02FB0561 		mla	r1, r2, r5, r6
 2102 007e 50EADF11 		lsrl	r0, r1, #7
 172:../../Middlewares/Camera_Middleware/ISP_Library/isp/Src/isp_services.c **** }
 2103              		.loc 1 172 10 view .LVU654
 2104 0082 E060     		str	r0, [r4, #12]
 2105              	.LBE117:
 2106              	.LBE119:
 979:../../Middlewares/Camera_Middleware/ISP_Library/isp/Src/isp_services.c **** 
 980:../../Middlewares/Camera_Middleware/ISP_Library/isp/Src/isp_services.c ****   return ISP_OK;
 2107              		.loc 1 980 3 is_stmt 1 view .LVU655
 2108              		.loc 1 980 10 is_stmt 0 view .LVU656
 2109 0084 0020     		movs	r0, #0
 2110              	.L160:
 981:../../Middlewares/Camera_Middleware/ISP_Library/isp/Src/isp_services.c **** }
 2111              		.loc 1 981 1 view .LVU657
 2112 0086 03B0     		add	sp, sp, #12
 2113              		.cfi_remember_state
 2114              		.cfi_def_cfa_offset 20
 2115              		@ sp needed
ARM GAS  C:\Users\Antonio\AppData\Local\Temp\ccF6VN3M.s 			page 61


 2116 0088 F0BD     		pop	{r4, r5, r6, r7, pc}
 2117              	.LVL168:
 2118              	.L162:
 2119              		.cfi_restore_state
 970:../../Middlewares/Camera_Middleware/ISP_Library/isp/Src/isp_services.c ****   }
 2120              		.loc 1 970 12 view .LVU658
 2121 008a 5020     		movs	r0, #80
 2122              	.LVL169:
 970:../../Middlewares/Camera_Middleware/ISP_Library/isp/Src/isp_services.c ****   }
 2123              		.loc 1 970 12 view .LVU659
 2124 008c FBE7     		b	.L160
 2125              	.L164:
 2126 008e 00BF     		.align	2
 2127              	.L163:
 2128 0090 00E1F505 		.word	100000000
 2129              		.cfi_endproc
 2130              	.LFE862:
 2132              		.section	.text.ISP_SVC_ISP_SetColorConv,"ax",%progbits
 2133              		.align	1
 2134              		.global	ISP_SVC_ISP_SetColorConv
 2135              		.syntax unified
 2136              		.thumb
 2137              		.thumb_func
 2139              	ISP_SVC_ISP_SetColorConv:
 2140              	.LVL170:
 2141              	.LFB863:
 982:../../Middlewares/Camera_Middleware/ISP_Library/isp/Src/isp_services.c **** 
 983:../../Middlewares/Camera_Middleware/ISP_Library/isp/Src/isp_services.c **** /**
 984:../../Middlewares/Camera_Middleware/ISP_Library/isp/Src/isp_services.c ****   * @brief  ISP_SVC_ISP_SetColorConv
 985:../../Middlewares/Camera_Middleware/ISP_Library/isp/Src/isp_services.c ****   *         Set the ISP Color Conversion
 986:../../Middlewares/Camera_Middleware/ISP_Library/isp/Src/isp_services.c ****   * @param  hIsp: ISP device handle
 987:../../Middlewares/Camera_Middleware/ISP_Library/isp/Src/isp_services.c ****   * @param  pConfig: Pointer to the Color Conversion configuration
 988:../../Middlewares/Camera_Middleware/ISP_Library/isp/Src/isp_services.c ****   * @retval operation result
 989:../../Middlewares/Camera_Middleware/ISP_Library/isp/Src/isp_services.c ****   */
 990:../../Middlewares/Camera_Middleware/ISP_Library/isp/Src/isp_services.c **** ISP_StatusTypeDef ISP_SVC_ISP_SetColorConv(ISP_HandleTypeDef *hIsp, ISP_ColorConvTypeDef *pConfig)
 991:../../Middlewares/Camera_Middleware/ISP_Library/isp/Src/isp_services.c **** {
 2142              		.loc 1 991 1 is_stmt 1 view -0
 2143              		.cfi_startproc
 2144              		@ args = 0, pretend = 0, frame = 32
 2145              		@ frame_needed = 0, uses_anonymous_args = 0
 992:../../Middlewares/Camera_Middleware/ISP_Library/isp/Src/isp_services.c ****   HAL_StatusTypeDef halStatus;
 2146              		.loc 1 992 3 view .LVU661
 993:../../Middlewares/Camera_Middleware/ISP_Library/isp/Src/isp_services.c ****   DCMIPP_ColorConversionConfTypeDef colorConvConfig;
 2147              		.loc 1 993 3 view .LVU662
 994:../../Middlewares/Camera_Middleware/ISP_Library/isp/Src/isp_services.c ****   uint32_t i, j;
 2148              		.loc 1 994 3 view .LVU663
 995:../../Middlewares/Camera_Middleware/ISP_Library/isp/Src/isp_services.c **** 
 996:../../Middlewares/Camera_Middleware/ISP_Library/isp/Src/isp_services.c ****   memset(&colorConvConfig, 0, sizeof(colorConvConfig));
 2149              		.loc 1 996 3 view .LVU664
 991:../../Middlewares/Camera_Middleware/ISP_Library/isp/Src/isp_services.c ****   HAL_StatusTypeDef halStatus;
 2150              		.loc 1 991 1 is_stmt 0 view .LVU665
 2151 0000 70B5     		push	{r4, r5, r6, lr}
 2152              		.cfi_def_cfa_offset 16
 2153              		.cfi_offset 4, -16
 2154              		.cfi_offset 5, -12
 2155              		.cfi_offset 6, -8
 2156              		.cfi_offset 14, -4
ARM GAS  C:\Users\Antonio\AppData\Local\Temp\ccF6VN3M.s 			page 62


 2157 0002 0546     		mov	r5, r0
 2158 0004 88B0     		sub	sp, sp, #32
 2159              		.cfi_def_cfa_offset 48
 991:../../Middlewares/Camera_Middleware/ISP_Library/isp/Src/isp_services.c ****   HAL_StatusTypeDef halStatus;
 2160              		.loc 1 991 1 view .LVU666
 2161 0006 0C46     		mov	r4, r1
 2162              		.loc 1 996 3 view .LVU667
 2163 0008 1A22     		movs	r2, #26
 2164 000a 0021     		movs	r1, #0
 2165              	.LVL171:
 2166              		.loc 1 996 3 view .LVU668
 2167 000c 01A8     		add	r0, sp, #4
 2168              	.LVL172:
 2169              		.loc 1 996 3 view .LVU669
 2170 000e FFF7FEFF 		bl	memset
 2171              	.LVL173:
 997:../../Middlewares/Camera_Middleware/ISP_Library/isp/Src/isp_services.c **** 
 998:../../Middlewares/Camera_Middleware/ISP_Library/isp/Src/isp_services.c ****   /* Check handle validity */
 999:../../Middlewares/Camera_Middleware/ISP_Library/isp/Src/isp_services.c ****   if ((hIsp == NULL) || (pConfig == NULL))
 2172              		.loc 1 999 3 is_stmt 1 view .LVU670
 2173              		.loc 1 999 6 is_stmt 0 view .LVU671
 2174 0012 6DB1     		cbz	r5, .L178
 2175              		.loc 1 999 22 discriminator 1 view .LVU672
 2176 0014 64B1     		cbz	r4, .L178
 2177 0016 2346     		mov	r3, r4
1000:../../Middlewares/Camera_Middleware/ISP_Library/isp/Src/isp_services.c ****   {
1001:../../Middlewares/Camera_Middleware/ISP_Library/isp/Src/isp_services.c ****     return ISP_ERR_COLORCONV_EINVAL;
1002:../../Middlewares/Camera_Middleware/ISP_Library/isp/Src/isp_services.c ****   }
1003:../../Middlewares/Camera_Middleware/ISP_Library/isp/Src/isp_services.c **** 
1004:../../Middlewares/Camera_Middleware/ISP_Library/isp/Src/isp_services.c ****   for (i = 0; i < 3; i++)
1005:../../Middlewares/Camera_Middleware/ISP_Library/isp/Src/isp_services.c ****   {
1006:../../Middlewares/Camera_Middleware/ISP_Library/isp/Src/isp_services.c ****     for (j = 0; j < 3; j++)
1007:../../Middlewares/Camera_Middleware/ISP_Library/isp/Src/isp_services.c ****     {
1008:../../Middlewares/Camera_Middleware/ISP_Library/isp/Src/isp_services.c ****       if ((pConfig->coeff[i][j] > ISP_COLORCONV_MAX) || (pConfig->coeff[i][j] < -ISP_COLORCONV_MAX)
 2178              		.loc 1 1008 54 view .LVU673
 2179 0018 3A48     		ldr	r0, .L180
 2180              		.loc 1 1008 10 view .LVU674
 2181 001a 3B4A     		ldr	r2, .L180+4
 2182 001c 04F12406 		add	r6, r4, #36
 2183              	.L167:
 2184              	.LVL174:
1006:../../Middlewares/Camera_Middleware/ISP_Library/isp/Src/isp_services.c ****     {
 2185              		.loc 1 1006 19 is_stmt 1 discriminator 1 view .LVU675
 2186              		.loc 1 1008 7 view .LVU676
 2187              		.loc 1 1008 54 is_stmt 0 view .LVU677
 2188 0020 5968     		ldr	r1, [r3, #4]
 2189 0022 0144     		add	r1, r1, r0
 2190              		.loc 1 1008 10 view .LVU678
 2191 0024 9142     		cmp	r1, r2
 2192 0026 03D8     		bhi	.L178
1006:../../Middlewares/Camera_Middleware/ISP_Library/isp/Src/isp_services.c ****     {
 2193              		.loc 1 1006 25 is_stmt 1 discriminator 2 view .LVU679
 2194              	.LVL175:
1006:../../Middlewares/Camera_Middleware/ISP_Library/isp/Src/isp_services.c ****     {
 2195              		.loc 1 1006 19 discriminator 1 view .LVU680
 2196              		.loc 1 1008 7 view .LVU681
 2197              		.loc 1 1008 54 is_stmt 0 view .LVU682
ARM GAS  C:\Users\Antonio\AppData\Local\Temp\ccF6VN3M.s 			page 63


 2198 0028 9968     		ldr	r1, [r3, #8]
 2199 002a 0144     		add	r1, r1, r0
 2200              		.loc 1 1008 10 view .LVU683
 2201 002c 9142     		cmp	r1, r2
 2202 002e 01D9     		bls	.L179
 2203              	.LVL176:
 2204              	.L178:
1001:../../Middlewares/Camera_Middleware/ISP_Library/isp/Src/isp_services.c ****   }
 2205              		.loc 1 1001 12 view .LVU684
 2206 0030 5A20     		movs	r0, #90
 2207 0032 5FE0     		b	.L166
 2208              	.LVL177:
 2209              	.L179:
1006:../../Middlewares/Camera_Middleware/ISP_Library/isp/Src/isp_services.c ****     {
 2210              		.loc 1 1006 25 is_stmt 1 discriminator 2 view .LVU685
1006:../../Middlewares/Camera_Middleware/ISP_Library/isp/Src/isp_services.c ****     {
 2211              		.loc 1 1006 19 discriminator 1 view .LVU686
 2212              		.loc 1 1008 7 view .LVU687
 2213              		.loc 1 1008 54 is_stmt 0 view .LVU688
 2214 0034 D968     		ldr	r1, [r3, #12]
 2215 0036 0144     		add	r1, r1, r0
 2216              		.loc 1 1008 10 view .LVU689
 2217 0038 9142     		cmp	r1, r2
 2218 003a F9D8     		bhi	.L178
1006:../../Middlewares/Camera_Middleware/ISP_Library/isp/Src/isp_services.c ****     {
 2219              		.loc 1 1006 25 is_stmt 1 discriminator 2 view .LVU690
 2220              	.LVL178:
1006:../../Middlewares/Camera_Middleware/ISP_Library/isp/Src/isp_services.c ****     {
 2221              		.loc 1 1006 19 discriminator 1 view .LVU691
1004:../../Middlewares/Camera_Middleware/ISP_Library/isp/Src/isp_services.c ****   {
 2222              		.loc 1 1004 23 discriminator 2 view .LVU692
1004:../../Middlewares/Camera_Middleware/ISP_Library/isp/Src/isp_services.c ****   {
 2223              		.loc 1 1004 17 discriminator 1 view .LVU693
 2224 003c 0C33     		adds	r3, r3, #12
 2225 003e B342     		cmp	r3, r6
 2226 0040 EED1     		bne	.L167
1009:../../Middlewares/Camera_Middleware/ISP_Library/isp/Src/isp_services.c ****       {
1010:../../Middlewares/Camera_Middleware/ISP_Library/isp/Src/isp_services.c ****         return ISP_ERR_COLORCONV_EINVAL;
1011:../../Middlewares/Camera_Middleware/ISP_Library/isp/Src/isp_services.c ****       }
1012:../../Middlewares/Camera_Middleware/ISP_Library/isp/Src/isp_services.c ****     }
1013:../../Middlewares/Camera_Middleware/ISP_Library/isp/Src/isp_services.c ****   }
1014:../../Middlewares/Camera_Middleware/ISP_Library/isp/Src/isp_services.c **** 
1015:../../Middlewares/Camera_Middleware/ISP_Library/isp/Src/isp_services.c ****   if (pConfig->enable == 0)
 2227              		.loc 1 1015 3 view .LVU694
 2228              		.loc 1 1015 6 is_stmt 0 view .LVU695
 2229 0042 2378     		ldrb	r3, [r4]	@ zero_extendqisi2
1016:../../Middlewares/Camera_Middleware/ISP_Library/isp/Src/isp_services.c ****   {
1017:../../Middlewares/Camera_Middleware/ISP_Library/isp/Src/isp_services.c ****     halStatus = HAL_DCMIPP_PIPE_DisableISPColorConversion(hIsp->hDcmipp, DCMIPP_PIPE1);
 2230              		.loc 1 1017 63 view .LVU696
 2231 0044 2E68     		ldr	r6, [r5]
1015:../../Middlewares/Camera_Middleware/ISP_Library/isp/Src/isp_services.c ****   {
 2232              		.loc 1 1015 6 view .LVU697
 2233 0046 33B9     		cbnz	r3, .L170
 2234              		.loc 1 1017 5 is_stmt 1 view .LVU698
 2235              		.loc 1 1017 17 is_stmt 0 view .LVU699
 2236 0048 0121     		movs	r1, #1
 2237 004a 3046     		mov	r0, r6
ARM GAS  C:\Users\Antonio\AppData\Local\Temp\ccF6VN3M.s 			page 64


 2238 004c FFF7FEFF 		bl	HAL_DCMIPP_PIPE_DisableISPColorConversion
 2239              	.LVL179:
 2240              	.L171:
1018:../../Middlewares/Camera_Middleware/ISP_Library/isp/Src/isp_services.c ****   }
1019:../../Middlewares/Camera_Middleware/ISP_Library/isp/Src/isp_services.c ****   else
1020:../../Middlewares/Camera_Middleware/ISP_Library/isp/Src/isp_services.c ****   {
1021:../../Middlewares/Camera_Middleware/ISP_Library/isp/Src/isp_services.c ****     colorConvConfig.RR = To_CConv_Reg(pConfig->coeff[0][0]);
