ARM GAS  C:\Users\Antonio\AppData\Local\Temp\ccCbPHYL.s 			page 1


   1              		.arch armv8.1-m.main
   2              		.fpu fpv5-d16
   3              		.arch_extension dsp
   4              		.arch_extension fp
   5              		.arch_extension fp.dp
   6              		.arch_extension mve
   7              		.arch_extension mve.fp
   8              		.eabi_attribute 5, "cortex-m55"
   9              		.eabi_attribute 28, 1
  10              		.eabi_attribute 20, 1
  11              		.eabi_attribute 21, 1
  12              		.eabi_attribute 23, 3
  13              		.eabi_attribute 24, 1
  14              		.eabi_attribute 25, 1
  15              		.eabi_attribute 26, 1
  16              		.eabi_attribute 30, 4
  17              		.eabi_attribute 34, 1
  18              		.eabi_attribute 38, 1
  19              		.eabi_attribute 18, 4
  20              		.file	"ll_aton_runtime.c"
  21              		.text
  22              	.Ltext0:
  23              		.cfi_sections	.debug_frame
  24              		.file 1 "../../Middlewares/AI_Runtime/Npu/ll_aton/ll_aton_runtime.c"
  25              		.section	.text.__LL_ATON_RT_Init_Network,"ax",%progbits
  26              		.align	1
  27              		.syntax unified
  28              		.thumb
  29              		.thumb_func
  31              	__LL_ATON_RT_Init_Network:
  32              	.LVL0:
  33              	.LFB4843:
   1:../../Middlewares/AI_Runtime/Npu/ll_aton/ll_aton_runtime.c **** /**
   2:../../Middlewares/AI_Runtime/Npu/ll_aton/ll_aton_runtime.c ****  ******************************************************************************
   3:../../Middlewares/AI_Runtime/Npu/ll_aton/ll_aton_runtime.c ****  * @file    ll_aton_runtime.c
   4:../../Middlewares/AI_Runtime/Npu/ll_aton/ll_aton_runtime.c ****  * @author  SRA Artificial Intelligence & Embedded Architectures
   5:../../Middlewares/AI_Runtime/Npu/ll_aton/ll_aton_runtime.c ****  * @brief   ATON LL runtime.
   6:../../Middlewares/AI_Runtime/Npu/ll_aton/ll_aton_runtime.c ****  * @note    ATON LL runtime currently assumes a single network run
   7:../../Middlewares/AI_Runtime/Npu/ll_aton/ll_aton_runtime.c ****  ******************************************************************************
   8:../../Middlewares/AI_Runtime/Npu/ll_aton/ll_aton_runtime.c ****  * @attention
   9:../../Middlewares/AI_Runtime/Npu/ll_aton/ll_aton_runtime.c ****  *
  10:../../Middlewares/AI_Runtime/Npu/ll_aton/ll_aton_runtime.c ****  * Copyright (c) 2024 STMicroelectronics.
  11:../../Middlewares/AI_Runtime/Npu/ll_aton/ll_aton_runtime.c ****  * All rights reserved.
  12:../../Middlewares/AI_Runtime/Npu/ll_aton/ll_aton_runtime.c ****  *
  13:../../Middlewares/AI_Runtime/Npu/ll_aton/ll_aton_runtime.c ****  * This software is licensed under terms that can be found in the LICENSE file
  14:../../Middlewares/AI_Runtime/Npu/ll_aton/ll_aton_runtime.c ****  * in the root directory of this software component.
  15:../../Middlewares/AI_Runtime/Npu/ll_aton/ll_aton_runtime.c ****  * If no LICENSE file comes with this software, it is provided AS-IS.
  16:../../Middlewares/AI_Runtime/Npu/ll_aton/ll_aton_runtime.c ****  *
  17:../../Middlewares/AI_Runtime/Npu/ll_aton/ll_aton_runtime.c ****  ******************************************************************************
  18:../../Middlewares/AI_Runtime/Npu/ll_aton/ll_aton_runtime.c ****  */
  19:../../Middlewares/AI_Runtime/Npu/ll_aton/ll_aton_runtime.c **** 
  20:../../Middlewares/AI_Runtime/Npu/ll_aton/ll_aton_runtime.c **** #include <inttypes.h>
  21:../../Middlewares/AI_Runtime/Npu/ll_aton/ll_aton_runtime.c **** #include <limits.h>
  22:../../Middlewares/AI_Runtime/Npu/ll_aton/ll_aton_runtime.c **** #include <stdbool.h>
  23:../../Middlewares/AI_Runtime/Npu/ll_aton/ll_aton_runtime.c **** #include <stdint.h>
  24:../../Middlewares/AI_Runtime/Npu/ll_aton/ll_aton_runtime.c **** 
  25:../../Middlewares/AI_Runtime/Npu/ll_aton/ll_aton_runtime.c **** #include "ll_aton_util.h" // Leave blank line after the include
ARM GAS  C:\Users\Antonio\AppData\Local\Temp\ccCbPHYL.s 			page 2


  26:../../Middlewares/AI_Runtime/Npu/ll_aton/ll_aton_runtime.c **** 
  27:../../Middlewares/AI_Runtime/Npu/ll_aton/ll_aton_runtime.c **** #include "ll_aton.h"
  28:../../Middlewares/AI_Runtime/Npu/ll_aton/ll_aton_runtime.c **** #include "ll_aton_runtime.h"
  29:../../Middlewares/AI_Runtime/Npu/ll_aton/ll_aton_runtime.c **** 
  30:../../Middlewares/AI_Runtime/Npu/ll_aton/ll_aton_runtime.c **** #if defined(LL_ATON_RT_RELOC)
  31:../../Middlewares/AI_Runtime/Npu/ll_aton/ll_aton_runtime.c **** #include "ll_aton_reloc_network.h"
  32:../../Middlewares/AI_Runtime/Npu/ll_aton/ll_aton_runtime.c **** #endif
  33:../../Middlewares/AI_Runtime/Npu/ll_aton/ll_aton_runtime.c **** 
  34:../../Middlewares/AI_Runtime/Npu/ll_aton/ll_aton_runtime.c **** /*** ATON RT Variables ***/
  35:../../Middlewares/AI_Runtime/Npu/ll_aton/ll_aton_runtime.c **** 
  36:../../Middlewares/AI_Runtime/Npu/ll_aton/ll_aton_runtime.c **** /* Check if current runtime is prepared for underlying ATON IP instance */
  37:../../Middlewares/AI_Runtime/Npu/ll_aton/ll_aton_runtime.c **** #if !defined(ATON_INTCTRL_INTS) || !defined(ATON_STRENG_NUM)
  38:../../Middlewares/AI_Runtime/Npu/ll_aton/ll_aton_runtime.c **** #error macros `ATON_INTCTRL_INTS` & `ATON_STRENG_NUM` MUST be defined but at least one is not!
  39:../../Middlewares/AI_Runtime/Npu/ll_aton/ll_aton_runtime.c **** #else // `ATON_INTCTRL_INTS` and `ATON_STRENG_NUM` are defined
  40:../../Middlewares/AI_Runtime/Npu/ll_aton/ll_aton_runtime.c **** 
  41:../../Middlewares/AI_Runtime/Npu/ll_aton/ll_aton_runtime.c **** #if (ATON_INTCTRL_INTS(0) > 64) || ((ATON_STRENG_NUM + ATON_STRENG_INT(0)) > 32)
  42:../../Middlewares/AI_Runtime/Npu/ll_aton/ll_aton_runtime.c **** #error current ATON runtime supports only up to 64 ATON interrupts and up to 32 streaming engines (
  43:../../Middlewares/AI_Runtime/Npu/ll_aton/ll_aton_runtime.c **** #endif // (ATON_INTCTRL_INTS(0) > 64) || ((ATON_STRENG_NUM + ATON_STRENG_INT(0)) > 32)
  44:../../Middlewares/AI_Runtime/Npu/ll_aton/ll_aton_runtime.c **** 
  45:../../Middlewares/AI_Runtime/Npu/ll_aton/ll_aton_runtime.c **** #if defined(ATON_EPOCHCTRL_NUM) && (ATON_EPOCHCTRL_NUM > 32)
  46:../../Middlewares/AI_Runtime/Npu/ll_aton/ll_aton_runtime.c **** #error current ATON runtime supports only up to 32 epoch controllers!
  47:../../Middlewares/AI_Runtime/Npu/ll_aton/ll_aton_runtime.c **** #endif // (ATON_EPOCHCTRL_NUM > 32)
  48:../../Middlewares/AI_Runtime/Npu/ll_aton/ll_aton_runtime.c **** 
  49:../../Middlewares/AI_Runtime/Npu/ll_aton/ll_aton_runtime.c **** #endif // `ATON_INT_NR` and `ATON_STRENG_NUM` are defined
  50:../../Middlewares/AI_Runtime/Npu/ll_aton/ll_aton_runtime.c **** 
  51:../../Middlewares/AI_Runtime/Npu/ll_aton/ll_aton_runtime.c **** LL_ATON_WEAK void dump_dma_state(void){};
  52:../../Middlewares/AI_Runtime/Npu/ll_aton/ll_aton_runtime.c **** 
  53:../../Middlewares/AI_Runtime/Npu/ll_aton/ll_aton_runtime.c **** /* Global variable for the current ATON IP owner */
  54:../../Middlewares/AI_Runtime/Npu/ll_aton/ll_aton_runtime.c **** NN_Instance_TypeDef *volatile __ll_current_aton_ip_owner = NULL;
  55:../../Middlewares/AI_Runtime/Npu/ll_aton/ll_aton_runtime.c **** #ifndef NDEBUG
  56:../../Middlewares/AI_Runtime/Npu/ll_aton/ll_aton_runtime.c **** /* Current wait mask set */
  57:../../Middlewares/AI_Runtime/Npu/ll_aton/ll_aton_runtime.c **** uint32_t volatile __ll_current_wait_mask = 0;
  58:../../Middlewares/AI_Runtime/Npu/ll_aton/ll_aton_runtime.c **** #endif // NDEBUG
  59:../../Middlewares/AI_Runtime/Npu/ll_aton/ll_aton_runtime.c **** 
  60:../../Middlewares/AI_Runtime/Npu/ll_aton/ll_aton_runtime.c **** /* Trace runtime callback */
  61:../../Middlewares/AI_Runtime/Npu/ll_aton/ll_aton_runtime.c **** static TraceRuntime_FuncPtr_t ll_aton_init_deinit_trace = NULL;
  62:../../Middlewares/AI_Runtime/Npu/ll_aton/ll_aton_runtime.c **** 
  63:../../Middlewares/AI_Runtime/Npu/ll_aton/ll_aton_runtime.c **** /* Forward declaration */
  64:../../Middlewares/AI_Runtime/Npu/ll_aton/ll_aton_runtime.c **** void ATON_STD_IRQHandler(void);
  65:../../Middlewares/AI_Runtime/Npu/ll_aton/ll_aton_runtime.c **** 
  66:../../Middlewares/AI_Runtime/Npu/ll_aton/ll_aton_runtime.c **** #define LL_ATON_DISABLE_ALL_IRQs()                                                                 
  67:../../Middlewares/AI_Runtime/Npu/ll_aton/ll_aton_runtime.c ****   do                                                                                               
  68:../../Middlewares/AI_Runtime/Npu/ll_aton/ll_aton_runtime.c ****   {                                                                                                
  69:../../Middlewares/AI_Runtime/Npu/ll_aton/ll_aton_runtime.c ****     LL_ATON_OSAL_DISABLE_IRQ(0);                                                                   
  70:../../Middlewares/AI_Runtime/Npu/ll_aton/ll_aton_runtime.c ****     LL_ATON_OSAL_DISABLE_IRQ(1);                                                                   
  71:../../Middlewares/AI_Runtime/Npu/ll_aton/ll_aton_runtime.c ****     LL_ATON_OSAL_DISABLE_IRQ(2);                                                                   
  72:../../Middlewares/AI_Runtime/Npu/ll_aton/ll_aton_runtime.c ****     LL_ATON_OSAL_DISABLE_IRQ(3);                                                                   
  73:../../Middlewares/AI_Runtime/Npu/ll_aton/ll_aton_runtime.c ****   } while (0)
  74:../../Middlewares/AI_Runtime/Npu/ll_aton/ll_aton_runtime.c **** 
  75:../../Middlewares/AI_Runtime/Npu/ll_aton/ll_aton_runtime.c **** /*** Helper Functions ***/
  76:../../Middlewares/AI_Runtime/Npu/ll_aton/ll_aton_runtime.c **** 
  77:../../Middlewares/AI_Runtime/Npu/ll_aton/ll_aton_runtime.c **** #ifndef NDEBUG
  78:../../Middlewares/AI_Runtime/Npu/ll_aton/ll_aton_runtime.c **** static uint32_t __LL_ATON_RT_CntEpochBlocks(const LL_ATON_RT_EpochBlockItem_t *list)
  79:../../Middlewares/AI_Runtime/Npu/ll_aton/ll_aton_runtime.c **** {
  80:../../Middlewares/AI_Runtime/Npu/ll_aton/ll_aton_runtime.c ****   int i = 0;
  81:../../Middlewares/AI_Runtime/Npu/ll_aton/ll_aton_runtime.c **** 
  82:../../Middlewares/AI_Runtime/Npu/ll_aton/ll_aton_runtime.c ****   if (list != NULL)
ARM GAS  C:\Users\Antonio\AppData\Local\Temp\ccCbPHYL.s 			page 3


  83:../../Middlewares/AI_Runtime/Npu/ll_aton/ll_aton_runtime.c ****   {
  84:../../Middlewares/AI_Runtime/Npu/ll_aton/ll_aton_runtime.c ****     for (i = 1; !EpochBlock_IsLastEpochBlock(list); i++)
  85:../../Middlewares/AI_Runtime/Npu/ll_aton/ll_aton_runtime.c ****     { // Note: also terminating empty epoch block is counted
  86:../../Middlewares/AI_Runtime/Npu/ll_aton/ll_aton_runtime.c ****       list++;
  87:../../Middlewares/AI_Runtime/Npu/ll_aton/ll_aton_runtime.c ****     }
  88:../../Middlewares/AI_Runtime/Npu/ll_aton/ll_aton_runtime.c ****   }
  89:../../Middlewares/AI_Runtime/Npu/ll_aton/ll_aton_runtime.c **** 
  90:../../Middlewares/AI_Runtime/Npu/ll_aton/ll_aton_runtime.c ****   return i;
  91:../../Middlewares/AI_Runtime/Npu/ll_aton/ll_aton_runtime.c **** }
  92:../../Middlewares/AI_Runtime/Npu/ll_aton/ll_aton_runtime.c **** #endif
  93:../../Middlewares/AI_Runtime/Npu/ll_aton/ll_aton_runtime.c **** 
  94:../../Middlewares/AI_Runtime/Npu/ll_aton/ll_aton_runtime.c **** static inline void __LL_ATON_RT_ExecStartEpochBlock(const LL_ATON_RT_EpochBlockItem_t *eb,
  95:../../Middlewares/AI_Runtime/Npu/ll_aton/ll_aton_runtime.c ****                                                     NN_Instance_TypeDef *nn_instance)
  96:../../Middlewares/AI_Runtime/Npu/ll_aton/ll_aton_runtime.c **** {
  97:../../Middlewares/AI_Runtime/Npu/ll_aton/ll_aton_runtime.c ****   LL_ATON_ASSERT(nn_instance->exec_state.next_epoch_block == NULL);
  98:../../Middlewares/AI_Runtime/Npu/ll_aton/ll_aton_runtime.c **** 
  99:../../Middlewares/AI_Runtime/Npu/ll_aton/ll_aton_runtime.c ****   if (nn_instance->exec_state.epoch_callback_function != NULL)
 100:../../Middlewares/AI_Runtime/Npu/ll_aton/ll_aton_runtime.c ****     nn_instance->exec_state.epoch_callback_function(LL_ATON_RT_Callbacktype_PRE_START, nn_instance,
 101:../../Middlewares/AI_Runtime/Npu/ll_aton/ll_aton_runtime.c **** 
 102:../../Middlewares/AI_Runtime/Npu/ll_aton/ll_aton_runtime.c ****   /* Is it the first epoch block in an AtoNN epoch? */
 103:../../Middlewares/AI_Runtime/Npu/ll_aton/ll_aton_runtime.c ****   if (EpochBlock_IsEpochStart(eb))
 104:../../Middlewares/AI_Runtime/Npu/ll_aton/ll_aton_runtime.c ****   {
 105:../../Middlewares/AI_Runtime/Npu/ll_aton/ll_aton_runtime.c ****     __LL_ATON_RT_Start_AtoNN_Epoch(nn_instance);
 106:../../Middlewares/AI_Runtime/Npu/ll_aton/ll_aton_runtime.c ****   }
 107:../../Middlewares/AI_Runtime/Npu/ll_aton/ll_aton_runtime.c **** 
 108:../../Middlewares/AI_Runtime/Npu/ll_aton/ll_aton_runtime.c ****   /* Grab ATON IP lock in case not a pure SW or internal epoch */
 109:../../Middlewares/AI_Runtime/Npu/ll_aton/ll_aton_runtime.c ****   if (EpochBlock_IsEpochPureHW(eb) ||
 110:../../Middlewares/AI_Runtime/Npu/ll_aton/ll_aton_runtime.c ****       EpochBlock_IsEpochHybrid(eb)) // epoch blobs are flagged as pure HW, so checking for epoch bl
 111:../../Middlewares/AI_Runtime/Npu/ll_aton/ll_aton_runtime.c ****   {
 112:../../Middlewares/AI_Runtime/Npu/ll_aton/ll_aton_runtime.c ****     __ll_set_aton_owner(nn_instance);
 113:../../Middlewares/AI_Runtime/Npu/ll_aton/ll_aton_runtime.c ****   }
 114:../../Middlewares/AI_Runtime/Npu/ll_aton/ll_aton_runtime.c **** 
 115:../../Middlewares/AI_Runtime/Npu/ll_aton/ll_aton_runtime.c ****   if (!EpochBlock_IsEpochBlob(eb))
 116:../../Middlewares/AI_Runtime/Npu/ll_aton/ll_aton_runtime.c ****   { // standard epoch block handling based on streaming engines
 117:../../Middlewares/AI_Runtime/Npu/ll_aton/ll_aton_runtime.c ****     /* set wait mask(s) in interrupt controller */
 118:../../Middlewares/AI_Runtime/Npu/ll_aton/ll_aton_runtime.c ****     if (EpochBlock_IsEpochPureHW(eb) || EpochBlock_IsEpochInternal(eb))
 119:../../Middlewares/AI_Runtime/Npu/ll_aton/ll_aton_runtime.c ****     {
 120:../../Middlewares/AI_Runtime/Npu/ll_aton/ll_aton_runtime.c ****       LL_ATON_ASSERT(__ll_current_aton_ip_owner == nn_instance);
 121:../../Middlewares/AI_Runtime/Npu/ll_aton/ll_aton_runtime.c ****       __LL_ATON_RT_SetWaitMask(eb->wait_mask);
 122:../../Middlewares/AI_Runtime/Npu/ll_aton/ll_aton_runtime.c ****     }
 123:../../Middlewares/AI_Runtime/Npu/ll_aton/ll_aton_runtime.c ****   }
 124:../../Middlewares/AI_Runtime/Npu/ll_aton/ll_aton_runtime.c ****   else
 125:../../Middlewares/AI_Runtime/Npu/ll_aton/ll_aton_runtime.c ****   { // epoch blob handling based on epoch controller
 126:../../Middlewares/AI_Runtime/Npu/ll_aton/ll_aton_runtime.c **** #if defined(ATON_EPOCHCTRL_NUM) &&                                                                 
 127:../../Middlewares/AI_Runtime/Npu/ll_aton/ll_aton_runtime.c ****     (LL_ATON_RT_MODE == LL_ATON_RT_ASYNC) // Polling mode is not allowed/supported when using the e
 128:../../Middlewares/AI_Runtime/Npu/ll_aton/ll_aton_runtime.c ****     /* reset wait mask(s) in interrupt controller, but ignore stream engine completion event interr
 129:../../Middlewares/AI_Runtime/Npu/ll_aton/ll_aton_runtime.c ****     __LL_ATON_RT_SetWaitMask(ATON_STRENG_INT_MASK(ATON_STRENG_NUM, 0, 0));
 130:../../Middlewares/AI_Runtime/Npu/ll_aton/ll_aton_runtime.c **** #else // !ATON_EPOCHCTRL_NUM || LL_ATON_RT_POLLING
 131:../../Middlewares/AI_Runtime/Npu/ll_aton/ll_aton_runtime.c ****     LL_ATON_PRINTF("Trying to execute an epoch blob, but\n\t"
 132:../../Middlewares/AI_Runtime/Npu/ll_aton/ll_aton_runtime.c ****                    "- either ATON machine configuration does not contain an epoch controller unit o
 133:../../Middlewares/AI_Runtime/Npu/ll_aton/ll_aton_runtime.c ****                    "- ATON runtime is configured for polling mode execution which does not support 
 134:../../Middlewares/AI_Runtime/Npu/ll_aton/ll_aton_runtime.c ****                    "controllers\n");
 135:../../Middlewares/AI_Runtime/Npu/ll_aton/ll_aton_runtime.c **** #if (ATON_PLAT_HAS_FFLUSH)
 136:../../Middlewares/AI_Runtime/Npu/ll_aton/ll_aton_runtime.c ****     LL_ATON_FFLUSH(stdout);
 137:../../Middlewares/AI_Runtime/Npu/ll_aton/ll_aton_runtime.c **** #endif // ATON_PLAT_HAS_FFLUSH
 138:../../Middlewares/AI_Runtime/Npu/ll_aton/ll_aton_runtime.c ****     LL_ATON_ASSERT(false); // may never happen
 139:../../Middlewares/AI_Runtime/Npu/ll_aton/ll_aton_runtime.c **** #endif // !ATON_EPOCHCTRL_NUM || LL_ATON_RT_POLLING
ARM GAS  C:\Users\Antonio\AppData\Local\Temp\ccCbPHYL.s 			page 4


 140:../../Middlewares/AI_Runtime/Npu/ll_aton/ll_aton_runtime.c ****   }
 141:../../Middlewares/AI_Runtime/Npu/ll_aton/ll_aton_runtime.c **** 
 142:../../Middlewares/AI_Runtime/Npu/ll_aton/ll_aton_runtime.c ****   if (eb->start_epoch_block != NULL)
 143:../../Middlewares/AI_Runtime/Npu/ll_aton/ll_aton_runtime.c ****   {
 144:../../Middlewares/AI_Runtime/Npu/ll_aton/ll_aton_runtime.c ****     /* start epoch block */
 145:../../Middlewares/AI_Runtime/Npu/ll_aton/ll_aton_runtime.c **** #if defined(LL_ATON_RT_RELOC)
 146:../../Middlewares/AI_Runtime/Npu/ll_aton/ll_aton_runtime.c ****     if (nn_instance->exec_state.inst_reloc != 0)
 147:../../Middlewares/AI_Runtime/Npu/ll_aton/ll_aton_runtime.c ****     {
 148:../../Middlewares/AI_Runtime/Npu/ll_aton/ll_aton_runtime.c ****       ai_rel_call_start_end_function(nn_instance->exec_state.inst_reloc, eb->start_epoch_block, (co
 149:../../Middlewares/AI_Runtime/Npu/ll_aton/ll_aton_runtime.c ****     }
 150:../../Middlewares/AI_Runtime/Npu/ll_aton/ll_aton_runtime.c ****     else
 151:../../Middlewares/AI_Runtime/Npu/ll_aton/ll_aton_runtime.c ****     {
 152:../../Middlewares/AI_Runtime/Npu/ll_aton/ll_aton_runtime.c ****       eb->start_epoch_block((const void *)eb);
 153:../../Middlewares/AI_Runtime/Npu/ll_aton/ll_aton_runtime.c ****     }
 154:../../Middlewares/AI_Runtime/Npu/ll_aton/ll_aton_runtime.c **** #else
 155:../../Middlewares/AI_Runtime/Npu/ll_aton/ll_aton_runtime.c ****     eb->start_epoch_block((const void *)eb);
 156:../../Middlewares/AI_Runtime/Npu/ll_aton/ll_aton_runtime.c **** #endif
 157:../../Middlewares/AI_Runtime/Npu/ll_aton/ll_aton_runtime.c ****   }
 158:../../Middlewares/AI_Runtime/Npu/ll_aton/ll_aton_runtime.c **** 
 159:../../Middlewares/AI_Runtime/Npu/ll_aton/ll_aton_runtime.c ****   if (EpochBlock_IsEpochBlob(eb))
 160:../../Middlewares/AI_Runtime/Npu/ll_aton/ll_aton_runtime.c ****   {
 161:../../Middlewares/AI_Runtime/Npu/ll_aton/ll_aton_runtime.c **** #if defined(ATON_EPOCHCTRL_NUM)
 162:../../Middlewares/AI_Runtime/Npu/ll_aton/ll_aton_runtime.c ****     /* configure epoch controller */
 163:../../Middlewares/AI_Runtime/Npu/ll_aton/ll_aton_runtime.c ****     uint32_t ecId = EpochBlock_EpochControllerUnit(eb);
 164:../../Middlewares/AI_Runtime/Npu/ll_aton/ll_aton_runtime.c ****     LL_ATON_ASSERT(ecId < ATON_EPOCHCTRL_NUM); // may never happen
 165:../../Middlewares/AI_Runtime/Npu/ll_aton/ll_aton_runtime.c **** 
 166:../../Middlewares/AI_Runtime/Npu/ll_aton/ll_aton_runtime.c ****     LL_EpochCtrl_InitTypeDef conf;
 167:../../Middlewares/AI_Runtime/Npu/ll_aton/ll_aton_runtime.c ****     conf.stepmode = 0;
 168:../../Middlewares/AI_Runtime/Npu/ll_aton/ll_aton_runtime.c ****     conf.blobaddr = EpochBlock_EpochBlobAddr(eb);
 169:../../Middlewares/AI_Runtime/Npu/ll_aton/ll_aton_runtime.c **** 
 170:../../Middlewares/AI_Runtime/Npu/ll_aton/ll_aton_runtime.c ****     LL_EpochCtrl_Init(ecId, &conf);
 171:../../Middlewares/AI_Runtime/Npu/ll_aton/ll_aton_runtime.c **** 
 172:../../Middlewares/AI_Runtime/Npu/ll_aton/ll_aton_runtime.c ****     /* start/enable epoch controller */
 173:../../Middlewares/AI_Runtime/Npu/ll_aton/ll_aton_runtime.c ****     ATON_ENABLE(EPOCHCTRL, ecId);
 174:../../Middlewares/AI_Runtime/Npu/ll_aton/ll_aton_runtime.c **** #else  // !ATON_EPOCHCTRL_NUM
 175:../../Middlewares/AI_Runtime/Npu/ll_aton/ll_aton_runtime.c ****     LL_ATON_ASSERT(false); // may never happen
 176:../../Middlewares/AI_Runtime/Npu/ll_aton/ll_aton_runtime.c **** #endif // !ATON_EPOCHCTRL_NUM
 177:../../Middlewares/AI_Runtime/Npu/ll_aton/ll_aton_runtime.c ****   }
 178:../../Middlewares/AI_Runtime/Npu/ll_aton/ll_aton_runtime.c **** 
 179:../../Middlewares/AI_Runtime/Npu/ll_aton/ll_aton_runtime.c ****   if (nn_instance->exec_state.epoch_callback_function != NULL)
 180:../../Middlewares/AI_Runtime/Npu/ll_aton/ll_aton_runtime.c ****     nn_instance->exec_state.epoch_callback_function(LL_ATON_RT_Callbacktype_POST_START, nn_instance
 181:../../Middlewares/AI_Runtime/Npu/ll_aton/ll_aton_runtime.c **** }
 182:../../Middlewares/AI_Runtime/Npu/ll_aton/ll_aton_runtime.c **** 
 183:../../Middlewares/AI_Runtime/Npu/ll_aton/ll_aton_runtime.c **** static inline void __LL_ATON_RT_ExecEndEpochBlock(const LL_ATON_RT_EpochBlockItem_t *eb,
 184:../../Middlewares/AI_Runtime/Npu/ll_aton/ll_aton_runtime.c ****                                                   NN_Instance_TypeDef *nn_instance)
 185:../../Middlewares/AI_Runtime/Npu/ll_aton/ll_aton_runtime.c **** {
 186:../../Middlewares/AI_Runtime/Npu/ll_aton/ll_aton_runtime.c ****   if (nn_instance->exec_state.epoch_callback_function != NULL)
 187:../../Middlewares/AI_Runtime/Npu/ll_aton/ll_aton_runtime.c ****     nn_instance->exec_state.epoch_callback_function(LL_ATON_RT_Callbacktype_PRE_END, nn_instance, e
 188:../../Middlewares/AI_Runtime/Npu/ll_aton/ll_aton_runtime.c **** 
 189:../../Middlewares/AI_Runtime/Npu/ll_aton/ll_aton_runtime.c ****   if (EpochBlock_IsEpochBlob(eb))
 190:../../Middlewares/AI_Runtime/Npu/ll_aton/ll_aton_runtime.c ****   {
 191:../../Middlewares/AI_Runtime/Npu/ll_aton/ll_aton_runtime.c **** #if defined(ATON_EPOCHCTRL_NUM)
 192:../../Middlewares/AI_Runtime/Npu/ll_aton/ll_aton_runtime.c ****     /* stop/disable epoch controller */
 193:../../Middlewares/AI_Runtime/Npu/ll_aton/ll_aton_runtime.c ****     uint32_t ecId = EpochBlock_EpochControllerUnit(eb);
 194:../../Middlewares/AI_Runtime/Npu/ll_aton/ll_aton_runtime.c ****     LL_ATON_ASSERT(ecId < ATON_EPOCHCTRL_NUM); // may never happen
 195:../../Middlewares/AI_Runtime/Npu/ll_aton/ll_aton_runtime.c ****     uint32_t t;
 196:../../Middlewares/AI_Runtime/Npu/ll_aton/ll_aton_runtime.c ****     ATON_DISABLE_CLR_CONFCLR(EPOCHCTRL, ecId);
ARM GAS  C:\Users\Antonio\AppData\Local\Temp\ccCbPHYL.s 			page 5


 197:../../Middlewares/AI_Runtime/Npu/ll_aton/ll_aton_runtime.c **** 
 198:../../Middlewares/AI_Runtime/Npu/ll_aton/ll_aton_runtime.c ****     /* disable epoch controller clock */
 199:../../Middlewares/AI_Runtime/Npu/ll_aton/ll_aton_runtime.c ****     LL_ATON_DisableClock(ATON_EPOCHCTRL_CLKB_CLK(ecId));
 200:../../Middlewares/AI_Runtime/Npu/ll_aton/ll_aton_runtime.c **** #else  // !ATON_EPOCHCTRL_NUM
 201:../../Middlewares/AI_Runtime/Npu/ll_aton/ll_aton_runtime.c ****     LL_ATON_ASSERT(false); // may never happen
 202:../../Middlewares/AI_Runtime/Npu/ll_aton/ll_aton_runtime.c **** #endif // !ATON_EPOCHCTRL_NUM
 203:../../Middlewares/AI_Runtime/Npu/ll_aton/ll_aton_runtime.c ****   }
 204:../../Middlewares/AI_Runtime/Npu/ll_aton/ll_aton_runtime.c **** 
 205:../../Middlewares/AI_Runtime/Npu/ll_aton/ll_aton_runtime.c ****   if (eb->end_epoch_block != NULL)
 206:../../Middlewares/AI_Runtime/Npu/ll_aton/ll_aton_runtime.c ****   {
 207:../../Middlewares/AI_Runtime/Npu/ll_aton/ll_aton_runtime.c **** #if defined(LL_ATON_RT_RELOC)
 208:../../Middlewares/AI_Runtime/Npu/ll_aton/ll_aton_runtime.c ****     if (nn_instance->exec_state.inst_reloc != 0)
 209:../../Middlewares/AI_Runtime/Npu/ll_aton/ll_aton_runtime.c ****     {
 210:../../Middlewares/AI_Runtime/Npu/ll_aton/ll_aton_runtime.c ****       ai_rel_call_start_end_function(nn_instance->exec_state.inst_reloc, eb->end_epoch_block, eb);
 211:../../Middlewares/AI_Runtime/Npu/ll_aton/ll_aton_runtime.c ****     }
 212:../../Middlewares/AI_Runtime/Npu/ll_aton/ll_aton_runtime.c ****     else
 213:../../Middlewares/AI_Runtime/Npu/ll_aton/ll_aton_runtime.c ****     {
 214:../../Middlewares/AI_Runtime/Npu/ll_aton/ll_aton_runtime.c ****       eb->end_epoch_block((const void *)eb);
 215:../../Middlewares/AI_Runtime/Npu/ll_aton/ll_aton_runtime.c ****     }
 216:../../Middlewares/AI_Runtime/Npu/ll_aton/ll_aton_runtime.c **** #else
 217:../../Middlewares/AI_Runtime/Npu/ll_aton/ll_aton_runtime.c ****     eb->end_epoch_block((const void *)eb);
 218:../../Middlewares/AI_Runtime/Npu/ll_aton/ll_aton_runtime.c **** #endif
 219:../../Middlewares/AI_Runtime/Npu/ll_aton/ll_aton_runtime.c ****   }
 220:../../Middlewares/AI_Runtime/Npu/ll_aton/ll_aton_runtime.c **** 
 221:../../Middlewares/AI_Runtime/Npu/ll_aton/ll_aton_runtime.c ****   /* Reset wait mask */
 222:../../Middlewares/AI_Runtime/Npu/ll_aton/ll_aton_runtime.c ****   if (EpochBlock_IsEpochPureHW(eb) ||
 223:../../Middlewares/AI_Runtime/Npu/ll_aton/ll_aton_runtime.c ****       EpochBlock_IsEpochInternal(eb)) // epoch blobs are flagged as pure HW, so checking for epoch 
 224:../../Middlewares/AI_Runtime/Npu/ll_aton/ll_aton_runtime.c ****   {
 225:../../Middlewares/AI_Runtime/Npu/ll_aton/ll_aton_runtime.c ****     LL_ATON_ASSERT(nn_instance == __ll_current_aton_ip_owner);
 226:../../Middlewares/AI_Runtime/Npu/ll_aton/ll_aton_runtime.c ****     __LL_ATON_RT_SetWaitMask(0);
 227:../../Middlewares/AI_Runtime/Npu/ll_aton/ll_aton_runtime.c ****   }
 228:../../Middlewares/AI_Runtime/Npu/ll_aton/ll_aton_runtime.c **** 
 229:../../Middlewares/AI_Runtime/Npu/ll_aton/ll_aton_runtime.c ****   /* Release ATON IP unlock in case it's a pure HW epoch */
 230:../../Middlewares/AI_Runtime/Npu/ll_aton/ll_aton_runtime.c ****   if (EpochBlock_IsEpochPureHW(eb) || ((EpochBlock_IsEpochHybrid(eb) || EpochBlock_IsEpochInternal(
 231:../../Middlewares/AI_Runtime/Npu/ll_aton/ll_aton_runtime.c ****                                        (nn_instance->exec_state.saved_current_epoch_block == NULL) 
 232:../../Middlewares/AI_Runtime/Npu/ll_aton/ll_aton_runtime.c ****                                        (nn_instance->exec_state.next_epoch_block ==
 233:../../Middlewares/AI_Runtime/Npu/ll_aton/ll_aton_runtime.c ****                                         NULL))) /* hybrid has finished after that last part has bee
 234:../../Middlewares/AI_Runtime/Npu/ll_aton/ll_aton_runtime.c ****   {
 235:../../Middlewares/AI_Runtime/Npu/ll_aton/ll_aton_runtime.c ****     __ll_clear_aton_owner(nn_instance);
 236:../../Middlewares/AI_Runtime/Npu/ll_aton/ll_aton_runtime.c ****   }
 237:../../Middlewares/AI_Runtime/Npu/ll_aton/ll_aton_runtime.c ****   LL_ATON_ASSERT(EpochBlock_IsEpochInternal(eb) || EpochBlock_IsEpochHybrid(eb) ||
 238:../../Middlewares/AI_Runtime/Npu/ll_aton/ll_aton_runtime.c ****                  (__ll_current_aton_ip_owner != nn_instance));
 239:../../Middlewares/AI_Runtime/Npu/ll_aton/ll_aton_runtime.c **** 
 240:../../Middlewares/AI_Runtime/Npu/ll_aton/ll_aton_runtime.c ****   if (nn_instance->exec_state.epoch_callback_function != NULL)
 241:../../Middlewares/AI_Runtime/Npu/ll_aton/ll_aton_runtime.c ****   {
 242:../../Middlewares/AI_Runtime/Npu/ll_aton/ll_aton_runtime.c ****     nn_instance->exec_state.epoch_callback_function(LL_ATON_RT_Callbacktype_POST_END, nn_instance, 
 243:../../Middlewares/AI_Runtime/Npu/ll_aton/ll_aton_runtime.c ****   }
 244:../../Middlewares/AI_Runtime/Npu/ll_aton/ll_aton_runtime.c **** }
 245:../../Middlewares/AI_Runtime/Npu/ll_aton/ll_aton_runtime.c **** 
 246:../../Middlewares/AI_Runtime/Npu/ll_aton/ll_aton_runtime.c **** static void __LL_ATON_RT_DetermineNextEpochBlock(NN_Instance_TypeDef *nn_instance)
 247:../../Middlewares/AI_Runtime/Npu/ll_aton/ll_aton_runtime.c **** {
 248:../../Middlewares/AI_Runtime/Npu/ll_aton/ll_aton_runtime.c ****   LL_ATON_ASSERT(nn_instance != NULL);
 249:../../Middlewares/AI_Runtime/Npu/ll_aton/ll_aton_runtime.c **** #if (LL_ATON_RT_MODE == LL_ATON_RT_ASYNC)
 250:../../Middlewares/AI_Runtime/Npu/ll_aton/ll_aton_runtime.c ****   LL_ATON_ASSERT(nn_instance->exec_state.triggered_events ==
 251:../../Middlewares/AI_Runtime/Npu/ll_aton/ll_aton_runtime.c ****                  0x0); // with the removal of parallel SW/HW epochs execution all triggered events 
 252:../../Middlewares/AI_Runtime/Npu/ll_aton/ll_aton_runtime.c ****                        // cleared at this point in time!
 253:../../Middlewares/AI_Runtime/Npu/ll_aton/ll_aton_runtime.c **** #endif                 // (LL_ATON_RT_MODE == LL_ATON_RT_ASYNC)
ARM GAS  C:\Users\Antonio\AppData\Local\Temp\ccCbPHYL.s 			page 6


 254:../../Middlewares/AI_Runtime/Npu/ll_aton/ll_aton_runtime.c **** 
 255:../../Middlewares/AI_Runtime/Npu/ll_aton/ll_aton_runtime.c ****   /* Determine if there is a new inserted epoch block array */
 256:../../Middlewares/AI_Runtime/Npu/ll_aton/ll_aton_runtime.c ****   if ((nn_instance->exec_state.next_epoch_block != NULL))
 257:../../Middlewares/AI_Runtime/Npu/ll_aton/ll_aton_runtime.c ****   {
 258:../../Middlewares/AI_Runtime/Npu/ll_aton/ll_aton_runtime.c ****     LL_ATON_ASSERT(nn_instance->exec_state.saved_current_epoch_block == NULL);
 259:../../Middlewares/AI_Runtime/Npu/ll_aton/ll_aton_runtime.c **** 
 260:../../Middlewares/AI_Runtime/Npu/ll_aton/ll_aton_runtime.c ****     /* save current context */
 261:../../Middlewares/AI_Runtime/Npu/ll_aton/ll_aton_runtime.c ****     nn_instance->exec_state.saved_current_epoch_block = nn_instance->exec_state.current_epoch_block
 262:../../Middlewares/AI_Runtime/Npu/ll_aton/ll_aton_runtime.c ****     nn_instance->exec_state.saved_first_epoch_block = nn_instance->exec_state.first_epoch_block;
 263:../../Middlewares/AI_Runtime/Npu/ll_aton/ll_aton_runtime.c **** #ifndef NDEBUG
 264:../../Middlewares/AI_Runtime/Npu/ll_aton/ll_aton_runtime.c ****     nn_instance->exec_state.saved_nr_of_epoch_blocks = nn_instance->exec_state.nr_of_epoch_blocks;
 265:../../Middlewares/AI_Runtime/Npu/ll_aton/ll_aton_runtime.c **** #endif
 266:../../Middlewares/AI_Runtime/Npu/ll_aton/ll_aton_runtime.c **** 
 267:../../Middlewares/AI_Runtime/Npu/ll_aton/ll_aton_runtime.c ****     /* set new context */
 268:../../Middlewares/AI_Runtime/Npu/ll_aton/ll_aton_runtime.c ****     nn_instance->exec_state.current_epoch_block = nn_instance->exec_state.next_epoch_block;
 269:../../Middlewares/AI_Runtime/Npu/ll_aton/ll_aton_runtime.c ****     nn_instance->exec_state.first_epoch_block = nn_instance->exec_state.next_epoch_block;
 270:../../Middlewares/AI_Runtime/Npu/ll_aton/ll_aton_runtime.c **** #ifndef NDEBUG
 271:../../Middlewares/AI_Runtime/Npu/ll_aton/ll_aton_runtime.c ****     nn_instance->exec_state.nr_of_epoch_blocks = __LL_ATON_RT_CntEpochBlocks(nn_instance->exec_stat
 272:../../Middlewares/AI_Runtime/Npu/ll_aton/ll_aton_runtime.c **** #endif
 273:../../Middlewares/AI_Runtime/Npu/ll_aton/ll_aton_runtime.c **** 
 274:../../Middlewares/AI_Runtime/Npu/ll_aton/ll_aton_runtime.c ****     /* reset next epoch block */
 275:../../Middlewares/AI_Runtime/Npu/ll_aton/ll_aton_runtime.c ****     nn_instance->exec_state.next_epoch_block = NULL;
 276:../../Middlewares/AI_Runtime/Npu/ll_aton/ll_aton_runtime.c ****   }
 277:../../Middlewares/AI_Runtime/Npu/ll_aton/ll_aton_runtime.c ****   else
 278:../../Middlewares/AI_Runtime/Npu/ll_aton/ll_aton_runtime.c ****   {
 279:../../Middlewares/AI_Runtime/Npu/ll_aton/ll_aton_runtime.c ****     nn_instance->exec_state.current_epoch_block++;
 280:../../Middlewares/AI_Runtime/Npu/ll_aton/ll_aton_runtime.c ****   }
 281:../../Middlewares/AI_Runtime/Npu/ll_aton/ll_aton_runtime.c **** 
 282:../../Middlewares/AI_Runtime/Npu/ll_aton/ll_aton_runtime.c **** #if (LL_ATON_RT_MODE == LL_ATON_RT_ASYNC)
 283:../../Middlewares/AI_Runtime/Npu/ll_aton/ll_aton_runtime.c ****   nn_instance->exec_state.current_epoch_block_started = false;
 284:../../Middlewares/AI_Runtime/Npu/ll_aton/ll_aton_runtime.c **** #endif
 285:../../Middlewares/AI_Runtime/Npu/ll_aton/ll_aton_runtime.c **** }
 286:../../Middlewares/AI_Runtime/Npu/ll_aton/ll_aton_runtime.c **** 
 287:../../Middlewares/AI_Runtime/Npu/ll_aton/ll_aton_runtime.c **** static inline uint32_t __LL_ATON_RT_GetWaitMask(const LL_ATON_RT_EpochBlockItem_t *eb)
 288:../../Middlewares/AI_Runtime/Npu/ll_aton/ll_aton_runtime.c **** {
 289:../../Middlewares/AI_Runtime/Npu/ll_aton/ll_aton_runtime.c ****   if (EpochBlock_IsEpochBlob(eb))
 290:../../Middlewares/AI_Runtime/Npu/ll_aton/ll_aton_runtime.c ****   {
 291:../../Middlewares/AI_Runtime/Npu/ll_aton/ll_aton_runtime.c ****     // in case of epoch blob `wait_mask` contains unit number of epoch controller to use
 292:../../Middlewares/AI_Runtime/Npu/ll_aton/ll_aton_runtime.c ****     return (1 << EpochBlock_EpochControllerUnit(eb));
 293:../../Middlewares/AI_Runtime/Npu/ll_aton/ll_aton_runtime.c ****   }
 294:../../Middlewares/AI_Runtime/Npu/ll_aton/ll_aton_runtime.c ****   else
 295:../../Middlewares/AI_Runtime/Npu/ll_aton/ll_aton_runtime.c ****   {
 296:../../Middlewares/AI_Runtime/Npu/ll_aton/ll_aton_runtime.c ****     return eb->wait_mask; // in case of "normal" epoch block `wait_mask` contains bitmask of (outpu
 297:../../Middlewares/AI_Runtime/Npu/ll_aton/ll_aton_runtime.c ****                           // wait for
 298:../../Middlewares/AI_Runtime/Npu/ll_aton/ll_aton_runtime.c ****   }
 299:../../Middlewares/AI_Runtime/Npu/ll_aton/ll_aton_runtime.c **** }
 300:../../Middlewares/AI_Runtime/Npu/ll_aton/ll_aton_runtime.c **** 
 301:../../Middlewares/AI_Runtime/Npu/ll_aton/ll_aton_runtime.c **** static inline void __LL_ATON_RT_Init_Network(NN_Instance_TypeDef *nn_instance)
 302:../../Middlewares/AI_Runtime/Npu/ll_aton/ll_aton_runtime.c **** {
  34              		.loc 1 302 1 view -0
  35              		.cfi_startproc
  36              		@ args = 0, pretend = 0, frame = 0
  37              		@ frame_needed = 0, uses_anonymous_args = 0
 303:../../Middlewares/AI_Runtime/Npu/ll_aton/ll_aton_runtime.c ****   /** Exit if `nn_instance` is equal to NULL **/
 304:../../Middlewares/AI_Runtime/Npu/ll_aton/ll_aton_runtime.c ****   if (nn_instance == NULL)
  38              		.loc 1 304 3 view .LVU1
 302:../../Middlewares/AI_Runtime/Npu/ll_aton/ll_aton_runtime.c ****   /** Exit if `nn_instance` is equal to NULL **/
ARM GAS  C:\Users\Antonio\AppData\Local\Temp\ccCbPHYL.s 			page 7


  39              		.loc 1 302 1 is_stmt 0 view .LVU2
  40 0000 10B5     		push	{r4, lr}
  41              		.cfi_def_cfa_offset 8
  42              		.cfi_offset 4, -8
  43              		.cfi_offset 14, -4
  44              		.loc 1 304 6 view .LVU3
  45 0002 0446     		mov	r4, r0
  46 0004 10B3     		cbz	r0, .L1
 305:../../Middlewares/AI_Runtime/Npu/ll_aton/ll_aton_runtime.c ****   {
 306:../../Middlewares/AI_Runtime/Npu/ll_aton/ll_aton_runtime.c ****     return;
 307:../../Middlewares/AI_Runtime/Npu/ll_aton/ll_aton_runtime.c ****   }
 308:../../Middlewares/AI_Runtime/Npu/ll_aton/ll_aton_runtime.c **** 
 309:../../Middlewares/AI_Runtime/Npu/ll_aton/ll_aton_runtime.c ****   /** Exit if `nn_instance->network` is equal to NULL **/
 310:../../Middlewares/AI_Runtime/Npu/ll_aton/ll_aton_runtime.c ****   if (nn_instance->network == NULL)
  47              		.loc 1 310 3 is_stmt 1 view .LVU4
  48              		.loc 1 310 18 is_stmt 0 view .LVU5
  49 0006 0368     		ldr	r3, [r0]
  50              		.loc 1 310 6 view .LVU6
  51 0008 03B3     		cbz	r3, .L1
 311:../../Middlewares/AI_Runtime/Npu/ll_aton/ll_aton_runtime.c ****   {
 312:../../Middlewares/AI_Runtime/Npu/ll_aton/ll_aton_runtime.c ****     return;
 313:../../Middlewares/AI_Runtime/Npu/ll_aton/ll_aton_runtime.c ****   }
 314:../../Middlewares/AI_Runtime/Npu/ll_aton/ll_aton_runtime.c **** 
 315:../../Middlewares/AI_Runtime/Npu/ll_aton/ll_aton_runtime.c ****   /** Initialize static variables **/
 316:../../Middlewares/AI_Runtime/Npu/ll_aton/ll_aton_runtime.c ****   /* set context */
 317:../../Middlewares/AI_Runtime/Npu/ll_aton/ll_aton_runtime.c **** #if defined(LL_ATON_RT_RELOC)
 318:../../Middlewares/AI_Runtime/Npu/ll_aton/ll_aton_runtime.c ****   const LL_ATON_RT_EpochBlockItem_t *eb_list;
 319:../../Middlewares/AI_Runtime/Npu/ll_aton/ll_aton_runtime.c ****   if (nn_instance->exec_state.inst_reloc != 0)
 320:../../Middlewares/AI_Runtime/Npu/ll_aton/ll_aton_runtime.c ****   {
 321:../../Middlewares/AI_Runtime/Npu/ll_aton/ll_aton_runtime.c ****     eb_list = ai_rel_network_get_epoch_items(nn_instance->exec_state.inst_reloc);
 322:../../Middlewares/AI_Runtime/Npu/ll_aton/ll_aton_runtime.c ****   }
 323:../../Middlewares/AI_Runtime/Npu/ll_aton/ll_aton_runtime.c ****   else
 324:../../Middlewares/AI_Runtime/Npu/ll_aton/ll_aton_runtime.c ****   {
 325:../../Middlewares/AI_Runtime/Npu/ll_aton/ll_aton_runtime.c ****     eb_list = nn_instance->network->epoch_block_items();
 326:../../Middlewares/AI_Runtime/Npu/ll_aton/ll_aton_runtime.c ****   }
 327:../../Middlewares/AI_Runtime/Npu/ll_aton/ll_aton_runtime.c **** #else
 328:../../Middlewares/AI_Runtime/Npu/ll_aton/ll_aton_runtime.c ****   const LL_ATON_RT_EpochBlockItem_t *eb_list = nn_instance->network->epoch_block_items();
  52              		.loc 1 328 3 is_stmt 1 view .LVU7
  53              		.loc 1 328 48 is_stmt 0 view .LVU8
  54 000a DB69     		ldr	r3, [r3, #28]
  55 000c 9847     		blx	r3
  56              	.LVL1:
 329:../../Middlewares/AI_Runtime/Npu/ll_aton/ll_aton_runtime.c **** #endif
 330:../../Middlewares/AI_Runtime/Npu/ll_aton/ll_aton_runtime.c ****   nn_instance->exec_state.current_epoch_block = eb_list;
  57              		.loc 1 330 3 is_stmt 1 view .LVU9
 331:../../Middlewares/AI_Runtime/Npu/ll_aton/ll_aton_runtime.c ****   nn_instance->exec_state.first_epoch_block = eb_list;
 332:../../Middlewares/AI_Runtime/Npu/ll_aton/ll_aton_runtime.c ****   nn_instance->exec_state.next_epoch_block = NULL;
  58              		.loc 1 332 44 is_stmt 0 view .LVU10
  59 000e 0023     		movs	r3, #0
 330:../../Middlewares/AI_Runtime/Npu/ll_aton/ll_aton_runtime.c ****   nn_instance->exec_state.first_epoch_block = eb_list;
  60              		.loc 1 330 47 view .LVU11
  61 0010 6060     		str	r0, [r4, #4]
 331:../../Middlewares/AI_Runtime/Npu/ll_aton/ll_aton_runtime.c ****   nn_instance->exec_state.first_epoch_block = eb_list;
  62              		.loc 1 331 3 is_stmt 1 view .LVU12
 331:../../Middlewares/AI_Runtime/Npu/ll_aton/ll_aton_runtime.c ****   nn_instance->exec_state.first_epoch_block = eb_list;
  63              		.loc 1 331 45 is_stmt 0 view .LVU13
  64 0012 A060     		str	r0, [r4, #8]
ARM GAS  C:\Users\Antonio\AppData\Local\Temp\ccCbPHYL.s 			page 8


  65              		.loc 1 332 3 is_stmt 1 view .LVU14
  66              		.loc 1 332 44 is_stmt 0 view .LVU15
  67 0014 E360     		str	r3, [r4, #12]
 333:../../Middlewares/AI_Runtime/Npu/ll_aton/ll_aton_runtime.c **** 
 334:../../Middlewares/AI_Runtime/Npu/ll_aton/ll_aton_runtime.c ****   /* set saved context */
 335:../../Middlewares/AI_Runtime/Npu/ll_aton/ll_aton_runtime.c ****   nn_instance->exec_state.saved_current_epoch_block = NULL;
  68              		.loc 1 335 3 is_stmt 1 view .LVU16
  69              		.loc 1 335 53 is_stmt 0 view .LVU17
  70 0016 2361     		str	r3, [r4, #16]
 336:../../Middlewares/AI_Runtime/Npu/ll_aton/ll_aton_runtime.c ****   nn_instance->exec_state.saved_first_epoch_block = NULL;
  71              		.loc 1 336 3 is_stmt 1 view .LVU18
  72              		.loc 1 336 51 is_stmt 0 view .LVU19
  73 0018 6361     		str	r3, [r4, #20]
 337:../../Middlewares/AI_Runtime/Npu/ll_aton/ll_aton_runtime.c **** #ifndef NDEBUG
 338:../../Middlewares/AI_Runtime/Npu/ll_aton/ll_aton_runtime.c ****   nn_instance->exec_state.nr_of_epoch_blocks = __LL_ATON_RT_CntEpochBlocks(nn_instance->exec_state.
  74              		.loc 1 338 3 is_stmt 1 view .LVU20
  75              		.loc 1 338 99 is_stmt 0 view .LVU21
  76 001a 6368     		ldr	r3, [r4, #4]
  77              	.LVL2:
  78              	.LBB108:
  79              	.LBI108:
  78:../../Middlewares/AI_Runtime/Npu/ll_aton/ll_aton_runtime.c **** {
  80              		.loc 1 78 17 is_stmt 1 view .LVU22
  81              	.LBB109:
  80:../../Middlewares/AI_Runtime/Npu/ll_aton/ll_aton_runtime.c **** 
  82              		.loc 1 80 3 view .LVU23
  82:../../Middlewares/AI_Runtime/Npu/ll_aton/ll_aton_runtime.c ****   {
  83              		.loc 1 82 3 view .LVU24
  82:../../Middlewares/AI_Runtime/Npu/ll_aton/ll_aton_runtime.c ****   {
  84              		.loc 1 82 6 is_stmt 0 view .LVU25
  85 001c A3B9     		cbnz	r3, .L8
  80:../../Middlewares/AI_Runtime/Npu/ll_aton/ll_aton_runtime.c **** 
  86              		.loc 1 80 7 view .LVU26
  87 001e 1A46     		mov	r2, r3
  88              	.LVL3:
  89              	.L6:
  90:../../Middlewares/AI_Runtime/Npu/ll_aton/ll_aton_runtime.c **** }
  90              		.loc 1 90 3 is_stmt 1 view .LVU27
  90:../../Middlewares/AI_Runtime/Npu/ll_aton/ll_aton_runtime.c **** }
  91              		.loc 1 90 3 is_stmt 0 view .LVU28
  92              	.LBE109:
  93              	.LBE108:
  94              		.loc 1 338 46 discriminator 1 view .LVU29
  95 0020 6262     		str	r2, [r4, #36]
 339:../../Middlewares/AI_Runtime/Npu/ll_aton/ll_aton_runtime.c ****   nn_instance->exec_state.saved_nr_of_epoch_blocks = 0;
  96              		.loc 1 339 3 is_stmt 1 view .LVU30
  97              		.loc 1 339 52 is_stmt 0 view .LVU31
  98 0022 0022     		movs	r2, #0
 340:../../Middlewares/AI_Runtime/Npu/ll_aton/ll_aton_runtime.c **** #endif
 341:../../Middlewares/AI_Runtime/Npu/ll_aton/ll_aton_runtime.c **** 
 342:../../Middlewares/AI_Runtime/Npu/ll_aton/ll_aton_runtime.c ****   /* set information about running inference */
 343:../../Middlewares/AI_Runtime/Npu/ll_aton/ll_aton_runtime.c ****   nn_instance->exec_state.inference_started = false;
 344:../../Middlewares/AI_Runtime/Npu/ll_aton/ll_aton_runtime.c **** 
 345:../../Middlewares/AI_Runtime/Npu/ll_aton/ll_aton_runtime.c ****   /* set asynchronous status variables */
 346:../../Middlewares/AI_Runtime/Npu/ll_aton/ll_aton_runtime.c **** #if (LL_ATON_RT_MODE == LL_ATON_RT_ASYNC)
 347:../../Middlewares/AI_Runtime/Npu/ll_aton/ll_aton_runtime.c ****   nn_instance->exec_state.triggered_events = 0x0;
 348:../../Middlewares/AI_Runtime/Npu/ll_aton/ll_aton_runtime.c ****   nn_instance->exec_state.current_epoch_block_started = false;
ARM GAS  C:\Users\Antonio\AppData\Local\Temp\ccCbPHYL.s 			page 9


 349:../../Middlewares/AI_Runtime/Npu/ll_aton/ll_aton_runtime.c **** #endif // (LL_ATON_RT_MODE == LL_ATON_RT_ASYNC)
 350:../../Middlewares/AI_Runtime/Npu/ll_aton/ll_aton_runtime.c **** 
 351:../../Middlewares/AI_Runtime/Npu/ll_aton/ll_aton_runtime.c ****   /** Call epoch callback with callback type `LL_ATON_RT_Callbacktype_NN_Init` and network instance
 352:../../Middlewares/AI_Runtime/Npu/ll_aton/ll_aton_runtime.c ****   if (nn_instance->exec_state.epoch_callback_function != NULL)
  99              		.loc 1 352 30 view .LVU32
 100 0024 E36A     		ldr	r3, [r4, #44]
 339:../../Middlewares/AI_Runtime/Npu/ll_aton/ll_aton_runtime.c ****   nn_instance->exec_state.saved_nr_of_epoch_blocks = 0;
 101              		.loc 1 339 52 view .LVU33
 102 0026 A262     		str	r2, [r4, #40]
 343:../../Middlewares/AI_Runtime/Npu/ll_aton/ll_aton_runtime.c **** 
 103              		.loc 1 343 3 is_stmt 1 view .LVU34
 343:../../Middlewares/AI_Runtime/Npu/ll_aton/ll_aton_runtime.c **** 
 104              		.loc 1 343 45 is_stmt 0 view .LVU35
 105 0028 2276     		strb	r2, [r4, #24]
 347:../../Middlewares/AI_Runtime/Npu/ll_aton/ll_aton_runtime.c ****   nn_instance->exec_state.current_epoch_block_started = false;
 106              		.loc 1 347 3 is_stmt 1 view .LVU36
 347:../../Middlewares/AI_Runtime/Npu/ll_aton/ll_aton_runtime.c ****   nn_instance->exec_state.current_epoch_block_started = false;
 107              		.loc 1 347 44 is_stmt 0 view .LVU37
 108 002a E261     		str	r2, [r4, #28]
 348:../../Middlewares/AI_Runtime/Npu/ll_aton/ll_aton_runtime.c **** #endif // (LL_ATON_RT_MODE == LL_ATON_RT_ASYNC)
 109              		.loc 1 348 3 is_stmt 1 view .LVU38
 348:../../Middlewares/AI_Runtime/Npu/ll_aton/ll_aton_runtime.c **** #endif // (LL_ATON_RT_MODE == LL_ATON_RT_ASYNC)
 110              		.loc 1 348 55 is_stmt 0 view .LVU39
 111 002c 84F82020 		strb	r2, [r4, #32]
 112              		.loc 1 352 3 is_stmt 1 view .LVU40
 113              		.loc 1 352 6 is_stmt 0 view .LVU41
 114 0030 63B1     		cbz	r3, .L1
 353:../../Middlewares/AI_Runtime/Npu/ll_aton/ll_aton_runtime.c ****   {
 354:../../Middlewares/AI_Runtime/Npu/ll_aton/ll_aton_runtime.c ****     nn_instance->exec_state.epoch_callback_function(LL_ATON_RT_Callbacktype_NN_Init, nn_instance, N
 115              		.loc 1 354 5 is_stmt 1 view .LVU42
 116 0032 2146     		mov	r1, r4
 355:../../Middlewares/AI_Runtime/Npu/ll_aton/ll_aton_runtime.c ****   }
 356:../../Middlewares/AI_Runtime/Npu/ll_aton/ll_aton_runtime.c **** }
 117              		.loc 1 356 1 is_stmt 0 view .LVU43
 118 0034 BDE81040 		pop	{r4, lr}
 119              		.cfi_remember_state
 120              		.cfi_restore 14
 121              		.cfi_restore 4
 122              		.cfi_def_cfa_offset 0
 123              	.LVL4:
 354:../../Middlewares/AI_Runtime/Npu/ll_aton/ll_aton_runtime.c ****   }
 124              		.loc 1 354 5 view .LVU44
 125 0038 0420     		movs	r0, #4
 126              	.LVL5:
 354:../../Middlewares/AI_Runtime/Npu/ll_aton/ll_aton_runtime.c ****   }
 127              		.loc 1 354 5 view .LVU45
 128 003a 1847     		bx	r3	@ indirect register sibling call
 129              	.LVL6:
 130              	.L7:
 131              		.cfi_restore_state
 132              	.LBB113:
 133              	.LBB112:
  86:../../Middlewares/AI_Runtime/Npu/ll_aton/ll_aton_runtime.c ****     }
 134              		.loc 1 86 7 is_stmt 1 view .LVU46
  86:../../Middlewares/AI_Runtime/Npu/ll_aton/ll_aton_runtime.c ****     }
 135              		.loc 1 86 11 is_stmt 0 view .LVU47
 136 003c 1433     		adds	r3, r3, #20
ARM GAS  C:\Users\Antonio\AppData\Local\Temp\ccCbPHYL.s 			page 10


 137              	.LVL7:
  84:../../Middlewares/AI_Runtime/Npu/ll_aton/ll_aton_runtime.c ****     { // Note: also terminating empty epoch block is counted
 138              		.loc 1 84 54 is_stmt 1 discriminator 3 view .LVU48
 139 003e 0132     		adds	r2, r2, #1
 140              	.LVL8:
 141              	.L5:
  84:../../Middlewares/AI_Runtime/Npu/ll_aton/ll_aton_runtime.c ****     { // Note: also terminating empty epoch block is counted
 142              		.loc 1 84 17 discriminator 1 view .LVU49
 143              	.LBB110:
 144              	.LBI110:
 145              		.file 2 "../../Middlewares/AI_Runtime/Npu/ll_aton/ll_aton_NN_interface.h"
   1:../../Middlewares/AI_Runtime/Npu/ll_aton/ll_aton_NN_interface.h **** /**
   2:../../Middlewares/AI_Runtime/Npu/ll_aton/ll_aton_NN_interface.h ****  ******************************************************************************
   3:../../Middlewares/AI_Runtime/Npu/ll_aton/ll_aton_NN_interface.h ****  * @file    ll_aton_NN_interface.h
   4:../../Middlewares/AI_Runtime/Npu/ll_aton/ll_aton_NN_interface.h ****  * @author  SRA Artificial Intelligence & Embedded Architectures
   5:../../Middlewares/AI_Runtime/Npu/ll_aton/ll_aton_NN_interface.h ****  * @brief   Interface that defines a NN generated by the AtoNN Compiler.
   6:../../Middlewares/AI_Runtime/Npu/ll_aton/ll_aton_NN_interface.h ****  ******************************************************************************
   7:../../Middlewares/AI_Runtime/Npu/ll_aton/ll_aton_NN_interface.h ****  * @attention
   8:../../Middlewares/AI_Runtime/Npu/ll_aton/ll_aton_NN_interface.h ****  *
   9:../../Middlewares/AI_Runtime/Npu/ll_aton/ll_aton_NN_interface.h ****  * Copyright (c) 2024 STMicroelectronics.
  10:../../Middlewares/AI_Runtime/Npu/ll_aton/ll_aton_NN_interface.h ****  * All rights reserved.
  11:../../Middlewares/AI_Runtime/Npu/ll_aton/ll_aton_NN_interface.h ****  *
  12:../../Middlewares/AI_Runtime/Npu/ll_aton/ll_aton_NN_interface.h ****  * This software is licensed under terms that can be found in the LICENSE file
  13:../../Middlewares/AI_Runtime/Npu/ll_aton/ll_aton_NN_interface.h ****  * in the root directory of this software component.
  14:../../Middlewares/AI_Runtime/Npu/ll_aton/ll_aton_NN_interface.h ****  * If no LICENSE file comes with this software, it is provided AS-IS.
  15:../../Middlewares/AI_Runtime/Npu/ll_aton/ll_aton_NN_interface.h ****  *
  16:../../Middlewares/AI_Runtime/Npu/ll_aton/ll_aton_NN_interface.h ****  ******************************************************************************
  17:../../Middlewares/AI_Runtime/Npu/ll_aton/ll_aton_NN_interface.h ****  */
  18:../../Middlewares/AI_Runtime/Npu/ll_aton/ll_aton_NN_interface.h **** 
  19:../../Middlewares/AI_Runtime/Npu/ll_aton/ll_aton_NN_interface.h **** #ifndef __LL_ATON_NN_INTERFACE_H
  20:../../Middlewares/AI_Runtime/Npu/ll_aton/ll_aton_NN_interface.h **** #define __LL_ATON_NN_INTERFACE_H
  21:../../Middlewares/AI_Runtime/Npu/ll_aton/ll_aton_NN_interface.h **** 
  22:../../Middlewares/AI_Runtime/Npu/ll_aton/ll_aton_NN_interface.h **** #ifdef __cplusplus
  23:../../Middlewares/AI_Runtime/Npu/ll_aton/ll_aton_NN_interface.h **** extern "C"
  24:../../Middlewares/AI_Runtime/Npu/ll_aton/ll_aton_NN_interface.h **** {
  25:../../Middlewares/AI_Runtime/Npu/ll_aton/ll_aton_NN_interface.h **** #endif
  26:../../Middlewares/AI_Runtime/Npu/ll_aton/ll_aton_NN_interface.h **** 
  27:../../Middlewares/AI_Runtime/Npu/ll_aton/ll_aton_NN_interface.h **** #include <assert.h>
  28:../../Middlewares/AI_Runtime/Npu/ll_aton/ll_aton_NN_interface.h **** #include <stdbool.h>
  29:../../Middlewares/AI_Runtime/Npu/ll_aton/ll_aton_NN_interface.h **** #include <stddef.h>
  30:../../Middlewares/AI_Runtime/Npu/ll_aton/ll_aton_NN_interface.h **** #include <stdint.h>
  31:../../Middlewares/AI_Runtime/Npu/ll_aton/ll_aton_NN_interface.h **** 
  32:../../Middlewares/AI_Runtime/Npu/ll_aton/ll_aton_NN_interface.h **** #include "ll_aton_config.h"
  33:../../Middlewares/AI_Runtime/Npu/ll_aton/ll_aton_NN_interface.h **** 
  34:../../Middlewares/AI_Runtime/Npu/ll_aton/ll_aton_NN_interface.h **** #include "ll_aton_attributes.h"
  35:../../Middlewares/AI_Runtime/Npu/ll_aton/ll_aton_NN_interface.h **** #include "ll_aton_util.h"
  36:../../Middlewares/AI_Runtime/Npu/ll_aton/ll_aton_NN_interface.h **** 
  37:../../Middlewares/AI_Runtime/Npu/ll_aton/ll_aton_NN_interface.h ****   /* this is needed to avoid some compilers (e.g. KEIL) that observe a strict semantic about conver
  38:../../Middlewares/AI_Runtime/Npu/ll_aton/ll_aton_NN_interface.h ****    * pointers to integers in cost initializers
  39:../../Middlewares/AI_Runtime/Npu/ll_aton/ll_aton_NN_interface.h ****    */
  40:../../Middlewares/AI_Runtime/Npu/ll_aton/ll_aton_NN_interface.h ****   typedef union
  41:../../Middlewares/AI_Runtime/Npu/ll_aton/ll_aton_NN_interface.h ****   {
  42:../../Middlewares/AI_Runtime/Npu/ll_aton/ll_aton_NN_interface.h ****     unsigned char *p;
  43:../../Middlewares/AI_Runtime/Npu/ll_aton/ll_aton_NN_interface.h ****     uintptr_t i;
  44:../../Middlewares/AI_Runtime/Npu/ll_aton/ll_aton_NN_interface.h ****   } __LL_address_t;
  45:../../Middlewares/AI_Runtime/Npu/ll_aton/ll_aton_NN_interface.h **** 
  46:../../Middlewares/AI_Runtime/Npu/ll_aton/ll_aton_NN_interface.h ****   typedef void (*EpochBlock_FuncPtr_t)(const void *epoch_block);
ARM GAS  C:\Users\Antonio\AppData\Local\Temp\ccCbPHYL.s 			page 11


  47:../../Middlewares/AI_Runtime/Npu/ll_aton/ll_aton_NN_interface.h **** 
  48:../../Middlewares/AI_Runtime/Npu/ll_aton/ll_aton_NN_interface.h ****   typedef enum LL_ATON_RT_RetValues
  49:../../Middlewares/AI_Runtime/Npu/ll_aton/ll_aton_NN_interface.h ****   {
  50:../../Middlewares/AI_Runtime/Npu/ll_aton/ll_aton_NN_interface.h ****     LL_ATON_RT_NO_WFE = 0,
  51:../../Middlewares/AI_Runtime/Npu/ll_aton/ll_aton_NN_interface.h ****     LL_ATON_RT_WFE,
  52:../../Middlewares/AI_Runtime/Npu/ll_aton/ll_aton_NN_interface.h ****     LL_ATON_RT_DONE,
  53:../../Middlewares/AI_Runtime/Npu/ll_aton/ll_aton_NN_interface.h ****   } LL_ATON_RT_RetValues_t;
  54:../../Middlewares/AI_Runtime/Npu/ll_aton/ll_aton_NN_interface.h **** 
  55:../../Middlewares/AI_Runtime/Npu/ll_aton/ll_aton_NN_interface.h ****   typedef enum LL_ATON_RT_Callbacktype
  56:../../Middlewares/AI_Runtime/Npu/ll_aton/ll_aton_NN_interface.h ****   {
  57:../../Middlewares/AI_Runtime/Npu/ll_aton/ll_aton_NN_interface.h ****     LL_ATON_RT_Callbacktype_PRE_START,  /**< Callback called before start_epoch_block */
  58:../../Middlewares/AI_Runtime/Npu/ll_aton/ll_aton_NN_interface.h ****     LL_ATON_RT_Callbacktype_POST_START, /**< Callback called after start_epoch_block */
  59:../../Middlewares/AI_Runtime/Npu/ll_aton/ll_aton_NN_interface.h ****     LL_ATON_RT_Callbacktype_PRE_END,    /**< Callback called before end_epoch_block */
  60:../../Middlewares/AI_Runtime/Npu/ll_aton/ll_aton_NN_interface.h ****     LL_ATON_RT_Callbacktype_POST_END,   /**< Callback called after end_epoch_block */
  61:../../Middlewares/AI_Runtime/Npu/ll_aton/ll_aton_NN_interface.h ****     LL_ATON_RT_Callbacktype_NN_Init,    /**< Callback called after `LL_ATON_RT_Init_Network`,
  62:../../Middlewares/AI_Runtime/Npu/ll_aton/ll_aton_NN_interface.h ****                                          *     NOTE: 3rd parameter passed is `NULL` */
  63:../../Middlewares/AI_Runtime/Npu/ll_aton/ll_aton_NN_interface.h ****     LL_ATON_RT_Callbacktype_NN_DeInit,  /**< Callback called after `LL_ATON_RT_DeInit_Network`,
  64:../../Middlewares/AI_Runtime/Npu/ll_aton/ll_aton_NN_interface.h ****                                          *     NOTE: 3rd parameter passed is `NULL` */
  65:../../Middlewares/AI_Runtime/Npu/ll_aton/ll_aton_NN_interface.h ****     LL_ATON_RT_Callbacktype_RT_Init,    /**< Callback called after `LL_ATON_RT_RuntimeInit` */
  66:../../Middlewares/AI_Runtime/Npu/ll_aton/ll_aton_NN_interface.h ****     LL_ATON_RT_Callbacktype_RT_Deinit,  /**< Callback called before `LL_ATON_RT_RuntimeDeInit` */
  67:../../Middlewares/AI_Runtime/Npu/ll_aton/ll_aton_NN_interface.h ****   } LL_ATON_RT_Callbacktype_t;
  68:../../Middlewares/AI_Runtime/Npu/ll_aton/ll_aton_NN_interface.h **** 
  69:../../Middlewares/AI_Runtime/Npu/ll_aton/ll_aton_NN_interface.h ****   typedef enum LL_ATON_User_IO_Result
  70:../../Middlewares/AI_Runtime/Npu/ll_aton/ll_aton_NN_interface.h ****   {
  71:../../Middlewares/AI_Runtime/Npu/ll_aton/ll_aton_NN_interface.h ****     LL_ATON_User_IO_NOERROR,     /**< */
  72:../../Middlewares/AI_Runtime/Npu/ll_aton/ll_aton_NN_interface.h ****     LL_ATON_User_IO_WRONG_ALIGN, /**< */
  73:../../Middlewares/AI_Runtime/Npu/ll_aton/ll_aton_NN_interface.h ****     LL_ATON_User_IO_WRONG_SIZE,  /**< */
  74:../../Middlewares/AI_Runtime/Npu/ll_aton/ll_aton_NN_interface.h ****     LL_ATON_User_IO_WRONG_INDEX, /**< */
  75:../../Middlewares/AI_Runtime/Npu/ll_aton/ll_aton_NN_interface.h ****   } LL_ATON_User_IO_Result_t;
  76:../../Middlewares/AI_Runtime/Npu/ll_aton/ll_aton_NN_interface.h **** 
  77:../../Middlewares/AI_Runtime/Npu/ll_aton/ll_aton_NN_interface.h ****   typedef enum
  78:../../Middlewares/AI_Runtime/Npu/ll_aton/ll_aton_NN_interface.h ****   {
  79:../../Middlewares/AI_Runtime/Npu/ll_aton/ll_aton_NN_interface.h ****     EpochBlock_Flags_NONE = 0x0,               /**< */
  80:../../Middlewares/AI_Runtime/Npu/ll_aton/ll_aton_NN_interface.h ****     EpochBlock_Flags_epoch_start = (0x1 << 0), /**< First EpochBlock of an Epoch */
  81:../../Middlewares/AI_Runtime/Npu/ll_aton/ll_aton_NN_interface.h ****     EpochBlock_Flags_epoch_end = (0x1 << 1),   /**< Last EpochBlock of an Epoch */
  82:../../Middlewares/AI_Runtime/Npu/ll_aton/ll_aton_NN_interface.h ****     EpochBlock_Flags_blob = (0x1 << 2),        /**< Item is an Epoch Blob */
  83:../../Middlewares/AI_Runtime/Npu/ll_aton/ll_aton_NN_interface.h ****     EpochBlock_Flags_last_eb = (0x1 << 3),     /**< Last EpochBlock */
  84:../../Middlewares/AI_Runtime/Npu/ll_aton/ll_aton_NN_interface.h ****     EpochBlock_Flags_pure_hw = (0x1 << 4),     /**< Pure HW EpochBlock */
  85:../../Middlewares/AI_Runtime/Npu/ll_aton/ll_aton_NN_interface.h ****     EpochBlock_Flags_pure_sw = (0x1 << 5),     /**< Pure SW EpochBlock */
  86:../../Middlewares/AI_Runtime/Npu/ll_aton/ll_aton_NN_interface.h ****     EpochBlock_Flags_hybrid = (0x1 << 6),      /**< Hybrid EpochBlock (i.e. mixed HW/SW) */
  87:../../Middlewares/AI_Runtime/Npu/ll_aton/ll_aton_NN_interface.h ****     EpochBlock_Flags_internal = (0x1 << 7),    /**< ATON lib internal EpochBlock (used to implement
  88:../../Middlewares/AI_Runtime/Npu/ll_aton/ll_aton_NN_interface.h ****   } EpochBlock_Flags_t;
  89:../../Middlewares/AI_Runtime/Npu/ll_aton/ll_aton_NN_interface.h **** 
  90:../../Middlewares/AI_Runtime/Npu/ll_aton/ll_aton_NN_interface.h ****   typedef struct
  91:../../Middlewares/AI_Runtime/Npu/ll_aton/ll_aton_NN_interface.h ****   {
  92:../../Middlewares/AI_Runtime/Npu/ll_aton/ll_aton_NN_interface.h ****     EpochBlock_FuncPtr_t start_epoch_block; /**< Method to execute the EpochBlock */
  93:../../Middlewares/AI_Runtime/Npu/ll_aton/ll_aton_NN_interface.h ****     EpochBlock_FuncPtr_t end_epoch_block;   /**< Method to be executed when the EpochBlock ends */
  94:../../Middlewares/AI_Runtime/Npu/ll_aton/ll_aton_NN_interface.h ****     uintptr_t blob_address;                 /**< Blob address (in case this EpochBlock represents a
  95:../../Middlewares/AI_Runtime/Npu/ll_aton/ll_aton_NN_interface.h ****     uint32_t wait_mask;                     /**< Mask needed to check when an EpochBlock ends
  96:../../Middlewares/AI_Runtime/Npu/ll_aton/ll_aton_NN_interface.h ****                                              *    - if epoch blob: number (not bitmask) of epoch co
  97:../../Middlewares/AI_Runtime/Npu/ll_aton/ll_aton_NN_interface.h ****                                              *    - otherwise: bitmask with all output streaming en
  98:../../Middlewares/AI_Runtime/Npu/ll_aton/ll_aton_NN_interface.h ****     uint16_t flags;                         /**< EpochBlock flags */
  99:../../Middlewares/AI_Runtime/Npu/ll_aton/ll_aton_NN_interface.h **** #ifdef LL_ATON_EB_DBG_INFO
 100:../../Middlewares/AI_Runtime/Npu/ll_aton/ll_aton_NN_interface.h ****     int16_t epoch_num;             /**< Epoch number / First epoch number within blob */
 101:../../Middlewares/AI_Runtime/Npu/ll_aton/ll_aton_NN_interface.h ****     int16_t last_epoch_num;        /**< Epoch number / Last epoch number within blob */
 102:../../Middlewares/AI_Runtime/Npu/ll_aton/ll_aton_NN_interface.h ****     uint32_t in_streng_mask;       /**< Debug information about input streaming engines used in epo
 103:../../Middlewares/AI_Runtime/Npu/ll_aton/ll_aton_NN_interface.h ****     uint32_t out_streng_mask;      /**< Debug information about output streaming engines used in ep
ARM GAS  C:\Users\Antonio\AppData\Local\Temp\ccCbPHYL.s 			page 12


 104:../../Middlewares/AI_Runtime/Npu/ll_aton/ll_aton_NN_interface.h ****     uint64_t estimated_npu_cycles; /**< Debug information estimates for NPU cycles in epoch w/o mem
 105:../../Middlewares/AI_Runtime/Npu/ll_aton/ll_aton_NN_interface.h ****     uint64_t estimated_tot_cycles; /**< Debug information estimates for NPU cycles in epoch w/ memo
 106:../../Middlewares/AI_Runtime/Npu/ll_aton/ll_aton_NN_interface.h **** #endif                             // LL_ATON_EB_DBG_INFO
 107:../../Middlewares/AI_Runtime/Npu/ll_aton/ll_aton_NN_interface.h ****   } EpochBlock_ItemTypeDef;
 108:../../Middlewares/AI_Runtime/Npu/ll_aton/ll_aton_NN_interface.h **** 
 109:../../Middlewares/AI_Runtime/Npu/ll_aton/ll_aton_NN_interface.h ****   /**
 110:../../Middlewares/AI_Runtime/Npu/ll_aton/ll_aton_NN_interface.h ****    * @brief Checks if the pointed element is the last one of an array of `const EpochBlock_ItemType
 111:../../Middlewares/AI_Runtime/Npu/ll_aton/ll_aton_NN_interface.h ****    *
 112:../../Middlewares/AI_Runtime/Npu/ll_aton/ll_aton_NN_interface.h ****    */
 113:../../Middlewares/AI_Runtime/Npu/ll_aton/ll_aton_NN_interface.h ****   static inline bool EpochBlock_IsLastEpochBlock(const EpochBlock_ItemTypeDef *eb);
 114:../../Middlewares/AI_Runtime/Npu/ll_aton/ll_aton_NN_interface.h **** 
 115:../../Middlewares/AI_Runtime/Npu/ll_aton/ll_aton_NN_interface.h ****   /**
 116:../../Middlewares/AI_Runtime/Npu/ll_aton/ll_aton_NN_interface.h ****    * @brief Checks if the pointed element is the first EpochBlock of an Epoch
 117:../../Middlewares/AI_Runtime/Npu/ll_aton/ll_aton_NN_interface.h ****    *
 118:../../Middlewares/AI_Runtime/Npu/ll_aton/ll_aton_NN_interface.h ****    */
 119:../../Middlewares/AI_Runtime/Npu/ll_aton/ll_aton_NN_interface.h ****   static inline bool EpochBlock_IsEpochStart(const EpochBlock_ItemTypeDef *eb);
 120:../../Middlewares/AI_Runtime/Npu/ll_aton/ll_aton_NN_interface.h **** 
 121:../../Middlewares/AI_Runtime/Npu/ll_aton/ll_aton_NN_interface.h ****   /**
 122:../../Middlewares/AI_Runtime/Npu/ll_aton/ll_aton_NN_interface.h ****    * @brief Checks if the pointed element is the last EpochBlock of an Epoch
 123:../../Middlewares/AI_Runtime/Npu/ll_aton/ll_aton_NN_interface.h ****    *
 124:../../Middlewares/AI_Runtime/Npu/ll_aton/ll_aton_NN_interface.h ****    */
 125:../../Middlewares/AI_Runtime/Npu/ll_aton/ll_aton_NN_interface.h ****   static inline bool EpochBlock_IsEpochEnd(const EpochBlock_ItemTypeDef *eb);
 126:../../Middlewares/AI_Runtime/Npu/ll_aton/ll_aton_NN_interface.h **** 
 127:../../Middlewares/AI_Runtime/Npu/ll_aton/ll_aton_NN_interface.h ****   /**
 128:../../Middlewares/AI_Runtime/Npu/ll_aton/ll_aton_NN_interface.h ****    * @brief Checks if the pointed element is the an Epoch Blob
 129:../../Middlewares/AI_Runtime/Npu/ll_aton/ll_aton_NN_interface.h ****    *
 130:../../Middlewares/AI_Runtime/Npu/ll_aton/ll_aton_NN_interface.h ****    */
 131:../../Middlewares/AI_Runtime/Npu/ll_aton/ll_aton_NN_interface.h ****   static inline bool EpochBlock_IsEpochBlob(const EpochBlock_ItemTypeDef *eb);
 132:../../Middlewares/AI_Runtime/Npu/ll_aton/ll_aton_NN_interface.h **** 
 133:../../Middlewares/AI_Runtime/Npu/ll_aton/ll_aton_NN_interface.h ****   /**
 134:../../Middlewares/AI_Runtime/Npu/ll_aton/ll_aton_NN_interface.h ****    * @brief Checks if the pointed element is pure SW epoch
 135:../../Middlewares/AI_Runtime/Npu/ll_aton/ll_aton_NN_interface.h ****    *
 136:../../Middlewares/AI_Runtime/Npu/ll_aton/ll_aton_NN_interface.h ****    */
 137:../../Middlewares/AI_Runtime/Npu/ll_aton/ll_aton_NN_interface.h ****   static inline bool EpochBlock_IsEpochPureSW(const EpochBlock_ItemTypeDef *eb);
 138:../../Middlewares/AI_Runtime/Npu/ll_aton/ll_aton_NN_interface.h **** 
 139:../../Middlewares/AI_Runtime/Npu/ll_aton/ll_aton_NN_interface.h ****   /**
 140:../../Middlewares/AI_Runtime/Npu/ll_aton/ll_aton_NN_interface.h ****    * @brief Checks if the pointed element is a pure HW or mixed SW/HW epoch
 141:../../Middlewares/AI_Runtime/Npu/ll_aton/ll_aton_NN_interface.h ****    *
 142:../../Middlewares/AI_Runtime/Npu/ll_aton/ll_aton_NN_interface.h ****    */
 143:../../Middlewares/AI_Runtime/Npu/ll_aton/ll_aton_NN_interface.h ****   static inline bool EpochBlock_IsEpochPureHW(const EpochBlock_ItemTypeDef *eb);
 144:../../Middlewares/AI_Runtime/Npu/ll_aton/ll_aton_NN_interface.h **** 
 145:../../Middlewares/AI_Runtime/Npu/ll_aton/ll_aton_NN_interface.h ****   /**
 146:../../Middlewares/AI_Runtime/Npu/ll_aton/ll_aton_NN_interface.h ****    * @brief Checks if the pointed element is a hybrid epoch
 147:../../Middlewares/AI_Runtime/Npu/ll_aton/ll_aton_NN_interface.h ****    *
 148:../../Middlewares/AI_Runtime/Npu/ll_aton/ll_aton_NN_interface.h ****    */
 149:../../Middlewares/AI_Runtime/Npu/ll_aton/ll_aton_NN_interface.h ****   static inline bool EpochBlock_IsEpochHybrid(const EpochBlock_ItemTypeDef *eb);
 150:../../Middlewares/AI_Runtime/Npu/ll_aton/ll_aton_NN_interface.h **** 
 151:../../Middlewares/AI_Runtime/Npu/ll_aton/ll_aton_NN_interface.h ****   /**
 152:../../Middlewares/AI_Runtime/Npu/ll_aton/ll_aton_NN_interface.h ****    * @brief Checks if the pointed element is an internal epoch
 153:../../Middlewares/AI_Runtime/Npu/ll_aton/ll_aton_NN_interface.h ****    *
 154:../../Middlewares/AI_Runtime/Npu/ll_aton/ll_aton_NN_interface.h ****    */
 155:../../Middlewares/AI_Runtime/Npu/ll_aton/ll_aton_NN_interface.h ****   static inline bool EpochBlock_IsEpochInternal(const EpochBlock_ItemTypeDef *eb);
 156:../../Middlewares/AI_Runtime/Npu/ll_aton/ll_aton_NN_interface.h **** 
 157:../../Middlewares/AI_Runtime/Npu/ll_aton/ll_aton_NN_interface.h ****   /**
 158:../../Middlewares/AI_Runtime/Npu/ll_aton/ll_aton_NN_interface.h ****    * @brief Returns the Epoch controller id to use
 159:../../Middlewares/AI_Runtime/Npu/ll_aton/ll_aton_NN_interface.h ****    *
 160:../../Middlewares/AI_Runtime/Npu/ll_aton/ll_aton_NN_interface.h ****    */
ARM GAS  C:\Users\Antonio\AppData\Local\Temp\ccCbPHYL.s 			page 13


 161:../../Middlewares/AI_Runtime/Npu/ll_aton/ll_aton_NN_interface.h ****   static inline uint32_t EpochBlock_EpochControllerUnit(const EpochBlock_ItemTypeDef *eb);
 162:../../Middlewares/AI_Runtime/Npu/ll_aton/ll_aton_NN_interface.h **** 
 163:../../Middlewares/AI_Runtime/Npu/ll_aton/ll_aton_NN_interface.h ****   /**
 164:../../Middlewares/AI_Runtime/Npu/ll_aton/ll_aton_NN_interface.h ****    * @brief Returns the address of the configuration of the epoch controller (the blob address)
 165:../../Middlewares/AI_Runtime/Npu/ll_aton/ll_aton_NN_interface.h ****    *
 166:../../Middlewares/AI_Runtime/Npu/ll_aton/ll_aton_NN_interface.h ****    */
 167:../../Middlewares/AI_Runtime/Npu/ll_aton/ll_aton_NN_interface.h ****   static inline uintptr_t EpochBlock_EpochBlobAddr(const EpochBlock_ItemTypeDef *eb);
 168:../../Middlewares/AI_Runtime/Npu/ll_aton/ll_aton_NN_interface.h **** 
 169:../../Middlewares/AI_Runtime/Npu/ll_aton/ll_aton_NN_interface.h ****   /**
 170:../../Middlewares/AI_Runtime/Npu/ll_aton/ll_aton_NN_interface.h ****    * @brief ATON buffer types definition
 171:../../Middlewares/AI_Runtime/Npu/ll_aton/ll_aton_NN_interface.h ****    */
 172:../../Middlewares/AI_Runtime/Npu/ll_aton/ll_aton_NN_interface.h **** 
 173:../../Middlewares/AI_Runtime/Npu/ll_aton/ll_aton_NN_interface.h ****   typedef enum
 174:../../Middlewares/AI_Runtime/Npu/ll_aton/ll_aton_NN_interface.h ****   {
 175:../../Middlewares/AI_Runtime/Npu/ll_aton/ll_aton_NN_interface.h ****     DataType_UNDEFINED = 0,
 176:../../Middlewares/AI_Runtime/Npu/ll_aton/ll_aton_NN_interface.h ****     DataType_FLOAT = 1,
 177:../../Middlewares/AI_Runtime/Npu/ll_aton/ll_aton_NN_interface.h ****     DataType_UINT8 = 2,
 178:../../Middlewares/AI_Runtime/Npu/ll_aton/ll_aton_NN_interface.h ****     DataType_INT8 = 3,
 179:../../Middlewares/AI_Runtime/Npu/ll_aton/ll_aton_NN_interface.h ****     DataType_UINT16 = 4,
 180:../../Middlewares/AI_Runtime/Npu/ll_aton/ll_aton_NN_interface.h ****     DataType_INT16 = 5,
 181:../../Middlewares/AI_Runtime/Npu/ll_aton/ll_aton_NN_interface.h ****     DataType_INT32 = 6,
 182:../../Middlewares/AI_Runtime/Npu/ll_aton/ll_aton_NN_interface.h ****     DataType_INT64 = 7,
 183:../../Middlewares/AI_Runtime/Npu/ll_aton/ll_aton_NN_interface.h ****     DataType_STRING = 8,
 184:../../Middlewares/AI_Runtime/Npu/ll_aton/ll_aton_NN_interface.h ****     DataType_BOOL = 9,
 185:../../Middlewares/AI_Runtime/Npu/ll_aton/ll_aton_NN_interface.h ****     DataType_FLOAT16 = 10,
 186:../../Middlewares/AI_Runtime/Npu/ll_aton/ll_aton_NN_interface.h ****     DataType_DOUBLE = 11,
 187:../../Middlewares/AI_Runtime/Npu/ll_aton/ll_aton_NN_interface.h ****     DataType_UINT32 = 12,
 188:../../Middlewares/AI_Runtime/Npu/ll_aton/ll_aton_NN_interface.h ****     DataType_UINT64 = 13,
 189:../../Middlewares/AI_Runtime/Npu/ll_aton/ll_aton_NN_interface.h ****     DataType_COMPLEX64 = 14,
 190:../../Middlewares/AI_Runtime/Npu/ll_aton/ll_aton_NN_interface.h ****     DataType_COMPLEX128 = 15,
 191:../../Middlewares/AI_Runtime/Npu/ll_aton/ll_aton_NN_interface.h ****     DataType_BFLOAT16 = 16,
 192:../../Middlewares/AI_Runtime/Npu/ll_aton/ll_aton_NN_interface.h ****     DataType_FXP = 100 // AtoNN specific
 193:../../Middlewares/AI_Runtime/Npu/ll_aton/ll_aton_NN_interface.h ****   } Buffer_DataType_TypeDef;
 194:../../Middlewares/AI_Runtime/Npu/ll_aton/ll_aton_NN_interface.h **** 
 195:../../Middlewares/AI_Runtime/Npu/ll_aton/ll_aton_NN_interface.h ****   /**
 196:../../Middlewares/AI_Runtime/Npu/ll_aton/ll_aton_NN_interface.h ****    * @brief ATON buffer Channel position
 197:../../Middlewares/AI_Runtime/Npu/ll_aton/ll_aton_NN_interface.h ****    */
 198:../../Middlewares/AI_Runtime/Npu/ll_aton/ll_aton_NN_interface.h **** 
 199:../../Middlewares/AI_Runtime/Npu/ll_aton/ll_aton_NN_interface.h ****   typedef enum
 200:../../Middlewares/AI_Runtime/Npu/ll_aton/ll_aton_NN_interface.h ****   {
 201:../../Middlewares/AI_Runtime/Npu/ll_aton/ll_aton_NN_interface.h ****     CHPos_UNDEFINED = 0, /**< No channel present */
 202:../../Middlewares/AI_Runtime/Npu/ll_aton/ll_aton_NN_interface.h ****     CHPos_First = 1,     /**< Channel First         ( ...B C H W )*/
 203:../../Middlewares/AI_Runtime/Npu/ll_aton/ll_aton_NN_interface.h ****     CHPos_Last = 2,      /**< Channel Last          ( ...B H W C ) */
 204:../../Middlewares/AI_Runtime/Npu/ll_aton/ll_aton_NN_interface.h ****     CHPos_Mixed = 3,     /**< Channel with Batch(b) ( ...B C/b H W b ) */
 205:../../Middlewares/AI_Runtime/Npu/ll_aton/ll_aton_NN_interface.h ****   } Buffer_CHPos_TypeDef;
 206:../../Middlewares/AI_Runtime/Npu/ll_aton/ll_aton_NN_interface.h **** 
 207:../../Middlewares/AI_Runtime/Npu/ll_aton/ll_aton_NN_interface.h ****   /**
 208:../../Middlewares/AI_Runtime/Npu/ll_aton/ll_aton_NN_interface.h ****    * @brief ATON buffer definition
 209:../../Middlewares/AI_Runtime/Npu/ll_aton/ll_aton_NN_interface.h ****    */
 210:../../Middlewares/AI_Runtime/Npu/ll_aton/ll_aton_NN_interface.h ****   typedef struct
 211:../../Middlewares/AI_Runtime/Npu/ll_aton/ll_aton_NN_interface.h ****   {
 212:../../Middlewares/AI_Runtime/Npu/ll_aton/ll_aton_NN_interface.h ****     const char *name;             /**< Buffer name. NULL if end of list */
 213:../../Middlewares/AI_Runtime/Npu/ll_aton/ll_aton_NN_interface.h ****     __LL_address_t addr_base;     /**< Buffer base address */
 214:../../Middlewares/AI_Runtime/Npu/ll_aton/ll_aton_NN_interface.h ****     uint32_t offset_start;        /**< Offset of the buffer start address from the base address */
 215:../../Middlewares/AI_Runtime/Npu/ll_aton/ll_aton_NN_interface.h ****     uint32_t offset_end;          /**< Offset of the buffer end address from the base address
 216:../../Middlewares/AI_Runtime/Npu/ll_aton/ll_aton_NN_interface.h ****                                    *   (first bytes address beyond buffer length) */
 217:../../Middlewares/AI_Runtime/Npu/ll_aton/ll_aton_NN_interface.h ****     uint32_t offset_limit;        /**< Offset of the limiter address from the base address,
ARM GAS  C:\Users\Antonio\AppData\Local\Temp\ccCbPHYL.s 			page 14


 218:../../Middlewares/AI_Runtime/Npu/ll_aton/ll_aton_NN_interface.h ****                                    *   (needed for configuring streaming engines) */
 219:../../Middlewares/AI_Runtime/Npu/ll_aton/ll_aton_NN_interface.h ****     uint8_t is_user_allocated;    /**< */
 220:../../Middlewares/AI_Runtime/Npu/ll_aton/ll_aton_NN_interface.h ****     uint8_t is_param;             /**< */
 221:../../Middlewares/AI_Runtime/Npu/ll_aton/ll_aton_NN_interface.h ****     uint16_t epoch;               /**< */
 222:../../Middlewares/AI_Runtime/Npu/ll_aton/ll_aton_NN_interface.h ****     uint32_t batch;               /**< */
 223:../../Middlewares/AI_Runtime/Npu/ll_aton/ll_aton_NN_interface.h ****     const uint32_t *mem_shape;    /**< shape as seen by the user in memory (only valid for input/ou
 224:../../Middlewares/AI_Runtime/Npu/ll_aton/ll_aton_NN_interface.h ****     uint16_t mem_ndims;           /**< Number of dimensions of mem_shape (Length of mem_shape) */
 225:../../Middlewares/AI_Runtime/Npu/ll_aton/ll_aton_NN_interface.h ****     Buffer_CHPos_TypeDef chpos;   /**< Position  of channels dimension in mem shape */
 226:../../Middlewares/AI_Runtime/Npu/ll_aton/ll_aton_NN_interface.h ****     Buffer_DataType_TypeDef type; /**< */
 227:../../Middlewares/AI_Runtime/Npu/ll_aton/ll_aton_NN_interface.h ****     int8_t Qm;                    /**< */
 228:../../Middlewares/AI_Runtime/Npu/ll_aton/ll_aton_NN_interface.h ****     int8_t Qn;                    /**< */
 229:../../Middlewares/AI_Runtime/Npu/ll_aton/ll_aton_NN_interface.h ****     uint8_t Qunsigned;            /**< */
 230:../../Middlewares/AI_Runtime/Npu/ll_aton/ll_aton_NN_interface.h ****     uint8_t ndims;                /**< */
 231:../../Middlewares/AI_Runtime/Npu/ll_aton/ll_aton_NN_interface.h ****     uint8_t nbits;                /**< */
 232:../../Middlewares/AI_Runtime/Npu/ll_aton/ll_aton_NN_interface.h ****     uint8_t per_channel;          /**< */
 233:../../Middlewares/AI_Runtime/Npu/ll_aton/ll_aton_NN_interface.h ****     const uint32_t *shape;        /**< */
 234:../../Middlewares/AI_Runtime/Npu/ll_aton/ll_aton_NN_interface.h ****     const float *scale;           /**< */
 235:../../Middlewares/AI_Runtime/Npu/ll_aton/ll_aton_NN_interface.h ****     const int16_t *offset;        /**< This can become int8 or uint8 based on the Qunsigned field.
 236:../../Middlewares/AI_Runtime/Npu/ll_aton/ll_aton_NN_interface.h ****                                    *   (This field Must have the same format of the quantized value
 237:../../Middlewares/AI_Runtime/Npu/ll_aton/ll_aton_NN_interface.h ****   } LL_Buffer_InfoTypeDef;
 238:../../Middlewares/AI_Runtime/Npu/ll_aton/ll_aton_NN_interface.h **** 
 239:../../Middlewares/AI_Runtime/Npu/ll_aton/ll_aton_NN_interface.h ****   /**
 240:../../Middlewares/AI_Runtime/Npu/ll_aton/ll_aton_NN_interface.h ****    * @brief returns the base address of the mem pool the buffer is allocated in
 241:../../Middlewares/AI_Runtime/Npu/ll_aton/ll_aton_NN_interface.h ****    *
 242:../../Middlewares/AI_Runtime/Npu/ll_aton/ll_aton_NN_interface.h ****    */
 243:../../Middlewares/AI_Runtime/Npu/ll_aton/ll_aton_NN_interface.h ****   static inline unsigned char *LL_Buffer_addr_base(const LL_Buffer_InfoTypeDef *buf);
 244:../../Middlewares/AI_Runtime/Npu/ll_aton/ll_aton_NN_interface.h **** 
 245:../../Middlewares/AI_Runtime/Npu/ll_aton/ll_aton_NN_interface.h ****   /**
 246:../../Middlewares/AI_Runtime/Npu/ll_aton/ll_aton_NN_interface.h ****    * @brief returns the start address of the buffer
 247:../../Middlewares/AI_Runtime/Npu/ll_aton/ll_aton_NN_interface.h ****    *
 248:../../Middlewares/AI_Runtime/Npu/ll_aton/ll_aton_NN_interface.h ****    */
 249:../../Middlewares/AI_Runtime/Npu/ll_aton/ll_aton_NN_interface.h ****   static inline unsigned char *LL_Buffer_addr_start(const LL_Buffer_InfoTypeDef *buf);
 250:../../Middlewares/AI_Runtime/Npu/ll_aton/ll_aton_NN_interface.h **** 
 251:../../Middlewares/AI_Runtime/Npu/ll_aton/ll_aton_NN_interface.h ****   /**
 252:../../Middlewares/AI_Runtime/Npu/ll_aton/ll_aton_NN_interface.h ****    * @brief returns the end address of the buffer
 253:../../Middlewares/AI_Runtime/Npu/ll_aton/ll_aton_NN_interface.h ****    *
 254:../../Middlewares/AI_Runtime/Npu/ll_aton/ll_aton_NN_interface.h ****    */
 255:../../Middlewares/AI_Runtime/Npu/ll_aton/ll_aton_NN_interface.h ****   static inline unsigned char *LL_Buffer_addr_end(const LL_Buffer_InfoTypeDef *buf);
 256:../../Middlewares/AI_Runtime/Npu/ll_aton/ll_aton_NN_interface.h **** 
 257:../../Middlewares/AI_Runtime/Npu/ll_aton/ll_aton_NN_interface.h ****   /**
 258:../../Middlewares/AI_Runtime/Npu/ll_aton/ll_aton_NN_interface.h ****    * @brief returns the limit address of the buffer
 259:../../Middlewares/AI_Runtime/Npu/ll_aton/ll_aton_NN_interface.h ****    *
 260:../../Middlewares/AI_Runtime/Npu/ll_aton/ll_aton_NN_interface.h ****    */
 261:../../Middlewares/AI_Runtime/Npu/ll_aton/ll_aton_NN_interface.h ****   static inline unsigned char *LL_Buffer_addr_limit(const LL_Buffer_InfoTypeDef *buf);
 262:../../Middlewares/AI_Runtime/Npu/ll_aton/ll_aton_NN_interface.h **** 
 263:../../Middlewares/AI_Runtime/Npu/ll_aton/ll_aton_NN_interface.h ****   /**
 264:../../Middlewares/AI_Runtime/Npu/ll_aton/ll_aton_NN_interface.h ****    * @brief returns the length of the buffer
 265:../../Middlewares/AI_Runtime/Npu/ll_aton/ll_aton_NN_interface.h ****    *
 266:../../Middlewares/AI_Runtime/Npu/ll_aton/ll_aton_NN_interface.h ****    */
 267:../../Middlewares/AI_Runtime/Npu/ll_aton/ll_aton_NN_interface.h ****   static inline uint32_t LL_Buffer_len(const LL_Buffer_InfoTypeDef *buf);
 268:../../Middlewares/AI_Runtime/Npu/ll_aton/ll_aton_NN_interface.h **** 
 269:../../Middlewares/AI_Runtime/Npu/ll_aton/ll_aton_NN_interface.h ****   /**
 270:../../Middlewares/AI_Runtime/Npu/ll_aton/ll_aton_NN_interface.h ****    * @brief returns the buffer elements number of bits
 271:../../Middlewares/AI_Runtime/Npu/ll_aton/ll_aton_NN_interface.h ****    *
 272:../../Middlewares/AI_Runtime/Npu/ll_aton/ll_aton_NN_interface.h ****    */
 273:../../Middlewares/AI_Runtime/Npu/ll_aton/ll_aton_NN_interface.h ****   static inline uint32_t LL_Buffer_bits(const LL_Buffer_InfoTypeDef *buf);
 274:../../Middlewares/AI_Runtime/Npu/ll_aton/ll_aton_NN_interface.h **** 
ARM GAS  C:\Users\Antonio\AppData\Local\Temp\ccCbPHYL.s 			page 15


 275:../../Middlewares/AI_Runtime/Npu/ll_aton/ll_aton_NN_interface.h ****   /** @defgroup ATONN_COMPILER Functions autogenerated by the AtoNN compiler
 276:../../Middlewares/AI_Runtime/Npu/ll_aton/ll_aton_NN_interface.h ****    * @{
 277:../../Middlewares/AI_Runtime/Npu/ll_aton/ll_aton_NN_interface.h ****    */
 278:../../Middlewares/AI_Runtime/Npu/ll_aton/ll_aton_NN_interface.h **** 
 279:../../Middlewares/AI_Runtime/Npu/ll_aton/ll_aton_NN_interface.h ****   /**
 280:../../Middlewares/AI_Runtime/Npu/ll_aton/ll_aton_NN_interface.h ****    * @brief  Initialize a Network internal structures for the Epoch Controller
 281:../../Middlewares/AI_Runtime/Npu/ll_aton/ll_aton_NN_interface.h ****    * @note   This function is generated by the AtoNN compiler when called without a network name
 282:../../Middlewares/AI_Runtime/Npu/ll_aton/ll_aton_NN_interface.h ****    *         (i.e. without option `--network-name`)
 283:../../Middlewares/AI_Runtime/Npu/ll_aton/ll_aton_NN_interface.h ****    * @note   Use macro `LL_ATON_DECLARE_NAMED_NN_PROTOS(network_name)` instead when the network has
 284:../../Middlewares/AI_Runtime/Npu/ll_aton/ll_aton_NN_interface.h ****    *         (by the AtoNN compiler) with a network name (i.e. with option `--network-name`)
 285:../../Middlewares/AI_Runtime/Npu/ll_aton/ll_aton_NN_interface.h ****    * @retval returns if the action succeded or an error occured
 286:../../Middlewares/AI_Runtime/Npu/ll_aton/ll_aton_NN_interface.h ****    */
 287:../../Middlewares/AI_Runtime/Npu/ll_aton/ll_aton_NN_interface.h ****   extern bool LL_ATON_EC_Network_Init_Default(void);
 288:../../Middlewares/AI_Runtime/Npu/ll_aton/ll_aton_NN_interface.h **** 
 289:../../Middlewares/AI_Runtime/Npu/ll_aton/ll_aton_NN_interface.h ****   /**
 290:../../Middlewares/AI_Runtime/Npu/ll_aton/ll_aton_NN_interface.h ****    * @brief  Update a Network internal structures for the Epoch Controller before the execution of 
 291:../../Middlewares/AI_Runtime/Npu/ll_aton/ll_aton_NN_interface.h ****    * @note   This function is generated by the AtoNN compiler when called without a network name
 292:../../Middlewares/AI_Runtime/Npu/ll_aton/ll_aton_NN_interface.h ****    *         (i.e. without option `--network-name`)
 293:../../Middlewares/AI_Runtime/Npu/ll_aton/ll_aton_NN_interface.h ****    * @note   Use macro `LL_ATON_DECLARE_NAMED_NN_PROTOS(network_name)` instead when the network has
 294:../../Middlewares/AI_Runtime/Npu/ll_aton/ll_aton_NN_interface.h ****    *         (by the AtoNN compiler) with a network name (i.e. with option `--network-name`)
 295:../../Middlewares/AI_Runtime/Npu/ll_aton/ll_aton_NN_interface.h ****    * @retval returns if the action succeded or an error occured
 296:../../Middlewares/AI_Runtime/Npu/ll_aton/ll_aton_NN_interface.h ****    */
 297:../../Middlewares/AI_Runtime/Npu/ll_aton/ll_aton_NN_interface.h ****   extern bool LL_ATON_EC_Inference_Init_Default(void);
 298:../../Middlewares/AI_Runtime/Npu/ll_aton/ll_aton_NN_interface.h **** 
 299:../../Middlewares/AI_Runtime/Npu/ll_aton/ll_aton_NN_interface.h ****   /**
 300:../../Middlewares/AI_Runtime/Npu/ll_aton/ll_aton_NN_interface.h ****    * @brief  Sets user allocated inputs (one at a time)
 301:../../Middlewares/AI_Runtime/Npu/ll_aton/ll_aton_NN_interface.h ****    * @note   This function is generated by the AtoNN compiler when called without a network name
 302:../../Middlewares/AI_Runtime/Npu/ll_aton/ll_aton_NN_interface.h ****    *         (i.e. without option `--network-name`)
 303:../../Middlewares/AI_Runtime/Npu/ll_aton/ll_aton_NN_interface.h ****    * @note   Use macro `LL_ATON_DECLARE_NAMED_NN_PROTOS(network_name)` instead when the network has
 304:../../Middlewares/AI_Runtime/Npu/ll_aton/ll_aton_NN_interface.h ****    *         (by the AtoNN compiler) with a network name (i.e. with option `--network-name`)
 305:../../Middlewares/AI_Runtime/Npu/ll_aton/ll_aton_NN_interface.h ****    * @param  num zero base index of the input buffer to set
 306:../../Middlewares/AI_Runtime/Npu/ll_aton/ll_aton_NN_interface.h ****    * @param  buffer pointer to the area used to store this input
 307:../../Middlewares/AI_Runtime/Npu/ll_aton/ll_aton_NN_interface.h ****    * @param  size size of the memory reserved for this input
 308:../../Middlewares/AI_Runtime/Npu/ll_aton/ll_aton_NN_interface.h ****    */
 309:../../Middlewares/AI_Runtime/Npu/ll_aton/ll_aton_NN_interface.h ****   extern LL_ATON_User_IO_Result_t LL_ATON_Set_User_Input_Buffer_Default(uint32_t num, void *buffer,
 310:../../Middlewares/AI_Runtime/Npu/ll_aton/ll_aton_NN_interface.h **** 
 311:../../Middlewares/AI_Runtime/Npu/ll_aton/ll_aton_NN_interface.h ****   /**
 312:../../Middlewares/AI_Runtime/Npu/ll_aton/ll_aton_NN_interface.h ****    * @brief  Gets user allocated inputs (one at a time)
 313:../../Middlewares/AI_Runtime/Npu/ll_aton/ll_aton_NN_interface.h ****    * @note   This function is generated by the AtoNN compiler when called without a network name
 314:../../Middlewares/AI_Runtime/Npu/ll_aton/ll_aton_NN_interface.h ****    *         (i.e. without option `--network-name`)
 315:../../Middlewares/AI_Runtime/Npu/ll_aton/ll_aton_NN_interface.h ****    * @note   Use macro `LL_ATON_DECLARE_NAMED_NN_PROTOS(network_name)` instead when the network has
 316:../../Middlewares/AI_Runtime/Npu/ll_aton/ll_aton_NN_interface.h ****    *         (by the AtoNN compiler) with a network name (i.e. with option `--network-name`)
 317:../../Middlewares/AI_Runtime/Npu/ll_aton/ll_aton_NN_interface.h ****    * @param  num zero base index of the input buffer to get
 318:../../Middlewares/AI_Runtime/Npu/ll_aton/ll_aton_NN_interface.h ****    * @retval returns a pointer to the specified user allocated input
 319:../../Middlewares/AI_Runtime/Npu/ll_aton/ll_aton_NN_interface.h ****    */
 320:../../Middlewares/AI_Runtime/Npu/ll_aton/ll_aton_NN_interface.h ****   extern void *LL_ATON_Get_User_Input_Buffer_Default(uint32_t num);
 321:../../Middlewares/AI_Runtime/Npu/ll_aton/ll_aton_NN_interface.h **** 
 322:../../Middlewares/AI_Runtime/Npu/ll_aton/ll_aton_NN_interface.h ****   /**
 323:../../Middlewares/AI_Runtime/Npu/ll_aton/ll_aton_NN_interface.h ****    * @brief  Sets user allocated outputs (one at a time)
 324:../../Middlewares/AI_Runtime/Npu/ll_aton/ll_aton_NN_interface.h ****    * @note   This function is generated by the AtoNN compiler when called without a network name
 325:../../Middlewares/AI_Runtime/Npu/ll_aton/ll_aton_NN_interface.h ****    *         (i.e. without option `--network-name`)
 326:../../Middlewares/AI_Runtime/Npu/ll_aton/ll_aton_NN_interface.h ****    * @note   Use macro `LL_ATON_DECLARE_NAMED_NN_PROTOS(network_name)` instead when the network has
 327:../../Middlewares/AI_Runtime/Npu/ll_aton/ll_aton_NN_interface.h ****    *         (by the AtoNN compiler) with a network name (i.e. with option `--network-name`)
 328:../../Middlewares/AI_Runtime/Npu/ll_aton/ll_aton_NN_interface.h ****    * @param  num zero base index of the output buffer to set
 329:../../Middlewares/AI_Runtime/Npu/ll_aton/ll_aton_NN_interface.h ****    * @param  buffer pointer to the area used to store this output
 330:../../Middlewares/AI_Runtime/Npu/ll_aton/ll_aton_NN_interface.h ****    * @param  size size of the memory reserved for this output
 331:../../Middlewares/AI_Runtime/Npu/ll_aton/ll_aton_NN_interface.h ****    */
ARM GAS  C:\Users\Antonio\AppData\Local\Temp\ccCbPHYL.s 			page 16


 332:../../Middlewares/AI_Runtime/Npu/ll_aton/ll_aton_NN_interface.h ****   extern LL_ATON_User_IO_Result_t LL_ATON_Set_User_Output_Buffer_Default(uint32_t num, void *buffer
 333:../../Middlewares/AI_Runtime/Npu/ll_aton/ll_aton_NN_interface.h **** 
 334:../../Middlewares/AI_Runtime/Npu/ll_aton/ll_aton_NN_interface.h ****   /**
 335:../../Middlewares/AI_Runtime/Npu/ll_aton/ll_aton_NN_interface.h ****    * @brief  Gets user allocated inputs (one at a time)
 336:../../Middlewares/AI_Runtime/Npu/ll_aton/ll_aton_NN_interface.h ****    * @note   This function is generated by the AtoNN compiler when called without a network name
 337:../../Middlewares/AI_Runtime/Npu/ll_aton/ll_aton_NN_interface.h ****    *         (i.e. without option `--network-name`)
 338:../../Middlewares/AI_Runtime/Npu/ll_aton/ll_aton_NN_interface.h ****    * @note   Use macro `LL_ATON_DECLARE_NAMED_NN_PROTOS(network_name)` instead when the network has
 339:../../Middlewares/AI_Runtime/Npu/ll_aton/ll_aton_NN_interface.h ****    *         (by the AtoNN compiler) with a network name (i.e. with option `--network-name`)
 340:../../Middlewares/AI_Runtime/Npu/ll_aton/ll_aton_NN_interface.h ****    * @param  num zero base index of the output buffer to get
 341:../../Middlewares/AI_Runtime/Npu/ll_aton/ll_aton_NN_interface.h ****    * @retval returns a pointer to the specified user allocated output
 342:../../Middlewares/AI_Runtime/Npu/ll_aton/ll_aton_NN_interface.h ****    */
 343:../../Middlewares/AI_Runtime/Npu/ll_aton/ll_aton_NN_interface.h ****   extern void *LL_ATON_Get_User_Output_Buffer_Default(uint32_t num);
 344:../../Middlewares/AI_Runtime/Npu/ll_aton/ll_aton_NN_interface.h **** 
 345:../../Middlewares/AI_Runtime/Npu/ll_aton/ll_aton_NN_interface.h ****   /**
 346:../../Middlewares/AI_Runtime/Npu/ll_aton/ll_aton_NN_interface.h ****    * @brief  Returns an array of structures describing the epoch blocks of the NN to execute
 347:../../Middlewares/AI_Runtime/Npu/ll_aton/ll_aton_NN_interface.h ****    * @note   This function is generated by the AtoNN compiler when called without a network name
 348:../../Middlewares/AI_Runtime/Npu/ll_aton/ll_aton_NN_interface.h ****    *         (i.e. without option `--network-name`)
 349:../../Middlewares/AI_Runtime/Npu/ll_aton/ll_aton_NN_interface.h ****    * @note   Use macro `LL_ATON_DECLARE_NAMED_NN_PROTOS(network_name)` instead when the network has
 350:../../Middlewares/AI_Runtime/Npu/ll_aton/ll_aton_NN_interface.h ****    *         (by the AtoNN compiler) with a network name (i.e. with option `--network-name`)
 351:../../Middlewares/AI_Runtime/Npu/ll_aton/ll_aton_NN_interface.h ****    * @retval returns a pointer to an array of `const EpochBlock_ItemTypeDef`,
 352:../../Middlewares/AI_Runtime/Npu/ll_aton/ll_aton_NN_interface.h ****    *         if `flags` contain `EpochBlock_Flags_last_eb` identifies the last (empty) EpochBlock (
 353:../../Middlewares/AI_Runtime/Npu/ll_aton/ll_aton_NN_interface.h ****    *         (see helper function `EpochBlock_IsLastEpochBlock()`)
 354:../../Middlewares/AI_Runtime/Npu/ll_aton/ll_aton_NN_interface.h ****    */
 355:../../Middlewares/AI_Runtime/Npu/ll_aton/ll_aton_NN_interface.h ****   extern const EpochBlock_ItemTypeDef *LL_ATON_EpochBlockItems_Default(void);
 356:../../Middlewares/AI_Runtime/Npu/ll_aton/ll_aton_NN_interface.h **** 
 357:../../Middlewares/AI_Runtime/Npu/ll_aton/ll_aton_NN_interface.h ****   /**
 358:../../Middlewares/AI_Runtime/Npu/ll_aton/ll_aton_NN_interface.h ****    * @brief  Returns an array of structures describing input buffers
 359:../../Middlewares/AI_Runtime/Npu/ll_aton/ll_aton_NN_interface.h ****    * @note   This function is generated by the AtoNN compiler when called without a network name
 360:../../Middlewares/AI_Runtime/Npu/ll_aton/ll_aton_NN_interface.h ****    *         (i.e. without option `--network-name`)
 361:../../Middlewares/AI_Runtime/Npu/ll_aton/ll_aton_NN_interface.h ****    * @note   Use macro `LL_ATON_DECLARE_NAMED_NN_PROTOS(network_name)` instead when the network has
 362:../../Middlewares/AI_Runtime/Npu/ll_aton/ll_aton_NN_interface.h ****    *         (by the AtoNN compiler) with a network name (i.e. with option `--network-name`)
 363:../../Middlewares/AI_Runtime/Npu/ll_aton/ll_aton_NN_interface.h ****    * @retval returns a pointer to the array of LL_Buffer_InfoTypeDef, name is NULL for the last one
 364:../../Middlewares/AI_Runtime/Npu/ll_aton/ll_aton_NN_interface.h ****    */
 365:../../Middlewares/AI_Runtime/Npu/ll_aton/ll_aton_NN_interface.h ****   extern const LL_Buffer_InfoTypeDef *LL_ATON_Output_Buffers_Info_Default(void);
 366:../../Middlewares/AI_Runtime/Npu/ll_aton/ll_aton_NN_interface.h **** 
 367:../../Middlewares/AI_Runtime/Npu/ll_aton/ll_aton_NN_interface.h ****   /**
 368:../../Middlewares/AI_Runtime/Npu/ll_aton/ll_aton_NN_interface.h ****    * @brief  Returns an array of structures describing output buffers
 369:../../Middlewares/AI_Runtime/Npu/ll_aton/ll_aton_NN_interface.h ****    * @note   This function is generated by the AtoNN compiler when called without a network name
 370:../../Middlewares/AI_Runtime/Npu/ll_aton/ll_aton_NN_interface.h ****    *         (i.e. without option `--network-name`)
 371:../../Middlewares/AI_Runtime/Npu/ll_aton/ll_aton_NN_interface.h ****    * @note   Use macro `LL_ATON_DECLARE_NAMED_NN_PROTOS(network_name)` instead when the network has
 372:../../Middlewares/AI_Runtime/Npu/ll_aton/ll_aton_NN_interface.h ****    *         (by the AtoNN compiler) with a network name (i.e. with option `--network-name`)
 373:../../Middlewares/AI_Runtime/Npu/ll_aton/ll_aton_NN_interface.h ****    * @retval Returns a pointer to the array of LL_Buffer_InfoTypeDef, name is NULL for the last one
 374:../../Middlewares/AI_Runtime/Npu/ll_aton/ll_aton_NN_interface.h ****    */
 375:../../Middlewares/AI_Runtime/Npu/ll_aton/ll_aton_NN_interface.h ****   extern const LL_Buffer_InfoTypeDef *LL_ATON_Input_Buffers_Info_Default(void);
 376:../../Middlewares/AI_Runtime/Npu/ll_aton/ll_aton_NN_interface.h **** 
 377:../../Middlewares/AI_Runtime/Npu/ll_aton/ll_aton_NN_interface.h ****   /**
 378:../../Middlewares/AI_Runtime/Npu/ll_aton/ll_aton_NN_interface.h ****    * @brief  Returns an array of structures describing epoch output transient buffers
 379:../../Middlewares/AI_Runtime/Npu/ll_aton/ll_aton_NN_interface.h ****    * @note   This function is generated by the AtoNN compiler when called without a network name
 380:../../Middlewares/AI_Runtime/Npu/ll_aton/ll_aton_NN_interface.h ****    *         (i.e. without option `--network-name`)
 381:../../Middlewares/AI_Runtime/Npu/ll_aton/ll_aton_NN_interface.h ****    * @note   Use macro `LL_ATON_DECLARE_NAMED_NN_PROTOS(network_name)` instead when the network has
 382:../../Middlewares/AI_Runtime/Npu/ll_aton/ll_aton_NN_interface.h ****    *         (by the AtoNN compiler) with a network name (i.e. with option `--network-name`)
 383:../../Middlewares/AI_Runtime/Npu/ll_aton/ll_aton_NN_interface.h ****    * @retval Returns a pointer to the array of LL_Buffer_InfoTypeDef, name is NULL for the last one
 384:../../Middlewares/AI_Runtime/Npu/ll_aton/ll_aton_NN_interface.h ****    */
 385:../../Middlewares/AI_Runtime/Npu/ll_aton/ll_aton_NN_interface.h ****   extern const LL_Buffer_InfoTypeDef *LL_ATON_Internal_Buffers_Info_Default(void);
 386:../../Middlewares/AI_Runtime/Npu/ll_aton/ll_aton_NN_interface.h **** 
 387:../../Middlewares/AI_Runtime/Npu/ll_aton/ll_aton_NN_interface.h **** /**
 388:../../Middlewares/AI_Runtime/Npu/ll_aton/ll_aton_NN_interface.h ****  * @brief Declare the function prototypes for named NN interface functions generated by the AtoNN c
ARM GAS  C:\Users\Antonio\AppData\Local\Temp\ccCbPHYL.s 			page 17


 389:../../Middlewares/AI_Runtime/Npu/ll_aton/ll_aton_NN_interface.h ****  * @param network_name name of the network as provided by option `--network-name`
 390:../../Middlewares/AI_Runtime/Npu/ll_aton/ll_aton_NN_interface.h ****  */
 391:../../Middlewares/AI_Runtime/Npu/ll_aton/ll_aton_NN_interface.h **** #define LL_ATON_DECLARE_NAMED_NN_PROTOS(network_name)                                              
 392:../../Middlewares/AI_Runtime/Npu/ll_aton/ll_aton_NN_interface.h ****   extern bool LL_ATON_EC_Network_Init_##network_name(void);                                        
 393:../../Middlewares/AI_Runtime/Npu/ll_aton/ll_aton_NN_interface.h ****   extern bool LL_ATON_EC_Inference_Init_##network_name(void);                                      
 394:../../Middlewares/AI_Runtime/Npu/ll_aton/ll_aton_NN_interface.h ****   extern LL_ATON_User_IO_Result_t LL_ATON_Set_User_Input_Buffer_##network_name(uint32_t num, void *
 395:../../Middlewares/AI_Runtime/Npu/ll_aton/ll_aton_NN_interface.h ****                                                                                uint32_t size);     
 396:../../Middlewares/AI_Runtime/Npu/ll_aton/ll_aton_NN_interface.h ****   extern void *LL_ATON_Get_User_Input_Buffer_##network_name(uint32_t num);                         
 397:../../Middlewares/AI_Runtime/Npu/ll_aton/ll_aton_NN_interface.h ****   extern LL_ATON_User_IO_Result_t LL_ATON_Set_User_Output_Buffer_##network_name(uint32_t num, void 
 398:../../Middlewares/AI_Runtime/Npu/ll_aton/ll_aton_NN_interface.h ****                                                                                 uint32_t size);    
 399:../../Middlewares/AI_Runtime/Npu/ll_aton/ll_aton_NN_interface.h ****   extern void *LL_ATON_Get_User_Output_Buffer_##network_name(uint32_t num);                        
 400:../../Middlewares/AI_Runtime/Npu/ll_aton/ll_aton_NN_interface.h ****   extern const EpochBlock_ItemTypeDef *LL_ATON_EpochBlockItems_##network_name(void);               
 401:../../Middlewares/AI_Runtime/Npu/ll_aton/ll_aton_NN_interface.h ****   extern const LL_Buffer_InfoTypeDef *LL_ATON_Output_Buffers_Info_##network_name(void);            
 402:../../Middlewares/AI_Runtime/Npu/ll_aton/ll_aton_NN_interface.h ****   extern const LL_Buffer_InfoTypeDef *LL_ATON_Input_Buffers_Info_##network_name(void);             
 403:../../Middlewares/AI_Runtime/Npu/ll_aton/ll_aton_NN_interface.h ****   extern const LL_Buffer_InfoTypeDef *LL_ATON_Internal_Buffers_Info_##network_name(void);
 404:../../Middlewares/AI_Runtime/Npu/ll_aton/ll_aton_NN_interface.h **** 
 405:../../Middlewares/AI_Runtime/Npu/ll_aton/ll_aton_NN_interface.h ****   /**
 406:../../Middlewares/AI_Runtime/Npu/ll_aton/ll_aton_NN_interface.h ****    * @brief  Type definitions for NN interface functions
 407:../../Middlewares/AI_Runtime/Npu/ll_aton/ll_aton_NN_interface.h ****    */
 408:../../Middlewares/AI_Runtime/Npu/ll_aton/ll_aton_NN_interface.h ****   typedef bool (*NN_EC_Hook_TypeDef)(void);
 409:../../Middlewares/AI_Runtime/Npu/ll_aton/ll_aton_NN_interface.h ****   typedef LL_ATON_User_IO_Result_t (*NN_InputSetter_TypeDef)(uint32_t num, void *buffer, uint32_t s
 410:../../Middlewares/AI_Runtime/Npu/ll_aton/ll_aton_NN_interface.h ****   typedef void *(*NN_InputGetter_TypeDef)(uint32_t num);
 411:../../Middlewares/AI_Runtime/Npu/ll_aton/ll_aton_NN_interface.h ****   typedef LL_ATON_User_IO_Result_t (*NN_OutputSetter_TypeDef)(uint32_t num, void *buffer, uint32_t 
 412:../../Middlewares/AI_Runtime/Npu/ll_aton/ll_aton_NN_interface.h ****   typedef void *(*NN_OutputGetter_TypeDef)(uint32_t num);
 413:../../Middlewares/AI_Runtime/Npu/ll_aton/ll_aton_NN_interface.h ****   typedef const EpochBlock_ItemTypeDef *(*NN_EpochBlockItems_TypeDef)(void);
 414:../../Middlewares/AI_Runtime/Npu/ll_aton/ll_aton_NN_interface.h ****   typedef const LL_Buffer_InfoTypeDef *(*NN_Buffers_Info_TypeDef)(void);
 415:../../Middlewares/AI_Runtime/Npu/ll_aton/ll_aton_NN_interface.h **** 
 416:../../Middlewares/AI_Runtime/Npu/ll_aton/ll_aton_NN_interface.h ****   typedef void (*TraceRuntime_FuncPtr_t)(LL_ATON_RT_Callbacktype_t ctype);
 417:../../Middlewares/AI_Runtime/Npu/ll_aton/ll_aton_NN_interface.h **** 
 418:../../Middlewares/AI_Runtime/Npu/ll_aton/ll_aton_NN_interface.h ****   struct __nn_instance_struct; // forward declaration
 419:../../Middlewares/AI_Runtime/Npu/ll_aton/ll_aton_NN_interface.h ****   typedef struct __nn_instance_struct NN_Instance_TypeDef;
 420:../../Middlewares/AI_Runtime/Npu/ll_aton/ll_aton_NN_interface.h ****   typedef void (*TraceEpochBlock_FuncPtr_t)(LL_ATON_RT_Callbacktype_t ctype, const NN_Instance_Type
 421:../../Middlewares/AI_Runtime/Npu/ll_aton/ll_aton_NN_interface.h ****                                             const EpochBlock_ItemTypeDef *epoch_block);
 422:../../Middlewares/AI_Runtime/Npu/ll_aton/ll_aton_NN_interface.h **** 
 423:../../Middlewares/AI_Runtime/Npu/ll_aton/ll_aton_NN_interface.h ****   typedef struct
 424:../../Middlewares/AI_Runtime/Npu/ll_aton/ll_aton_NN_interface.h ****   {
 425:../../Middlewares/AI_Runtime/Npu/ll_aton/ll_aton_NN_interface.h ****     const char *network_name;
 426:../../Middlewares/AI_Runtime/Npu/ll_aton/ll_aton_NN_interface.h ****     NN_EC_Hook_TypeDef ec_network_init;
 427:../../Middlewares/AI_Runtime/Npu/ll_aton/ll_aton_NN_interface.h ****     NN_EC_Hook_TypeDef ec_inference_init;
 428:../../Middlewares/AI_Runtime/Npu/ll_aton/ll_aton_NN_interface.h ****     NN_InputSetter_TypeDef input_setter;
 429:../../Middlewares/AI_Runtime/Npu/ll_aton/ll_aton_NN_interface.h ****     NN_InputGetter_TypeDef input_getter;
 430:../../Middlewares/AI_Runtime/Npu/ll_aton/ll_aton_NN_interface.h ****     NN_OutputSetter_TypeDef output_setter;
 431:../../Middlewares/AI_Runtime/Npu/ll_aton/ll_aton_NN_interface.h ****     NN_OutputGetter_TypeDef output_getter;
 432:../../Middlewares/AI_Runtime/Npu/ll_aton/ll_aton_NN_interface.h ****     NN_EpochBlockItems_TypeDef epoch_block_items;
 433:../../Middlewares/AI_Runtime/Npu/ll_aton/ll_aton_NN_interface.h ****     NN_Buffers_Info_TypeDef output_buffers_info;
 434:../../Middlewares/AI_Runtime/Npu/ll_aton/ll_aton_NN_interface.h ****     NN_Buffers_Info_TypeDef input_buffers_info;
 435:../../Middlewares/AI_Runtime/Npu/ll_aton/ll_aton_NN_interface.h ****     NN_Buffers_Info_TypeDef internal_buffers_info;
 436:../../Middlewares/AI_Runtime/Npu/ll_aton/ll_aton_NN_interface.h ****   } NN_Interface_TypeDef;
 437:../../Middlewares/AI_Runtime/Npu/ll_aton/ll_aton_NN_interface.h **** 
 438:../../Middlewares/AI_Runtime/Npu/ll_aton/ll_aton_NN_interface.h ****   typedef struct
 439:../../Middlewares/AI_Runtime/Npu/ll_aton/ll_aton_NN_interface.h ****   {
 440:../../Middlewares/AI_Runtime/Npu/ll_aton/ll_aton_NN_interface.h ****     const EpochBlock_ItemTypeDef *volatile current_epoch_block; // pointer to current epoch block
 441:../../Middlewares/AI_Runtime/Npu/ll_aton/ll_aton_NN_interface.h ****     const EpochBlock_ItemTypeDef *volatile first_epoch_block;   // pointer to first epoch block in 
 442:../../Middlewares/AI_Runtime/Npu/ll_aton/ll_aton_NN_interface.h ****     const EpochBlock_ItemTypeDef *volatile next_epoch_block;    // pointer to epoch block to be ins
 443:../../Middlewares/AI_Runtime/Npu/ll_aton/ll_aton_NN_interface.h **** 
 444:../../Middlewares/AI_Runtime/Npu/ll_aton/ll_aton_NN_interface.h ****     const EpochBlock_ItemTypeDef *volatile saved_current_epoch_block; // pointer to saved current e
 445:../../Middlewares/AI_Runtime/Npu/ll_aton/ll_aton_NN_interface.h ****     const EpochBlock_ItemTypeDef
ARM GAS  C:\Users\Antonio\AppData\Local\Temp\ccCbPHYL.s 			page 18


 446:../../Middlewares/AI_Runtime/Npu/ll_aton/ll_aton_NN_interface.h ****         *volatile saved_first_epoch_block; // pointer to saved first epoch block in current epoch l
 447:../../Middlewares/AI_Runtime/Npu/ll_aton/ll_aton_NN_interface.h **** 
 448:../../Middlewares/AI_Runtime/Npu/ll_aton/ll_aton_NN_interface.h ****     bool inference_started; // inference has been started
 449:../../Middlewares/AI_Runtime/Npu/ll_aton/ll_aton_NN_interface.h **** 
 450:../../Middlewares/AI_Runtime/Npu/ll_aton/ll_aton_NN_interface.h **** #if (LL_ATON_RT_MODE == LL_ATON_RT_ASYNC)
 451:../../Middlewares/AI_Runtime/Npu/ll_aton/ll_aton_NN_interface.h ****     volatile uint32_t triggered_events;        // currently triggered events/IRQs in current epoch
 452:../../Middlewares/AI_Runtime/Npu/ll_aton/ll_aton_NN_interface.h ****     volatile bool current_epoch_block_started; // has current epoch block already been started
 453:../../Middlewares/AI_Runtime/Npu/ll_aton/ll_aton_NN_interface.h **** #endif                                         // (LL_ATON_RT_MODE == LL_ATON_RT_ASYNC)
 454:../../Middlewares/AI_Runtime/Npu/ll_aton/ll_aton_NN_interface.h **** 
 455:../../Middlewares/AI_Runtime/Npu/ll_aton/ll_aton_NN_interface.h **** #ifndef NDEBUG
 456:../../Middlewares/AI_Runtime/Npu/ll_aton/ll_aton_NN_interface.h ****     volatile uint32_t
 457:../../Middlewares/AI_Runtime/Npu/ll_aton/ll_aton_NN_interface.h ****         nr_of_epoch_blocks; // number of epoch blocks in network (includes also terminating empty e
 458:../../Middlewares/AI_Runtime/Npu/ll_aton/ll_aton_NN_interface.h ****     volatile uint32_t saved_nr_of_epoch_blocks; // number of epoch blocks in saved network (include
 459:../../Middlewares/AI_Runtime/Npu/ll_aton/ll_aton_NN_interface.h ****                                                 // empty epoch block)
 460:../../Middlewares/AI_Runtime/Npu/ll_aton/ll_aton_NN_interface.h **** #endif                                          // NDEBUG
 461:../../Middlewares/AI_Runtime/Npu/ll_aton/ll_aton_NN_interface.h **** 
 462:../../Middlewares/AI_Runtime/Npu/ll_aton/ll_aton_NN_interface.h ****     TraceEpochBlock_FuncPtr_t epoch_callback_function; // epoch callback function
 463:../../Middlewares/AI_Runtime/Npu/ll_aton/ll_aton_NN_interface.h **** 
 464:../../Middlewares/AI_Runtime/Npu/ll_aton/ll_aton_NN_interface.h **** #if defined(LL_ATON_RT_RELOC)
 465:../../Middlewares/AI_Runtime/Npu/ll_aton/ll_aton_NN_interface.h ****     uint32_t inst_reloc;
 466:../../Middlewares/AI_Runtime/Npu/ll_aton/ll_aton_NN_interface.h **** #endif
 467:../../Middlewares/AI_Runtime/Npu/ll_aton/ll_aton_NN_interface.h **** 
 468:../../Middlewares/AI_Runtime/Npu/ll_aton/ll_aton_NN_interface.h ****   } NN_Execution_State_TypeDef;
 469:../../Middlewares/AI_Runtime/Npu/ll_aton/ll_aton_NN_interface.h **** 
 470:../../Middlewares/AI_Runtime/Npu/ll_aton/ll_aton_NN_interface.h ****   struct __nn_instance_struct
 471:../../Middlewares/AI_Runtime/Npu/ll_aton/ll_aton_NN_interface.h ****   {
 472:../../Middlewares/AI_Runtime/Npu/ll_aton/ll_aton_NN_interface.h ****     const NN_Interface_TypeDef *network;
 473:../../Middlewares/AI_Runtime/Npu/ll_aton/ll_aton_NN_interface.h ****     NN_Execution_State_TypeDef exec_state;
 474:../../Middlewares/AI_Runtime/Npu/ll_aton/ll_aton_NN_interface.h ****   };
 475:../../Middlewares/AI_Runtime/Npu/ll_aton/ll_aton_NN_interface.h **** 
 476:../../Middlewares/AI_Runtime/Npu/ll_aton/ll_aton_NN_interface.h **** /**
 477:../../Middlewares/AI_Runtime/Npu/ll_aton/ll_aton_NN_interface.h ****  * @brief Declare and fill a constant named NN interface object
 478:../../Middlewares/AI_Runtime/Npu/ll_aton/ll_aton_NN_interface.h ****  * @param nn_if_name name of the network as provided by option `--network-name`
 479:../../Middlewares/AI_Runtime/Npu/ll_aton/ll_aton_NN_interface.h ****  */
 480:../../Middlewares/AI_Runtime/Npu/ll_aton/ll_aton_NN_interface.h **** #define LL_ATON_DECLARE_NAMED_NN_INTERFACE(nn_if_name)                                             
 481:../../Middlewares/AI_Runtime/Npu/ll_aton/ll_aton_NN_interface.h ****   LL_ATON_DECLARE_NAMED_NN_PROTOS(nn_if_name);                                                     
 482:../../Middlewares/AI_Runtime/Npu/ll_aton/ll_aton_NN_interface.h ****                                                                                                    
 483:../../Middlewares/AI_Runtime/Npu/ll_aton/ll_aton_NN_interface.h ****   static const NN_Interface_TypeDef NN_Interface_##nn_if_name = {                                  
 484:../../Middlewares/AI_Runtime/Npu/ll_aton/ll_aton_NN_interface.h ****       .network_name = #nn_if_name,                                                                 
 485:../../Middlewares/AI_Runtime/Npu/ll_aton/ll_aton_NN_interface.h ****       .ec_network_init = &LL_ATON_EC_Network_Init_##nn_if_name,                                    
 486:../../Middlewares/AI_Runtime/Npu/ll_aton/ll_aton_NN_interface.h ****       .ec_inference_init = &LL_ATON_EC_Inference_Init_##nn_if_name,                                
 487:../../Middlewares/AI_Runtime/Npu/ll_aton/ll_aton_NN_interface.h ****       .input_setter = &LL_ATON_Set_User_Input_Buffer_##nn_if_name,                                 
 488:../../Middlewares/AI_Runtime/Npu/ll_aton/ll_aton_NN_interface.h ****       .input_getter = &LL_ATON_Get_User_Input_Buffer_##nn_if_name,                                 
 489:../../Middlewares/AI_Runtime/Npu/ll_aton/ll_aton_NN_interface.h ****       .output_setter = &LL_ATON_Set_User_Output_Buffer_##nn_if_name,                               
 490:../../Middlewares/AI_Runtime/Npu/ll_aton/ll_aton_NN_interface.h ****       .output_getter = &LL_ATON_Get_User_Output_Buffer_##nn_if_name,                               
 491:../../Middlewares/AI_Runtime/Npu/ll_aton/ll_aton_NN_interface.h ****       .epoch_block_items = &LL_ATON_EpochBlockItems_##nn_if_name,                                  
 492:../../Middlewares/AI_Runtime/Npu/ll_aton/ll_aton_NN_interface.h ****       .output_buffers_info = &LL_ATON_Output_Buffers_Info_##nn_if_name,                            
 493:../../Middlewares/AI_Runtime/Npu/ll_aton/ll_aton_NN_interface.h ****       .input_buffers_info = &LL_ATON_Input_Buffers_Info_##nn_if_name,                              
 494:../../Middlewares/AI_Runtime/Npu/ll_aton/ll_aton_NN_interface.h ****       .internal_buffers_info = &LL_ATON_Internal_Buffers_Info_##nn_if_name}
 495:../../Middlewares/AI_Runtime/Npu/ll_aton/ll_aton_NN_interface.h **** 
 496:../../Middlewares/AI_Runtime/Npu/ll_aton/ll_aton_NN_interface.h **** /**
 497:../../Middlewares/AI_Runtime/Npu/ll_aton/ll_aton_NN_interface.h ****  * @brief Declare and fill a non-constant named NN execution instance
 498:../../Middlewares/AI_Runtime/Npu/ll_aton/ll_aton_NN_interface.h ****  * @param nn_exec_name typically name of the network as provided by option `--network-name`
 499:../../Middlewares/AI_Runtime/Npu/ll_aton/ll_aton_NN_interface.h ****  * @param _nn_if_name pointer to network interface
 500:../../Middlewares/AI_Runtime/Npu/ll_aton/ll_aton_NN_interface.h ****  */
 501:../../Middlewares/AI_Runtime/Npu/ll_aton/ll_aton_NN_interface.h **** #define LL_ATON_DECLARE_NAMED_NN_INSTANCE(nn_exec_name, _nn_if_name)                               
 502:../../Middlewares/AI_Runtime/Npu/ll_aton/ll_aton_NN_interface.h ****   static NN_Instance_TypeDef NN_Instance_##nn_exec_name = {.network = _nn_if_name, .exec_state = {0
ARM GAS  C:\Users\Antonio\AppData\Local\Temp\ccCbPHYL.s 			page 19


 503:../../Middlewares/AI_Runtime/Npu/ll_aton/ll_aton_NN_interface.h **** 
 504:../../Middlewares/AI_Runtime/Npu/ll_aton/ll_aton_NN_interface.h **** /**
 505:../../Middlewares/AI_Runtime/Npu/ll_aton/ll_aton_NN_interface.h ****  * @brief Declare and fill a non-constant named NN execution instance and constant network interfac
 506:../../Middlewares/AI_Runtime/Npu/ll_aton/ll_aton_NN_interface.h ****  *        which get linked together (by this macro).
 507:../../Middlewares/AI_Runtime/Npu/ll_aton/ll_aton_NN_interface.h ****  * @param nn_name name of the network as provided by option `--network-name`
 508:../../Middlewares/AI_Runtime/Npu/ll_aton/ll_aton_NN_interface.h ****  */
 509:../../Middlewares/AI_Runtime/Npu/ll_aton/ll_aton_NN_interface.h **** #define LL_ATON_DECLARE_NAMED_NN_INSTANCE_AND_INTERFACE(nn_name)                                   
 510:../../Middlewares/AI_Runtime/Npu/ll_aton/ll_aton_NN_interface.h ****   LL_ATON_DECLARE_NAMED_NN_INTERFACE(nn_name);                                                     
 511:../../Middlewares/AI_Runtime/Npu/ll_aton/ll_aton_NN_interface.h ****   LL_ATON_DECLARE_NAMED_NN_INSTANCE(nn_name, &NN_Interface_##nn_name);
 512:../../Middlewares/AI_Runtime/Npu/ll_aton/ll_aton_NN_interface.h **** 
 513:../../Middlewares/AI_Runtime/Npu/ll_aton/ll_aton_NN_interface.h ****   /**
 514:../../Middlewares/AI_Runtime/Npu/ll_aton/ll_aton_NN_interface.h ****    * @}
 515:../../Middlewares/AI_Runtime/Npu/ll_aton/ll_aton_NN_interface.h ****    */
 516:../../Middlewares/AI_Runtime/Npu/ll_aton/ll_aton_NN_interface.h **** 
 517:../../Middlewares/AI_Runtime/Npu/ll_aton/ll_aton_NN_interface.h ****   static inline bool EpochBlock_IsLastEpochBlock(const EpochBlock_ItemTypeDef *eb)
 146              		.loc 2 517 22 view .LVU50
 147              	.LBB111:
 518:../../Middlewares/AI_Runtime/Npu/ll_aton/ll_aton_NN_interface.h ****   {
 519:../../Middlewares/AI_Runtime/Npu/ll_aton/ll_aton_NN_interface.h ****     return ((eb->flags & EpochBlock_Flags_last_eb) != 0);
 148              		.loc 2 519 5 view .LVU51
 149              		.loc 2 519 5 is_stmt 0 view .LVU52
 150              	.LBE111:
 151              	.LBE110:
  84:../../Middlewares/AI_Runtime/Npu/ll_aton/ll_aton_runtime.c ****     { // Note: also terminating empty epoch block is counted
 152              		.loc 1 84 17 discriminator 1 view .LVU53
 153 0040 198A     		ldrh	r1, [r3, #16]
 154 0042 0907     		lsls	r1, r1, #28
 155 0044 FAD5     		bpl	.L7
  84:../../Middlewares/AI_Runtime/Npu/ll_aton/ll_aton_runtime.c ****     { // Note: also terminating empty epoch block is counted
 156              		.loc 1 84 17 discriminator 1 view .LVU54
 157 0046 EBE7     		b	.L6
 158              	.LVL9:
 159              	.L8:
  84:../../Middlewares/AI_Runtime/Npu/ll_aton/ll_aton_runtime.c ****     { // Note: also terminating empty epoch block is counted
 160              		.loc 1 84 12 view .LVU55
 161 0048 0122     		movs	r2, #1
 162 004a F9E7     		b	.L5
 163              	.LVL10:
 164              	.L1:
  84:../../Middlewares/AI_Runtime/Npu/ll_aton/ll_aton_runtime.c ****     { // Note: also terminating empty epoch block is counted
 165              		.loc 1 84 12 view .LVU56
 166              	.LBE112:
 167              	.LBE113:
 168              		.loc 1 356 1 view .LVU57
 169 004c 10BD     		pop	{r4, pc}
 170              		.loc 1 356 1 view .LVU58
 171              		.cfi_endproc
 172              	.LFE4843:
 174              		.section	.rodata.__ll_clear_aton_owner.str1.1,"aMS",%progbits,1
 175              	.LC0:
 176 0000 63757272 		.ascii	"current_owner == __ll_current_aton_ip_owner\000"
 176      656E745F 
 176      6F776E65 
 176      72203D3D 
 176      205F5F6C 
 177              	.LC1:
 178 002c 2E2E2F2E 		.ascii	"../../Middlewares/AI_Runtime/Npu/ll_aton/ll_aton_ru"
ARM GAS  C:\Users\Antonio\AppData\Local\Temp\ccCbPHYL.s 			page 20


 178      2E2F4D69 
 178      64646C65 
 178      77617265 
 178      732F4149 
 179 005f 6E74696D 		.ascii	"ntime.h\000"
 179      652E6800 
 180              	.LC2:
 181 0067 5F5F6C6C 		.ascii	"__ll_current_wait_mask == 0\000"
 181      5F637572 
 181      72656E74 
 181      5F776169 
 181      745F6D61 
 182              		.section	.text.__ll_clear_aton_owner,"ax",%progbits
 183              		.align	1
 184              		.syntax unified
 185              		.thumb
 186              		.thumb_func
 188              	__ll_clear_aton_owner:
 189              	.LVL11:
 190              	.LFB4828:
 191              		.file 3 "../../Middlewares/AI_Runtime/Npu/ll_aton/ll_aton_runtime.h"
   1:../../Middlewares/AI_Runtime/Npu/ll_aton/ll_aton_runtime.h **** /**
   2:../../Middlewares/AI_Runtime/Npu/ll_aton/ll_aton_runtime.h ****  ******************************************************************************
   3:../../Middlewares/AI_Runtime/Npu/ll_aton/ll_aton_runtime.h ****  * @file    ll_aton_runtime.h
   4:../../Middlewares/AI_Runtime/Npu/ll_aton/ll_aton_runtime.h ****  * @author  SRA Artificial Intelligence & Embedded Architectures
   5:../../Middlewares/AI_Runtime/Npu/ll_aton/ll_aton_runtime.h ****  * @brief   Header file of ATON LL runtime.
   6:../../Middlewares/AI_Runtime/Npu/ll_aton/ll_aton_runtime.h ****  * @note    ATON LL runtime currently assumes a single network run
   7:../../Middlewares/AI_Runtime/Npu/ll_aton/ll_aton_runtime.h ****  ******************************************************************************
   8:../../Middlewares/AI_Runtime/Npu/ll_aton/ll_aton_runtime.h ****  * @attention
   9:../../Middlewares/AI_Runtime/Npu/ll_aton/ll_aton_runtime.h ****  *
  10:../../Middlewares/AI_Runtime/Npu/ll_aton/ll_aton_runtime.h ****  * Copyright (c) 2024 STMicroelectronics.
  11:../../Middlewares/AI_Runtime/Npu/ll_aton/ll_aton_runtime.h ****  * All rights reserved.
  12:../../Middlewares/AI_Runtime/Npu/ll_aton/ll_aton_runtime.h ****  *
  13:../../Middlewares/AI_Runtime/Npu/ll_aton/ll_aton_runtime.h ****  * This software is licensed under terms that can be found in the LICENSE file
  14:../../Middlewares/AI_Runtime/Npu/ll_aton/ll_aton_runtime.h ****  * in the root directory of this software component.
  15:../../Middlewares/AI_Runtime/Npu/ll_aton/ll_aton_runtime.h ****  * If no LICENSE file comes with this software, it is provided AS-IS.
  16:../../Middlewares/AI_Runtime/Npu/ll_aton/ll_aton_runtime.h ****  *
  17:../../Middlewares/AI_Runtime/Npu/ll_aton/ll_aton_runtime.h ****  ******************************************************************************
  18:../../Middlewares/AI_Runtime/Npu/ll_aton/ll_aton_runtime.h ****  */
  19:../../Middlewares/AI_Runtime/Npu/ll_aton/ll_aton_runtime.h **** 
  20:../../Middlewares/AI_Runtime/Npu/ll_aton/ll_aton_runtime.h **** #ifndef __LL_ATON_RUNTIME_H
  21:../../Middlewares/AI_Runtime/Npu/ll_aton/ll_aton_runtime.h **** #define __LL_ATON_RUNTIME_H
  22:../../Middlewares/AI_Runtime/Npu/ll_aton/ll_aton_runtime.h **** 
  23:../../Middlewares/AI_Runtime/Npu/ll_aton/ll_aton_runtime.h **** #ifdef __cplusplus
  24:../../Middlewares/AI_Runtime/Npu/ll_aton/ll_aton_runtime.h **** extern "C"
  25:../../Middlewares/AI_Runtime/Npu/ll_aton/ll_aton_runtime.h **** {
  26:../../Middlewares/AI_Runtime/Npu/ll_aton/ll_aton_runtime.h **** #endif
  27:../../Middlewares/AI_Runtime/Npu/ll_aton/ll_aton_runtime.h **** 
  28:../../Middlewares/AI_Runtime/Npu/ll_aton/ll_aton_runtime.h **** #include <assert.h>
  29:../../Middlewares/AI_Runtime/Npu/ll_aton/ll_aton_runtime.h **** #include <stdint.h>
  30:../../Middlewares/AI_Runtime/Npu/ll_aton/ll_aton_runtime.h **** #include <stdio.h>
  31:../../Middlewares/AI_Runtime/Npu/ll_aton/ll_aton_runtime.h **** #include <stdlib.h>
  32:../../Middlewares/AI_Runtime/Npu/ll_aton/ll_aton_runtime.h **** 
  33:../../Middlewares/AI_Runtime/Npu/ll_aton/ll_aton_runtime.h **** #include "ll_aton_config.h"
  34:../../Middlewares/AI_Runtime/Npu/ll_aton/ll_aton_runtime.h **** 
  35:../../Middlewares/AI_Runtime/Npu/ll_aton/ll_aton_runtime.h **** #include "ll_aton_NN_interface.h"
  36:../../Middlewares/AI_Runtime/Npu/ll_aton/ll_aton_runtime.h **** #include "ll_aton_osal.h"
ARM GAS  C:\Users\Antonio\AppData\Local\Temp\ccCbPHYL.s 			page 21


  37:../../Middlewares/AI_Runtime/Npu/ll_aton/ll_aton_runtime.h **** #include "ll_aton_platform.h"
  38:../../Middlewares/AI_Runtime/Npu/ll_aton/ll_aton_runtime.h **** #include "ll_aton_util.h"
  39:../../Middlewares/AI_Runtime/Npu/ll_aton/ll_aton_runtime.h **** 
  40:../../Middlewares/AI_Runtime/Npu/ll_aton/ll_aton_runtime.h ****   /*** Types ***/
  41:../../Middlewares/AI_Runtime/Npu/ll_aton/ll_aton_runtime.h **** 
  42:../../Middlewares/AI_Runtime/Npu/ll_aton/ll_aton_runtime.h ****   typedef EpochBlock_ItemTypeDef LL_ATON_RT_EpochBlockItem_t;
  43:../../Middlewares/AI_Runtime/Npu/ll_aton/ll_aton_runtime.h **** 
  44:../../Middlewares/AI_Runtime/Npu/ll_aton/ll_aton_runtime.h ****   /*** Helper Functions ***/
  45:../../Middlewares/AI_Runtime/Npu/ll_aton/ll_aton_runtime.h **** 
  46:../../Middlewares/AI_Runtime/Npu/ll_aton/ll_aton_runtime.h ****   static inline void __ll_set_aton_owner(NN_Instance_TypeDef *new_owner)
  47:../../Middlewares/AI_Runtime/Npu/ll_aton/ll_aton_runtime.h ****   {
  48:../../Middlewares/AI_Runtime/Npu/ll_aton/ll_aton_runtime.h ****     extern NN_Instance_TypeDef *volatile __ll_current_aton_ip_owner;
  49:../../Middlewares/AI_Runtime/Npu/ll_aton/ll_aton_runtime.h ****     LL_ATON_ASSERT(new_owner != __ll_current_aton_ip_owner);
  50:../../Middlewares/AI_Runtime/Npu/ll_aton/ll_aton_runtime.h **** 
  51:../../Middlewares/AI_Runtime/Npu/ll_aton/ll_aton_runtime.h ****     LL_ATON_OSAL_LOCK_ATON();
  52:../../Middlewares/AI_Runtime/Npu/ll_aton/ll_aton_runtime.h **** 
  53:../../Middlewares/AI_Runtime/Npu/ll_aton/ll_aton_runtime.h ****     LL_ATON_ASSERT(__ll_current_aton_ip_owner == NULL);
  54:../../Middlewares/AI_Runtime/Npu/ll_aton/ll_aton_runtime.h **** 
  55:../../Middlewares/AI_Runtime/Npu/ll_aton/ll_aton_runtime.h **** #ifndef NDEBUG
  56:../../Middlewares/AI_Runtime/Npu/ll_aton/ll_aton_runtime.h ****     extern uint32_t volatile __ll_current_wait_mask;
  57:../../Middlewares/AI_Runtime/Npu/ll_aton/ll_aton_runtime.h ****     LL_ATON_ASSERT(__ll_current_wait_mask == 0);
  58:../../Middlewares/AI_Runtime/Npu/ll_aton/ll_aton_runtime.h **** #endif // NDEBUG
  59:../../Middlewares/AI_Runtime/Npu/ll_aton/ll_aton_runtime.h **** 
  60:../../Middlewares/AI_Runtime/Npu/ll_aton/ll_aton_runtime.h ****     __ll_current_aton_ip_owner = new_owner;
  61:../../Middlewares/AI_Runtime/Npu/ll_aton/ll_aton_runtime.h ****   }
  62:../../Middlewares/AI_Runtime/Npu/ll_aton/ll_aton_runtime.h **** 
  63:../../Middlewares/AI_Runtime/Npu/ll_aton/ll_aton_runtime.h ****   static inline void __ll_clear_aton_owner(NN_Instance_TypeDef *current_owner)
  64:../../Middlewares/AI_Runtime/Npu/ll_aton/ll_aton_runtime.h ****   {
 192              		.loc 3 64 3 is_stmt 1 view -0
 193              		.cfi_startproc
 194              		@ args = 0, pretend = 0, frame = 0
 195              		@ frame_needed = 0, uses_anonymous_args = 0
  65:../../Middlewares/AI_Runtime/Npu/ll_aton/ll_aton_runtime.h ****     extern NN_Instance_TypeDef *volatile __ll_current_aton_ip_owner;
 196              		.loc 3 65 5 view .LVU60
  66:../../Middlewares/AI_Runtime/Npu/ll_aton/ll_aton_runtime.h ****     LL_ATON_ASSERT(current_owner == __ll_current_aton_ip_owner);
 197              		.loc 3 66 5 view .LVU61
  64:../../Middlewares/AI_Runtime/Npu/ll_aton/ll_aton_runtime.h ****     extern NN_Instance_TypeDef *volatile __ll_current_aton_ip_owner;
 198              		.loc 3 64 3 is_stmt 0 view .LVU62
 199 0000 08B5     		push	{r3, lr}
 200              		.cfi_def_cfa_offset 8
 201              		.cfi_offset 3, -8
 202              		.cfi_offset 14, -4
 203              		.loc 3 66 5 view .LVU63
 204 0002 094B     		ldr	r3, .L19
 205 0004 1A68     		ldr	r2, [r3]
 206 0006 8242     		cmp	r2, r0
 207 0008 05D0     		beq	.L16
 208              		.loc 3 66 5 discriminator 1 view .LVU64
 209 000a 4221     		movs	r1, #66
 210 000c 074B     		ldr	r3, .L19+4
 211 000e 084A     		ldr	r2, .L19+8
 212              	.L18:
 213              	.LBB116:
 214              	.LBB117:
  67:../../Middlewares/AI_Runtime/Npu/ll_aton/ll_aton_runtime.h **** 
  68:../../Middlewares/AI_Runtime/Npu/ll_aton/ll_aton_runtime.h **** #ifndef NDEBUG
  69:../../Middlewares/AI_Runtime/Npu/ll_aton/ll_aton_runtime.h ****     extern uint32_t volatile __ll_current_wait_mask;
ARM GAS  C:\Users\Antonio\AppData\Local\Temp\ccCbPHYL.s 			page 22


  70:../../Middlewares/AI_Runtime/Npu/ll_aton/ll_aton_runtime.h ****     LL_ATON_ASSERT(__ll_current_wait_mask == 0);
 215              		.loc 3 70 5 discriminator 1 view .LVU65
 216 0010 0848     		ldr	r0, .L19+12
 217              	.LVL12:
 218              		.loc 3 70 5 discriminator 1 view .LVU66
 219 0012 FFF7FEFF 		bl	__assert_func
 220              	.LVL13:
 221              	.L16:
 222              		.loc 3 70 5 discriminator 1 view .LVU67
 223              	.LBE117:
 224              	.LBE116:
  69:../../Middlewares/AI_Runtime/Npu/ll_aton/ll_aton_runtime.h ****     LL_ATON_ASSERT(__ll_current_wait_mask == 0);
 225              		.loc 3 69 5 is_stmt 1 view .LVU68
 226              		.loc 3 70 5 view .LVU69
 227 0016 084A     		ldr	r2, .L19+16
 228 0018 1268     		ldr	r2, [r2]
 229 001a 1AB1     		cbz	r2, .L17
 230              	.LBB119:
 231              	.LBI116:
  63:../../Middlewares/AI_Runtime/Npu/ll_aton/ll_aton_runtime.h ****   {
 232              		.loc 3 63 22 view .LVU70
 233              	.LVL14:
 234              	.LBB118:
 235              		.loc 3 70 5 is_stmt 0 discriminator 1 view .LVU71
 236 001c 4621     		movs	r1, #70
 237 001e 074B     		ldr	r3, .L19+20
 238 0020 034A     		ldr	r2, .L19+8
 239 0022 F5E7     		b	.L18
 240              	.LVL15:
 241              	.L17:
 242              		.loc 3 70 5 discriminator 1 view .LVU72
 243              	.LBE118:
 244              	.LBE119:
  71:../../Middlewares/AI_Runtime/Npu/ll_aton/ll_aton_runtime.h **** #endif // NDEBUG
  72:../../Middlewares/AI_Runtime/Npu/ll_aton/ll_aton_runtime.h **** 
  73:../../Middlewares/AI_Runtime/Npu/ll_aton/ll_aton_runtime.h ****     __ll_current_aton_ip_owner = NULL;
 245              		.loc 3 73 5 is_stmt 1 view .LVU73
 246              		.loc 3 73 32 is_stmt 0 view .LVU74
 247 0024 1A60     		str	r2, [r3]
  74:../../Middlewares/AI_Runtime/Npu/ll_aton/ll_aton_runtime.h ****     LL_ATON_OSAL_UNLOCK_ATON();
 248              		.loc 3 74 31 is_stmt 1 view .LVU75
  75:../../Middlewares/AI_Runtime/Npu/ll_aton/ll_aton_runtime.h ****   }
 249              		.loc 3 75 3 is_stmt 0 view .LVU76
 250 0026 08BD     		pop	{r3, pc}
 251              	.L20:
 252              		.align	2
 253              	.L19:
 254 0028 00000000 		.word	__ll_current_aton_ip_owner
 255 002c 00000000 		.word	.LC0
 256 0030 00000000 		.word	__func__.13
 257 0034 2C000000 		.word	.LC1
 258 0038 00000000 		.word	__ll_current_wait_mask
 259 003c 67000000 		.word	.LC2
 260              		.cfi_endproc
 261              	.LFE4828:
 263              		.section	.rodata.__LL_ATON_RT_SetWaitMask.str1.1,"aMS",%progbits,1
 264              	.LC3:
ARM GAS  C:\Users\Antonio\AppData\Local\Temp\ccCbPHYL.s 			page 23


 265 0000 5F5F6C6C 		.ascii	"__ll_current_aton_ip_owner != ((void *)0)\000"
 265      5F637572 
 265      72656E74 
 265      5F61746F 
 265      6E5F6970 
 266              		.section	.text.__LL_ATON_RT_SetWaitMask,"ax",%progbits
 267              		.align	1
 268              		.syntax unified
 269              		.thumb
 270              		.thumb_func
 272              	__LL_ATON_RT_SetWaitMask:
 273              	.LVL16:
 274              	.LFB4832:
  76:../../Middlewares/AI_Runtime/Npu/ll_aton/ll_aton_runtime.h **** 
  77:../../Middlewares/AI_Runtime/Npu/ll_aton/ll_aton_runtime.h ****   /**
  78:../../Middlewares/AI_Runtime/Npu/ll_aton/ll_aton_runtime.h ****    *  Note: the following function may only be called at the beginning of
  79:../../Middlewares/AI_Runtime/Npu/ll_aton/ll_aton_runtime.h ****    *       `LL_ATON_Start_EpochBlock<n>()` functions, assuming also that at that point
  80:../../Middlewares/AI_Runtime/Npu/ll_aton/ll_aton_runtime.h ****    *       no streaming engine interrupts might trigger (anymore)!
  81:../../Middlewares/AI_Runtime/Npu/ll_aton/ll_aton_runtime.h ****    **/
  82:../../Middlewares/AI_Runtime/Npu/ll_aton/ll_aton_runtime.h ****   static inline void __LL_ATON_RT_Start_AtoNN_Epoch(NN_Instance_TypeDef *nn_instance)
  83:../../Middlewares/AI_Runtime/Npu/ll_aton/ll_aton_runtime.h ****   {
  84:../../Middlewares/AI_Runtime/Npu/ll_aton/ll_aton_runtime.h ****     LL_ATON_ASSERT(nn_instance != NULL);
  85:../../Middlewares/AI_Runtime/Npu/ll_aton/ll_aton_runtime.h **** #if (LL_ATON_RT_MODE == LL_ATON_RT_ASYNC)
  86:../../Middlewares/AI_Runtime/Npu/ll_aton/ll_aton_runtime.h ****     LL_ATON_ASSERT(nn_instance->exec_state.triggered_events ==
  87:../../Middlewares/AI_Runtime/Npu/ll_aton/ll_aton_runtime.h ****                    0x0); // with the removal of parallel SW/HW epochs execution all triggered event
  88:../../Middlewares/AI_Runtime/Npu/ll_aton/ll_aton_runtime.h ****                          // cleared at this point in time!
  89:../../Middlewares/AI_Runtime/Npu/ll_aton/ll_aton_runtime.h **** #endif
  90:../../Middlewares/AI_Runtime/Npu/ll_aton/ll_aton_runtime.h ****   }
  91:../../Middlewares/AI_Runtime/Npu/ll_aton/ll_aton_runtime.h **** 
  92:../../Middlewares/AI_Runtime/Npu/ll_aton/ll_aton_runtime.h ****   static inline uint32_t __LL_ATON_RT_GetCurrEpochBlockIndex(NN_Instance_TypeDef *nn_instance)
  93:../../Middlewares/AI_Runtime/Npu/ll_aton/ll_aton_runtime.h ****   {
  94:../../Middlewares/AI_Runtime/Npu/ll_aton/ll_aton_runtime.h ****     const LL_ATON_RT_EpochBlockItem_t *_current_epoch_block = nn_instance->exec_state.current_epoch
  95:../../Middlewares/AI_Runtime/Npu/ll_aton/ll_aton_runtime.h ****     const LL_ATON_RT_EpochBlockItem_t *_first_epoch_block = nn_instance->exec_state.first_epoch_blo
  96:../../Middlewares/AI_Runtime/Npu/ll_aton/ll_aton_runtime.h ****     LL_ATON_ASSERT(_first_epoch_block <= _current_epoch_block); // should never happen
  97:../../Middlewares/AI_Runtime/Npu/ll_aton/ll_aton_runtime.h **** 
  98:../../Middlewares/AI_Runtime/Npu/ll_aton/ll_aton_runtime.h ****     return (_current_epoch_block - _first_epoch_block);
  99:../../Middlewares/AI_Runtime/Npu/ll_aton/ll_aton_runtime.h ****   }
 100:../../Middlewares/AI_Runtime/Npu/ll_aton/ll_aton_runtime.h **** 
 101:../../Middlewares/AI_Runtime/Npu/ll_aton/ll_aton_runtime.h ****   static inline void __LL_ATON_RT_SetCurrentEpochBlock(int32_t index, NN_Instance_TypeDef *nn_insta
 102:../../Middlewares/AI_Runtime/Npu/ll_aton/ll_aton_runtime.h ****   {
 103:../../Middlewares/AI_Runtime/Npu/ll_aton/ll_aton_runtime.h **** #ifndef NDEBUG
 104:../../Middlewares/AI_Runtime/Npu/ll_aton/ll_aton_runtime.h ****     /* should never happen (assumes that a `nn_instance->exec_state.current_epoch_block++` will be
 105:../../Middlewares/AI_Runtime/Npu/ll_aton/ll_aton_runtime.h ****        performed by the runtime immediately afterwards) */
 106:../../Middlewares/AI_Runtime/Npu/ll_aton/ll_aton_runtime.h ****     LL_ATON_ASSERT(index < (int32_t)(nn_instance->exec_state.nr_of_epoch_blocks - 1));
 107:../../Middlewares/AI_Runtime/Npu/ll_aton/ll_aton_runtime.h **** #endif
 108:../../Middlewares/AI_Runtime/Npu/ll_aton/ll_aton_runtime.h **** 
 109:../../Middlewares/AI_Runtime/Npu/ll_aton/ll_aton_runtime.h ****     nn_instance->exec_state.current_epoch_block = &nn_instance->exec_state.first_epoch_block[index]
 110:../../Middlewares/AI_Runtime/Npu/ll_aton/ll_aton_runtime.h ****   }
 111:../../Middlewares/AI_Runtime/Npu/ll_aton/ll_aton_runtime.h **** 
 112:../../Middlewares/AI_Runtime/Npu/ll_aton/ll_aton_runtime.h ****   /* set wait mask(s) in interrupt controller */
 113:../../Middlewares/AI_Runtime/Npu/ll_aton/ll_aton_runtime.h ****   static inline void __LL_ATON_RT_SetWaitMask(uint32_t wait_mask)
 114:../../Middlewares/AI_Runtime/Npu/ll_aton/ll_aton_runtime.h ****   {
 275              		.loc 3 114 3 is_stmt 1 view -0
 276              		.cfi_startproc
 277              		@ args = 0, pretend = 0, frame = 0
 278              		@ frame_needed = 0, uses_anonymous_args = 0
 115:../../Middlewares/AI_Runtime/Npu/ll_aton/ll_aton_runtime.h **** #ifndef NDEBUG
ARM GAS  C:\Users\Antonio\AppData\Local\Temp\ccCbPHYL.s 			page 24


 116:../../Middlewares/AI_Runtime/Npu/ll_aton/ll_aton_runtime.h ****     extern NN_Instance_TypeDef *volatile __ll_current_aton_ip_owner;
 279              		.loc 3 116 5 view .LVU78
 117:../../Middlewares/AI_Runtime/Npu/ll_aton/ll_aton_runtime.h ****     LL_ATON_ASSERT(__ll_current_aton_ip_owner != NULL);
 280              		.loc 3 117 5 view .LVU79
 114:../../Middlewares/AI_Runtime/Npu/ll_aton/ll_aton_runtime.h **** #ifndef NDEBUG
 281              		.loc 3 114 3 is_stmt 0 view .LVU80
 282 0000 08B5     		push	{r3, lr}
 283              		.cfi_def_cfa_offset 8
 284              		.cfi_offset 3, -8
 285              		.cfi_offset 14, -4
 286              		.loc 3 117 5 view .LVU81
 287 0002 074B     		ldr	r3, .L23
 288 0004 1B68     		ldr	r3, [r3]
 289 0006 2BB9     		cbnz	r3, .L22
 290              	.LBB122:
 291              	.LBI122:
 113:../../Middlewares/AI_Runtime/Npu/ll_aton/ll_aton_runtime.h ****   {
 292              		.loc 3 113 22 is_stmt 1 view .LVU82
 293              	.LVL17:
 294              	.LBB123:
 295              		.loc 3 117 5 is_stmt 0 discriminator 1 view .LVU83
 296 0008 7521     		movs	r1, #117
 297 000a 064B     		ldr	r3, .L23+4
 298 000c 064A     		ldr	r2, .L23+8
 299 000e 0748     		ldr	r0, .L23+12
 300              	.LVL18:
 301              		.loc 3 117 5 discriminator 1 view .LVU84
 302 0010 FFF7FEFF 		bl	__assert_func
 303              	.LVL19:
 304              	.L22:
 305              		.loc 3 117 5 discriminator 1 view .LVU85
 306              	.LBE123:
 307              	.LBE122:
 118:../../Middlewares/AI_Runtime/Npu/ll_aton/ll_aton_runtime.h **** 
 119:../../Middlewares/AI_Runtime/Npu/ll_aton/ll_aton_runtime.h ****     extern uint32_t volatile __ll_current_wait_mask;
 308              		.loc 3 119 5 is_stmt 1 view .LVU86
 120:../../Middlewares/AI_Runtime/Npu/ll_aton/ll_aton_runtime.h ****     __ll_current_wait_mask = wait_mask;
 309              		.loc 3 120 5 view .LVU87
 310              		.loc 3 120 28 is_stmt 0 view .LVU88
 311 0014 064B     		ldr	r3, .L23+16
 312 0016 1860     		str	r0, [r3]
 121:../../Middlewares/AI_Runtime/Npu/ll_aton/ll_aton_runtime.h **** #endif // NDEBUG
 122:../../Middlewares/AI_Runtime/Npu/ll_aton/ll_aton_runtime.h **** 
 123:../../Middlewares/AI_Runtime/Npu/ll_aton/ll_aton_runtime.h **** #if (LL_ATON_RT_MODE == LL_ATON_RT_ASYNC)
 124:../../Middlewares/AI_Runtime/Npu/ll_aton/ll_aton_runtime.h ****     wait_mask <<= ATON_STRENG_INT(0);
 313              		.loc 3 124 5 is_stmt 1 view .LVU89
 125:../../Middlewares/AI_Runtime/Npu/ll_aton/ll_aton_runtime.h **** #ifndef LL_ATON_RT_USE_IRQ_OR_MASK
 126:../../Middlewares/AI_Runtime/Npu/ll_aton/ll_aton_runtime.h ****     /* configure interrupt controller AND mask for epoch block */
 127:../../Middlewares/AI_Runtime/Npu/ll_aton/ll_aton_runtime.h ****     ATON_INTCTRL_STD_INTANDMSK_SET(~wait_mask);
 314              		.loc 3 127 5 view .LVU90
 315              		.loc 3 127 5 view .LVU91
 316              		.loc 3 127 5 view .LVU92
 317 0018 C043     		mvns	r0, r0
 318              	.LVL20:
 319              		.loc 3 127 5 is_stmt 0 view .LVU93
 320 001a 064B     		ldr	r3, .L23+20
 321              		.loc 3 127 5 view .LVU94
ARM GAS  C:\Users\Antonio\AppData\Local\Temp\ccCbPHYL.s 			page 25


 322 001c 5862     		str	r0, [r3, #36]
 323              	.LVL21:
 324              		.loc 3 127 5 is_stmt 1 view .LVU95
 325              		.loc 3 127 5 view .LVU96
 326              		.loc 3 127 5 view .LVU97
 128:../../Middlewares/AI_Runtime/Npu/ll_aton/ll_aton_runtime.h **** #else  // LL_ATON_RT_USE_IRQ_OR_MASK
 129:../../Middlewares/AI_Runtime/Npu/ll_aton/ll_aton_runtime.h ****     /* configure interrupt controller OR mask for epoch block */
 130:../../Middlewares/AI_Runtime/Npu/ll_aton/ll_aton_runtime.h ****     uint32_t val = ATON_STRENG_INT_MASK(ATON_STRENG_NUM, 0, 0); // disable all streaming engine eve
 131:../../Middlewares/AI_Runtime/Npu/ll_aton/ll_aton_runtime.h ****                                                                 // (all other events & errors are e
 132:../../Middlewares/AI_Runtime/Npu/ll_aton/ll_aton_runtime.h ****     val &= ~wait_mask;
 133:../../Middlewares/AI_Runtime/Npu/ll_aton/ll_aton_runtime.h ****     ATON_INTCTRL_STD_INTORMSK_SET(val);
 134:../../Middlewares/AI_Runtime/Npu/ll_aton/ll_aton_runtime.h **** #endif // LL_ATON_RT_USE_IRQ_OR_MASK
 135:../../Middlewares/AI_Runtime/Npu/ll_aton/ll_aton_runtime.h **** #endif // (LL_ATON_RT_MODE == LL_ATON_RT_ASYNC)
 136:../../Middlewares/AI_Runtime/Npu/ll_aton/ll_aton_runtime.h ****   }
 327              		.loc 3 136 3 is_stmt 0 view .LVU98
 328 001e 08BD     		pop	{r3, pc}
 329              	.L24:
 330              		.align	2
 331              	.L23:
 332 0020 00000000 		.word	__ll_current_aton_ip_owner
 333 0024 00000000 		.word	.LC3
 334 0028 00000000 		.word	__func__.7
 335 002c 2C000000 		.word	.LC1
 336 0030 00000000 		.word	__ll_current_wait_mask
 337 0034 00100E58 		.word	1477316608
 338              		.cfi_endproc
 339              	.LFE4832:
 341              		.section	.rodata.EpochBlock_EpochControllerUnit.str1.1,"aMS",%progbits,1
 342              	.LC4:
 343 0000 45706F63 		.ascii	"EpochBlock_IsEpochBlob(eb)\000"
 343      68426C6F 
 343      636B5F49 
 343      7345706F 
 343      6368426C 
 344              	.LC5:
 345 001b 2E2E2F2E 		.ascii	"../../Middlewares/AI_Runtime/Npu/ll_aton/ll_aton_NN"
 345      2E2F4D69 
 345      64646C65 
 345      77617265 
 345      732F4149 
 346 004e 5F696E74 		.ascii	"_interface.h\000"
 346      65726661 
 346      63652E68 
 346      00
 347              		.section	.text.EpochBlock_EpochControllerUnit,"ax",%progbits
 348              		.align	1
 349              		.syntax unified
 350              		.thumb
 351              		.thumb_func
 353              	EpochBlock_EpochControllerUnit:
 354              	.LVL22:
 355              	.LFB4819:
 520:../../Middlewares/AI_Runtime/Npu/ll_aton/ll_aton_NN_interface.h ****   }
 521:../../Middlewares/AI_Runtime/Npu/ll_aton/ll_aton_NN_interface.h **** 
 522:../../Middlewares/AI_Runtime/Npu/ll_aton/ll_aton_NN_interface.h ****   static inline bool EpochBlock_IsEpochStart(const EpochBlock_ItemTypeDef *eb)
 523:../../Middlewares/AI_Runtime/Npu/ll_aton/ll_aton_NN_interface.h ****   {
 524:../../Middlewares/AI_Runtime/Npu/ll_aton/ll_aton_NN_interface.h ****     return ((eb->flags & EpochBlock_Flags_epoch_start) != 0);
ARM GAS  C:\Users\Antonio\AppData\Local\Temp\ccCbPHYL.s 			page 26


 525:../../Middlewares/AI_Runtime/Npu/ll_aton/ll_aton_NN_interface.h ****   }
 526:../../Middlewares/AI_Runtime/Npu/ll_aton/ll_aton_NN_interface.h **** 
 527:../../Middlewares/AI_Runtime/Npu/ll_aton/ll_aton_NN_interface.h ****   static inline bool EpochBlock_IsEpochEnd(const EpochBlock_ItemTypeDef *eb)
 528:../../Middlewares/AI_Runtime/Npu/ll_aton/ll_aton_NN_interface.h ****   {
 529:../../Middlewares/AI_Runtime/Npu/ll_aton/ll_aton_NN_interface.h ****     return ((eb->flags & EpochBlock_Flags_epoch_end) != 0);
 530:../../Middlewares/AI_Runtime/Npu/ll_aton/ll_aton_NN_interface.h ****   }
 531:../../Middlewares/AI_Runtime/Npu/ll_aton/ll_aton_NN_interface.h **** 
 532:../../Middlewares/AI_Runtime/Npu/ll_aton/ll_aton_NN_interface.h ****   static inline bool EpochBlock_IsEpochBlob(const EpochBlock_ItemTypeDef *eb)
 533:../../Middlewares/AI_Runtime/Npu/ll_aton/ll_aton_NN_interface.h ****   {
 534:../../Middlewares/AI_Runtime/Npu/ll_aton/ll_aton_NN_interface.h ****     return ((eb->flags & EpochBlock_Flags_blob) != 0);
 535:../../Middlewares/AI_Runtime/Npu/ll_aton/ll_aton_NN_interface.h ****   }
 536:../../Middlewares/AI_Runtime/Npu/ll_aton/ll_aton_NN_interface.h **** 
 537:../../Middlewares/AI_Runtime/Npu/ll_aton/ll_aton_NN_interface.h ****   static inline bool EpochBlock_IsEpochPureSW(const EpochBlock_ItemTypeDef *eb)
 538:../../Middlewares/AI_Runtime/Npu/ll_aton/ll_aton_NN_interface.h ****   {
 539:../../Middlewares/AI_Runtime/Npu/ll_aton/ll_aton_NN_interface.h ****     return ((eb->flags & EpochBlock_Flags_pure_sw) != 0);
 540:../../Middlewares/AI_Runtime/Npu/ll_aton/ll_aton_NN_interface.h ****   }
 541:../../Middlewares/AI_Runtime/Npu/ll_aton/ll_aton_NN_interface.h **** 
 542:../../Middlewares/AI_Runtime/Npu/ll_aton/ll_aton_NN_interface.h ****   static inline bool EpochBlock_IsEpochPureHW(const EpochBlock_ItemTypeDef *eb)
 543:../../Middlewares/AI_Runtime/Npu/ll_aton/ll_aton_NN_interface.h ****   {
 544:../../Middlewares/AI_Runtime/Npu/ll_aton/ll_aton_NN_interface.h ****     return ((eb->flags & EpochBlock_Flags_pure_hw) != 0);
 545:../../Middlewares/AI_Runtime/Npu/ll_aton/ll_aton_NN_interface.h ****   }
 546:../../Middlewares/AI_Runtime/Npu/ll_aton/ll_aton_NN_interface.h **** 
 547:../../Middlewares/AI_Runtime/Npu/ll_aton/ll_aton_NN_interface.h ****   static inline bool EpochBlock_IsEpochHybrid(const EpochBlock_ItemTypeDef *eb)
 548:../../Middlewares/AI_Runtime/Npu/ll_aton/ll_aton_NN_interface.h ****   {
 549:../../Middlewares/AI_Runtime/Npu/ll_aton/ll_aton_NN_interface.h ****     return ((eb->flags & EpochBlock_Flags_hybrid) != 0);
 550:../../Middlewares/AI_Runtime/Npu/ll_aton/ll_aton_NN_interface.h ****   }
 551:../../Middlewares/AI_Runtime/Npu/ll_aton/ll_aton_NN_interface.h **** 
 552:../../Middlewares/AI_Runtime/Npu/ll_aton/ll_aton_NN_interface.h ****   static inline bool EpochBlock_IsEpochInternal(const EpochBlock_ItemTypeDef *eb)
 553:../../Middlewares/AI_Runtime/Npu/ll_aton/ll_aton_NN_interface.h ****   {
 554:../../Middlewares/AI_Runtime/Npu/ll_aton/ll_aton_NN_interface.h ****     return ((eb->flags & EpochBlock_Flags_internal) != 0);
 555:../../Middlewares/AI_Runtime/Npu/ll_aton/ll_aton_NN_interface.h ****   }
 556:../../Middlewares/AI_Runtime/Npu/ll_aton/ll_aton_NN_interface.h **** 
 557:../../Middlewares/AI_Runtime/Npu/ll_aton/ll_aton_NN_interface.h ****   static inline uint32_t EpochBlock_EpochControllerUnit(const EpochBlock_ItemTypeDef *eb)
 558:../../Middlewares/AI_Runtime/Npu/ll_aton/ll_aton_NN_interface.h ****   {
 356              		.loc 2 558 3 is_stmt 1 view -0
 357              		.cfi_startproc
 358              		@ args = 0, pretend = 0, frame = 0
 359              		@ frame_needed = 0, uses_anonymous_args = 0
 559:../../Middlewares/AI_Runtime/Npu/ll_aton/ll_aton_NN_interface.h ****     LL_ATON_ASSERT(EpochBlock_IsEpochBlob(eb));
 360              		.loc 2 559 5 view .LVU100
 361              	.LBB130:
 362              	.LBI130:
 532:../../Middlewares/AI_Runtime/Npu/ll_aton/ll_aton_NN_interface.h ****   {
 363              		.loc 2 532 22 view .LVU101
 364              	.LBB131:
 534:../../Middlewares/AI_Runtime/Npu/ll_aton/ll_aton_NN_interface.h ****   }
 365              		.loc 2 534 5 view .LVU102
 534:../../Middlewares/AI_Runtime/Npu/ll_aton/ll_aton_NN_interface.h ****   }
 366              		.loc 2 534 5 is_stmt 0 view .LVU103
 367              	.LBE131:
 368              	.LBE130:
 558:../../Middlewares/AI_Runtime/Npu/ll_aton/ll_aton_NN_interface.h ****     LL_ATON_ASSERT(EpochBlock_IsEpochBlob(eb));
 369              		.loc 2 558 3 view .LVU104
 370 0000 08B5     		push	{r3, lr}
 371              		.cfi_def_cfa_offset 8
 372              		.cfi_offset 3, -8
 373              		.cfi_offset 14, -4
ARM GAS  C:\Users\Antonio\AppData\Local\Temp\ccCbPHYL.s 			page 27


 374              		.loc 2 559 5 discriminator 1 view .LVU105
 375 0002 038A     		ldrh	r3, [r0, #16]
 376 0004 5B07     		lsls	r3, r3, #29
 377 0006 06D4     		bmi	.L26
 378              	.LBB132:
 379              	.LBI132:
 557:../../Middlewares/AI_Runtime/Npu/ll_aton/ll_aton_NN_interface.h ****   {
 380              		.loc 2 557 26 is_stmt 1 view .LVU106
 381              	.LVL23:
 382              	.LBB133:
 383              		.loc 2 559 5 is_stmt 0 discriminator 1 view .LVU107
 384 0008 40F22F21 		movw	r1, #559
 385 000c 034B     		ldr	r3, .L27
 386 000e 044A     		ldr	r2, .L27+4
 387 0010 0448     		ldr	r0, .L27+8
 388              	.LVL24:
 389              		.loc 2 559 5 discriminator 1 view .LVU108
 390 0012 FFF7FEFF 		bl	__assert_func
 391              	.LVL25:
 392              	.L26:
 393              		.loc 2 559 5 discriminator 1 view .LVU109
 394              	.LBE133:
 395              	.LBE132:
 560:../../Middlewares/AI_Runtime/Npu/ll_aton/ll_aton_NN_interface.h ****     return eb->wait_mask;
 396              		.loc 2 560 5 is_stmt 1 view .LVU110
 561:../../Middlewares/AI_Runtime/Npu/ll_aton/ll_aton_NN_interface.h ****   }
 397              		.loc 2 561 3 is_stmt 0 view .LVU111
 398 0016 C068     		ldr	r0, [r0, #12]
 399              	.LVL26:
 400              		.loc 2 561 3 view .LVU112
 401 0018 08BD     		pop	{r3, pc}
 402              	.L28:
 403 001a 00BF     		.align	2
 404              	.L27:
 405 001c 00000000 		.word	.LC4
 406 0020 00000000 		.word	__func__.6
 407 0024 1B000000 		.word	.LC5
 408              		.cfi_endproc
 409              	.LFE4819:
 411              		.section	.rodata.__LL_ATON_RT_ExecEndEpochBlock.str1.1,"aMS",%progbits,1
 412              	.LC6:
 413 0000 65634964 		.ascii	"ecId < 1\000"
 413      203C2031 
 413      00
 414              	.LC7:
 415 0009 2E2E2F2E 		.ascii	"../../Middlewares/AI_Runtime/Npu/ll_aton/ll_aton_ru"
 415      2E2F4D69 
 415      64646C65 
 415      77617265 
 415      732F4149 
 416 003c 6E74696D 		.ascii	"ntime.c\000"
 416      652E6300 
 417              	.LC8:
 418 0044 6E6E5F69 		.ascii	"nn_instance == __ll_current_aton_ip_owner\000"
 418      6E737461 
 418      6E636520 
 418      3D3D205F 
ARM GAS  C:\Users\Antonio\AppData\Local\Temp\ccCbPHYL.s 			page 28


 418      5F6C6C5F 
 419              	.LC9:
 420 006e 45706F63 		.ascii	"EpochBlock_IsEpochInternal(eb) || EpochBlock_IsEpoc"
 420      68426C6F 
 420      636B5F49 
 420      7345706F 
 420      6368496E 
 421 00a1 68487962 		.ascii	"hHybrid(eb) || (__ll_current_aton_ip_owner != nn_in"
 421      72696428 
 421      65622920 
 421      7C7C2028 
 421      5F5F6C6C 
 422 00d4 7374616E 		.ascii	"stance)\000"
 422      63652900 
 423              		.section	.text.__LL_ATON_RT_ExecEndEpochBlock,"ax",%progbits
 424              		.align	1
 425              		.syntax unified
 426              		.thumb
 427              		.thumb_func
 429              	__LL_ATON_RT_ExecEndEpochBlock:
 430              	.LVL27:
 431              	.LFB4840:
 185:../../Middlewares/AI_Runtime/Npu/ll_aton/ll_aton_runtime.c ****   if (nn_instance->exec_state.epoch_callback_function != NULL)
 432              		.loc 1 185 1 is_stmt 1 view -0
 433              		.cfi_startproc
 434              		@ args = 0, pretend = 0, frame = 0
 435              		@ frame_needed = 0, uses_anonymous_args = 0
 186:../../Middlewares/AI_Runtime/Npu/ll_aton/ll_aton_runtime.c ****     nn_instance->exec_state.epoch_callback_function(LL_ATON_RT_Callbacktype_PRE_END, nn_instance, e
 436              		.loc 1 186 3 view .LVU114
 186:../../Middlewares/AI_Runtime/Npu/ll_aton/ll_aton_runtime.c ****     nn_instance->exec_state.epoch_callback_function(LL_ATON_RT_Callbacktype_PRE_END, nn_instance, e
 437              		.loc 1 186 30 is_stmt 0 view .LVU115
 438 0000 CB6A     		ldr	r3, [r1, #44]
 185:../../Middlewares/AI_Runtime/Npu/ll_aton/ll_aton_runtime.c ****   if (nn_instance->exec_state.epoch_callback_function != NULL)
 439              		.loc 1 185 1 view .LVU116
 440 0002 2DE9F041 		push	{r4, r5, r6, r7, r8, lr}
 441              		.cfi_def_cfa_offset 24
 442              		.cfi_offset 4, -24
 443              		.cfi_offset 5, -20
 444              		.cfi_offset 6, -16
 445              		.cfi_offset 7, -12
 446              		.cfi_offset 8, -8
 447              		.cfi_offset 14, -4
 185:../../Middlewares/AI_Runtime/Npu/ll_aton/ll_aton_runtime.c ****   if (nn_instance->exec_state.epoch_callback_function != NULL)
 448              		.loc 1 185 1 view .LVU117
 449 0006 0546     		mov	r5, r0
 450 0008 0C46     		mov	r4, r1
 186:../../Middlewares/AI_Runtime/Npu/ll_aton/ll_aton_runtime.c ****     nn_instance->exec_state.epoch_callback_function(LL_ATON_RT_Callbacktype_PRE_END, nn_instance, e
 451              		.loc 1 186 6 view .LVU118
 452 000a 13B1     		cbz	r3, .L30
 187:../../Middlewares/AI_Runtime/Npu/ll_aton/ll_aton_runtime.c **** 
 453              		.loc 1 187 5 is_stmt 1 view .LVU119
 454 000c 0246     		mov	r2, r0
 455 000e 0220     		movs	r0, #2
 456              	.LVL28:
 187:../../Middlewares/AI_Runtime/Npu/ll_aton/ll_aton_runtime.c **** 
 457              		.loc 1 187 5 is_stmt 0 view .LVU120
 458 0010 9847     		blx	r3
ARM GAS  C:\Users\Antonio\AppData\Local\Temp\ccCbPHYL.s 			page 29


 459              	.LVL29:
 460              	.L30:
 189:../../Middlewares/AI_Runtime/Npu/ll_aton/ll_aton_runtime.c ****   {
 461              		.loc 1 189 3 is_stmt 1 view .LVU121
 462              	.LBB134:
 463              	.LBI134:
 532:../../Middlewares/AI_Runtime/Npu/ll_aton/ll_aton_NN_interface.h ****   {
 464              		.loc 2 532 22 view .LVU122
 465              	.LBB135:
 534:../../Middlewares/AI_Runtime/Npu/ll_aton/ll_aton_NN_interface.h ****   }
 466              		.loc 2 534 5 view .LVU123
 534:../../Middlewares/AI_Runtime/Npu/ll_aton/ll_aton_NN_interface.h ****   }
 467              		.loc 2 534 5 is_stmt 0 view .LVU124
 468              	.LBE135:
 469              	.LBE134:
 189:../../Middlewares/AI_Runtime/Npu/ll_aton/ll_aton_runtime.c ****   {
 470              		.loc 1 189 6 discriminator 1 view .LVU125
 471 0012 2B8A     		ldrh	r3, [r5, #16]
 472 0014 5807     		lsls	r0, r3, #29
 473 0016 18D5     		bpl	.L31
 474              	.LBB136:
 193:../../Middlewares/AI_Runtime/Npu/ll_aton/ll_aton_runtime.c ****     LL_ATON_ASSERT(ecId < ATON_EPOCHCTRL_NUM); // may never happen
 475              		.loc 1 193 5 is_stmt 1 view .LVU126
 193:../../Middlewares/AI_Runtime/Npu/ll_aton/ll_aton_runtime.c ****     LL_ATON_ASSERT(ecId < ATON_EPOCHCTRL_NUM); // may never happen
 476              		.loc 1 193 21 is_stmt 0 view .LVU127
 477 0018 2846     		mov	r0, r5
 478 001a FFF7FEFF 		bl	EpochBlock_EpochControllerUnit
 479              	.LVL30:
 194:../../Middlewares/AI_Runtime/Npu/ll_aton/ll_aton_runtime.c ****     uint32_t t;
 480              		.loc 1 194 5 is_stmt 1 view .LVU128
 481 001e 28B1     		cbz	r0, .L32
 194:../../Middlewares/AI_Runtime/Npu/ll_aton/ll_aton_runtime.c ****     uint32_t t;
 482              		.loc 1 194 5 is_stmt 0 discriminator 1 view .LVU129
 483 0020 C221     		movs	r1, #194
 484 0022 254B     		ldr	r3, .L63
 485 0024 254A     		ldr	r2, .L63+4
 486              	.LVL31:
 487              	.L62:
 194:../../Middlewares/AI_Runtime/Npu/ll_aton/ll_aton_runtime.c ****     uint32_t t;
 488              		.loc 1 194 5 discriminator 1 view .LVU130
 489              	.LBE136:
 225:../../Middlewares/AI_Runtime/Npu/ll_aton/ll_aton_runtime.c ****     __LL_ATON_RT_SetWaitMask(0);
 490              		.loc 1 225 5 discriminator 1 view .LVU131
 491 0026 2648     		ldr	r0, .L63+8
 492 0028 FFF7FEFF 		bl	__assert_func
 493              	.LVL32:
 494              	.L32:
 495              	.LBB137:
 195:../../Middlewares/AI_Runtime/Npu/ll_aton/ll_aton_runtime.c ****     ATON_DISABLE_CLR_CONFCLR(EPOCHCTRL, ecId);
 496              		.loc 1 195 5 is_stmt 1 view .LVU132
 196:../../Middlewares/AI_Runtime/Npu/ll_aton/ll_aton_runtime.c **** 
 497              		.loc 1 196 5 view .LVU133
 196:../../Middlewares/AI_Runtime/Npu/ll_aton/ll_aton_runtime.c **** 
 498              		.loc 1 196 5 view .LVU134
 196:../../Middlewares/AI_Runtime/Npu/ll_aton/ll_aton_runtime.c **** 
 499              		.loc 1 196 5 view .LVU135
 196:../../Middlewares/AI_Runtime/Npu/ll_aton/ll_aton_runtime.c **** 
ARM GAS  C:\Users\Antonio\AppData\Local\Temp\ccCbPHYL.s 			page 30


 500              		.loc 1 196 5 view .LVU136
 196:../../Middlewares/AI_Runtime/Npu/ll_aton/ll_aton_runtime.c **** 
 501              		.loc 1 196 5 view .LVU137
 196:../../Middlewares/AI_Runtime/Npu/ll_aton/ll_aton_runtime.c **** 
 502              		.loc 1 196 5 view .LVU138
 503 002c 0222     		movs	r2, #2
 504 002e 254B     		ldr	r3, .L63+12
 505 0030 1A60     		str	r2, [r3]
 196:../../Middlewares/AI_Runtime/Npu/ll_aton/ll_aton_runtime.c **** 
 506              		.loc 1 196 5 view .LVU139
 196:../../Middlewares/AI_Runtime/Npu/ll_aton/ll_aton_runtime.c **** 
 507              		.loc 1 196 5 view .LVU140
 196:../../Middlewares/AI_Runtime/Npu/ll_aton/ll_aton_runtime.c **** 
 508              		.loc 1 196 5 view .LVU141
 196:../../Middlewares/AI_Runtime/Npu/ll_aton/ll_aton_runtime.c **** 
 509              		.loc 1 196 5 view .LVU142
 510              	.L33:
 196:../../Middlewares/AI_Runtime/Npu/ll_aton/ll_aton_runtime.c **** 
 511              		.loc 1 196 5 discriminator 2 view .LVU143
 196:../../Middlewares/AI_Runtime/Npu/ll_aton/ll_aton_runtime.c **** 
 512              		.loc 1 196 5 discriminator 2 view .LVU144
 513 0032 1A68     		ldr	r2, [r3]
 514 0034 9107     		lsls	r1, r2, #30
 515 0036 FCD4     		bmi	.L33
 196:../../Middlewares/AI_Runtime/Npu/ll_aton/ll_aton_runtime.c **** 
 516              		.loc 1 196 5 discriminator 3 view .LVU145
 196:../../Middlewares/AI_Runtime/Npu/ll_aton/ll_aton_runtime.c **** 
 517              		.loc 1 196 5 discriminator 3 view .LVU146
 518              	.LVL33:
 196:../../Middlewares/AI_Runtime/Npu/ll_aton/ll_aton_runtime.c **** 
 519              		.loc 1 196 5 discriminator 3 view .LVU147
 196:../../Middlewares/AI_Runtime/Npu/ll_aton/ll_aton_runtime.c **** 
 520              		.loc 1 196 5 discriminator 3 view .LVU148
 196:../../Middlewares/AI_Runtime/Npu/ll_aton/ll_aton_runtime.c **** 
 521              		.loc 1 196 5 discriminator 3 view .LVU149
 522 0038 4FF08042 		mov	r2, #1073741824
 523 003c 1A60     		str	r2, [r3]
 196:../../Middlewares/AI_Runtime/Npu/ll_aton/ll_aton_runtime.c **** 
 524              		.loc 1 196 5 discriminator 3 view .LVU150
 196:../../Middlewares/AI_Runtime/Npu/ll_aton/ll_aton_runtime.c **** 
 525              		.loc 1 196 5 discriminator 3 view .LVU151
 196:../../Middlewares/AI_Runtime/Npu/ll_aton/ll_aton_runtime.c **** 
 526              		.loc 1 196 5 discriminator 3 view .LVU152
 196:../../Middlewares/AI_Runtime/Npu/ll_aton/ll_aton_runtime.c **** 
 527              		.loc 1 196 5 discriminator 3 view .LVU153
 528              	.L34:
 196:../../Middlewares/AI_Runtime/Npu/ll_aton/ll_aton_runtime.c **** 
 529              		.loc 1 196 5 discriminator 5 view .LVU154
 196:../../Middlewares/AI_Runtime/Npu/ll_aton/ll_aton_runtime.c **** 
 530              		.loc 1 196 5 discriminator 5 view .LVU155
 531 003e 1A68     		ldr	r2, [r3]
 532 0040 5200     		lsls	r2, r2, #1
 533 0042 FCD4     		bmi	.L34
 196:../../Middlewares/AI_Runtime/Npu/ll_aton/ll_aton_runtime.c **** 
 534              		.loc 1 196 5 discriminator 6 view .LVU156
 196:../../Middlewares/AI_Runtime/Npu/ll_aton/ll_aton_runtime.c **** 
 535              		.loc 1 196 5 discriminator 6 view .LVU157
ARM GAS  C:\Users\Antonio\AppData\Local\Temp\ccCbPHYL.s 			page 31


 199:../../Middlewares/AI_Runtime/Npu/ll_aton/ll_aton_runtime.c **** #else  // !ATON_EPOCHCTRL_NUM
 536              		.loc 1 199 5 view .LVU158
 537 0044 1920     		movs	r0, #25
 538              	.LVL34:
 199:../../Middlewares/AI_Runtime/Npu/ll_aton/ll_aton_runtime.c **** #else  // !ATON_EPOCHCTRL_NUM
 539              		.loc 1 199 5 is_stmt 0 view .LVU159
 540 0046 FFF7FEFF 		bl	LL_ATON_DisableClock
 541              	.LVL35:
 542              	.L31:
 199:../../Middlewares/AI_Runtime/Npu/ll_aton/ll_aton_runtime.c **** #else  // !ATON_EPOCHCTRL_NUM
 543              		.loc 1 199 5 view .LVU160
 544              	.LBE137:
 205:../../Middlewares/AI_Runtime/Npu/ll_aton/ll_aton_runtime.c ****   {
 545              		.loc 1 205 3 is_stmt 1 view .LVU161
 205:../../Middlewares/AI_Runtime/Npu/ll_aton/ll_aton_runtime.c ****   {
 546              		.loc 1 205 9 is_stmt 0 view .LVU162
 547 004a 6B68     		ldr	r3, [r5, #4]
 205:../../Middlewares/AI_Runtime/Npu/ll_aton/ll_aton_runtime.c ****   {
 548              		.loc 1 205 6 view .LVU163
 549 004c 0BB1     		cbz	r3, .L35
 217:../../Middlewares/AI_Runtime/Npu/ll_aton/ll_aton_runtime.c **** #endif
 550              		.loc 1 217 5 is_stmt 1 view .LVU164
 551 004e 2846     		mov	r0, r5
 552 0050 9847     		blx	r3
 553              	.LVL36:
 554              	.L35:
 222:../../Middlewares/AI_Runtime/Npu/ll_aton/ll_aton_runtime.c ****       EpochBlock_IsEpochInternal(eb)) // epoch blobs are flagged as pure HW, so checking for epoch 
 555              		.loc 1 222 3 view .LVU165
 556              	.LBB138:
 557              	.LBI138:
 542:../../Middlewares/AI_Runtime/Npu/ll_aton/ll_aton_NN_interface.h ****   {
 558              		.loc 2 542 22 view .LVU166
 559              	.LBB139:
 544:../../Middlewares/AI_Runtime/Npu/ll_aton/ll_aton_NN_interface.h ****   }
 560              		.loc 2 544 5 view .LVU167
 544:../../Middlewares/AI_Runtime/Npu/ll_aton/ll_aton_NN_interface.h ****   }
 561              		.loc 2 544 16 is_stmt 0 view .LVU168
 562 0052 2E8A     		ldrh	r6, [r5, #16]
 563              	.LVL37:
 544:../../Middlewares/AI_Runtime/Npu/ll_aton/ll_aton_NN_interface.h ****   }
 564              		.loc 2 544 16 view .LVU169
 565              	.LBE139:
 566              	.LBE138:
 222:../../Middlewares/AI_Runtime/Npu/ll_aton/ll_aton_runtime.c ****       EpochBlock_IsEpochInternal(eb)) // epoch blobs are flagged as pure HW, so checking for epoch 
 567              		.loc 1 222 36 discriminator 1 view .LVU170
 568 0054 16F0900F 		tst	r6, #144
 569 0058 06F0C007 		and	r7, r6, #192
 570 005c 08D1     		bne	.L36
 571              	.L40:
 230:../../Middlewares/AI_Runtime/Npu/ll_aton/ll_aton_runtime.c ****                                        (nn_instance->exec_state.saved_current_epoch_block == NULL) 
 572              		.loc 1 230 70 discriminator 1 view .LVU171
 573 005e 0FBB     		cbnz	r7, .L37
 574              	.L38:
 237:../../Middlewares/AI_Runtime/Npu/ll_aton/ll_aton_runtime.c ****                  (__ll_current_aton_ip_owner != nn_instance));
 575              		.loc 1 237 3 discriminator 2 view .LVU172
 576 0060 194B     		ldr	r3, .L63+16
 577 0062 1B68     		ldr	r3, [r3]
ARM GAS  C:\Users\Antonio\AppData\Local\Temp\ccCbPHYL.s 			page 32


 578 0064 A342     		cmp	r3, r4
 579 0066 15D1     		bne	.L41
 237:../../Middlewares/AI_Runtime/Npu/ll_aton/ll_aton_runtime.c ****                  (__ll_current_aton_ip_owner != nn_instance));
 580              		.loc 1 237 3 discriminator 3 view .LVU173
 581 0068 ED21     		movs	r1, #237
 582 006a 184B     		ldr	r3, .L63+20
 583 006c 134A     		ldr	r2, .L63+4
 584 006e DAE7     		b	.L62
 585              	.L36:
 225:../../Middlewares/AI_Runtime/Npu/ll_aton/ll_aton_runtime.c ****     __LL_ATON_RT_SetWaitMask(0);
 586              		.loc 1 225 5 is_stmt 1 view .LVU174
 587 0070 154B     		ldr	r3, .L63+16
 588 0072 1B68     		ldr	r3, [r3]
 589 0074 A342     		cmp	r3, r4
 590 0076 03D0     		beq	.L39
 225:../../Middlewares/AI_Runtime/Npu/ll_aton/ll_aton_runtime.c ****     __LL_ATON_RT_SetWaitMask(0);
 591              		.loc 1 225 5 is_stmt 0 discriminator 1 view .LVU175
 592 0078 E121     		movs	r1, #225
 593 007a 154B     		ldr	r3, .L63+24
 594 007c 0F4A     		ldr	r2, .L63+4
 595 007e D2E7     		b	.L62
 596              	.L39:
 226:../../Middlewares/AI_Runtime/Npu/ll_aton/ll_aton_runtime.c ****   }
 597              		.loc 1 226 5 is_stmt 1 view .LVU176
 598 0080 0020     		movs	r0, #0
 599 0082 FFF7FEFF 		bl	__LL_ATON_RT_SetWaitMask
 600              	.LVL38:
 230:../../Middlewares/AI_Runtime/Npu/ll_aton/ll_aton_runtime.c ****                                        (nn_instance->exec_state.saved_current_epoch_block == NULL) 
 601              		.loc 1 230 3 view .LVU177
 230:../../Middlewares/AI_Runtime/Npu/ll_aton/ll_aton_runtime.c ****                                        (nn_instance->exec_state.saved_current_epoch_block == NULL) 
 602              		.loc 1 230 6 is_stmt 0 discriminator 1 view .LVU178
 603 0086 F306     		lsls	r3, r6, #27
 604 0088 E9D5     		bpl	.L40
 605              	.L43:
 235:../../Middlewares/AI_Runtime/Npu/ll_aton/ll_aton_runtime.c ****   }
 606              		.loc 1 235 5 is_stmt 1 view .LVU179
 607 008a 2046     		mov	r0, r4
 608 008c FFF7FEFF 		bl	__ll_clear_aton_owner
 609              	.LVL39:
 237:../../Middlewares/AI_Runtime/Npu/ll_aton/ll_aton_runtime.c ****                  (__ll_current_aton_ip_owner != nn_instance));
 610              		.loc 1 237 3 view .LVU180
 237:../../Middlewares/AI_Runtime/Npu/ll_aton/ll_aton_runtime.c ****                  (__ll_current_aton_ip_owner != nn_instance));
 611              		.loc 1 237 3 is_stmt 0 discriminator 1 view .LVU181
 612 0090 002F     		cmp	r7, #0
 613 0092 E5D0     		beq	.L38
 614              	.L41:
 240:../../Middlewares/AI_Runtime/Npu/ll_aton/ll_aton_runtime.c ****   {
 615              		.loc 1 240 3 is_stmt 1 view .LVU182
 240:../../Middlewares/AI_Runtime/Npu/ll_aton/ll_aton_runtime.c ****   {
 616              		.loc 1 240 30 is_stmt 0 view .LVU183
 617 0094 E36A     		ldr	r3, [r4, #44]
 240:../../Middlewares/AI_Runtime/Npu/ll_aton/ll_aton_runtime.c ****   {
 618              		.loc 1 240 6 view .LVU184
 619 0096 63B1     		cbz	r3, .L29
 242:../../Middlewares/AI_Runtime/Npu/ll_aton/ll_aton_runtime.c ****   }
 620              		.loc 1 242 5 is_stmt 1 view .LVU185
 621 0098 2A46     		mov	r2, r5
ARM GAS  C:\Users\Antonio\AppData\Local\Temp\ccCbPHYL.s 			page 33


 622 009a 2146     		mov	r1, r4
 244:../../Middlewares/AI_Runtime/Npu/ll_aton/ll_aton_runtime.c **** 
 623              		.loc 1 244 1 is_stmt 0 view .LVU186
 624 009c BDE8F041 		pop	{r4, r5, r6, r7, r8, lr}
 625              		.cfi_remember_state
 626              		.cfi_restore 14
 627              		.cfi_restore 8
 628              		.cfi_restore 7
 629              		.cfi_restore 6
 630              		.cfi_restore 5
 631              		.cfi_restore 4
 632              		.cfi_def_cfa_offset 0
 633              	.LVL40:
 242:../../Middlewares/AI_Runtime/Npu/ll_aton/ll_aton_runtime.c ****   }
 634              		.loc 1 242 5 view .LVU187
 635 00a0 0320     		movs	r0, #3
 636 00a2 1847     		bx	r3	@ indirect register sibling call
 637              	.LVL41:
 638              	.L37:
 639              		.cfi_restore_state
 231:../../Middlewares/AI_Runtime/Npu/ll_aton/ll_aton_runtime.c ****                                        (nn_instance->exec_state.next_epoch_block ==
 640              		.loc 1 231 64 view .LVU188
 641 00a4 2369     		ldr	r3, [r4, #16]
 230:../../Middlewares/AI_Runtime/Npu/ll_aton/ll_aton_runtime.c ****                                        (nn_instance->exec_state.saved_current_epoch_block == NULL) 
 642              		.loc 1 230 105 discriminator 4 view .LVU189
 643 00a6 002B     		cmp	r3, #0
 644 00a8 F4D1     		bne	.L41
 232:../../Middlewares/AI_Runtime/Npu/ll_aton/ll_aton_runtime.c ****                                         NULL))) /* hybrid has finished after that last part has bee
 645              		.loc 1 232 64 view .LVU190
 646 00aa E368     		ldr	r3, [r4, #12]
 231:../../Middlewares/AI_Runtime/Npu/ll_aton/ll_aton_runtime.c ****                                        (nn_instance->exec_state.next_epoch_block ==
 647              		.loc 1 231 100 view .LVU191
 648 00ac 002B     		cmp	r3, #0
 649 00ae F1D1     		bne	.L41
 650 00b0 EBE7     		b	.L43
 651              	.L29:
 244:../../Middlewares/AI_Runtime/Npu/ll_aton/ll_aton_runtime.c **** 
 652              		.loc 1 244 1 view .LVU192
 653 00b2 BDE8F081 		pop	{r4, r5, r6, r7, r8, pc}
 654              	.LVL42:
 655              	.L64:
 244:../../Middlewares/AI_Runtime/Npu/ll_aton/ll_aton_runtime.c **** 
 656              		.loc 1 244 1 view .LVU193
 657 00b6 00BF     		.align	2
 658              	.L63:
 659 00b8 00000000 		.word	.LC6
 660 00bc 00000000 		.word	__func__.4
 661 00c0 09000000 		.word	.LC7
 662 00c4 00E00F58 		.word	1477435392
 663 00c8 00000000 		.word	__ll_current_aton_ip_owner
 664 00cc 6E000000 		.word	.LC9
 665 00d0 44000000 		.word	.LC8
 666              		.cfi_endproc
 667              	.LFE4840:
 669              		.section	.rodata.__LL_ATON_RT_DetermineNextEpochBlock.str1.1,"aMS",%progbits,1
 670              	.LC10:
 671 0000 6E6E5F69 		.ascii	"nn_instance != ((void *)0)\000"
ARM GAS  C:\Users\Antonio\AppData\Local\Temp\ccCbPHYL.s 			page 34


 671      6E737461 
 671      6E636520 
 671      213D2028 
 671      28766F69 
 672              	.LC11:
 673 001b 6E6E5F69 		.ascii	"nn_instance->exec_state.triggered_events == 0x0\000"
 673      6E737461 
 673      6E63652D 
 673      3E657865 
 673      635F7374 
 674              	.LC12:
 675 004b 6E6E5F69 		.ascii	"nn_instance->exec_state.saved_current_epoch_block ="
 675      6E737461 
 675      6E63652D 
 675      3E657865 
 675      635F7374 
 676 007e 3D202828 		.ascii	"= ((void *)0)\000"
 676      766F6964 
 676      202A2930 
 676      2900
 677              		.section	.text.__LL_ATON_RT_DetermineNextEpochBlock,"ax",%progbits
 678              		.align	1
 679              		.syntax unified
 680              		.thumb
 681              		.thumb_func
 683              	__LL_ATON_RT_DetermineNextEpochBlock:
 684              	.LVL43:
 685              	.LFB4841:
 247:../../Middlewares/AI_Runtime/Npu/ll_aton/ll_aton_runtime.c ****   LL_ATON_ASSERT(nn_instance != NULL);
 686              		.loc 1 247 1 is_stmt 1 view -0
 687              		.cfi_startproc
 688              		@ args = 0, pretend = 0, frame = 0
 689              		@ frame_needed = 0, uses_anonymous_args = 0
 248:../../Middlewares/AI_Runtime/Npu/ll_aton/ll_aton_runtime.c **** #if (LL_ATON_RT_MODE == LL_ATON_RT_ASYNC)
 690              		.loc 1 248 3 view .LVU195
 247:../../Middlewares/AI_Runtime/Npu/ll_aton/ll_aton_runtime.c ****   LL_ATON_ASSERT(nn_instance != NULL);
 691              		.loc 1 247 1 is_stmt 0 view .LVU196
 692 0000 08B5     		push	{r3, lr}
 693              		.cfi_def_cfa_offset 8
 694              		.cfi_offset 3, -8
 695              		.cfi_offset 14, -4
 248:../../Middlewares/AI_Runtime/Npu/ll_aton/ll_aton_runtime.c **** #if (LL_ATON_RT_MODE == LL_ATON_RT_ASYNC)
 696              		.loc 1 248 3 view .LVU197
 697 0002 28B9     		cbnz	r0, .L66
 248:../../Middlewares/AI_Runtime/Npu/ll_aton/ll_aton_runtime.c **** #if (LL_ATON_RT_MODE == LL_ATON_RT_ASYNC)
 698              		.loc 1 248 3 discriminator 1 view .LVU198
 699 0004 F821     		movs	r1, #248
 700 0006 1A4B     		ldr	r3, .L76
 701 0008 1A4A     		ldr	r2, .L76+4
 702              	.L75:
 250:../../Middlewares/AI_Runtime/Npu/ll_aton/ll_aton_runtime.c ****                  0x0); // with the removal of parallel SW/HW epochs execution all triggered events 
 703              		.loc 1 250 3 discriminator 1 view .LVU199
 704 000a 1B48     		ldr	r0, .L76+8
 705              	.LVL44:
 250:../../Middlewares/AI_Runtime/Npu/ll_aton/ll_aton_runtime.c ****                  0x0); // with the removal of parallel SW/HW epochs execution all triggered events 
 706              		.loc 1 250 3 discriminator 1 view .LVU200
 707 000c FFF7FEFF 		bl	__assert_func
ARM GAS  C:\Users\Antonio\AppData\Local\Temp\ccCbPHYL.s 			page 35


 708              	.LVL45:
 709              	.L66:
 250:../../Middlewares/AI_Runtime/Npu/ll_aton/ll_aton_runtime.c ****                  0x0); // with the removal of parallel SW/HW epochs execution all triggered events 
 710              		.loc 1 250 3 is_stmt 1 view .LVU201
 711 0010 C369     		ldr	r3, [r0, #28]
 712 0012 1BB1     		cbz	r3, .L67
 250:../../Middlewares/AI_Runtime/Npu/ll_aton/ll_aton_runtime.c ****                  0x0); // with the removal of parallel SW/HW epochs execution all triggered events 
 713              		.loc 1 250 3 is_stmt 0 discriminator 1 view .LVU202
 714 0014 FA21     		movs	r1, #250
 715 0016 194B     		ldr	r3, .L76+12
 716 0018 164A     		ldr	r2, .L76+4
 717 001a F6E7     		b	.L75
 718              	.L67:
 256:../../Middlewares/AI_Runtime/Npu/ll_aton/ll_aton_runtime.c ****   {
 719              		.loc 1 256 3 is_stmt 1 view .LVU203
 256:../../Middlewares/AI_Runtime/Npu/ll_aton/ll_aton_runtime.c ****   {
 720              		.loc 1 256 31 is_stmt 0 view .LVU204
 721 001c C368     		ldr	r3, [r0, #12]
 256:../../Middlewares/AI_Runtime/Npu/ll_aton/ll_aton_runtime.c ****   {
 722              		.loc 1 256 6 view .LVU205
 723 001e 13B3     		cbz	r3, .L68
 258:../../Middlewares/AI_Runtime/Npu/ll_aton/ll_aton_runtime.c **** 
 724              		.loc 1 258 5 is_stmt 1 view .LVU206
 725 0020 0369     		ldr	r3, [r0, #16]
 726 0022 23B1     		cbz	r3, .L69
 258:../../Middlewares/AI_Runtime/Npu/ll_aton/ll_aton_runtime.c **** 
 727              		.loc 1 258 5 is_stmt 0 discriminator 1 view .LVU207
 728 0024 4FF48171 		mov	r1, #258
 729 0028 154B     		ldr	r3, .L76+16
 730 002a 124A     		ldr	r2, .L76+4
 731 002c EDE7     		b	.L75
 732              	.L69:
 261:../../Middlewares/AI_Runtime/Npu/ll_aton/ll_aton_runtime.c ****     nn_instance->exec_state.saved_first_epoch_block = nn_instance->exec_state.first_epoch_block;
 733              		.loc 1 261 5 is_stmt 1 view .LVU208
 261:../../Middlewares/AI_Runtime/Npu/ll_aton/ll_aton_runtime.c ****     nn_instance->exec_state.saved_first_epoch_block = nn_instance->exec_state.first_epoch_block;
 734              		.loc 1 261 80 is_stmt 0 view .LVU209
 735 002e 4368     		ldr	r3, [r0, #4]
 261:../../Middlewares/AI_Runtime/Npu/ll_aton/ll_aton_runtime.c ****     nn_instance->exec_state.saved_first_epoch_block = nn_instance->exec_state.first_epoch_block;
 736              		.loc 1 261 55 view .LVU210
 737 0030 0361     		str	r3, [r0, #16]
 262:../../Middlewares/AI_Runtime/Npu/ll_aton/ll_aton_runtime.c **** #ifndef NDEBUG
 738              		.loc 1 262 5 is_stmt 1 view .LVU211
 262:../../Middlewares/AI_Runtime/Npu/ll_aton/ll_aton_runtime.c **** #ifndef NDEBUG
 739              		.loc 1 262 78 is_stmt 0 view .LVU212
 740 0032 8368     		ldr	r3, [r0, #8]
 262:../../Middlewares/AI_Runtime/Npu/ll_aton/ll_aton_runtime.c **** #ifndef NDEBUG
 741              		.loc 1 262 53 view .LVU213
 742 0034 4361     		str	r3, [r0, #20]
 264:../../Middlewares/AI_Runtime/Npu/ll_aton/ll_aton_runtime.c **** #endif
 743              		.loc 1 264 5 is_stmt 1 view .LVU214
 264:../../Middlewares/AI_Runtime/Npu/ll_aton/ll_aton_runtime.c **** #endif
 744              		.loc 1 264 79 is_stmt 0 view .LVU215
 745 0036 436A     		ldr	r3, [r0, #36]
 264:../../Middlewares/AI_Runtime/Npu/ll_aton/ll_aton_runtime.c **** #endif
 746              		.loc 1 264 54 view .LVU216
 747 0038 8362     		str	r3, [r0, #40]
 268:../../Middlewares/AI_Runtime/Npu/ll_aton/ll_aton_runtime.c ****     nn_instance->exec_state.first_epoch_block = nn_instance->exec_state.next_epoch_block;
ARM GAS  C:\Users\Antonio\AppData\Local\Temp\ccCbPHYL.s 			page 36


 748              		.loc 1 268 5 is_stmt 1 view .LVU217
 268:../../Middlewares/AI_Runtime/Npu/ll_aton/ll_aton_runtime.c ****     nn_instance->exec_state.first_epoch_block = nn_instance->exec_state.next_epoch_block;
 749              		.loc 1 268 74 is_stmt 0 view .LVU218
 750 003a C368     		ldr	r3, [r0, #12]
 268:../../Middlewares/AI_Runtime/Npu/ll_aton/ll_aton_runtime.c ****     nn_instance->exec_state.first_epoch_block = nn_instance->exec_state.next_epoch_block;
 751              		.loc 1 268 49 view .LVU219
 752 003c 4360     		str	r3, [r0, #4]
 269:../../Middlewares/AI_Runtime/Npu/ll_aton/ll_aton_runtime.c **** #ifndef NDEBUG
 753              		.loc 1 269 5 is_stmt 1 view .LVU220
 269:../../Middlewares/AI_Runtime/Npu/ll_aton/ll_aton_runtime.c **** #ifndef NDEBUG
 754              		.loc 1 269 72 is_stmt 0 view .LVU221
 755 003e C368     		ldr	r3, [r0, #12]
 269:../../Middlewares/AI_Runtime/Npu/ll_aton/ll_aton_runtime.c **** #ifndef NDEBUG
 756              		.loc 1 269 47 view .LVU222
 757 0040 8360     		str	r3, [r0, #8]
 271:../../Middlewares/AI_Runtime/Npu/ll_aton/ll_aton_runtime.c **** #endif
 758              		.loc 1 271 5 is_stmt 1 view .LVU223
 271:../../Middlewares/AI_Runtime/Npu/ll_aton/ll_aton_runtime.c **** #endif
 759              		.loc 1 271 101 is_stmt 0 view .LVU224
 760 0042 8368     		ldr	r3, [r0, #8]
 761              	.LVL46:
 762              	.LBB144:
 763              	.LBI144:
  78:../../Middlewares/AI_Runtime/Npu/ll_aton/ll_aton_runtime.c **** {
 764              		.loc 1 78 17 is_stmt 1 view .LVU225
 765              	.LBB145:
  80:../../Middlewares/AI_Runtime/Npu/ll_aton/ll_aton_runtime.c **** 
 766              		.loc 1 80 3 view .LVU226
  82:../../Middlewares/AI_Runtime/Npu/ll_aton/ll_aton_runtime.c ****   {
 767              		.loc 1 82 3 view .LVU227
  82:../../Middlewares/AI_Runtime/Npu/ll_aton/ll_aton_runtime.c ****   {
 768              		.loc 1 82 6 is_stmt 0 view .LVU228
 769 0044 6BB9     		cbnz	r3, .L74
  80:../../Middlewares/AI_Runtime/Npu/ll_aton/ll_aton_runtime.c **** 
 770              		.loc 1 80 7 view .LVU229
 771 0046 1A46     		mov	r2, r3
 772              	.LVL47:
 773              	.L71:
  90:../../Middlewares/AI_Runtime/Npu/ll_aton/ll_aton_runtime.c **** }
 774              		.loc 1 90 3 is_stmt 1 view .LVU230
  90:../../Middlewares/AI_Runtime/Npu/ll_aton/ll_aton_runtime.c **** }
 775              		.loc 1 90 3 is_stmt 0 view .LVU231
 776              	.LBE145:
 777              	.LBE144:
 275:../../Middlewares/AI_Runtime/Npu/ll_aton/ll_aton_runtime.c ****   }
 778              		.loc 1 275 46 view .LVU232
 779 0048 0023     		movs	r3, #0
 271:../../Middlewares/AI_Runtime/Npu/ll_aton/ll_aton_runtime.c **** #endif
 780              		.loc 1 271 48 discriminator 1 view .LVU233
 781 004a 4262     		str	r2, [r0, #36]
 275:../../Middlewares/AI_Runtime/Npu/ll_aton/ll_aton_runtime.c ****   }
 782              		.loc 1 275 5 is_stmt 1 view .LVU234
 275:../../Middlewares/AI_Runtime/Npu/ll_aton/ll_aton_runtime.c ****   }
 783              		.loc 1 275 46 is_stmt 0 view .LVU235
 784 004c C360     		str	r3, [r0, #12]
 785              	.L73:
 283:../../Middlewares/AI_Runtime/Npu/ll_aton/ll_aton_runtime.c **** #endif
ARM GAS  C:\Users\Antonio\AppData\Local\Temp\ccCbPHYL.s 			page 37


 786              		.loc 1 283 3 is_stmt 1 view .LVU236
 283:../../Middlewares/AI_Runtime/Npu/ll_aton/ll_aton_runtime.c **** #endif
 787              		.loc 1 283 55 is_stmt 0 view .LVU237
 788 004e 0023     		movs	r3, #0
 789 0050 80F82030 		strb	r3, [r0, #32]
 285:../../Middlewares/AI_Runtime/Npu/ll_aton/ll_aton_runtime.c **** 
 790              		.loc 1 285 1 view .LVU238
 791 0054 08BD     		pop	{r3, pc}
 792              	.LVL48:
 793              	.L72:
 794              	.LBB149:
 795              	.LBB148:
  86:../../Middlewares/AI_Runtime/Npu/ll_aton/ll_aton_runtime.c ****     }
 796              		.loc 1 86 7 is_stmt 1 view .LVU239
  86:../../Middlewares/AI_Runtime/Npu/ll_aton/ll_aton_runtime.c ****     }
 797              		.loc 1 86 11 is_stmt 0 view .LVU240
 798 0056 1433     		adds	r3, r3, #20
 799              	.LVL49:
  84:../../Middlewares/AI_Runtime/Npu/ll_aton/ll_aton_runtime.c ****     { // Note: also terminating empty epoch block is counted
 800              		.loc 1 84 54 is_stmt 1 discriminator 3 view .LVU241
 801 0058 0132     		adds	r2, r2, #1
 802              	.LVL50:
 803              	.L70:
  84:../../Middlewares/AI_Runtime/Npu/ll_aton/ll_aton_runtime.c ****     { // Note: also terminating empty epoch block is counted
 804              		.loc 1 84 17 discriminator 1 view .LVU242
 805              	.LBB146:
 806              	.LBI146:
 517:../../Middlewares/AI_Runtime/Npu/ll_aton/ll_aton_NN_interface.h ****   {
 807              		.loc 2 517 22 view .LVU243
 808              	.LBB147:
 519:../../Middlewares/AI_Runtime/Npu/ll_aton/ll_aton_NN_interface.h ****   }
 809              		.loc 2 519 5 view .LVU244
 519:../../Middlewares/AI_Runtime/Npu/ll_aton/ll_aton_NN_interface.h ****   }
 810              		.loc 2 519 5 is_stmt 0 view .LVU245
 811              	.LBE147:
 812              	.LBE146:
  84:../../Middlewares/AI_Runtime/Npu/ll_aton/ll_aton_runtime.c ****     { // Note: also terminating empty epoch block is counted
 813              		.loc 1 84 17 discriminator 1 view .LVU246
 814 005a 198A     		ldrh	r1, [r3, #16]
 815 005c 0907     		lsls	r1, r1, #28
 816 005e FAD5     		bpl	.L72
  84:../../Middlewares/AI_Runtime/Npu/ll_aton/ll_aton_runtime.c ****     { // Note: also terminating empty epoch block is counted
 817              		.loc 1 84 17 discriminator 1 view .LVU247
 818 0060 F2E7     		b	.L71
 819              	.LVL51:
 820              	.L74:
  84:../../Middlewares/AI_Runtime/Npu/ll_aton/ll_aton_runtime.c ****     { // Note: also terminating empty epoch block is counted
 821              		.loc 1 84 12 view .LVU248
 822 0062 0122     		movs	r2, #1
 823 0064 F9E7     		b	.L70
 824              	.LVL52:
 825              	.L68:
  84:../../Middlewares/AI_Runtime/Npu/ll_aton/ll_aton_runtime.c ****     { // Note: also terminating empty epoch block is counted
 826              		.loc 1 84 12 view .LVU249
 827              	.LBE148:
 828              	.LBE149:
 279:../../Middlewares/AI_Runtime/Npu/ll_aton/ll_aton_runtime.c ****   }
ARM GAS  C:\Users\Antonio\AppData\Local\Temp\ccCbPHYL.s 			page 38


 829              		.loc 1 279 5 is_stmt 1 view .LVU250
 279:../../Middlewares/AI_Runtime/Npu/ll_aton/ll_aton_runtime.c ****   }
 830              		.loc 1 279 28 is_stmt 0 view .LVU251
 831 0066 4368     		ldr	r3, [r0, #4]
 279:../../Middlewares/AI_Runtime/Npu/ll_aton/ll_aton_runtime.c ****   }
 832              		.loc 1 279 48 view .LVU252
 833 0068 1433     		adds	r3, r3, #20
 834 006a 4360     		str	r3, [r0, #4]
 835 006c EFE7     		b	.L73
 836              	.L77:
 837 006e 00BF     		.align	2
 838              	.L76:
 839 0070 00000000 		.word	.LC10
 840 0074 00000000 		.word	__func__.3
 841 0078 09000000 		.word	.LC7
 842 007c 1B000000 		.word	.LC11
 843 0080 4B000000 		.word	.LC12
 844              		.cfi_endproc
 845              	.LFE4841:
 847              		.section	.text.dump_dma_state,"ax",%progbits
 848              		.align	1
 849              		.weak	dump_dma_state
 850              		.syntax unified
 851              		.thumb
 852              		.thumb_func
 854              	dump_dma_state:
 855              	.LFB4837:
  51:../../Middlewares/AI_Runtime/Npu/ll_aton/ll_aton_runtime.c **** 
 856              		.loc 1 51 39 is_stmt 1 view -0
 857              		.cfi_startproc
 858              		@ args = 0, pretend = 0, frame = 0
 859              		@ frame_needed = 0, uses_anonymous_args = 0
 860              		@ link register save eliminated.
  51:../../Middlewares/AI_Runtime/Npu/ll_aton/ll_aton_runtime.c **** 
 861              		.loc 1 51 40 view .LVU254
 862 0000 7047     		bx	lr
 863              		.cfi_endproc
 864              	.LFE4837:
 866              		.section	.rodata.__LL_ATON_RT_IrqErr.str1.1,"aMS",%progbits,1
 867              	.LC13:
 868 0000 53747265 		.ascii	"Streaming engine #%u error interrupt: 0x%lx\012\000"
 868      616D696E 
 868      6720656E 
 868      67696E65 
 868      20232575 
 869              	.LC14:
 870 002d 53747265 		.ascii	"Streaming engine completion interrupt\000"
 870      616D696E 
 870      6720656E 
 870      67696E65 
 870      20636F6D 
 871              	.LC15:
 872 0053 436F6E76 		.ascii	"Convolutional accelerator interrupt\000"
 872      6F6C7574 
 872      696F6E61 
 872      6C206163 
 872      63656C65 
ARM GAS  C:\Users\Antonio\AppData\Local\Temp\ccCbPHYL.s 			page 39


 873              	.LC16:
 874 0077 5265636F 		.ascii	"Reconfigurable buffer interrupt\000"
 874      6E666967 
 874      75726162 
 874      6C652062 
 874      75666665 
 875              	.LC17:
 876 0097 42757320 		.ascii	"Bus interface interrupt\000"
 876      696E7465 
 876      72666163 
 876      6520696E 
 876      74657272 
 877              	.LC18:
 878 00af 42555349 		.ascii	"BUSIF%ld ERR: 0x%lx\012\000"
 878      46256C64 
 878      20455252 
 878      3A203078 
 878      256C780A 
 879              	.LC19:
 880 00c4 53747265 		.ascii	"Stream switch interrupt\000"
 880      616D2073 
 880      77697463 
 880      6820696E 
 880      74657272 
 881              	.LC20:
 882 00dc 45706F63 		.ascii	"Epoch Controller ERROR interrupt: EC_IRQ = 0x%08lx\012"
 882      6820436F 
 882      6E74726F 
 882      6C6C6572 
 882      20455252 
 883 010f 00       		.ascii	"\000"
 884              	.LC21:
 885 0110 45706F63 		.ascii	"Epoch Controller opcode counter: 0x%08lx\012\000"
 885      6820436F 
 885      6E74726F 
 885      6C6C6572 
 885      206F7063 
 886              	.LC22:
 887 013a 45706F63 		.ascii	"Epoch Controller label: 0x%08lx\012\000"
 887      6820436F 
 887      6E74726F 
 887      6C6C6572 
 887      206C6162 
 888              	.LC23:
 889 015b 45706F63 		.ascii	"Epoch Controller NOACK interrupt\000"
 889      6820436F 
 889      6E74726F 
 889      6C6C6572 
 889      204E4F41 
 890              	.LC24:
 891 017c 45706F63 		.ascii	"Epoch Controller interrupt\000"
 891      6820436F 
 891      6E74726F 
 891      6C6C6572 
 891      20696E74 
 892              	.LC25:
 893 0197 41544F4E 		.ascii	"ATON_STD_IRQHandler()@%d: irqs=0x%llx\012\000"
ARM GAS  C:\Users\Antonio\AppData\Local\Temp\ccCbPHYL.s 			page 40


 893      5F535444 
 893      5F495251 
 893      48616E64 
 893      6C657228 
 894              	.LC26:
 895 01be 3000     		.ascii	"0\000"
 896              		.section	.text.__LL_ATON_RT_IrqErr,"ax",%progbits
 897              		.align	1
 898              		.syntax unified
 899              		.thumb
 900              		.thumb_func
 902              	__LL_ATON_RT_IrqErr:
 903              	.LVL53:
 904              	.LFB4852:
 357:../../Middlewares/AI_Runtime/Npu/ll_aton/ll_aton_runtime.c **** 
 358:../../Middlewares/AI_Runtime/Npu/ll_aton/ll_aton_runtime.c **** /*** User API Functions ***/
 359:../../Middlewares/AI_Runtime/Npu/ll_aton/ll_aton_runtime.c **** 
 360:../../Middlewares/AI_Runtime/Npu/ll_aton/ll_aton_runtime.c **** /**
 361:../../Middlewares/AI_Runtime/Npu/ll_aton/ll_aton_runtime.c ****  * @brief Registers callbacks for ATON runtime related events (e.g. initialization/deinitialization
 362:../../Middlewares/AI_Runtime/Npu/ll_aton/ll_aton_runtime.c ****  * `LL_ATON_RT_Callbacktype_t`)
 363:../../Middlewares/AI_Runtime/Npu/ll_aton/ll_aton_runtime.c ****  * @param rt_callback Function pointer to callback function (set to `NULL` to disable epoch tracing
 364:../../Middlewares/AI_Runtime/Npu/ll_aton/ll_aton_runtime.c ****  *
 365:../../Middlewares/AI_Runtime/Npu/ll_aton/ll_aton_runtime.c ****  * @note  This function must only be called when no network is currently executing!
 366:../../Middlewares/AI_Runtime/Npu/ll_aton/ll_aton_runtime.c ****  */
 367:../../Middlewares/AI_Runtime/Npu/ll_aton/ll_aton_runtime.c **** void LL_ATON_RT_SetRuntimeCallback(TraceRuntime_FuncPtr_t rt_callback)
 368:../../Middlewares/AI_Runtime/Npu/ll_aton/ll_aton_runtime.c **** {
 369:../../Middlewares/AI_Runtime/Npu/ll_aton/ll_aton_runtime.c ****   ll_aton_init_deinit_trace = rt_callback;
 370:../../Middlewares/AI_Runtime/Npu/ll_aton/ll_aton_runtime.c **** }
 371:../../Middlewares/AI_Runtime/Npu/ll_aton/ll_aton_runtime.c **** 
 372:../../Middlewares/AI_Runtime/Npu/ll_aton/ll_aton_runtime.c **** /**
 373:../../Middlewares/AI_Runtime/Npu/ll_aton/ll_aton_runtime.c ****  * @brief Register callback for tracing epoch/network related events (see `LL_ATON_RT_Callbacktype_
 374:../../Middlewares/AI_Runtime/Npu/ll_aton/ll_aton_runtime.c ****  * @param nn_instance Pointer to network instance for which to set the callback
 375:../../Middlewares/AI_Runtime/Npu/ll_aton/ll_aton_runtime.c ****  */
 376:../../Middlewares/AI_Runtime/Npu/ll_aton/ll_aton_runtime.c **** 
 377:../../Middlewares/AI_Runtime/Npu/ll_aton/ll_aton_runtime.c **** /**
 378:../../Middlewares/AI_Runtime/Npu/ll_aton/ll_aton_runtime.c ****  * @brief Register callback for tracing epoch/network related events (see `LL_ATON_RT_Callbacktype_
 379:../../Middlewares/AI_Runtime/Npu/ll_aton/ll_aton_runtime.c ****  * @param epoch_block_callback Function pointer to callback function (set to `NULL` to disable epoc
 380:../../Middlewares/AI_Runtime/Npu/ll_aton/ll_aton_runtime.c ****  * @param nn_instance          Pointer to network instance for which to set the callback (may not b
 381:../../Middlewares/AI_Runtime/Npu/ll_aton/ll_aton_runtime.c ****  *
 382:../../Middlewares/AI_Runtime/Npu/ll_aton/ll_aton_runtime.c ****  * @note  This function must only be called while the passed network instance is not executing
 383:../../Middlewares/AI_Runtime/Npu/ll_aton/ll_aton_runtime.c ****  *        and should be called before `LL_ATON_RT_Init_Network()`!
 384:../../Middlewares/AI_Runtime/Npu/ll_aton/ll_aton_runtime.c ****  */
 385:../../Middlewares/AI_Runtime/Npu/ll_aton/ll_aton_runtime.c **** void LL_ATON_RT_SetEpochCallback(TraceEpochBlock_FuncPtr_t epoch_block_callback, NN_Instance_TypeDe
 386:../../Middlewares/AI_Runtime/Npu/ll_aton/ll_aton_runtime.c **** {
 387:../../Middlewares/AI_Runtime/Npu/ll_aton/ll_aton_runtime.c ****   LL_ATON_ASSERT(nn_instance != NULL);
 388:../../Middlewares/AI_Runtime/Npu/ll_aton/ll_aton_runtime.c ****   nn_instance->exec_state.epoch_callback_function = epoch_block_callback;
 389:../../Middlewares/AI_Runtime/Npu/ll_aton/ll_aton_runtime.c **** }
 390:../../Middlewares/AI_Runtime/Npu/ll_aton/ll_aton_runtime.c **** 
 391:../../Middlewares/AI_Runtime/Npu/ll_aton/ll_aton_runtime.c **** /**
 392:../../Middlewares/AI_Runtime/Npu/ll_aton/ll_aton_runtime.c ****  * @brief Initialize a network instance
 393:../../Middlewares/AI_Runtime/Npu/ll_aton/ll_aton_runtime.c ****  * @param nn_instance Pointer to network instance to initialize
 394:../../Middlewares/AI_Runtime/Npu/ll_aton/ll_aton_runtime.c ****  */
 395:../../Middlewares/AI_Runtime/Npu/ll_aton/ll_aton_runtime.c **** void LL_ATON_RT_Init_Network(NN_Instance_TypeDef *nn_instance)
 396:../../Middlewares/AI_Runtime/Npu/ll_aton/ll_aton_runtime.c **** {
 397:../../Middlewares/AI_Runtime/Npu/ll_aton/ll_aton_runtime.c ****   /** Exit if `nn_instance` is equal to NULL **/
 398:../../Middlewares/AI_Runtime/Npu/ll_aton/ll_aton_runtime.c ****   if (nn_instance == NULL)
 399:../../Middlewares/AI_Runtime/Npu/ll_aton/ll_aton_runtime.c ****   {
ARM GAS  C:\Users\Antonio\AppData\Local\Temp\ccCbPHYL.s 			page 41


 400:../../Middlewares/AI_Runtime/Npu/ll_aton/ll_aton_runtime.c ****     return;
 401:../../Middlewares/AI_Runtime/Npu/ll_aton/ll_aton_runtime.c ****   }
 402:../../Middlewares/AI_Runtime/Npu/ll_aton/ll_aton_runtime.c **** 
 403:../../Middlewares/AI_Runtime/Npu/ll_aton/ll_aton_runtime.c ****   /** Exit if `nn_instance->network` is equal to NULL **/
 404:../../Middlewares/AI_Runtime/Npu/ll_aton/ll_aton_runtime.c ****   if (nn_instance->network == NULL)
 405:../../Middlewares/AI_Runtime/Npu/ll_aton/ll_aton_runtime.c ****   {
 406:../../Middlewares/AI_Runtime/Npu/ll_aton/ll_aton_runtime.c ****     return;
 407:../../Middlewares/AI_Runtime/Npu/ll_aton/ll_aton_runtime.c ****   }
 408:../../Middlewares/AI_Runtime/Npu/ll_aton/ll_aton_runtime.c **** 
 409:../../Middlewares/AI_Runtime/Npu/ll_aton/ll_aton_runtime.c ****   /* Care about epoch controller blobs relocation */
 410:../../Middlewares/AI_Runtime/Npu/ll_aton/ll_aton_runtime.c **** #if defined(LL_ATON_RT_RELOC)
 411:../../Middlewares/AI_Runtime/Npu/ll_aton/ll_aton_runtime.c ****   bool ret = false;
 412:../../Middlewares/AI_Runtime/Npu/ll_aton/ll_aton_runtime.c ****   if (nn_instance->exec_state.inst_reloc != 0)
 413:../../Middlewares/AI_Runtime/Npu/ll_aton/ll_aton_runtime.c ****   {
 414:../../Middlewares/AI_Runtime/Npu/ll_aton/ll_aton_runtime.c ****     ret = ai_rel_network_ec_network_init(nn_instance->exec_state.inst_reloc);
 415:../../Middlewares/AI_Runtime/Npu/ll_aton/ll_aton_runtime.c ****   }
 416:../../Middlewares/AI_Runtime/Npu/ll_aton/ll_aton_runtime.c ****   else
 417:../../Middlewares/AI_Runtime/Npu/ll_aton/ll_aton_runtime.c ****   {
 418:../../Middlewares/AI_Runtime/Npu/ll_aton/ll_aton_runtime.c ****     LL_ATON_ASSERT(nn_instance->network->ec_network_init != NULL);
 419:../../Middlewares/AI_Runtime/Npu/ll_aton/ll_aton_runtime.c ****     ret = nn_instance->network->ec_network_init();
 420:../../Middlewares/AI_Runtime/Npu/ll_aton/ll_aton_runtime.c ****   }
 421:../../Middlewares/AI_Runtime/Npu/ll_aton/ll_aton_runtime.c **** #else
 422:../../Middlewares/AI_Runtime/Npu/ll_aton/ll_aton_runtime.c ****   LL_ATON_ASSERT(nn_instance->network->ec_network_init != NULL);
 423:../../Middlewares/AI_Runtime/Npu/ll_aton/ll_aton_runtime.c ****   bool ret = nn_instance->network->ec_network_init();
 424:../../Middlewares/AI_Runtime/Npu/ll_aton/ll_aton_runtime.c **** #endif
 425:../../Middlewares/AI_Runtime/Npu/ll_aton/ll_aton_runtime.c ****   LL_ATON_ASSERT(ret == true);
 426:../../Middlewares/AI_Runtime/Npu/ll_aton/ll_aton_runtime.c ****   LL_ATON_LIB_UNUSED(ret);
 427:../../Middlewares/AI_Runtime/Npu/ll_aton/ll_aton_runtime.c **** 
 428:../../Middlewares/AI_Runtime/Npu/ll_aton/ll_aton_runtime.c ****   /* Call actual network instance initialization */
 429:../../Middlewares/AI_Runtime/Npu/ll_aton/ll_aton_runtime.c ****   __LL_ATON_RT_Init_Network(nn_instance);
 430:../../Middlewares/AI_Runtime/Npu/ll_aton/ll_aton_runtime.c **** }
 431:../../Middlewares/AI_Runtime/Npu/ll_aton/ll_aton_runtime.c **** 
 432:../../Middlewares/AI_Runtime/Npu/ll_aton/ll_aton_runtime.c **** /**
 433:../../Middlewares/AI_Runtime/Npu/ll_aton/ll_aton_runtime.c ****  * @brief De-initialize a network instance
 434:../../Middlewares/AI_Runtime/Npu/ll_aton/ll_aton_runtime.c ****  * @param nn_instance Pointer to network instance to de-initialize
 435:../../Middlewares/AI_Runtime/Npu/ll_aton/ll_aton_runtime.c ****  */
 436:../../Middlewares/AI_Runtime/Npu/ll_aton/ll_aton_runtime.c **** void LL_ATON_RT_DeInit_Network(NN_Instance_TypeDef *nn_instance)
 437:../../Middlewares/AI_Runtime/Npu/ll_aton/ll_aton_runtime.c **** {
 438:../../Middlewares/AI_Runtime/Npu/ll_aton/ll_aton_runtime.c ****   /** Exit if `nn_instance` is equal to NULL **/
 439:../../Middlewares/AI_Runtime/Npu/ll_aton/ll_aton_runtime.c ****   if (nn_instance == NULL)
 440:../../Middlewares/AI_Runtime/Npu/ll_aton/ll_aton_runtime.c ****   {
 441:../../Middlewares/AI_Runtime/Npu/ll_aton/ll_aton_runtime.c ****     return;
 442:../../Middlewares/AI_Runtime/Npu/ll_aton/ll_aton_runtime.c ****   }
 443:../../Middlewares/AI_Runtime/Npu/ll_aton/ll_aton_runtime.c **** 
 444:../../Middlewares/AI_Runtime/Npu/ll_aton/ll_aton_runtime.c ****   /** Call epoch callback with callback type `LL_ATON_RT_Callbacktype_NN_DeInit` and network instan
 445:../../Middlewares/AI_Runtime/Npu/ll_aton/ll_aton_runtime.c ****   if (nn_instance->exec_state.epoch_callback_function != NULL)
 446:../../Middlewares/AI_Runtime/Npu/ll_aton/ll_aton_runtime.c ****   {
 447:../../Middlewares/AI_Runtime/Npu/ll_aton/ll_aton_runtime.c ****     nn_instance->exec_state.epoch_callback_function(LL_ATON_RT_Callbacktype_NN_DeInit, nn_instance,
 448:../../Middlewares/AI_Runtime/Npu/ll_aton/ll_aton_runtime.c ****   }
 449:../../Middlewares/AI_Runtime/Npu/ll_aton/ll_aton_runtime.c **** 
 450:../../Middlewares/AI_Runtime/Npu/ll_aton/ll_aton_runtime.c ****   /** Re-set ATON IP owner */
 451:../../Middlewares/AI_Runtime/Npu/ll_aton/ll_aton_runtime.c ****   if (nn_instance == __ll_current_aton_ip_owner)
 452:../../Middlewares/AI_Runtime/Npu/ll_aton/ll_aton_runtime.c ****   { // In case this function gets called while an ATON lib internal EpochBlock (used to implement h
 453:../../Middlewares/AI_Runtime/Npu/ll_aton/ll_aton_runtime.c ****     // under execution we might still be owner of the ATON IP
 454:../../Middlewares/AI_Runtime/Npu/ll_aton/ll_aton_runtime.c ****     __ll_clear_aton_owner(nn_instance);
 455:../../Middlewares/AI_Runtime/Npu/ll_aton/ll_aton_runtime.c ****   }
 456:../../Middlewares/AI_Runtime/Npu/ll_aton/ll_aton_runtime.c **** 
ARM GAS  C:\Users\Antonio\AppData\Local\Temp\ccCbPHYL.s 			page 42


 457:../../Middlewares/AI_Runtime/Npu/ll_aton/ll_aton_runtime.c ****   /** De-initialize static variables **/
 458:../../Middlewares/AI_Runtime/Npu/ll_aton/ll_aton_runtime.c ****   /* re-set context */
 459:../../Middlewares/AI_Runtime/Npu/ll_aton/ll_aton_runtime.c ****   const LL_ATON_RT_EpochBlockItem_t *eb_list = NULL;
 460:../../Middlewares/AI_Runtime/Npu/ll_aton/ll_aton_runtime.c ****   nn_instance->exec_state.current_epoch_block = eb_list;
 461:../../Middlewares/AI_Runtime/Npu/ll_aton/ll_aton_runtime.c ****   nn_instance->exec_state.first_epoch_block = eb_list;
 462:../../Middlewares/AI_Runtime/Npu/ll_aton/ll_aton_runtime.c ****   nn_instance->exec_state.next_epoch_block = NULL;
 463:../../Middlewares/AI_Runtime/Npu/ll_aton/ll_aton_runtime.c **** 
 464:../../Middlewares/AI_Runtime/Npu/ll_aton/ll_aton_runtime.c ****   /* re-set saved context */
 465:../../Middlewares/AI_Runtime/Npu/ll_aton/ll_aton_runtime.c ****   nn_instance->exec_state.saved_current_epoch_block = NULL;
 466:../../Middlewares/AI_Runtime/Npu/ll_aton/ll_aton_runtime.c ****   nn_instance->exec_state.saved_first_epoch_block = NULL;
 467:../../Middlewares/AI_Runtime/Npu/ll_aton/ll_aton_runtime.c **** #ifndef NDEBUG
 468:../../Middlewares/AI_Runtime/Npu/ll_aton/ll_aton_runtime.c ****   nn_instance->exec_state.nr_of_epoch_blocks = 0;
 469:../../Middlewares/AI_Runtime/Npu/ll_aton/ll_aton_runtime.c ****   nn_instance->exec_state.saved_nr_of_epoch_blocks = 0;
 470:../../Middlewares/AI_Runtime/Npu/ll_aton/ll_aton_runtime.c **** #endif
 471:../../Middlewares/AI_Runtime/Npu/ll_aton/ll_aton_runtime.c **** 
 472:../../Middlewares/AI_Runtime/Npu/ll_aton/ll_aton_runtime.c ****   /* intentional do not re-set information about running inference `nn_instance->exec_state.inferen
 473:../../Middlewares/AI_Runtime/Npu/ll_aton/ll_aton_runtime.c **** 
 474:../../Middlewares/AI_Runtime/Npu/ll_aton/ll_aton_runtime.c ****   /* re-set asynchronous status variables */
 475:../../Middlewares/AI_Runtime/Npu/ll_aton/ll_aton_runtime.c **** #if (LL_ATON_RT_MODE == LL_ATON_RT_ASYNC)
 476:../../Middlewares/AI_Runtime/Npu/ll_aton/ll_aton_runtime.c ****   nn_instance->exec_state.triggered_events = 0x0;
 477:../../Middlewares/AI_Runtime/Npu/ll_aton/ll_aton_runtime.c ****   nn_instance->exec_state.current_epoch_block_started = false;
 478:../../Middlewares/AI_Runtime/Npu/ll_aton/ll_aton_runtime.c **** #endif // (LL_ATON_RT_MODE == LL_ATON_RT_ASYNC)
 479:../../Middlewares/AI_Runtime/Npu/ll_aton/ll_aton_runtime.c **** }
 480:../../Middlewares/AI_Runtime/Npu/ll_aton/ll_aton_runtime.c **** 
 481:../../Middlewares/AI_Runtime/Npu/ll_aton/ll_aton_runtime.c **** /**
 482:../../Middlewares/AI_Runtime/Npu/ll_aton/ll_aton_runtime.c ****  * @brief Reset network instance for getting ready for a new inference
 483:../../Middlewares/AI_Runtime/Npu/ll_aton/ll_aton_runtime.c ****  * @param nn_instance Pointer to network instance to initialize
 484:../../Middlewares/AI_Runtime/Npu/ll_aton/ll_aton_runtime.c ****  */
 485:../../Middlewares/AI_Runtime/Npu/ll_aton/ll_aton_runtime.c **** void LL_ATON_RT_Reset_Network(NN_Instance_TypeDef *nn_instance)
 486:../../Middlewares/AI_Runtime/Npu/ll_aton/ll_aton_runtime.c **** {
 487:../../Middlewares/AI_Runtime/Npu/ll_aton/ll_aton_runtime.c ****   LL_ATON_RT_DeInit_Network(nn_instance);
 488:../../Middlewares/AI_Runtime/Npu/ll_aton/ll_aton_runtime.c ****   __LL_ATON_RT_Init_Network(nn_instance);
 489:../../Middlewares/AI_Runtime/Npu/ll_aton/ll_aton_runtime.c **** }
 490:../../Middlewares/AI_Runtime/Npu/ll_aton/ll_aton_runtime.c **** 
 491:../../Middlewares/AI_Runtime/Npu/ll_aton/ll_aton_runtime.c **** /**
 492:../../Middlewares/AI_Runtime/Npu/ll_aton/ll_aton_runtime.c ****  * @brief Initialize the ATON runtime
 493:../../Middlewares/AI_Runtime/Npu/ll_aton/ll_aton_runtime.c ****  */
 494:../../Middlewares/AI_Runtime/Npu/ll_aton/ll_aton_runtime.c **** void LL_ATON_RT_RuntimeInit(void)
 495:../../Middlewares/AI_Runtime/Npu/ll_aton/ll_aton_runtime.c **** {
 496:../../Middlewares/AI_Runtime/Npu/ll_aton/ll_aton_runtime.c ****   /** Initialize ATON IPs **/
 497:../../Middlewares/AI_Runtime/Npu/ll_aton/ll_aton_runtime.c ****   LL_ATON_Init();
 498:../../Middlewares/AI_Runtime/Npu/ll_aton/ll_aton_runtime.c **** 
 499:../../Middlewares/AI_Runtime/Npu/ll_aton/ll_aton_runtime.c ****   /** Initialize IRQ Context **/
 500:../../Middlewares/AI_Runtime/Npu/ll_aton/ll_aton_runtime.c ****   {
 501:../../Middlewares/AI_Runtime/Npu/ll_aton/ll_aton_runtime.c ****     uint32_t t;
 502:../../Middlewares/AI_Runtime/Npu/ll_aton/ll_aton_runtime.c **** 
 503:../../Middlewares/AI_Runtime/Npu/ll_aton/ll_aton_runtime.c ****     /* Disable & Clear interrupt controller */
 504:../../Middlewares/AI_Runtime/Npu/ll_aton/ll_aton_runtime.c ****     ATON_DISABLE_CLR_CONFCLR(INTCTRL, 0);
 505:../../Middlewares/AI_Runtime/Npu/ll_aton/ll_aton_runtime.c **** 
 506:../../Middlewares/AI_Runtime/Npu/ll_aton/ll_aton_runtime.c ****     /* Preset Interrupt Controller masks */
 507:../../Middlewares/AI_Runtime/Npu/ll_aton/ll_aton_runtime.c ****     ATON_INTCTRL_STD_INTORMSK_SET(ATON_STRENG_INT_MASK(
 508:../../Middlewares/AI_Runtime/Npu/ll_aton/ll_aton_runtime.c ****         ATON_STRENG_NUM, 0, 0)); // OR-mask: disable all streaming engine events and enable all oth
 509:../../Middlewares/AI_Runtime/Npu/ll_aton/ll_aton_runtime.c ****     ATON_INTCTRL_STD_INTANDMSK_SET(0xFFFFFFFF); // AND-mask: disable all events & errors
 510:../../Middlewares/AI_Runtime/Npu/ll_aton/ll_aton_runtime.c **** 
 511:../../Middlewares/AI_Runtime/Npu/ll_aton/ll_aton_runtime.c **** #if (ATON_INT_NR > 32)
 512:../../Middlewares/AI_Runtime/Npu/ll_aton/ll_aton_runtime.c ****     ATON_INTCTRL_STD_INTORMSK_H_SET(0);           // OR-mask: enable all events & errors
 513:../../Middlewares/AI_Runtime/Npu/ll_aton/ll_aton_runtime.c ****     ATON_INTCTRL_STD_INTANDMSK_H_SET(0xFFFFFFFF); // AND-mask: disable all events & errors
ARM GAS  C:\Users\Antonio\AppData\Local\Temp\ccCbPHYL.s 			page 43


 514:../../Middlewares/AI_Runtime/Npu/ll_aton/ll_aton_runtime.c **** #endif
 515:../../Middlewares/AI_Runtime/Npu/ll_aton/ll_aton_runtime.c **** 
 516:../../Middlewares/AI_Runtime/Npu/ll_aton/ll_aton_runtime.c ****     /* Enable Interrupt Controller (again) */
 517:../../Middlewares/AI_Runtime/Npu/ll_aton/ll_aton_runtime.c ****     ATON_ENABLE(INTCTRL, 0);
 518:../../Middlewares/AI_Runtime/Npu/ll_aton/ll_aton_runtime.c ****   }
 519:../../Middlewares/AI_Runtime/Npu/ll_aton/ll_aton_runtime.c **** 
 520:../../Middlewares/AI_Runtime/Npu/ll_aton/ll_aton_runtime.c ****   /** Initialize OSAL layer **/
 521:../../Middlewares/AI_Runtime/Npu/ll_aton/ll_aton_runtime.c ****   LL_ATON_OSAL_INIT();
 522:../../Middlewares/AI_Runtime/Npu/ll_aton/ll_aton_runtime.c **** 
 523:../../Middlewares/AI_Runtime/Npu/ll_aton/ll_aton_runtime.c ****   /** Disable all four ATON interrupts **/
 524:../../Middlewares/AI_Runtime/Npu/ll_aton/ll_aton_runtime.c ****   LL_ATON_DISABLE_ALL_IRQs();
 525:../../Middlewares/AI_Runtime/Npu/ll_aton/ll_aton_runtime.c **** 
 526:../../Middlewares/AI_Runtime/Npu/ll_aton/ll_aton_runtime.c ****   /** Install IRQ handler **/
 527:../../Middlewares/AI_Runtime/Npu/ll_aton/ll_aton_runtime.c ****   LL_ATON_OSAL_INSTALL_IRQ(ATON_STD_IRQ_LINE, ATON_STD_IRQHandler);
 528:../../Middlewares/AI_Runtime/Npu/ll_aton/ll_aton_runtime.c **** 
 529:../../Middlewares/AI_Runtime/Npu/ll_aton/ll_aton_runtime.c ****   /** Enable ATON `ATON_STD_IRQ_LINE` interrupt **/
 530:../../Middlewares/AI_Runtime/Npu/ll_aton/ll_aton_runtime.c ****   LL_ATON_OSAL_ENABLE_IRQ(ATON_STD_IRQ_LINE);
 531:../../Middlewares/AI_Runtime/Npu/ll_aton/ll_aton_runtime.c **** 
 532:../../Middlewares/AI_Runtime/Npu/ll_aton/ll_aton_runtime.c ****   /** After having initialized ATON call callback (which among others might initialize further subs
 533:../../Middlewares/AI_Runtime/Npu/ll_aton/ll_aton_runtime.c ****   if (ll_aton_init_deinit_trace)
 534:../../Middlewares/AI_Runtime/Npu/ll_aton/ll_aton_runtime.c ****     ll_aton_init_deinit_trace(LL_ATON_RT_Callbacktype_RT_Init);
 535:../../Middlewares/AI_Runtime/Npu/ll_aton/ll_aton_runtime.c **** }
 536:../../Middlewares/AI_Runtime/Npu/ll_aton/ll_aton_runtime.c **** 
 537:../../Middlewares/AI_Runtime/Npu/ll_aton/ll_aton_runtime.c **** /**
 538:../../Middlewares/AI_Runtime/Npu/ll_aton/ll_aton_runtime.c ****  * @brief De-initialize the ATON runtime
 539:../../Middlewares/AI_Runtime/Npu/ll_aton/ll_aton_runtime.c ****  * @param nn_instance Pointer to network instance to de-initialize (optional - i.e. may be `NULL`, 
 540:../../Middlewares/AI_Runtime/Npu/ll_aton/ll_aton_runtime.c ****  * `LL_ATON_RT_DeInit_Network()`)
 541:../../Middlewares/AI_Runtime/Npu/ll_aton/ll_aton_runtime.c ****  */
 542:../../Middlewares/AI_Runtime/Npu/ll_aton/ll_aton_runtime.c **** void LL_ATON_RT_RuntimeDeInit(void)
 543:../../Middlewares/AI_Runtime/Npu/ll_aton/ll_aton_runtime.c **** {
 544:../../Middlewares/AI_Runtime/Npu/ll_aton/ll_aton_runtime.c ****   /* Call runtime de-init callback */
 545:../../Middlewares/AI_Runtime/Npu/ll_aton/ll_aton_runtime.c ****   if (ll_aton_init_deinit_trace)
 546:../../Middlewares/AI_Runtime/Npu/ll_aton/ll_aton_runtime.c ****     ll_aton_init_deinit_trace(LL_ATON_RT_Callbacktype_RT_Deinit);
 547:../../Middlewares/AI_Runtime/Npu/ll_aton/ll_aton_runtime.c **** 
 548:../../Middlewares/AI_Runtime/Npu/ll_aton/ll_aton_runtime.c ****   /* Disable all four ATON interrupts */
 549:../../Middlewares/AI_Runtime/Npu/ll_aton/ll_aton_runtime.c ****   LL_ATON_DISABLE_ALL_IRQs();
 550:../../Middlewares/AI_Runtime/Npu/ll_aton/ll_aton_runtime.c **** 
 551:../../Middlewares/AI_Runtime/Npu/ll_aton/ll_aton_runtime.c ****   /* Remove IRQ handler */
 552:../../Middlewares/AI_Runtime/Npu/ll_aton/ll_aton_runtime.c ****   LL_ATON_OSAL_REMOVE_IRQ(ATON_STD_IRQ_LINE);
 553:../../Middlewares/AI_Runtime/Npu/ll_aton/ll_aton_runtime.c **** 
 554:../../Middlewares/AI_Runtime/Npu/ll_aton/ll_aton_runtime.c ****   /* De-initialize OSAL layer */
 555:../../Middlewares/AI_Runtime/Npu/ll_aton/ll_aton_runtime.c ****   LL_ATON_OSAL_DEINIT();
 556:../../Middlewares/AI_Runtime/Npu/ll_aton/ll_aton_runtime.c **** 
 557:../../Middlewares/AI_Runtime/Npu/ll_aton/ll_aton_runtime.c ****   /* De-initialize ATON IPs */
 558:../../Middlewares/AI_Runtime/Npu/ll_aton/ll_aton_runtime.c ****   LL_ATON_DeInit();
 559:../../Middlewares/AI_Runtime/Npu/ll_aton/ll_aton_runtime.c **** }
 560:../../Middlewares/AI_Runtime/Npu/ll_aton/ll_aton_runtime.c **** 
 561:../../Middlewares/AI_Runtime/Npu/ll_aton/ll_aton_runtime.c **** /**
 562:../../Middlewares/AI_Runtime/Npu/ll_aton/ll_aton_runtime.c ****  * @brief  Checks status of previously started epoch block and
 563:../../Middlewares/AI_Runtime/Npu/ll_aton/ll_aton_runtime.c ****  *         starts execution of next epoch block of the NN provided the previous epoch block has ter
 564:../../Middlewares/AI_Runtime/Npu/ll_aton/ll_aton_runtime.c ****  * @param nn_instance Pointer to network instance to run/continue (may not be `NULL`)
 565:../../Middlewares/AI_Runtime/Npu/ll_aton/ll_aton_runtime.c ****  * @retval LL_ATON_RT_NO_WFE  Next epoch block may be started, NN execution not finished, do not ca
 566:../../Middlewares/AI_Runtime/Npu/ll_aton/ll_aton_runtime.c ****  *                            `LL_ATON_OSAL_WFE()`
 567:../../Middlewares/AI_Runtime/Npu/ll_aton/ll_aton_runtime.c ****  * @retval LL_ATON_RT_WFE     Epoch block is still running, NN execution not finished, you may call
 568:../../Middlewares/AI_Runtime/Npu/ll_aton/ll_aton_runtime.c ****  *                            `LL_ATON_OSAL_WFE()`.
 569:../../Middlewares/AI_Runtime/Npu/ll_aton/ll_aton_runtime.c ****  *                            NOTE, that in this case no other network instance may be run/continue
 570:../../Middlewares/AI_Runtime/Npu/ll_aton/ll_aton_runtime.c ****  *                            same thread!
ARM GAS  C:\Users\Antonio\AppData\Local\Temp\ccCbPHYL.s 			page 44


 571:../../Middlewares/AI_Runtime/Npu/ll_aton/ll_aton_runtime.c ****  *                            It is entirely the user's responsibility to comply with this restrict
 572:../../Middlewares/AI_Runtime/Npu/ll_aton/ll_aton_runtime.c ****  * @retval LL_ATON_RT_DONE    NN execution finished
 573:../../Middlewares/AI_Runtime/Npu/ll_aton/ll_aton_runtime.c ****  */
 574:../../Middlewares/AI_Runtime/Npu/ll_aton/ll_aton_runtime.c **** LL_ATON_RT_RetValues_t LL_ATON_RT_RunEpochBlock(NN_Instance_TypeDef *nn_instance)
 575:../../Middlewares/AI_Runtime/Npu/ll_aton/ll_aton_runtime.c **** {
 576:../../Middlewares/AI_Runtime/Npu/ll_aton/ll_aton_runtime.c ****   LL_ATON_ASSERT(nn_instance != NULL);
 577:../../Middlewares/AI_Runtime/Npu/ll_aton/ll_aton_runtime.c **** 
 578:../../Middlewares/AI_Runtime/Npu/ll_aton/ll_aton_runtime.c ****   /* Test for wrong/missing initialization */
 579:../../Middlewares/AI_Runtime/Npu/ll_aton/ll_aton_runtime.c ****   LL_ATON_ASSERT(nn_instance->exec_state.current_epoch_block != NULL); // should never happen
 580:../../Middlewares/AI_Runtime/Npu/ll_aton/ll_aton_runtime.c **** 
 581:../../Middlewares/AI_Runtime/Npu/ll_aton/ll_aton_runtime.c ****   /* Check if network is starting a new inference */
 582:../../Middlewares/AI_Runtime/Npu/ll_aton/ll_aton_runtime.c ****   if (nn_instance->exec_state.inference_started == false)
 583:../../Middlewares/AI_Runtime/Npu/ll_aton/ll_aton_runtime.c ****   {
 584:../../Middlewares/AI_Runtime/Npu/ll_aton/ll_aton_runtime.c ****     /* Perform epoch controller blob relocation updates */
 585:../../Middlewares/AI_Runtime/Npu/ll_aton/ll_aton_runtime.c **** #if defined(LL_ATON_RT_RELOC)
 586:../../Middlewares/AI_Runtime/Npu/ll_aton/ll_aton_runtime.c ****     bool ret = false;
 587:../../Middlewares/AI_Runtime/Npu/ll_aton/ll_aton_runtime.c ****     if (nn_instance->exec_state.inst_reloc != 0)
 588:../../Middlewares/AI_Runtime/Npu/ll_aton/ll_aton_runtime.c ****     {
 589:../../Middlewares/AI_Runtime/Npu/ll_aton/ll_aton_runtime.c ****       ret = ai_rel_network_ec_inference_init(nn_instance->exec_state.inst_reloc);
 590:../../Middlewares/AI_Runtime/Npu/ll_aton/ll_aton_runtime.c ****     }
 591:../../Middlewares/AI_Runtime/Npu/ll_aton/ll_aton_runtime.c ****     else
 592:../../Middlewares/AI_Runtime/Npu/ll_aton/ll_aton_runtime.c ****     {
 593:../../Middlewares/AI_Runtime/Npu/ll_aton/ll_aton_runtime.c ****       LL_ATON_ASSERT((nn_instance->network != NULL) && (nn_instance->network->ec_inference_init != 
 594:../../Middlewares/AI_Runtime/Npu/ll_aton/ll_aton_runtime.c ****       ret = nn_instance->network->ec_inference_init();
 595:../../Middlewares/AI_Runtime/Npu/ll_aton/ll_aton_runtime.c ****     }
 596:../../Middlewares/AI_Runtime/Npu/ll_aton/ll_aton_runtime.c **** #else
 597:../../Middlewares/AI_Runtime/Npu/ll_aton/ll_aton_runtime.c ****     LL_ATON_ASSERT((nn_instance->network != NULL) && (nn_instance->network->ec_inference_init != NU
 598:../../Middlewares/AI_Runtime/Npu/ll_aton/ll_aton_runtime.c ****     bool ret = nn_instance->network->ec_inference_init();
 599:../../Middlewares/AI_Runtime/Npu/ll_aton/ll_aton_runtime.c **** #endif
 600:../../Middlewares/AI_Runtime/Npu/ll_aton/ll_aton_runtime.c **** 
 601:../../Middlewares/AI_Runtime/Npu/ll_aton/ll_aton_runtime.c ****     LL_ATON_ASSERT(ret == true);
 602:../../Middlewares/AI_Runtime/Npu/ll_aton/ll_aton_runtime.c ****     LL_ATON_LIB_UNUSED(ret);
 603:../../Middlewares/AI_Runtime/Npu/ll_aton/ll_aton_runtime.c **** 
 604:../../Middlewares/AI_Runtime/Npu/ll_aton/ll_aton_runtime.c ****     /* Set inference started flag to `true` */
 605:../../Middlewares/AI_Runtime/Npu/ll_aton/ll_aton_runtime.c ****     nn_instance->exec_state.inference_started = true;
 606:../../Middlewares/AI_Runtime/Npu/ll_aton/ll_aton_runtime.c **** 
 607:../../Middlewares/AI_Runtime/Npu/ll_aton/ll_aton_runtime.c ****     /* Placeholder for things which need to be done before starting an inference */
 608:../../Middlewares/AI_Runtime/Npu/ll_aton/ll_aton_runtime.c ****     /* ==> here <== */
 609:../../Middlewares/AI_Runtime/Npu/ll_aton/ll_aton_runtime.c ****   }
 610:../../Middlewares/AI_Runtime/Npu/ll_aton/ll_aton_runtime.c **** 
 611:../../Middlewares/AI_Runtime/Npu/ll_aton/ll_aton_runtime.c **** #if (LL_ATON_RT_MODE == LL_ATON_RT_ASYNC)
 612:../../Middlewares/AI_Runtime/Npu/ll_aton/ll_aton_runtime.c ****   bool this_run_executed_end_epoch = false;
 613:../../Middlewares/AI_Runtime/Npu/ll_aton/ll_aton_runtime.c **** #endif // (LL_ATON_RT_MODE == LL_ATON_RT_ASYNC)
 614:../../Middlewares/AI_Runtime/Npu/ll_aton/ll_aton_runtime.c **** 
 615:../../Middlewares/AI_Runtime/Npu/ll_aton/ll_aton_runtime.c ****   while (true)
 616:../../Middlewares/AI_Runtime/Npu/ll_aton/ll_aton_runtime.c ****   {
 617:../../Middlewares/AI_Runtime/Npu/ll_aton/ll_aton_runtime.c **** #if (LL_ATON_RT_MODE == LL_ATON_RT_ASYNC)
 618:../../Middlewares/AI_Runtime/Npu/ll_aton/ll_aton_runtime.c ****     /* wait for current epoch block to finish */
 619:../../Middlewares/AI_Runtime/Npu/ll_aton/ll_aton_runtime.c ****     uint32_t _wait_mask = __LL_ATON_RT_GetWaitMask(nn_instance->exec_state.current_epoch_block);
 620:../../Middlewares/AI_Runtime/Npu/ll_aton/ll_aton_runtime.c ****     if (nn_instance->exec_state.current_epoch_block_started && (_wait_mask != 0))
 621:../../Middlewares/AI_Runtime/Npu/ll_aton/ll_aton_runtime.c ****     {
 622:../../Middlewares/AI_Runtime/Npu/ll_aton/ll_aton_runtime.c ****       if ((nn_instance->exec_state.triggered_events & _wait_mask) == _wait_mask)
 623:../../Middlewares/AI_Runtime/Npu/ll_aton/ll_aton_runtime.c ****       {
 624:../../Middlewares/AI_Runtime/Npu/ll_aton/ll_aton_runtime.c ****         /* Enter critical section */
 625:../../Middlewares/AI_Runtime/Npu/ll_aton/ll_aton_runtime.c ****         LL_ATON_ASSERT(__ll_current_aton_ip_owner ==
 626:../../Middlewares/AI_Runtime/Npu/ll_aton/ll_aton_runtime.c ****                        nn_instance); // when entering a critical section we MUST hold the ATON IP l
 627:../../Middlewares/AI_Runtime/Npu/ll_aton/ll_aton_runtime.c ****         LL_ATON_OSAL_ENTER_CS();
ARM GAS  C:\Users\Antonio\AppData\Local\Temp\ccCbPHYL.s 			page 45


 628:../../Middlewares/AI_Runtime/Npu/ll_aton/ll_aton_runtime.c **** 
 629:../../Middlewares/AI_Runtime/Npu/ll_aton/ll_aton_runtime.c ****         /* reset triggered events */
 630:../../Middlewares/AI_Runtime/Npu/ll_aton/ll_aton_runtime.c ****         nn_instance->exec_state.triggered_events &= ~_wait_mask;
 631:../../Middlewares/AI_Runtime/Npu/ll_aton/ll_aton_runtime.c **** 
 632:../../Middlewares/AI_Runtime/Npu/ll_aton/ll_aton_runtime.c ****         /* Exit critical section */
 633:../../Middlewares/AI_Runtime/Npu/ll_aton/ll_aton_runtime.c ****         LL_ATON_OSAL_EXIT_CS();
 634:../../Middlewares/AI_Runtime/Npu/ll_aton/ll_aton_runtime.c **** 
 635:../../Middlewares/AI_Runtime/Npu/ll_aton/ll_aton_runtime.c ****         /* end/clean-up epoch block */
 636:../../Middlewares/AI_Runtime/Npu/ll_aton/ll_aton_runtime.c ****         __LL_ATON_RT_ExecEndEpochBlock(nn_instance->exec_state.current_epoch_block, nn_instance);
 637:../../Middlewares/AI_Runtime/Npu/ll_aton/ll_aton_runtime.c ****         this_run_executed_end_epoch = true;
 638:../../Middlewares/AI_Runtime/Npu/ll_aton/ll_aton_runtime.c **** 
 639:../../Middlewares/AI_Runtime/Npu/ll_aton/ll_aton_runtime.c ****         /* advance epoch block */
 640:../../Middlewares/AI_Runtime/Npu/ll_aton/ll_aton_runtime.c ****         __LL_ATON_RT_DetermineNextEpochBlock(nn_instance);
 641:../../Middlewares/AI_Runtime/Npu/ll_aton/ll_aton_runtime.c ****       }
 642:../../Middlewares/AI_Runtime/Npu/ll_aton/ll_aton_runtime.c ****       else
 643:../../Middlewares/AI_Runtime/Npu/ll_aton/ll_aton_runtime.c ****       {
 644:../../Middlewares/AI_Runtime/Npu/ll_aton/ll_aton_runtime.c ****         /* Return to main loop */
 645:../../Middlewares/AI_Runtime/Npu/ll_aton/ll_aton_runtime.c ****         return LL_ATON_RT_WFE;
 646:../../Middlewares/AI_Runtime/Npu/ll_aton/ll_aton_runtime.c ****       }
 647:../../Middlewares/AI_Runtime/Npu/ll_aton/ll_aton_runtime.c ****     }
 648:../../Middlewares/AI_Runtime/Npu/ll_aton/ll_aton_runtime.c **** #endif // (LL_ATON_RT_MODE == LL_ATON_RT_ASYNC)
 649:../../Middlewares/AI_Runtime/Npu/ll_aton/ll_aton_runtime.c **** 
 650:../../Middlewares/AI_Runtime/Npu/ll_aton/ll_aton_runtime.c ****     /* test for last epoch block */
 651:../../Middlewares/AI_Runtime/Npu/ll_aton/ll_aton_runtime.c ****     if (EpochBlock_IsLastEpochBlock(nn_instance->exec_state.current_epoch_block))
 652:../../Middlewares/AI_Runtime/Npu/ll_aton/ll_aton_runtime.c ****     {
 653:../../Middlewares/AI_Runtime/Npu/ll_aton/ll_aton_runtime.c ****       if (nn_instance->exec_state.saved_current_epoch_block != NULL)
 654:../../Middlewares/AI_Runtime/Npu/ll_aton/ll_aton_runtime.c ****       {
 655:../../Middlewares/AI_Runtime/Npu/ll_aton/ll_aton_runtime.c ****         /* return from inserted epoch block */
 656:../../Middlewares/AI_Runtime/Npu/ll_aton/ll_aton_runtime.c ****         __LL_ATON_RT_RetFromLibEpochBlockArray(true, nn_instance);
 657:../../Middlewares/AI_Runtime/Npu/ll_aton/ll_aton_runtime.c **** 
 658:../../Middlewares/AI_Runtime/Npu/ll_aton/ll_aton_runtime.c ****         /* advance epoch block */
 659:../../Middlewares/AI_Runtime/Npu/ll_aton/ll_aton_runtime.c ****         nn_instance->exec_state.current_epoch_block++;
 660:../../Middlewares/AI_Runtime/Npu/ll_aton/ll_aton_runtime.c **** 
 661:../../Middlewares/AI_Runtime/Npu/ll_aton/ll_aton_runtime.c ****         /* Return to main loop (but do NOT call `LL_ATON_OSAL_WFE())`) */
 662:../../Middlewares/AI_Runtime/Npu/ll_aton/ll_aton_runtime.c ****         return LL_ATON_RT_NO_WFE;
 663:../../Middlewares/AI_Runtime/Npu/ll_aton/ll_aton_runtime.c ****       }
 664:../../Middlewares/AI_Runtime/Npu/ll_aton/ll_aton_runtime.c ****       else
 665:../../Middlewares/AI_Runtime/Npu/ll_aton/ll_aton_runtime.c ****       {
 666:../../Middlewares/AI_Runtime/Npu/ll_aton/ll_aton_runtime.c ****         /* Reached end of execution */
 667:../../Middlewares/AI_Runtime/Npu/ll_aton/ll_aton_runtime.c ****         return LL_ATON_RT_DONE;
 668:../../Middlewares/AI_Runtime/Npu/ll_aton/ll_aton_runtime.c ****       }
 669:../../Middlewares/AI_Runtime/Npu/ll_aton/ll_aton_runtime.c ****     }
 670:../../Middlewares/AI_Runtime/Npu/ll_aton/ll_aton_runtime.c **** 
 671:../../Middlewares/AI_Runtime/Npu/ll_aton/ll_aton_runtime.c ****     /* run/start current epoch block */
 672:../../Middlewares/AI_Runtime/Npu/ll_aton/ll_aton_runtime.c **** #if (LL_ATON_RT_MODE == LL_ATON_RT_ASYNC)
 673:../../Middlewares/AI_Runtime/Npu/ll_aton/ll_aton_runtime.c ****     if (this_run_executed_end_epoch)
 674:../../Middlewares/AI_Runtime/Npu/ll_aton/ll_aton_runtime.c ****     { // alow reset of network (see function `LL_ATON_RT_Reset_Network()`)
 675:../../Middlewares/AI_Runtime/Npu/ll_aton/ll_aton_runtime.c ****       /* Return to main loop (but do NOT call `LL_ATON_OSAL_WFE())`) */
 676:../../Middlewares/AI_Runtime/Npu/ll_aton/ll_aton_runtime.c ****       return LL_ATON_RT_NO_WFE;
 677:../../Middlewares/AI_Runtime/Npu/ll_aton/ll_aton_runtime.c ****     }
 678:../../Middlewares/AI_Runtime/Npu/ll_aton/ll_aton_runtime.c **** 
 679:../../Middlewares/AI_Runtime/Npu/ll_aton/ll_aton_runtime.c ****     if (!nn_instance->exec_state.current_epoch_block_started)
 680:../../Middlewares/AI_Runtime/Npu/ll_aton/ll_aton_runtime.c ****     {
 681:../../Middlewares/AI_Runtime/Npu/ll_aton/ll_aton_runtime.c ****       nn_instance->exec_state.current_epoch_block_started = true;
 682:../../Middlewares/AI_Runtime/Npu/ll_aton/ll_aton_runtime.c **** 
 683:../../Middlewares/AI_Runtime/Npu/ll_aton/ll_aton_runtime.c ****       __LL_ATON_RT_ExecStartEpochBlock(nn_instance->exec_state.current_epoch_block, nn_instance);
 684:../../Middlewares/AI_Runtime/Npu/ll_aton/ll_aton_runtime.c ****     }
ARM GAS  C:\Users\Antonio\AppData\Local\Temp\ccCbPHYL.s 			page 46


 685:../../Middlewares/AI_Runtime/Npu/ll_aton/ll_aton_runtime.c **** 
 686:../../Middlewares/AI_Runtime/Npu/ll_aton/ll_aton_runtime.c ****     /* End epoch block and advance to next one */
 687:../../Middlewares/AI_Runtime/Npu/ll_aton/ll_aton_runtime.c ****     if (__LL_ATON_RT_GetWaitMask(nn_instance->exec_state.current_epoch_block) == 0x0)
 688:../../Middlewares/AI_Runtime/Npu/ll_aton/ll_aton_runtime.c ****     {
 689:../../Middlewares/AI_Runtime/Npu/ll_aton/ll_aton_runtime.c ****       /* end/clean-up epoch block */
 690:../../Middlewares/AI_Runtime/Npu/ll_aton/ll_aton_runtime.c ****       __LL_ATON_RT_ExecEndEpochBlock(nn_instance->exec_state.current_epoch_block, nn_instance);
 691:../../Middlewares/AI_Runtime/Npu/ll_aton/ll_aton_runtime.c ****       this_run_executed_end_epoch = true; // has no effect (just for cosmetics)
 692:../../Middlewares/AI_Runtime/Npu/ll_aton/ll_aton_runtime.c **** 
 693:../../Middlewares/AI_Runtime/Npu/ll_aton/ll_aton_runtime.c ****       /* advance epoch block */
 694:../../Middlewares/AI_Runtime/Npu/ll_aton/ll_aton_runtime.c ****       __LL_ATON_RT_DetermineNextEpochBlock(nn_instance);
 695:../../Middlewares/AI_Runtime/Npu/ll_aton/ll_aton_runtime.c **** 
 696:../../Middlewares/AI_Runtime/Npu/ll_aton/ll_aton_runtime.c ****       /* Return to main loop (but do NOT call `LL_ATON_OSAL_WFE())`) */
 697:../../Middlewares/AI_Runtime/Npu/ll_aton/ll_aton_runtime.c ****       return LL_ATON_RT_NO_WFE;
 698:../../Middlewares/AI_Runtime/Npu/ll_aton/ll_aton_runtime.c ****     }
 699:../../Middlewares/AI_Runtime/Npu/ll_aton/ll_aton_runtime.c ****     else
 700:../../Middlewares/AI_Runtime/Npu/ll_aton/ll_aton_runtime.c ****     {
 701:../../Middlewares/AI_Runtime/Npu/ll_aton/ll_aton_runtime.c ****       /* Return to main loop */
 702:../../Middlewares/AI_Runtime/Npu/ll_aton/ll_aton_runtime.c ****       return LL_ATON_RT_WFE;
 703:../../Middlewares/AI_Runtime/Npu/ll_aton/ll_aton_runtime.c ****     }
 704:../../Middlewares/AI_Runtime/Npu/ll_aton/ll_aton_runtime.c **** 
 705:../../Middlewares/AI_Runtime/Npu/ll_aton/ll_aton_runtime.c **** #else // (LL_ATON_RT_MODE == LL_ATON_RT_POLLING)
 706:../../Middlewares/AI_Runtime/Npu/ll_aton/ll_aton_runtime.c **** 
 707:../../Middlewares/AI_Runtime/Npu/ll_aton/ll_aton_runtime.c ****     __LL_ATON_RT_ExecStartEpochBlock(nn_instance->exec_state.current_epoch_block, nn_instance);
 708:../../Middlewares/AI_Runtime/Npu/ll_aton/ll_aton_runtime.c **** 
 709:../../Middlewares/AI_Runtime/Npu/ll_aton/ll_aton_runtime.c ****     /* wait for end of epoch block */
 710:../../Middlewares/AI_Runtime/Npu/ll_aton/ll_aton_runtime.c ****     uint32_t _wait_mask = __LL_ATON_RT_GetWaitMask(nn_instance->exec_state.current_epoch_block);
 711:../../Middlewares/AI_Runtime/Npu/ll_aton/ll_aton_runtime.c ****     if (_wait_mask != 0)
 712:../../Middlewares/AI_Runtime/Npu/ll_aton/ll_aton_runtime.c ****     {
 713:../../Middlewares/AI_Runtime/Npu/ll_aton/ll_aton_runtime.c ****       /* Perform polling wait */
 714:../../Middlewares/AI_Runtime/Npu/ll_aton/ll_aton_runtime.c ****       if (EpochBlock_IsEpochBlob(nn_instance->exec_state.current_epoch_block))
 715:../../Middlewares/AI_Runtime/Npu/ll_aton/ll_aton_runtime.c ****       {
 716:../../Middlewares/AI_Runtime/Npu/ll_aton/ll_aton_runtime.c **** #if defined(ATON_EPOCHCTRL_NUM)
 717:../../Middlewares/AI_Runtime/Npu/ll_aton/ll_aton_runtime.c ****         LL_EpochCtrl_Wait(_wait_mask);
 718:../../Middlewares/AI_Runtime/Npu/ll_aton/ll_aton_runtime.c **** #else  // !ATON_EPOCHCTRL_NUM
 719:../../Middlewares/AI_Runtime/Npu/ll_aton/ll_aton_runtime.c ****         LL_ATON_ASSERT(false); // may never happen
 720:../../Middlewares/AI_Runtime/Npu/ll_aton/ll_aton_runtime.c **** #endif // !ATON_EPOCHCTRL_NUM
 721:../../Middlewares/AI_Runtime/Npu/ll_aton/ll_aton_runtime.c ****       }
 722:../../Middlewares/AI_Runtime/Npu/ll_aton/ll_aton_runtime.c ****       else
 723:../../Middlewares/AI_Runtime/Npu/ll_aton/ll_aton_runtime.c ****       {
 724:../../Middlewares/AI_Runtime/Npu/ll_aton/ll_aton_runtime.c ****         LL_Streng_Wait(_wait_mask);
 725:../../Middlewares/AI_Runtime/Npu/ll_aton/ll_aton_runtime.c ****       }
 726:../../Middlewares/AI_Runtime/Npu/ll_aton/ll_aton_runtime.c ****     }
 727:../../Middlewares/AI_Runtime/Npu/ll_aton/ll_aton_runtime.c **** 
 728:../../Middlewares/AI_Runtime/Npu/ll_aton/ll_aton_runtime.c ****     /* End epoch block and advance to next one */
 729:../../Middlewares/AI_Runtime/Npu/ll_aton/ll_aton_runtime.c ****     __LL_ATON_RT_ExecEndEpochBlock(nn_instance->exec_state.current_epoch_block, nn_instance);
 730:../../Middlewares/AI_Runtime/Npu/ll_aton/ll_aton_runtime.c **** 
 731:../../Middlewares/AI_Runtime/Npu/ll_aton/ll_aton_runtime.c ****     /* advance epoch block */
 732:../../Middlewares/AI_Runtime/Npu/ll_aton/ll_aton_runtime.c ****     __LL_ATON_RT_DetermineNextEpochBlock(nn_instance);
 733:../../Middlewares/AI_Runtime/Npu/ll_aton/ll_aton_runtime.c **** 
 734:../../Middlewares/AI_Runtime/Npu/ll_aton/ll_aton_runtime.c ****     /* Return to main loop (but do NOT call `LL_ATON_OSAL_WFE())`) */
 735:../../Middlewares/AI_Runtime/Npu/ll_aton/ll_aton_runtime.c ****     return LL_ATON_RT_NO_WFE;
 736:../../Middlewares/AI_Runtime/Npu/ll_aton/ll_aton_runtime.c **** 
 737:../../Middlewares/AI_Runtime/Npu/ll_aton/ll_aton_runtime.c **** #endif // (LL_ATON_RT_MODE == LL_ATON_RT_POLLING)
 738:../../Middlewares/AI_Runtime/Npu/ll_aton/ll_aton_runtime.c ****   }
 739:../../Middlewares/AI_Runtime/Npu/ll_aton/ll_aton_runtime.c **** }
 740:../../Middlewares/AI_Runtime/Npu/ll_aton/ll_aton_runtime.c **** 
 741:../../Middlewares/AI_Runtime/Npu/ll_aton/ll_aton_runtime.c **** /*** ATON Irq Handler ***/
ARM GAS  C:\Users\Antonio\AppData\Local\Temp\ccCbPHYL.s 			page 47


 742:../../Middlewares/AI_Runtime/Npu/ll_aton/ll_aton_runtime.c **** #define IRQ_ERR_MSG() LL_ATON_PRINTF("ATON_STD_IRQHandler()@%d: irqs=0x%" PRIx64 "\n", __LINE__, (u
 743:../../Middlewares/AI_Runtime/Npu/ll_aton/ll_aton_runtime.c **** 
 744:../../Middlewares/AI_Runtime/Npu/ll_aton/ll_aton_runtime.c **** // REMEMBER: mask out all interrupt from parameter `irqs` you do NOT want to be handled in beyond f
 745:../../Middlewares/AI_Runtime/Npu/ll_aton/ll_aton_runtime.c **** #if (ATON_INT_NR > 32)
 746:../../Middlewares/AI_Runtime/Npu/ll_aton/ll_aton_runtime.c **** static void __LL_ATON_RT_IrqErr(uint64_t irqs)
 747:../../Middlewares/AI_Runtime/Npu/ll_aton/ll_aton_runtime.c **** #else  //(ATON_INT_NR <= 32)
 748:../../Middlewares/AI_Runtime/Npu/ll_aton/ll_aton_runtime.c **** static void __LL_ATON_RT_IrqErr(uint32_t irqs)
 749:../../Middlewares/AI_Runtime/Npu/ll_aton/ll_aton_runtime.c **** #endif //(ATON_INT_NR <= 32)
 750:../../Middlewares/AI_Runtime/Npu/ll_aton/ll_aton_runtime.c **** {
 905              		.loc 1 750 1 view -0
 906              		.cfi_startproc
 907              		@ args = 0, pretend = 0, frame = 0
 908              		@ frame_needed = 0, uses_anonymous_args = 0
 751:../../Middlewares/AI_Runtime/Npu/ll_aton/ll_aton_runtime.c ****   extern void dump_dma_state(void);
 909              		.loc 1 751 3 view .LVU256
 752:../../Middlewares/AI_Runtime/Npu/ll_aton/ll_aton_runtime.c ****   int32_t i;
 910              		.loc 1 752 3 view .LVU257
 753:../../Middlewares/AI_Runtime/Npu/ll_aton/ll_aton_runtime.c **** 
 754:../../Middlewares/AI_Runtime/Npu/ll_aton/ll_aton_runtime.c ****   if (!irqs)
 911              		.loc 1 754 3 view .LVU258
 750:../../Middlewares/AI_Runtime/Npu/ll_aton/ll_aton_runtime.c ****   extern void dump_dma_state(void);
 912              		.loc 1 750 1 is_stmt 0 view .LVU259
 913 0000 38B5     		push	{r3, r4, r5, lr}
 914              		.cfi_def_cfa_offset 16
 915              		.cfi_offset 3, -16
 916              		.cfi_offset 4, -12
 917              		.cfi_offset 5, -8
 918              		.cfi_offset 14, -4
 919              		.loc 1 754 6 view .LVU260
 920 0002 0446     		mov	r4, r0
 921 0004 0028     		cmp	r0, #0
 922 0006 5BD0     		beq	.L117
 923              	.LVL54:
 924              	.LBB153:
 925              	.LBI153:
 748:../../Middlewares/AI_Runtime/Npu/ll_aton/ll_aton_runtime.c **** #endif //(ATON_INT_NR <= 32)
 926              		.loc 1 748 13 is_stmt 1 view .LVU261
 927              	.LBB154:
 755:../../Middlewares/AI_Runtime/Npu/ll_aton/ll_aton_runtime.c ****     return;
 756:../../Middlewares/AI_Runtime/Npu/ll_aton/ll_aton_runtime.c **** 
 757:../../Middlewares/AI_Runtime/Npu/ll_aton/ll_aton_runtime.c **** #ifdef ATON_STRENG_NUM
 758:../../Middlewares/AI_Runtime/Npu/ll_aton/ll_aton_runtime.c ****   /* Streaming Engine Error interrupts */
 759:../../Middlewares/AI_Runtime/Npu/ll_aton/ll_aton_runtime.c ****   if (irqs & ATON_INT_GET_MASK(ATON_STRENG_ERR_INT_MASK, ATON_STRENG_NUM))
 928              		.loc 1 759 3 view .LVU262
 929              		.loc 1 759 12 is_stmt 0 view .LVU263
 930 0008 2E4B     		ldr	r3, .L118
 931              		.loc 1 759 6 view .LVU264
 932 000a 0340     		ands	r3, r0, r3
 933 000c 07D0     		beq	.L81
 934              	.LBB155:
 760:../../Middlewares/AI_Runtime/Npu/ll_aton/ll_aton_runtime.c ****   {
 761:../../Middlewares/AI_Runtime/Npu/ll_aton/ll_aton_runtime.c **** #if (ATON_INT_NR > 32)
 762:../../Middlewares/AI_Runtime/Npu/ll_aton/ll_aton_runtime.c ****     int64_t masked_irqs; // must be signed for two's compliment `(-masked_irqs)`
 763:../../Middlewares/AI_Runtime/Npu/ll_aton/ll_aton_runtime.c **** #else                    //(ATON_INT_NR <= 32)
 764:../../Middlewares/AI_Runtime/Npu/ll_aton/ll_aton_runtime.c ****     int32_t masked_irqs; // must be signed for two's compliment `(-masked_irqs)`
 935              		.loc 1 764 5 is_stmt 1 view .LVU265
 765:../../Middlewares/AI_Runtime/Npu/ll_aton/ll_aton_runtime.c **** #endif                   //(ATON_INT_NR <= 32)
ARM GAS  C:\Users\Antonio\AppData\Local\Temp\ccCbPHYL.s 			page 48


 766:../../Middlewares/AI_Runtime/Npu/ll_aton/ll_aton_runtime.c **** 
 767:../../Middlewares/AI_Runtime/Npu/ll_aton/ll_aton_runtime.c ****     masked_irqs = (irqs & ATON_INT_GET_MASK(ATON_STRENG_ERR_INT_MASK, ATON_STRENG_NUM));
 936              		.loc 1 767 5 view .LVU266
 937              	.LVL55:
 768:../../Middlewares/AI_Runtime/Npu/ll_aton/ll_aton_runtime.c **** 
 769:../../Middlewares/AI_Runtime/Npu/ll_aton/ll_aton_runtime.c ****     // assumes that stream engine interrupts are assigned in the order of their engine number and t
 770:../../Middlewares/AI_Runtime/Npu/ll_aton/ll_aton_runtime.c ****     // within the `INTREG` register
 771:../../Middlewares/AI_Runtime/Npu/ll_aton/ll_aton_runtime.c ****     uint32_t streaming_engine_nr = (uint32_t)(masked_irqs & (-masked_irqs));
 938              		.loc 1 771 5 view .LVU267
 939              		.loc 1 771 62 is_stmt 0 view .LVU268
 940 000e 5942     		rsbs	r1, r3, #0
 941              		.loc 1 771 59 view .LVU269
 942 0010 1940     		ands	r1, r1, r3
 943              	.LVL56:
 772:../../Middlewares/AI_Runtime/Npu/ll_aton/ll_aton_runtime.c ****     streaming_engine_nr -= ATON_STRENG_INT(0);
 944              		.loc 1 772 5 is_stmt 1 view .LVU270
 773:../../Middlewares/AI_Runtime/Npu/ll_aton/ll_aton_runtime.c **** 
 774:../../Middlewares/AI_Runtime/Npu/ll_aton/ll_aton_runtime.c **** #ifndef NDEBUG
 775:../../Middlewares/AI_Runtime/Npu/ll_aton/ll_aton_runtime.c ****     uint32_t streng_err = ATON_STRENG_IRQ_GET(streaming_engine_nr);
 945              		.loc 1 775 5 view .LVU271
 946              		.loc 1 775 27 is_stmt 0 view .LVU272
 947 0012 2D4B     		ldr	r3, .L118+4
 948              	.LVL57:
 949              		.loc 1 775 27 view .LVU273
 950 0014 0A03     		lsls	r2, r1, #12
 951              		.loc 1 775 14 view .LVU274
 952 0016 D258     		ldr	r2, [r2, r3]
 953              	.LVL58:
 776:../../Middlewares/AI_Runtime/Npu/ll_aton/ll_aton_runtime.c ****     LL_ATON_PRINTF("Streaming engine #%u error interrupt: 0x%" PRIx32 "\n", streaming_engine_nr, st
 954              		.loc 1 776 5 is_stmt 1 view .LVU275
 955 0018 2C48     		ldr	r0, .L118+8
 956              	.LVL59:
 957              		.loc 1 776 5 is_stmt 0 view .LVU276
 958 001a FFF7FEFF 		bl	printf
 959              	.LVL60:
 960              	.L81:
 961              		.loc 1 776 5 view .LVU277
 962              	.LBE155:
 777:../../Middlewares/AI_Runtime/Npu/ll_aton/ll_aton_runtime.c **** #endif // NDEBUG
 778:../../Middlewares/AI_Runtime/Npu/ll_aton/ll_aton_runtime.c ****   }
 779:../../Middlewares/AI_Runtime/Npu/ll_aton/ll_aton_runtime.c ****   /* Streaming Engine interrupts */
 780:../../Middlewares/AI_Runtime/Npu/ll_aton/ll_aton_runtime.c ****   if (irqs & ATON_STRENG_INT_MASK(ATON_STRENG_NUM, 0, 0))
 963              		.loc 1 780 3 is_stmt 1 view .LVU278
 964              		.loc 1 780 12 is_stmt 0 view .LVU279
 965 001e C4F30903 		ubfx	r3, r4, #0, #10
 966              		.loc 1 780 6 view .LVU280
 967 0022 13B1     		cbz	r3, .L82
 781:../../Middlewares/AI_Runtime/Npu/ll_aton/ll_aton_runtime.c ****   {
 782:../../Middlewares/AI_Runtime/Npu/ll_aton/ll_aton_runtime.c ****     LL_ATON_PRINTF("Streaming engine completion interrupt\n");
 968              		.loc 1 782 5 is_stmt 1 view .LVU281
 969 0024 2A48     		ldr	r0, .L118+12
 970 0026 FFF7FEFF 		bl	puts
 971              	.LVL61:
 972              	.L82:
 783:../../Middlewares/AI_Runtime/Npu/ll_aton/ll_aton_runtime.c ****   }
 784:../../Middlewares/AI_Runtime/Npu/ll_aton/ll_aton_runtime.c **** #endif // ATON_STRENG_NUM
 785:../../Middlewares/AI_Runtime/Npu/ll_aton/ll_aton_runtime.c **** 
ARM GAS  C:\Users\Antonio\AppData\Local\Temp\ccCbPHYL.s 			page 49


 786:../../Middlewares/AI_Runtime/Npu/ll_aton/ll_aton_runtime.c **** #ifdef ATON_CONVACC_NUM
 787:../../Middlewares/AI_Runtime/Npu/ll_aton/ll_aton_runtime.c ****   /* Convolutional accelerators interrupts */
 788:../../Middlewares/AI_Runtime/Npu/ll_aton/ll_aton_runtime.c ****   if (irqs & ATON_INT_GET_MASK(ATON_CONVACC_INT_MASK, ATON_CONVACC_NUM))
 973              		.loc 1 788 3 view .LVU282
 974              		.loc 1 788 6 is_stmt 0 view .LVU283
 975 002a 14F4700F 		tst	r4, #15728640
 976 002e 02D0     		beq	.L83
 789:../../Middlewares/AI_Runtime/Npu/ll_aton/ll_aton_runtime.c ****   {
 790:../../Middlewares/AI_Runtime/Npu/ll_aton/ll_aton_runtime.c ****     LL_ATON_PRINTF("Convolutional accelerator interrupt\n");
 977              		.loc 1 790 5 is_stmt 1 view .LVU284
 978 0030 2848     		ldr	r0, .L118+16
 979 0032 FFF7FEFF 		bl	puts
 980              	.LVL62:
 981              	.L83:
 791:../../Middlewares/AI_Runtime/Npu/ll_aton/ll_aton_runtime.c ****   }
 792:../../Middlewares/AI_Runtime/Npu/ll_aton/ll_aton_runtime.c **** #endif // ATON_CONVACC_NUM
 793:../../Middlewares/AI_Runtime/Npu/ll_aton/ll_aton_runtime.c **** 
 794:../../Middlewares/AI_Runtime/Npu/ll_aton/ll_aton_runtime.c **** #if defined(ATON_RECBUF_NUM)
 795:../../Middlewares/AI_Runtime/Npu/ll_aton/ll_aton_runtime.c ****   /* Reconfigurable buffer interrupts */
 796:../../Middlewares/AI_Runtime/Npu/ll_aton/ll_aton_runtime.c ****   if (irqs & ATON_INT_GET_MASK(ATON_RECBUF_INT_MASK, ATON_RECBUF_NUM))
 982              		.loc 1 796 3 view .LVU285
 983              		.loc 1 796 6 is_stmt 0 view .LVU286
 984 0036 E501     		lsls	r5, r4, #7
 985 0038 02D5     		bpl	.L84
 797:../../Middlewares/AI_Runtime/Npu/ll_aton/ll_aton_runtime.c ****   {
 798:../../Middlewares/AI_Runtime/Npu/ll_aton/ll_aton_runtime.c ****     LL_ATON_PRINTF("Reconfigurable buffer interrupt\n");
 986              		.loc 1 798 5 is_stmt 1 view .LVU287
 987 003a 2748     		ldr	r0, .L118+20
 988 003c FFF7FEFF 		bl	puts
 989              	.LVL63:
 990              	.L84:
 799:../../Middlewares/AI_Runtime/Npu/ll_aton/ll_aton_runtime.c ****   }
 800:../../Middlewares/AI_Runtime/Npu/ll_aton/ll_aton_runtime.c **** #endif // ATON_RECBUF_NUM
 801:../../Middlewares/AI_Runtime/Npu/ll_aton/ll_aton_runtime.c **** 
 802:../../Middlewares/AI_Runtime/Npu/ll_aton/ll_aton_runtime.c **** #ifdef ATON_BUSIF_NUM
 803:../../Middlewares/AI_Runtime/Npu/ll_aton/ll_aton_runtime.c ****   /* Bus interface interrupts */
 804:../../Middlewares/AI_Runtime/Npu/ll_aton/ll_aton_runtime.c ****   if (irqs & ATON_INT_GET_MASK(ATON_BUSIF_INT_MASK, ATON_BUSIF_NUM))
 991              		.loc 1 804 3 view .LVU288
 992              		.loc 1 804 6 is_stmt 0 view .LVU289
 993 0040 14F0C06F 		tst	r4, #100663296
 994 0044 0ED0     		beq	.L85
 805:../../Middlewares/AI_Runtime/Npu/ll_aton/ll_aton_runtime.c ****   {
 806:../../Middlewares/AI_Runtime/Npu/ll_aton/ll_aton_runtime.c ****     LL_ATON_PRINTF("Bus interface interrupt\n");
 995              		.loc 1 806 5 is_stmt 1 view .LVU290
 996 0046 2548     		ldr	r0, .L118+24
 997 0048 FFF7FEFF 		bl	puts
 998              	.LVL64:
 807:../../Middlewares/AI_Runtime/Npu/ll_aton/ll_aton_runtime.c **** 
 808:../../Middlewares/AI_Runtime/Npu/ll_aton/ll_aton_runtime.c ****     /* Report offending stream engine */
 809:../../Middlewares/AI_Runtime/Npu/ll_aton/ll_aton_runtime.c ****     for (i = 0; i < ATON_BUSIF_NUM; i++)
 999              		.loc 1 809 5 view .LVU291
 1000              		.loc 1 809 19 discriminator 1 view .LVU292
 810:../../Middlewares/AI_Runtime/Npu/ll_aton/ll_aton_runtime.c ****       LL_ATON_PRINTF("BUSIF%" PRId32 " ERR: 0x%" PRIx32 "\n", i, ATON_BUSIF_ERR_GET(i));
 1001              		.loc 1 810 7 view .LVU293
 1002 004c 244B     		ldr	r3, .L118+28
 1003 004e 0021     		movs	r1, #0
 1004 0050 1A69     		ldr	r2, [r3, #16]
ARM GAS  C:\Users\Antonio\AppData\Local\Temp\ccCbPHYL.s 			page 50


 1005 0052 2448     		ldr	r0, .L118+32
 1006 0054 FFF7FEFF 		bl	printf
 1007              	.LVL65:
 809:../../Middlewares/AI_Runtime/Npu/ll_aton/ll_aton_runtime.c ****       LL_ATON_PRINTF("BUSIF%" PRId32 " ERR: 0x%" PRIx32 "\n", i, ATON_BUSIF_ERR_GET(i));
 1008              		.loc 1 809 38 discriminator 3 view .LVU294
 809:../../Middlewares/AI_Runtime/Npu/ll_aton/ll_aton_runtime.c ****       LL_ATON_PRINTF("BUSIF%" PRId32 " ERR: 0x%" PRIx32 "\n", i, ATON_BUSIF_ERR_GET(i));
 1009              		.loc 1 809 19 discriminator 1 view .LVU295
 1010              		.loc 1 810 7 view .LVU296
 1011 0058 234B     		ldr	r3, .L118+36
 1012 005a 0121     		movs	r1, #1
 1013 005c 1A69     		ldr	r2, [r3, #16]
 1014 005e 2148     		ldr	r0, .L118+32
 1015 0060 FFF7FEFF 		bl	printf
 1016              	.LVL66:
 809:../../Middlewares/AI_Runtime/Npu/ll_aton/ll_aton_runtime.c ****       LL_ATON_PRINTF("BUSIF%" PRId32 " ERR: 0x%" PRIx32 "\n", i, ATON_BUSIF_ERR_GET(i));
 1017              		.loc 1 809 38 discriminator 3 view .LVU297
 809:../../Middlewares/AI_Runtime/Npu/ll_aton/ll_aton_runtime.c ****       LL_ATON_PRINTF("BUSIF%" PRId32 " ERR: 0x%" PRIx32 "\n", i, ATON_BUSIF_ERR_GET(i));
 1018              		.loc 1 809 19 discriminator 1 view .LVU298
 1019              	.L85:
 811:../../Middlewares/AI_Runtime/Npu/ll_aton/ll_aton_runtime.c ****   }
 812:../../Middlewares/AI_Runtime/Npu/ll_aton/ll_aton_runtime.c **** #endif // ATON_BUSIF_NUM
 813:../../Middlewares/AI_Runtime/Npu/ll_aton/ll_aton_runtime.c **** 
 814:../../Middlewares/AI_Runtime/Npu/ll_aton/ll_aton_runtime.c **** #if defined(ATON_STRSWITCH_NUM)
 815:../../Middlewares/AI_Runtime/Npu/ll_aton/ll_aton_runtime.c ****   /* Stream switch interrupts */
 816:../../Middlewares/AI_Runtime/Npu/ll_aton/ll_aton_runtime.c ****   if (irqs & ATON_INT_GET_MASK(ATON_STRSWITCH_INT_MASK, ATON_STRSWITCH_NUM))
 1020              		.loc 1 816 3 view .LVU299
 1021              		.loc 1 816 6 is_stmt 0 view .LVU300
 1022 0064 2001     		lsls	r0, r4, #4
 1023 0066 02D5     		bpl	.L86
 817:../../Middlewares/AI_Runtime/Npu/ll_aton/ll_aton_runtime.c ****   {
 818:../../Middlewares/AI_Runtime/Npu/ll_aton/ll_aton_runtime.c ****     LL_ATON_PRINTF("Stream switch interrupt\n");
 1024              		.loc 1 818 5 is_stmt 1 view .LVU301
 1025 0068 2048     		ldr	r0, .L118+40
 1026 006a FFF7FEFF 		bl	puts
 1027              	.LVL67:
 1028              	.L86:
 819:../../Middlewares/AI_Runtime/Npu/ll_aton/ll_aton_runtime.c ****   }
 820:../../Middlewares/AI_Runtime/Npu/ll_aton/ll_aton_runtime.c **** #endif // ATON_STRSWITCH_NUM
 821:../../Middlewares/AI_Runtime/Npu/ll_aton/ll_aton_runtime.c **** 
 822:../../Middlewares/AI_Runtime/Npu/ll_aton/ll_aton_runtime.c **** #if defined(ATON_EPOCHCTRL_NUM)
 823:../../Middlewares/AI_Runtime/Npu/ll_aton/ll_aton_runtime.c ****   /* Epoch Controller interrupts */
 824:../../Middlewares/AI_Runtime/Npu/ll_aton/ll_aton_runtime.c ****   if (irqs & ATON_INT_GET_MASK(ATON_EPOCHCTRL_ERR_INT_MASK, ATON_EPOCHCTRL_NUM))
 1029              		.loc 1 824 3 view .LVU302
 1030              		.loc 1 824 6 is_stmt 0 view .LVU303
 1031 006e 6100     		lsls	r1, r4, #1
 1032 0070 0CD5     		bpl	.L87
 825:../../Middlewares/AI_Runtime/Npu/ll_aton/ll_aton_runtime.c ****   {
 826:../../Middlewares/AI_Runtime/Npu/ll_aton/ll_aton_runtime.c ****     LL_ATON_PRINTF("Epoch Controller ERROR interrupt: EC_IRQ = 0x%08" PRIx32 "\n", ATON_EPOCHCTRL_I
 1033              		.loc 1 826 5 is_stmt 1 view .LVU304
 1034 0072 1F4D     		ldr	r5, .L118+44
 1035 0074 1F48     		ldr	r0, .L118+48
 1036 0076 E968     		ldr	r1, [r5, #12]
 1037 0078 FFF7FEFF 		bl	printf
 1038              	.LVL68:
 827:../../Middlewares/AI_Runtime/Npu/ll_aton/ll_aton_runtime.c ****     LL_ATON_PRINTF("Epoch Controller opcode counter: 0x%08" PRIx32 "\n", ATON_EPOCHCTRL_BC_GET(0));
 1039              		.loc 1 827 5 view .LVU305
 1040 007c 296A     		ldr	r1, [r5, #32]
ARM GAS  C:\Users\Antonio\AppData\Local\Temp\ccCbPHYL.s 			page 51


 1041 007e 1E48     		ldr	r0, .L118+52
 1042 0080 FFF7FEFF 		bl	printf
 1043              	.LVL69:
 828:../../Middlewares/AI_Runtime/Npu/ll_aton/ll_aton_runtime.c ****     LL_ATON_PRINTF("Epoch Controller label: 0x%08" PRIx32 "\n", ATON_EPOCHCTRL_LABEL_GET(0));
 1044              		.loc 1 828 5 view .LVU306
 1045 0084 E969     		ldr	r1, [r5, #28]
 1046 0086 1D48     		ldr	r0, .L118+56
 1047 0088 FFF7FEFF 		bl	printf
 1048              	.LVL70:
 1049              	.L87:
 829:../../Middlewares/AI_Runtime/Npu/ll_aton/ll_aton_runtime.c ****   }
 830:../../Middlewares/AI_Runtime/Npu/ll_aton/ll_aton_runtime.c ****   if (irqs & ATON_INT_GET_MASK(ATON_EPOCHCTRL_NOACK_INT_MASK, ATON_EPOCHCTRL_NUM))
 1050              		.loc 1 830 3 view .LVU307
 1051              		.loc 1 830 6 is_stmt 0 view .LVU308
 1052 008c A200     		lsls	r2, r4, #2
 1053 008e 02D5     		bpl	.L88
 831:../../Middlewares/AI_Runtime/Npu/ll_aton/ll_aton_runtime.c ****   {
 832:../../Middlewares/AI_Runtime/Npu/ll_aton/ll_aton_runtime.c ****     LL_ATON_PRINTF("Epoch Controller NOACK interrupt\n");
 1054              		.loc 1 832 5 is_stmt 1 view .LVU309
 1055 0090 1B48     		ldr	r0, .L118+60
 1056 0092 FFF7FEFF 		bl	puts
 1057              	.LVL71:
 1058              	.L88:
 833:../../Middlewares/AI_Runtime/Npu/ll_aton/ll_aton_runtime.c ****   }
 834:../../Middlewares/AI_Runtime/Npu/ll_aton/ll_aton_runtime.c ****   if (irqs & ATON_INT_GET_MASK(ATON_EPOCHCTRL_INT_MASK, ATON_EPOCHCTRL_NUM))
 1059              		.loc 1 834 3 view .LVU310
 1060              		.loc 1 834 6 is_stmt 0 view .LVU311
 1061 0096 E300     		lsls	r3, r4, #3
 1062 0098 02D5     		bpl	.L89
 835:../../Middlewares/AI_Runtime/Npu/ll_aton/ll_aton_runtime.c ****   {
 836:../../Middlewares/AI_Runtime/Npu/ll_aton/ll_aton_runtime.c ****     LL_ATON_PRINTF("Epoch Controller interrupt\n");
 1063              		.loc 1 836 5 is_stmt 1 view .LVU312
 1064 009a 1A48     		ldr	r0, .L118+64
 1065 009c FFF7FEFF 		bl	puts
 1066              	.LVL72:
 1067              	.L89:
 837:../../Middlewares/AI_Runtime/Npu/ll_aton/ll_aton_runtime.c ****   }
 838:../../Middlewares/AI_Runtime/Npu/ll_aton/ll_aton_runtime.c **** #endif // ATON_EPOCHCTRL_NUM
 839:../../Middlewares/AI_Runtime/Npu/ll_aton/ll_aton_runtime.c **** 
 840:../../Middlewares/AI_Runtime/Npu/ll_aton/ll_aton_runtime.c ****   /* default error handling */
 841:../../Middlewares/AI_Runtime/Npu/ll_aton/ll_aton_runtime.c ****   dump_dma_state();
 1068              		.loc 1 841 3 view .LVU313
 1069 00a0 FFF7FEFF 		bl	dump_dma_state
 1070              	.LVL73:
 842:../../Middlewares/AI_Runtime/Npu/ll_aton/ll_aton_runtime.c ****   IRQ_ERR_MSG(); // just for debug
 1071              		.loc 1 842 3 view .LVU314
 1072 00a4 2246     		mov	r2, r4
 1073 00a6 0023     		movs	r3, #0
 1074 00a8 40F24A31 		movw	r1, #842
 1075 00ac 1648     		ldr	r0, .L118+68
 1076 00ae FFF7FEFF 		bl	printf
 1077              	.LVL74:
 843:../../Middlewares/AI_Runtime/Npu/ll_aton/ll_aton_runtime.c **** #if (ATON_PLAT_HAS_FFLUSH)
 844:../../Middlewares/AI_Runtime/Npu/ll_aton/ll_aton_runtime.c ****   LL_ATON_FFLUSH(stdout);
 845:../../Middlewares/AI_Runtime/Npu/ll_aton/ll_aton_runtime.c **** #endif
 846:../../Middlewares/AI_Runtime/Npu/ll_aton/ll_aton_runtime.c ****   LL_ATON_ASSERT(false); // may never happen
 1078              		.loc 1 846 3 view .LVU315
ARM GAS  C:\Users\Antonio\AppData\Local\Temp\ccCbPHYL.s 			page 52


 1079 00b2 40F24E31 		movw	r1, #846
 1080 00b6 154B     		ldr	r3, .L118+72
 1081 00b8 154A     		ldr	r2, .L118+76
 1082 00ba 1648     		ldr	r0, .L118+80
 1083 00bc FFF7FEFF 		bl	__assert_func
 1084              	.LVL75:
 1085              	.L117:
 1086              		.loc 1 846 3 is_stmt 0 view .LVU316
 1087              	.LBE154:
 1088              	.LBE153:
 847:../../Middlewares/AI_Runtime/Npu/ll_aton/ll_aton_runtime.c **** 
 848:../../Middlewares/AI_Runtime/Npu/ll_aton/ll_aton_runtime.c ****   // TODO: Treat as error!
 849:../../Middlewares/AI_Runtime/Npu/ll_aton/ll_aton_runtime.c ****   // All of the above not handled interrupts should be changed in a way that allows both a return f
 850:../../Middlewares/AI_Runtime/Npu/ll_aton/ll_aton_runtime.c ****   // this IRQ handler (w/o immediate re-entry) and to return control back to the user's main loop e
 851:../../Middlewares/AI_Runtime/Npu/ll_aton/ll_aton_runtime.c ****   // internal flag/variable to signal the error, then performing a `LL_ATON_RT_RuntimeDeInit()`, an
 852:../../Middlewares/AI_Runtime/Npu/ll_aton/ll_aton_runtime.c ****   // respective (new) return value (of type `LL_ATON_RT_RetValues_t`), reporting about the error, f
 853:../../Middlewares/AI_Runtime/Npu/ll_aton/ll_aton_runtime.c ****   // call to `LL_ATON_RT_RunEpochBlock()`
 854:../../Middlewares/AI_Runtime/Npu/ll_aton/ll_aton_runtime.c **** }
 1089              		.loc 1 854 1 view .LVU317
 1090 00c0 38BD     		pop	{r3, r4, r5, pc}
 1091              	.L119:
 1092 00c2 00BF     		.align	2
 1093              	.L118:
 1094 00c4 00FC0F00 		.word	1047552
 1095 00c8 3C500E58 		.word	1477333052
 1096 00cc 00000000 		.word	.LC13
 1097 00d0 2D000000 		.word	.LC14
 1098 00d4 53000000 		.word	.LC15
 1099 00d8 77000000 		.word	.LC16
 1100 00dc 97000000 		.word	.LC17
 1101 00e0 00200E58 		.word	1477320704
 1102 00e4 AF000000 		.word	.LC18
 1103 00e8 00300E58 		.word	1477324800
 1104 00ec C4000000 		.word	.LC19
 1105 00f0 00E00F58 		.word	1477435392
 1106 00f4 DC000000 		.word	.LC20
 1107 00f8 10010000 		.word	.LC21
 1108 00fc 3A010000 		.word	.LC22
 1109 0100 5B010000 		.word	.LC23
 1110 0104 7C010000 		.word	.LC24
 1111 0108 97010000 		.word	.LC25
 1112 010c BE010000 		.word	.LC26
 1113 0110 00000000 		.word	__func__.1
 1114 0114 09000000 		.word	.LC7
 1115              		.cfi_endproc
 1116              	.LFE4852:
 1118              		.section	.text.LL_ATON_RT_SetRuntimeCallback,"ax",%progbits
 1119              		.align	1
 1120              		.global	LL_ATON_RT_SetRuntimeCallback
 1121              		.syntax unified
 1122              		.thumb
 1123              		.thumb_func
 1125              	LL_ATON_RT_SetRuntimeCallback:
 1126              	.LVL76:
 1127              	.LFB4844:
 368:../../Middlewares/AI_Runtime/Npu/ll_aton/ll_aton_runtime.c ****   ll_aton_init_deinit_trace = rt_callback;
 1128              		.loc 1 368 1 is_stmt 1 view -0
ARM GAS  C:\Users\Antonio\AppData\Local\Temp\ccCbPHYL.s 			page 53


 1129              		.cfi_startproc
 1130              		@ args = 0, pretend = 0, frame = 0
 1131              		@ frame_needed = 0, uses_anonymous_args = 0
 1132              		@ link register save eliminated.
 369:../../Middlewares/AI_Runtime/Npu/ll_aton/ll_aton_runtime.c **** }
 1133              		.loc 1 369 3 view .LVU319
 369:../../Middlewares/AI_Runtime/Npu/ll_aton/ll_aton_runtime.c **** }
 1134              		.loc 1 369 29 is_stmt 0 view .LVU320
 1135 0000 014B     		ldr	r3, .L121
 1136 0002 1860     		str	r0, [r3]
 370:../../Middlewares/AI_Runtime/Npu/ll_aton/ll_aton_runtime.c **** 
 1137              		.loc 1 370 1 view .LVU321
 1138 0004 7047     		bx	lr
 1139              	.L122:
 1140 0006 00BF     		.align	2
 1141              	.L121:
 1142 0008 00000000 		.word	ll_aton_init_deinit_trace
 1143              		.cfi_endproc
 1144              	.LFE4844:
 1146              		.section	.text.LL_ATON_RT_SetEpochCallback,"ax",%progbits
 1147              		.align	1
 1148              		.global	LL_ATON_RT_SetEpochCallback
 1149              		.syntax unified
 1150              		.thumb
 1151              		.thumb_func
 1153              	LL_ATON_RT_SetEpochCallback:
 1154              	.LVL77:
 1155              	.LFB4845:
 386:../../Middlewares/AI_Runtime/Npu/ll_aton/ll_aton_runtime.c ****   LL_ATON_ASSERT(nn_instance != NULL);
 1156              		.loc 1 386 1 is_stmt 1 view -0
 1157              		.cfi_startproc
 1158              		@ args = 0, pretend = 0, frame = 0
 1159              		@ frame_needed = 0, uses_anonymous_args = 0
 387:../../Middlewares/AI_Runtime/Npu/ll_aton/ll_aton_runtime.c ****   nn_instance->exec_state.epoch_callback_function = epoch_block_callback;
 1160              		.loc 1 387 3 view .LVU323
 386:../../Middlewares/AI_Runtime/Npu/ll_aton/ll_aton_runtime.c ****   LL_ATON_ASSERT(nn_instance != NULL);
 1161              		.loc 1 386 1 is_stmt 0 view .LVU324
 1162 0000 08B5     		push	{r3, lr}
 1163              		.cfi_def_cfa_offset 8
 1164              		.cfi_offset 3, -8
 1165              		.cfi_offset 14, -4
 387:../../Middlewares/AI_Runtime/Npu/ll_aton/ll_aton_runtime.c ****   nn_instance->exec_state.epoch_callback_function = epoch_block_callback;
 1166              		.loc 1 387 3 view .LVU325
 1167 0002 31B9     		cbnz	r1, .L124
 387:../../Middlewares/AI_Runtime/Npu/ll_aton/ll_aton_runtime.c ****   nn_instance->exec_state.epoch_callback_function = epoch_block_callback;
 1168              		.loc 1 387 3 discriminator 1 view .LVU326
 1169 0004 40F28311 		movw	r1, #387
 1170              	.LVL78:
 387:../../Middlewares/AI_Runtime/Npu/ll_aton/ll_aton_runtime.c ****   nn_instance->exec_state.epoch_callback_function = epoch_block_callback;
 1171              		.loc 1 387 3 discriminator 1 view .LVU327
 1172 0008 034B     		ldr	r3, .L125
 1173 000a 044A     		ldr	r2, .L125+4
 1174 000c 0448     		ldr	r0, .L125+8
 1175              	.LVL79:
 387:../../Middlewares/AI_Runtime/Npu/ll_aton/ll_aton_runtime.c ****   nn_instance->exec_state.epoch_callback_function = epoch_block_callback;
 1176              		.loc 1 387 3 discriminator 1 view .LVU328
 1177 000e FFF7FEFF 		bl	__assert_func
ARM GAS  C:\Users\Antonio\AppData\Local\Temp\ccCbPHYL.s 			page 54


 1178              	.LVL80:
 1179              	.L124:
 388:../../Middlewares/AI_Runtime/Npu/ll_aton/ll_aton_runtime.c **** }
 1180              		.loc 1 388 3 is_stmt 1 view .LVU329
 388:../../Middlewares/AI_Runtime/Npu/ll_aton/ll_aton_runtime.c **** }
 1181              		.loc 1 388 51 is_stmt 0 view .LVU330
 1182 0012 C862     		str	r0, [r1, #44]
 389:../../Middlewares/AI_Runtime/Npu/ll_aton/ll_aton_runtime.c **** 
 1183              		.loc 1 389 1 view .LVU331
 1184 0014 08BD     		pop	{r3, pc}
 1185              	.L126:
 1186 0016 00BF     		.align	2
 1187              	.L125:
 1188 0018 00000000 		.word	.LC10
 1189 001c 00000000 		.word	__func__.15
 1190 0020 09000000 		.word	.LC7
 1191              		.cfi_endproc
 1192              	.LFE4845:
 1194              		.section	.rodata.LL_ATON_RT_Init_Network.str1.1,"aMS",%progbits,1
 1195              	.LC27:
 1196 0000 6E6E5F69 		.ascii	"nn_instance->network->ec_network_init != ((void *)0"
 1196      6E737461 
 1196      6E63652D 
 1196      3E6E6574 
 1196      776F726B 
 1197 0033 2900     		.ascii	")\000"
 1198              	.LC28:
 1199 0035 72657420 		.ascii	"ret == 1\000"
 1199      3D3D2031 
 1199      00
 1200              		.section	.text.LL_ATON_RT_Init_Network,"ax",%progbits
 1201              		.align	1
 1202              		.global	LL_ATON_RT_Init_Network
 1203              		.syntax unified
 1204              		.thumb
 1205              		.thumb_func
 1207              	LL_ATON_RT_Init_Network:
 1208              	.LVL81:
 1209              	.LFB4846:
 396:../../Middlewares/AI_Runtime/Npu/ll_aton/ll_aton_runtime.c ****   /** Exit if `nn_instance` is equal to NULL **/
 1210              		.loc 1 396 1 is_stmt 1 view -0
 1211              		.cfi_startproc
 1212              		@ args = 0, pretend = 0, frame = 0
 1213              		@ frame_needed = 0, uses_anonymous_args = 0
 398:../../Middlewares/AI_Runtime/Npu/ll_aton/ll_aton_runtime.c ****   {
 1214              		.loc 1 398 3 view .LVU333
 396:../../Middlewares/AI_Runtime/Npu/ll_aton/ll_aton_runtime.c ****   /** Exit if `nn_instance` is equal to NULL **/
 1215              		.loc 1 396 1 is_stmt 0 view .LVU334
 1216 0000 10B5     		push	{r4, lr}
 1217              		.cfi_def_cfa_offset 8
 1218              		.cfi_offset 4, -8
 1219              		.cfi_offset 14, -4
 398:../../Middlewares/AI_Runtime/Npu/ll_aton/ll_aton_runtime.c ****   {
 1220              		.loc 1 398 6 view .LVU335
 1221 0002 0446     		mov	r4, r0
 1222 0004 B0B1     		cbz	r0, .L127
 404:../../Middlewares/AI_Runtime/Npu/ll_aton/ll_aton_runtime.c ****   {
ARM GAS  C:\Users\Antonio\AppData\Local\Temp\ccCbPHYL.s 			page 55


 1223              		.loc 1 404 3 is_stmt 1 view .LVU336
 404:../../Middlewares/AI_Runtime/Npu/ll_aton/ll_aton_runtime.c ****   {
 1224              		.loc 1 404 18 is_stmt 0 view .LVU337
 1225 0006 0368     		ldr	r3, [r0]
 404:../../Middlewares/AI_Runtime/Npu/ll_aton/ll_aton_runtime.c ****   {
 1226              		.loc 1 404 6 view .LVU338
 1227 0008 A3B1     		cbz	r3, .L127
 422:../../Middlewares/AI_Runtime/Npu/ll_aton/ll_aton_runtime.c ****   bool ret = nn_instance->network->ec_network_init();
 1228              		.loc 1 422 3 is_stmt 1 view .LVU339
 1229 000a 5B68     		ldr	r3, [r3, #4]
 1230 000c 33B9     		cbnz	r3, .L129
 422:../../Middlewares/AI_Runtime/Npu/ll_aton/ll_aton_runtime.c ****   bool ret = nn_instance->network->ec_network_init();
 1231              		.loc 1 422 3 is_stmt 0 discriminator 1 view .LVU340
 1232 000e 4FF4D371 		mov	r1, #422
 1233 0012 094B     		ldr	r3, .L138
 1234 0014 094A     		ldr	r2, .L138+4
 1235              	.LVL82:
 1236              	.L137:
 425:../../Middlewares/AI_Runtime/Npu/ll_aton/ll_aton_runtime.c ****   LL_ATON_LIB_UNUSED(ret);
 1237              		.loc 1 425 3 discriminator 1 view .LVU341
 1238 0016 0A48     		ldr	r0, .L138+8
 1239 0018 FFF7FEFF 		bl	__assert_func
 1240              	.LVL83:
 1241              	.L129:
 423:../../Middlewares/AI_Runtime/Npu/ll_aton/ll_aton_runtime.c **** #endif
 1242              		.loc 1 423 3 is_stmt 1 view .LVU342
 423:../../Middlewares/AI_Runtime/Npu/ll_aton/ll_aton_runtime.c **** #endif
 1243              		.loc 1 423 14 is_stmt 0 view .LVU343
 1244 001c 9847     		blx	r3
 1245              	.LVL84:
 425:../../Middlewares/AI_Runtime/Npu/ll_aton/ll_aton_runtime.c ****   LL_ATON_LIB_UNUSED(ret);
 1246              		.loc 1 425 3 is_stmt 1 view .LVU344
 1247 001e 20B9     		cbnz	r0, .L130
 425:../../Middlewares/AI_Runtime/Npu/ll_aton/ll_aton_runtime.c ****   LL_ATON_LIB_UNUSED(ret);
 1248              		.loc 1 425 3 is_stmt 0 discriminator 1 view .LVU345
 1249 0020 40F2A911 		movw	r1, #425
 1250 0024 074B     		ldr	r3, .L138+12
 1251 0026 054A     		ldr	r2, .L138+4
 1252 0028 F5E7     		b	.L137
 1253              	.L130:
 426:../../Middlewares/AI_Runtime/Npu/ll_aton/ll_aton_runtime.c **** 
 1254              		.loc 1 426 3 is_stmt 1 view .LVU346
 429:../../Middlewares/AI_Runtime/Npu/ll_aton/ll_aton_runtime.c **** }
 1255              		.loc 1 429 3 view .LVU347
 1256 002a 2046     		mov	r0, r4
 1257              	.LVL85:
 430:../../Middlewares/AI_Runtime/Npu/ll_aton/ll_aton_runtime.c **** 
 1258              		.loc 1 430 1 is_stmt 0 view .LVU348
 1259 002c BDE81040 		pop	{r4, lr}
 1260              		.cfi_remember_state
 1261              		.cfi_restore 14
 1262              		.cfi_restore 4
 1263              		.cfi_def_cfa_offset 0
 1264              	.LVL86:
 429:../../Middlewares/AI_Runtime/Npu/ll_aton/ll_aton_runtime.c **** }
 1265              		.loc 1 429 3 view .LVU349
 1266 0030 FFF7FEBF 		b	__LL_ATON_RT_Init_Network
ARM GAS  C:\Users\Antonio\AppData\Local\Temp\ccCbPHYL.s 			page 56


 1267              	.LVL87:
 1268              	.L127:
 1269              		.cfi_restore_state
 430:../../Middlewares/AI_Runtime/Npu/ll_aton/ll_aton_runtime.c **** 
 1270              		.loc 1 430 1 view .LVU350
 1271 0034 10BD     		pop	{r4, pc}
 1272              	.L139:
 1273 0036 00BF     		.align	2
 1274              	.L138:
 1275 0038 00000000 		.word	.LC27
 1276 003c 00000000 		.word	__func__.14
 1277 0040 09000000 		.word	.LC7
 1278 0044 35000000 		.word	.LC28
 1279              		.cfi_endproc
 1280              	.LFE4846:
 1282              		.section	.text.LL_ATON_RT_DeInit_Network,"ax",%progbits
 1283              		.align	1
 1284              		.global	LL_ATON_RT_DeInit_Network
 1285              		.syntax unified
 1286              		.thumb
 1287              		.thumb_func
 1289              	LL_ATON_RT_DeInit_Network:
 1290              	.LVL88:
 1291              	.LFB4847:
 437:../../Middlewares/AI_Runtime/Npu/ll_aton/ll_aton_runtime.c ****   /** Exit if `nn_instance` is equal to NULL **/
 1292              		.loc 1 437 1 is_stmt 1 view -0
 1293              		.cfi_startproc
 1294              		@ args = 0, pretend = 0, frame = 0
 1295              		@ frame_needed = 0, uses_anonymous_args = 0
 439:../../Middlewares/AI_Runtime/Npu/ll_aton/ll_aton_runtime.c ****   {
 1296              		.loc 1 439 3 view .LVU352
 437:../../Middlewares/AI_Runtime/Npu/ll_aton/ll_aton_runtime.c ****   /** Exit if `nn_instance` is equal to NULL **/
 1297              		.loc 1 437 1 is_stmt 0 view .LVU353
 1298 0000 10B5     		push	{r4, lr}
 1299              		.cfi_def_cfa_offset 8
 1300              		.cfi_offset 4, -8
 1301              		.cfi_offset 14, -4
 439:../../Middlewares/AI_Runtime/Npu/ll_aton/ll_aton_runtime.c ****   {
 1302              		.loc 1 439 6 view .LVU354
 1303 0002 0446     		mov	r4, r0
 1304 0004 B8B1     		cbz	r0, .L140
