ARM GAS  C:\Users\Antonio\AppData\Local\Temp\cckMxgGh.s 			page 1


   1              		.arch armv8.1-m.main
   2              		.fpu fpv5-d16
   3              		.arch_extension dsp
   4              		.arch_extension fp
   5              		.arch_extension fp.dp
   6              		.arch_extension mve
   7              		.arch_extension mve.fp
   8              		.eabi_attribute 5, "cortex-m55"
   9              		.eabi_attribute 28, 1
  10              		.eabi_attribute 20, 1
  11              		.eabi_attribute 21, 1
  12              		.eabi_attribute 23, 3
  13              		.eabi_attribute 24, 1
  14              		.eabi_attribute 25, 1
  15              		.eabi_attribute 26, 1
  16              		.eabi_attribute 30, 4
  17              		.eabi_attribute 34, 1
  18              		.eabi_attribute 38, 1
  19              		.eabi_attribute 18, 4
  20              		.file	"ll_aton_rt_main.c"
  21              		.text
  22              	.Ltext0:
  23              		.cfi_sections	.debug_frame
  24              		.file 1 "../../Middlewares/AI_Runtime/Npu/ll_aton/ll_aton_rt_main.c"
  25              		.section	.rodata.LL_ATON_RT_Main.str1.1,"aMS",%progbits,1
  26              	.LC0:
  27 0000 6E657477 		.ascii	"network_instance != ((void *)0)\000"
  27      6F726B5F 
  27      696E7374 
  27      616E6365 
  27      20213D20 
  28              	.LC1:
  29 0020 2E2E2F2E 		.ascii	"../../Middlewares/AI_Runtime/Npu/ll_aton/ll_aton_rt"
  29      2E2F4D69 
  29      64646C65 
  29      77617265 
  29      732F4149 
  30 0053 5F6D6169 		.ascii	"_main.c\000"
  30      6E2E6300 
  31              	.LC2:
  32 005b 6E657477 		.ascii	"network_instance->network != ((void *)0)\000"
  32      6F726B5F 
  32      696E7374 
  32      616E6365 
  32      2D3E6E65 
  33              		.section	.text.LL_ATON_RT_Main,"ax",%progbits
  34              		.align	1
  35              		.global	LL_ATON_RT_Main
  36              		.syntax unified
  37              		.thumb
  38              		.thumb_func
  40              	LL_ATON_RT_Main:
  41              	.LVL0:
  42              	.LFB4832:
   1:../../Middlewares/AI_Runtime/Npu/ll_aton/ll_aton_rt_main.c **** /**
   2:../../Middlewares/AI_Runtime/Npu/ll_aton/ll_aton_rt_main.c ****  ******************************************************************************
   3:../../Middlewares/AI_Runtime/Npu/ll_aton/ll_aton_rt_main.c ****  * @file    ll_aton_rt_main.c
ARM GAS  C:\Users\Antonio\AppData\Local\Temp\cckMxgGh.s 			page 2


   4:../../Middlewares/AI_Runtime/Npu/ll_aton/ll_aton_rt_main.c ****  * @author  SRA Artificial Intelligence & Embedded Architectures
   5:../../Middlewares/AI_Runtime/Npu/ll_aton/ll_aton_rt_main.c ****  * @brief   Template `main()` function (named `LL_ATON_RT_Main()`) for
   6:../../Middlewares/AI_Runtime/Npu/ll_aton/ll_aton_rt_main.c ****  *          Cube.AI/ATON integration in a RTOS-less application.
   7:../../Middlewares/AI_Runtime/Npu/ll_aton/ll_aton_rt_main.c ****  * @note    This file is intended to be just a template and is limited to run the
   8:../../Middlewares/AI_Runtime/Npu/ll_aton/ll_aton_rt_main.c ****  *          ATON LL runtime with a single network instance for a single inference!
   9:../../Middlewares/AI_Runtime/Npu/ll_aton/ll_aton_rt_main.c ****  *          Please, generate your own embodiment of this file and customize it
  10:../../Middlewares/AI_Runtime/Npu/ll_aton/ll_aton_rt_main.c ****  *          so to fit the needs of your application.
  11:../../Middlewares/AI_Runtime/Npu/ll_aton/ll_aton_rt_main.c ****  ******************************************************************************
  12:../../Middlewares/AI_Runtime/Npu/ll_aton/ll_aton_rt_main.c ****  * @attention
  13:../../Middlewares/AI_Runtime/Npu/ll_aton/ll_aton_rt_main.c ****  *
  14:../../Middlewares/AI_Runtime/Npu/ll_aton/ll_aton_rt_main.c ****  * Copyright (c) 2024 STMicroelectronics.
  15:../../Middlewares/AI_Runtime/Npu/ll_aton/ll_aton_rt_main.c ****  * All rights reserved.
  16:../../Middlewares/AI_Runtime/Npu/ll_aton/ll_aton_rt_main.c ****  *
  17:../../Middlewares/AI_Runtime/Npu/ll_aton/ll_aton_rt_main.c ****  * This software is licensed under terms that can be found in the LICENSE file
  18:../../Middlewares/AI_Runtime/Npu/ll_aton/ll_aton_rt_main.c ****  * in the root directory of this software component.
  19:../../Middlewares/AI_Runtime/Npu/ll_aton/ll_aton_rt_main.c ****  * If no LICENSE file comes with this software, it is provided AS-IS.
  20:../../Middlewares/AI_Runtime/Npu/ll_aton/ll_aton_rt_main.c ****  *
  21:../../Middlewares/AI_Runtime/Npu/ll_aton/ll_aton_rt_main.c ****  ******************************************************************************
  22:../../Middlewares/AI_Runtime/Npu/ll_aton/ll_aton_rt_main.c ****  */
  23:../../Middlewares/AI_Runtime/Npu/ll_aton/ll_aton_rt_main.c **** 
  24:../../Middlewares/AI_Runtime/Npu/ll_aton/ll_aton_rt_main.c **** #include "ll_aton_runtime.h"
  25:../../Middlewares/AI_Runtime/Npu/ll_aton/ll_aton_rt_main.c **** #include "ll_aton_util.h"
  26:../../Middlewares/AI_Runtime/Npu/ll_aton/ll_aton_rt_main.c **** 
  27:../../Middlewares/AI_Runtime/Npu/ll_aton/ll_aton_rt_main.c **** /*** Main Template ***/
  28:../../Middlewares/AI_Runtime/Npu/ll_aton/ll_aton_rt_main.c **** 
  29:../../Middlewares/AI_Runtime/Npu/ll_aton/ll_aton_rt_main.c **** /**
  30:../../Middlewares/AI_Runtime/Npu/ll_aton/ll_aton_rt_main.c ****  * @brief Template for synchronously executing a single inference of a single network instance (e.g
  31:../../Middlewares/AI_Runtime/Npu/ll_aton/ll_aton_rt_main.c ****  * @param network_instance pointer to the network instance representing the network and execution i
  32:../../Middlewares/AI_Runtime/Npu/ll_aton/ll_aton_rt_main.c ****  *                         The instance object MUST have already set a valid link to a network inte
  33:../../Middlewares/AI_Runtime/Npu/ll_aton/ll_aton_rt_main.c ****  *                         The user may declare/instantiate such an object by using either macro
  34:../../Middlewares/AI_Runtime/Npu/ll_aton/ll_aton_rt_main.c ****  *                          `LL_ATON_DECLARE_NAMED_NN_INSTANCE_AND_INTERFACE()` to create both the 
  35:../../Middlewares/AI_Runtime/Npu/ll_aton/ll_aton_rt_main.c ****  *                         and the network interface, or macros
  36:../../Middlewares/AI_Runtime/Npu/ll_aton/ll_aton_rt_main.c ****  *                         `LL_ATON_DECLARE_NAMED_NN_INTERFACE()` & `LL_ATON_DECLARE_NAMED_NN_INSTA
  37:../../Middlewares/AI_Runtime/Npu/ll_aton/ll_aton_rt_main.c ****  *                         create/instantiate the objects separately.
  38:../../Middlewares/AI_Runtime/Npu/ll_aton/ll_aton_rt_main.c ****  */
  39:../../Middlewares/AI_Runtime/Npu/ll_aton/ll_aton_rt_main.c **** void LL_ATON_RT_Main(NN_Instance_TypeDef *network_instance)
  40:../../Middlewares/AI_Runtime/Npu/ll_aton/ll_aton_rt_main.c **** {
  43              		.loc 1 40 1 view -0
  44              		.cfi_startproc
  45              		@ args = 0, pretend = 0, frame = 0
  46              		@ frame_needed = 0, uses_anonymous_args = 0
  41:../../Middlewares/AI_Runtime/Npu/ll_aton/ll_aton_rt_main.c ****   LL_ATON_RT_RetValues_t ll_aton_rt_ret;
  47              		.loc 1 41 3 view .LVU1
  42:../../Middlewares/AI_Runtime/Npu/ll_aton/ll_aton_rt_main.c **** 
  43:../../Middlewares/AI_Runtime/Npu/ll_aton/ll_aton_rt_main.c ****   /*** Start of user initialization code ***/
  44:../../Middlewares/AI_Runtime/Npu/ll_aton/ll_aton_rt_main.c **** 
  45:../../Middlewares/AI_Runtime/Npu/ll_aton/ll_aton_rt_main.c ****   /*** End of user initialization code ***/
  46:../../Middlewares/AI_Runtime/Npu/ll_aton/ll_aton_rt_main.c **** 
  47:../../Middlewares/AI_Runtime/Npu/ll_aton/ll_aton_rt_main.c ****   LL_ATON_ASSERT(network_instance != NULL);
  48              		.loc 1 47 3 view .LVU2
  40:../../Middlewares/AI_Runtime/Npu/ll_aton/ll_aton_rt_main.c ****   LL_ATON_RT_RetValues_t ll_aton_rt_ret;
  49              		.loc 1 40 1 is_stmt 0 view .LVU3
  50 0000 10B5     		push	{r4, lr}
  51              		.cfi_def_cfa_offset 8
  52              		.cfi_offset 4, -8
  53              		.cfi_offset 14, -4
  54              		.loc 1 47 3 view .LVU4
ARM GAS  C:\Users\Antonio\AppData\Local\Temp\cckMxgGh.s 			page 3


  55 0002 0446     		mov	r4, r0
  56 0004 28B9     		cbnz	r0, .L2
  57              		.loc 1 47 3 discriminator 1 view .LVU5
  58 0006 2F21     		movs	r1, #47
  59 0008 0F4B     		ldr	r3, .L9
  60 000a 104A     		ldr	r2, .L9+4
  61              	.L8:
  48:../../Middlewares/AI_Runtime/Npu/ll_aton/ll_aton_rt_main.c ****   LL_ATON_ASSERT(network_instance->network != NULL);
  62              		.loc 1 48 3 discriminator 1 view .LVU6
  63 000c 1048     		ldr	r0, .L9+8
  64              	.LVL1:
  65              		.loc 1 48 3 discriminator 1 view .LVU7
  66 000e FFF7FEFF 		bl	__assert_func
  67              	.LVL2:
  68              	.L2:
  69              		.loc 1 48 3 is_stmt 1 view .LVU8
  70 0012 0368     		ldr	r3, [r0]
  71 0014 1BB9     		cbnz	r3, .L3
  72              		.loc 1 48 3 is_stmt 0 discriminator 1 view .LVU9
  73 0016 3021     		movs	r1, #48
  74 0018 0E4B     		ldr	r3, .L9+12
  75 001a 0C4A     		ldr	r2, .L9+4
  76 001c F6E7     		b	.L8
  77              	.L3:
  49:../../Middlewares/AI_Runtime/Npu/ll_aton/ll_aton_rt_main.c ****   LL_ATON_RT_RuntimeInit();                  // Initialize runtime
  78              		.loc 1 49 3 is_stmt 1 view .LVU10
  79 001e FFF7FEFF 		bl	LL_ATON_RT_RuntimeInit
  80              	.LVL3:
  50:../../Middlewares/AI_Runtime/Npu/ll_aton/ll_aton_rt_main.c ****   LL_ATON_RT_Init_Network(network_instance); // Initialize passed network instance object
  81              		.loc 1 50 3 view .LVU11
  82 0022 2046     		mov	r0, r4
  83 0024 FFF7FEFF 		bl	LL_ATON_RT_Init_Network
  84              	.LVL4:
  85              	.L7:
  51:../../Middlewares/AI_Runtime/Npu/ll_aton/ll_aton_rt_main.c **** 
  52:../../Middlewares/AI_Runtime/Npu/ll_aton/ll_aton_rt_main.c ****   do
  86              		.loc 1 52 3 view .LVU12
  53:../../Middlewares/AI_Runtime/Npu/ll_aton/ll_aton_rt_main.c ****   {
  54:../../Middlewares/AI_Runtime/Npu/ll_aton/ll_aton_rt_main.c ****     /* Execute first/next step of Cube.AI/ATON runtime */
  55:../../Middlewares/AI_Runtime/Npu/ll_aton/ll_aton_rt_main.c ****     ll_aton_rt_ret = LL_ATON_RT_RunEpochBlock(network_instance);
  87              		.loc 1 55 5 view .LVU13
  88              		.loc 1 55 22 is_stmt 0 view .LVU14
  89 0028 2046     		mov	r0, r4
  90 002a FFF7FEFF 		bl	LL_ATON_RT_RunEpochBlock
  91              	.LVL5:
  56:../../Middlewares/AI_Runtime/Npu/ll_aton/ll_aton_rt_main.c **** 
  57:../../Middlewares/AI_Runtime/Npu/ll_aton/ll_aton_rt_main.c ****     /*** Start of user event handling code ***/
  58:../../Middlewares/AI_Runtime/Npu/ll_aton/ll_aton_rt_main.c **** 
  59:../../Middlewares/AI_Runtime/Npu/ll_aton/ll_aton_rt_main.c ****     /*** End of user event handling code ***/
  60:../../Middlewares/AI_Runtime/Npu/ll_aton/ll_aton_rt_main.c **** 
  61:../../Middlewares/AI_Runtime/Npu/ll_aton/ll_aton_rt_main.c ****     /* Wait for next event */
  62:../../Middlewares/AI_Runtime/Npu/ll_aton/ll_aton_rt_main.c ****     if (ll_aton_rt_ret == LL_ATON_RT_WFE)
  92              		.loc 1 62 5 is_stmt 1 view .LVU15
  93              		.loc 1 62 8 is_stmt 0 view .LVU16
  94 002e 0128     		cmp	r0, #1
  95 0030 01D1     		bne	.L4
  63:../../Middlewares/AI_Runtime/Npu/ll_aton/ll_aton_rt_main.c ****     { /*** subject to change to fit also user code requirements ***/
ARM GAS  C:\Users\Antonio\AppData\Local\Temp\cckMxgGh.s 			page 4


  64:../../Middlewares/AI_Runtime/Npu/ll_aton/ll_aton_rt_main.c ****       LL_ATON_OSAL_WFE();
  96              		.loc 1 64 7 is_stmt 1 view .LVU17
  97              		.syntax unified
  98              	@ 64 "../../Middlewares/AI_Runtime/Npu/ll_aton/ll_aton_rt_main.c" 1
  99 0032 20BF     		wfe
 100              	@ 0 "" 2
  65:../../Middlewares/AI_Runtime/Npu/ll_aton/ll_aton_rt_main.c ****     }
  66:../../Middlewares/AI_Runtime/Npu/ll_aton/ll_aton_rt_main.c ****   } while (ll_aton_rt_ret != LL_ATON_RT_DONE); /*** subject to change to fit also user code require
 101              		.loc 1 66 27 view .LVU18
 102              		.thumb
 103              		.syntax unified
 104 0034 F8E7     		b	.L7
 105              	.L4:
 106              		.loc 1 66 27 view .LVU19
 107 0036 0228     		cmp	r0, #2
 108 0038 F6D1     		bne	.L7
  67:../../Middlewares/AI_Runtime/Npu/ll_aton/ll_aton_rt_main.c **** 
  68:../../Middlewares/AI_Runtime/Npu/ll_aton/ll_aton_rt_main.c ****   LL_ATON_RT_DeInit_Network(network_instance); // De-initialize the network instance object
 109              		.loc 1 68 3 view .LVU20
 110 003a 2046     		mov	r0, r4
 111              	.LVL6:
 112              		.loc 1 68 3 is_stmt 0 view .LVU21
 113 003c FFF7FEFF 		bl	LL_ATON_RT_DeInit_Network
 114              	.LVL7:
  69:../../Middlewares/AI_Runtime/Npu/ll_aton/ll_aton_rt_main.c ****   LL_ATON_RT_RuntimeDeInit();                  // De-initialize runtime
 115              		.loc 1 69 3 is_stmt 1 view .LVU22
  70:../../Middlewares/AI_Runtime/Npu/ll_aton/ll_aton_rt_main.c **** 
  71:../../Middlewares/AI_Runtime/Npu/ll_aton/ll_aton_rt_main.c ****   /*** Start of user de-initialization code ***/
  72:../../Middlewares/AI_Runtime/Npu/ll_aton/ll_aton_rt_main.c **** 
  73:../../Middlewares/AI_Runtime/Npu/ll_aton/ll_aton_rt_main.c ****   /*** End of user de-initialization code ***/
  74:../../Middlewares/AI_Runtime/Npu/ll_aton/ll_aton_rt_main.c **** }
 116              		.loc 1 74 1 is_stmt 0 view .LVU23
 117 0040 BDE81040 		pop	{r4, lr}
 118              		.cfi_restore 14
 119              		.cfi_restore 4
 120              		.cfi_def_cfa_offset 0
 121              	.LVL8:
  69:../../Middlewares/AI_Runtime/Npu/ll_aton/ll_aton_rt_main.c ****   LL_ATON_RT_RuntimeDeInit();                  // De-initialize runtime
 122              		.loc 1 69 3 view .LVU24
 123 0044 FFF7FEBF 		b	LL_ATON_RT_RuntimeDeInit
 124              	.LVL9:
 125              	.L10:
 126              		.align	2
 127              	.L9:
 128 0048 00000000 		.word	.LC0
 129 004c 00000000 		.word	__func__.0
 130 0050 20000000 		.word	.LC1
 131 0054 5B000000 		.word	.LC2
 132              		.cfi_endproc
 133              	.LFE4832:
 135              		.section	.rodata.__func__.0,"a"
 138              	__func__.0:
 139 0000 4C4C5F41 		.ascii	"LL_ATON_RT_Main\000"
 139      544F4E5F 
 139      52545F4D 
 139      61696E00 
 140              		.text
ARM GAS  C:\Users\Antonio\AppData\Local\Temp\cckMxgGh.s 			page 5


 141              	.Letext0:
 142              		.file 2 "C:\\ST\\STM32CubeIDE_1.19.0\\STM32CubeIDE\\plugins\\com.st.stm32cube.ide.mcu.externaltool
 143              		.file 3 "C:\\ST\\STM32CubeIDE_1.19.0\\STM32CubeIDE\\plugins\\com.st.stm32cube.ide.mcu.externaltool
 144              		.file 4 "../../Middlewares/AI_Runtime/Npu/ll_aton/ll_aton_NN_interface.h"
 145              		.file 5 "../../Middlewares/AI_Runtime/Npu/ll_aton/ll_aton_runtime.h"
 146              		.file 6 "C:\\ST\\STM32CubeIDE_1.19.0\\STM32CubeIDE\\plugins\\com.st.stm32cube.ide.mcu.externaltool
ARM GAS  C:\Users\Antonio\AppData\Local\Temp\cckMxgGh.s 			page 6

