ARM GAS  C:\Users\Antonio\AppData\Local\Temp\ccynTwLp.s 			page 1


   1              		.arch armv8.1-m.main
   2              		.fpu fpv5-d16
   3              		.arch_extension dsp
   4              		.arch_extension fp
   5              		.arch_extension fp.dp
   6              		.arch_extension mve
   7              		.arch_extension mve.fp
   8              		.eabi_attribute 5, "cortex-m55"
   9              		.eabi_attribute 28, 1
  10              		.eabi_attribute 20, 1
  11              		.eabi_attribute 21, 1
  12              		.eabi_attribute 23, 3
  13              		.eabi_attribute 24, 1
  14              		.eabi_attribute 25, 1
  15              		.eabi_attribute 26, 1
  16              		.eabi_attribute 30, 4
  17              		.eabi_attribute 34, 1
  18              		.eabi_attribute 38, 1
  19              		.eabi_attribute 18, 4
  20              		.file	"ll_aton.c"
  21              		.text
  22              	.Ltext0:
  23              		.cfi_sections	.debug_frame
  24              		.file 1 "../../Middlewares/AI_Runtime/Npu/ll_aton/ll_aton.c"
  25              		.section	.text.decun_inc_page_addr,"ax",%progbits
  26              		.align	1
  27              		.syntax unified
  28              		.thumb
  29              		.thumb_func
  31              	decun_inc_page_addr:
  32              	.LVL0:
  33              	.LFB4837:
   1:../../Middlewares/AI_Runtime/Npu/ll_aton/ll_aton.c **** /**
   2:../../Middlewares/AI_Runtime/Npu/ll_aton/ll_aton.c ****  ******************************************************************************
   3:../../Middlewares/AI_Runtime/Npu/ll_aton/ll_aton.c ****  * @file    ll_aton.c
   4:../../Middlewares/AI_Runtime/Npu/ll_aton/ll_aton.c ****  * @author  SRA Artificial Intelligence & Embedded Architectures
   5:../../Middlewares/AI_Runtime/Npu/ll_aton/ll_aton.c ****  * @brief   ATON LL module driver.
   6:../../Middlewares/AI_Runtime/Npu/ll_aton/ll_aton.c ****  ******************************************************************************
   7:../../Middlewares/AI_Runtime/Npu/ll_aton/ll_aton.c ****  * @attention
   8:../../Middlewares/AI_Runtime/Npu/ll_aton/ll_aton.c ****  *
   9:../../Middlewares/AI_Runtime/Npu/ll_aton/ll_aton.c ****  * Copyright (c) 2024 STMicroelectronics.
  10:../../Middlewares/AI_Runtime/Npu/ll_aton/ll_aton.c ****  * All rights reserved.
  11:../../Middlewares/AI_Runtime/Npu/ll_aton/ll_aton.c ****  *
  12:../../Middlewares/AI_Runtime/Npu/ll_aton/ll_aton.c ****  * This software is licensed under terms that can be found in the LICENSE file
  13:../../Middlewares/AI_Runtime/Npu/ll_aton/ll_aton.c ****  * in the root directory of this software component.
  14:../../Middlewares/AI_Runtime/Npu/ll_aton/ll_aton.c ****  * If no LICENSE file comes with this software, it is provided AS-IS.
  15:../../Middlewares/AI_Runtime/Npu/ll_aton/ll_aton.c ****  *
  16:../../Middlewares/AI_Runtime/Npu/ll_aton/ll_aton.c ****  ******************************************************************************
  17:../../Middlewares/AI_Runtime/Npu/ll_aton/ll_aton.c ****  */
  18:../../Middlewares/AI_Runtime/Npu/ll_aton/ll_aton.c **** 
  19:../../Middlewares/AI_Runtime/Npu/ll_aton/ll_aton.c **** #include <assert.h>
  20:../../Middlewares/AI_Runtime/Npu/ll_aton/ll_aton.c **** #include <inttypes.h>
  21:../../Middlewares/AI_Runtime/Npu/ll_aton/ll_aton.c **** #include <stddef.h>
  22:../../Middlewares/AI_Runtime/Npu/ll_aton/ll_aton.c **** #include <stdint.h>
  23:../../Middlewares/AI_Runtime/Npu/ll_aton/ll_aton.c **** #include <stdlib.h>
  24:../../Middlewares/AI_Runtime/Npu/ll_aton/ll_aton.c **** 
  25:../../Middlewares/AI_Runtime/Npu/ll_aton/ll_aton.c **** #include "ll_aton.h"
ARM GAS  C:\Users\Antonio\AppData\Local\Temp\ccynTwLp.s 			page 2


  26:../../Middlewares/AI_Runtime/Npu/ll_aton/ll_aton.c **** #include "ll_aton_caches_interface.h"
  27:../../Middlewares/AI_Runtime/Npu/ll_aton/ll_aton.c **** #include "ll_aton_util.h"
  28:../../Middlewares/AI_Runtime/Npu/ll_aton/ll_aton.c **** 
  29:../../Middlewares/AI_Runtime/Npu/ll_aton/ll_aton.c **** #define ATONN_CONST_SRCPORT(S, J, U, I, P) ATON_##S##_##J##_LINK_##U##_##I##_##P
  30:../../Middlewares/AI_Runtime/Npu/ll_aton/ll_aton.c **** #define ATONN_CONST_DSTPORT(S, J, U, I, P) ATON_##S##_DST_OFFSET(J, ATON_##S##_##J##_DST##U##_##I##
  31:../../Middlewares/AI_Runtime/Npu/ll_aton/ll_aton.c **** 
  32:../../Middlewares/AI_Runtime/Npu/ll_aton/ll_aton.c **** #ifdef ATON_CONVACC_NUM
  33:../../Middlewares/AI_Runtime/Npu/ll_aton/ll_aton.c **** static uint32_t Conv_ctrl_bits[ATON_CONVACC_NUM]; // this is an hack FIXME !!!
  34:../../Middlewares/AI_Runtime/Npu/ll_aton/ll_aton.c **** #endif
  35:../../Middlewares/AI_Runtime/Npu/ll_aton/ll_aton.c **** 
  36:../../Middlewares/AI_Runtime/Npu/ll_aton/ll_aton.c **** #if (ATON_POOL_VERSION_MAJOR_DT < 1) || ((ATON_POOL_VERSION_MAJOR_DT == 1) && (ATON_POOL_VERSION_MI
  37:../../Middlewares/AI_Runtime/Npu/ll_aton/ll_aton.c **** #define POOL_RC14    /* Pooling unit is not yet patched with respect to auto-clearing of `CLR` bit 
  38:../../Middlewares/AI_Runtime/Npu/ll_aton/ll_aton.c ****                         reset values */
  39:../../Middlewares/AI_Runtime/Npu/ll_aton/ll_aton.c **** #endif
  40:../../Middlewares/AI_Runtime/Npu/ll_aton/ll_aton.c **** 
  41:../../Middlewares/AI_Runtime/Npu/ll_aton/ll_aton.c **** #define ASSERT_UNITS_VERS_W_MSG(unitname, rtl_unitver)                                             
  42:../../Middlewares/AI_Runtime/Npu/ll_aton/ll_aton.c ****   do                                                                                               
  43:../../Middlewares/AI_Runtime/Npu/ll_aton/ll_aton.c ****   {                                                                                                
  44:../../Middlewares/AI_Runtime/Npu/ll_aton/ll_aton.c ****     rtl_unitver = ATON_##unitname##_VERSION_GET(0);                                                
  45:../../Middlewares/AI_Runtime/Npu/ll_aton/ll_aton.c ****   } while (rtl_unitver == 0);                                                                      
  46:../../Middlewares/AI_Runtime/Npu/ll_aton/ll_aton.c ****   assertf(ATON_##unitname##_VERSION_GET_TYPE(rtl_unitver) == ATON_##unitname##_VERSION_TYPE_DT &&  
  47:../../Middlewares/AI_Runtime/Npu/ll_aton/ll_aton.c ****               ATON_##unitname##_VERSION_GET_MAJOR(rtl_unitver) == ATON_##unitname##_VERSION_MAJOR_D
  48:../../Middlewares/AI_Runtime/Npu/ll_aton/ll_aton.c ****               ATON_##unitname##_VERSION_GET_MINOR(rtl_unitver) == ATON_##unitname##_VERSION_MINOR_D
  49:../../Middlewares/AI_Runtime/Npu/ll_aton/ll_aton.c ****           0,                                                                                       
  50:../../Middlewares/AI_Runtime/Npu/ll_aton/ll_aton.c ****           "%s unit ver mismatch: RTL:t=%" PRIu32 ",ver=%" PRIu32 ".%" PRIu32 "  ATON.h:t=%" PRIu32 
  51:../../Middlewares/AI_Runtime/Npu/ll_aton/ll_aton.c ****           ".%" PRIu32 "\n\r",                                                                      
  52:../../Middlewares/AI_Runtime/Npu/ll_aton/ll_aton.c ****           #unitname, ATON_##unitname##_VERSION_GET_TYPE(rtl_unitver),                              
  53:../../Middlewares/AI_Runtime/Npu/ll_aton/ll_aton.c ****           ATON_##unitname##_VERSION_GET_MAJOR(rtl_unitver), ATON_##unitname##_VERSION_GET_MINOR(rtl
  54:../../Middlewares/AI_Runtime/Npu/ll_aton/ll_aton.c ****           (uint32_t)ATON_##unitname##_VERSION_TYPE_DT, (uint32_t)ATON_##unitname##_VERSION_MAJOR_DT
  55:../../Middlewares/AI_Runtime/Npu/ll_aton/ll_aton.c ****           (uint32_t)ATON_##unitname##_VERSION_MINOR_DT)
  56:../../Middlewares/AI_Runtime/Npu/ll_aton/ll_aton.c **** 
  57:../../Middlewares/AI_Runtime/Npu/ll_aton/ll_aton.c **** /** @defgroup Simple watchdog management functions.
  58:../../Middlewares/AI_Runtime/Npu/ll_aton/ll_aton.c ****  *  Used to exit from LL_Streng_Wait() in case epoch locks
  59:../../Middlewares/AI_Runtime/Npu/ll_aton/ll_aton.c ****  * @{
  60:../../Middlewares/AI_Runtime/Npu/ll_aton/ll_aton.c ****  */
  61:../../Middlewares/AI_Runtime/Npu/ll_aton/ll_aton.c **** 
  62:../../Middlewares/AI_Runtime/Npu/ll_aton/ll_aton.c **** static inline void ll_aton_static_checks(void)
  63:../../Middlewares/AI_Runtime/Npu/ll_aton/ll_aton.c **** {
  64:../../Middlewares/AI_Runtime/Npu/ll_aton/ll_aton.c ****   static char done = 0;
  65:../../Middlewares/AI_Runtime/Npu/ll_aton/ll_aton.c **** 
  66:../../Middlewares/AI_Runtime/Npu/ll_aton/ll_aton.c ****   if (done != 0)
  67:../../Middlewares/AI_Runtime/Npu/ll_aton/ll_aton.c ****     return;
  68:../../Middlewares/AI_Runtime/Npu/ll_aton/ll_aton.c ****   done = 1;
  69:../../Middlewares/AI_Runtime/Npu/ll_aton/ll_aton.c **** 
  70:../../Middlewares/AI_Runtime/Npu/ll_aton/ll_aton.c **** #define ASSERT_ATONN_SRCPORT(S, J, U, I, P)                                                        
  71:../../Middlewares/AI_Runtime/Npu/ll_aton/ll_aton.c ****   LL_ATON_ASSERT(ATONN_CONST_SRCPORT(S, J, U, I, P) == __atonn_getSrcPortID(S, J, U, I, P))
  72:../../Middlewares/AI_Runtime/Npu/ll_aton/ll_aton.c **** #define ASSERT_ATONN_DSTPORT(S, J, U, I, P)                                                        
  73:../../Middlewares/AI_Runtime/Npu/ll_aton/ll_aton.c ****   LL_ATON_ASSERT(ATONN_CONST_DSTPORT(S, J, U, I, P) == __atonn_getDstPortID(S, J, U, I, P))
  74:../../Middlewares/AI_Runtime/Npu/ll_aton/ll_aton.c **** 
  75:../../Middlewares/AI_Runtime/Npu/ll_aton/ll_aton.c **** #if ATON_STRENG_NUM > 1
  76:../../Middlewares/AI_Runtime/Npu/ll_aton/ll_aton.c ****   ASSERT_ATONN_SRCPORT(STRSWITCH, 0, STRENG, 1, 0);
  77:../../Middlewares/AI_Runtime/Npu/ll_aton/ll_aton.c ****   ASSERT_ATONN_DSTPORT(STRSWITCH, 0, STRENG, 1, 0);
  78:../../Middlewares/AI_Runtime/Npu/ll_aton/ll_aton.c **** #endif
  79:../../Middlewares/AI_Runtime/Npu/ll_aton/ll_aton.c **** #if ATON_STRENG_NUM > 2
  80:../../Middlewares/AI_Runtime/Npu/ll_aton/ll_aton.c ****   ASSERT_ATONN_SRCPORT(STRSWITCH, 0, STRENG, 2, 0);
  81:../../Middlewares/AI_Runtime/Npu/ll_aton/ll_aton.c ****   ASSERT_ATONN_DSTPORT(STRSWITCH, 0, STRENG, 2, 0);
  82:../../Middlewares/AI_Runtime/Npu/ll_aton/ll_aton.c **** #endif
ARM GAS  C:\Users\Antonio\AppData\Local\Temp\ccynTwLp.s 			page 3


  83:../../Middlewares/AI_Runtime/Npu/ll_aton/ll_aton.c **** 
  84:../../Middlewares/AI_Runtime/Npu/ll_aton/ll_aton.c **** #if (LL_ATON_PLATFORM == LL_ATON_PLAT_EC_TRACE)
  85:../../Middlewares/AI_Runtime/Npu/ll_aton/ll_aton.c **** 
  86:../../Middlewares/AI_Runtime/Npu/ll_aton/ll_aton.c **** #if ATON_CONVACC_NUM > 1
  87:../../Middlewares/AI_Runtime/Npu/ll_aton/ll_aton.c ****   ASSERT_ATONN_SRCPORT(STRSWITCH, 0, CONVACC, 1, 0);
  88:../../Middlewares/AI_Runtime/Npu/ll_aton/ll_aton.c ****   ASSERT_ATONN_DSTPORT(STRSWITCH, 0, CONVACC, 1, 0);
  89:../../Middlewares/AI_Runtime/Npu/ll_aton/ll_aton.c ****   ASSERT_ATONN_DSTPORT(STRSWITCH, 0, CONVACC, 1, 1);
  90:../../Middlewares/AI_Runtime/Npu/ll_aton/ll_aton.c ****   ASSERT_ATONN_DSTPORT(STRSWITCH, 0, CONVACC, 1, 2);
  91:../../Middlewares/AI_Runtime/Npu/ll_aton/ll_aton.c **** #endif
  92:../../Middlewares/AI_Runtime/Npu/ll_aton/ll_aton.c **** 
  93:../../Middlewares/AI_Runtime/Npu/ll_aton/ll_aton.c **** #if ATON_CONVACC_NUM > 2
  94:../../Middlewares/AI_Runtime/Npu/ll_aton/ll_aton.c ****   ASSERT_ATONN_SRCPORT(STRSWITCH, 0, CONVACC, 2, 0);
  95:../../Middlewares/AI_Runtime/Npu/ll_aton/ll_aton.c ****   ASSERT_ATONN_DSTPORT(STRSWITCH, 0, CONVACC, 2, 0);
  96:../../Middlewares/AI_Runtime/Npu/ll_aton/ll_aton.c ****   ASSERT_ATONN_DSTPORT(STRSWITCH, 0, CONVACC, 2, 1);
  97:../../Middlewares/AI_Runtime/Npu/ll_aton/ll_aton.c ****   ASSERT_ATONN_DSTPORT(STRSWITCH, 0, CONVACC, 2, 2);
  98:../../Middlewares/AI_Runtime/Npu/ll_aton/ll_aton.c **** #endif
  99:../../Middlewares/AI_Runtime/Npu/ll_aton/ll_aton.c **** 
 100:../../Middlewares/AI_Runtime/Npu/ll_aton/ll_aton.c **** #if ATON_POOL_NUM > 1
 101:../../Middlewares/AI_Runtime/Npu/ll_aton/ll_aton.c ****   ASSERT_ATONN_SRCPORT(STRSWITCH, 0, POOL, 1, 0);
 102:../../Middlewares/AI_Runtime/Npu/ll_aton/ll_aton.c ****   ASSERT_ATONN_DSTPORT(STRSWITCH, 0, POOL, 1, 0);
 103:../../Middlewares/AI_Runtime/Npu/ll_aton/ll_aton.c **** #endif
 104:../../Middlewares/AI_Runtime/Npu/ll_aton/ll_aton.c **** 
 105:../../Middlewares/AI_Runtime/Npu/ll_aton/ll_aton.c **** #if ATON_ARITH_NUM > 1
 106:../../Middlewares/AI_Runtime/Npu/ll_aton/ll_aton.c ****   ASSERT_ATONN_SRCPORT(STRSWITCH, 0, ARITH, 1, 0);
 107:../../Middlewares/AI_Runtime/Npu/ll_aton/ll_aton.c ****   ASSERT_ATONN_DSTPORT(STRSWITCH, 0, ARITH, 1, 0);
 108:../../Middlewares/AI_Runtime/Npu/ll_aton/ll_aton.c ****   ASSERT_ATONN_DSTPORT(STRSWITCH, 0, ARITH, 1, 1);
 109:../../Middlewares/AI_Runtime/Npu/ll_aton/ll_aton.c **** #endif
 110:../../Middlewares/AI_Runtime/Npu/ll_aton/ll_aton.c **** 
 111:../../Middlewares/AI_Runtime/Npu/ll_aton/ll_aton.c **** #if ATON_ACTIV_NUM > 1
 112:../../Middlewares/AI_Runtime/Npu/ll_aton/ll_aton.c ****   ASSERT_ATONN_SRCPORT(STRSWITCH, 0, ACTIV, 1, 0);
 113:../../Middlewares/AI_Runtime/Npu/ll_aton/ll_aton.c ****   ASSERT_ATONN_DSTPORT(STRSWITCH, 0, ACTIV, 1, 0);
 114:../../Middlewares/AI_Runtime/Npu/ll_aton/ll_aton.c **** #endif
 115:../../Middlewares/AI_Runtime/Npu/ll_aton/ll_aton.c **** 
 116:../../Middlewares/AI_Runtime/Npu/ll_aton/ll_aton.c **** #if ATON_DECUN_NUM > 1
 117:../../Middlewares/AI_Runtime/Npu/ll_aton/ll_aton.c ****   ASSERT_ATONN_SRCPORT(STRSWITCH, 0, DECUN, 1, 0);
 118:../../Middlewares/AI_Runtime/Npu/ll_aton/ll_aton.c ****   ASSERT_ATONN_DSTPORT(STRSWITCH, 0, DECUN, 1, 0);
 119:../../Middlewares/AI_Runtime/Npu/ll_aton/ll_aton.c ****   ASSERT_ATONN_DSTPORT(STRSWITCH, 0, DECUN, 1, 1);
 120:../../Middlewares/AI_Runtime/Npu/ll_aton/ll_aton.c **** #endif
 121:../../Middlewares/AI_Runtime/Npu/ll_aton/ll_aton.c **** 
 122:../../Middlewares/AI_Runtime/Npu/ll_aton/ll_aton.c **** #endif // (LL_ATON_PLATFORM == LL_ATON_PLAT_EC_TRACE)
 123:../../Middlewares/AI_Runtime/Npu/ll_aton/ll_aton.c **** 
 124:../../Middlewares/AI_Runtime/Npu/ll_aton/ll_aton.c **** #undef ASSERT_ATONN_SRCPORT
 125:../../Middlewares/AI_Runtime/Npu/ll_aton/ll_aton.c **** #undef ASSERT_ATONN_DSTPORT
 126:../../Middlewares/AI_Runtime/Npu/ll_aton/ll_aton.c **** }
 127:../../Middlewares/AI_Runtime/Npu/ll_aton/ll_aton.c **** 
 128:../../Middlewares/AI_Runtime/Npu/ll_aton/ll_aton.c **** unsigned char *LL_Address_Physical2Virtual(unsigned char *address)
 129:../../Middlewares/AI_Runtime/Npu/ll_aton/ll_aton.c **** {
 130:../../Middlewares/AI_Runtime/Npu/ll_aton/ll_aton.c ****   return ATON_LIB_PHYSICAL_TO_VIRTUAL_ADDR(address);
 131:../../Middlewares/AI_Runtime/Npu/ll_aton/ll_aton.c **** }
 132:../../Middlewares/AI_Runtime/Npu/ll_aton/ll_aton.c **** 
 133:../../Middlewares/AI_Runtime/Npu/ll_aton/ll_aton.c **** unsigned char *LL_Address_Virtual2Physical(unsigned char *address)
 134:../../Middlewares/AI_Runtime/Npu/ll_aton/ll_aton.c **** {
 135:../../Middlewares/AI_Runtime/Npu/ll_aton/ll_aton.c ****   return ATON_LIB_VIRTUAL_TO_PHYSICAL_ADDR(address);
 136:../../Middlewares/AI_Runtime/Npu/ll_aton/ll_aton.c **** }
 137:../../Middlewares/AI_Runtime/Npu/ll_aton/ll_aton.c **** 
 138:../../Middlewares/AI_Runtime/Npu/ll_aton/ll_aton.c **** /**
 139:../../Middlewares/AI_Runtime/Npu/ll_aton/ll_aton.c ****  * @brief Starts watchdog
ARM GAS  C:\Users\Antonio\AppData\Local\Temp\ccynTwLp.s 			page 4


 140:../../Middlewares/AI_Runtime/Npu/ll_aton/ll_aton.c ****  * @param timeout Watchdog timeout in cycles
 141:../../Middlewares/AI_Runtime/Npu/ll_aton/ll_aton.c ****  * @retval ATON Error code
 142:../../Middlewares/AI_Runtime/Npu/ll_aton/ll_aton.c ****  */
 143:../../Middlewares/AI_Runtime/Npu/ll_aton/ll_aton.c **** LL_ATON_WEAK int startWatchdog(uint32_t timeout)
 144:../../Middlewares/AI_Runtime/Npu/ll_aton/ll_aton.c **** {
 145:../../Middlewares/AI_Runtime/Npu/ll_aton/ll_aton.c ****   (void)timeout;
 146:../../Middlewares/AI_Runtime/Npu/ll_aton/ll_aton.c **** 
 147:../../Middlewares/AI_Runtime/Npu/ll_aton/ll_aton.c ****   return 0;
 148:../../Middlewares/AI_Runtime/Npu/ll_aton/ll_aton.c **** }
 149:../../Middlewares/AI_Runtime/Npu/ll_aton/ll_aton.c **** 
 150:../../Middlewares/AI_Runtime/Npu/ll_aton/ll_aton.c **** /**
 151:../../Middlewares/AI_Runtime/Npu/ll_aton/ll_aton.c ****  * @brief Checkes whether watchdog has expired or not
 152:../../Middlewares/AI_Runtime/Npu/ll_aton/ll_aton.c ****  * @retval ATON Error code
 153:../../Middlewares/AI_Runtime/Npu/ll_aton/ll_aton.c ****  */
 154:../../Middlewares/AI_Runtime/Npu/ll_aton/ll_aton.c **** LL_ATON_WEAK int checkWatchdog(void)
 155:../../Middlewares/AI_Runtime/Npu/ll_aton/ll_aton.c **** {
 156:../../Middlewares/AI_Runtime/Npu/ll_aton/ll_aton.c ****   return 0;
 157:../../Middlewares/AI_Runtime/Npu/ll_aton/ll_aton.c **** }
 158:../../Middlewares/AI_Runtime/Npu/ll_aton/ll_aton.c **** 
 159:../../Middlewares/AI_Runtime/Npu/ll_aton/ll_aton.c **** /**
 160:../../Middlewares/AI_Runtime/Npu/ll_aton/ll_aton.c ****  * @}
 161:../../Middlewares/AI_Runtime/Npu/ll_aton/ll_aton.c ****  */
 162:../../Middlewares/AI_Runtime/Npu/ll_aton/ll_aton.c **** 
 163:../../Middlewares/AI_Runtime/Npu/ll_aton/ll_aton.c **** /**
 164:../../Middlewares/AI_Runtime/Npu/ll_aton/ll_aton.c ****  * @brief  ATON global initialization. Initializes clocks and bus interfaces. Must be called before
 165:../../Middlewares/AI_Runtime/Npu/ll_aton/ll_aton.c ****  * @retval Always zero
 166:../../Middlewares/AI_Runtime/Npu/ll_aton/ll_aton.c ****  */
 167:../../Middlewares/AI_Runtime/Npu/ll_aton/ll_aton.c **** int LL_ATON_Init(void)
 168:../../Middlewares/AI_Runtime/Npu/ll_aton/ll_aton.c **** {
 169:../../Middlewares/AI_Runtime/Npu/ll_aton/ll_aton.c ****   uint32_t t;
 170:../../Middlewares/AI_Runtime/Npu/ll_aton/ll_aton.c ****   int i;
 171:../../Middlewares/AI_Runtime/Npu/ll_aton/ll_aton.c **** 
 172:../../Middlewares/AI_Runtime/Npu/ll_aton/ll_aton.c ****   ll_aton_static_checks();
 173:../../Middlewares/AI_Runtime/Npu/ll_aton/ll_aton.c **** 
 174:../../Middlewares/AI_Runtime/Npu/ll_aton/ll_aton.c ****   /* Clear pipeline */
 175:../../Middlewares/AI_Runtime/Npu/ll_aton/ll_aton.c ****   t = ATON_CLKCTRL_CTRL_GET(0);
 176:../../Middlewares/AI_Runtime/Npu/ll_aton/ll_aton.c ****   t = ATON_CLKCTRL_CTRL_SET_CLR(t, 1);
 177:../../Middlewares/AI_Runtime/Npu/ll_aton/ll_aton.c ****   ATON_CLKCTRL_CTRL_SET(0, t);
 178:../../Middlewares/AI_Runtime/Npu/ll_aton/ll_aton.c **** 
 179:../../Middlewares/AI_Runtime/Npu/ll_aton/ll_aton.c ****   /* Enable all ATON clocks */
 180:../../Middlewares/AI_Runtime/Npu/ll_aton/ll_aton.c ****   ATON_CLKCTRL_CTRL_SET(0, 1);
 181:../../Middlewares/AI_Runtime/Npu/ll_aton/ll_aton.c ****   ATON_CLKCTRL_AGATES0_SET(0, 0xffffffff);
 182:../../Middlewares/AI_Runtime/Npu/ll_aton/ll_aton.c ****   ATON_CLKCTRL_AGATES1_SET(0, 0xffffffff);
 183:../../Middlewares/AI_Runtime/Npu/ll_aton/ll_aton.c **** 
 184:../../Middlewares/AI_Runtime/Npu/ll_aton/ll_aton.c **** #if (LL_ATON_ENABLE_CLOCK_GATING == 1)
 185:../../Middlewares/AI_Runtime/Npu/ll_aton/ll_aton.c **** #if (LL_ATON_PLATFORM == LL_ATON_PLAT_EC_TRACE)
 186:../../Middlewares/AI_Runtime/Npu/ll_aton/ll_aton.c ****   ATON_CLKCTRL_BGATES_SET(0, (1 << ATON_EPOCHCTRL_CLKB_CLK(0)));
 187:../../Middlewares/AI_Runtime/Npu/ll_aton/ll_aton.c **** #else
 188:../../Middlewares/AI_Runtime/Npu/ll_aton/ll_aton.c ****   ATON_CLKCTRL_BGATES_SET(0, 0x0);
 189:../../Middlewares/AI_Runtime/Npu/ll_aton/ll_aton.c **** #endif
 190:../../Middlewares/AI_Runtime/Npu/ll_aton/ll_aton.c **** #else
 191:../../Middlewares/AI_Runtime/Npu/ll_aton/ll_aton.c ****   ATON_CLKCTRL_BGATES_SET(0, 0xffffffff);
 192:../../Middlewares/AI_Runtime/Npu/ll_aton/ll_aton.c **** #endif
 193:../../Middlewares/AI_Runtime/Npu/ll_aton/ll_aton.c **** 
 194:../../Middlewares/AI_Runtime/Npu/ll_aton/ll_aton.c **** #ifdef ATON_CLKCTRL_BGATES1_OFFSET
 195:../../Middlewares/AI_Runtime/Npu/ll_aton/ll_aton.c ****   ATON_CLKCTRL_BGATES1_SET(0, 0xffffffff);
 196:../../Middlewares/AI_Runtime/Npu/ll_aton/ll_aton.c **** #endif
ARM GAS  C:\Users\Antonio\AppData\Local\Temp\ccynTwLp.s 			page 5


 197:../../Middlewares/AI_Runtime/Npu/ll_aton/ll_aton.c **** 
 198:../../Middlewares/AI_Runtime/Npu/ll_aton/ll_aton.c ****   /* Check that RTL and ATON.h match. Only check first unit */
 199:../../Middlewares/AI_Runtime/Npu/ll_aton/ll_aton.c ****   ASSERT_UNITS_VERS_W_MSG(STRENG, t);
 200:../../Middlewares/AI_Runtime/Npu/ll_aton/ll_aton.c **** 
 201:../../Middlewares/AI_Runtime/Npu/ll_aton/ll_aton.c **** #ifdef ATON_CONVACC_NUM
 202:../../Middlewares/AI_Runtime/Npu/ll_aton/ll_aton.c ****   ASSERT_UNITS_VERS_W_MSG(CONVACC, t);
 203:../../Middlewares/AI_Runtime/Npu/ll_aton/ll_aton.c **** #endif
 204:../../Middlewares/AI_Runtime/Npu/ll_aton/ll_aton.c **** 
 205:../../Middlewares/AI_Runtime/Npu/ll_aton/ll_aton.c **** #ifdef ATON_POOL_NUM
 206:../../Middlewares/AI_Runtime/Npu/ll_aton/ll_aton.c ****   ASSERT_UNITS_VERS_W_MSG(POOL, t);
 207:../../Middlewares/AI_Runtime/Npu/ll_aton/ll_aton.c **** #endif
 208:../../Middlewares/AI_Runtime/Npu/ll_aton/ll_aton.c **** 
 209:../../Middlewares/AI_Runtime/Npu/ll_aton/ll_aton.c **** #ifdef ATON_ARITH_NUM
 210:../../Middlewares/AI_Runtime/Npu/ll_aton/ll_aton.c ****   ASSERT_UNITS_VERS_W_MSG(ARITH, t);
 211:../../Middlewares/AI_Runtime/Npu/ll_aton/ll_aton.c **** #endif
 212:../../Middlewares/AI_Runtime/Npu/ll_aton/ll_aton.c **** 
 213:../../Middlewares/AI_Runtime/Npu/ll_aton/ll_aton.c **** #ifdef ATON_ACTIV_NUM
 214:../../Middlewares/AI_Runtime/Npu/ll_aton/ll_aton.c ****   ASSERT_UNITS_VERS_W_MSG(ACTIV, t);
 215:../../Middlewares/AI_Runtime/Npu/ll_aton/ll_aton.c **** #endif
 216:../../Middlewares/AI_Runtime/Npu/ll_aton/ll_aton.c **** 
 217:../../Middlewares/AI_Runtime/Npu/ll_aton/ll_aton.c **** #ifdef ATON_DECUN_NUM
 218:../../Middlewares/AI_Runtime/Npu/ll_aton/ll_aton.c ****   ASSERT_UNITS_VERS_W_MSG(DECUN, t);
 219:../../Middlewares/AI_Runtime/Npu/ll_aton/ll_aton.c **** #endif
 220:../../Middlewares/AI_Runtime/Npu/ll_aton/ll_aton.c **** 
 221:../../Middlewares/AI_Runtime/Npu/ll_aton/ll_aton.c **** #ifdef ATON_EPOCHCTRL_VERSION_TYPE_DT
 222:../../Middlewares/AI_Runtime/Npu/ll_aton/ll_aton.c ****   ASSERT_UNITS_VERS_W_MSG(EPOCHCTRL, t);
 223:../../Middlewares/AI_Runtime/Npu/ll_aton/ll_aton.c **** #endif
 224:../../Middlewares/AI_Runtime/Npu/ll_aton/ll_aton.c **** 
 225:../../Middlewares/AI_Runtime/Npu/ll_aton/ll_aton.c **** #ifdef ATON_RECBUF_VERSION_TYPE_DT
 226:../../Middlewares/AI_Runtime/Npu/ll_aton/ll_aton.c ****   ASSERT_UNITS_VERS_W_MSG(RECBUF, t);
 227:../../Middlewares/AI_Runtime/Npu/ll_aton/ll_aton.c **** #endif
 228:../../Middlewares/AI_Runtime/Npu/ll_aton/ll_aton.c **** 
 229:../../Middlewares/AI_Runtime/Npu/ll_aton/ll_aton.c **** #ifdef ATON_STRENG64_NUM
 230:../../Middlewares/AI_Runtime/Npu/ll_aton/ll_aton.c ****   ASSERT_UNITS_VERS_W_MSG(STRENG64, t);
 231:../../Middlewares/AI_Runtime/Npu/ll_aton/ll_aton.c **** #endif
 232:../../Middlewares/AI_Runtime/Npu/ll_aton/ll_aton.c **** 
 233:../../Middlewares/AI_Runtime/Npu/ll_aton/ll_aton.c **** #ifdef ATON_STRSWITCH64_NUM
 234:../../Middlewares/AI_Runtime/Npu/ll_aton/ll_aton.c ****   ASSERT_UNITS_VERS_W_MSG(STRSWITCH64, t);
 235:../../Middlewares/AI_Runtime/Npu/ll_aton/ll_aton.c **** #endif
 236:../../Middlewares/AI_Runtime/Npu/ll_aton/ll_aton.c **** 
 237:../../Middlewares/AI_Runtime/Npu/ll_aton/ll_aton.c **** #ifdef ATON_STRSWITCH_VC_NUM
 238:../../Middlewares/AI_Runtime/Npu/ll_aton/ll_aton.c ****   ASSERT_UNITS_VERS_W_MSG(STRSWITCH_VC, t);
 239:../../Middlewares/AI_Runtime/Npu/ll_aton/ll_aton.c **** #endif
 240:../../Middlewares/AI_Runtime/Npu/ll_aton/ll_aton.c **** 
 241:../../Middlewares/AI_Runtime/Npu/ll_aton/ll_aton.c **** #ifdef ATON_IMC_NUM
 242:../../Middlewares/AI_Runtime/Npu/ll_aton/ll_aton.c ****   ASSERT_UNITS_VERS_W_MSG(IMC, t);
 243:../../Middlewares/AI_Runtime/Npu/ll_aton/ll_aton.c **** #endif
 244:../../Middlewares/AI_Runtime/Npu/ll_aton/ll_aton.c **** 
 245:../../Middlewares/AI_Runtime/Npu/ll_aton/ll_aton.c ****   ASSERT_UNITS_VERS_W_MSG(CLKCTRL, t);
 246:../../Middlewares/AI_Runtime/Npu/ll_aton/ll_aton.c **** 
 247:../../Middlewares/AI_Runtime/Npu/ll_aton/ll_aton.c ****   ASSERT_UNITS_VERS_W_MSG(INTCTRL, t);
 248:../../Middlewares/AI_Runtime/Npu/ll_aton/ll_aton.c **** 
 249:../../Middlewares/AI_Runtime/Npu/ll_aton/ll_aton.c ****   ASSERT_UNITS_VERS_W_MSG(STRSWITCH, t);
 250:../../Middlewares/AI_Runtime/Npu/ll_aton/ll_aton.c **** 
 251:../../Middlewares/AI_Runtime/Npu/ll_aton/ll_aton.c ****   ASSERT_UNITS_VERS_W_MSG(BUSIF, t);
 252:../../Middlewares/AI_Runtime/Npu/ll_aton/ll_aton.c **** 
 253:../../Middlewares/AI_Runtime/Npu/ll_aton/ll_aton.c ****   /* Enable Bus Interfaces */
ARM GAS  C:\Users\Antonio\AppData\Local\Temp\ccynTwLp.s 			page 6


 254:../../Middlewares/AI_Runtime/Npu/ll_aton/ll_aton.c ****   for (i = 0; i < ATON_BUSIF_NUM; i++)
 255:../../Middlewares/AI_Runtime/Npu/ll_aton/ll_aton.c ****   {
 256:../../Middlewares/AI_Runtime/Npu/ll_aton/ll_aton.c ****     ATON_BUSIF_CTRL_SET(i, 1);
 257:../../Middlewares/AI_Runtime/Npu/ll_aton/ll_aton.c ****   }
 258:../../Middlewares/AI_Runtime/Npu/ll_aton/ll_aton.c **** 
 259:../../Middlewares/AI_Runtime/Npu/ll_aton/ll_aton.c ****   /* Enable Interrupt Controller */
 260:../../Middlewares/AI_Runtime/Npu/ll_aton/ll_aton.c ****   ATON_INTCTRL_CTRL_SET(0, 1);
 261:../../Middlewares/AI_Runtime/Npu/ll_aton/ll_aton.c **** 
 262:../../Middlewares/AI_Runtime/Npu/ll_aton/ll_aton.c ****   return 0;
 263:../../Middlewares/AI_Runtime/Npu/ll_aton/ll_aton.c **** }
 264:../../Middlewares/AI_Runtime/Npu/ll_aton/ll_aton.c **** 
 265:../../Middlewares/AI_Runtime/Npu/ll_aton/ll_aton.c **** /**
 266:../../Middlewares/AI_Runtime/Npu/ll_aton/ll_aton.c ****  * @brief  ATON global de-initialization. Must be called at the very end
 267:../../Middlewares/AI_Runtime/Npu/ll_aton/ll_aton.c ****  * @retval Always zero
 268:../../Middlewares/AI_Runtime/Npu/ll_aton/ll_aton.c ****  */
 269:../../Middlewares/AI_Runtime/Npu/ll_aton/ll_aton.c **** int LL_ATON_DeInit(void)
 270:../../Middlewares/AI_Runtime/Npu/ll_aton/ll_aton.c **** {
 271:../../Middlewares/AI_Runtime/Npu/ll_aton/ll_aton.c ****   int i;
 272:../../Middlewares/AI_Runtime/Npu/ll_aton/ll_aton.c **** 
 273:../../Middlewares/AI_Runtime/Npu/ll_aton/ll_aton.c ****   /* Disable Interrupt Controller */
 274:../../Middlewares/AI_Runtime/Npu/ll_aton/ll_aton.c ****   ATON_INTCTRL_CTRL_SET(0, 0);
 275:../../Middlewares/AI_Runtime/Npu/ll_aton/ll_aton.c **** 
 276:../../Middlewares/AI_Runtime/Npu/ll_aton/ll_aton.c ****   /* Disable Bus Interfaces */
 277:../../Middlewares/AI_Runtime/Npu/ll_aton/ll_aton.c ****   for (i = 0; i < ATON_BUSIF_NUM; i++)
 278:../../Middlewares/AI_Runtime/Npu/ll_aton/ll_aton.c ****   {
 279:../../Middlewares/AI_Runtime/Npu/ll_aton/ll_aton.c ****     ATON_BUSIF_CTRL_SET(i, 0);
 280:../../Middlewares/AI_Runtime/Npu/ll_aton/ll_aton.c ****   }
 281:../../Middlewares/AI_Runtime/Npu/ll_aton/ll_aton.c **** 
 282:../../Middlewares/AI_Runtime/Npu/ll_aton/ll_aton.c ****   /* Disable all ATON clocks */
 283:../../Middlewares/AI_Runtime/Npu/ll_aton/ll_aton.c ****   ATON_CLKCTRL_AGATES0_SET(0, 0);
 284:../../Middlewares/AI_Runtime/Npu/ll_aton/ll_aton.c ****   ATON_CLKCTRL_AGATES1_SET(0, 0);
 285:../../Middlewares/AI_Runtime/Npu/ll_aton/ll_aton.c ****   ATON_CLKCTRL_BGATES_SET(0, 0);
 286:../../Middlewares/AI_Runtime/Npu/ll_aton/ll_aton.c **** #ifdef ATON_CLKCTRL_BGATES1_OFFSET
 287:../../Middlewares/AI_Runtime/Npu/ll_aton/ll_aton.c ****   ATON_CLKCTRL_BGATES1_SET(0, 0);
 288:../../Middlewares/AI_Runtime/Npu/ll_aton/ll_aton.c **** #endif
 289:../../Middlewares/AI_Runtime/Npu/ll_aton/ll_aton.c ****   ATON_CLKCTRL_CTRL_SET(0, 0);
 290:../../Middlewares/AI_Runtime/Npu/ll_aton/ll_aton.c **** 
 291:../../Middlewares/AI_Runtime/Npu/ll_aton/ll_aton.c ****   return 0;
 292:../../Middlewares/AI_Runtime/Npu/ll_aton/ll_aton.c **** }
 293:../../Middlewares/AI_Runtime/Npu/ll_aton/ll_aton.c **** 
 294:../../Middlewares/AI_Runtime/Npu/ll_aton/ll_aton.c **** /**
 295:../../Middlewares/AI_Runtime/Npu/ll_aton/ll_aton.c ****  * @brief  Enables a set of ATON units
 296:../../Middlewares/AI_Runtime/Npu/ll_aton/ll_aton.c ****  * @param  LL_ATON_EnableUnits_InitStruct Array of units to enable
 297:../../Middlewares/AI_Runtime/Npu/ll_aton/ll_aton.c ****  * @param  n Lenght of the initialization array
 298:../../Middlewares/AI_Runtime/Npu/ll_aton/ll_aton.c ****  * @retval Error code
 299:../../Middlewares/AI_Runtime/Npu/ll_aton/ll_aton.c ****  * @todo   Add boundary checks
 300:../../Middlewares/AI_Runtime/Npu/ll_aton/ll_aton.c ****  */
 301:../../Middlewares/AI_Runtime/Npu/ll_aton/ll_aton.c **** int LL_ATON_EnableUnits_Init(const LL_ATON_EnableUnits_InitTypeDef *LL_ATON_EnableUnits_InitStruct,
 302:../../Middlewares/AI_Runtime/Npu/ll_aton/ll_aton.c **** {
 303:../../Middlewares/AI_Runtime/Npu/ll_aton/ll_aton.c ****   int i;
 304:../../Middlewares/AI_Runtime/Npu/ll_aton/ll_aton.c ****   enum AccelUnitsType unitType;
 305:../../Middlewares/AI_Runtime/Npu/ll_aton/ll_aton.c ****   uint32_t unitId;
 306:../../Middlewares/AI_Runtime/Npu/ll_aton/ll_aton.c **** 
 307:../../Middlewares/AI_Runtime/Npu/ll_aton/ll_aton.c ****   for (i = 0; i < n; i++)
 308:../../Middlewares/AI_Runtime/Npu/ll_aton/ll_aton.c ****   {
 309:../../Middlewares/AI_Runtime/Npu/ll_aton/ll_aton.c ****     unitType = LL_ATON_EnableUnits_InitStruct[i].unit.unit_type;
 310:../../Middlewares/AI_Runtime/Npu/ll_aton/ll_aton.c ****     unitId = LL_ATON_EnableUnits_InitStruct[i].unit.unit_num;
ARM GAS  C:\Users\Antonio\AppData\Local\Temp\ccynTwLp.s 			page 7


 311:../../Middlewares/AI_Runtime/Npu/ll_aton/ll_aton.c **** 
 312:../../Middlewares/AI_Runtime/Npu/ll_aton/ll_aton.c ****     switch (unitType)
 313:../../Middlewares/AI_Runtime/Npu/ll_aton/ll_aton.c ****     {
 314:../../Middlewares/AI_Runtime/Npu/ll_aton/ll_aton.c ****     case STRENG:
 315:../../Middlewares/AI_Runtime/Npu/ll_aton/ll_aton.c ****       ATON_ENABLE(STRENG, unitId);
 316:../../Middlewares/AI_Runtime/Npu/ll_aton/ll_aton.c ****       break;
 317:../../Middlewares/AI_Runtime/Npu/ll_aton/ll_aton.c **** 
 318:../../Middlewares/AI_Runtime/Npu/ll_aton/ll_aton.c **** #ifdef ATON_STRENG64_NUM
 319:../../Middlewares/AI_Runtime/Npu/ll_aton/ll_aton.c ****     case STRENG64:
 320:../../Middlewares/AI_Runtime/Npu/ll_aton/ll_aton.c ****       ATON_ENABLE(STRENG64, unitId);
 321:../../Middlewares/AI_Runtime/Npu/ll_aton/ll_aton.c ****       break;
 322:../../Middlewares/AI_Runtime/Npu/ll_aton/ll_aton.c **** #endif
 323:../../Middlewares/AI_Runtime/Npu/ll_aton/ll_aton.c **** 
 324:../../Middlewares/AI_Runtime/Npu/ll_aton/ll_aton.c **** #ifdef ATON_CONVACC_NUM
 325:../../Middlewares/AI_Runtime/Npu/ll_aton/ll_aton.c ****     case CONVACC:
 326:../../Middlewares/AI_Runtime/Npu/ll_aton/ll_aton.c **** #if 0
 327:../../Middlewares/AI_Runtime/Npu/ll_aton/ll_aton.c ****       ATON_ENABLE(CONVACC, unitId);
 328:../../Middlewares/AI_Runtime/Npu/ll_aton/ll_aton.c **** #else
 329:../../Middlewares/AI_Runtime/Npu/ll_aton/ll_aton.c ****       ATON_CONVACC_CTRL_SET(unitId, ATON_CONVACC_CTRL_SET_EN(Conv_ctrl_bits[unitId], 1));
 330:../../Middlewares/AI_Runtime/Npu/ll_aton/ll_aton.c **** #endif
 331:../../Middlewares/AI_Runtime/Npu/ll_aton/ll_aton.c ****       break;
 332:../../Middlewares/AI_Runtime/Npu/ll_aton/ll_aton.c **** #endif
 333:../../Middlewares/AI_Runtime/Npu/ll_aton/ll_aton.c **** 
 334:../../Middlewares/AI_Runtime/Npu/ll_aton/ll_aton.c **** #ifdef ATON_DECUN_NUM
 335:../../Middlewares/AI_Runtime/Npu/ll_aton/ll_aton.c ****     case DECUN:
 336:../../Middlewares/AI_Runtime/Npu/ll_aton/ll_aton.c ****       ATON_ENABLE(DECUN, unitId);
 337:../../Middlewares/AI_Runtime/Npu/ll_aton/ll_aton.c ****       break;
 338:../../Middlewares/AI_Runtime/Npu/ll_aton/ll_aton.c **** #endif
 339:../../Middlewares/AI_Runtime/Npu/ll_aton/ll_aton.c **** 
 340:../../Middlewares/AI_Runtime/Npu/ll_aton/ll_aton.c **** #ifdef ATON_ACTIV_NUM
 341:../../Middlewares/AI_Runtime/Npu/ll_aton/ll_aton.c ****     case ACTIV:
 342:../../Middlewares/AI_Runtime/Npu/ll_aton/ll_aton.c ****       ATON_ENABLE(ACTIV, unitId);
 343:../../Middlewares/AI_Runtime/Npu/ll_aton/ll_aton.c ****       break;
 344:../../Middlewares/AI_Runtime/Npu/ll_aton/ll_aton.c **** #endif
 345:../../Middlewares/AI_Runtime/Npu/ll_aton/ll_aton.c **** 
 346:../../Middlewares/AI_Runtime/Npu/ll_aton/ll_aton.c **** #ifdef ATON_ARITH_NUM
 347:../../Middlewares/AI_Runtime/Npu/ll_aton/ll_aton.c ****     case ARITH:
 348:../../Middlewares/AI_Runtime/Npu/ll_aton/ll_aton.c ****       ATON_ENABLE(ARITH, unitId);
 349:../../Middlewares/AI_Runtime/Npu/ll_aton/ll_aton.c ****       break;
 350:../../Middlewares/AI_Runtime/Npu/ll_aton/ll_aton.c **** #endif
 351:../../Middlewares/AI_Runtime/Npu/ll_aton/ll_aton.c **** 
 352:../../Middlewares/AI_Runtime/Npu/ll_aton/ll_aton.c **** #ifdef ATON_POOL_NUM
 353:../../Middlewares/AI_Runtime/Npu/ll_aton/ll_aton.c ****     case POOL:
 354:../../Middlewares/AI_Runtime/Npu/ll_aton/ll_aton.c **** #ifdef POOL_RC14
 355:../../Middlewares/AI_Runtime/Npu/ll_aton/ll_aton.c ****       ATON_POOL_CTRL_SET(unitId, ATON_POOL_CTRL_SET_EN(ATON_POOL_CTRL_GET(unitId), 1));
 356:../../Middlewares/AI_Runtime/Npu/ll_aton/ll_aton.c **** #else  // !POOL_RC14
 357:../../Middlewares/AI_Runtime/Npu/ll_aton/ll_aton.c ****       ATON_ENABLE(POOL, unitId);
 358:../../Middlewares/AI_Runtime/Npu/ll_aton/ll_aton.c **** #endif // !POOL_RC14
 359:../../Middlewares/AI_Runtime/Npu/ll_aton/ll_aton.c ****       break;
 360:../../Middlewares/AI_Runtime/Npu/ll_aton/ll_aton.c **** #endif
 361:../../Middlewares/AI_Runtime/Npu/ll_aton/ll_aton.c **** #ifdef ATON_RECBUF_NUM
 362:../../Middlewares/AI_Runtime/Npu/ll_aton/ll_aton.c ****     case RECBUF:
 363:../../Middlewares/AI_Runtime/Npu/ll_aton/ll_aton.c ****       ATON_ENABLE(RECBUF, unitId);
 364:../../Middlewares/AI_Runtime/Npu/ll_aton/ll_aton.c ****       break;
 365:../../Middlewares/AI_Runtime/Npu/ll_aton/ll_aton.c **** #endif
 366:../../Middlewares/AI_Runtime/Npu/ll_aton/ll_aton.c **** 
 367:../../Middlewares/AI_Runtime/Npu/ll_aton/ll_aton.c ****     default:
ARM GAS  C:\Users\Antonio\AppData\Local\Temp\ccynTwLp.s 			page 8


 368:../../Middlewares/AI_Runtime/Npu/ll_aton/ll_aton.c ****       break;
 369:../../Middlewares/AI_Runtime/Npu/ll_aton/ll_aton.c ****     }
 370:../../Middlewares/AI_Runtime/Npu/ll_aton/ll_aton.c ****   }
 371:../../Middlewares/AI_Runtime/Npu/ll_aton/ll_aton.c **** 
 372:../../Middlewares/AI_Runtime/Npu/ll_aton/ll_aton.c ****   return 0;
 373:../../Middlewares/AI_Runtime/Npu/ll_aton/ll_aton.c **** }
 374:../../Middlewares/AI_Runtime/Npu/ll_aton/ll_aton.c **** 
 375:../../Middlewares/AI_Runtime/Npu/ll_aton/ll_aton.c **** /**
 376:../../Middlewares/AI_Runtime/Npu/ll_aton/ll_aton.c ****  * @brief  Disables a set of ATON units
 377:../../Middlewares/AI_Runtime/Npu/ll_aton/ll_aton.c ****  * @param  LL_ATON_DisableUnits_InitTypeDef Array of units to disable
 378:../../Middlewares/AI_Runtime/Npu/ll_aton/ll_aton.c ****  * @param  n Length of the initialization array
 379:../../Middlewares/AI_Runtime/Npu/ll_aton/ll_aton.c ****  * @retval Error code
 380:../../Middlewares/AI_Runtime/Npu/ll_aton/ll_aton.c ****  */
 381:../../Middlewares/AI_Runtime/Npu/ll_aton/ll_aton.c **** int LL_ATON_DisableUnits_Init(const LL_ATON_DisableUnits_InitTypeDef *LL_ATON_DisableUnits_InitStru
 382:../../Middlewares/AI_Runtime/Npu/ll_aton/ll_aton.c **** {
 383:../../Middlewares/AI_Runtime/Npu/ll_aton/ll_aton.c ****   int i;
 384:../../Middlewares/AI_Runtime/Npu/ll_aton/ll_aton.c ****   enum AccelUnitsType unitType;
 385:../../Middlewares/AI_Runtime/Npu/ll_aton/ll_aton.c ****   uint32_t unitId;
 386:../../Middlewares/AI_Runtime/Npu/ll_aton/ll_aton.c ****   uint32_t t;
 387:../../Middlewares/AI_Runtime/Npu/ll_aton/ll_aton.c **** 
 388:../../Middlewares/AI_Runtime/Npu/ll_aton/ll_aton.c ****   for (i = 0; i < n; i++)
 389:../../Middlewares/AI_Runtime/Npu/ll_aton/ll_aton.c ****   {
 390:../../Middlewares/AI_Runtime/Npu/ll_aton/ll_aton.c ****     unitType = LL_ATON_DisableUnits_InitStruct[i].unit.unit_type;
 391:../../Middlewares/AI_Runtime/Npu/ll_aton/ll_aton.c ****     unitId = LL_ATON_DisableUnits_InitStruct[i].unit.unit_num;
 392:../../Middlewares/AI_Runtime/Npu/ll_aton/ll_aton.c **** 
 393:../../Middlewares/AI_Runtime/Npu/ll_aton/ll_aton.c ****     switch (unitType)
 394:../../Middlewares/AI_Runtime/Npu/ll_aton/ll_aton.c ****     {
 395:../../Middlewares/AI_Runtime/Npu/ll_aton/ll_aton.c **** #ifdef ATON_STRENG_NUM
 396:../../Middlewares/AI_Runtime/Npu/ll_aton/ll_aton.c ****     case STRENG:
 397:../../Middlewares/AI_Runtime/Npu/ll_aton/ll_aton.c ****       ATON_DISABLE_CLR_CONFCLR(STRENG, unitId);
 398:../../Middlewares/AI_Runtime/Npu/ll_aton/ll_aton.c ****       LL_ATON_DisableClock(ATON_STRENG_CLKB_CLK(unitId));
 399:../../Middlewares/AI_Runtime/Npu/ll_aton/ll_aton.c ****       break;
 400:../../Middlewares/AI_Runtime/Npu/ll_aton/ll_aton.c **** #endif
 401:../../Middlewares/AI_Runtime/Npu/ll_aton/ll_aton.c **** 
 402:../../Middlewares/AI_Runtime/Npu/ll_aton/ll_aton.c **** #ifdef ATON_CONVACC_NUM
 403:../../Middlewares/AI_Runtime/Npu/ll_aton/ll_aton.c ****     case CONVACC:
 404:../../Middlewares/AI_Runtime/Npu/ll_aton/ll_aton.c ****       ATON_DISABLE_CLR_CONFCLR(CONVACC, unitId);
 405:../../Middlewares/AI_Runtime/Npu/ll_aton/ll_aton.c ****       LL_ATON_DisableClock(ATON_CONVACC_CLKB_CLK(unitId));
 406:../../Middlewares/AI_Runtime/Npu/ll_aton/ll_aton.c ****       break;
 407:../../Middlewares/AI_Runtime/Npu/ll_aton/ll_aton.c **** #endif
 408:../../Middlewares/AI_Runtime/Npu/ll_aton/ll_aton.c **** 
 409:../../Middlewares/AI_Runtime/Npu/ll_aton/ll_aton.c **** #ifdef ATON_DECUN_NUM
 410:../../Middlewares/AI_Runtime/Npu/ll_aton/ll_aton.c ****     case DECUN:
 411:../../Middlewares/AI_Runtime/Npu/ll_aton/ll_aton.c ****       ATON_DISABLE_CLR_CONFCLR(DECUN, unitId);
 412:../../Middlewares/AI_Runtime/Npu/ll_aton/ll_aton.c ****       LL_ATON_DisableClock(ATON_DECUN_CLKB_CLK(unitId));
 413:../../Middlewares/AI_Runtime/Npu/ll_aton/ll_aton.c ****       break;
 414:../../Middlewares/AI_Runtime/Npu/ll_aton/ll_aton.c **** #endif
 415:../../Middlewares/AI_Runtime/Npu/ll_aton/ll_aton.c **** 
 416:../../Middlewares/AI_Runtime/Npu/ll_aton/ll_aton.c **** #ifdef ATON_ACTIV_NUM
 417:../../Middlewares/AI_Runtime/Npu/ll_aton/ll_aton.c ****     case ACTIV:
 418:../../Middlewares/AI_Runtime/Npu/ll_aton/ll_aton.c ****       ATON_DISABLE_CLR_CONFCLR(ACTIV, unitId);
 419:../../Middlewares/AI_Runtime/Npu/ll_aton/ll_aton.c ****       LL_ATON_DisableClock(ATON_ACTIV_CLKB_CLK(unitId));
 420:../../Middlewares/AI_Runtime/Npu/ll_aton/ll_aton.c ****       break;
 421:../../Middlewares/AI_Runtime/Npu/ll_aton/ll_aton.c **** #endif
 422:../../Middlewares/AI_Runtime/Npu/ll_aton/ll_aton.c **** 
 423:../../Middlewares/AI_Runtime/Npu/ll_aton/ll_aton.c **** #ifdef ATON_ARITH_NUM
 424:../../Middlewares/AI_Runtime/Npu/ll_aton/ll_aton.c ****     case ARITH:
ARM GAS  C:\Users\Antonio\AppData\Local\Temp\ccynTwLp.s 			page 9


 425:../../Middlewares/AI_Runtime/Npu/ll_aton/ll_aton.c ****       ATON_DISABLE_CLR_CONFCLR(ARITH, unitId);
 426:../../Middlewares/AI_Runtime/Npu/ll_aton/ll_aton.c ****       LL_ATON_DisableClock(ATON_ARITH_CLKB_CLK(unitId));
 427:../../Middlewares/AI_Runtime/Npu/ll_aton/ll_aton.c ****       break;
 428:../../Middlewares/AI_Runtime/Npu/ll_aton/ll_aton.c **** #endif
 429:../../Middlewares/AI_Runtime/Npu/ll_aton/ll_aton.c **** 
 430:../../Middlewares/AI_Runtime/Npu/ll_aton/ll_aton.c **** #ifdef ATON_POOL_NUM
 431:../../Middlewares/AI_Runtime/Npu/ll_aton/ll_aton.c ****     case POOL:
 432:../../Middlewares/AI_Runtime/Npu/ll_aton/ll_aton.c **** #ifdef POOL_RC14
 433:../../Middlewares/AI_Runtime/Npu/ll_aton/ll_aton.c ****       ATON_POOL_CTRL_SET(unitId, ATON_POOL_CTRL_SET_EN(ATON_POOL_CTRL_GET(unitId), 0));
 434:../../Middlewares/AI_Runtime/Npu/ll_aton/ll_aton.c **** #else  // !POOL_RC14
 435:../../Middlewares/AI_Runtime/Npu/ll_aton/ll_aton.c ****       ATON_DISABLE_CLR_CONFCLR(POOL, unitId);
 436:../../Middlewares/AI_Runtime/Npu/ll_aton/ll_aton.c **** #endif // !POOL_RC14
 437:../../Middlewares/AI_Runtime/Npu/ll_aton/ll_aton.c **** 
 438:../../Middlewares/AI_Runtime/Npu/ll_aton/ll_aton.c ****       LL_ATON_DisableClock(ATON_POOL_CLKB_CLK(unitId));
 439:../../Middlewares/AI_Runtime/Npu/ll_aton/ll_aton.c ****       break;
 440:../../Middlewares/AI_Runtime/Npu/ll_aton/ll_aton.c **** #endif
 441:../../Middlewares/AI_Runtime/Npu/ll_aton/ll_aton.c **** 
 442:../../Middlewares/AI_Runtime/Npu/ll_aton/ll_aton.c **** #ifdef ATON_RECBUF_NUM
 443:../../Middlewares/AI_Runtime/Npu/ll_aton/ll_aton.c ****     case RECBUF:
 444:../../Middlewares/AI_Runtime/Npu/ll_aton/ll_aton.c ****       ATON_DISABLE_CLR_CONFCLR(RECBUF, unitId);
 445:../../Middlewares/AI_Runtime/Npu/ll_aton/ll_aton.c ****       LL_ATON_DisableClock(ATON_RECBUF_CLKB_CLK(unitId));
 446:../../Middlewares/AI_Runtime/Npu/ll_aton/ll_aton.c ****       break;
 447:../../Middlewares/AI_Runtime/Npu/ll_aton/ll_aton.c **** #endif
 448:../../Middlewares/AI_Runtime/Npu/ll_aton/ll_aton.c **** 
 449:../../Middlewares/AI_Runtime/Npu/ll_aton/ll_aton.c ****     default:
 450:../../Middlewares/AI_Runtime/Npu/ll_aton/ll_aton.c ****       return LL_ATON_INVALID_PARAM;
 451:../../Middlewares/AI_Runtime/Npu/ll_aton/ll_aton.c ****     }
 452:../../Middlewares/AI_Runtime/Npu/ll_aton/ll_aton.c ****   }
 453:../../Middlewares/AI_Runtime/Npu/ll_aton/ll_aton.c **** 
 454:../../Middlewares/AI_Runtime/Npu/ll_aton/ll_aton.c ****   return LL_ATON_OK;
 455:../../Middlewares/AI_Runtime/Npu/ll_aton/ll_aton.c **** }
 456:../../Middlewares/AI_Runtime/Npu/ll_aton/ll_aton.c **** 
 457:../../Middlewares/AI_Runtime/Npu/ll_aton/ll_aton.c **** /**
 458:../../Middlewares/AI_Runtime/Npu/ll_aton/ll_aton.c ****  * @brief  Waits for streaming engine(s) to become idle
 459:../../Middlewares/AI_Runtime/Npu/ll_aton/ll_aton.c ****  * @param  mask Bitmask of DMA identifiers
 460:../../Middlewares/AI_Runtime/Npu/ll_aton/ll_aton.c ****  * @retval Error code
 461:../../Middlewares/AI_Runtime/Npu/ll_aton/ll_aton.c ****  */
 462:../../Middlewares/AI_Runtime/Npu/ll_aton/ll_aton.c **** int LL_Streng_Wait(uint32_t mask)
 463:../../Middlewares/AI_Runtime/Npu/ll_aton/ll_aton.c **** {
 464:../../Middlewares/AI_Runtime/Npu/ll_aton/ll_aton.c ****   int i;
 465:../../Middlewares/AI_Runtime/Npu/ll_aton/ll_aton.c ****   uint32_t enableFlags;
 466:../../Middlewares/AI_Runtime/Npu/ll_aton/ll_aton.c **** 
 467:../../Middlewares/AI_Runtime/Npu/ll_aton/ll_aton.c ****   startWatchdog(ATON_EPOCH_TIMEOUT);
 468:../../Middlewares/AI_Runtime/Npu/ll_aton/ll_aton.c **** 
 469:../../Middlewares/AI_Runtime/Npu/ll_aton/ll_aton.c ****   do
 470:../../Middlewares/AI_Runtime/Npu/ll_aton/ll_aton.c ****   {
 471:../../Middlewares/AI_Runtime/Npu/ll_aton/ll_aton.c ****     enableFlags = 0;
 472:../../Middlewares/AI_Runtime/Npu/ll_aton/ll_aton.c ****     for (i = 0; i < ATON_STRENG_NUM; i++)
 473:../../Middlewares/AI_Runtime/Npu/ll_aton/ll_aton.c ****     {
 474:../../Middlewares/AI_Runtime/Npu/ll_aton/ll_aton.c ****       if (mask & (1 << i))
 475:../../Middlewares/AI_Runtime/Npu/ll_aton/ll_aton.c ****       {
 476:../../Middlewares/AI_Runtime/Npu/ll_aton/ll_aton.c ****         enableFlags |= (ATON_STRENG_CTRL_GET(i) & (1U << ATON_STRENG_CTRL_RUNNING_LSB));
 477:../../Middlewares/AI_Runtime/Npu/ll_aton/ll_aton.c ****       }
 478:../../Middlewares/AI_Runtime/Npu/ll_aton/ll_aton.c ****     }
 479:../../Middlewares/AI_Runtime/Npu/ll_aton/ll_aton.c **** 
 480:../../Middlewares/AI_Runtime/Npu/ll_aton/ll_aton.c ****     LL_ATON_ASSERT(checkWatchdog() == 0);
 481:../../Middlewares/AI_Runtime/Npu/ll_aton/ll_aton.c **** 
ARM GAS  C:\Users\Antonio\AppData\Local\Temp\ccynTwLp.s 			page 10


 482:../../Middlewares/AI_Runtime/Npu/ll_aton/ll_aton.c ****   } while (enableFlags);
 483:../../Middlewares/AI_Runtime/Npu/ll_aton/ll_aton.c **** 
 484:../../Middlewares/AI_Runtime/Npu/ll_aton/ll_aton.c ****   return LL_ATON_OK;
 485:../../Middlewares/AI_Runtime/Npu/ll_aton/ll_aton.c **** }
 486:../../Middlewares/AI_Runtime/Npu/ll_aton/ll_aton.c **** 
 487:../../Middlewares/AI_Runtime/Npu/ll_aton/ll_aton.c **** /**
 488:../../Middlewares/AI_Runtime/Npu/ll_aton/ll_aton.c ****  * @brief  Configures streaming engine
 489:../../Middlewares/AI_Runtime/Npu/ll_aton/ll_aton.c ****  * @param  id Streaming engine identifier [0..ATON_STRENG_NUM-1]
 490:../../Middlewares/AI_Runtime/Npu/ll_aton/ll_aton.c ****  * @param  conf Pointer to structure(s) describing initialization parameters
 491:../../Middlewares/AI_Runtime/Npu/ll_aton/ll_aton.c ****  * @param  n Number of elements in initialization structure array
 492:../../Middlewares/AI_Runtime/Npu/ll_aton/ll_aton.c ****  * @retval error code. E.g.: Invalid ID, invalid parameters, not idle,..
 493:../../Middlewares/AI_Runtime/Npu/ll_aton/ll_aton.c ****  */
 494:../../Middlewares/AI_Runtime/Npu/ll_aton/ll_aton.c **** int LL_Streng_TensorInit(int id, const LL_Streng_TensorInitTypeDef *conf, int n)
 495:../../Middlewares/AI_Runtime/Npu/ll_aton/ll_aton.c **** {
 496:../../Middlewares/AI_Runtime/Npu/ll_aton/ll_aton.c ****   uint32_t t;
 497:../../Middlewares/AI_Runtime/Npu/ll_aton/ll_aton.c **** 
 498:../../Middlewares/AI_Runtime/Npu/ll_aton/ll_aton.c ****   /* deferred register values */
 499:../../Middlewares/AI_Runtime/Npu/ll_aton/ll_aton.c ****   uint32_t t_streng_strd = ATON_STRENG_STRD_DT;
 500:../../Middlewares/AI_Runtime/Npu/ll_aton/ll_aton.c ****   uint32_t t_streng_cid_cache = ATON_STRENG_CID_CACHE_DT;
 501:../../Middlewares/AI_Runtime/Npu/ll_aton/ll_aton.c ****   uint32_t t_streng_event = ATON_STRENG_EVENT_DT;
 502:../../Middlewares/AI_Runtime/Npu/ll_aton/ll_aton.c **** 
 503:../../Middlewares/AI_Runtime/Npu/ll_aton/ll_aton.c ****   if (id >= ATON_STRENG_NUM)
 504:../../Middlewares/AI_Runtime/Npu/ll_aton/ll_aton.c ****     return LL_ATON_INVALID_ID;
 505:../../Middlewares/AI_Runtime/Npu/ll_aton/ll_aton.c **** 
 506:../../Middlewares/AI_Runtime/Npu/ll_aton/ll_aton.c ****   LL_ATON_EnableClock(ATON_STRENG_CLKB_CLK(id));
 507:../../Middlewares/AI_Runtime/Npu/ll_aton/ll_aton.c **** 
 508:../../Middlewares/AI_Runtime/Npu/ll_aton/ll_aton.c **** #define _LL_min(x, y) ((x) > (y) ? (y) : (x))
 509:../../Middlewares/AI_Runtime/Npu/ll_aton/ll_aton.c **** 
 510:../../Middlewares/AI_Runtime/Npu/ll_aton/ll_aton.c ****   if (n != 1)
 511:../../Middlewares/AI_Runtime/Npu/ll_aton/ll_aton.c ****     return -1;
 512:../../Middlewares/AI_Runtime/Npu/ll_aton/ll_aton.c ****     // if (conf->dir == 0 && (conf->nbits_in > conf->nbits_out)) return -1;
 513:../../Middlewares/AI_Runtime/Npu/ll_aton/ll_aton.c **** #ifndef ATON_IMC_NUM
 514:../../Middlewares/AI_Runtime/Npu/ll_aton/ll_aton.c ****   if (conf->nbits_in > 24 || conf->nbits_out > 24)
 515:../../Middlewares/AI_Runtime/Npu/ll_aton/ll_aton.c ****     return -1;
 516:../../Middlewares/AI_Runtime/Npu/ll_aton/ll_aton.c **** #endif
 517:../../Middlewares/AI_Runtime/Npu/ll_aton/ll_aton.c **** 
 518:../../Middlewares/AI_Runtime/Npu/ll_aton/ll_aton.c ****   t = ATON_STRENG_CTRL_DT;
 519:../../Middlewares/AI_Runtime/Npu/ll_aton/ll_aton.c ****   t = ATON_STRENG_CTRL_SET_DIR(t, (conf->dir != 0));
 520:../../Middlewares/AI_Runtime/Npu/ll_aton/ll_aton.c ****   t = ATON_STRENG_CTRL_SET_RAW(t, (conf->raw != 0));
 521:../../Middlewares/AI_Runtime/Npu/ll_aton/ll_aton.c **** #ifdef ATON_STRENG_CTRL_SET_RAW_OUT
 522:../../Middlewares/AI_Runtime/Npu/ll_aton/ll_aton.c ****   t = ATON_STRENG_CTRL_SET_RAW_OUT(t, conf->raw_out);
 523:../../Middlewares/AI_Runtime/Npu/ll_aton/ll_aton.c **** #else
 524:../../Middlewares/AI_Runtime/Npu/ll_aton/ll_aton.c ****   /* Hardware feature not supported */
 525:../../Middlewares/AI_Runtime/Npu/ll_aton/ll_aton.c ****   LL_ATON_ASSERT(conf->raw_out == 0);
 526:../../Middlewares/AI_Runtime/Npu/ll_aton/ll_aton.c **** #endif
 527:../../Middlewares/AI_Runtime/Npu/ll_aton/ll_aton.c ****   t = ATON_STRENG_CTRL_SET_NOBLK(t, (conf->noblk != 0));
 528:../../Middlewares/AI_Runtime/Npu/ll_aton/ll_aton.c ****   t = ATON_STRENG_CTRL_SET_NOINC(t, (conf->noinc == 1));
 529:../../Middlewares/AI_Runtime/Npu/ll_aton/ll_aton.c ****   t = ATON_STRENG_CTRL_SET_SINGLE(t, conf->frame_tot_cnt == 1);
 530:../../Middlewares/AI_Runtime/Npu/ll_aton/ll_aton.c ****   t = ATON_STRENG_CTRL_SET_CONT(t, conf->continuous == 1);
 531:../../Middlewares/AI_Runtime/Npu/ll_aton/ll_aton.c ****   t = ATON_STRENG_CTRL_SET_LSBMODE(t, conf->align_right == 1);
 532:../../Middlewares/AI_Runtime/Npu/ll_aton/ll_aton.c ****   t = ATON_STRENG_CTRL_SET_SIGNEXT(t, conf->align_right == 1 && conf->nbits_unsigned == 0);
 533:../../Middlewares/AI_Runtime/Npu/ll_aton/ll_aton.c **** 
 534:../../Middlewares/AI_Runtime/Npu/ll_aton/ll_aton.c ****   int ch_bits[3] = {0, 0, 0};
 535:../../Middlewares/AI_Runtime/Npu/ll_aton/ll_aton.c ****   int in_bits[3];
 536:../../Middlewares/AI_Runtime/Npu/ll_aton/ll_aton.c ****   int out_bits[3];
 537:../../Middlewares/AI_Runtime/Npu/ll_aton/ll_aton.c ****   int nbits_out = conf->nbits_out;
 538:../../Middlewares/AI_Runtime/Npu/ll_aton/ll_aton.c ****   int nbits_in = conf->nbits_in;
ARM GAS  C:\Users\Antonio\AppData\Local\Temp\ccynTwLp.s 			page 11


 539:../../Middlewares/AI_Runtime/Npu/ll_aton/ll_aton.c **** 
 540:../../Middlewares/AI_Runtime/Npu/ll_aton/ll_aton.c ****   // case 0: bus -> stream --> in_bits > out_bits -> use FRONT_GAP
 541:../../Middlewares/AI_Runtime/Npu/ll_aton/ll_aton.c ****   //                      |
 542:../../Middlewares/AI_Runtime/Npu/ll_aton/ll_aton.c ****   // case 1:              --> in_bits <= out_bits -> use lanes but valid for out_bits=8,16,24 for o
 543:../../Middlewares/AI_Runtime/Npu/ll_aton/ll_aton.c ****   // is right shifted by (8,16,24) - out_bits
 544:../../Middlewares/AI_Runtime/Npu/ll_aton/ll_aton.c ****   //
 545:../../Middlewares/AI_Runtime/Npu/ll_aton/ll_aton.c ****   // case 2: stream->bus  --> in_bits >= out_bits -> use lanes but valid for in_bits=8,16,24 for ot
 546:../../Middlewares/AI_Runtime/Npu/ll_aton/ll_aton.c ****   // right shifted by (8,16,24) - out_bits
 547:../../Middlewares/AI_Runtime/Npu/ll_aton/ll_aton.c ****   //                      |
 548:../../Middlewares/AI_Runtime/Npu/ll_aton/ll_aton.c ****   // case 3:              --> in_bits < out_bits -> use FRONT_GAP
 549:../../Middlewares/AI_Runtime/Npu/ll_aton/ll_aton.c **** 
 550:../../Middlewares/AI_Runtime/Npu/ll_aton/ll_aton.c ****   int io_case = ((conf->dir != 0) << 1);
 551:../../Middlewares/AI_Runtime/Npu/ll_aton/ll_aton.c ****   io_case += (conf->dir == 0 ? (conf->nbits_in <= conf->nbits_out) : (conf->nbits_in < conf->nbits_
 552:../../Middlewares/AI_Runtime/Npu/ll_aton/ll_aton.c **** 
 553:../../Middlewares/AI_Runtime/Npu/ll_aton/ll_aton.c ****   switch (io_case)
 554:../../Middlewares/AI_Runtime/Npu/ll_aton/ll_aton.c ****   {
 555:../../Middlewares/AI_Runtime/Npu/ll_aton/ll_aton.c ****   case 0: // in_bits > out_bits && bus->stream
 556:../../Middlewares/AI_Runtime/Npu/ll_aton/ll_aton.c ****           // must use FRONT_GAP
 557:../../Middlewares/AI_Runtime/Npu/ll_aton/ll_aton.c ****   {
 558:../../Middlewares/AI_Runtime/Npu/ll_aton/ll_aton.c ****     if (conf->mem_lsb)
 559:../../Middlewares/AI_Runtime/Npu/ll_aton/ll_aton.c ****       t_streng_strd = ATON_STRENG_STRD_SET_FGAP(t_streng_strd, (nbits_in - nbits_out));
 560:../../Middlewares/AI_Runtime/Npu/ll_aton/ll_aton.c ****     else
 561:../../Middlewares/AI_Runtime/Npu/ll_aton/ll_aton.c ****       t_streng_strd = ATON_STRENG_STRD_SET_BGAP(t_streng_strd, (nbits_in - nbits_out));
 562:../../Middlewares/AI_Runtime/Npu/ll_aton/ll_aton.c ****     nbits_in = nbits_out;
 563:../../Middlewares/AI_Runtime/Npu/ll_aton/ll_aton.c ****   }
 564:../../Middlewares/AI_Runtime/Npu/ll_aton/ll_aton.c ****   // intentional fall through
 565:../../Middlewares/AI_Runtime/Npu/ll_aton/ll_aton.c ****   case 1: // in_bits <= out_bits && bus->stream
 566:../../Middlewares/AI_Runtime/Npu/ll_aton/ll_aton.c ****     in_bits[0] = _LL_min(8, nbits_in);
 567:../../Middlewares/AI_Runtime/Npu/ll_aton/ll_aton.c ****     in_bits[1] = nbits_in > 8 ? _LL_min(8, nbits_in - 8) : 0;
 568:../../Middlewares/AI_Runtime/Npu/ll_aton/ll_aton.c ****     in_bits[2] = nbits_in > 16 ? _LL_min(8, nbits_in - 16) : 0;
 569:../../Middlewares/AI_Runtime/Npu/ll_aton/ll_aton.c ****     if (conf->align_right)
 570:../../Middlewares/AI_Runtime/Npu/ll_aton/ll_aton.c ****     {
 571:../../Middlewares/AI_Runtime/Npu/ll_aton/ll_aton.c ****       ch_bits[0] = in_bits[0];
 572:../../Middlewares/AI_Runtime/Npu/ll_aton/ll_aton.c ****       ch_bits[1] = in_bits[1];
 573:../../Middlewares/AI_Runtime/Npu/ll_aton/ll_aton.c ****       ch_bits[2] = in_bits[2];
 574:../../Middlewares/AI_Runtime/Npu/ll_aton/ll_aton.c ****     }
 575:../../Middlewares/AI_Runtime/Npu/ll_aton/ll_aton.c ****     else
 576:../../Middlewares/AI_Runtime/Npu/ll_aton/ll_aton.c ****     {
 577:../../Middlewares/AI_Runtime/Npu/ll_aton/ll_aton.c ****       if (nbits_out > 16)
 578:../../Middlewares/AI_Runtime/Npu/ll_aton/ll_aton.c ****       {
 579:../../Middlewares/AI_Runtime/Npu/ll_aton/ll_aton.c ****         ch_bits[2] = in_bits[0];
 580:../../Middlewares/AI_Runtime/Npu/ll_aton/ll_aton.c ****         ch_bits[1] = in_bits[1];
 581:../../Middlewares/AI_Runtime/Npu/ll_aton/ll_aton.c ****         ch_bits[0] = in_bits[2];
 582:../../Middlewares/AI_Runtime/Npu/ll_aton/ll_aton.c ****       }
 583:../../Middlewares/AI_Runtime/Npu/ll_aton/ll_aton.c ****       else if (nbits_out > 8)
 584:../../Middlewares/AI_Runtime/Npu/ll_aton/ll_aton.c ****       {
 585:../../Middlewares/AI_Runtime/Npu/ll_aton/ll_aton.c ****         ch_bits[1] = in_bits[0];
 586:../../Middlewares/AI_Runtime/Npu/ll_aton/ll_aton.c ****         ch_bits[0] = in_bits[1];
 587:../../Middlewares/AI_Runtime/Npu/ll_aton/ll_aton.c ****       } // N.B. the DMA stuffs the bits to the left of the channel
 588:../../Middlewares/AI_Runtime/Npu/ll_aton/ll_aton.c ****       else
 589:../../Middlewares/AI_Runtime/Npu/ll_aton/ll_aton.c ****         ch_bits[0] = in_bits[0];
 590:../../Middlewares/AI_Runtime/Npu/ll_aton/ll_aton.c ****     }
 591:../../Middlewares/AI_Runtime/Npu/ll_aton/ll_aton.c ****     break;
 592:../../Middlewares/AI_Runtime/Npu/ll_aton/ll_aton.c ****   case 3: // in_bits < out_bits && stream->bus
 593:../../Middlewares/AI_Runtime/Npu/ll_aton/ll_aton.c ****   {
 594:../../Middlewares/AI_Runtime/Npu/ll_aton/ll_aton.c ****     if (conf->mem_lsb)
 595:../../Middlewares/AI_Runtime/Npu/ll_aton/ll_aton.c ****       t_streng_strd = ATON_STRENG_STRD_SET_FGAP(t_streng_strd, (nbits_out - nbits_in));
ARM GAS  C:\Users\Antonio\AppData\Local\Temp\ccynTwLp.s 			page 12


 596:../../Middlewares/AI_Runtime/Npu/ll_aton/ll_aton.c ****     else
 597:../../Middlewares/AI_Runtime/Npu/ll_aton/ll_aton.c ****       t_streng_strd = ATON_STRENG_STRD_SET_BGAP(t_streng_strd, (nbits_out - nbits_in));
 598:../../Middlewares/AI_Runtime/Npu/ll_aton/ll_aton.c ****     nbits_out = nbits_in;
 599:../../Middlewares/AI_Runtime/Npu/ll_aton/ll_aton.c ****   }
 600:../../Middlewares/AI_Runtime/Npu/ll_aton/ll_aton.c ****   // intentional fall through
 601:../../Middlewares/AI_Runtime/Npu/ll_aton/ll_aton.c ****   case 2: // in_bits >= out_bits && stream->bus
 602:../../Middlewares/AI_Runtime/Npu/ll_aton/ll_aton.c ****     out_bits[0] = _LL_min(8, nbits_out);
 603:../../Middlewares/AI_Runtime/Npu/ll_aton/ll_aton.c ****     out_bits[1] = nbits_out > 8 ? _LL_min(8, nbits_out - 8) : 0;
 604:../../Middlewares/AI_Runtime/Npu/ll_aton/ll_aton.c ****     out_bits[2] = nbits_out > 16 ? _LL_min(8, nbits_out - 16) : 0;
 605:../../Middlewares/AI_Runtime/Npu/ll_aton/ll_aton.c ****     if (conf->align_right)
 606:../../Middlewares/AI_Runtime/Npu/ll_aton/ll_aton.c ****     {
 607:../../Middlewares/AI_Runtime/Npu/ll_aton/ll_aton.c ****       ch_bits[0] = out_bits[0];
 608:../../Middlewares/AI_Runtime/Npu/ll_aton/ll_aton.c ****       ch_bits[1] = out_bits[1];
 609:../../Middlewares/AI_Runtime/Npu/ll_aton/ll_aton.c ****       ch_bits[2] = out_bits[2];
 610:../../Middlewares/AI_Runtime/Npu/ll_aton/ll_aton.c ****     }
 611:../../Middlewares/AI_Runtime/Npu/ll_aton/ll_aton.c ****     else
 612:../../Middlewares/AI_Runtime/Npu/ll_aton/ll_aton.c ****     {
 613:../../Middlewares/AI_Runtime/Npu/ll_aton/ll_aton.c ****       if (nbits_in > 16)
 614:../../Middlewares/AI_Runtime/Npu/ll_aton/ll_aton.c ****       {
 615:../../Middlewares/AI_Runtime/Npu/ll_aton/ll_aton.c ****         ch_bits[2] = out_bits[0];
 616:../../Middlewares/AI_Runtime/Npu/ll_aton/ll_aton.c ****         ch_bits[1] = out_bits[1];
 617:../../Middlewares/AI_Runtime/Npu/ll_aton/ll_aton.c ****         ch_bits[0] = out_bits[2];
 618:../../Middlewares/AI_Runtime/Npu/ll_aton/ll_aton.c ****       }
 619:../../Middlewares/AI_Runtime/Npu/ll_aton/ll_aton.c ****       else if (nbits_in > 8)
 620:../../Middlewares/AI_Runtime/Npu/ll_aton/ll_aton.c ****       {
 621:../../Middlewares/AI_Runtime/Npu/ll_aton/ll_aton.c ****         ch_bits[1] = out_bits[0];
 622:../../Middlewares/AI_Runtime/Npu/ll_aton/ll_aton.c ****         ch_bits[0] = out_bits[1];
 623:../../Middlewares/AI_Runtime/Npu/ll_aton/ll_aton.c ****       } // N.B. the DMA stuffs the bits to the left of the channel
 624:../../Middlewares/AI_Runtime/Npu/ll_aton/ll_aton.c ****       else
 625:../../Middlewares/AI_Runtime/Npu/ll_aton/ll_aton.c ****         ch_bits[0] = out_bits[0];
 626:../../Middlewares/AI_Runtime/Npu/ll_aton/ll_aton.c ****     }
 627:../../Middlewares/AI_Runtime/Npu/ll_aton/ll_aton.c ****     break;
 628:../../Middlewares/AI_Runtime/Npu/ll_aton/ll_aton.c ****   }
 629:../../Middlewares/AI_Runtime/Npu/ll_aton/ll_aton.c **** 
 630:../../Middlewares/AI_Runtime/Npu/ll_aton/ll_aton.c **** /* Take care of N64 single size register. TODO: double check this  */
 631:../../Middlewares/AI_Runtime/Npu/ll_aton/ll_aton.c **** #ifdef ATON_STRENG_CTRL_SET_SIZE1
 632:../../Middlewares/AI_Runtime/Npu/ll_aton/ll_aton.c ****   t = ATON_STRENG_CTRL_SET_SIZE0(t, ch_bits[0]);
 633:../../Middlewares/AI_Runtime/Npu/ll_aton/ll_aton.c ****   t = ATON_STRENG_CTRL_SET_SIZE1(t, ch_bits[1]);
 634:../../Middlewares/AI_Runtime/Npu/ll_aton/ll_aton.c ****   t = ATON_STRENG_CTRL_SET_SIZE2(t, ch_bits[2]);
 635:../../Middlewares/AI_Runtime/Npu/ll_aton/ll_aton.c **** #else
 636:../../Middlewares/AI_Runtime/Npu/ll_aton/ll_aton.c ****   if (conf->dir)
 637:../../Middlewares/AI_Runtime/Npu/ll_aton/ll_aton.c ****     t = ATON_STRENG_CTRL_SET_SIZE0(t, conf->nbits_out);
 638:../../Middlewares/AI_Runtime/Npu/ll_aton/ll_aton.c ****   else
 639:../../Middlewares/AI_Runtime/Npu/ll_aton/ll_aton.c ****     t = ATON_STRENG_CTRL_SET_SIZE0(t, conf->nbits_in);
 640:../../Middlewares/AI_Runtime/Npu/ll_aton/ll_aton.c **** #endif
 641:../../Middlewares/AI_Runtime/Npu/ll_aton/ll_aton.c **** 
 642:../../Middlewares/AI_Runtime/Npu/ll_aton/ll_aton.c ****   ATON_STRENG_CTRL_SET(id, t);
 643:../../Middlewares/AI_Runtime/Npu/ll_aton/ll_aton.c **** 
 644:../../Middlewares/AI_Runtime/Npu/ll_aton/ll_aton.c ****   // ATON_STRENG_ADDR_SET(id, conf->addr_start.i);
 645:../../Middlewares/AI_Runtime/Npu/ll_aton/ll_aton.c ****   ATON_REG_WRITE_RELOC(((volatile uint32_t *)(uintptr_t)ATON_STRENG_ADDR_ADDR(id)), conf->addr_base
 646:../../Middlewares/AI_Runtime/Npu/ll_aton/ll_aton.c ****                        conf->offset_start);
 647:../../Middlewares/AI_Runtime/Npu/ll_aton/ll_aton.c **** 
 648:../../Middlewares/AI_Runtime/Npu/ll_aton/ll_aton.c ****   if (conf->raw)
 649:../../Middlewares/AI_Runtime/Npu/ll_aton/ll_aton.c ****   {
 650:../../Middlewares/AI_Runtime/Npu/ll_aton/ll_aton.c ****     if (conf->frame_count)
 651:../../Middlewares/AI_Runtime/Npu/ll_aton/ll_aton.c ****       t = conf->frame_count;
 652:../../Middlewares/AI_Runtime/Npu/ll_aton/ll_aton.c ****     else
ARM GAS  C:\Users\Antonio\AppData\Local\Temp\ccynTwLp.s 			page 13


 653:../../Middlewares/AI_Runtime/Npu/ll_aton/ll_aton.c ****     {
 654:../../Middlewares/AI_Runtime/Npu/ll_aton/ll_aton.c ****       // N.B. end - start must contain padding if nbits_in is not power of two
 655:../../Middlewares/AI_Runtime/Npu/ll_aton/ll_aton.c ****       t = (LL_Streng_len(conf) * 8) / (conf->dir == 0 ? conf->nbits_in : conf->nbits_out);
 656:../../Middlewares/AI_Runtime/Npu/ll_aton/ll_aton.c ****     }
 657:../../Middlewares/AI_Runtime/Npu/ll_aton/ll_aton.c ****     ATON_STRENG_FSIZE_SET(id, t);
 658:../../Middlewares/AI_Runtime/Npu/ll_aton/ll_aton.c ****   }
 659:../../Middlewares/AI_Runtime/Npu/ll_aton/ll_aton.c ****   else
 660:../../Middlewares/AI_Runtime/Npu/ll_aton/ll_aton.c ****   {
 661:../../Middlewares/AI_Runtime/Npu/ll_aton/ll_aton.c ****     t = ATON_STRENG_FSIZE_DT;
 662:../../Middlewares/AI_Runtime/Npu/ll_aton/ll_aton.c ****     t = ATON_STRENG_FSIZE_SET_WIDTH(t, conf->fwidth);
 663:../../Middlewares/AI_Runtime/Npu/ll_aton/ll_aton.c ****     t = ATON_STRENG_FSIZE_SET_HEIGHT(t, conf->fheight);
 664:../../Middlewares/AI_Runtime/Npu/ll_aton/ll_aton.c ****     ATON_STRENG_FSIZE_SET(id, t);
 665:../../Middlewares/AI_Runtime/Npu/ll_aton/ll_aton.c **** 
 666:../../Middlewares/AI_Runtime/Npu/ll_aton/ll_aton.c ****     uint32_t line_offset = conf->line_offset == 0 ? conf->fwidth * conf->batch_offset : conf->line_
 667:../../Middlewares/AI_Runtime/Npu/ll_aton/ll_aton.c ****     // if line_offset is left=0 then it's computed from the standard geometry of lines and batch
 668:../../Middlewares/AI_Runtime/Npu/ll_aton/ll_aton.c ****     t_streng_strd = ATON_STRENG_STRD_SET_LOFF(t_streng_strd, line_offset);
 669:../../Middlewares/AI_Runtime/Npu/ll_aton/ll_aton.c **** 
 670:../../Middlewares/AI_Runtime/Npu/ll_aton/ll_aton.c **** #if defined(ATON_STRENG_CID_CACHE_SET_LOFF_MSB)
 671:../../Middlewares/AI_Runtime/Npu/ll_aton/ll_aton.c ****     t = t_streng_cid_cache;
 672:../../Middlewares/AI_Runtime/Npu/ll_aton/ll_aton.c ****     t = ATON_STRENG_CID_CACHE_SET_LOFF_MSB(t, (line_offset >> ATON_STRENG_STRD_LOFF_W));
 673:../../Middlewares/AI_Runtime/Npu/ll_aton/ll_aton.c ****     t_streng_cid_cache = t;
 674:../../Middlewares/AI_Runtime/Npu/ll_aton/ll_aton.c **** #endif
 675:../../Middlewares/AI_Runtime/Npu/ll_aton/ll_aton.c **** 
 676:../../Middlewares/AI_Runtime/Npu/ll_aton/ll_aton.c ****     t = ATON_STRENG_DEPTH_DT;
 677:../../Middlewares/AI_Runtime/Npu/ll_aton/ll_aton.c ****     t = ATON_STRENG_DEPTH_SET_SIZE(t, conf->batch_depth);
 678:../../Middlewares/AI_Runtime/Npu/ll_aton/ll_aton.c ****     t = ATON_STRENG_DEPTH_SET_OFFSET(t, conf->batch_offset);
 679:../../Middlewares/AI_Runtime/Npu/ll_aton/ll_aton.c ****     ATON_STRENG_DEPTH_SET(id, t);
 680:../../Middlewares/AI_Runtime/Npu/ll_aton/ll_aton.c ****   }
 681:../../Middlewares/AI_Runtime/Npu/ll_aton/ll_aton.c **** 
 682:../../Middlewares/AI_Runtime/Npu/ll_aton/ll_aton.c ****   ATON_STRENG_FRPTOFF_SET(id, conf->loop_offset);
 683:../../Middlewares/AI_Runtime/Npu/ll_aton/ll_aton.c ****   ATON_STRENG_FRAME_RPT_SET(id, conf->frame_loop_cnt);
 684:../../Middlewares/AI_Runtime/Npu/ll_aton/ll_aton.c ****   ATON_STRENG_FOFFSET_SET(id, conf->frame_offset);
 685:../../Middlewares/AI_Runtime/Npu/ll_aton/ll_aton.c **** 
 686:../../Middlewares/AI_Runtime/Npu/ll_aton/ll_aton.c ****   t = ATON_STRENG_LIMITEN_DT; // all other fields set to zero
 687:../../Middlewares/AI_Runtime/Npu/ll_aton/ll_aton.c ****   t = ATON_STRENG_LIMITEN_SET_FRAMELIMIT(t, 1);
 688:../../Middlewares/AI_Runtime/Npu/ll_aton/ll_aton.c **** #if defined(ATON_STRENG_LIMITEN_SET_DOFF_MSB)
 689:../../Middlewares/AI_Runtime/Npu/ll_aton/ll_aton.c ****   t = ATON_STRENG_LIMITEN_SET_DOFF_MSB(t, conf->batch_offset >> ATON_STRENG_DEPTH_OFFSET_W);
 690:../../Middlewares/AI_Runtime/Npu/ll_aton/ll_aton.c **** #endif
 691:../../Middlewares/AI_Runtime/Npu/ll_aton/ll_aton.c ****   ATON_STRENG_LIMITEN_SET(id, t);
 692:../../Middlewares/AI_Runtime/Npu/ll_aton/ll_aton.c **** 
 693:../../Middlewares/AI_Runtime/Npu/ll_aton/ll_aton.c ****   if (/*(conf->dir == 0) && */ (conf->offset_limit != 0x0))
 694:../../Middlewares/AI_Runtime/Npu/ll_aton/ll_aton.c ****   {
 695:../../Middlewares/AI_Runtime/Npu/ll_aton/ll_aton.c ****     t = ATON_STRENG_LIMITEN_SET_ADDRLIMIT(t, 1);
 696:../../Middlewares/AI_Runtime/Npu/ll_aton/ll_aton.c ****     t = ATON_STRENG_LIMITEN_SET_STOPPREFTC(t, 1);
 697:../../Middlewares/AI_Runtime/Npu/ll_aton/ll_aton.c ****     ATON_STRENG_LIMITEN_SET(id, t);
 698:../../Middlewares/AI_Runtime/Npu/ll_aton/ll_aton.c ****     // NOTE: limiter is to be set to last accessible byte address
 699:../../Middlewares/AI_Runtime/Npu/ll_aton/ll_aton.c ****     // ATON_STRENG_LIMITADDR_SET(id, (conf->addr_limit.i - 1));
 700:../../Middlewares/AI_Runtime/Npu/ll_aton/ll_aton.c ****     ATON_REG_WRITE_RELOC(((volatile uint32_t *)(uintptr_t)ATON_STRENG_LIMITADDR_ADDR(id)), conf->ad
 701:../../Middlewares/AI_Runtime/Npu/ll_aton/ll_aton.c ****                          conf->offset_limit - 1);
 702:../../Middlewares/AI_Runtime/Npu/ll_aton/ll_aton.c ****   }
 703:../../Middlewares/AI_Runtime/Npu/ll_aton/ll_aton.c **** 
 704:../../Middlewares/AI_Runtime/Npu/ll_aton/ll_aton.c ****   ATON_STRENG_LIMIT_SET(id, conf->frame_tot_cnt);
 705:../../Middlewares/AI_Runtime/Npu/ll_aton/ll_aton.c ****   // LL_ATON_PRINTF("frame_tot_cnt=%d\n", conf->frame_tot_cnt);
 706:../../Middlewares/AI_Runtime/Npu/ll_aton/ll_aton.c **** 
 707:../../Middlewares/AI_Runtime/Npu/ll_aton/ll_aton.c **** #if defined(ATON_STRENG_CID_CACHE_SET_CID)
 708:../../Middlewares/AI_Runtime/Npu/ll_aton/ll_aton.c ****   t_streng_cid_cache = ATON_STRENG_CID_CACHE_SET_CID(t_streng_cid_cache, conf->bus_cid);
 709:../../Middlewares/AI_Runtime/Npu/ll_aton/ll_aton.c ****   t_streng_cid_cache = ATON_STRENG_CID_CACHE_SET_CACHEABLE(t_streng_cid_cache, conf->cacheable);
ARM GAS  C:\Users\Antonio\AppData\Local\Temp\ccynTwLp.s 			page 14


 710:../../Middlewares/AI_Runtime/Npu/ll_aton/ll_aton.c ****   t_streng_cid_cache = ATON_STRENG_CID_CACHE_SET_ALLOC(t_streng_cid_cache, conf->cache_allocate);
 711:../../Middlewares/AI_Runtime/Npu/ll_aton/ll_aton.c ****   t_streng_cid_cache = ATON_STRENG_CID_CACHE_SET_PFETCH(t_streng_cid_cache, conf->bus_pfetch);
 712:../../Middlewares/AI_Runtime/Npu/ll_aton/ll_aton.c ****   t_streng_cid_cache = ATON_STRENG_CID_CACHE_SET_LINESIZE(t_streng_cid_cache, conf->cache_linesize)
 713:../../Middlewares/AI_Runtime/Npu/ll_aton/ll_aton.c **** #endif
 714:../../Middlewares/AI_Runtime/Npu/ll_aton/ll_aton.c **** 
 715:../../Middlewares/AI_Runtime/Npu/ll_aton/ll_aton.c ****   /* Enable event interrupts */
 716:../../Middlewares/AI_Runtime/Npu/ll_aton/ll_aton.c ****   if (conf->dir == 1)
 717:../../Middlewares/AI_Runtime/Npu/ll_aton/ll_aton.c ****   {
 718:../../Middlewares/AI_Runtime/Npu/ll_aton/ll_aton.c **** #if LL_ATON_EN_EVENT_IRQ
 719:../../Middlewares/AI_Runtime/Npu/ll_aton/ll_aton.c ****     t_streng_event = 0;
 720:../../Middlewares/AI_Runtime/Npu/ll_aton/ll_aton.c ****     t_streng_event = ATON_STRENG_EVENT_SET_EN_OFLOW_FRM(t_streng_event, 1); // enable frame overflo
 721:../../Middlewares/AI_Runtime/Npu/ll_aton/ll_aton.c **** #if 0
 722:../../Middlewares/AI_Runtime/Npu/ll_aton/ll_aton.c ****     t_streng_event = ATON_STRENG_EVENT_SET_EN_OFLOW_ADD(t_streng_event, 1); // enable address limit
 723:../../Middlewares/AI_Runtime/Npu/ll_aton/ll_aton.c **** #endif
 724:../../Middlewares/AI_Runtime/Npu/ll_aton/ll_aton.c **** #endif // LL_ATON_EN_EVENT_IRQ
 725:../../Middlewares/AI_Runtime/Npu/ll_aton/ll_aton.c ****   }
 726:../../Middlewares/AI_Runtime/Npu/ll_aton/ll_aton.c **** 
 727:../../Middlewares/AI_Runtime/Npu/ll_aton/ll_aton.c ****   /* Enable illegal configuration interrupts */
 728:../../Middlewares/AI_Runtime/Npu/ll_aton/ll_aton.c **** #if LL_ATON_EN_ERROR_IRQ
 729:../../Middlewares/AI_Runtime/Npu/ll_aton/ll_aton.c ****   t = t_streng_event;
 730:../../Middlewares/AI_Runtime/Npu/ll_aton/ll_aton.c ****   t = ATON_STRENG_EVENT_SET_EN_ILLCFG(t, 1); // Enable Illegal Configuration interrupt
 731:../../Middlewares/AI_Runtime/Npu/ll_aton/ll_aton.c ****   // t = ATON_STRENG_EVENT_SET_EN_FMTMM(t, 1); // Enable Format Mismatch interrupt (intentionally n
 732:../../Middlewares/AI_Runtime/Npu/ll_aton/ll_aton.c ****   t_streng_event = t;
 733:../../Middlewares/AI_Runtime/Npu/ll_aton/ll_aton.c **** #endif // LL_ATON_EN_ERROR_IRQ
 734:../../Middlewares/AI_Runtime/Npu/ll_aton/ll_aton.c **** 
 735:../../Middlewares/AI_Runtime/Npu/ll_aton/ll_aton.c ****   if ((conf->dir == 0) && conf->sync_with_other)
 736:../../Middlewares/AI_Runtime/Npu/ll_aton/ll_aton.c ****   {
 737:../../Middlewares/AI_Runtime/Npu/ll_aton/ll_aton.c ****     t = t_streng_event;
 738:../../Middlewares/AI_Runtime/Npu/ll_aton/ll_aton.c ****     t = ATON_STRENG_EVENT_SET_FRMTRG_EN(t, 1);               // Enable synchronizations of frames w
 739:../../Middlewares/AI_Runtime/Npu/ll_aton/ll_aton.c ****     t = ATON_STRENG_EVENT_SET_FRMTRG_SRC(t, conf->sync_dma); // Enable synchronizations of frames w
 740:../../Middlewares/AI_Runtime/Npu/ll_aton/ll_aton.c ****     t_streng_event = t;
 741:../../Middlewares/AI_Runtime/Npu/ll_aton/ll_aton.c ****   }
 742:../../Middlewares/AI_Runtime/Npu/ll_aton/ll_aton.c **** 
 743:../../Middlewares/AI_Runtime/Npu/ll_aton/ll_aton.c **** #if 1
 744:../../Middlewares/AI_Runtime/Npu/ll_aton/ll_aton.c ****   t = ATON_STRENG_POS_DT;
 745:../../Middlewares/AI_Runtime/Npu/ll_aton/ll_aton.c ****   t = ATON_STRENG_POS_SET_GAPCYCLES(t, 0); // set interline gap cycle to 0, as it should be safe to
 746:../../Middlewares/AI_Runtime/Npu/ll_aton/ll_aton.c ****   ATON_STRENG_POS_SET(id, t);
 747:../../Middlewares/AI_Runtime/Npu/ll_aton/ll_aton.c **** #endif
 748:../../Middlewares/AI_Runtime/Npu/ll_aton/ll_aton.c **** 
 749:../../Middlewares/AI_Runtime/Npu/ll_aton/ll_aton.c ****   /* deferred register setting */
 750:../../Middlewares/AI_Runtime/Npu/ll_aton/ll_aton.c ****   ATON_STRENG_STRD_SET(id, t_streng_strd);
 751:../../Middlewares/AI_Runtime/Npu/ll_aton/ll_aton.c ****   ATON_STRENG_CID_CACHE_SET(id, t_streng_cid_cache);
 752:../../Middlewares/AI_Runtime/Npu/ll_aton/ll_aton.c ****   ATON_STRENG_EVENT_SET(id, t_streng_event);
 753:../../Middlewares/AI_Runtime/Npu/ll_aton/ll_aton.c **** 
 754:../../Middlewares/AI_Runtime/Npu/ll_aton/ll_aton.c ****   /* Ciphering settings */
 755:../../Middlewares/AI_Runtime/Npu/ll_aton/ll_aton.c **** #if (ATON_STRENG_VERSION_ENCR_DT == 1)
 756:../../Middlewares/AI_Runtime/Npu/ll_aton/ll_aton.c ****   t = ATON_STRENG_ENCR_MSB_DT;
 757:../../Middlewares/AI_Runtime/Npu/ll_aton/ll_aton.c ****   t = ATON_STRENG_ENCR_MSB_SET_EN(t, conf->cipher_en);
 758:../../Middlewares/AI_Runtime/Npu/ll_aton/ll_aton.c ****   t = ATON_STRENG_ENCR_MSB_SET_KEY_SEL(t, conf->key_sel);
 759:../../Middlewares/AI_Runtime/Npu/ll_aton/ll_aton.c ****   ATON_STRENG_ENCR_MSB_SET(id, t);
 760:../../Middlewares/AI_Runtime/Npu/ll_aton/ll_aton.c **** #endif
 761:../../Middlewares/AI_Runtime/Npu/ll_aton/ll_aton.c **** 
 762:../../Middlewares/AI_Runtime/Npu/ll_aton/ll_aton.c ****   return 0;
 763:../../Middlewares/AI_Runtime/Npu/ll_aton/ll_aton.c **** }
 764:../../Middlewares/AI_Runtime/Npu/ll_aton/ll_aton.c **** 
 765:../../Middlewares/AI_Runtime/Npu/ll_aton/ll_aton.c **** /**
 766:../../Middlewares/AI_Runtime/Npu/ll_aton/ll_aton.c ****  * @brief Configures the Streaming Engine External trigger source
ARM GAS  C:\Users\Antonio\AppData\Local\Temp\ccynTwLp.s 			page 15


 767:../../Middlewares/AI_Runtime/Npu/ll_aton/ll_aton.c ****  *        To be used, for example, for configuring synchronization with DCMIPP
 768:../../Middlewares/AI_Runtime/Npu/ll_aton/ll_aton.c ****  * @param id Streaming engine identifier [0..ATON_STRENG_NUM-1]
 769:../../Middlewares/AI_Runtime/Npu/ll_aton/ll_aton.c ****  * @param conf Pointer to structure describing External Sync configuration
 770:../../Middlewares/AI_Runtime/Npu/ll_aton/ll_aton.c ****  */
 771:../../Middlewares/AI_Runtime/Npu/ll_aton/ll_aton.c **** int LL_Streng_ExtSyncInit(int id, LL_Streng_ExtSyncTypedef *conf)
 772:../../Middlewares/AI_Runtime/Npu/ll_aton/ll_aton.c **** {
 773:../../Middlewares/AI_Runtime/Npu/ll_aton/ll_aton.c **** #ifdef ATON_STRENG_EXTSYNC_SET
 774:../../Middlewares/AI_Runtime/Npu/ll_aton/ll_aton.c ****   uint32_t t;
 775:../../Middlewares/AI_Runtime/Npu/ll_aton/ll_aton.c **** 
 776:../../Middlewares/AI_Runtime/Npu/ll_aton/ll_aton.c ****   if (id >= ATON_STRENG_NUM)
 777:../../Middlewares/AI_Runtime/Npu/ll_aton/ll_aton.c ****     return LL_ATON_INVALID_ID;
 778:../../Middlewares/AI_Runtime/Npu/ll_aton/ll_aton.c **** 
 779:../../Middlewares/AI_Runtime/Npu/ll_aton/ll_aton.c ****   LL_ATON_EnableClock(ATON_STRENG_CLKB_CLK(id));
 780:../../Middlewares/AI_Runtime/Npu/ll_aton/ll_aton.c **** 
 781:../../Middlewares/AI_Runtime/Npu/ll_aton/ll_aton.c ****   t = ATON_STRENG_EXTSYNC_DT;
 782:../../Middlewares/AI_Runtime/Npu/ll_aton/ll_aton.c ****   t = ATON_STRENG_EXTSYNC_SET_EN(t, conf->enable);
 783:../../Middlewares/AI_Runtime/Npu/ll_aton/ll_aton.c ****   t = ATON_STRENG_EXTSYNC_SET_SRC(t, conf->trig_source);
 784:../../Middlewares/AI_Runtime/Npu/ll_aton/ll_aton.c ****   t = ATON_STRENG_EXTSYNC_SET_LINES(t, conf->lines);
 785:../../Middlewares/AI_Runtime/Npu/ll_aton/ll_aton.c ****   ATON_STRENG_EXTSYNC_SET(id, t);
 786:../../Middlewares/AI_Runtime/Npu/ll_aton/ll_aton.c **** 
 787:../../Middlewares/AI_Runtime/Npu/ll_aton/ll_aton.c ****   t = ATON_STRENG_EXTSYNC2_DT;
 788:../../Middlewares/AI_Runtime/Npu/ll_aton/ll_aton.c ****   t = ATON_STRENG_EXTSYNC2_SET_LINES(t, conf->lines_offset);
 789:../../Middlewares/AI_Runtime/Npu/ll_aton/ll_aton.c ****   t = ATON_STRENG_EXTSYNC2_SET_OFF(t, conf->offset);
 790:../../Middlewares/AI_Runtime/Npu/ll_aton/ll_aton.c ****   ATON_STRENG_EXTSYNC2_SET(id, t);
 791:../../Middlewares/AI_Runtime/Npu/ll_aton/ll_aton.c **** #endif
 792:../../Middlewares/AI_Runtime/Npu/ll_aton/ll_aton.c ****   return 0;
 793:../../Middlewares/AI_Runtime/Npu/ll_aton/ll_aton.c **** }
 794:../../Middlewares/AI_Runtime/Npu/ll_aton/ll_aton.c **** 
 795:../../Middlewares/AI_Runtime/Npu/ll_aton/ll_aton.c **** #if defined(ATON_EPOCHCTRL_NUM)
 796:../../Middlewares/AI_Runtime/Npu/ll_aton/ll_aton.c **** /**
 797:../../Middlewares/AI_Runtime/Npu/ll_aton/ll_aton.c ****  * @brief Sets external trigger signal to hi. Used to synchronize with external units, e.g.: HSP
 798:../../Middlewares/AI_Runtime/Npu/ll_aton/ll_aton.c ****  * @param irq Interrupt line used as trigger signal
 799:../../Middlewares/AI_Runtime/Npu/ll_aton/ll_aton.c ****  * @note uses Epoch Controller noack interrupt as irq source
 800:../../Middlewares/AI_Runtime/Npu/ll_aton/ll_aton.c ****  */
 801:../../Middlewares/AI_Runtime/Npu/ll_aton/ll_aton.c **** int LL_TriggerHigh(int irq)
 802:../../Middlewares/AI_Runtime/Npu/ll_aton/ll_aton.c **** {
 803:../../Middlewares/AI_Runtime/Npu/ll_aton/ll_aton.c ****   if (irq >= ATON_INTCTRL_INTS(0))
 804:../../Middlewares/AI_Runtime/Npu/ll_aton/ll_aton.c ****     return LL_ATON_INVALID_PARAM;
 805:../../Middlewares/AI_Runtime/Npu/ll_aton/ll_aton.c **** 
 806:../../Middlewares/AI_Runtime/Npu/ll_aton/ll_aton.c ****   ATON_INTCTRL_INTORMSK_SET(0, irq, ~(1 << ATON_INTCTRL_0_INTORMSK_EPOCHCTRL_0_1_IDX));
 807:../../Middlewares/AI_Runtime/Npu/ll_aton/ll_aton.c ****   ATON_INTCTRL_INTSET_SET(0, (1 << ATON_INTCTRL_0_INTSET_EPOCHCTRL_0_1_IDX));
 808:../../Middlewares/AI_Runtime/Npu/ll_aton/ll_aton.c ****   return 0;
 809:../../Middlewares/AI_Runtime/Npu/ll_aton/ll_aton.c **** }
 810:../../Middlewares/AI_Runtime/Npu/ll_aton/ll_aton.c **** 
 811:../../Middlewares/AI_Runtime/Npu/ll_aton/ll_aton.c **** /**
 812:../../Middlewares/AI_Runtime/Npu/ll_aton/ll_aton.c ****  * @brief Sets external trigger signal to low. Used to synchronize with external units, e.g.: HSP
 813:../../Middlewares/AI_Runtime/Npu/ll_aton/ll_aton.c ****  * @param irq Interrupt line used as trigger signal
 814:../../Middlewares/AI_Runtime/Npu/ll_aton/ll_aton.c ****  * @note uses Epoch Controller noack interrupt as irq source
 815:../../Middlewares/AI_Runtime/Npu/ll_aton/ll_aton.c ****  */
 816:../../Middlewares/AI_Runtime/Npu/ll_aton/ll_aton.c **** int LL_TriggerLow(int irq)
 817:../../Middlewares/AI_Runtime/Npu/ll_aton/ll_aton.c **** {
 818:../../Middlewares/AI_Runtime/Npu/ll_aton/ll_aton.c ****   if (irq >= ATON_INTCTRL_INTS(0))
 819:../../Middlewares/AI_Runtime/Npu/ll_aton/ll_aton.c ****     return LL_ATON_INVALID_PARAM;
 820:../../Middlewares/AI_Runtime/Npu/ll_aton/ll_aton.c **** 
 821:../../Middlewares/AI_Runtime/Npu/ll_aton/ll_aton.c ****   ATON_INTCTRL_INTCLR_SET(0, (1 << ATON_INTCTRL_0_INTCLR_EPOCHCTRL_0_1_IDX));
 822:../../Middlewares/AI_Runtime/Npu/ll_aton/ll_aton.c ****   return 0;
 823:../../Middlewares/AI_Runtime/Npu/ll_aton/ll_aton.c **** }
ARM GAS  C:\Users\Antonio\AppData\Local\Temp\ccynTwLp.s 			page 16


 824:../../Middlewares/AI_Runtime/Npu/ll_aton/ll_aton.c **** #endif
 825:../../Middlewares/AI_Runtime/Npu/ll_aton/ll_aton.c **** 
 826:../../Middlewares/AI_Runtime/Npu/ll_aton/ll_aton.c **** unsigned __atonn_getSrcPortID(enum SwitchUnitsType sut, unsigned char su_num, enum AccelUnitsType a
 827:../../Middlewares/AI_Runtime/Npu/ll_aton/ll_aton.c ****                               unsigned char au_num, unsigned char port)
 828:../../Middlewares/AI_Runtime/Npu/ll_aton/ll_aton.c **** {
 829:../../Middlewares/AI_Runtime/Npu/ll_aton/ll_aton.c ****   // FIXME
 830:../../Middlewares/AI_Runtime/Npu/ll_aton/ll_aton.c ****   LL_ATON_ASSERT(su_num == 0);
 831:../../Middlewares/AI_Runtime/Npu/ll_aton/ll_aton.c ****   switch (sut)
 832:../../Middlewares/AI_Runtime/Npu/ll_aton/ll_aton.c ****   {
 833:../../Middlewares/AI_Runtime/Npu/ll_aton/ll_aton.c ****   case STRSWITCH:
 834:../../Middlewares/AI_Runtime/Npu/ll_aton/ll_aton.c ****     switch (aut)
 835:../../Middlewares/AI_Runtime/Npu/ll_aton/ll_aton.c ****     {
 836:../../Middlewares/AI_Runtime/Npu/ll_aton/ll_aton.c **** #if defined(ATON_STRENG_NUM)
 837:../../Middlewares/AI_Runtime/Npu/ll_aton/ll_aton.c ****     case STRENG:
 838:../../Middlewares/AI_Runtime/Npu/ll_aton/ll_aton.c ****       LL_ATON_ASSERT(port == 0);
 839:../../Middlewares/AI_Runtime/Npu/ll_aton/ll_aton.c ****       LL_ATON_ASSERT(au_num < ATON_STRENG_NUM);
 840:../../Middlewares/AI_Runtime/Npu/ll_aton/ll_aton.c ****       return ATONN_CONST_SRCPORT(STRSWITCH, 0, STRENG, 0, 0) + au_num;
 841:../../Middlewares/AI_Runtime/Npu/ll_aton/ll_aton.c ****       break;
 842:../../Middlewares/AI_Runtime/Npu/ll_aton/ll_aton.c **** #endif
 843:../../Middlewares/AI_Runtime/Npu/ll_aton/ll_aton.c **** #if defined(ATON_CONVACC_NUM)
 844:../../Middlewares/AI_Runtime/Npu/ll_aton/ll_aton.c ****     case CONVACC:
 845:../../Middlewares/AI_Runtime/Npu/ll_aton/ll_aton.c ****       LL_ATON_ASSERT(port == 0);
 846:../../Middlewares/AI_Runtime/Npu/ll_aton/ll_aton.c ****       LL_ATON_ASSERT(au_num < ATON_CONVACC_NUM);
 847:../../Middlewares/AI_Runtime/Npu/ll_aton/ll_aton.c ****       return ATONN_CONST_SRCPORT(STRSWITCH, 0, CONVACC, 0, 0) + au_num;
 848:../../Middlewares/AI_Runtime/Npu/ll_aton/ll_aton.c ****       break;
 849:../../Middlewares/AI_Runtime/Npu/ll_aton/ll_aton.c **** #endif
 850:../../Middlewares/AI_Runtime/Npu/ll_aton/ll_aton.c **** #if defined(ATON_DECUN_NUM)
 851:../../Middlewares/AI_Runtime/Npu/ll_aton/ll_aton.c ****     case DECUN:
 852:../../Middlewares/AI_Runtime/Npu/ll_aton/ll_aton.c ****       LL_ATON_ASSERT(port == 0);
 853:../../Middlewares/AI_Runtime/Npu/ll_aton/ll_aton.c ****       LL_ATON_ASSERT(au_num < ATON_DECUN_NUM);
 854:../../Middlewares/AI_Runtime/Npu/ll_aton/ll_aton.c ****       return ATONN_CONST_SRCPORT(STRSWITCH, 0, DECUN, 0, 0) + au_num;
 855:../../Middlewares/AI_Runtime/Npu/ll_aton/ll_aton.c ****       break;
 856:../../Middlewares/AI_Runtime/Npu/ll_aton/ll_aton.c **** #endif
 857:../../Middlewares/AI_Runtime/Npu/ll_aton/ll_aton.c **** #if defined(ATON_ACTIV_NUM)
 858:../../Middlewares/AI_Runtime/Npu/ll_aton/ll_aton.c ****     case ACTIV:
 859:../../Middlewares/AI_Runtime/Npu/ll_aton/ll_aton.c ****       LL_ATON_ASSERT(port == 0);
 860:../../Middlewares/AI_Runtime/Npu/ll_aton/ll_aton.c ****       LL_ATON_ASSERT(au_num < ATON_ACTIV_NUM);
 861:../../Middlewares/AI_Runtime/Npu/ll_aton/ll_aton.c ****       return ATONN_CONST_SRCPORT(STRSWITCH, 0, ACTIV, 0, 0) + au_num;
 862:../../Middlewares/AI_Runtime/Npu/ll_aton/ll_aton.c ****       break;
 863:../../Middlewares/AI_Runtime/Npu/ll_aton/ll_aton.c **** #endif
 864:../../Middlewares/AI_Runtime/Npu/ll_aton/ll_aton.c **** #if defined(ATON_ARITH_NUM)
 865:../../Middlewares/AI_Runtime/Npu/ll_aton/ll_aton.c ****     case ARITH:
 866:../../Middlewares/AI_Runtime/Npu/ll_aton/ll_aton.c ****       LL_ATON_ASSERT(port == 0);
 867:../../Middlewares/AI_Runtime/Npu/ll_aton/ll_aton.c ****       LL_ATON_ASSERT(au_num < ATON_ARITH_NUM);
 868:../../Middlewares/AI_Runtime/Npu/ll_aton/ll_aton.c ****       return ATONN_CONST_SRCPORT(STRSWITCH, 0, ARITH, 0, 0) + au_num;
 869:../../Middlewares/AI_Runtime/Npu/ll_aton/ll_aton.c ****       break;
 870:../../Middlewares/AI_Runtime/Npu/ll_aton/ll_aton.c **** #endif
 871:../../Middlewares/AI_Runtime/Npu/ll_aton/ll_aton.c **** #if defined(ATON_POOL_NUM)
 872:../../Middlewares/AI_Runtime/Npu/ll_aton/ll_aton.c ****     case POOL:
 873:../../Middlewares/AI_Runtime/Npu/ll_aton/ll_aton.c ****       LL_ATON_ASSERT(port == 0);
 874:../../Middlewares/AI_Runtime/Npu/ll_aton/ll_aton.c ****       LL_ATON_ASSERT(au_num < ATON_POOL_NUM);
 875:../../Middlewares/AI_Runtime/Npu/ll_aton/ll_aton.c ****       return ATONN_CONST_SRCPORT(STRSWITCH, 0, POOL, 0, 0) + au_num;
 876:../../Middlewares/AI_Runtime/Npu/ll_aton/ll_aton.c ****       break;
 877:../../Middlewares/AI_Runtime/Npu/ll_aton/ll_aton.c **** #endif
 878:../../Middlewares/AI_Runtime/Npu/ll_aton/ll_aton.c ****     default:
 879:../../Middlewares/AI_Runtime/Npu/ll_aton/ll_aton.c ****       LL_ATON_ASSERT(0);
 880:../../Middlewares/AI_Runtime/Npu/ll_aton/ll_aton.c ****       break;
ARM GAS  C:\Users\Antonio\AppData\Local\Temp\ccynTwLp.s 			page 17


 881:../../Middlewares/AI_Runtime/Npu/ll_aton/ll_aton.c ****     }
 882:../../Middlewares/AI_Runtime/Npu/ll_aton/ll_aton.c ****     break;
 883:../../Middlewares/AI_Runtime/Npu/ll_aton/ll_aton.c ****   case STRSWITCH64:
 884:../../Middlewares/AI_Runtime/Npu/ll_aton/ll_aton.c ****     // TODO
 885:../../Middlewares/AI_Runtime/Npu/ll_aton/ll_aton.c ****     LL_ATON_ASSERT(0);
 886:../../Middlewares/AI_Runtime/Npu/ll_aton/ll_aton.c ****     break;
 887:../../Middlewares/AI_Runtime/Npu/ll_aton/ll_aton.c ****   case STRSWITCH_VC:
 888:../../Middlewares/AI_Runtime/Npu/ll_aton/ll_aton.c ****     // TODO
 889:../../Middlewares/AI_Runtime/Npu/ll_aton/ll_aton.c ****     LL_ATON_ASSERT(0);
 890:../../Middlewares/AI_Runtime/Npu/ll_aton/ll_aton.c ****     break;
 891:../../Middlewares/AI_Runtime/Npu/ll_aton/ll_aton.c ****   }
 892:../../Middlewares/AI_Runtime/Npu/ll_aton/ll_aton.c ****   return 0;
 893:../../Middlewares/AI_Runtime/Npu/ll_aton/ll_aton.c **** }
 894:../../Middlewares/AI_Runtime/Npu/ll_aton/ll_aton.c **** 
 895:../../Middlewares/AI_Runtime/Npu/ll_aton/ll_aton.c **** unsigned __atonn_getDstPortID(enum SwitchUnitsType sut, unsigned char su_num, enum AccelUnitsType a
 896:../../Middlewares/AI_Runtime/Npu/ll_aton/ll_aton.c ****                               unsigned char au_num, unsigned char port)
 897:../../Middlewares/AI_Runtime/Npu/ll_aton/ll_aton.c **** {
 898:../../Middlewares/AI_Runtime/Npu/ll_aton/ll_aton.c ****   // FIXME
 899:../../Middlewares/AI_Runtime/Npu/ll_aton/ll_aton.c ****   LL_ATON_ASSERT(su_num == 0);
 900:../../Middlewares/AI_Runtime/Npu/ll_aton/ll_aton.c ****   switch (sut)
 901:../../Middlewares/AI_Runtime/Npu/ll_aton/ll_aton.c ****   {
 902:../../Middlewares/AI_Runtime/Npu/ll_aton/ll_aton.c ****   case STRSWITCH:
 903:../../Middlewares/AI_Runtime/Npu/ll_aton/ll_aton.c ****     switch (aut)
 904:../../Middlewares/AI_Runtime/Npu/ll_aton/ll_aton.c ****     {
 905:../../Middlewares/AI_Runtime/Npu/ll_aton/ll_aton.c **** #if defined(ATON_STRENG_NUM)
 906:../../Middlewares/AI_Runtime/Npu/ll_aton/ll_aton.c ****     case STRENG:
 907:../../Middlewares/AI_Runtime/Npu/ll_aton/ll_aton.c ****       LL_ATON_ASSERT(port == 0);
 908:../../Middlewares/AI_Runtime/Npu/ll_aton/ll_aton.c ****       LL_ATON_ASSERT(au_num < ATON_STRENG_NUM);
 909:../../Middlewares/AI_Runtime/Npu/ll_aton/ll_aton.c ****       return ATONN_CONST_DSTPORT(STRSWITCH, 0, STRENG, 0, 0) + (0x4 * au_num);
 910:../../Middlewares/AI_Runtime/Npu/ll_aton/ll_aton.c ****       break;
 911:../../Middlewares/AI_Runtime/Npu/ll_aton/ll_aton.c **** #endif
 912:../../Middlewares/AI_Runtime/Npu/ll_aton/ll_aton.c **** #if defined(ATON_CONVACC_NUM)
 913:../../Middlewares/AI_Runtime/Npu/ll_aton/ll_aton.c ****     case CONVACC:
 914:../../Middlewares/AI_Runtime/Npu/ll_aton/ll_aton.c ****       LL_ATON_ASSERT(port < 3);
 915:../../Middlewares/AI_Runtime/Npu/ll_aton/ll_aton.c ****       LL_ATON_ASSERT(au_num < ATON_CONVACC_NUM);
 916:../../Middlewares/AI_Runtime/Npu/ll_aton/ll_aton.c ****       return ATONN_CONST_DSTPORT(STRSWITCH, 0, CONVACC, 0, 0) + (0x4 * (3 * au_num + port));
 917:../../Middlewares/AI_Runtime/Npu/ll_aton/ll_aton.c ****       break;
 918:../../Middlewares/AI_Runtime/Npu/ll_aton/ll_aton.c **** #endif
 919:../../Middlewares/AI_Runtime/Npu/ll_aton/ll_aton.c **** #if defined(ATON_DECUN_NUM)
 920:../../Middlewares/AI_Runtime/Npu/ll_aton/ll_aton.c ****     case DECUN:
 921:../../Middlewares/AI_Runtime/Npu/ll_aton/ll_aton.c ****       LL_ATON_ASSERT(port < 2);
 922:../../Middlewares/AI_Runtime/Npu/ll_aton/ll_aton.c ****       LL_ATON_ASSERT(au_num < ATON_DECUN_NUM);
 923:../../Middlewares/AI_Runtime/Npu/ll_aton/ll_aton.c ****       return ATONN_CONST_DSTPORT(STRSWITCH, 0, DECUN, 0, 0) + (0x4 * (2 * au_num + port));
 924:../../Middlewares/AI_Runtime/Npu/ll_aton/ll_aton.c ****       break;
 925:../../Middlewares/AI_Runtime/Npu/ll_aton/ll_aton.c **** #endif
 926:../../Middlewares/AI_Runtime/Npu/ll_aton/ll_aton.c **** #if defined(ATON_ACTIV_NUM)
 927:../../Middlewares/AI_Runtime/Npu/ll_aton/ll_aton.c ****     case ACTIV:
 928:../../Middlewares/AI_Runtime/Npu/ll_aton/ll_aton.c ****       LL_ATON_ASSERT(port == 0);
 929:../../Middlewares/AI_Runtime/Npu/ll_aton/ll_aton.c ****       LL_ATON_ASSERT(au_num < ATON_ACTIV_NUM);
 930:../../Middlewares/AI_Runtime/Npu/ll_aton/ll_aton.c ****       return ATONN_CONST_DSTPORT(STRSWITCH, 0, ACTIV, 0, 0) + (0x4 * au_num);
 931:../../Middlewares/AI_Runtime/Npu/ll_aton/ll_aton.c ****       break;
 932:../../Middlewares/AI_Runtime/Npu/ll_aton/ll_aton.c **** #endif
 933:../../Middlewares/AI_Runtime/Npu/ll_aton/ll_aton.c **** #if defined(ATON_ARITH_NUM)
 934:../../Middlewares/AI_Runtime/Npu/ll_aton/ll_aton.c ****     case ARITH:
 935:../../Middlewares/AI_Runtime/Npu/ll_aton/ll_aton.c ****       LL_ATON_ASSERT(port < 2);
 936:../../Middlewares/AI_Runtime/Npu/ll_aton/ll_aton.c ****       LL_ATON_ASSERT(au_num < ATON_ARITH_NUM);
 937:../../Middlewares/AI_Runtime/Npu/ll_aton/ll_aton.c ****       return ATONN_CONST_DSTPORT(STRSWITCH, 0, ARITH, 0, 0) + (0x4 * (2 * au_num + port));
ARM GAS  C:\Users\Antonio\AppData\Local\Temp\ccynTwLp.s 			page 18


 938:../../Middlewares/AI_Runtime/Npu/ll_aton/ll_aton.c ****       break;
 939:../../Middlewares/AI_Runtime/Npu/ll_aton/ll_aton.c **** #endif
 940:../../Middlewares/AI_Runtime/Npu/ll_aton/ll_aton.c **** #if defined(ATON_POOL_NUM)
 941:../../Middlewares/AI_Runtime/Npu/ll_aton/ll_aton.c ****     case POOL:
 942:../../Middlewares/AI_Runtime/Npu/ll_aton/ll_aton.c ****       LL_ATON_ASSERT(port == 0);
 943:../../Middlewares/AI_Runtime/Npu/ll_aton/ll_aton.c ****       LL_ATON_ASSERT(au_num < ATON_POOL_NUM);
 944:../../Middlewares/AI_Runtime/Npu/ll_aton/ll_aton.c ****       return ATONN_CONST_DSTPORT(STRSWITCH, 0, POOL, 0, 0) + (0x4 * au_num);
 945:../../Middlewares/AI_Runtime/Npu/ll_aton/ll_aton.c ****       break;
 946:../../Middlewares/AI_Runtime/Npu/ll_aton/ll_aton.c **** #endif
 947:../../Middlewares/AI_Runtime/Npu/ll_aton/ll_aton.c ****     default:
 948:../../Middlewares/AI_Runtime/Npu/ll_aton/ll_aton.c ****       LL_ATON_ASSERT(0);
 949:../../Middlewares/AI_Runtime/Npu/ll_aton/ll_aton.c ****       break;
 950:../../Middlewares/AI_Runtime/Npu/ll_aton/ll_aton.c ****     }
 951:../../Middlewares/AI_Runtime/Npu/ll_aton/ll_aton.c ****     break;
 952:../../Middlewares/AI_Runtime/Npu/ll_aton/ll_aton.c ****   case STRSWITCH64:
 953:../../Middlewares/AI_Runtime/Npu/ll_aton/ll_aton.c ****     // TODO
 954:../../Middlewares/AI_Runtime/Npu/ll_aton/ll_aton.c ****     LL_ATON_ASSERT(0);
 955:../../Middlewares/AI_Runtime/Npu/ll_aton/ll_aton.c ****     break;
 956:../../Middlewares/AI_Runtime/Npu/ll_aton/ll_aton.c ****   case STRSWITCH_VC:
 957:../../Middlewares/AI_Runtime/Npu/ll_aton/ll_aton.c ****     // TODO
 958:../../Middlewares/AI_Runtime/Npu/ll_aton/ll_aton.c ****     LL_ATON_ASSERT(0);
 959:../../Middlewares/AI_Runtime/Npu/ll_aton/ll_aton.c ****     break;
 960:../../Middlewares/AI_Runtime/Npu/ll_aton/ll_aton.c ****   }
 961:../../Middlewares/AI_Runtime/Npu/ll_aton/ll_aton.c ****   return 0;
 962:../../Middlewares/AI_Runtime/Npu/ll_aton/ll_aton.c **** }
 963:../../Middlewares/AI_Runtime/Npu/ll_aton/ll_aton.c **** 
 964:../../Middlewares/AI_Runtime/Npu/ll_aton/ll_aton.c **** /**
 965:../../Middlewares/AI_Runtime/Npu/ll_aton/ll_aton.c ****  * @brief  Connects input and output port(s) on the streaming switch (without clearing configuratio
 966:../../Middlewares/AI_Runtime/Npu/ll_aton/ll_aton.c ****  * @param  LL_Switch_InitStruct Pointer to structure(s) describing ports to be connected
 967:../../Middlewares/AI_Runtime/Npu/ll_aton/ll_aton.c ****  * @param  n Number of entries in configuration array
 968:../../Middlewares/AI_Runtime/Npu/ll_aton/ll_aton.c ****  * @retval Error code
 969:../../Middlewares/AI_Runtime/Npu/ll_aton/ll_aton.c ****  */
 970:../../Middlewares/AI_Runtime/Npu/ll_aton/ll_aton.c **** int LL_Switch_Init_NoReset(const LL_Switch_InitTypeDef *LL_Switch_InitStruct, int n)
 971:../../Middlewares/AI_Runtime/Npu/ll_aton/ll_aton.c **** {
 972:../../Middlewares/AI_Runtime/Npu/ll_aton/ll_aton.c ****   int i;
 973:../../Middlewares/AI_Runtime/Npu/ll_aton/ll_aton.c ****   volatile uint32_t *reg;
 974:../../Middlewares/AI_Runtime/Npu/ll_aton/ll_aton.c ****   uint32_t t;
 975:../../Middlewares/AI_Runtime/Npu/ll_aton/ll_aton.c ****   unsigned int en_shift[ATON_SWITCH_CONTEXT_NUM] = {ATON_STRSWITCH_DST_EN0_LSB, ATON_STRSWITCH_DST_
 976:../../Middlewares/AI_Runtime/Npu/ll_aton/ll_aton.c ****   unsigned int link_shift[ATON_SWITCH_CONTEXT_NUM] = {ATON_STRSWITCH_DST_LINK0_LSB, ATON_STRSWITCH_
 977:../../Middlewares/AI_Runtime/Npu/ll_aton/ll_aton.c ****   unsigned int fnr_shift[ATON_SWITCH_CONTEXT_NUM] = {ATON_STRSWITCH_DST_FNR0_LSB, ATON_STRSWITCH_DS
 978:../../Middlewares/AI_Runtime/Npu/ll_aton/ll_aton.c ****   unsigned int fnr_mask[ATON_SWITCH_CONTEXT_NUM] = {ATON_STRSWITCH_DST_FNR0_MASK, ATON_STRSWITCH_DS
 979:../../Middlewares/AI_Runtime/Npu/ll_aton/ll_aton.c **** 
 980:../../Middlewares/AI_Runtime/Npu/ll_aton/ll_aton.c ****   /* Enable Switch */
 981:../../Middlewares/AI_Runtime/Npu/ll_aton/ll_aton.c ****   t = ATON_STRSWITCH_CTRL_DT;
 982:../../Middlewares/AI_Runtime/Npu/ll_aton/ll_aton.c ****   t = ATON_STRSWITCH_CTRL_SET_EN(t, 1);
 983:../../Middlewares/AI_Runtime/Npu/ll_aton/ll_aton.c ****   ATON_STRSWITCH_CTRL_SET(0, t);
 984:../../Middlewares/AI_Runtime/Npu/ll_aton/ll_aton.c **** 
 985:../../Middlewares/AI_Runtime/Npu/ll_aton/ll_aton.c ****   for (i = 0; i < n; i++)
 986:../../Middlewares/AI_Runtime/Npu/ll_aton/ll_aton.c ****   {
 987:../../Middlewares/AI_Runtime/Npu/ll_aton/ll_aton.c ****     /* Compute target destination configuration register */
 988:../../Middlewares/AI_Runtime/Npu/ll_aton/ll_aton.c ****     reg = (uint32_t *)(ATON_STRSWITCH_BASE(0) + ATONN_DSTPORT_ID(LL_Switch_InitStruct[i].dest));
 989:../../Middlewares/AI_Runtime/Npu/ll_aton/ll_aton.c ****     t = 0;
 990:../../Middlewares/AI_Runtime/Npu/ll_aton/ll_aton.c ****     /* Enable Context and create link */
 991:../../Middlewares/AI_Runtime/Npu/ll_aton/ll_aton.c **** #if ATON_SWITCH_CONTEXT_NUM == 2
 992:../../Middlewares/AI_Runtime/Npu/ll_aton/ll_aton.c ****     t |= ((LL_Switch_InitStruct[i].context0 != 0) << en_shift[0]);
 993:../../Middlewares/AI_Runtime/Npu/ll_aton/ll_aton.c ****     t |= (ATONN_SRCPORT_ID(LL_Switch_InitStruct[i].source0) << link_shift[0]);
 994:../../Middlewares/AI_Runtime/Npu/ll_aton/ll_aton.c ****     t |= ((LL_Switch_InitStruct[i].frames0 << fnr_shift[0]) & fnr_mask[0]);
ARM GAS  C:\Users\Antonio\AppData\Local\Temp\ccynTwLp.s 			page 19


 995:../../Middlewares/AI_Runtime/Npu/ll_aton/ll_aton.c ****     t |= ((LL_Switch_InitStruct[i].context1 != 0) << en_shift[1]);
 996:../../Middlewares/AI_Runtime/Npu/ll_aton/ll_aton.c ****     t |= (ATONN_SRCPORT_ID(LL_Switch_InitStruct[i].source1) << link_shift[1]);
 997:../../Middlewares/AI_Runtime/Npu/ll_aton/ll_aton.c ****     t |= ((LL_Switch_InitStruct[i].frames1 << fnr_shift[1]) & fnr_mask[1]);
 998:../../Middlewares/AI_Runtime/Npu/ll_aton/ll_aton.c **** #else
 999:../../Middlewares/AI_Runtime/Npu/ll_aton/ll_aton.c ****     int c;
1000:../../Middlewares/AI_Runtime/Npu/ll_aton/ll_aton.c ****     for (c = 0; c < ATON_SWITCH_CONTEXT_NUM; c++)
1001:../../Middlewares/AI_Runtime/Npu/ll_aton/ll_aton.c ****     {
1002:../../Middlewares/AI_Runtime/Npu/ll_aton/ll_aton.c ****       t |= ((LL_Switch_InitStruct[i].context[c] != 0) << en_shift[c]);
1003:../../Middlewares/AI_Runtime/Npu/ll_aton/ll_aton.c ****       t |= (ATONN_SRCPORT_ID(LL_Switch_InitStruct[i].source[c]) << link_shift[c]);
1004:../../Middlewares/AI_Runtime/Npu/ll_aton/ll_aton.c ****       t |= ((LL_Switch_InitStruct[i].frames[c] << fnr_shift[c]) & fnr_mask[c]);
1005:../../Middlewares/AI_Runtime/Npu/ll_aton/ll_aton.c ****     }
1006:../../Middlewares/AI_Runtime/Npu/ll_aton/ll_aton.c **** #endif
1007:../../Middlewares/AI_Runtime/Npu/ll_aton/ll_aton.c **** 
1008:../../Middlewares/AI_Runtime/Npu/ll_aton/ll_aton.c ****     ATON_REG_WRITE(reg, t);
1009:../../Middlewares/AI_Runtime/Npu/ll_aton/ll_aton.c ****   }
1010:../../Middlewares/AI_Runtime/Npu/ll_aton/ll_aton.c **** 
1011:../../Middlewares/AI_Runtime/Npu/ll_aton/ll_aton.c ****   return 0;
1012:../../Middlewares/AI_Runtime/Npu/ll_aton/ll_aton.c **** }
1013:../../Middlewares/AI_Runtime/Npu/ll_aton/ll_aton.c **** 
1014:../../Middlewares/AI_Runtime/Npu/ll_aton/ll_aton.c **** /**
1015:../../Middlewares/AI_Runtime/Npu/ll_aton/ll_aton.c ****  * @brief  Connects input and output port(s) on the streaming switch (clearing configuration at the
1016:../../Middlewares/AI_Runtime/Npu/ll_aton/ll_aton.c ****  * @param  LL_Switch_InitStruct Pointer to structure(s) describing ports to be connected
1017:../../Middlewares/AI_Runtime/Npu/ll_aton/ll_aton.c ****  * @param  n Number of entries in configuration array
1018:../../Middlewares/AI_Runtime/Npu/ll_aton/ll_aton.c ****  * @retval Error code
1019:../../Middlewares/AI_Runtime/Npu/ll_aton/ll_aton.c ****  */
1020:../../Middlewares/AI_Runtime/Npu/ll_aton/ll_aton.c **** int LL_Switch_Init(const LL_Switch_InitTypeDef *LL_Switch_InitStruct, int n)
1021:../../Middlewares/AI_Runtime/Npu/ll_aton/ll_aton.c **** {
1022:../../Middlewares/AI_Runtime/Npu/ll_aton/ll_aton.c ****   uint32_t t;
1023:../../Middlewares/AI_Runtime/Npu/ll_aton/ll_aton.c **** 
1024:../../Middlewares/AI_Runtime/Npu/ll_aton/ll_aton.c **** #if (LL_ATON_PLATFORM == LL_ATON_PLAT_EC_TRACE)
1025:../../Middlewares/AI_Runtime/Npu/ll_aton/ll_aton.c ****   ll_aton_static_checks();
1026:../../Middlewares/AI_Runtime/Npu/ll_aton/ll_aton.c **** #endif
1027:../../Middlewares/AI_Runtime/Npu/ll_aton/ll_aton.c **** 
1028:../../Middlewares/AI_Runtime/Npu/ll_aton/ll_aton.c ****   /* Clear Configuration */
1029:../../Middlewares/AI_Runtime/Npu/ll_aton/ll_aton.c ****   ATON_DISABLE_CLR_CONFCLR(STRSWITCH, 0);
1030:../../Middlewares/AI_Runtime/Npu/ll_aton/ll_aton.c **** 
1031:../../Middlewares/AI_Runtime/Npu/ll_aton/ll_aton.c ****   return LL_Switch_Init_NoReset(LL_Switch_InitStruct, n);
1032:../../Middlewares/AI_Runtime/Npu/ll_aton/ll_aton.c **** }
1033:../../Middlewares/AI_Runtime/Npu/ll_aton/ll_aton.c **** 
1034:../../Middlewares/AI_Runtime/Npu/ll_aton/ll_aton.c **** /**
1035:../../Middlewares/AI_Runtime/Npu/ll_aton/ll_aton.c ****  * @brief  Fully disconnect a destination port from source ports on the streaming switch
1036:../../Middlewares/AI_Runtime/Npu/ll_aton/ll_aton.c ****  * @param  LL_Switch_InitStruct Pointer to structure(s) describing ports to be disconnected
1037:../../Middlewares/AI_Runtime/Npu/ll_aton/ll_aton.c ****  * @param  n Number of entries in configuration array
1038:../../Middlewares/AI_Runtime/Npu/ll_aton/ll_aton.c ****  * @retval Error code
1039:../../Middlewares/AI_Runtime/Npu/ll_aton/ll_aton.c ****  */
1040:../../Middlewares/AI_Runtime/Npu/ll_aton/ll_aton.c **** int LL_Switch_Deinit(const LL_Switch_InitTypeDef *LL_Switch_InitStruct, int n)
1041:../../Middlewares/AI_Runtime/Npu/ll_aton/ll_aton.c **** {
1042:../../Middlewares/AI_Runtime/Npu/ll_aton/ll_aton.c ****   int i;
1043:../../Middlewares/AI_Runtime/Npu/ll_aton/ll_aton.c ****   volatile uint32_t *reg;
1044:../../Middlewares/AI_Runtime/Npu/ll_aton/ll_aton.c **** 
1045:../../Middlewares/AI_Runtime/Npu/ll_aton/ll_aton.c ****   for (i = 0; i < n; i++)
1046:../../Middlewares/AI_Runtime/Npu/ll_aton/ll_aton.c ****   {
1047:../../Middlewares/AI_Runtime/Npu/ll_aton/ll_aton.c ****     /* Compute target destination configuration register */
1048:../../Middlewares/AI_Runtime/Npu/ll_aton/ll_aton.c ****     reg = (uint32_t *)(ATON_STRSWITCH_BASE(0) + ATONN_DSTPORT_ID(LL_Switch_InitStruct[i].dest));
1049:../../Middlewares/AI_Runtime/Npu/ll_aton/ll_aton.c **** 
1050:../../Middlewares/AI_Runtime/Npu/ll_aton/ll_aton.c ****     /* Disable contexts */
1051:../../Middlewares/AI_Runtime/Npu/ll_aton/ll_aton.c ****     ATON_REG_WRITE(reg, 0);
ARM GAS  C:\Users\Antonio\AppData\Local\Temp\ccynTwLp.s 			page 20


1052:../../Middlewares/AI_Runtime/Npu/ll_aton/ll_aton.c ****   }
1053:../../Middlewares/AI_Runtime/Npu/ll_aton/ll_aton.c **** 
1054:../../Middlewares/AI_Runtime/Npu/ll_aton/ll_aton.c ****   return 0;
1055:../../Middlewares/AI_Runtime/Npu/ll_aton/ll_aton.c **** }
1056:../../Middlewares/AI_Runtime/Npu/ll_aton/ll_aton.c **** 
1057:../../Middlewares/AI_Runtime/Npu/ll_aton/ll_aton.c **** /**
1058:../../Middlewares/AI_Runtime/Npu/ll_aton/ll_aton.c ****  * @brief  Disconnects destination and source port(s) on the streaming switch
1059:../../Middlewares/AI_Runtime/Npu/ll_aton/ll_aton.c ****  * @param  LL_Switch_InitStruct Pointer to structure(s) describing ports to be disconnected
1060:../../Middlewares/AI_Runtime/Npu/ll_aton/ll_aton.c ****  * @param  n Number of entries in configuration array
1061:../../Middlewares/AI_Runtime/Npu/ll_aton/ll_aton.c ****  * @retval Error code
1062:../../Middlewares/AI_Runtime/Npu/ll_aton/ll_aton.c ****  */
1063:../../Middlewares/AI_Runtime/Npu/ll_aton/ll_aton.c **** int LL_Switch_Deinit_Fine_Grained(const LL_Switch_InitTypeDef *LL_Switch_InitStruct, int n)
1064:../../Middlewares/AI_Runtime/Npu/ll_aton/ll_aton.c **** {
1065:../../Middlewares/AI_Runtime/Npu/ll_aton/ll_aton.c ****   int i;
1066:../../Middlewares/AI_Runtime/Npu/ll_aton/ll_aton.c ****   volatile uint32_t *reg;
1067:../../Middlewares/AI_Runtime/Npu/ll_aton/ll_aton.c ****   unsigned int en_shift[ATON_SWITCH_CONTEXT_NUM] = {ATON_STRSWITCH_DST_EN0_LSB, ATON_STRSWITCH_DST_
1068:../../Middlewares/AI_Runtime/Npu/ll_aton/ll_aton.c **** 
1069:../../Middlewares/AI_Runtime/Npu/ll_aton/ll_aton.c ****   for (i = 0; i < n; i++)
1070:../../Middlewares/AI_Runtime/Npu/ll_aton/ll_aton.c ****   {
1071:../../Middlewares/AI_Runtime/Npu/ll_aton/ll_aton.c ****     /* Compute target destination configuration register */
1072:../../Middlewares/AI_Runtime/Npu/ll_aton/ll_aton.c ****     reg = (uint32_t *)(ATON_STRSWITCH_BASE(0) + ATONN_DSTPORT_ID(LL_Switch_InitStruct[i].dest));
1073:../../Middlewares/AI_Runtime/Npu/ll_aton/ll_aton.c **** 
1074:../../Middlewares/AI_Runtime/Npu/ll_aton/ll_aton.c ****     /* Disable context */
1075:../../Middlewares/AI_Runtime/Npu/ll_aton/ll_aton.c ****     uint32_t t = *reg;
1076:../../Middlewares/AI_Runtime/Npu/ll_aton/ll_aton.c **** #if ATON_SWITCH_CONTEXT_NUM == 2
1077:../../Middlewares/AI_Runtime/Npu/ll_aton/ll_aton.c ****     t &= ~((LL_Switch_InitStruct[i].context0 != 0) << en_shift[0]);
1078:../../Middlewares/AI_Runtime/Npu/ll_aton/ll_aton.c ****     t &= ~((LL_Switch_InitStruct[i].context1 != 0) << en_shift[1]);
1079:../../Middlewares/AI_Runtime/Npu/ll_aton/ll_aton.c **** #else
1080:../../Middlewares/AI_Runtime/Npu/ll_aton/ll_aton.c ****     int c;
1081:../../Middlewares/AI_Runtime/Npu/ll_aton/ll_aton.c ****     for (c = 0; c < ATON_SWITCH_CONTEXT_NUM; c++)
1082:../../Middlewares/AI_Runtime/Npu/ll_aton/ll_aton.c ****       t &= ~((LL_Switch_InitStruct[i].context[c] != 0) << en_shift[c]);
1083:../../Middlewares/AI_Runtime/Npu/ll_aton/ll_aton.c **** #endif
1084:../../Middlewares/AI_Runtime/Npu/ll_aton/ll_aton.c ****     ATON_REG_WRITE(reg, t);
1085:../../Middlewares/AI_Runtime/Npu/ll_aton/ll_aton.c ****   }
1086:../../Middlewares/AI_Runtime/Npu/ll_aton/ll_aton.c **** 
1087:../../Middlewares/AI_Runtime/Npu/ll_aton/ll_aton.c ****   return 0;
1088:../../Middlewares/AI_Runtime/Npu/ll_aton/ll_aton.c **** }
1089:../../Middlewares/AI_Runtime/Npu/ll_aton/ll_aton.c **** 
1090:../../Middlewares/AI_Runtime/Npu/ll_aton/ll_aton.c **** #ifdef ATON_STRSWITCH_VC_NUM
1091:../../Middlewares/AI_Runtime/Npu/ll_aton/ll_aton.c **** 
1092:../../Middlewares/AI_Runtime/Npu/ll_aton/ll_aton.c **** /**
1093:../../Middlewares/AI_Runtime/Npu/ll_aton/ll_aton.c ****  * @brief  Connects input and output port(s) on the streaming switch with virtual channels (without
1094:../../Middlewares/AI_Runtime/Npu/ll_aton/ll_aton.c ****  * configuration)
1095:../../Middlewares/AI_Runtime/Npu/ll_aton/ll_aton.c ****  * @param  LL_SwitchVC_InitStruct Pointer to structure(s) describing ports to be connected
1096:../../Middlewares/AI_Runtime/Npu/ll_aton/ll_aton.c ****  * @param  n Number of entries in configuration array
1097:../../Middlewares/AI_Runtime/Npu/ll_aton/ll_aton.c ****  * @retval Error code
1098:../../Middlewares/AI_Runtime/Npu/ll_aton/ll_aton.c ****  */
1099:../../Middlewares/AI_Runtime/Npu/ll_aton/ll_aton.c **** int LL_SwitchVC_Init_NoReset(const LL_SwitchVC_InitTypeDef *LL_SwitchVC_InitStruct, int n)
1100:../../Middlewares/AI_Runtime/Npu/ll_aton/ll_aton.c **** {
1101:../../Middlewares/AI_Runtime/Npu/ll_aton/ll_aton.c ****   int i;
1102:../../Middlewares/AI_Runtime/Npu/ll_aton/ll_aton.c ****   volatile uint32_t *reg;
1103:../../Middlewares/AI_Runtime/Npu/ll_aton/ll_aton.c ****   uint32_t t;
1104:../../Middlewares/AI_Runtime/Npu/ll_aton/ll_aton.c ****   unsigned int en_shift = ATON_STRSWITCH_VC_DST_EN_LSB;
1105:../../Middlewares/AI_Runtime/Npu/ll_aton/ll_aton.c ****   unsigned int src_shift = ATON_STRSWITCH_VC_DST_SRC_LSB;
1106:../../Middlewares/AI_Runtime/Npu/ll_aton/ll_aton.c **** 
1107:../../Middlewares/AI_Runtime/Npu/ll_aton/ll_aton.c ****   /* Enable Switch */
1108:../../Middlewares/AI_Runtime/Npu/ll_aton/ll_aton.c ****   t = ATON_STRSWITCH_VC_CTRL_DT;
ARM GAS  C:\Users\Antonio\AppData\Local\Temp\ccynTwLp.s 			page 21


1109:../../Middlewares/AI_Runtime/Npu/ll_aton/ll_aton.c ****   t = ATON_STRSWITCH_VC_CTRL_SET_EN(t, 1);
1110:../../Middlewares/AI_Runtime/Npu/ll_aton/ll_aton.c ****   ATON_STRSWITCH_VC_CTRL_SET(0, t);
1111:../../Middlewares/AI_Runtime/Npu/ll_aton/ll_aton.c **** 
1112:../../Middlewares/AI_Runtime/Npu/ll_aton/ll_aton.c ****   for (i = 0; i < n; i++)
1113:../../Middlewares/AI_Runtime/Npu/ll_aton/ll_aton.c ****   {
1114:../../Middlewares/AI_Runtime/Npu/ll_aton/ll_aton.c ****     /* Compute target destination configuration register */
1115:../../Middlewares/AI_Runtime/Npu/ll_aton/ll_aton.c ****     reg = (uint32_t *)(ATON_STRSWITCH_VC_BASE(0) + ATONN_DSTPORT_ID(LL_SwitchVC_InitStruct[i].dest)
1116:../../Middlewares/AI_Runtime/Npu/ll_aton/ll_aton.c ****     t = 0;
1117:../../Middlewares/AI_Runtime/Npu/ll_aton/ll_aton.c ****     /* Enable Context and create link */
1118:../../Middlewares/AI_Runtime/Npu/ll_aton/ll_aton.c ****     t |= (1 << en_shift);
1119:../../Middlewares/AI_Runtime/Npu/ll_aton/ll_aton.c ****     t |= (ATONN_SRCPORT_ID(LL_SwitchVC_InitStruct[i].source) << src_shift);
1120:../../Middlewares/AI_Runtime/Npu/ll_aton/ll_aton.c ****     ATON_REG_WRITE(reg, t);
1121:../../Middlewares/AI_Runtime/Npu/ll_aton/ll_aton.c ****   }
1122:../../Middlewares/AI_Runtime/Npu/ll_aton/ll_aton.c **** 
1123:../../Middlewares/AI_Runtime/Npu/ll_aton/ll_aton.c ****   return 0;
1124:../../Middlewares/AI_Runtime/Npu/ll_aton/ll_aton.c **** }
1125:../../Middlewares/AI_Runtime/Npu/ll_aton/ll_aton.c **** 
1126:../../Middlewares/AI_Runtime/Npu/ll_aton/ll_aton.c **** /**
1127:../../Middlewares/AI_Runtime/Npu/ll_aton/ll_aton.c ****  * @brief  Connects input and output port(s) on the streaming switch with virtual channels (clearin
1128:../../Middlewares/AI_Runtime/Npu/ll_aton/ll_aton.c ****  * the beginning)
1129:../../Middlewares/AI_Runtime/Npu/ll_aton/ll_aton.c ****  * @param  LL_SwitchVC_InitStruct Pointer to structure(s) describing ports to be connected
1130:../../Middlewares/AI_Runtime/Npu/ll_aton/ll_aton.c ****  * @param  n Number of entries in configuration array
1131:../../Middlewares/AI_Runtime/Npu/ll_aton/ll_aton.c ****  * @retval Error code
1132:../../Middlewares/AI_Runtime/Npu/ll_aton/ll_aton.c ****  */
1133:../../Middlewares/AI_Runtime/Npu/ll_aton/ll_aton.c **** int LL_SwitchVC_Init(const LL_SwitchVC_InitTypeDef *LL_SwitchVC_InitStruct, int n)
1134:../../Middlewares/AI_Runtime/Npu/ll_aton/ll_aton.c **** {
1135:../../Middlewares/AI_Runtime/Npu/ll_aton/ll_aton.c ****   uint32_t t;
1136:../../Middlewares/AI_Runtime/Npu/ll_aton/ll_aton.c **** 
1137:../../Middlewares/AI_Runtime/Npu/ll_aton/ll_aton.c ****   /* Clear Configuration */
1138:../../Middlewares/AI_Runtime/Npu/ll_aton/ll_aton.c ****   ATON_DISABLE_CLR_CONFCLR(STRSWITCH_VC, 0);
1139:../../Middlewares/AI_Runtime/Npu/ll_aton/ll_aton.c **** 
1140:../../Middlewares/AI_Runtime/Npu/ll_aton/ll_aton.c ****   return LL_SwitchVC_Init_NoReset(LL_SwitchVC_InitStruct, n);
1141:../../Middlewares/AI_Runtime/Npu/ll_aton/ll_aton.c **** }
1142:../../Middlewares/AI_Runtime/Npu/ll_aton/ll_aton.c **** 
1143:../../Middlewares/AI_Runtime/Npu/ll_aton/ll_aton.c **** /**
1144:../../Middlewares/AI_Runtime/Npu/ll_aton/ll_aton.c ****  * @brief  Fully disconnect a destination port from source ports on the streaming switch with virtu
1145:../../Middlewares/AI_Runtime/Npu/ll_aton/ll_aton.c ****  * @param  LL_SwitchVC_InitStruct Pointer to structure(s) describing ports to be disconnected
1146:../../Middlewares/AI_Runtime/Npu/ll_aton/ll_aton.c ****  * @param  n Number of entries in configuration array
1147:../../Middlewares/AI_Runtime/Npu/ll_aton/ll_aton.c ****  * @retval Error code
1148:../../Middlewares/AI_Runtime/Npu/ll_aton/ll_aton.c ****  */
1149:../../Middlewares/AI_Runtime/Npu/ll_aton/ll_aton.c **** int LL_SwitchVC_Deinit(const LL_SwitchVC_InitTypeDef *LL_SwitchVC_InitStruct, int n)
1150:../../Middlewares/AI_Runtime/Npu/ll_aton/ll_aton.c **** {
1151:../../Middlewares/AI_Runtime/Npu/ll_aton/ll_aton.c ****   int i;
1152:../../Middlewares/AI_Runtime/Npu/ll_aton/ll_aton.c ****   volatile uint32_t *reg;
1153:../../Middlewares/AI_Runtime/Npu/ll_aton/ll_aton.c **** 
1154:../../Middlewares/AI_Runtime/Npu/ll_aton/ll_aton.c ****   for (i = 0; i < n; i++)
1155:../../Middlewares/AI_Runtime/Npu/ll_aton/ll_aton.c ****   {
1156:../../Middlewares/AI_Runtime/Npu/ll_aton/ll_aton.c ****     /* Compute target destination configuration register */
1157:../../Middlewares/AI_Runtime/Npu/ll_aton/ll_aton.c ****     reg = (uint32_t *)(ATON_STRSWITCH_VC_BASE(0) + ATONN_DSTPORT_ID(LL_SwitchVC_InitStruct[i].dest)
1158:../../Middlewares/AI_Runtime/Npu/ll_aton/ll_aton.c **** 
1159:../../Middlewares/AI_Runtime/Npu/ll_aton/ll_aton.c ****     /* Disable contexts */
1160:../../Middlewares/AI_Runtime/Npu/ll_aton/ll_aton.c ****     ATON_REG_WRITE(reg, 0);
1161:../../Middlewares/AI_Runtime/Npu/ll_aton/ll_aton.c ****   }
1162:../../Middlewares/AI_Runtime/Npu/ll_aton/ll_aton.c **** 
1163:../../Middlewares/AI_Runtime/Npu/ll_aton/ll_aton.c ****   return 0;
1164:../../Middlewares/AI_Runtime/Npu/ll_aton/ll_aton.c **** }
1165:../../Middlewares/AI_Runtime/Npu/ll_aton/ll_aton.c **** 
ARM GAS  C:\Users\Antonio\AppData\Local\Temp\ccynTwLp.s 			page 22


1166:../../Middlewares/AI_Runtime/Npu/ll_aton/ll_aton.c **** /**
1167:../../Middlewares/AI_Runtime/Npu/ll_aton/ll_aton.c ****  * @brief  Disconnects destination and source port(s) on the streaming switch with virtual channels
1168:../../Middlewares/AI_Runtime/Npu/ll_aton/ll_aton.c ****  * @param  LL_SwitchVC_InitStruct Pointer to structure(s) describing ports to be disconnected
1169:../../Middlewares/AI_Runtime/Npu/ll_aton/ll_aton.c ****  * @param  n Number of entries in configuration array
1170:../../Middlewares/AI_Runtime/Npu/ll_aton/ll_aton.c ****  * @retval Error code
1171:../../Middlewares/AI_Runtime/Npu/ll_aton/ll_aton.c ****  */
1172:../../Middlewares/AI_Runtime/Npu/ll_aton/ll_aton.c **** int LL_SwitchVC_Deinit_Fine_Grained(const LL_SwitchVC_InitTypeDef *LL_SwitchVC_InitStruct, int n)
1173:../../Middlewares/AI_Runtime/Npu/ll_aton/ll_aton.c **** {
1174:../../Middlewares/AI_Runtime/Npu/ll_aton/ll_aton.c ****   int i;
1175:../../Middlewares/AI_Runtime/Npu/ll_aton/ll_aton.c ****   volatile uint32_t *reg;
1176:../../Middlewares/AI_Runtime/Npu/ll_aton/ll_aton.c ****   unsigned int en_shift = ATON_STRSWITCH_VC_DST_EN_LSB;
1177:../../Middlewares/AI_Runtime/Npu/ll_aton/ll_aton.c **** 
1178:../../Middlewares/AI_Runtime/Npu/ll_aton/ll_aton.c ****   for (i = 0; i < n; i++)
1179:../../Middlewares/AI_Runtime/Npu/ll_aton/ll_aton.c ****   {
1180:../../Middlewares/AI_Runtime/Npu/ll_aton/ll_aton.c ****     /* Compute target destination configuration register */
1181:../../Middlewares/AI_Runtime/Npu/ll_aton/ll_aton.c ****     reg = (uint32_t *)(ATON_STRSWITCH_VC_BASE(0) + ATONN_DSTPORT_ID(LL_SwitchVC_InitStruct[i].dest)
1182:../../Middlewares/AI_Runtime/Npu/ll_aton/ll_aton.c **** 
1183:../../Middlewares/AI_Runtime/Npu/ll_aton/ll_aton.c ****     /* Disable context */
1184:../../Middlewares/AI_Runtime/Npu/ll_aton/ll_aton.c ****     uint32_t t = *reg;
1185:../../Middlewares/AI_Runtime/Npu/ll_aton/ll_aton.c ****     t &= ~(1 << en_shift);
1186:../../Middlewares/AI_Runtime/Npu/ll_aton/ll_aton.c ****     ATON_REG_WRITE(reg, t);
1187:../../Middlewares/AI_Runtime/Npu/ll_aton/ll_aton.c ****   }
1188:../../Middlewares/AI_Runtime/Npu/ll_aton/ll_aton.c **** 
1189:../../Middlewares/AI_Runtime/Npu/ll_aton/ll_aton.c ****   return 0;
1190:../../Middlewares/AI_Runtime/Npu/ll_aton/ll_aton.c **** }
1191:../../Middlewares/AI_Runtime/Npu/ll_aton/ll_aton.c **** #endif // ATON_STRSWITCH_VC_NUM
1192:../../Middlewares/AI_Runtime/Npu/ll_aton/ll_aton.c **** 
1193:../../Middlewares/AI_Runtime/Npu/ll_aton/ll_aton.c **** #ifdef ATON_DECUN_NUM
1194:../../Middlewares/AI_Runtime/Npu/ll_aton/ll_aton.c **** 
1195:../../Middlewares/AI_Runtime/Npu/ll_aton/ll_aton.c **** static inline uint32_t decun_inc_page_addr(int id, uint32_t ctrl_val)
1196:../../Middlewares/AI_Runtime/Npu/ll_aton/ll_aton.c **** {
  34              		.loc 1 1196 1 view -0
  35              		.cfi_startproc
  36              		@ args = 0, pretend = 0, frame = 0
  37              		@ frame_needed = 0, uses_anonymous_args = 0
  38              		@ link register save eliminated.
1197:../../Middlewares/AI_Runtime/Npu/ll_aton/ll_aton.c ****   uint32_t page_addr = ATON_DECUN_CTRL_GET_PAGEADDR(ctrl_val);
  39              		.loc 1 1197 3 view .LVU1
1198:../../Middlewares/AI_Runtime/Npu/ll_aton/ll_aton.c ****   page_addr++;
  40              		.loc 1 1198 3 view .LVU2
1199:../../Middlewares/AI_Runtime/Npu/ll_aton/ll_aton.c ****   ctrl_val = ATON_DECUN_CTRL_SET_PAGEADDR(ctrl_val, page_addr);
  41              		.loc 1 1199 3 view .LVU3
1198:../../Middlewares/AI_Runtime/Npu/ll_aton/ll_aton.c ****   page_addr++;
  42              		.loc 1 1198 12 is_stmt 0 view .LVU4
  43 0000 01F03003 		and	r3, r1, #48
  44              		.loc 1 1199 14 view .LVU5
  45 0004 1033     		adds	r3, r3, #16
1200:../../Middlewares/AI_Runtime/Npu/ll_aton/ll_aton.c ****   ATON_DECUN_CTRL_SET(id, ctrl_val);
  46              		.loc 1 1200 3 view .LVU6
  47 0006 00F5B020 		add	r0, r0, #360448
  48              	.LVL1:
1199:../../Middlewares/AI_Runtime/Npu/ll_aton/ll_aton.c ****   ctrl_val = ATON_DECUN_CTRL_SET_PAGEADDR(ctrl_val, page_addr);
  49              		.loc 1 1199 14 view .LVU7
  50 000a 21F03002 		bic	r2, r1, #48
  51 000e 03F03003 		and	r3, r3, #48
  52              		.loc 1 1200 3 view .LVU8
  53 0012 F330     		adds	r0, r0, #243
ARM GAS  C:\Users\Antonio\AppData\Local\Temp\ccynTwLp.s 			page 23


  54              	.LVL2:
1199:../../Middlewares/AI_Runtime/Npu/ll_aton/ll_aton.c ****   ctrl_val = ATON_DECUN_CTRL_SET_PAGEADDR(ctrl_val, page_addr);
  55              		.loc 1 1199 12 view .LVU9
  56 0014 1343     		orrs	r3, r3, r2
  57              	.LVL3:
  58              		.loc 1 1200 3 is_stmt 1 view .LVU10
  59              		.loc 1 1200 3 view .LVU11
  60 0016 0003     		lsls	r0, r0, #12
  61              	.LVL4:
  62              		.loc 1 1200 3 is_stmt 0 view .LVU12
  63 0018 0360     		str	r3, [r0]
  64              		.loc 1 1200 3 is_stmt 1 view .LVU13
  65              		.loc 1 1200 36 view .LVU14
1201:../../Middlewares/AI_Runtime/Npu/ll_aton/ll_aton.c ****   return ctrl_val;
  66              		.loc 1 1201 3 view .LVU15
1202:../../Middlewares/AI_Runtime/Npu/ll_aton/ll_aton.c **** }
  67              		.loc 1 1202 1 is_stmt 0 view .LVU16
  68 001a 1846     		mov	r0, r3
  69 001c 7047     		bx	lr
  70              		.cfi_endproc
  71              	.LFE4837:
  73              		.section	.text.LL_Address_Physical2Virtual,"ax",%progbits
  74              		.align	1
  75              		.global	LL_Address_Physical2Virtual
  76              		.syntax unified
  77              		.thumb
  78              		.thumb_func
  80              	LL_Address_Physical2Virtual:
  81              	.LVL5:
  82              	.LFB4818:
 129:../../Middlewares/AI_Runtime/Npu/ll_aton/ll_aton.c ****   return ATON_LIB_PHYSICAL_TO_VIRTUAL_ADDR(address);
  83              		.loc 1 129 1 is_stmt 1 view -0
  84              		.cfi_startproc
  85              		@ args = 0, pretend = 0, frame = 0
  86              		@ frame_needed = 0, uses_anonymous_args = 0
  87              		@ link register save eliminated.
 130:../../Middlewares/AI_Runtime/Npu/ll_aton/ll_aton.c **** }
  88              		.loc 1 130 3 view .LVU18
 131:../../Middlewares/AI_Runtime/Npu/ll_aton/ll_aton.c **** 
  89              		.loc 1 131 1 is_stmt 0 view .LVU19
  90 0000 7047     		bx	lr
  91              		.cfi_endproc
  92              	.LFE4818:
  94              		.section	.text.LL_Address_Virtual2Physical,"ax",%progbits
  95              		.align	1
  96              		.global	LL_Address_Virtual2Physical
  97              		.syntax unified
  98              		.thumb
  99              		.thumb_func
 101              	LL_Address_Virtual2Physical:
 102              	.LFB4857:
 103              		.cfi_startproc
 133:../../Middlewares/AI_Runtime/Npu/ll_aton/ll_aton.c **** {
 104              		.loc 1 133 16 is_stmt 1 view -0
 105              		@ args = 0, pretend = 0, frame = 0
 106              		@ frame_needed = 0, uses_anonymous_args = 0
 107              		@ link register save eliminated.
ARM GAS  C:\Users\Antonio\AppData\Local\Temp\ccynTwLp.s 			page 24


 108 0000 7047     		bx	lr
 109              		.cfi_endproc
 110              	.LFE4857:
 112              		.section	.text.startWatchdog,"ax",%progbits
 113              		.align	1
 114              		.weak	startWatchdog
 115              		.syntax unified
 116              		.thumb
 117              		.thumb_func
 119              	startWatchdog:
 120              	.LVL6:
 121              	.LFB4820:
 144:../../Middlewares/AI_Runtime/Npu/ll_aton/ll_aton.c ****   (void)timeout;
 122              		.loc 1 144 1 view -0
 123              		.cfi_startproc
 124              		@ args = 0, pretend = 0, frame = 0
 125              		@ frame_needed = 0, uses_anonymous_args = 0
 126              		@ link register save eliminated.
 145:../../Middlewares/AI_Runtime/Npu/ll_aton/ll_aton.c **** 
 127              		.loc 1 145 3 view .LVU22
 147:../../Middlewares/AI_Runtime/Npu/ll_aton/ll_aton.c **** }
 128              		.loc 1 147 3 view .LVU23
 148:../../Middlewares/AI_Runtime/Npu/ll_aton/ll_aton.c **** 
 129              		.loc 1 148 1 is_stmt 0 view .LVU24
 130 0000 0020     		movs	r0, #0
 131              	.LVL7:
 148:../../Middlewares/AI_Runtime/Npu/ll_aton/ll_aton.c **** 
 132              		.loc 1 148 1 view .LVU25
 133 0002 7047     		bx	lr
 134              		.cfi_endproc
 135              	.LFE4820:
 137              		.section	.text.checkWatchdog,"ax",%progbits
 138              		.align	1
 139              		.weak	checkWatchdog
 140              		.syntax unified
 141              		.thumb
 142              		.thumb_func
 144              	checkWatchdog:
 145              	.LFB4821:
 155:../../Middlewares/AI_Runtime/Npu/ll_aton/ll_aton.c ****   return 0;
 146              		.loc 1 155 1 is_stmt 1 view -0
 147              		.cfi_startproc
 148              		@ args = 0, pretend = 0, frame = 0
 149              		@ frame_needed = 0, uses_anonymous_args = 0
 150              		@ link register save eliminated.
 156:../../Middlewares/AI_Runtime/Npu/ll_aton/ll_aton.c **** }
 151              		.loc 1 156 3 view .LVU27
 157:../../Middlewares/AI_Runtime/Npu/ll_aton/ll_aton.c **** 
 152              		.loc 1 157 1 is_stmt 0 view .LVU28
 153 0000 0020     		movs	r0, #0
 154 0002 7047     		bx	lr
 155              		.cfi_endproc
 156              	.LFE4821:
 158              		.section	.rodata.LL_ATON_Init.str1.1,"aMS",%progbits,1
 159              	.LC3:
 160 0000 4E6F6E65 		.ascii	"None\000"
 160      00
ARM GAS  C:\Users\Antonio\AppData\Local\Temp\ccynTwLp.s 			page 25


 161              	.LC4:
 162 0005 2E2E2F2E 		.ascii	"../../Middlewares/AI_Runtime/Npu/ll_aton/ll_aton.c\000"
 162      2E2F4D69 
 162      64646C65 
 162      77617265 
 162      732F4149 
 163              	.LC5:
 164 0038 5B455252 		.ascii	"[ERROR] (%s:%d: errno: %s) %s unit ver mismatch: RT"
 164      4F525D20 
 164      2825733A 
 164      25643A20 
 164      6572726E 
 165 006b 4C3A743D 		.ascii	"L:t=%lu,ver=%lu.%lu  ATON.h:t=%lu,ver=%lu.%lu\012\015"
 165      256C752C 
 165      7665723D 
 165      256C752E 
 165      256C7520 
 166 009a 0A00     		.ascii	"\012\000"
 167              	.LC6:
 168 009c 53545245 		.ascii	"STRENG\000"
 168      4E4700
 169              	.LC7:
 170 00a3 3000     		.ascii	"0\000"
 171              	.LC8:
 172 00a5 434F4E56 		.ascii	"CONVACC\000"
 172      41434300 
 173              	.LC9:
 174 00ad 504F4F4C 		.ascii	"POOL\000"
 174      00
 175              	.LC10:
 176 00b2 41524954 		.ascii	"ARITH\000"
 176      4800
 177              	.LC11:
 178 00b8 41435449 		.ascii	"ACTIV\000"
 178      5600
 179              	.LC12:
 180 00be 44454355 		.ascii	"DECUN\000"
 180      4E00
 181              	.LC13:
 182 00c4 45504F43 		.ascii	"EPOCHCTRL\000"
 182      48435452 
 182      4C00
 183              	.LC14:
 184 00ce 52454342 		.ascii	"RECBUF\000"
 184      554600
 185              	.LC15:
 186 00d5 434C4B43 		.ascii	"CLKCTRL\000"
 186      54524C00 
 187              	.LC16:
 188 00dd 494E5443 		.ascii	"INTCTRL\000"
 188      54524C00 
 189              	.LC17:
 190 00e5 53545253 		.ascii	"STRSWITCH\000"
 190      57495443 
 190      4800
 191              	.LC18:
 192 00ef 42555349 		.ascii	"BUSIF\000"
ARM GAS  C:\Users\Antonio\AppData\Local\Temp\ccynTwLp.s 			page 26


 192      4600
 193              		.section	.text.LL_ATON_Init,"ax",%progbits
 194              		.align	1
 195              		.global	LL_ATON_Init
 196              		.syntax unified
 197              		.thumb
 198              		.thumb_func
 200              	LL_ATON_Init:
 201              	.LFB4822:
 168:../../Middlewares/AI_Runtime/Npu/ll_aton/ll_aton.c ****   uint32_t t;
 202              		.loc 1 168 1 is_stmt 1 view -0
 203              		.cfi_startproc
 204              		@ args = 0, pretend = 0, frame = 0
 205              		@ frame_needed = 0, uses_anonymous_args = 0
 169:../../Middlewares/AI_Runtime/Npu/ll_aton/ll_aton.c ****   int i;
 206              		.loc 1 169 3 view .LVU30
 170:../../Middlewares/AI_Runtime/Npu/ll_aton/ll_aton.c **** 
 207              		.loc 1 170 3 view .LVU31
 172:../../Middlewares/AI_Runtime/Npu/ll_aton/ll_aton.c **** 
 208              		.loc 1 172 3 view .LVU32
 209              	.LBB15:
 210              	.LBI15:
  62:../../Middlewares/AI_Runtime/Npu/ll_aton/ll_aton.c **** {
 211              		.loc 1 62 20 view .LVU33
 212              	.LBB16:
  64:../../Middlewares/AI_Runtime/Npu/ll_aton/ll_aton.c **** 
 213              		.loc 1 64 3 view .LVU34
  66:../../Middlewares/AI_Runtime/Npu/ll_aton/ll_aton.c ****     return;
 214              		.loc 1 66 3 view .LVU35
 215              	.LBE16:
 216              	.LBE15:
 168:../../Middlewares/AI_Runtime/Npu/ll_aton/ll_aton.c ****   uint32_t t;
 217              		.loc 1 168 1 is_stmt 0 view .LVU36
 218 0000 10B5     		push	{r4, lr}
 219              		.cfi_def_cfa_offset 8
 220              		.cfi_offset 4, -8
 221              		.cfi_offset 14, -4
 222              	.LBB19:
 223              	.LBB17:
  66:../../Middlewares/AI_Runtime/Npu/ll_aton/ll_aton.c ****     return;
 224              		.loc 1 66 12 view .LVU37
 225 0002 A34B     		ldr	r3, .L95
 226              	.LBE17:
 227              	.LBE19:
 168:../../Middlewares/AI_Runtime/Npu/ll_aton/ll_aton.c ****   uint32_t t;
 228              		.loc 1 168 1 view .LVU38
 229 0004 88B0     		sub	sp, sp, #32
 230              		.cfi_def_cfa_offset 40
 231              	.LBB20:
 232              	.LBB18:
  66:../../Middlewares/AI_Runtime/Npu/ll_aton/ll_aton.c ****     return;
 233              		.loc 1 66 6 view .LVU39
 234 0006 1A78     		ldrb	r2, [r3]	@ zero_extendqisi2
 235 0008 0AB9     		cbnz	r2, .L7
  68:../../Middlewares/AI_Runtime/Npu/ll_aton/ll_aton.c **** 
 236              		.loc 1 68 3 is_stmt 1 view .LVU40
  68:../../Middlewares/AI_Runtime/Npu/ll_aton/ll_aton.c **** 
ARM GAS  C:\Users\Antonio\AppData\Local\Temp\ccynTwLp.s 			page 27


 237              		.loc 1 68 8 is_stmt 0 view .LVU41
 238 000a 0122     		movs	r2, #1
 239 000c 1A70     		strb	r2, [r3]
  76:../../Middlewares/AI_Runtime/Npu/ll_aton/ll_aton.c ****   ASSERT_ATONN_DSTPORT(STRSWITCH, 0, STRENG, 1, 0);
 240              		.loc 1 76 3 is_stmt 1 view .LVU42
  77:../../Middlewares/AI_Runtime/Npu/ll_aton/ll_aton.c **** #endif
 241              		.loc 1 77 3 view .LVU43
  80:../../Middlewares/AI_Runtime/Npu/ll_aton/ll_aton.c ****   ASSERT_ATONN_DSTPORT(STRSWITCH, 0, STRENG, 2, 0);
 242              		.loc 1 80 3 view .LVU44
  81:../../Middlewares/AI_Runtime/Npu/ll_aton/ll_aton.c **** #endif
 243              		.loc 1 81 3 view .LVU45
 244              	.L7:
 245              	.LBE18:
 246              	.LBE20:
 175:../../Middlewares/AI_Runtime/Npu/ll_aton/ll_aton.c ****   t = ATON_CLKCTRL_CTRL_SET_CLR(t, 1);
 247              		.loc 1 175 3 view .LVU46
 175:../../Middlewares/AI_Runtime/Npu/ll_aton/ll_aton.c ****   t = ATON_CLKCTRL_CTRL_SET_CLR(t, 1);
 248              		.loc 1 175 5 is_stmt 0 view .LVU47
 249 000e A14B     		ldr	r3, .L95+4
 250 0010 1A68     		ldr	r2, [r3]
 251              	.LVL8:
 176:../../Middlewares/AI_Runtime/Npu/ll_aton/ll_aton.c ****   ATON_CLKCTRL_CTRL_SET(0, t);
 252              		.loc 1 176 3 is_stmt 1 view .LVU48
 176:../../Middlewares/AI_Runtime/Npu/ll_aton/ll_aton.c ****   ATON_CLKCTRL_CTRL_SET(0, t);
 253              		.loc 1 176 5 is_stmt 0 view .LVU49
 254 0012 42F00202 		orr	r2, r2, #2
 255              	.LVL9:
 177:../../Middlewares/AI_Runtime/Npu/ll_aton/ll_aton.c **** 
 256              		.loc 1 177 3 is_stmt 1 view .LVU50
 177:../../Middlewares/AI_Runtime/Npu/ll_aton/ll_aton.c **** 
 257              		.loc 1 177 3 view .LVU51
 258 0016 1A60     		str	r2, [r3]
 177:../../Middlewares/AI_Runtime/Npu/ll_aton/ll_aton.c **** 
 259              		.loc 1 177 3 view .LVU52
 177:../../Middlewares/AI_Runtime/Npu/ll_aton/ll_aton.c **** 
 260              		.loc 1 177 30 view .LVU53
 180:../../Middlewares/AI_Runtime/Npu/ll_aton/ll_aton.c ****   ATON_CLKCTRL_AGATES0_SET(0, 0xffffffff);
 261              		.loc 1 180 3 view .LVU54
 180:../../Middlewares/AI_Runtime/Npu/ll_aton/ll_aton.c ****   ATON_CLKCTRL_AGATES0_SET(0, 0xffffffff);
 262              		.loc 1 180 3 view .LVU55
 263 0018 0122     		movs	r2, #1
 264              	.LVL10:
 180:../../Middlewares/AI_Runtime/Npu/ll_aton/ll_aton.c ****   ATON_CLKCTRL_AGATES0_SET(0, 0xffffffff);
 265              		.loc 1 180 3 is_stmt 0 view .LVU56
 266 001a 1A60     		str	r2, [r3]
 267              	.LVL11:
 180:../../Middlewares/AI_Runtime/Npu/ll_aton/ll_aton.c ****   ATON_CLKCTRL_AGATES0_SET(0, 0xffffffff);
 268              		.loc 1 180 3 is_stmt 1 view .LVU57
 180:../../Middlewares/AI_Runtime/Npu/ll_aton/ll_aton.c ****   ATON_CLKCTRL_AGATES0_SET(0, 0xffffffff);
 269              		.loc 1 180 30 view .LVU58
 181:../../Middlewares/AI_Runtime/Npu/ll_aton/ll_aton.c ****   ATON_CLKCTRL_AGATES1_SET(0, 0xffffffff);
 270              		.loc 1 181 3 view .LVU59
 181:../../Middlewares/AI_Runtime/Npu/ll_aton/ll_aton.c ****   ATON_CLKCTRL_AGATES1_SET(0, 0xffffffff);
 271              		.loc 1 181 3 view .LVU60
 272 001c 4FF0FF32 		mov	r2, #-1
 273 0020 9A60     		str	r2, [r3, #8]
 181:../../Middlewares/AI_Runtime/Npu/ll_aton/ll_aton.c ****   ATON_CLKCTRL_AGATES1_SET(0, 0xffffffff);
ARM GAS  C:\Users\Antonio\AppData\Local\Temp\ccynTwLp.s 			page 28


 274              		.loc 1 181 3 view .LVU61
 181:../../Middlewares/AI_Runtime/Npu/ll_aton/ll_aton.c ****   ATON_CLKCTRL_AGATES1_SET(0, 0xffffffff);
 275              		.loc 1 181 42 view .LVU62
 182:../../Middlewares/AI_Runtime/Npu/ll_aton/ll_aton.c **** 
 276              		.loc 1 182 3 view .LVU63
 182:../../Middlewares/AI_Runtime/Npu/ll_aton/ll_aton.c **** 
 277              		.loc 1 182 3 view .LVU64
 278 0022 DA60     		str	r2, [r3, #12]
 182:../../Middlewares/AI_Runtime/Npu/ll_aton/ll_aton.c **** 
 279              		.loc 1 182 3 view .LVU65
 182:../../Middlewares/AI_Runtime/Npu/ll_aton/ll_aton.c **** 
 280              		.loc 1 182 42 view .LVU66
 188:../../Middlewares/AI_Runtime/Npu/ll_aton/ll_aton.c **** #endif
 281              		.loc 1 188 3 view .LVU67
 188:../../Middlewares/AI_Runtime/Npu/ll_aton/ll_aton.c **** #endif
 282              		.loc 1 188 3 view .LVU68
 283 0024 0022     		movs	r2, #0
 284 0026 1A61     		str	r2, [r3, #16]
 199:../../Middlewares/AI_Runtime/Npu/ll_aton/ll_aton.c **** 
 285              		.loc 1 199 3 is_stmt 0 discriminator 1 view .LVU69
 286 0028 03F5A043 		add	r3, r3, #20480
 287              	.LVL12:
 288              	.L8:
 188:../../Middlewares/AI_Runtime/Npu/ll_aton/ll_aton.c **** #endif
 289              		.loc 1 188 3 is_stmt 1 discriminator 1 view .LVU70
 188:../../Middlewares/AI_Runtime/Npu/ll_aton/ll_aton.c **** #endif
 290              		.loc 1 188 34 discriminator 1 view .LVU71
 199:../../Middlewares/AI_Runtime/Npu/ll_aton/ll_aton.c **** 
 291              		.loc 1 199 3 discriminator 1 view .LVU72
 199:../../Middlewares/AI_Runtime/Npu/ll_aton/ll_aton.c **** 
 292              		.loc 1 199 3 discriminator 1 view .LVU73
 293 002c 5C68     		ldr	r4, [r3, #4]
 294              	.LVL13:
 199:../../Middlewares/AI_Runtime/Npu/ll_aton/ll_aton.c **** 
 295              		.loc 1 199 3 discriminator 1 view .LVU74
 296 002e 002C     		cmp	r4, #0
 297 0030 FCD0     		beq	.L8
 199:../../Middlewares/AI_Runtime/Npu/ll_aton/ll_aton.c **** 
 298              		.loc 1 199 3 discriminator 2 view .LVU75
 299 0032 45F20103 		movw	r3, #20481
 300 0036 A2B2     		uxth	r2, r4
 301 0038 9A42     		cmp	r2, r3
 302 003a 40F09280 		bne	.L81
 202:../../Middlewares/AI_Runtime/Npu/ll_aton/ll_aton.c **** #endif
 303              		.loc 1 202 3 is_stmt 0 discriminator 1 view .LVU76
 304 003e 964B     		ldr	r3, .L95+8
 305              	.L9:
 199:../../Middlewares/AI_Runtime/Npu/ll_aton/ll_aton.c **** 
 306              		.loc 1 199 37 is_stmt 1 discriminator 4 view .LVU77
 202:../../Middlewares/AI_Runtime/Npu/ll_aton/ll_aton.c **** #endif
 307              		.loc 1 202 3 discriminator 1 view .LVU78
 202:../../Middlewares/AI_Runtime/Npu/ll_aton/ll_aton.c **** #endif
 308              		.loc 1 202 3 discriminator 1 view .LVU79
 309 0040 5C68     		ldr	r4, [r3, #4]
 310              	.LVL14:
 202:../../Middlewares/AI_Runtime/Npu/ll_aton/ll_aton.c **** #endif
 311              		.loc 1 202 3 discriminator 1 view .LVU80
ARM GAS  C:\Users\Antonio\AppData\Local\Temp\ccynTwLp.s 			page 29


 312 0042 002C     		cmp	r4, #0
 313 0044 FCD0     		beq	.L9
 202:../../Middlewares/AI_Runtime/Npu/ll_aton/ll_aton.c **** #endif
 314              		.loc 1 202 3 discriminator 2 view .LVU81
 315 0046 45F21713 		movw	r3, #20759
 316 004a A2B2     		uxth	r2, r4
 317 004c 9A42     		cmp	r2, r3
 318 004e 40F0B080 		bne	.L82
 206:../../Middlewares/AI_Runtime/Npu/ll_aton/ll_aton.c **** #endif
 319              		.loc 1 206 3 is_stmt 0 discriminator 1 view .LVU82
 320 0052 924B     		ldr	r3, .L95+12
 321              	.L11:
 202:../../Middlewares/AI_Runtime/Npu/ll_aton/ll_aton.c **** #endif
 322              		.loc 1 202 38 is_stmt 1 discriminator 4 view .LVU83
 206:../../Middlewares/AI_Runtime/Npu/ll_aton/ll_aton.c **** #endif
 323              		.loc 1 206 3 discriminator 1 view .LVU84
 206:../../Middlewares/AI_Runtime/Npu/ll_aton/ll_aton.c **** #endif
 324              		.loc 1 206 3 discriminator 1 view .LVU85
 325 0054 5C68     		ldr	r4, [r3, #4]
 326              	.LVL15:
 206:../../Middlewares/AI_Runtime/Npu/ll_aton/ll_aton.c **** #endif
 327              		.loc 1 206 3 discriminator 1 view .LVU86
 328 0056 002C     		cmp	r4, #0
 329 0058 FCD0     		beq	.L11
 206:../../Middlewares/AI_Runtime/Npu/ll_aton/ll_aton.c **** #endif
 330              		.loc 1 206 3 discriminator 2 view .LVU87
 331 005a 41F21C13 		movw	r3, #4380
 332 005e A2B2     		uxth	r2, r4
 333 0060 9A42     		cmp	r2, r3
 334 0062 40F0CC80 		bne	.L83
 210:../../Middlewares/AI_Runtime/Npu/ll_aton/ll_aton.c **** #endif
 335              		.loc 1 210 3 is_stmt 0 discriminator 1 view .LVU88
 336 0066 8E4B     		ldr	r3, .L95+16
 337              	.L13:
 206:../../Middlewares/AI_Runtime/Npu/ll_aton/ll_aton.c **** #endif
 338              		.loc 1 206 35 is_stmt 1 discriminator 4 view .LVU89
 210:../../Middlewares/AI_Runtime/Npu/ll_aton/ll_aton.c **** #endif
 339              		.loc 1 210 3 discriminator 1 view .LVU90
 210:../../Middlewares/AI_Runtime/Npu/ll_aton/ll_aton.c **** #endif
 340              		.loc 1 210 3 discriminator 1 view .LVU91
 341 0068 5C68     		ldr	r4, [r3, #4]
 342              	.LVL16:
 210:../../Middlewares/AI_Runtime/Npu/ll_aton/ll_aton.c **** #endif
 343              		.loc 1 210 3 discriminator 1 view .LVU92
 344 006a 002C     		cmp	r4, #0
 345 006c FCD0     		beq	.L13
 210:../../Middlewares/AI_Runtime/Npu/ll_aton/ll_aton.c **** #endif
 346              		.loc 1 210 3 discriminator 2 view .LVU93
 347 006e 41F21A03 		movw	r3, #4122
 348 0072 A2B2     		uxth	r2, r4
 349 0074 9A42     		cmp	r2, r3
 350 0076 40F0E680 		bne	.L84
 214:../../Middlewares/AI_Runtime/Npu/ll_aton/ll_aton.c **** #endif
 351              		.loc 1 214 3 is_stmt 0 discriminator 1 view .LVU94
 352 007a 8A4B     		ldr	r3, .L95+20
 353              	.L15:
 210:../../Middlewares/AI_Runtime/Npu/ll_aton/ll_aton.c **** #endif
ARM GAS  C:\Users\Antonio\AppData\Local\Temp\ccynTwLp.s 			page 30


 354              		.loc 1 210 36 is_stmt 1 discriminator 4 view .LVU95
 214:../../Middlewares/AI_Runtime/Npu/ll_aton/ll_aton.c **** #endif
 355              		.loc 1 214 3 discriminator 1 view .LVU96
 214:../../Middlewares/AI_Runtime/Npu/ll_aton/ll_aton.c **** #endif
 356              		.loc 1 214 3 discriminator 1 view .LVU97
 357 007c 5C68     		ldr	r4, [r3, #4]
 358              	.LVL17:
 214:../../Middlewares/AI_Runtime/Npu/ll_aton/ll_aton.c **** #endif
 359              		.loc 1 214 3 discriminator 1 view .LVU98
 360 007e 002C     		cmp	r4, #0
 361 0080 FCD0     		beq	.L15
 214:../../Middlewares/AI_Runtime/Npu/ll_aton/ll_aton.c **** #endif
 362              		.loc 1 214 3 discriminator 2 view .LVU99
 363 0082 41F21B13 		movw	r3, #4379
 364 0086 A2B2     		uxth	r2, r4
 365 0088 9A42     		cmp	r2, r3
 366 008a 40F02D81 		bne	.L85
 218:../../Middlewares/AI_Runtime/Npu/ll_aton/ll_aton.c **** #endif
 367              		.loc 1 218 3 is_stmt 0 discriminator 1 view .LVU100
 368 008e 864B     		ldr	r3, .L95+24
 369              	.L17:
 214:../../Middlewares/AI_Runtime/Npu/ll_aton/ll_aton.c **** #endif
 370              		.loc 1 214 36 is_stmt 1 discriminator 4 view .LVU101
 218:../../Middlewares/AI_Runtime/Npu/ll_aton/ll_aton.c **** #endif
 371              		.loc 1 218 3 discriminator 1 view .LVU102
 218:../../Middlewares/AI_Runtime/Npu/ll_aton/ll_aton.c **** #endif
 372              		.loc 1 218 3 discriminator 1 view .LVU103
 373 0090 5C68     		ldr	r4, [r3, #4]
 374              	.LVL18:
 218:../../Middlewares/AI_Runtime/Npu/ll_aton/ll_aton.c **** #endif
 375              		.loc 1 218 3 discriminator 1 view .LVU104
 376 0092 002C     		cmp	r4, #0
 377 0094 FCD0     		beq	.L17
 218:../../Middlewares/AI_Runtime/Npu/ll_aton/ll_aton.c **** #endif
 378              		.loc 1 218 3 discriminator 2 view .LVU105
 379 0096 41F61923 		movw	r3, #6681
 380 009a A2B2     		uxth	r2, r4
 381 009c 9A42     		cmp	r2, r3
 382 009e 40F04781 		bne	.L86
 222:../../Middlewares/AI_Runtime/Npu/ll_aton/ll_aton.c **** #endif
 383              		.loc 1 222 3 is_stmt 0 discriminator 1 view .LVU106
 384 00a2 824B     		ldr	r3, .L95+28
 385              	.L19:
 218:../../Middlewares/AI_Runtime/Npu/ll_aton/ll_aton.c **** #endif
 386              		.loc 1 218 36 is_stmt 1 discriminator 4 view .LVU107
 222:../../Middlewares/AI_Runtime/Npu/ll_aton/ll_aton.c **** #endif
 387              		.loc 1 222 3 discriminator 1 view .LVU108
 222:../../Middlewares/AI_Runtime/Npu/ll_aton/ll_aton.c **** #endif
 388              		.loc 1 222 3 discriminator 1 view .LVU109
 389 00a4 5C68     		ldr	r4, [r3, #4]
 390              	.LVL19:
 222:../../Middlewares/AI_Runtime/Npu/ll_aton/ll_aton.c **** #endif
 391              		.loc 1 222 3 discriminator 1 view .LVU110
 392 00a6 002C     		cmp	r4, #0
 393 00a8 FCD0     		beq	.L19
 222:../../Middlewares/AI_Runtime/Npu/ll_aton/ll_aton.c **** #endif
 394              		.loc 1 222 3 discriminator 2 view .LVU111
ARM GAS  C:\Users\Antonio\AppData\Local\Temp\ccynTwLp.s 			page 31


 395 00aa 41F22113 		movw	r3, #4385
 396 00ae A2B2     		uxth	r2, r4
 397 00b0 9A42     		cmp	r2, r3
 398 00b2 40F06281 		bne	.L87
 226:../../Middlewares/AI_Runtime/Npu/ll_aton/ll_aton.c **** #endif
 399              		.loc 1 226 3 is_stmt 0 discriminator 1 view .LVU112
 400 00b6 7E4B     		ldr	r3, .L95+32
 401              	.L21:
 222:../../Middlewares/AI_Runtime/Npu/ll_aton/ll_aton.c **** #endif
 402              		.loc 1 222 40 is_stmt 1 discriminator 4 view .LVU113
 226:../../Middlewares/AI_Runtime/Npu/ll_aton/ll_aton.c **** #endif
 403              		.loc 1 226 3 discriminator 1 view .LVU114
 226:../../Middlewares/AI_Runtime/Npu/ll_aton/ll_aton.c **** #endif
 404              		.loc 1 226 3 discriminator 1 view .LVU115
 405 00b8 5C68     		ldr	r4, [r3, #4]
 406              	.LVL20:
 226:../../Middlewares/AI_Runtime/Npu/ll_aton/ll_aton.c **** #endif
 407              		.loc 1 226 3 discriminator 1 view .LVU116
 408 00ba 002C     		cmp	r4, #0
 409 00bc FCD0     		beq	.L21
 226:../../Middlewares/AI_Runtime/Npu/ll_aton/ll_aton.c **** #endif
 410              		.loc 1 226 3 discriminator 2 view .LVU117
 411 00be 43F22023 		movw	r3, #12832
 412 00c2 A2B2     		uxth	r2, r4
 413 00c4 9A42     		cmp	r2, r3
 414 00c6 40F07C81 		bne	.L88
 245:../../Middlewares/AI_Runtime/Npu/ll_aton/ll_aton.c **** 
 415              		.loc 1 245 3 is_stmt 0 discriminator 1 view .LVU118
 416 00ca 724B     		ldr	r3, .L95+4
 417              	.L23:
 226:../../Middlewares/AI_Runtime/Npu/ll_aton/ll_aton.c **** #endif
 418              		.loc 1 226 37 is_stmt 1 discriminator 4 view .LVU119
 245:../../Middlewares/AI_Runtime/Npu/ll_aton/ll_aton.c **** 
 419              		.loc 1 245 3 discriminator 1 view .LVU120
 245:../../Middlewares/AI_Runtime/Npu/ll_aton/ll_aton.c **** 
 420              		.loc 1 245 3 discriminator 1 view .LVU121
 421 00cc 5C68     		ldr	r4, [r3, #4]
 422              	.LVL21:
 245:../../Middlewares/AI_Runtime/Npu/ll_aton/ll_aton.c **** 
 423              		.loc 1 245 3 discriminator 1 view .LVU122
 424 00ce 002C     		cmp	r4, #0
 425 00d0 FCD0     		beq	.L23
 245:../../Middlewares/AI_Runtime/Npu/ll_aton/ll_aton.c **** 
 426              		.loc 1 245 3 discriminator 2 view .LVU123
 427 00d2 41F21F23 		movw	r3, #4639
 428 00d6 A2B2     		uxth	r2, r4
 429 00d8 9A42     		cmp	r2, r3
 430 00da 40F09881 		bne	.L89
 247:../../Middlewares/AI_Runtime/Npu/ll_aton/ll_aton.c **** 
 431              		.loc 1 247 3 is_stmt 0 discriminator 1 view .LVU124
 432 00de 754B     		ldr	r3, .L95+36
 433              	.L25:
 245:../../Middlewares/AI_Runtime/Npu/ll_aton/ll_aton.c **** 
 434              		.loc 1 245 38 is_stmt 1 discriminator 4 view .LVU125
 247:../../Middlewares/AI_Runtime/Npu/ll_aton/ll_aton.c **** 
 435              		.loc 1 247 3 discriminator 1 view .LVU126
 247:../../Middlewares/AI_Runtime/Npu/ll_aton/ll_aton.c **** 
ARM GAS  C:\Users\Antonio\AppData\Local\Temp\ccynTwLp.s 			page 32


 436              		.loc 1 247 3 discriminator 1 view .LVU127
 437 00e0 5C68     		ldr	r4, [r3, #4]
 438              	.LVL22:
 247:../../Middlewares/AI_Runtime/Npu/ll_aton/ll_aton.c **** 
 439              		.loc 1 247 3 discriminator 1 view .LVU128
 440 00e2 002C     		cmp	r4, #0
 441 00e4 FCD0     		beq	.L25
 247:../../Middlewares/AI_Runtime/Npu/ll_aton/ll_aton.c **** 
 442              		.loc 1 247 3 discriminator 2 view .LVU129
 443 00e6 41F21E13 		movw	r3, #4382
 444 00ea A2B2     		uxth	r2, r4
 445 00ec 9A42     		cmp	r2, r3
 446 00ee 40F0B481 		bne	.L90
 249:../../Middlewares/AI_Runtime/Npu/ll_aton/ll_aton.c **** 
 447              		.loc 1 249 3 is_stmt 0 discriminator 1 view .LVU130
 448 00f2 714B     		ldr	r3, .L95+40
 449              	.L27:
 247:../../Middlewares/AI_Runtime/Npu/ll_aton/ll_aton.c **** 
 450              		.loc 1 247 38 is_stmt 1 discriminator 4 view .LVU131
 249:../../Middlewares/AI_Runtime/Npu/ll_aton/ll_aton.c **** 
 451              		.loc 1 249 3 discriminator 1 view .LVU132
 249:../../Middlewares/AI_Runtime/Npu/ll_aton/ll_aton.c **** 
 452              		.loc 1 249 3 discriminator 1 view .LVU133
 453 00f4 5C68     		ldr	r4, [r3, #4]
 454              	.LVL23:
 249:../../Middlewares/AI_Runtime/Npu/ll_aton/ll_aton.c **** 
 455              		.loc 1 249 3 discriminator 1 view .LVU134
 456 00f6 002C     		cmp	r4, #0
 457 00f8 FCD0     		beq	.L27
 249:../../Middlewares/AI_Runtime/Npu/ll_aton/ll_aton.c **** 
 458              		.loc 1 249 3 discriminator 2 view .LVU135
 459 00fa A3B2     		uxth	r3, r4
 460 00fc B3F5B05F 		cmp	r3, #5632
 461 0100 40F0CF81 		bne	.L91
 251:../../Middlewares/AI_Runtime/Npu/ll_aton/ll_aton.c **** 
 462              		.loc 1 251 3 is_stmt 0 discriminator 1 view .LVU136
 463 0104 6D4A     		ldr	r2, .L95+44
 464              	.L29:
 249:../../Middlewares/AI_Runtime/Npu/ll_aton/ll_aton.c **** 
 465              		.loc 1 249 40 is_stmt 1 discriminator 4 view .LVU137
 251:../../Middlewares/AI_Runtime/Npu/ll_aton/ll_aton.c **** 
 466              		.loc 1 251 3 discriminator 1 view .LVU138
 251:../../Middlewares/AI_Runtime/Npu/ll_aton/ll_aton.c **** 
 467              		.loc 1 251 3 discriminator 1 view .LVU139
 468 0106 5468     		ldr	r4, [r2, #4]
 469              	.LVL24:
 251:../../Middlewares/AI_Runtime/Npu/ll_aton/ll_aton.c **** 
 470              		.loc 1 251 3 discriminator 1 view .LVU140
 471 0108 002C     		cmp	r4, #0
 472 010a FCD0     		beq	.L29
 251:../../Middlewares/AI_Runtime/Npu/ll_aton/ll_aton.c **** 
 473              		.loc 1 251 3 discriminator 2 view .LVU141
 474 010c 45F21D03 		movw	r3, #20509
 475 0110 A1B2     		uxth	r1, r4
 476 0112 9942     		cmp	r1, r3
 477 0114 00F0EC81 		beq	.L93
 251:../../Middlewares/AI_Runtime/Npu/ll_aton/ll_aton.c **** 
ARM GAS  C:\Users\Antonio\AppData\Local\Temp\ccynTwLp.s 			page 33


 478              		.loc 1 251 3 discriminator 3 view .LVU142
 479 0118 FFF7FEFF 		bl	__errno
 480              	.LVL25:
 251:../../Middlewares/AI_Runtime/Npu/ll_aton/ll_aton.c **** 
 481              		.loc 1 251 3 is_stmt 0 discriminator 1 view .LVU143
 482 011c 0368     		ldr	r3, [r0]
 483 011e 002B     		cmp	r3, #0
 484 0120 00F0E481 		beq	.L44
 251:../../Middlewares/AI_Runtime/Npu/ll_aton/ll_aton.c **** 
 485              		.loc 1 251 3 discriminator 5 view .LVU144
 486 0124 FFF7FEFF 		bl	__errno
 487              	.LVL26:
 251:../../Middlewares/AI_Runtime/Npu/ll_aton/ll_aton.c **** 
 488              		.loc 1 251 3 discriminator 1 view .LVU145
 489 0128 0068     		ldr	r0, [r0]
 490 012a FFF7FEFF 		bl	strerror
 491              	.LVL27:
 492 012e 0346     		mov	r3, r0
 493              	.L32:
 251:../../Middlewares/AI_Runtime/Npu/ll_aton/ll_aton.c **** 
 494              		.loc 1 251 3 discriminator 8 view .LVU146
 495 0130 0522     		movs	r2, #5
 496 0132 0021     		movs	r1, #0
 497 0134 CDE90521 		strd	r2, r1, [sp, #20]
 498 0138 1D22     		movs	r2, #29
 499 013a 0492     		str	r2, [sp, #16]
 500 013c C4F30322 		ubfx	r2, r4, #8, #4
 501 0140 0392     		str	r2, [sp, #12]
 502 0142 C4F30332 		ubfx	r2, r4, #12, #4
 503 0146 0292     		str	r2, [sp, #8]
 504 0148 5D4A     		ldr	r2, .L95+48
 505 014a E4B2     		uxtb	r4, r4
 506              	.LVL28:
 251:../../Middlewares/AI_Runtime/Npu/ll_aton/ll_aton.c **** 
 507              		.loc 1 251 3 discriminator 8 view .LVU147
 508 014c 5D49     		ldr	r1, .L95+52
 509 014e 0092     		str	r2, [sp]
 510 0150 5D48     		ldr	r0, .L95+56
 511 0152 FB22     		movs	r2, #251
 512 0154 0194     		str	r4, [sp, #4]
 513 0156 FFF7FEFF 		bl	printf
 514              	.LVL29:
 251:../../Middlewares/AI_Runtime/Npu/ll_aton/ll_aton.c **** 
 515              		.loc 1 251 3 is_stmt 1 discriminator 1 view .LVU148
 251:../../Middlewares/AI_Runtime/Npu/ll_aton/ll_aton.c **** 
 516              		.loc 1 251 3 discriminator 10 view .LVU149
 517 015a FB21     		movs	r1, #251
 518 015c 5B4B     		ldr	r3, .L95+60
 519 015e 5C4A     		ldr	r2, .L95+64
 520 0160 22E0     		b	.L94
 521              	.LVL30:
 522              	.L81:
 199:../../Middlewares/AI_Runtime/Npu/ll_aton/ll_aton.c **** 
 523              		.loc 1 199 3 discriminator 3 view .LVU150
 524 0162 FFF7FEFF 		bl	__errno
 525              	.LVL31:
 199:../../Middlewares/AI_Runtime/Npu/ll_aton/ll_aton.c **** 
ARM GAS  C:\Users\Antonio\AppData\Local\Temp\ccynTwLp.s 			page 34


 526              		.loc 1 199 3 is_stmt 0 discriminator 1 view .LVU151
 527 0166 0368     		ldr	r3, [r0]
 528 0168 0BB3     		cbz	r3, .L33
 199:../../Middlewares/AI_Runtime/Npu/ll_aton/ll_aton.c **** 
 529              		.loc 1 199 3 discriminator 5 view .LVU152
 530 016a FFF7FEFF 		bl	__errno
 531              	.LVL32:
 199:../../Middlewares/AI_Runtime/Npu/ll_aton/ll_aton.c **** 
 532              		.loc 1 199 3 discriminator 1 view .LVU153
 533 016e 0068     		ldr	r0, [r0]
 534 0170 FFF7FEFF 		bl	strerror
 535              	.LVL33:
 536 0174 0346     		mov	r3, r0
 537              	.L10:
 199:../../Middlewares/AI_Runtime/Npu/ll_aton/ll_aton.c **** 
 538              		.loc 1 199 3 discriminator 8 view .LVU154
 539 0176 0522     		movs	r2, #5
 540 0178 4FF0000E 		mov	lr, #0
 541 017c CDE9052E 		strd	r2, lr, [sp, #20]
 542 0180 0122     		movs	r2, #1
 543 0182 0492     		str	r2, [sp, #16]
 544 0184 C4F30322 		ubfx	r2, r4, #8, #4
 545 0188 0392     		str	r2, [sp, #12]
 546 018a C4F30332 		ubfx	r2, r4, #12, #4
 547 018e 0292     		str	r2, [sp, #8]
 548 0190 504A     		ldr	r2, .L95+68
 549 0192 E4B2     		uxtb	r4, r4
 550              	.LVL34:
 199:../../Middlewares/AI_Runtime/Npu/ll_aton/ll_aton.c **** 
 551              		.loc 1 199 3 discriminator 8 view .LVU155
 552 0194 4B49     		ldr	r1, .L95+52
 553 0196 0092     		str	r2, [sp]
 554 0198 4B48     		ldr	r0, .L95+56
 555 019a C722     		movs	r2, #199
 556 019c 0194     		str	r4, [sp, #4]
 557 019e FFF7FEFF 		bl	printf
 558              	.LVL35:
 199:../../Middlewares/AI_Runtime/Npu/ll_aton/ll_aton.c **** 
 559              		.loc 1 199 3 is_stmt 1 discriminator 1 view .LVU156
 199:../../Middlewares/AI_Runtime/Npu/ll_aton/ll_aton.c **** 
 560              		.loc 1 199 3 discriminator 10 view .LVU157
 561 01a2 C721     		movs	r1, #199
 562 01a4 494B     		ldr	r3, .L95+60
 563 01a6 4A4A     		ldr	r2, .L95+64
 564              	.LVL36:
 565              	.L94:
 202:../../Middlewares/AI_Runtime/Npu/ll_aton/ll_aton.c **** #endif
 566              		.loc 1 202 3 is_stmt 0 discriminator 10 view .LVU158
 567 01a8 4648     		ldr	r0, .L95+52
 568 01aa FFF7FEFF 		bl	__assert_func
 569              	.LVL37:
 570              	.L33:
 199:../../Middlewares/AI_Runtime/Npu/ll_aton/ll_aton.c **** 
 571              		.loc 1 199 3 discriminator 6 view .LVU159
 572 01ae 4A4B     		ldr	r3, .L95+72
 573 01b0 E1E7     		b	.L10
 574              	.L82:
ARM GAS  C:\Users\Antonio\AppData\Local\Temp\ccynTwLp.s 			page 35


 202:../../Middlewares/AI_Runtime/Npu/ll_aton/ll_aton.c **** #endif
 575              		.loc 1 202 3 is_stmt 1 discriminator 3 view .LVU160
 576 01b2 FFF7FEFF 		bl	__errno
 577              	.LVL38:
 202:../../Middlewares/AI_Runtime/Npu/ll_aton/ll_aton.c **** #endif
 578              		.loc 1 202 3 is_stmt 0 discriminator 1 view .LVU161
 579 01b6 0368     		ldr	r3, [r0]
 580 01b8 FBB1     		cbz	r3, .L34
 202:../../Middlewares/AI_Runtime/Npu/ll_aton/ll_aton.c **** #endif
 581              		.loc 1 202 3 discriminator 5 view .LVU162
 582 01ba FFF7FEFF 		bl	__errno
 583              	.LVL39:
 202:../../Middlewares/AI_Runtime/Npu/ll_aton/ll_aton.c **** #endif
 584              		.loc 1 202 3 discriminator 1 view .LVU163
 585 01be 0068     		ldr	r0, [r0]
 586 01c0 FFF7FEFF 		bl	strerror
 587              	.LVL40:
 588 01c4 0346     		mov	r3, r0
 589              	.L12:
 202:../../Middlewares/AI_Runtime/Npu/ll_aton/ll_aton.c **** #endif
 590              		.loc 1 202 3 discriminator 8 view .LVU164
 591 01c6 0522     		movs	r2, #5
 592 01c8 4FF0010C 		mov	ip, #1
 593 01cc CDE9052C 		strd	r2, ip, [sp, #20]
 594 01d0 1722     		movs	r2, #23
 595 01d2 0492     		str	r2, [sp, #16]
 596 01d4 C4F30322 		ubfx	r2, r4, #8, #4
 597 01d8 0392     		str	r2, [sp, #12]
 598 01da C4F30332 		ubfx	r2, r4, #12, #4
 599 01de 0292     		str	r2, [sp, #8]
 600 01e0 3E4A     		ldr	r2, .L95+76
 601 01e2 E4B2     		uxtb	r4, r4
 602              	.LVL41:
 202:../../Middlewares/AI_Runtime/Npu/ll_aton/ll_aton.c **** #endif
 603              		.loc 1 202 3 discriminator 8 view .LVU165
 604 01e4 3749     		ldr	r1, .L95+52
 605 01e6 0092     		str	r2, [sp]
 606 01e8 3748     		ldr	r0, .L95+56
 607 01ea CA22     		movs	r2, #202
 608 01ec 0194     		str	r4, [sp, #4]
 609 01ee FFF7FEFF 		bl	printf
 610              	.LVL42:
 202:../../Middlewares/AI_Runtime/Npu/ll_aton/ll_aton.c **** #endif
 611              		.loc 1 202 3 is_stmt 1 discriminator 1 view .LVU166
 202:../../Middlewares/AI_Runtime/Npu/ll_aton/ll_aton.c **** #endif
 612              		.loc 1 202 3 discriminator 10 view .LVU167
 613 01f2 CA21     		movs	r1, #202
 614 01f4 354B     		ldr	r3, .L95+60
 615 01f6 364A     		ldr	r2, .L95+64
 616 01f8 D6E7     		b	.L94
 617              	.LVL43:
 618              	.L34:
 202:../../Middlewares/AI_Runtime/Npu/ll_aton/ll_aton.c **** #endif
 619              		.loc 1 202 3 is_stmt 0 discriminator 6 view .LVU168
 620 01fa 374B     		ldr	r3, .L95+72
 621 01fc E3E7     		b	.L12
 622              	.L83:
ARM GAS  C:\Users\Antonio\AppData\Local\Temp\ccynTwLp.s 			page 36


 206:../../Middlewares/AI_Runtime/Npu/ll_aton/ll_aton.c **** #endif
 623              		.loc 1 206 3 is_stmt 1 discriminator 3 view .LVU169
 624 01fe FFF7FEFF 		bl	__errno
 625              	.LVL44:
 206:../../Middlewares/AI_Runtime/Npu/ll_aton/ll_aton.c **** #endif
 626              		.loc 1 206 3 is_stmt 0 discriminator 1 view .LVU170
 627 0202 0368     		ldr	r3, [r0]
 628 0204 EBB1     		cbz	r3, .L35
 206:../../Middlewares/AI_Runtime/Npu/ll_aton/ll_aton.c **** #endif
 629              		.loc 1 206 3 discriminator 5 view .LVU171
 630 0206 FFF7FEFF 		bl	__errno
 631              	.LVL45:
 206:../../Middlewares/AI_Runtime/Npu/ll_aton/ll_aton.c **** #endif
 632              		.loc 1 206 3 discriminator 1 view .LVU172
 633 020a 0068     		ldr	r0, [r0]
 634 020c FFF7FEFF 		bl	strerror
 635              	.LVL46:
 636 0210 0346     		mov	r3, r0
 637              	.L14:
 206:../../Middlewares/AI_Runtime/Npu/ll_aton/ll_aton.c **** #endif
 638              		.loc 1 206 3 discriminator 8 view .LVU173
 639 0212 0122     		movs	r2, #1
 640 0214 CDE90522 		strd	r2, r2, [sp, #20]
 641 0218 1C22     		movs	r2, #28
 642 021a 0492     		str	r2, [sp, #16]
 643 021c C4F30322 		ubfx	r2, r4, #8, #4
 644 0220 0392     		str	r2, [sp, #12]
 645 0222 C4F30332 		ubfx	r2, r4, #12, #4
 646 0226 0292     		str	r2, [sp, #8]
 647 0228 2D4A     		ldr	r2, .L95+80
 648 022a E4B2     		uxtb	r4, r4
 649              	.LVL47:
 206:../../Middlewares/AI_Runtime/Npu/ll_aton/ll_aton.c **** #endif
 650              		.loc 1 206 3 discriminator 8 view .LVU174
 651 022c 2549     		ldr	r1, .L95+52
 652 022e 0092     		str	r2, [sp]
 653 0230 2548     		ldr	r0, .L95+56
 654 0232 CE22     		movs	r2, #206
 655 0234 0194     		str	r4, [sp, #4]
 656 0236 FFF7FEFF 		bl	printf
 657              	.LVL48:
 206:../../Middlewares/AI_Runtime/Npu/ll_aton/ll_aton.c **** #endif
 658              		.loc 1 206 3 is_stmt 1 discriminator 1 view .LVU175
 206:../../Middlewares/AI_Runtime/Npu/ll_aton/ll_aton.c **** #endif
 659              		.loc 1 206 3 discriminator 10 view .LVU176
 660 023a CE21     		movs	r1, #206
 661 023c 234B     		ldr	r3, .L95+60
 662 023e 244A     		ldr	r2, .L95+64
 663 0240 B2E7     		b	.L94
 664              	.LVL49:
 665              	.L35:
 206:../../Middlewares/AI_Runtime/Npu/ll_aton/ll_aton.c **** #endif
 666              		.loc 1 206 3 is_stmt 0 discriminator 6 view .LVU177
 667 0242 254B     		ldr	r3, .L95+72
 668 0244 E5E7     		b	.L14
 669              	.L84:
 210:../../Middlewares/AI_Runtime/Npu/ll_aton/ll_aton.c **** #endif
ARM GAS  C:\Users\Antonio\AppData\Local\Temp\ccynTwLp.s 			page 37


 670              		.loc 1 210 3 is_stmt 1 discriminator 3 view .LVU178
 671 0246 FFF7FEFF 		bl	__errno
 672              	.LVL50:
 210:../../Middlewares/AI_Runtime/Npu/ll_aton/ll_aton.c **** #endif
 673              		.loc 1 210 3 is_stmt 0 discriminator 1 view .LVU179
 674 024a 0368     		ldr	r3, [r0]
 675 024c F3B1     		cbz	r3, .L36
 210:../../Middlewares/AI_Runtime/Npu/ll_aton/ll_aton.c **** #endif
 676              		.loc 1 210 3 discriminator 5 view .LVU180
 677 024e FFF7FEFF 		bl	__errno
 678              	.LVL51:
 210:../../Middlewares/AI_Runtime/Npu/ll_aton/ll_aton.c **** #endif
 679              		.loc 1 210 3 discriminator 1 view .LVU181
 680 0252 0068     		ldr	r0, [r0]
 681 0254 FFF7FEFF 		bl	strerror
 682              	.LVL52:
 683 0258 0346     		mov	r3, r0
 684              	.L16:
 210:../../Middlewares/AI_Runtime/Npu/ll_aton/ll_aton.c **** #endif
 685              		.loc 1 210 3 discriminator 8 view .LVU182
 686 025a 0122     		movs	r2, #1
 687 025c 0020     		movs	r0, #0
 688 025e CDE90520 		strd	r2, r0, [sp, #20]
 689 0262 1A22     		movs	r2, #26
 690 0264 0492     		str	r2, [sp, #16]
 691 0266 C4F30322 		ubfx	r2, r4, #8, #4
 692 026a 0392     		str	r2, [sp, #12]
 693 026c C4F30332 		ubfx	r2, r4, #12, #4
 694 0270 0292     		str	r2, [sp, #8]
 695 0272 1C4A     		ldr	r2, .L95+84
 696 0274 E4B2     		uxtb	r4, r4
 697              	.LVL53:
 210:../../Middlewares/AI_Runtime/Npu/ll_aton/ll_aton.c **** #endif
 698              		.loc 1 210 3 discriminator 8 view .LVU183
 699 0276 1349     		ldr	r1, .L95+52
 700 0278 0092     		str	r2, [sp]
 701 027a 1348     		ldr	r0, .L95+56
 702 027c D222     		movs	r2, #210
 703 027e 0194     		str	r4, [sp, #4]
 704 0280 FFF7FEFF 		bl	printf
 705              	.LVL54:
 210:../../Middlewares/AI_Runtime/Npu/ll_aton/ll_aton.c **** #endif
 706              		.loc 1 210 3 is_stmt 1 discriminator 1 view .LVU184
 210:../../Middlewares/AI_Runtime/Npu/ll_aton/ll_aton.c **** #endif
 707              		.loc 1 210 3 discriminator 10 view .LVU185
 708 0284 D221     		movs	r1, #210
 709 0286 114B     		ldr	r3, .L95+60
 710 0288 114A     		ldr	r2, .L95+64
 711 028a 8DE7     		b	.L94
 712              	.LVL55:
 713              	.L36:
 210:../../Middlewares/AI_Runtime/Npu/ll_aton/ll_aton.c **** #endif
 714              		.loc 1 210 3 is_stmt 0 discriminator 6 view .LVU186
 715 028c 124B     		ldr	r3, .L95+72
 716 028e E4E7     		b	.L16
 717              	.L96:
 718              		.align	2
ARM GAS  C:\Users\Antonio\AppData\Local\Temp\ccynTwLp.s 			page 38


 719              	.L95:
 720 0290 00000000 		.word	done.9
 721 0294 00000E58 		.word	1477312512
 722 0298 00F00E58 		.word	1477373952
 723 029c 00B00F58 		.word	1477423104
 724 02a0 00700F58 		.word	1477406720
 725 02a4 00500F58 		.word	1477398528
 726 02a8 00300F58 		.word	1477390336
 727 02ac 00E00F58 		.word	1477435392
 728 02b0 00D00F58 		.word	1477431296
 729 02b4 00100E58 		.word	1477316608
 730 02b8 00400E58 		.word	1477328896
 731 02bc 00200E58 		.word	1477320704
 732 02c0 EF000000 		.word	.LC18
 733 02c4 05000000 		.word	.LC4
 734 02c8 38000000 		.word	.LC5
 735 02cc A3000000 		.word	.LC7
 736 02d0 00000000 		.word	__func__.10
 737 02d4 9C000000 		.word	.LC6
 738 02d8 00000000 		.word	.LC3
 739 02dc A5000000 		.word	.LC8
 740 02e0 AD000000 		.word	.LC9
 741 02e4 B2000000 		.word	.LC10
 742              	.L85:
 214:../../Middlewares/AI_Runtime/Npu/ll_aton/ll_aton.c **** #endif
 743              		.loc 1 214 3 is_stmt 1 discriminator 3 view .LVU187
 744 02e8 FFF7FEFF 		bl	__errno
 745              	.LVL56:
 214:../../Middlewares/AI_Runtime/Npu/ll_aton/ll_aton.c **** #endif
 746              		.loc 1 214 3 is_stmt 0 discriminator 1 view .LVU188
 747 02ec 0368     		ldr	r3, [r0]
 748 02ee EBB1     		cbz	r3, .L37
 214:../../Middlewares/AI_Runtime/Npu/ll_aton/ll_aton.c **** #endif
 749              		.loc 1 214 3 discriminator 5 view .LVU189
 750 02f0 FFF7FEFF 		bl	__errno
 751              	.LVL57:
 214:../../Middlewares/AI_Runtime/Npu/ll_aton/ll_aton.c **** #endif
 752              		.loc 1 214 3 discriminator 1 view .LVU190
 753 02f4 0068     		ldr	r0, [r0]
 754 02f6 FFF7FEFF 		bl	strerror
 755              	.LVL58:
 756 02fa 0346     		mov	r3, r0
 757              	.L18:
 214:../../Middlewares/AI_Runtime/Npu/ll_aton/ll_aton.c **** #endif
 758              		.loc 1 214 3 discriminator 8 view .LVU191
 759 02fc 0122     		movs	r2, #1
 760 02fe CDE90522 		strd	r2, r2, [sp, #20]
 761 0302 1B22     		movs	r2, #27
 762 0304 0492     		str	r2, [sp, #16]
 763 0306 C4F30322 		ubfx	r2, r4, #8, #4
 764 030a 0392     		str	r2, [sp, #12]
 765 030c C4F30332 		ubfx	r2, r4, #12, #4
 766 0310 0292     		str	r2, [sp, #8]
 767 0312 7C4A     		ldr	r2, .L97
 768 0314 E4B2     		uxtb	r4, r4
 769              	.LVL59:
 214:../../Middlewares/AI_Runtime/Npu/ll_aton/ll_aton.c **** #endif
ARM GAS  C:\Users\Antonio\AppData\Local\Temp\ccynTwLp.s 			page 39


 770              		.loc 1 214 3 discriminator 8 view .LVU192
 771 0316 7C49     		ldr	r1, .L97+4
 772 0318 0092     		str	r2, [sp]
 773 031a 7C48     		ldr	r0, .L97+8
 774 031c D622     		movs	r2, #214
 775 031e 0194     		str	r4, [sp, #4]
 776 0320 FFF7FEFF 		bl	printf
 777              	.LVL60:
 214:../../Middlewares/AI_Runtime/Npu/ll_aton/ll_aton.c **** #endif
 778              		.loc 1 214 3 is_stmt 1 discriminator 1 view .LVU193
 214:../../Middlewares/AI_Runtime/Npu/ll_aton/ll_aton.c **** #endif
 779              		.loc 1 214 3 discriminator 10 view .LVU194
 780 0324 D621     		movs	r1, #214
 781 0326 7A4B     		ldr	r3, .L97+12
 782 0328 7A4A     		ldr	r2, .L97+16
 783 032a 3DE7     		b	.L94
 784              	.LVL61:
 785              	.L37:
 214:../../Middlewares/AI_Runtime/Npu/ll_aton/ll_aton.c **** #endif
 786              		.loc 1 214 3 is_stmt 0 discriminator 6 view .LVU195
 787 032c 7A4B     		ldr	r3, .L97+20
 788 032e E5E7     		b	.L18
 789              	.L86:
 218:../../Middlewares/AI_Runtime/Npu/ll_aton/ll_aton.c **** #endif
 790              		.loc 1 218 3 is_stmt 1 discriminator 3 view .LVU196
 791 0330 FFF7FEFF 		bl	__errno
 792              	.LVL62:
 218:../../Middlewares/AI_Runtime/Npu/ll_aton/ll_aton.c **** #endif
 793              		.loc 1 218 3 is_stmt 0 discriminator 1 view .LVU197
 794 0334 0368     		ldr	r3, [r0]
 795 0336 F3B1     		cbz	r3, .L38
 218:../../Middlewares/AI_Runtime/Npu/ll_aton/ll_aton.c **** #endif
 796              		.loc 1 218 3 discriminator 5 view .LVU198
 797 0338 FFF7FEFF 		bl	__errno
 798              	.LVL63:
 218:../../Middlewares/AI_Runtime/Npu/ll_aton/ll_aton.c **** #endif
 799              		.loc 1 218 3 discriminator 1 view .LVU199
 800 033c 0068     		ldr	r0, [r0]
 801 033e FFF7FEFF 		bl	strerror
 802              	.LVL64:
 803 0342 0346     		mov	r3, r0
 804              	.L20:
 218:../../Middlewares/AI_Runtime/Npu/ll_aton/ll_aton.c **** #endif
 805              		.loc 1 218 3 discriminator 8 view .LVU200
 806 0344 0122     		movs	r2, #1
 807 0346 0A21     		movs	r1, #10
 808 0348 CDE90521 		strd	r2, r1, [sp, #20]
 809 034c 1922     		movs	r2, #25
 810 034e 0492     		str	r2, [sp, #16]
 811 0350 C4F30322 		ubfx	r2, r4, #8, #4
 812 0354 0392     		str	r2, [sp, #12]
 813 0356 C4F30332 		ubfx	r2, r4, #12, #4
 814 035a 0292     		str	r2, [sp, #8]
 815 035c 6F4A     		ldr	r2, .L97+24
 816 035e E4B2     		uxtb	r4, r4
 817              	.LVL65:
 218:../../Middlewares/AI_Runtime/Npu/ll_aton/ll_aton.c **** #endif
ARM GAS  C:\Users\Antonio\AppData\Local\Temp\ccynTwLp.s 			page 40


 818              		.loc 1 218 3 discriminator 8 view .LVU201
 819 0360 6949     		ldr	r1, .L97+4
 820 0362 0092     		str	r2, [sp]
 821 0364 6948     		ldr	r0, .L97+8
 822 0366 DA22     		movs	r2, #218
 823 0368 0194     		str	r4, [sp, #4]
 824 036a FFF7FEFF 		bl	printf
 825              	.LVL66:
 218:../../Middlewares/AI_Runtime/Npu/ll_aton/ll_aton.c **** #endif
 826              		.loc 1 218 3 is_stmt 1 discriminator 1 view .LVU202
 218:../../Middlewares/AI_Runtime/Npu/ll_aton/ll_aton.c **** #endif
 827              		.loc 1 218 3 discriminator 10 view .LVU203
 828 036e DA21     		movs	r1, #218
 829 0370 674B     		ldr	r3, .L97+12
 830 0372 684A     		ldr	r2, .L97+16
 831 0374 18E7     		b	.L94
 832              	.LVL67:
 833              	.L38:
 218:../../Middlewares/AI_Runtime/Npu/ll_aton/ll_aton.c **** #endif
 834              		.loc 1 218 3 is_stmt 0 discriminator 6 view .LVU204
 835 0376 684B     		ldr	r3, .L97+20
 836 0378 E4E7     		b	.L20
 837              	.L87:
 222:../../Middlewares/AI_Runtime/Npu/ll_aton/ll_aton.c **** #endif
 838              		.loc 1 222 3 is_stmt 1 discriminator 3 view .LVU205
 839 037a FFF7FEFF 		bl	__errno
 840              	.LVL68:
 222:../../Middlewares/AI_Runtime/Npu/ll_aton/ll_aton.c **** #endif
 841              		.loc 1 222 3 is_stmt 0 discriminator 1 view .LVU206
 842 037e 0368     		ldr	r3, [r0]
 843 0380 EBB1     		cbz	r3, .L39
 222:../../Middlewares/AI_Runtime/Npu/ll_aton/ll_aton.c **** #endif
 844              		.loc 1 222 3 discriminator 5 view .LVU207
 845 0382 FFF7FEFF 		bl	__errno
 846              	.LVL69:
 222:../../Middlewares/AI_Runtime/Npu/ll_aton/ll_aton.c **** #endif
 847              		.loc 1 222 3 discriminator 1 view .LVU208
 848 0386 0068     		ldr	r0, [r0]
 849 0388 FFF7FEFF 		bl	strerror
 850              	.LVL70:
 851 038c 0346     		mov	r3, r0
 852              	.L22:
 222:../../Middlewares/AI_Runtime/Npu/ll_aton/ll_aton.c **** #endif
 853              		.loc 1 222 3 discriminator 8 view .LVU209
 854 038e 0122     		movs	r2, #1
 855 0390 CDE90522 		strd	r2, r2, [sp, #20]
 856 0394 2122     		movs	r2, #33
 857 0396 0492     		str	r2, [sp, #16]
 858 0398 C4F30322 		ubfx	r2, r4, #8, #4
 859 039c 0392     		str	r2, [sp, #12]
 860 039e C4F30332 		ubfx	r2, r4, #12, #4
 861 03a2 0292     		str	r2, [sp, #8]
 862 03a4 5E4A     		ldr	r2, .L97+28
 863 03a6 E4B2     		uxtb	r4, r4
 864              	.LVL71:
 222:../../Middlewares/AI_Runtime/Npu/ll_aton/ll_aton.c **** #endif
 865              		.loc 1 222 3 discriminator 8 view .LVU210
ARM GAS  C:\Users\Antonio\AppData\Local\Temp\ccynTwLp.s 			page 41


 866 03a8 5749     		ldr	r1, .L97+4
 867 03aa 0092     		str	r2, [sp]
 868 03ac 5748     		ldr	r0, .L97+8
 869 03ae DE22     		movs	r2, #222
 870 03b0 0194     		str	r4, [sp, #4]
 871 03b2 FFF7FEFF 		bl	printf
 872              	.LVL72:
 222:../../Middlewares/AI_Runtime/Npu/ll_aton/ll_aton.c **** #endif
 873              		.loc 1 222 3 is_stmt 1 discriminator 1 view .LVU211
 222:../../Middlewares/AI_Runtime/Npu/ll_aton/ll_aton.c **** #endif
 874              		.loc 1 222 3 discriminator 10 view .LVU212
 875 03b6 DE21     		movs	r1, #222
 876 03b8 554B     		ldr	r3, .L97+12
 877 03ba 564A     		ldr	r2, .L97+16
 878 03bc F4E6     		b	.L94
 879              	.LVL73:
 880              	.L39:
 222:../../Middlewares/AI_Runtime/Npu/ll_aton/ll_aton.c **** #endif
 881              		.loc 1 222 3 is_stmt 0 discriminator 6 view .LVU213
 882 03be 564B     		ldr	r3, .L97+20
 883 03c0 E5E7     		b	.L22
 884              	.L88:
 226:../../Middlewares/AI_Runtime/Npu/ll_aton/ll_aton.c **** #endif
 885              		.loc 1 226 3 is_stmt 1 discriminator 3 view .LVU214
 886 03c2 FFF7FEFF 		bl	__errno
 887              	.LVL74:
 226:../../Middlewares/AI_Runtime/Npu/ll_aton/ll_aton.c **** #endif
 888              		.loc 1 226 3 is_stmt 0 discriminator 1 view .LVU215
 889 03c6 0368     		ldr	r3, [r0]
 890 03c8 FBB1     		cbz	r3, .L40
 226:../../Middlewares/AI_Runtime/Npu/ll_aton/ll_aton.c **** #endif
 891              		.loc 1 226 3 discriminator 5 view .LVU216
 892 03ca FFF7FEFF 		bl	__errno
 893              	.LVL75:
 226:../../Middlewares/AI_Runtime/Npu/ll_aton/ll_aton.c **** #endif
 894              		.loc 1 226 3 discriminator 1 view .LVU217
 895 03ce 0068     		ldr	r0, [r0]
 896 03d0 FFF7FEFF 		bl	strerror
 897              	.LVL76:
 898 03d4 0346     		mov	r3, r0
 899              	.L24:
 226:../../Middlewares/AI_Runtime/Npu/ll_aton/ll_aton.c **** #endif
 900              		.loc 1 226 3 discriminator 8 view .LVU218
 901 03d6 0322     		movs	r2, #3
 902 03d8 4FF0020E 		mov	lr, #2
 903 03dc CDE9052E 		strd	r2, lr, [sp, #20]
 904 03e0 2022     		movs	r2, #32
 905 03e2 0492     		str	r2, [sp, #16]
 906 03e4 C4F30322 		ubfx	r2, r4, #8, #4
 907 03e8 0392     		str	r2, [sp, #12]
 908 03ea C4F30332 		ubfx	r2, r4, #12, #4
 909 03ee 0292     		str	r2, [sp, #8]
 910 03f0 4C4A     		ldr	r2, .L97+32
 911 03f2 E4B2     		uxtb	r4, r4
 912              	.LVL77:
 226:../../Middlewares/AI_Runtime/Npu/ll_aton/ll_aton.c **** #endif
 913              		.loc 1 226 3 discriminator 8 view .LVU219
ARM GAS  C:\Users\Antonio\AppData\Local\Temp\ccynTwLp.s 			page 42


 914 03f4 4449     		ldr	r1, .L97+4
 915 03f6 0092     		str	r2, [sp]
 916 03f8 4448     		ldr	r0, .L97+8
 917 03fa E222     		movs	r2, #226
 918 03fc 0194     		str	r4, [sp, #4]
 919 03fe FFF7FEFF 		bl	printf
 920              	.LVL78:
 226:../../Middlewares/AI_Runtime/Npu/ll_aton/ll_aton.c **** #endif
 921              		.loc 1 226 3 is_stmt 1 discriminator 1 view .LVU220
 226:../../Middlewares/AI_Runtime/Npu/ll_aton/ll_aton.c **** #endif
 922              		.loc 1 226 3 discriminator 10 view .LVU221
 923 0402 E221     		movs	r1, #226
 924 0404 424B     		ldr	r3, .L97+12
 925 0406 434A     		ldr	r2, .L97+16
 926 0408 CEE6     		b	.L94
 927              	.LVL79:
 928              	.L40:
 226:../../Middlewares/AI_Runtime/Npu/ll_aton/ll_aton.c **** #endif
 929              		.loc 1 226 3 is_stmt 0 discriminator 6 view .LVU222
 930 040a 434B     		ldr	r3, .L97+20
 931 040c E3E7     		b	.L24
 932              	.L89:
 245:../../Middlewares/AI_Runtime/Npu/ll_aton/ll_aton.c **** 
 933              		.loc 1 245 3 is_stmt 1 discriminator 3 view .LVU223
 934 040e FFF7FEFF 		bl	__errno
 935              	.LVL80:
 245:../../Middlewares/AI_Runtime/Npu/ll_aton/ll_aton.c **** 
 936              		.loc 1 245 3 is_stmt 0 discriminator 1 view .LVU224
 937 0412 0368     		ldr	r3, [r0]
 938 0414 FBB1     		cbz	r3, .L41
 245:../../Middlewares/AI_Runtime/Npu/ll_aton/ll_aton.c **** 
 939              		.loc 1 245 3 discriminator 5 view .LVU225
 940 0416 FFF7FEFF 		bl	__errno
 941              	.LVL81:
 245:../../Middlewares/AI_Runtime/Npu/ll_aton/ll_aton.c **** 
 942              		.loc 1 245 3 discriminator 1 view .LVU226
 943 041a 0068     		ldr	r0, [r0]
 944 041c FFF7FEFF 		bl	strerror
 945              	.LVL82:
 946 0420 0346     		mov	r3, r0
 947              	.L26:
 245:../../Middlewares/AI_Runtime/Npu/ll_aton/ll_aton.c **** 
 948              		.loc 1 245 3 discriminator 8 view .LVU227
 949 0422 0122     		movs	r2, #1
 950 0424 4FF0020C 		mov	ip, #2
 951 0428 CDE9052C 		strd	r2, ip, [sp, #20]
 952 042c 1F22     		movs	r2, #31
 953 042e 0492     		str	r2, [sp, #16]
 954 0430 C4F30322 		ubfx	r2, r4, #8, #4
 955 0434 0392     		str	r2, [sp, #12]
 956 0436 C4F30332 		ubfx	r2, r4, #12, #4
 957 043a 0292     		str	r2, [sp, #8]
 958 043c 3A4A     		ldr	r2, .L97+36
 959 043e E4B2     		uxtb	r4, r4
 960              	.LVL83:
 245:../../Middlewares/AI_Runtime/Npu/ll_aton/ll_aton.c **** 
 961              		.loc 1 245 3 discriminator 8 view .LVU228
ARM GAS  C:\Users\Antonio\AppData\Local\Temp\ccynTwLp.s 			page 43


 962 0440 3149     		ldr	r1, .L97+4
 963 0442 0092     		str	r2, [sp]
 964 0444 3148     		ldr	r0, .L97+8
 965 0446 F522     		movs	r2, #245
 966 0448 0194     		str	r4, [sp, #4]
 967 044a FFF7FEFF 		bl	printf
 968              	.LVL84:
 245:../../Middlewares/AI_Runtime/Npu/ll_aton/ll_aton.c **** 
 969              		.loc 1 245 3 is_stmt 1 discriminator 1 view .LVU229
 245:../../Middlewares/AI_Runtime/Npu/ll_aton/ll_aton.c **** 
 970              		.loc 1 245 3 discriminator 10 view .LVU230
 971 044e F521     		movs	r1, #245
 972 0450 2F4B     		ldr	r3, .L97+12
 973 0452 304A     		ldr	r2, .L97+16
 974 0454 A8E6     		b	.L94
 975              	.LVL85:
 976              	.L41:
 245:../../Middlewares/AI_Runtime/Npu/ll_aton/ll_aton.c **** 
 977              		.loc 1 245 3 is_stmt 0 discriminator 6 view .LVU231
 978 0456 304B     		ldr	r3, .L97+20
 979 0458 E3E7     		b	.L26
 980              	.L90:
 247:../../Middlewares/AI_Runtime/Npu/ll_aton/ll_aton.c **** 
 981              		.loc 1 247 3 is_stmt 1 discriminator 3 view .LVU232
 982 045a FFF7FEFF 		bl	__errno
 983              	.LVL86:
 247:../../Middlewares/AI_Runtime/Npu/ll_aton/ll_aton.c **** 
 984              		.loc 1 247 3 is_stmt 0 discriminator 1 view .LVU233
 985 045e 0368     		ldr	r3, [r0]
 986 0460 EBB1     		cbz	r3, .L42
 247:../../Middlewares/AI_Runtime/Npu/ll_aton/ll_aton.c **** 
 987              		.loc 1 247 3 discriminator 5 view .LVU234
 988 0462 FFF7FEFF 		bl	__errno
 989              	.LVL87:
 247:../../Middlewares/AI_Runtime/Npu/ll_aton/ll_aton.c **** 
 990              		.loc 1 247 3 discriminator 1 view .LVU235
 991 0466 0068     		ldr	r0, [r0]
 992 0468 FFF7FEFF 		bl	strerror
 993              	.LVL88:
 994 046c 0346     		mov	r3, r0
 995              	.L28:
 247:../../Middlewares/AI_Runtime/Npu/ll_aton/ll_aton.c **** 
 996              		.loc 1 247 3 discriminator 8 view .LVU236
 997 046e 0122     		movs	r2, #1
 998 0470 CDE90522 		strd	r2, r2, [sp, #20]
 999 0474 1E22     		movs	r2, #30
 1000 0476 0492     		str	r2, [sp, #16]
 1001 0478 C4F30322 		ubfx	r2, r4, #8, #4
 1002 047c 0392     		str	r2, [sp, #12]
 1003 047e C4F30332 		ubfx	r2, r4, #12, #4
 1004 0482 0292     		str	r2, [sp, #8]
 1005 0484 294A     		ldr	r2, .L97+40
 1006 0486 E4B2     		uxtb	r4, r4
 1007              	.LVL89:
 247:../../Middlewares/AI_Runtime/Npu/ll_aton/ll_aton.c **** 
 1008              		.loc 1 247 3 discriminator 8 view .LVU237
 1009 0488 1F49     		ldr	r1, .L97+4
ARM GAS  C:\Users\Antonio\AppData\Local\Temp\ccynTwLp.s 			page 44


 1010 048a 0092     		str	r2, [sp]
 1011 048c 1F48     		ldr	r0, .L97+8
 1012 048e F722     		movs	r2, #247
 1013 0490 0194     		str	r4, [sp, #4]
 1014 0492 FFF7FEFF 		bl	printf
 1015              	.LVL90:
 247:../../Middlewares/AI_Runtime/Npu/ll_aton/ll_aton.c **** 
 1016              		.loc 1 247 3 is_stmt 1 discriminator 1 view .LVU238
 247:../../Middlewares/AI_Runtime/Npu/ll_aton/ll_aton.c **** 
 1017              		.loc 1 247 3 discriminator 10 view .LVU239
 1018 0496 F721     		movs	r1, #247
 1019 0498 1D4B     		ldr	r3, .L97+12
 1020 049a 1E4A     		ldr	r2, .L97+16
 1021 049c 84E6     		b	.L94
 1022              	.LVL91:
 1023              	.L42:
 247:../../Middlewares/AI_Runtime/Npu/ll_aton/ll_aton.c **** 
 1024              		.loc 1 247 3 is_stmt 0 discriminator 6 view .LVU240
 1025 049e 1E4B     		ldr	r3, .L97+20
 1026 04a0 E5E7     		b	.L28
 1027              	.L91:
 249:../../Middlewares/AI_Runtime/Npu/ll_aton/ll_aton.c **** 
 1028              		.loc 1 249 3 is_stmt 1 discriminator 3 view .LVU241
 1029 04a2 FFF7FEFF 		bl	__errno
 1030              	.LVL92:
 249:../../Middlewares/AI_Runtime/Npu/ll_aton/ll_aton.c **** 
 1031              		.loc 1 249 3 is_stmt 0 discriminator 1 view .LVU242
 1032 04a6 0368     		ldr	r3, [r0]
 1033 04a8 F3B1     		cbz	r3, .L43
 249:../../Middlewares/AI_Runtime/Npu/ll_aton/ll_aton.c **** 
 1034              		.loc 1 249 3 discriminator 5 view .LVU243
 1035 04aa FFF7FEFF 		bl	__errno
 1036              	.LVL93:
 249:../../Middlewares/AI_Runtime/Npu/ll_aton/ll_aton.c **** 
 1037              		.loc 1 249 3 discriminator 1 view .LVU244
 1038 04ae 0068     		ldr	r0, [r0]
 1039 04b0 FFF7FEFF 		bl	strerror
 1040              	.LVL94:
 1041 04b4 0346     		mov	r3, r0
 1042              	.L30:
 249:../../Middlewares/AI_Runtime/Npu/ll_aton/ll_aton.c **** 
 1043              		.loc 1 249 3 discriminator 8 view .LVU245
 1044 04b6 0122     		movs	r2, #1
 1045 04b8 0620     		movs	r0, #6
 1046 04ba CDE90520 		strd	r2, r0, [sp, #20]
 1047 04be 0022     		movs	r2, #0
 1048 04c0 0492     		str	r2, [sp, #16]
 1049 04c2 C4F30322 		ubfx	r2, r4, #8, #4
 1050 04c6 0392     		str	r2, [sp, #12]
 1051 04c8 C4F30332 		ubfx	r2, r4, #12, #4
 1052 04cc 0292     		str	r2, [sp, #8]
 1053 04ce 184A     		ldr	r2, .L97+44
 1054 04d0 E4B2     		uxtb	r4, r4
 1055              	.LVL95:
 249:../../Middlewares/AI_Runtime/Npu/ll_aton/ll_aton.c **** 
 1056              		.loc 1 249 3 discriminator 8 view .LVU246
 1057 04d2 0D49     		ldr	r1, .L97+4
ARM GAS  C:\Users\Antonio\AppData\Local\Temp\ccynTwLp.s 			page 45


 1058 04d4 0092     		str	r2, [sp]
 1059 04d6 0D48     		ldr	r0, .L97+8
 1060 04d8 F922     		movs	r2, #249
 1061 04da 0194     		str	r4, [sp, #4]
 1062 04dc FFF7FEFF 		bl	printf
 1063              	.LVL96:
 249:../../Middlewares/AI_Runtime/Npu/ll_aton/ll_aton.c **** 
 1064              		.loc 1 249 3 is_stmt 1 discriminator 1 view .LVU247
 249:../../Middlewares/AI_Runtime/Npu/ll_aton/ll_aton.c **** 
 1065              		.loc 1 249 3 discriminator 10 view .LVU248
 1066 04e0 F921     		movs	r1, #249
 1067 04e2 0B4B     		ldr	r3, .L97+12
 1068 04e4 0B4A     		ldr	r2, .L97+16
 1069 04e6 5FE6     		b	.L94
 1070              	.LVL97:
 1071              	.L43:
 249:../../Middlewares/AI_Runtime/Npu/ll_aton/ll_aton.c **** 
 1072              		.loc 1 249 3 is_stmt 0 discriminator 6 view .LVU249
 1073 04e8 0B4B     		ldr	r3, .L97+20
 1074 04ea E4E7     		b	.L30
 1075              	.L44:
 251:../../Middlewares/AI_Runtime/Npu/ll_aton/ll_aton.c **** 
 1076              		.loc 1 251 3 discriminator 6 view .LVU250
 1077 04ec 0A4B     		ldr	r3, .L97+20
 1078 04ee 1FE6     		b	.L32
 1079              	.L93:
 1080              	.LVL98:
 254:../../Middlewares/AI_Runtime/Npu/ll_aton/ll_aton.c ****   {
 1081              		.loc 1 254 17 is_stmt 1 discriminator 1 view .LVU251
 256:../../Middlewares/AI_Runtime/Npu/ll_aton/ll_aton.c ****   }
 1082              		.loc 1 256 5 view .LVU252
 256:../../Middlewares/AI_Runtime/Npu/ll_aton/ll_aton.c ****   }
 1083              		.loc 1 256 5 view .LVU253
 1084 04f0 0123     		movs	r3, #1
 263:../../Middlewares/AI_Runtime/Npu/ll_aton/ll_aton.c **** 
 1085              		.loc 1 263 1 is_stmt 0 view .LVU254
 1086 04f2 0020     		movs	r0, #0
 256:../../Middlewares/AI_Runtime/Npu/ll_aton/ll_aton.c ****   }
 1087              		.loc 1 256 5 view .LVU255
 1088 04f4 1360     		str	r3, [r2]
 256:../../Middlewares/AI_Runtime/Npu/ll_aton/ll_aton.c ****   }
 1089              		.loc 1 256 5 is_stmt 1 view .LVU256
 256:../../Middlewares/AI_Runtime/Npu/ll_aton/ll_aton.c ****   }
 1090              		.loc 1 256 30 view .LVU257
 254:../../Middlewares/AI_Runtime/Npu/ll_aton/ll_aton.c ****   {
 1091              		.loc 1 254 36 discriminator 3 view .LVU258
 1092              	.LVL99:
 254:../../Middlewares/AI_Runtime/Npu/ll_aton/ll_aton.c ****   {
 1093              		.loc 1 254 17 discriminator 1 view .LVU259
 256:../../Middlewares/AI_Runtime/Npu/ll_aton/ll_aton.c ****   }
 1094              		.loc 1 256 5 view .LVU260
 256:../../Middlewares/AI_Runtime/Npu/ll_aton/ll_aton.c ****   }
 1095              		.loc 1 256 5 view .LVU261
 1096 04f6 0F4A     		ldr	r2, .L97+48
 1097 04f8 1360     		str	r3, [r2]
 256:../../Middlewares/AI_Runtime/Npu/ll_aton/ll_aton.c ****   }
 1098              		.loc 1 256 5 view .LVU262
ARM GAS  C:\Users\Antonio\AppData\Local\Temp\ccynTwLp.s 			page 46


 256:../../Middlewares/AI_Runtime/Npu/ll_aton/ll_aton.c ****   }
 1099              		.loc 1 256 30 view .LVU263
 254:../../Middlewares/AI_Runtime/Npu/ll_aton/ll_aton.c ****   {
 1100              		.loc 1 254 36 discriminator 3 view .LVU264
 1101              	.LVL100:
 254:../../Middlewares/AI_Runtime/Npu/ll_aton/ll_aton.c ****   {
 1102              		.loc 1 254 17 discriminator 1 view .LVU265
 260:../../Middlewares/AI_Runtime/Npu/ll_aton/ll_aton.c **** 
 1103              		.loc 1 260 3 view .LVU266
 260:../../Middlewares/AI_Runtime/Npu/ll_aton/ll_aton.c **** 
 1104              		.loc 1 260 3 view .LVU267
 1105 04fa A2F50052 		sub	r2, r2, #8192
 1106 04fe 1360     		str	r3, [r2]
 260:../../Middlewares/AI_Runtime/Npu/ll_aton/ll_aton.c **** 
 1107              		.loc 1 260 3 view .LVU268
 260:../../Middlewares/AI_Runtime/Npu/ll_aton/ll_aton.c **** 
 1108              		.loc 1 260 30 view .LVU269
 262:../../Middlewares/AI_Runtime/Npu/ll_aton/ll_aton.c **** }
 1109              		.loc 1 262 3 view .LVU270
 263:../../Middlewares/AI_Runtime/Npu/ll_aton/ll_aton.c **** 
 1110              		.loc 1 263 1 is_stmt 0 view .LVU271
 1111 0500 08B0     		add	sp, sp, #32
 1112              		.cfi_def_cfa_offset 8
 1113              		@ sp needed
 1114 0502 10BD     		pop	{r4, pc}
 1115              	.LVL101:
 1116              	.L98:
 263:../../Middlewares/AI_Runtime/Npu/ll_aton/ll_aton.c **** 
 1117              		.loc 1 263 1 view .LVU272
 1118              		.align	2
 1119              	.L97:
 1120 0504 B8000000 		.word	.LC11
 1121 0508 05000000 		.word	.LC4
 1122 050c 38000000 		.word	.LC5
 1123 0510 A3000000 		.word	.LC7
 1124 0514 00000000 		.word	__func__.10
 1125 0518 00000000 		.word	.LC3
 1126 051c BE000000 		.word	.LC12
 1127 0520 C4000000 		.word	.LC13
 1128 0524 CE000000 		.word	.LC14
 1129 0528 D5000000 		.word	.LC15
 1130 052c DD000000 		.word	.LC16
 1131 0530 E5000000 		.word	.LC17
 1132 0534 00300E58 		.word	1477324800
 1133              		.cfi_endproc
 1134              	.LFE4822:
 1136              		.section	.text.LL_ATON_DeInit,"ax",%progbits
 1137              		.align	1
 1138              		.global	LL_ATON_DeInit
 1139              		.syntax unified
 1140              		.thumb
 1141              		.thumb_func
 1143              	LL_ATON_DeInit:
 1144              	.LFB4823:
 270:../../Middlewares/AI_Runtime/Npu/ll_aton/ll_aton.c ****   int i;
 1145              		.loc 1 270 1 is_stmt 1 view -0
 1146              		.cfi_startproc
ARM GAS  C:\Users\Antonio\AppData\Local\Temp\ccynTwLp.s 			page 47


 1147              		@ args = 0, pretend = 0, frame = 0
 1148              		@ frame_needed = 0, uses_anonymous_args = 0
 1149              		@ link register save eliminated.
 271:../../Middlewares/AI_Runtime/Npu/ll_aton/ll_aton.c **** 
 1150              		.loc 1 271 3 view .LVU274
 274:../../Middlewares/AI_Runtime/Npu/ll_aton/ll_aton.c **** 
 1151              		.loc 1 274 3 view .LVU275
 274:../../Middlewares/AI_Runtime/Npu/ll_aton/ll_aton.c **** 
 1152              		.loc 1 274 3 view .LVU276
 1153 0000 0020     		movs	r0, #0
 1154 0002 074B     		ldr	r3, .L100
 1155 0004 1860     		str	r0, [r3]
 274:../../Middlewares/AI_Runtime/Npu/ll_aton/ll_aton.c **** 
 1156              		.loc 1 274 3 view .LVU277
 274:../../Middlewares/AI_Runtime/Npu/ll_aton/ll_aton.c **** 
 1157              		.loc 1 274 30 view .LVU278
 277:../../Middlewares/AI_Runtime/Npu/ll_aton/ll_aton.c ****   {
 1158              		.loc 1 277 3 view .LVU279
 1159              	.LVL102:
 277:../../Middlewares/AI_Runtime/Npu/ll_aton/ll_aton.c ****   {
 1160              		.loc 1 277 17 discriminator 1 view .LVU280
 279:../../Middlewares/AI_Runtime/Npu/ll_aton/ll_aton.c ****   }
 1161              		.loc 1 279 5 view .LVU281
 279:../../Middlewares/AI_Runtime/Npu/ll_aton/ll_aton.c ****   }
 1162              		.loc 1 279 5 view .LVU282
 1163 0006 03F58053 		add	r3, r3, #4096
 1164 000a 1860     		str	r0, [r3]
 279:../../Middlewares/AI_Runtime/Npu/ll_aton/ll_aton.c ****   }
 1165              		.loc 1 279 5 view .LVU283
 279:../../Middlewares/AI_Runtime/Npu/ll_aton/ll_aton.c ****   }
 1166              		.loc 1 279 30 view .LVU284
 277:../../Middlewares/AI_Runtime/Npu/ll_aton/ll_aton.c ****   {
 1167              		.loc 1 277 36 discriminator 3 view .LVU285
 1168              	.LVL103:
 277:../../Middlewares/AI_Runtime/Npu/ll_aton/ll_aton.c ****   {
 1169              		.loc 1 277 17 discriminator 1 view .LVU286
 279:../../Middlewares/AI_Runtime/Npu/ll_aton/ll_aton.c ****   }
 1170              		.loc 1 279 5 view .LVU287
 279:../../Middlewares/AI_Runtime/Npu/ll_aton/ll_aton.c ****   }
 1171              		.loc 1 279 5 view .LVU288
 1172 000c 03F58053 		add	r3, r3, #4096
 1173 0010 1860     		str	r0, [r3]
 279:../../Middlewares/AI_Runtime/Npu/ll_aton/ll_aton.c ****   }
 1174              		.loc 1 279 5 view .LVU289
 279:../../Middlewares/AI_Runtime/Npu/ll_aton/ll_aton.c ****   }
 1175              		.loc 1 279 30 view .LVU290
 277:../../Middlewares/AI_Runtime/Npu/ll_aton/ll_aton.c ****   {
 1176              		.loc 1 277 36 discriminator 3 view .LVU291
 1177              	.LVL104:
 277:../../Middlewares/AI_Runtime/Npu/ll_aton/ll_aton.c ****   {
 1178              		.loc 1 277 17 discriminator 1 view .LVU292
 283:../../Middlewares/AI_Runtime/Npu/ll_aton/ll_aton.c ****   ATON_CLKCTRL_AGATES1_SET(0, 0);
 1179              		.loc 1 283 3 view .LVU293
 283:../../Middlewares/AI_Runtime/Npu/ll_aton/ll_aton.c ****   ATON_CLKCTRL_AGATES1_SET(0, 0);
 1180              		.loc 1 283 3 view .LVU294
 1181 0012 A3F54053 		sub	r3, r3, #12288
 1182 0016 9860     		str	r0, [r3, #8]
ARM GAS  C:\Users\Antonio\AppData\Local\Temp\ccynTwLp.s 			page 48


 283:../../Middlewares/AI_Runtime/Npu/ll_aton/ll_aton.c ****   ATON_CLKCTRL_AGATES1_SET(0, 0);
 1183              		.loc 1 283 3 view .LVU295
 283:../../Middlewares/AI_Runtime/Npu/ll_aton/ll_aton.c ****   ATON_CLKCTRL_AGATES1_SET(0, 0);
 1184              		.loc 1 283 33 view .LVU296
 284:../../Middlewares/AI_Runtime/Npu/ll_aton/ll_aton.c ****   ATON_CLKCTRL_BGATES_SET(0, 0);
 1185              		.loc 1 284 3 view .LVU297
 284:../../Middlewares/AI_Runtime/Npu/ll_aton/ll_aton.c ****   ATON_CLKCTRL_BGATES_SET(0, 0);
 1186              		.loc 1 284 3 view .LVU298
 1187 0018 D860     		str	r0, [r3, #12]
 284:../../Middlewares/AI_Runtime/Npu/ll_aton/ll_aton.c ****   ATON_CLKCTRL_BGATES_SET(0, 0);
 1188              		.loc 1 284 3 view .LVU299
 284:../../Middlewares/AI_Runtime/Npu/ll_aton/ll_aton.c ****   ATON_CLKCTRL_BGATES_SET(0, 0);
 1189              		.loc 1 284 33 view .LVU300
 285:../../Middlewares/AI_Runtime/Npu/ll_aton/ll_aton.c **** #ifdef ATON_CLKCTRL_BGATES1_OFFSET
 1190              		.loc 1 285 3 view .LVU301
 285:../../Middlewares/AI_Runtime/Npu/ll_aton/ll_aton.c **** #ifdef ATON_CLKCTRL_BGATES1_OFFSET
 1191              		.loc 1 285 3 view .LVU302
 1192 001a 1861     		str	r0, [r3, #16]
 285:../../Middlewares/AI_Runtime/Npu/ll_aton/ll_aton.c **** #ifdef ATON_CLKCTRL_BGATES1_OFFSET
 1193              		.loc 1 285 3 view .LVU303
 285:../../Middlewares/AI_Runtime/Npu/ll_aton/ll_aton.c **** #ifdef ATON_CLKCTRL_BGATES1_OFFSET
 1194              		.loc 1 285 32 view .LVU304
 289:../../Middlewares/AI_Runtime/Npu/ll_aton/ll_aton.c **** 
 1195              		.loc 1 289 3 view .LVU305
 289:../../Middlewares/AI_Runtime/Npu/ll_aton/ll_aton.c **** 
 1196              		.loc 1 289 3 view .LVU306
 1197 001c 1860     		str	r0, [r3]
 289:../../Middlewares/AI_Runtime/Npu/ll_aton/ll_aton.c **** 
 1198              		.loc 1 289 3 view .LVU307
 289:../../Middlewares/AI_Runtime/Npu/ll_aton/ll_aton.c **** 
 1199              		.loc 1 289 30 view .LVU308
 291:../../Middlewares/AI_Runtime/Npu/ll_aton/ll_aton.c **** }
 1200              		.loc 1 291 3 view .LVU309
 292:../../Middlewares/AI_Runtime/Npu/ll_aton/ll_aton.c **** 
 1201              		.loc 1 292 1 is_stmt 0 view .LVU310
 1202 001e 7047     		bx	lr
 1203              	.L101:
 1204              		.align	2
 1205              	.L100:
 1206 0020 00100E58 		.word	1477316608
 1207              		.cfi_endproc
 1208              	.LFE4823:
 1210              		.section	.text.LL_ATON_EnableUnits_Init,"ax",%progbits
 1211              		.align	1
 1212              		.global	LL_ATON_EnableUnits_Init
 1213              		.syntax unified
 1214              		.thumb
 1215              		.thumb_func
 1217              	LL_ATON_EnableUnits_Init:
 1218              	.LVL105:
 1219              	.LFB4824:
 302:../../Middlewares/AI_Runtime/Npu/ll_aton/ll_aton.c ****   int i;
 1220              		.loc 1 302 1 is_stmt 1 view -0
 1221              		.cfi_startproc
 1222              		@ args = 0, pretend = 0, frame = 0
 1223              		@ frame_needed = 0, uses_anonymous_args = 0
 303:../../Middlewares/AI_Runtime/Npu/ll_aton/ll_aton.c ****   enum AccelUnitsType unitType;
ARM GAS  C:\Users\Antonio\AppData\Local\Temp\ccynTwLp.s 			page 49


 1224              		.loc 1 303 3 view .LVU312
 304:../../Middlewares/AI_Runtime/Npu/ll_aton/ll_aton.c ****   uint32_t unitId;
 1225              		.loc 1 304 3 view .LVU313
 305:../../Middlewares/AI_Runtime/Npu/ll_aton/ll_aton.c **** 
 1226              		.loc 1 305 3 view .LVU314
 307:../../Middlewares/AI_Runtime/Npu/ll_aton/ll_aton.c ****   {
 1227              		.loc 1 307 3 view .LVU315
 302:../../Middlewares/AI_Runtime/Npu/ll_aton/ll_aton.c ****   int i;
 1228              		.loc 1 302 1 is_stmt 0 view .LVU316
 1229 0000 F0B5     		push	{r4, r5, r6, r7, lr}
 1230              		.cfi_def_cfa_offset 20
 1231              		.cfi_offset 4, -20
 1232              		.cfi_offset 5, -16
 1233              		.cfi_offset 6, -12
 1234              		.cfi_offset 7, -8
 1235              		.cfi_offset 14, -4
 307:../../Middlewares/AI_Runtime/Npu/ll_aton/ll_aton.c ****   {
 1236              		.loc 1 307 10 view .LVU317
 1237 0002 0024     		movs	r4, #0
 1238 0004 A142     		cmp	r1, r4
 1239 0006 01F10102 		add	r2, r1, #1
 1240 000a B8BF     		it	lt
 1241 000c 0122     		movlt	r2, #1
 1242              	.LBB21:
 363:../../Middlewares/AI_Runtime/Npu/ll_aton/ll_aton.c ****       break;
 1243              		.loc 1 363 7 view .LVU318
 1244 000e 1E4D     		ldr	r5, .L117
 1245              	.LBE21:
 329:../../Middlewares/AI_Runtime/Npu/ll_aton/ll_aton.c **** #endif
 1246              		.loc 1 329 7 view .LVU319
 1247 0010 1E4F     		ldr	r7, .L117+4
 310:../../Middlewares/AI_Runtime/Npu/ll_aton/ll_aton.c **** 
 1248              		.loc 1 310 52 view .LVU320
 1249 0012 861C     		adds	r6, r0, #2
 1250              	.LVL106:
 1251              	.L103:
 307:../../Middlewares/AI_Runtime/Npu/ll_aton/ll_aton.c ****   {
 1252              		.loc 1 307 17 is_stmt 1 discriminator 1 view .LVU321
 1253 0014 013A     		subs	r2, r2, #1
 1254 0016 01D1     		bne	.L113
 372:../../Middlewares/AI_Runtime/Npu/ll_aton/ll_aton.c **** }
 1255              		.loc 1 372 3 view .LVU322
 373:../../Middlewares/AI_Runtime/Npu/ll_aton/ll_aton.c **** 
 1256              		.loc 1 373 1 is_stmt 0 view .LVU323
 1257 0018 0020     		movs	r0, #0
 1258              	.LVL107:
 373:../../Middlewares/AI_Runtime/Npu/ll_aton/ll_aton.c **** 
 1259              		.loc 1 373 1 view .LVU324
 1260 001a F0BD     		pop	{r4, r5, r6, r7, pc}
 1261              	.LVL108:
 1262              	.L113:
 309:../../Middlewares/AI_Runtime/Npu/ll_aton/ll_aton.c ****     unitId = LL_ATON_EnableUnits_InitStruct[i].unit.unit_num;
 1263              		.loc 1 309 5 is_stmt 1 view .LVU325
 310:../../Middlewares/AI_Runtime/Npu/ll_aton/ll_aton.c **** 
 1264              		.loc 1 310 5 view .LVU326
 312:../../Middlewares/AI_Runtime/Npu/ll_aton/ll_aton.c ****     {
 1265              		.loc 1 312 5 is_stmt 0 view .LVU327
ARM GAS  C:\Users\Antonio\AppData\Local\Temp\ccynTwLp.s 			page 50


 1266 001c 10F82410 		ldrb	r1, [r0, r4, lsl #2]	@ zero_extendqisi2
 310:../../Middlewares/AI_Runtime/Npu/ll_aton/ll_aton.c **** 
 1267              		.loc 1 310 12 view .LVU328
 1268 0020 36F82430 		ldrh	r3, [r6, r4, lsl #2]
 1269              	.LVL109:
 312:../../Middlewares/AI_Runtime/Npu/ll_aton/ll_aton.c ****     {
 1270              		.loc 1 312 5 is_stmt 1 view .LVU329
 1271 0024 0829     		cmp	r1, #8
 1272 0026 18D8     		bhi	.L104
 1273 0028 DFE801F0 		tbb	[pc, r1]
 1274              	.L106:
 1275 002c 05       		.byte	(.L112-.L106)/2
 1276 002d 17       		.byte	(.L104-.L106)/2
 1277 002e 0E       		.byte	(.L111-.L106)/2
 1278 002f 19       		.byte	(.L110-.L106)/2
 1279 0030 1D       		.byte	(.L109-.L106)/2
 1280 0031 21       		.byte	(.L108-.L106)/2
 1281 0032 25       		.byte	(.L107-.L106)/2
 1282 0033 17       		.byte	(.L104-.L106)/2
 1283 0034 29       		.byte	(.L105-.L106)/2
 1284 0035 00       		.p2align 1
 1285              	.L112:
 315:../../Middlewares/AI_Runtime/Npu/ll_aton/ll_aton.c ****       break;
 1286              		.loc 1 315 7 view .LVU330
 1287              	.LBB22:
 315:../../Middlewares/AI_Runtime/Npu/ll_aton/ll_aton.c ****       break;
 1288              		.loc 1 315 7 view .LVU331
 1289 0036 03F5B023 		add	r3, r3, #360448
 1290              	.LVL110:
 315:../../Middlewares/AI_Runtime/Npu/ll_aton/ll_aton.c ****       break;
 1291              		.loc 1 315 7 is_stmt 0 view .LVU332
 1292 003a E533     		adds	r3, r3, #229
 1293              	.LVL111:
 1294              	.L116:
 315:../../Middlewares/AI_Runtime/Npu/ll_aton/ll_aton.c ****       break;
 1295              		.loc 1 315 7 view .LVU333
 1296              	.LBE22:
 1297              	.LBB23:
 336:../../Middlewares/AI_Runtime/Npu/ll_aton/ll_aton.c ****       break;
 1298              		.loc 1 336 7 view .LVU334
 1299 003c 1B03     		lsls	r3, r3, #12
 1300 003e 1968     		ldr	r1, [r3]
 1301              	.LVL112:
 336:../../Middlewares/AI_Runtime/Npu/ll_aton/ll_aton.c ****       break;
 1302              		.loc 1 336 7 is_stmt 1 view .LVU335
 1303 0040 41F00101 		orr	r1, r1, #1
 1304              	.LVL113:
 336:../../Middlewares/AI_Runtime/Npu/ll_aton/ll_aton.c ****       break;
 1305              		.loc 1 336 7 view .LVU336
 336:../../Middlewares/AI_Runtime/Npu/ll_aton/ll_aton.c ****       break;
 1306              		.loc 1 336 7 view .LVU337
 1307 0044 1960     		str	r1, [r3]
 1308              	.LVL114:
 336:../../Middlewares/AI_Runtime/Npu/ll_aton/ll_aton.c ****       break;
 1309              		.loc 1 336 7 view .LVU338
 336:../../Middlewares/AI_Runtime/Npu/ll_aton/ll_aton.c ****       break;
 1310              		.loc 1 336 7 view .LVU339
ARM GAS  C:\Users\Antonio\AppData\Local\Temp\ccynTwLp.s 			page 51


 1311              	.LBE23:
 336:../../Middlewares/AI_Runtime/Npu/ll_aton/ll_aton.c ****       break;
 1312              		.loc 1 336 7 view .LVU340
 337:../../Middlewares/AI_Runtime/Npu/ll_aton/ll_aton.c **** #endif
 1313              		.loc 1 337 7 view .LVU341
 1314 0046 08E0     		b	.L104
 1315              	.LVL115:
 1316              	.L111:
 329:../../Middlewares/AI_Runtime/Npu/ll_aton/ll_aton.c **** #endif
 1317              		.loc 1 329 7 view .LVU342
 329:../../Middlewares/AI_Runtime/Npu/ll_aton/ll_aton.c **** #endif
 1318              		.loc 1 329 7 view .LVU343
 1319 0048 03F5B021 		add	r1, r3, #360448
 1320 004c 57F82330 		ldr	r3, [r7, r3, lsl #2]
 1321              	.LVL116:
 329:../../Middlewares/AI_Runtime/Npu/ll_aton/ll_aton.c **** #endif
 1322              		.loc 1 329 7 is_stmt 0 view .LVU344
 1323 0050 EF31     		adds	r1, r1, #239
 1324              	.LVL117:
 329:../../Middlewares/AI_Runtime/Npu/ll_aton/ll_aton.c **** #endif
 1325              		.loc 1 329 7 view .LVU345
 1326 0052 0903     		lsls	r1, r1, #12
 1327              	.LVL118:
 329:../../Middlewares/AI_Runtime/Npu/ll_aton/ll_aton.c **** #endif
 1328              		.loc 1 329 7 view .LVU346
 1329 0054 43F00103 		orr	r3, r3, #1
 1330 0058 0B60     		str	r3, [r1]
 1331              	.LVL119:
 329:../../Middlewares/AI_Runtime/Npu/ll_aton/ll_aton.c **** #endif
 1332              		.loc 1 329 7 is_stmt 1 view .LVU347
 329:../../Middlewares/AI_Runtime/Npu/ll_aton/ll_aton.c **** #endif
 1333              		.loc 1 329 89 view .LVU348
 331:../../Middlewares/AI_Runtime/Npu/ll_aton/ll_aton.c **** #endif
 1334              		.loc 1 331 7 view .LVU349
 1335              	.L104:
 307:../../Middlewares/AI_Runtime/Npu/ll_aton/ll_aton.c ****   {
 1336              		.loc 1 307 23 discriminator 2 view .LVU350
 1337 005a 0134     		adds	r4, r4, #1
 1338              	.LVL120:
 307:../../Middlewares/AI_Runtime/Npu/ll_aton/ll_aton.c ****   {
 1339              		.loc 1 307 23 is_stmt 0 discriminator 2 view .LVU351
 1340 005c DAE7     		b	.L103
 1341              	.LVL121:
 1342              	.L110:
 336:../../Middlewares/AI_Runtime/Npu/ll_aton/ll_aton.c ****       break;
 1343              		.loc 1 336 7 is_stmt 1 view .LVU352
 1344              	.LBB24:
 336:../../Middlewares/AI_Runtime/Npu/ll_aton/ll_aton.c ****       break;
 1345              		.loc 1 336 7 view .LVU353
 1346 005e 03F5B023 		add	r3, r3, #360448
 1347              	.LVL122:
 336:../../Middlewares/AI_Runtime/Npu/ll_aton/ll_aton.c ****       break;
 1348              		.loc 1 336 7 is_stmt 0 view .LVU354
 1349 0062 F333     		adds	r3, r3, #243
 1350              	.LVL123:
 336:../../Middlewares/AI_Runtime/Npu/ll_aton/ll_aton.c ****       break;
 1351              		.loc 1 336 7 view .LVU355
ARM GAS  C:\Users\Antonio\AppData\Local\Temp\ccynTwLp.s 			page 52


 1352 0064 EAE7     		b	.L116
 1353              	.LVL124:
 1354              	.L109:
 336:../../Middlewares/AI_Runtime/Npu/ll_aton/ll_aton.c ****       break;
 1355              		.loc 1 336 7 view .LVU356
 1356              	.LBE24:
 342:../../Middlewares/AI_Runtime/Npu/ll_aton/ll_aton.c ****       break;
 1357              		.loc 1 342 7 is_stmt 1 view .LVU357
 1358              	.LBB25:
 342:../../Middlewares/AI_Runtime/Npu/ll_aton/ll_aton.c ****       break;
 1359              		.loc 1 342 7 view .LVU358
 1360 0066 03F5B023 		add	r3, r3, #360448
 1361              	.LVL125:
 342:../../Middlewares/AI_Runtime/Npu/ll_aton/ll_aton.c ****       break;
 1362              		.loc 1 342 7 is_stmt 0 view .LVU359
 1363 006a F533     		adds	r3, r3, #245
 1364              	.LVL126:
 342:../../Middlewares/AI_Runtime/Npu/ll_aton/ll_aton.c ****       break;
 1365              		.loc 1 342 7 view .LVU360
 1366 006c E6E7     		b	.L116
 1367              	.LVL127:
 1368              	.L108:
 342:../../Middlewares/AI_Runtime/Npu/ll_aton/ll_aton.c ****       break;
 1369              		.loc 1 342 7 view .LVU361
 1370              	.LBE25:
 348:../../Middlewares/AI_Runtime/Npu/ll_aton/ll_aton.c ****       break;
 1371              		.loc 1 348 7 is_stmt 1 view .LVU362
 1372              	.LBB26:
 348:../../Middlewares/AI_Runtime/Npu/ll_aton/ll_aton.c ****       break;
 1373              		.loc 1 348 7 view .LVU363
 1374 006e 03F5B023 		add	r3, r3, #360448
 1375              	.LVL128:
 348:../../Middlewares/AI_Runtime/Npu/ll_aton/ll_aton.c ****       break;
 1376              		.loc 1 348 7 is_stmt 0 view .LVU364
 1377 0072 F733     		adds	r3, r3, #247
 1378              	.LVL129:
 348:../../Middlewares/AI_Runtime/Npu/ll_aton/ll_aton.c ****       break;
 1379              		.loc 1 348 7 view .LVU365
 1380 0074 E2E7     		b	.L116
 1381              	.LVL130:
 1382              	.L107:
 348:../../Middlewares/AI_Runtime/Npu/ll_aton/ll_aton.c ****       break;
 1383              		.loc 1 348 7 view .LVU366
 1384              	.LBE26:
 357:../../Middlewares/AI_Runtime/Npu/ll_aton/ll_aton.c **** #endif // !POOL_RC14
 1385              		.loc 1 357 7 is_stmt 1 view .LVU367
 1386              	.LBB27:
 357:../../Middlewares/AI_Runtime/Npu/ll_aton/ll_aton.c **** #endif // !POOL_RC14
 1387              		.loc 1 357 7 view .LVU368
 1388 0076 03F5B023 		add	r3, r3, #360448
 1389              	.LVL131:
 357:../../Middlewares/AI_Runtime/Npu/ll_aton/ll_aton.c **** #endif // !POOL_RC14
 1390              		.loc 1 357 7 is_stmt 0 view .LVU369
 1391 007a FB33     		adds	r3, r3, #251
 1392              	.LVL132:
 357:../../Middlewares/AI_Runtime/Npu/ll_aton/ll_aton.c **** #endif // !POOL_RC14
 1393              		.loc 1 357 7 view .LVU370
ARM GAS  C:\Users\Antonio\AppData\Local\Temp\ccynTwLp.s 			page 53


 1394 007c DEE7     		b	.L116
 1395              	.LVL133:
 1396              	.L105:
 357:../../Middlewares/AI_Runtime/Npu/ll_aton/ll_aton.c **** #endif // !POOL_RC14
 1397              		.loc 1 357 7 view .LVU371
 1398              	.LBE27:
 363:../../Middlewares/AI_Runtime/Npu/ll_aton/ll_aton.c ****       break;
 1399              		.loc 1 363 7 is_stmt 1 view .LVU372
 1400              	.LBB28:
 363:../../Middlewares/AI_Runtime/Npu/ll_aton/ll_aton.c ****       break;
 1401              		.loc 1 363 7 view .LVU373
 1402 007e 2B68     		ldr	r3, [r5]
 1403              	.LVL134:
 363:../../Middlewares/AI_Runtime/Npu/ll_aton/ll_aton.c ****       break;
 1404              		.loc 1 363 7 view .LVU374
 1405 0080 43F00103 		orr	r3, r3, #1
 1406              	.LVL135:
 363:../../Middlewares/AI_Runtime/Npu/ll_aton/ll_aton.c ****       break;
 1407              		.loc 1 363 7 view .LVU375
 363:../../Middlewares/AI_Runtime/Npu/ll_aton/ll_aton.c ****       break;
 1408              		.loc 1 363 7 view .LVU376
 1409 0084 2B60     		str	r3, [r5]
 1410              	.LVL136:
 363:../../Middlewares/AI_Runtime/Npu/ll_aton/ll_aton.c ****       break;
 1411              		.loc 1 363 7 view .LVU377
 363:../../Middlewares/AI_Runtime/Npu/ll_aton/ll_aton.c ****       break;
 1412              		.loc 1 363 7 view .LVU378
 1413              	.LBE28:
 363:../../Middlewares/AI_Runtime/Npu/ll_aton/ll_aton.c ****       break;
 1414              		.loc 1 363 7 view .LVU379
 364:../../Middlewares/AI_Runtime/Npu/ll_aton/ll_aton.c **** #endif
 1415              		.loc 1 364 7 view .LVU380
 1416 0086 E8E7     		b	.L104
 1417              	.L118:
 1418              		.align	2
 1419              	.L117:
 1420 0088 00D00F58 		.word	1477431296
 1421 008c 00000000 		.word	Conv_ctrl_bits
 1422              		.cfi_endproc
 1423              	.LFE4824:
 1425              		.section	.rodata.LL_Streng_Wait.str1.1,"aMS",%progbits,1
 1426              	.LC19:
 1427 0000 63686563 		.ascii	"checkWatchdog() == 0\000"
 1427      6B576174 
 1427      6368646F 
 1427      67282920 
 1427      3D3D2030 
 1428              		.section	.text.LL_Streng_Wait,"ax",%progbits
 1429              		.align	1
 1430              		.global	LL_Streng_Wait
 1431              		.syntax unified
 1432              		.thumb
 1433              		.thumb_func
 1435              	LL_Streng_Wait:
 1436              	.LVL137:
 1437              	.LFB4826:
 463:../../Middlewares/AI_Runtime/Npu/ll_aton/ll_aton.c ****   int i;
ARM GAS  C:\Users\Antonio\AppData\Local\Temp\ccynTwLp.s 			page 54


 1438              		.loc 1 463 1 view -0
 1439              		.cfi_startproc
 1440              		@ args = 0, pretend = 0, frame = 0
 1441              		@ frame_needed = 0, uses_anonymous_args = 0
 464:../../Middlewares/AI_Runtime/Npu/ll_aton/ll_aton.c ****   uint32_t enableFlags;
 1442              		.loc 1 464 3 view .LVU382
 465:../../Middlewares/AI_Runtime/Npu/ll_aton/ll_aton.c **** 
 1443              		.loc 1 465 3 view .LVU383
 467:../../Middlewares/AI_Runtime/Npu/ll_aton/ll_aton.c **** 
 1444              		.loc 1 467 3 view .LVU384
 463:../../Middlewares/AI_Runtime/Npu/ll_aton/ll_aton.c ****   int i;
 1445              		.loc 1 463 1 is_stmt 0 view .LVU385
 1446 0000 70B5     		push	{r4, r5, r6, lr}
 1447              		.cfi_def_cfa_offset 16
 1448              		.cfi_offset 4, -16
 1449              		.cfi_offset 5, -12
 1450              		.cfi_offset 6, -8
 1451              		.cfi_offset 14, -4
 463:../../Middlewares/AI_Runtime/Npu/ll_aton/ll_aton.c ****   int i;
 1452              		.loc 1 463 1 view .LVU386
 1453 0002 0546     		mov	r5, r0
 467:../../Middlewares/AI_Runtime/Npu/ll_aton/ll_aton.c **** 
 1454              		.loc 1 467 3 view .LVU387
 1455 0004 1248     		ldr	r0, .L129
 1456              	.LVL138:
 467:../../Middlewares/AI_Runtime/Npu/ll_aton/ll_aton.c **** 
 1457              		.loc 1 467 3 view .LVU388
 1458 0006 FFF7FEFF 		bl	startWatchdog
 1459              	.LVL139:
 474:../../Middlewares/AI_Runtime/Npu/ll_aton/ll_aton.c ****       {
 1460              		.loc 1 474 21 view .LVU389
 1461 000a 0126     		movs	r6, #1
 1462              	.L123:
 469:../../Middlewares/AI_Runtime/Npu/ll_aton/ll_aton.c ****   {
 1463              		.loc 1 469 3 is_stmt 1 view .LVU390
 471:../../Middlewares/AI_Runtime/Npu/ll_aton/ll_aton.c ****     for (i = 0; i < ATON_STRENG_NUM; i++)
 1464              		.loc 1 471 5 view .LVU391
 1465              	.LVL140:
 472:../../Middlewares/AI_Runtime/Npu/ll_aton/ll_aton.c ****     {
 1466              		.loc 1 472 5 view .LVU392
 472:../../Middlewares/AI_Runtime/Npu/ll_aton/ll_aton.c ****     {
 1467              		.loc 1 472 19 discriminator 1 view .LVU393
 471:../../Middlewares/AI_Runtime/Npu/ll_aton/ll_aton.c ****     for (i = 0; i < ATON_STRENG_NUM; i++)
 1468              		.loc 1 471 17 is_stmt 0 view .LVU394
 1469 000c 0024     		movs	r4, #0
 472:../../Middlewares/AI_Runtime/Npu/ll_aton/ll_aton.c ****     {
 1470              		.loc 1 472 12 view .LVU395
 1471 000e 0A21     		movs	r1, #10
 1472 0010 2246     		mov	r2, r4
 1473              	.LVL141:
 1474              	.L121:
 474:../../Middlewares/AI_Runtime/Npu/ll_aton/ll_aton.c ****       {
 1475              		.loc 1 474 7 is_stmt 1 view .LVU396
 474:../../Middlewares/AI_Runtime/Npu/ll_aton/ll_aton.c ****       {
 1476              		.loc 1 474 21 is_stmt 0 view .LVU397
 1477 0012 06FA02F3 		lsl	r3, r6, r2
 474:../../Middlewares/AI_Runtime/Npu/ll_aton/ll_aton.c ****       {
ARM GAS  C:\Users\Antonio\AppData\Local\Temp\ccynTwLp.s 			page 55


 1478              		.loc 1 474 10 view .LVU398
 1479 0016 2B42     		tst	r3, r5
 1480 0018 08D0     		beq	.L120
 476:../../Middlewares/AI_Runtime/Npu/ll_aton/ll_aton.c ****       }
 1481              		.loc 1 476 9 is_stmt 1 view .LVU399
 476:../../Middlewares/AI_Runtime/Npu/ll_aton/ll_aton.c ****       }
 1482              		.loc 1 476 25 is_stmt 0 view .LVU400
 1483 001a 1303     		lsls	r3, r2, #12
 1484 001c 03F1B043 		add	r3, r3, #1476395008
 1485 0020 03F56523 		add	r3, r3, #937984
 1486 0024 1B68     		ldr	r3, [r3]
 476:../../Middlewares/AI_Runtime/Npu/ll_aton/ll_aton.c ****       }
 1487              		.loc 1 476 49 view .LVU401
 1488 0026 03F00043 		and	r3, r3, #-2147483648
 476:../../Middlewares/AI_Runtime/Npu/ll_aton/ll_aton.c ****       }
 1489              		.loc 1 476 21 view .LVU402
 1490 002a 1C43     		orrs	r4, r4, r3
 1491              	.LVL142:
 1492              	.L120:
 472:../../Middlewares/AI_Runtime/Npu/ll_aton/ll_aton.c ****     {
 1493              		.loc 1 472 39 is_stmt 1 discriminator 2 view .LVU403
 472:../../Middlewares/AI_Runtime/Npu/ll_aton/ll_aton.c ****     {
 1494              		.loc 1 472 19 is_stmt 0 discriminator 1 view .LVU404
 1495 002c 0139     		subs	r1, r1, #1
 472:../../Middlewares/AI_Runtime/Npu/ll_aton/ll_aton.c ****     {
 1496              		.loc 1 472 39 discriminator 2 view .LVU405
 1497 002e 02F10102 		add	r2, r2, #1
 1498              	.LVL143:
 472:../../Middlewares/AI_Runtime/Npu/ll_aton/ll_aton.c ****     {
 1499              		.loc 1 472 19 is_stmt 1 discriminator 1 view .LVU406
 1500 0032 EED1     		bne	.L121
 480:../../Middlewares/AI_Runtime/Npu/ll_aton/ll_aton.c **** 
 1501              		.loc 1 480 5 view .LVU407
 1502 0034 FFF7FEFF 		bl	checkWatchdog
 1503              	.LVL144:
 480:../../Middlewares/AI_Runtime/Npu/ll_aton/ll_aton.c **** 
 1504              		.loc 1 480 5 is_stmt 0 discriminator 1 view .LVU408
 1505 0038 30B1     		cbz	r0, .L122
 1506              	.LBB31:
 1507              	.LBI31:
 462:../../Middlewares/AI_Runtime/Npu/ll_aton/ll_aton.c **** {
 1508              		.loc 1 462 5 is_stmt 1 view .LVU409
 1509              	.LVL145:
 1510              	.LBB32:
 480:../../Middlewares/AI_Runtime/Npu/ll_aton/ll_aton.c **** 
 1511              		.loc 1 480 5 is_stmt 0 discriminator 1 view .LVU410
 1512 003a 4FF4F071 		mov	r1, #480
 1513 003e 054B     		ldr	r3, .L129+4
 1514 0040 054A     		ldr	r2, .L129+8
 1515 0042 0648     		ldr	r0, .L129+12
 1516 0044 FFF7FEFF 		bl	__assert_func
 1517              	.LVL146:
 1518              	.L122:
 480:../../Middlewares/AI_Runtime/Npu/ll_aton/ll_aton.c **** 
 1519              		.loc 1 480 5 discriminator 1 view .LVU411
 1520              	.LBE32:
 1521              	.LBE31:
ARM GAS  C:\Users\Antonio\AppData\Local\Temp\ccynTwLp.s 			page 56


 482:../../Middlewares/AI_Runtime/Npu/ll_aton/ll_aton.c **** 
 1522              		.loc 1 482 12 is_stmt 1 view .LVU412
 1523 0048 002C     		cmp	r4, #0
 1524 004a DFD1     		bne	.L123
 484:../../Middlewares/AI_Runtime/Npu/ll_aton/ll_aton.c **** }
 1525              		.loc 1 484 3 view .LVU413
 485:../../Middlewares/AI_Runtime/Npu/ll_aton/ll_aton.c **** 
 1526              		.loc 1 485 1 is_stmt 0 view .LVU414
 1527 004c 70BD     		pop	{r4, r5, r6, pc}
 1528              	.LVL147:
 1529              	.L130:
 485:../../Middlewares/AI_Runtime/Npu/ll_aton/ll_aton.c **** 
 1530              		.loc 1 485 1 view .LVU415
 1531 004e 00BF     		.align	2
 1532              	.L129:
 1533 0050 80969800 		.word	10000000
 1534 0054 00000000 		.word	.LC19
 1535 0058 00000000 		.word	__func__.7
 1536 005c 05000000 		.word	.LC4
 1537              		.cfi_endproc
 1538              	.LFE4826:
 1540              		.section	.text.LL_TriggerHigh,"ax",%progbits
 1541              		.align	1
 1542              		.global	LL_TriggerHigh
 1543              		.syntax unified
 1544              		.thumb
 1545              		.thumb_func
 1547              	LL_TriggerHigh:
 1548              	.LVL148:
 1549              	.LFB4829:
 802:../../Middlewares/AI_Runtime/Npu/ll_aton/ll_aton.c ****   if (irq >= ATON_INTCTRL_INTS(0))
 1550              		.loc 1 802 1 is_stmt 1 view -0
 1551              		.cfi_startproc
 1552              		@ args = 0, pretend = 0, frame = 0
 1553              		@ frame_needed = 0, uses_anonymous_args = 0
 1554              		@ link register save eliminated.
 803:../../Middlewares/AI_Runtime/Npu/ll_aton/ll_aton.c ****     return LL_ATON_INVALID_PARAM;
 1555              		.loc 1 803 3 view .LVU417
 803:../../Middlewares/AI_Runtime/Npu/ll_aton/ll_aton.c ****     return LL_ATON_INVALID_PARAM;
 1556              		.loc 1 803 6 is_stmt 0 view .LVU418
 1557 0000 1F28     		cmp	r0, #31
 1558 0002 0EDC     		bgt	.L134
 806:../../Middlewares/AI_Runtime/Npu/ll_aton/ll_aton.c ****   ATON_INTCTRL_INTSET_SET(0, (1 << ATON_INTCTRL_0_INTSET_EPOCHCTRL_0_1_IDX));
 1559              		.loc 1 806 3 is_stmt 1 view .LVU419
 806:../../Middlewares/AI_Runtime/Npu/ll_aton/ll_aton.c ****   ATON_INTCTRL_INTSET_SET(0, (1 << ATON_INTCTRL_0_INTSET_EPOCHCTRL_0_1_IDX));
 1560              		.loc 1 806 3 view .LVU420
 806:../../Middlewares/AI_Runtime/Npu/ll_aton/ll_aton.c ****   ATON_INTCTRL_INTSET_SET(0, (1 << ATON_INTCTRL_0_INTSET_EPOCHCTRL_0_1_IDX));
 1561              		.loc 1 806 3 view .LVU421
 1562 0004 084A     		ldr	r2, .L136
 806:../../Middlewares/AI_Runtime/Npu/ll_aton/ll_aton.c ****   ATON_INTCTRL_INTSET_SET(0, (1 << ATON_INTCTRL_0_INTSET_EPOCHCTRL_0_1_IDX));
 1563              		.loc 1 806 3 is_stmt 0 discriminator 1 view .LVU422
 1564 0006 094B     		ldr	r3, .L136+4
 1565 0008 0428     		cmp	r0, #4
 1566 000a 03EB8003 		add	r3, r3, r0, lsl #2
 806:../../Middlewares/AI_Runtime/Npu/ll_aton/ll_aton.c ****   ATON_INTCTRL_INTSET_SET(0, (1 << ATON_INTCTRL_0_INTSET_EPOCHCTRL_0_1_IDX));
 1567              		.loc 1 806 3 discriminator 4 view .LVU423
 1568 000e 6FF00051 		mvn	r1, #536870912
ARM GAS  C:\Users\Antonio\AppData\Local\Temp\ccynTwLp.s 			page 57


 806:../../Middlewares/AI_Runtime/Npu/ll_aton/ll_aton.c ****   ATON_INTCTRL_INTSET_SET(0, (1 << ATON_INTCTRL_0_INTSET_EPOCHCTRL_0_1_IDX));
 1569              		.loc 1 806 3 discriminator 1 view .LVU424
 1570 0012 28BF     		it	cs
 1571 0014 1346     		movcs	r3, r2
 806:../../Middlewares/AI_Runtime/Npu/ll_aton/ll_aton.c ****   ATON_INTCTRL_INTSET_SET(0, (1 << ATON_INTCTRL_0_INTSET_EPOCHCTRL_0_1_IDX));
 1572              		.loc 1 806 3 discriminator 4 view .LVU425
 1573 0016 1960     		str	r1, [r3]
 806:../../Middlewares/AI_Runtime/Npu/ll_aton/ll_aton.c ****   ATON_INTCTRL_INTSET_SET(0, (1 << ATON_INTCTRL_0_INTSET_EPOCHCTRL_0_1_IDX));
 1574              		.loc 1 806 3 is_stmt 1 discriminator 4 view .LVU426
 806:../../Middlewares/AI_Runtime/Npu/ll_aton/ll_aton.c ****   ATON_INTCTRL_INTSET_SET(0, (1 << ATON_INTCTRL_0_INTSET_EPOCHCTRL_0_1_IDX));
 1575              		.loc 1 806 3 discriminator 4 view .LVU427
 806:../../Middlewares/AI_Runtime/Npu/ll_aton/ll_aton.c ****   ATON_INTCTRL_INTSET_SET(0, (1 << ATON_INTCTRL_0_INTSET_EPOCHCTRL_0_1_IDX));
 1576              		.loc 1 806 3 discriminator 4 view .LVU428
 807:../../Middlewares/AI_Runtime/Npu/ll_aton/ll_aton.c ****   return 0;
 1577              		.loc 1 807 3 view .LVU429
 807:../../Middlewares/AI_Runtime/Npu/ll_aton/ll_aton.c ****   return 0;
 1578              		.loc 1 807 3 view .LVU430
 1579 0018 4FF00053 		mov	r3, #536870912
 808:../../Middlewares/AI_Runtime/Npu/ll_aton/ll_aton.c **** }
 1580              		.loc 1 808 10 is_stmt 0 view .LVU431
 1581 001c 0020     		movs	r0, #0
 1582              	.LVL149:
 807:../../Middlewares/AI_Runtime/Npu/ll_aton/ll_aton.c ****   return 0;
 1583              		.loc 1 807 3 view .LVU432
 1584 001e D360     		str	r3, [r2, #12]
 807:../../Middlewares/AI_Runtime/Npu/ll_aton/ll_aton.c ****   return 0;
 1585              		.loc 1 807 3 is_stmt 1 view .LVU433
 807:../../Middlewares/AI_Runtime/Npu/ll_aton/ll_aton.c ****   return 0;
 1586              		.loc 1 807 77 view .LVU434
 808:../../Middlewares/AI_Runtime/Npu/ll_aton/ll_aton.c **** }
 1587              		.loc 1 808 3 view .LVU435
 808:../../Middlewares/AI_Runtime/Npu/ll_aton/ll_aton.c **** }
 1588              		.loc 1 808 10 is_stmt 0 view .LVU436
 1589 0020 7047     		bx	lr
 1590              	.LVL150:
 1591              	.L134:
 804:../../Middlewares/AI_Runtime/Npu/ll_aton/ll_aton.c **** 
 1592              		.loc 1 804 12 view .LVU437
 1593 0022 6FF00100 		mvn	r0, #1
 1594              	.LVL151:
 809:../../Middlewares/AI_Runtime/Npu/ll_aton/ll_aton.c **** 
 1595              		.loc 1 809 1 view .LVU438
 1596 0026 7047     		bx	lr
 1597              	.L137:
 1598              		.align	2
 1599              	.L136:
 1600 0028 00100E58 		.word	1477316608
 1601 002c 14100E58 		.word	1477316628
 1602              		.cfi_endproc
 1603              	.LFE4829:
 1605              		.section	.text.LL_TriggerLow,"ax",%progbits
 1606              		.align	1
 1607              		.global	LL_TriggerLow
 1608              		.syntax unified
 1609              		.thumb
 1610              		.thumb_func
 1612              	LL_TriggerLow:
ARM GAS  C:\Users\Antonio\AppData\Local\Temp\ccynTwLp.s 			page 58


 1613              	.LVL152:
 1614              	.LFB4830:
 817:../../Middlewares/AI_Runtime/Npu/ll_aton/ll_aton.c ****   if (irq >= ATON_INTCTRL_INTS(0))
 1615              		.loc 1 817 1 is_stmt 1 view -0
 1616              		.cfi_startproc
 1617              		@ args = 0, pretend = 0, frame = 0
 1618              		@ frame_needed = 0, uses_anonymous_args = 0
 1619              		@ link register save eliminated.
 818:../../Middlewares/AI_Runtime/Npu/ll_aton/ll_aton.c ****     return LL_ATON_INVALID_PARAM;
 1620              		.loc 1 818 3 view .LVU440
 818:../../Middlewares/AI_Runtime/Npu/ll_aton/ll_aton.c ****     return LL_ATON_INVALID_PARAM;
 1621              		.loc 1 818 6 is_stmt 0 view .LVU441
 1622 0000 1F28     		cmp	r0, #31
 821:../../Middlewares/AI_Runtime/Npu/ll_aton/ll_aton.c ****   return 0;
 1623              		.loc 1 821 3 is_stmt 1 view .LVU442
 821:../../Middlewares/AI_Runtime/Npu/ll_aton/ll_aton.c ****   return 0;
 1624              		.loc 1 821 3 view .LVU443
 1625 0002 DFBF     		itttt	le
 1626 0004 4FF00052 		movle	r2, #536870912
 1627 0008 034B     		ldrle	r3, .L141
 822:../../Middlewares/AI_Runtime/Npu/ll_aton/ll_aton.c **** }
 1628              		.loc 1 822 10 is_stmt 0 view .LVU444
 1629 000a 0020     		movle	r0, #0
 1630              	.LVL153:
 821:../../Middlewares/AI_Runtime/Npu/ll_aton/ll_aton.c ****   return 0;
 1631              		.loc 1 821 3 view .LVU445
 1632 000c 1A61     		strle	r2, [r3, #16]
 821:../../Middlewares/AI_Runtime/Npu/ll_aton/ll_aton.c ****   return 0;
 1633              		.loc 1 821 3 is_stmt 1 view .LVU446
 821:../../Middlewares/AI_Runtime/Npu/ll_aton/ll_aton.c ****   return 0;
 1634              		.loc 1 821 77 view .LVU447
 822:../../Middlewares/AI_Runtime/Npu/ll_aton/ll_aton.c **** }
 1635              		.loc 1 822 3 view .LVU448
 819:../../Middlewares/AI_Runtime/Npu/ll_aton/ll_aton.c **** 
 1636              		.loc 1 819 12 is_stmt 0 view .LVU449
 1637 000e C8BF     		it	gt
 1638 0010 6FF00100 		mvngt	r0, #1
 823:../../Middlewares/AI_Runtime/Npu/ll_aton/ll_aton.c **** #endif
 1639              		.loc 1 823 1 view .LVU450
 1640 0014 7047     		bx	lr
 1641              	.L142:
 1642 0016 00BF     		.align	2
 1643              	.L141:
 1644 0018 00100E58 		.word	1477316608
 1645              		.cfi_endproc
 1646              	.LFE4830:
 1648              		.section	.rodata.__atonn_getSrcPortID.str1.1,"aMS",%progbits,1
 1649              	.LC20:
 1650 0000 73755F6E 		.ascii	"su_num == 0\000"
 1650      756D203D 
 1650      3D203000 
 1651              	.LC21:
 1652 000c 706F7274 		.ascii	"port == 0\000"
 1652      203D3D20 
 1652      3000
 1653              	.LC22:
 1654 0016 61755F6E 		.ascii	"au_num < 10\000"
ARM GAS  C:\Users\Antonio\AppData\Local\Temp\ccynTwLp.s 			page 59


 1654      756D203C 
 1654      20313000 
 1655              	.LC23:
 1656 0022 61755F6E 		.ascii	"au_num < 4\000"
 1656      756D203C 
 1656      203400
 1657              	.LC24:
 1658 002d 61755F6E 		.ascii	"au_num < 2\000"
 1658      756D203C 
 1658      203200
 1659              		.section	.text.__atonn_getSrcPortID,"ax",%progbits
 1660              		.align	1
 1661              		.global	__atonn_getSrcPortID
 1662              		.syntax unified
 1663              		.thumb
 1664              		.thumb_func
 1666              	__atonn_getSrcPortID:
 1667              	.LVL154:
 1668              	.LFB4831:
 828:../../Middlewares/AI_Runtime/Npu/ll_aton/ll_aton.c ****   // FIXME
 1669              		.loc 1 828 1 is_stmt 1 view -0
 1670              		.cfi_startproc
 1671              		@ args = 4, pretend = 0, frame = 0
 1672              		@ frame_needed = 0, uses_anonymous_args = 0
 830:../../Middlewares/AI_Runtime/Npu/ll_aton/ll_aton.c ****   switch (sut)
 1673              		.loc 1 830 3 view .LVU452
 828:../../Middlewares/AI_Runtime/Npu/ll_aton/ll_aton.c ****   // FIXME
 1674              		.loc 1 828 1 is_stmt 0 view .LVU453
 1675 0000 38B5     		push	{r3, r4, r5, lr}
 1676              		.cfi_def_cfa_offset 16
 1677              		.cfi_offset 3, -16
 1678              		.cfi_offset 4, -12
 1679              		.cfi_offset 5, -8
 1680              		.cfi_offset 14, -4
 828:../../Middlewares/AI_Runtime/Npu/ll_aton/ll_aton.c ****   // FIXME
 1681              		.loc 1 828 1 view .LVU454
 1682 0002 0546     		mov	r5, r0
 1683 0004 9DF81040 		ldrb	r4, [sp, #16]	@ zero_extendqisi2
 830:../../Middlewares/AI_Runtime/Npu/ll_aton/ll_aton.c ****   switch (sut)
 1684              		.loc 1 830 3 view .LVU455
 1685 0008 0846     		mov	r0, r1
 1686              	.LVL155:
 830:../../Middlewares/AI_Runtime/Npu/ll_aton/ll_aton.c ****   switch (sut)
 1687              		.loc 1 830 3 view .LVU456
 1688 000a 31B1     		cbz	r1, .L144
 830:../../Middlewares/AI_Runtime/Npu/ll_aton/ll_aton.c ****   switch (sut)
 1689              		.loc 1 830 3 discriminator 1 view .LVU457
 1690 000c 40F23E31 		movw	r1, #830
 1691              	.LVL156:
 830:../../Middlewares/AI_Runtime/Npu/ll_aton/ll_aton.c ****   switch (sut)
 1692              		.loc 1 830 3 discriminator 1 view .LVU458
 1693 0010 3D4B     		ldr	r3, .L170
 1694              	.LVL157:
 830:../../Middlewares/AI_Runtime/Npu/ll_aton/ll_aton.c ****   switch (sut)
 1695              		.loc 1 830 3 discriminator 1 view .LVU459
 1696 0012 3E4A     		ldr	r2, .L170+4
 1697              	.LVL158:
ARM GAS  C:\Users\Antonio\AppData\Local\Temp\ccynTwLp.s 			page 60


 1698              	.L169:
 838:../../Middlewares/AI_Runtime/Npu/ll_aton/ll_aton.c ****       LL_ATON_ASSERT(au_num < ATON_STRENG_NUM);
 1699              		.loc 1 838 7 discriminator 1 view .LVU460
 1700 0014 3E48     		ldr	r0, .L170+8
 1701 0016 FFF7FEFF 		bl	__assert_func
 1702              	.LVL159:
 1703              	.L144:
 831:../../Middlewares/AI_Runtime/Npu/ll_aton/ll_aton.c ****   {
 1704              		.loc 1 831 3 is_stmt 1 view .LVU461
 1705 001a 25B1     		cbz	r5, .L145
 1706 001c 012D     		cmp	r5, #1
 1707 001e 68D0     		beq	.L146
 1708 0020 022D     		cmp	r5, #2
 1709 0022 6BD0     		beq	.L147
 1710              	.LVL160:
 1711              	.L143:
 893:../../Middlewares/AI_Runtime/Npu/ll_aton/ll_aton.c **** 
 1712              		.loc 1 893 1 is_stmt 0 view .LVU462
 1713 0024 38BD     		pop	{r3, r4, r5, pc}
 1714              	.LVL161:
 1715              	.L145:
 834:../../Middlewares/AI_Runtime/Npu/ll_aton/ll_aton.c ****     {
 1716              		.loc 1 834 5 is_stmt 1 view .LVU463
 1717 0026 062A     		cmp	r2, #6
 1718 0028 5ED8     		bhi	.L149
 1719 002a DFE802F0 		tbb	[pc, r2]
 1720              	.LVL162:
 1721              	.L151:
 1722 002e 04       		.byte	(.L156-.L151)/2
 1723 002f 5D       		.byte	(.L149-.L151)/2
 1724 0030 12       		.byte	(.L155-.L151)/2
 1725 0031 21       		.byte	(.L154-.L151)/2
 1726 0032 30       		.byte	(.L153-.L151)/2
 1727 0033 3F       		.byte	(.L152-.L151)/2
 1728 0034 4E       		.byte	(.L150-.L151)/2
 1729 0035 00       		.p2align 1
 1730              	.L156:
 838:../../Middlewares/AI_Runtime/Npu/ll_aton/ll_aton.c ****       LL_ATON_ASSERT(au_num < ATON_STRENG_NUM);
 1731              		.loc 1 838 7 view .LVU464
 1732 0036 24B1     		cbz	r4, .L157
 838:../../Middlewares/AI_Runtime/Npu/ll_aton/ll_aton.c ****       LL_ATON_ASSERT(au_num < ATON_STRENG_NUM);
 1733              		.loc 1 838 7 is_stmt 0 discriminator 1 view .LVU465
 1734 0038 40F24631 		movw	r1, #838
 1735 003c 354B     		ldr	r3, .L170+12
 1736              	.LVL163:
 838:../../Middlewares/AI_Runtime/Npu/ll_aton/ll_aton.c ****       LL_ATON_ASSERT(au_num < ATON_STRENG_NUM);
 1737              		.loc 1 838 7 discriminator 1 view .LVU466
 1738 003e 334A     		ldr	r2, .L170+4
 1739              	.LVL164:
 838:../../Middlewares/AI_Runtime/Npu/ll_aton/ll_aton.c ****       LL_ATON_ASSERT(au_num < ATON_STRENG_NUM);
 1740              		.loc 1 838 7 discriminator 1 view .LVU467
 1741 0040 E8E7     		b	.L169
 1742              	.LVL165:
 1743              	.L157:
 839:../../Middlewares/AI_Runtime/Npu/ll_aton/ll_aton.c ****       return ATONN_CONST_SRCPORT(STRSWITCH, 0, STRENG, 0, 0) + au_num;
 1744              		.loc 1 839 7 is_stmt 1 view .LVU468
 1745 0042 092B     		cmp	r3, #9
ARM GAS  C:\Users\Antonio\AppData\Local\Temp\ccynTwLp.s 			page 61


 840:../../Middlewares/AI_Runtime/Npu/ll_aton/ll_aton.c ****       break;
 1746              		.loc 1 840 62 is_stmt 0 view .LVU469
 1747 0044 1846     		mov	r0, r3
 1748              	.LVL166:
 839:../../Middlewares/AI_Runtime/Npu/ll_aton/ll_aton.c ****       return ATONN_CONST_SRCPORT(STRSWITCH, 0, STRENG, 0, 0) + au_num;
 1749              		.loc 1 839 7 view .LVU470
 1750 0046 EDD9     		bls	.L143
 839:../../Middlewares/AI_Runtime/Npu/ll_aton/ll_aton.c ****       return ATONN_CONST_SRCPORT(STRSWITCH, 0, STRENG, 0, 0) + au_num;
 1751              		.loc 1 839 7 discriminator 1 view .LVU471
 1752 0048 40F24731 		movw	r1, #839
 1753 004c 324B     		ldr	r3, .L170+16
 1754              	.LVL167:
 839:../../Middlewares/AI_Runtime/Npu/ll_aton/ll_aton.c ****       return ATONN_CONST_SRCPORT(STRSWITCH, 0, STRENG, 0, 0) + au_num;
 1755              		.loc 1 839 7 discriminator 1 view .LVU472
 1756 004e 2F4A     		ldr	r2, .L170+4
 1757              	.LVL168:
 839:../../Middlewares/AI_Runtime/Npu/ll_aton/ll_aton.c ****       return ATONN_CONST_SRCPORT(STRSWITCH, 0, STRENG, 0, 0) + au_num;
 1758              		.loc 1 839 7 discriminator 1 view .LVU473
 1759 0050 E0E7     		b	.L169
 1760              	.LVL169:
 1761              	.L155:
 841:../../Middlewares/AI_Runtime/Npu/ll_aton/ll_aton.c **** #endif
 1762              		.loc 1 841 7 is_stmt 1 view .LVU474
 845:../../Middlewares/AI_Runtime/Npu/ll_aton/ll_aton.c ****       LL_ATON_ASSERT(au_num < ATON_CONVACC_NUM);
 1763              		.loc 1 845 7 view .LVU475
 1764 0052 24B1     		cbz	r4, .L159
 845:../../Middlewares/AI_Runtime/Npu/ll_aton/ll_aton.c ****       LL_ATON_ASSERT(au_num < ATON_CONVACC_NUM);
 1765              		.loc 1 845 7 is_stmt 0 discriminator 1 view .LVU476
 1766 0054 40F24D31 		movw	r1, #845
 1767 0058 2E4B     		ldr	r3, .L170+12
 1768              	.LVL170:
 845:../../Middlewares/AI_Runtime/Npu/ll_aton/ll_aton.c ****       LL_ATON_ASSERT(au_num < ATON_CONVACC_NUM);
 1769              		.loc 1 845 7 discriminator 1 view .LVU477
 1770 005a 2C4A     		ldr	r2, .L170+4
 1771              	.LVL171:
 845:../../Middlewares/AI_Runtime/Npu/ll_aton/ll_aton.c ****       LL_ATON_ASSERT(au_num < ATON_CONVACC_NUM);
 1772              		.loc 1 845 7 discriminator 1 view .LVU478
 1773 005c DAE7     		b	.L169
 1774              	.LVL172:
 1775              	.L159:
 846:../../Middlewares/AI_Runtime/Npu/ll_aton/ll_aton.c ****       return ATONN_CONST_SRCPORT(STRSWITCH, 0, CONVACC, 0, 0) + au_num;
 1776              		.loc 1 846 7 is_stmt 1 view .LVU479
 1777 005e 032B     		cmp	r3, #3
 847:../../Middlewares/AI_Runtime/Npu/ll_aton/ll_aton.c ****       break;
 1778              		.loc 1 847 63 is_stmt 0 view .LVU480
 1779 0060 03F10A00 		add	r0, r3, #10
 846:../../Middlewares/AI_Runtime/Npu/ll_aton/ll_aton.c ****       return ATONN_CONST_SRCPORT(STRSWITCH, 0, CONVACC, 0, 0) + au_num;
 1780              		.loc 1 846 7 view .LVU481
 1781 0064 DED9     		bls	.L143
 846:../../Middlewares/AI_Runtime/Npu/ll_aton/ll_aton.c ****       return ATONN_CONST_SRCPORT(STRSWITCH, 0, CONVACC, 0, 0) + au_num;
 1782              		.loc 1 846 7 discriminator 1 view .LVU482
 1783 0066 40F24E31 		movw	r1, #846
 1784 006a 2C4B     		ldr	r3, .L170+20
 1785              	.LVL173:
 846:../../Middlewares/AI_Runtime/Npu/ll_aton/ll_aton.c ****       return ATONN_CONST_SRCPORT(STRSWITCH, 0, CONVACC, 0, 0) + au_num;
 1786              		.loc 1 846 7 discriminator 1 view .LVU483
 1787 006c 274A     		ldr	r2, .L170+4
ARM GAS  C:\Users\Antonio\AppData\Local\Temp\ccynTwLp.s 			page 62


 1788              	.LVL174:
 846:../../Middlewares/AI_Runtime/Npu/ll_aton/ll_aton.c ****       return ATONN_CONST_SRCPORT(STRSWITCH, 0, CONVACC, 0, 0) + au_num;
 1789              		.loc 1 846 7 discriminator 1 view .LVU484
 1790 006e D1E7     		b	.L169
 1791              	.LVL175:
 1792              	.L154:
 848:../../Middlewares/AI_Runtime/Npu/ll_aton/ll_aton.c **** #endif
 1793              		.loc 1 848 7 is_stmt 1 view .LVU485
 852:../../Middlewares/AI_Runtime/Npu/ll_aton/ll_aton.c ****       LL_ATON_ASSERT(au_num < ATON_DECUN_NUM);
 1794              		.loc 1 852 7 view .LVU486
 1795 0070 24B1     		cbz	r4, .L161
 852:../../Middlewares/AI_Runtime/Npu/ll_aton/ll_aton.c ****       LL_ATON_ASSERT(au_num < ATON_DECUN_NUM);
 1796              		.loc 1 852 7 is_stmt 0 discriminator 1 view .LVU487
 1797 0072 4FF45571 		mov	r1, #852
 1798 0076 274B     		ldr	r3, .L170+12
 1799              	.LVL176:
 852:../../Middlewares/AI_Runtime/Npu/ll_aton/ll_aton.c ****       LL_ATON_ASSERT(au_num < ATON_DECUN_NUM);
 1800              		.loc 1 852 7 discriminator 1 view .LVU488
 1801 0078 244A     		ldr	r2, .L170+4
 1802              	.LVL177:
 852:../../Middlewares/AI_Runtime/Npu/ll_aton/ll_aton.c ****       LL_ATON_ASSERT(au_num < ATON_DECUN_NUM);
 1803              		.loc 1 852 7 discriminator 1 view .LVU489
 1804 007a CBE7     		b	.L169
 1805              	.LVL178:
 1806              	.L161:
 853:../../Middlewares/AI_Runtime/Npu/ll_aton/ll_aton.c ****       return ATONN_CONST_SRCPORT(STRSWITCH, 0, DECUN, 0, 0) + au_num;
 1807              		.loc 1 853 7 is_stmt 1 view .LVU490
 1808 007c 012B     		cmp	r3, #1
 854:../../Middlewares/AI_Runtime/Npu/ll_aton/ll_aton.c ****       break;
 1809              		.loc 1 854 61 is_stmt 0 view .LVU491
 1810 007e 03F10E00 		add	r0, r3, #14
 853:../../Middlewares/AI_Runtime/Npu/ll_aton/ll_aton.c ****       return ATONN_CONST_SRCPORT(STRSWITCH, 0, DECUN, 0, 0) + au_num;
 1811              		.loc 1 853 7 view .LVU492
 1812 0082 CFD9     		bls	.L143
 853:../../Middlewares/AI_Runtime/Npu/ll_aton/ll_aton.c ****       return ATONN_CONST_SRCPORT(STRSWITCH, 0, DECUN, 0, 0) + au_num;
 1813              		.loc 1 853 7 discriminator 1 view .LVU493
 1814 0084 40F25531 		movw	r1, #853
 1815 0088 254B     		ldr	r3, .L170+24
 1816              	.LVL179:
 853:../../Middlewares/AI_Runtime/Npu/ll_aton/ll_aton.c ****       return ATONN_CONST_SRCPORT(STRSWITCH, 0, DECUN, 0, 0) + au_num;
 1817              		.loc 1 853 7 discriminator 1 view .LVU494
 1818 008a 204A     		ldr	r2, .L170+4
 1819              	.LVL180:
 853:../../Middlewares/AI_Runtime/Npu/ll_aton/ll_aton.c ****       return ATONN_CONST_SRCPORT(STRSWITCH, 0, DECUN, 0, 0) + au_num;
 1820              		.loc 1 853 7 discriminator 1 view .LVU495
 1821 008c C2E7     		b	.L169
 1822              	.LVL181:
 1823              	.L153:
 855:../../Middlewares/AI_Runtime/Npu/ll_aton/ll_aton.c **** #endif
 1824              		.loc 1 855 7 is_stmt 1 view .LVU496
 859:../../Middlewares/AI_Runtime/Npu/ll_aton/ll_aton.c ****       LL_ATON_ASSERT(au_num < ATON_ACTIV_NUM);
 1825              		.loc 1 859 7 view .LVU497
 1826 008e 24B1     		cbz	r4, .L163
 859:../../Middlewares/AI_Runtime/Npu/ll_aton/ll_aton.c ****       LL_ATON_ASSERT(au_num < ATON_ACTIV_NUM);
 1827              		.loc 1 859 7 is_stmt 0 discriminator 1 view .LVU498
 1828 0090 40F25B31 		movw	r1, #859
 1829 0094 1F4B     		ldr	r3, .L170+12
ARM GAS  C:\Users\Antonio\AppData\Local\Temp\ccynTwLp.s 			page 63


 1830              	.LVL182:
 859:../../Middlewares/AI_Runtime/Npu/ll_aton/ll_aton.c ****       LL_ATON_ASSERT(au_num < ATON_ACTIV_NUM);
 1831              		.loc 1 859 7 discriminator 1 view .LVU499
 1832 0096 1D4A     		ldr	r2, .L170+4
 1833              	.LVL183:
 859:../../Middlewares/AI_Runtime/Npu/ll_aton/ll_aton.c ****       LL_ATON_ASSERT(au_num < ATON_ACTIV_NUM);
 1834              		.loc 1 859 7 discriminator 1 view .LVU500
 1835 0098 BCE7     		b	.L169
 1836              	.LVL184:
 1837              	.L163:
 860:../../Middlewares/AI_Runtime/Npu/ll_aton/ll_aton.c ****       return ATONN_CONST_SRCPORT(STRSWITCH, 0, ACTIV, 0, 0) + au_num;
 1838              		.loc 1 860 7 is_stmt 1 view .LVU501
 1839 009a 012B     		cmp	r3, #1
 861:../../Middlewares/AI_Runtime/Npu/ll_aton/ll_aton.c ****       break;
 1840              		.loc 1 861 61 is_stmt 0 view .LVU502
 1841 009c 03F11000 		add	r0, r3, #16
 860:../../Middlewares/AI_Runtime/Npu/ll_aton/ll_aton.c ****       return ATONN_CONST_SRCPORT(STRSWITCH, 0, ACTIV, 0, 0) + au_num;
 1842              		.loc 1 860 7 view .LVU503
 1843 00a0 C0D9     		bls	.L143
 860:../../Middlewares/AI_Runtime/Npu/ll_aton/ll_aton.c ****       return ATONN_CONST_SRCPORT(STRSWITCH, 0, ACTIV, 0, 0) + au_num;
 1844              		.loc 1 860 7 discriminator 1 view .LVU504
 1845 00a2 4FF45771 		mov	r1, #860
 1846 00a6 1E4B     		ldr	r3, .L170+24
 1847              	.LVL185:
 860:../../Middlewares/AI_Runtime/Npu/ll_aton/ll_aton.c ****       return ATONN_CONST_SRCPORT(STRSWITCH, 0, ACTIV, 0, 0) + au_num;
 1848              		.loc 1 860 7 discriminator 1 view .LVU505
 1849 00a8 184A     		ldr	r2, .L170+4
 1850              	.LVL186:
 860:../../Middlewares/AI_Runtime/Npu/ll_aton/ll_aton.c ****       return ATONN_CONST_SRCPORT(STRSWITCH, 0, ACTIV, 0, 0) + au_num;
 1851              		.loc 1 860 7 discriminator 1 view .LVU506
 1852 00aa B3E7     		b	.L169
 1853              	.LVL187:
 1854              	.L152:
 862:../../Middlewares/AI_Runtime/Npu/ll_aton/ll_aton.c **** #endif
 1855              		.loc 1 862 7 is_stmt 1 view .LVU507
 866:../../Middlewares/AI_Runtime/Npu/ll_aton/ll_aton.c ****       LL_ATON_ASSERT(au_num < ATON_ARITH_NUM);
 1856              		.loc 1 866 7 view .LVU508
 1857 00ac 24B1     		cbz	r4, .L165
 866:../../Middlewares/AI_Runtime/Npu/ll_aton/ll_aton.c ****       LL_ATON_ASSERT(au_num < ATON_ARITH_NUM);
 1858              		.loc 1 866 7 is_stmt 0 discriminator 1 view .LVU509
 1859 00ae 40F26231 		movw	r1, #866
 1860 00b2 184B     		ldr	r3, .L170+12
 1861              	.LVL188:
 866:../../Middlewares/AI_Runtime/Npu/ll_aton/ll_aton.c ****       LL_ATON_ASSERT(au_num < ATON_ARITH_NUM);
 1862              		.loc 1 866 7 discriminator 1 view .LVU510
 1863 00b4 154A     		ldr	r2, .L170+4
 1864              	.LVL189:
 866:../../Middlewares/AI_Runtime/Npu/ll_aton/ll_aton.c ****       LL_ATON_ASSERT(au_num < ATON_ARITH_NUM);
 1865              		.loc 1 866 7 discriminator 1 view .LVU511
 1866 00b6 ADE7     		b	.L169
 1867              	.LVL190:
 1868              	.L165:
 867:../../Middlewares/AI_Runtime/Npu/ll_aton/ll_aton.c ****       return ATONN_CONST_SRCPORT(STRSWITCH, 0, ARITH, 0, 0) + au_num;
 1869              		.loc 1 867 7 is_stmt 1 view .LVU512
 1870 00b8 032B     		cmp	r3, #3
 868:../../Middlewares/AI_Runtime/Npu/ll_aton/ll_aton.c ****       break;
 1871              		.loc 1 868 61 is_stmt 0 view .LVU513
ARM GAS  C:\Users\Antonio\AppData\Local\Temp\ccynTwLp.s 			page 64


 1872 00ba 03F11200 		add	r0, r3, #18
 867:../../Middlewares/AI_Runtime/Npu/ll_aton/ll_aton.c ****       return ATONN_CONST_SRCPORT(STRSWITCH, 0, ARITH, 0, 0) + au_num;
 1873              		.loc 1 867 7 view .LVU514
 1874 00be B1D9     		bls	.L143
 867:../../Middlewares/AI_Runtime/Npu/ll_aton/ll_aton.c ****       return ATONN_CONST_SRCPORT(STRSWITCH, 0, ARITH, 0, 0) + au_num;
 1875              		.loc 1 867 7 discriminator 1 view .LVU515
 1876 00c0 40F26331 		movw	r1, #867
 1877 00c4 154B     		ldr	r3, .L170+20
 1878              	.LVL191:
 867:../../Middlewares/AI_Runtime/Npu/ll_aton/ll_aton.c ****       return ATONN_CONST_SRCPORT(STRSWITCH, 0, ARITH, 0, 0) + au_num;
 1879              		.loc 1 867 7 discriminator 1 view .LVU516
 1880 00c6 114A     		ldr	r2, .L170+4
 1881              	.LVL192:
 867:../../Middlewares/AI_Runtime/Npu/ll_aton/ll_aton.c ****       return ATONN_CONST_SRCPORT(STRSWITCH, 0, ARITH, 0, 0) + au_num;
 1882              		.loc 1 867 7 discriminator 1 view .LVU517
 1883 00c8 A4E7     		b	.L169
 1884              	.LVL193:
 1885              	.L150:
 869:../../Middlewares/AI_Runtime/Npu/ll_aton/ll_aton.c **** #endif
 1886              		.loc 1 869 7 is_stmt 1 view .LVU518
 873:../../Middlewares/AI_Runtime/Npu/ll_aton/ll_aton.c ****       LL_ATON_ASSERT(au_num < ATON_POOL_NUM);
 1887              		.loc 1 873 7 view .LVU519
 1888 00ca 24B1     		cbz	r4, .L167
 873:../../Middlewares/AI_Runtime/Npu/ll_aton/ll_aton.c ****       LL_ATON_ASSERT(au_num < ATON_POOL_NUM);
 1889              		.loc 1 873 7 is_stmt 0 discriminator 1 view .LVU520
 1890 00cc 40F26931 		movw	r1, #873
 1891 00d0 104B     		ldr	r3, .L170+12
 1892              	.LVL194:
 873:../../Middlewares/AI_Runtime/Npu/ll_aton/ll_aton.c ****       LL_ATON_ASSERT(au_num < ATON_POOL_NUM);
 1893              		.loc 1 873 7 discriminator 1 view .LVU521
 1894 00d2 0E4A     		ldr	r2, .L170+4
 1895              	.LVL195:
 873:../../Middlewares/AI_Runtime/Npu/ll_aton/ll_aton.c ****       LL_ATON_ASSERT(au_num < ATON_POOL_NUM);
 1896              		.loc 1 873 7 discriminator 1 view .LVU522
 1897 00d4 9EE7     		b	.L169
 1898              	.LVL196:
 1899              	.L167:
 874:../../Middlewares/AI_Runtime/Npu/ll_aton/ll_aton.c ****       return ATONN_CONST_SRCPORT(STRSWITCH, 0, POOL, 0, 0) + au_num;
 1900              		.loc 1 874 7 is_stmt 1 view .LVU523
 1901 00d6 012B     		cmp	r3, #1
 875:../../Middlewares/AI_Runtime/Npu/ll_aton/ll_aton.c ****       break;
 1902              		.loc 1 875 60 is_stmt 0 view .LVU524
 1903 00d8 03F11600 		add	r0, r3, #22
 874:../../Middlewares/AI_Runtime/Npu/ll_aton/ll_aton.c ****       return ATONN_CONST_SRCPORT(STRSWITCH, 0, POOL, 0, 0) + au_num;
 1904              		.loc 1 874 7 view .LVU525
 1905 00dc A2D9     		bls	.L143
 874:../../Middlewares/AI_Runtime/Npu/ll_aton/ll_aton.c ****       return ATONN_CONST_SRCPORT(STRSWITCH, 0, POOL, 0, 0) + au_num;
 1906              		.loc 1 874 7 discriminator 1 view .LVU526
 1907 00de 40F26A31 		movw	r1, #874
 1908 00e2 0F4B     		ldr	r3, .L170+24
 1909              	.LVL197:
 874:../../Middlewares/AI_Runtime/Npu/ll_aton/ll_aton.c ****       return ATONN_CONST_SRCPORT(STRSWITCH, 0, POOL, 0, 0) + au_num;
 1910              		.loc 1 874 7 discriminator 1 view .LVU527
 1911 00e4 094A     		ldr	r2, .L170+4
 1912              	.LVL198:
 874:../../Middlewares/AI_Runtime/Npu/ll_aton/ll_aton.c ****       return ATONN_CONST_SRCPORT(STRSWITCH, 0, POOL, 0, 0) + au_num;
 1913              		.loc 1 874 7 discriminator 1 view .LVU528
ARM GAS  C:\Users\Antonio\AppData\Local\Temp\ccynTwLp.s 			page 65


 1914 00e6 95E7     		b	.L169
 1915              	.LVL199:
 1916              	.L149:
 876:../../Middlewares/AI_Runtime/Npu/ll_aton/ll_aton.c **** #endif
 1917              		.loc 1 876 7 is_stmt 1 view .LVU529
 879:../../Middlewares/AI_Runtime/Npu/ll_aton/ll_aton.c ****       break;
 1918              		.loc 1 879 7 view .LVU530
 1919 00e8 40F26F31 		movw	r1, #879
 1920 00ec 0D4B     		ldr	r3, .L170+28
 1921              	.LVL200:
 879:../../Middlewares/AI_Runtime/Npu/ll_aton/ll_aton.c ****       break;
 1922              		.loc 1 879 7 is_stmt 0 view .LVU531
 1923 00ee 074A     		ldr	r2, .L170+4
 1924              	.LVL201:
 879:../../Middlewares/AI_Runtime/Npu/ll_aton/ll_aton.c ****       break;
 1925              		.loc 1 879 7 view .LVU532
 1926 00f0 90E7     		b	.L169
 1927              	.LVL202:
 1928              	.L146:
 885:../../Middlewares/AI_Runtime/Npu/ll_aton/ll_aton.c ****     break;
 1929              		.loc 1 885 5 is_stmt 1 view .LVU533
 1930 00f2 40F27531 		movw	r1, #885
 1931              	.LVL203:
 885:../../Middlewares/AI_Runtime/Npu/ll_aton/ll_aton.c ****     break;
 1932              		.loc 1 885 5 is_stmt 0 view .LVU534
 1933 00f6 0B4B     		ldr	r3, .L170+28
 1934              	.LVL204:
 885:../../Middlewares/AI_Runtime/Npu/ll_aton/ll_aton.c ****     break;
 1935              		.loc 1 885 5 view .LVU535
 1936 00f8 044A     		ldr	r2, .L170+4
 1937              	.LVL205:
 885:../../Middlewares/AI_Runtime/Npu/ll_aton/ll_aton.c ****     break;
 1938              		.loc 1 885 5 view .LVU536
 1939 00fa 8BE7     		b	.L169
 1940              	.LVL206:
 1941              	.L147:
 886:../../Middlewares/AI_Runtime/Npu/ll_aton/ll_aton.c ****   case STRSWITCH_VC:
 1942              		.loc 1 886 5 is_stmt 1 view .LVU537
 889:../../Middlewares/AI_Runtime/Npu/ll_aton/ll_aton.c ****     break;
 1943              		.loc 1 889 5 view .LVU538
 1944 00fc 40F27931 		movw	r1, #889
 1945              	.LVL207:
 889:../../Middlewares/AI_Runtime/Npu/ll_aton/ll_aton.c ****     break;
 1946              		.loc 1 889 5 is_stmt 0 view .LVU539
 1947 0100 084B     		ldr	r3, .L170+28
 1948              	.LVL208:
 889:../../Middlewares/AI_Runtime/Npu/ll_aton/ll_aton.c ****     break;
 1949              		.loc 1 889 5 view .LVU540
 1950 0102 024A     		ldr	r2, .L170+4
 1951              	.LVL209:
 889:../../Middlewares/AI_Runtime/Npu/ll_aton/ll_aton.c ****     break;
 1952              		.loc 1 889 5 view .LVU541
 1953 0104 86E7     		b	.L169
 1954              	.L171:
 1955 0106 00BF     		.align	2
 1956              	.L170:
 1957 0108 00000000 		.word	.LC20
ARM GAS  C:\Users\Antonio\AppData\Local\Temp\ccynTwLp.s 			page 66


 1958 010c 00000000 		.word	__func__.6
 1959 0110 05000000 		.word	.LC4
 1960 0114 0C000000 		.word	.LC21
 1961 0118 16000000 		.word	.LC22
 1962 011c 22000000 		.word	.LC23
 1963 0120 2D000000 		.word	.LC24
 1964 0124 A3000000 		.word	.LC7
 1965              		.cfi_endproc
 1966              	.LFE4831:
 1968              		.section	.rodata.__atonn_getDstPortID.str1.1,"aMS",%progbits,1
 1969              	.LC25:
 1970 0000 706F7274 		.ascii	"port < 3\000"
 1970      203C2033 
 1970      00
 1971              	.LC26:
 1972 0009 706F7274 		.ascii	"port < 2\000"
 1972      203C2032 
 1972      00
 1973              		.section	.text.__atonn_getDstPortID,"ax",%progbits
 1974              		.align	1
 1975              		.global	__atonn_getDstPortID
 1976              		.syntax unified
 1977              		.thumb
 1978              		.thumb_func
 1980              	__atonn_getDstPortID:
 1981              	.LVL210:
 1982              	.LFB4832:
 897:../../Middlewares/AI_Runtime/Npu/ll_aton/ll_aton.c ****   // FIXME
 1983              		.loc 1 897 1 is_stmt 1 view -0
 1984              		.cfi_startproc
 1985              		@ args = 4, pretend = 0, frame = 0
 1986              		@ frame_needed = 0, uses_anonymous_args = 0
 899:../../Middlewares/AI_Runtime/Npu/ll_aton/ll_aton.c ****   switch (sut)
 1987              		.loc 1 899 3 view .LVU543
 897:../../Middlewares/AI_Runtime/Npu/ll_aton/ll_aton.c ****   // FIXME
 1988              		.loc 1 897 1 is_stmt 0 view .LVU544
 1989 0000 38B5     		push	{r3, r4, r5, lr}
 1990              		.cfi_def_cfa_offset 16
 1991              		.cfi_offset 3, -16
 1992              		.cfi_offset 4, -12
 1993              		.cfi_offset 5, -8
 1994              		.cfi_offset 14, -4
 897:../../Middlewares/AI_Runtime/Npu/ll_aton/ll_aton.c ****   // FIXME
 1995              		.loc 1 897 1 view .LVU545
 1996 0002 0546     		mov	r5, r0
 1997 0004 9DF81040 		ldrb	r4, [sp, #16]	@ zero_extendqisi2
 899:../../Middlewares/AI_Runtime/Npu/ll_aton/ll_aton.c ****   switch (sut)
 1998              		.loc 1 899 3 view .LVU546
 1999 0008 0846     		mov	r0, r1
 2000              	.LVL211:
 899:../../Middlewares/AI_Runtime/Npu/ll_aton/ll_aton.c ****   switch (sut)
 2001              		.loc 1 899 3 view .LVU547
 2002 000a 31B1     		cbz	r1, .L173
 899:../../Middlewares/AI_Runtime/Npu/ll_aton/ll_aton.c ****   switch (sut)
 2003              		.loc 1 899 3 discriminator 1 view .LVU548
 2004 000c 40F28331 		movw	r1, #899
 2005              	.LVL212:
ARM GAS  C:\Users\Antonio\AppData\Local\Temp\ccynTwLp.s 			page 67


 899:../../Middlewares/AI_Runtime/Npu/ll_aton/ll_aton.c ****   switch (sut)
 2006              		.loc 1 899 3 discriminator 1 view .LVU549
 2007 0010 464B     		ldr	r3, .L200
 2008              	.LVL213:
 899:../../Middlewares/AI_Runtime/Npu/ll_aton/ll_aton.c ****   switch (sut)
 2009              		.loc 1 899 3 discriminator 1 view .LVU550
 2010 0012 474A     		ldr	r2, .L200+4
 2011              	.LVL214:
 2012              	.L199:
 907:../../Middlewares/AI_Runtime/Npu/ll_aton/ll_aton.c ****       LL_ATON_ASSERT(au_num < ATON_STRENG_NUM);
 2013              		.loc 1 907 7 discriminator 1 view .LVU551
 2014 0014 4748     		ldr	r0, .L200+8
 2015              	.LVL215:
 907:../../Middlewares/AI_Runtime/Npu/ll_aton/ll_aton.c ****       LL_ATON_ASSERT(au_num < ATON_STRENG_NUM);
 2016              		.loc 1 907 7 discriminator 1 view .LVU552
 2017 0016 FFF7FEFF 		bl	__assert_func
 2018              	.LVL216:
 2019              	.L173:
 900:../../Middlewares/AI_Runtime/Npu/ll_aton/ll_aton.c ****   {
 2020              		.loc 1 900 3 is_stmt 1 view .LVU553
 2021 001a 25B1     		cbz	r5, .L174
 2022 001c 012D     		cmp	r5, #1
 2023 001e 7AD0     		beq	.L175
 2024 0020 022D     		cmp	r5, #2
 2025 0022 7DD0     		beq	.L176
 2026              	.LVL217:
 2027              	.L172:
 962:../../Middlewares/AI_Runtime/Npu/ll_aton/ll_aton.c **** 
 2028              		.loc 1 962 1 is_stmt 0 view .LVU554
 2029 0024 38BD     		pop	{r3, r4, r5, pc}
 2030              	.LVL218:
 2031              	.L174:
 903:../../Middlewares/AI_Runtime/Npu/ll_aton/ll_aton.c ****     {
 2032              		.loc 1 903 5 is_stmt 1 view .LVU555
 2033 0026 062A     		cmp	r2, #6
 2034 0028 70D8     		bhi	.L178
 2035 002a DFE802F0 		tbb	[pc, r2]
 2036              	.LVL219:
 2037              	.L180:
 2038 002e 04       		.byte	(.L185-.L180)/2
 2039 002f 6F       		.byte	(.L178-.L180)/2
 2040 0030 15       		.byte	(.L184-.L180)/2
 2041 0031 29       		.byte	(.L183-.L180)/2
 2042 0032 3D       		.byte	(.L182-.L180)/2
 2043 0033 4C       		.byte	(.L181-.L180)/2
 2044 0034 60       		.byte	(.L179-.L180)/2
 2045 0035 00       		.p2align 1
 2046              	.L185:
 907:../../Middlewares/AI_Runtime/Npu/ll_aton/ll_aton.c ****       LL_ATON_ASSERT(au_num < ATON_STRENG_NUM);
 2047              		.loc 1 907 7 view .LVU556
 2048 0036 24B1     		cbz	r4, .L186
 907:../../Middlewares/AI_Runtime/Npu/ll_aton/ll_aton.c ****       LL_ATON_ASSERT(au_num < ATON_STRENG_NUM);
 2049              		.loc 1 907 7 is_stmt 0 discriminator 1 view .LVU557
 2050 0038 40F28B31 		movw	r1, #907
 2051 003c 3E4B     		ldr	r3, .L200+12
 2052              	.LVL220:
 907:../../Middlewares/AI_Runtime/Npu/ll_aton/ll_aton.c ****       LL_ATON_ASSERT(au_num < ATON_STRENG_NUM);
ARM GAS  C:\Users\Antonio\AppData\Local\Temp\ccynTwLp.s 			page 68


 2053              		.loc 1 907 7 discriminator 1 view .LVU558
 2054 003e 3C4A     		ldr	r2, .L200+4
 2055              	.LVL221:
 907:../../Middlewares/AI_Runtime/Npu/ll_aton/ll_aton.c ****       LL_ATON_ASSERT(au_num < ATON_STRENG_NUM);
 2056              		.loc 1 907 7 discriminator 1 view .LVU559
 2057 0040 E8E7     		b	.L199
 2058              	.LVL222:
 2059              	.L186:
 908:../../Middlewares/AI_Runtime/Npu/ll_aton/ll_aton.c ****       return ATONN_CONST_DSTPORT(STRSWITCH, 0, STRENG, 0, 0) + (0x4 * au_num);
 2060              		.loc 1 908 7 is_stmt 1 view .LVU560
 2061 0042 092B     		cmp	r3, #9
 2062 0044 04D9     		bls	.L187
 908:../../Middlewares/AI_Runtime/Npu/ll_aton/ll_aton.c ****       return ATONN_CONST_DSTPORT(STRSWITCH, 0, STRENG, 0, 0) + (0x4 * au_num);
 2063              		.loc 1 908 7 is_stmt 0 discriminator 1 view .LVU561
 2064 0046 4FF46371 		mov	r1, #908
 2065 004a 3C4B     		ldr	r3, .L200+16
 2066              	.LVL223:
 908:../../Middlewares/AI_Runtime/Npu/ll_aton/ll_aton.c ****       return ATONN_CONST_DSTPORT(STRSWITCH, 0, STRENG, 0, 0) + (0x4 * au_num);
 2067              		.loc 1 908 7 discriminator 1 view .LVU562
 2068 004c 384A     		ldr	r2, .L200+4
 2069              	.LVL224:
 908:../../Middlewares/AI_Runtime/Npu/ll_aton/ll_aton.c ****       return ATONN_CONST_DSTPORT(STRSWITCH, 0, STRENG, 0, 0) + (0x4 * au_num);
 2070              		.loc 1 908 7 discriminator 1 view .LVU563
 2071 004e E1E7     		b	.L199
 2072              	.LVL225:
 2073              	.L187:
 909:../../Middlewares/AI_Runtime/Npu/ll_aton/ll_aton.c ****       break;
 2074              		.loc 1 909 7 is_stmt 1 view .LVU564
 909:../../Middlewares/AI_Runtime/Npu/ll_aton/ll_aton.c ****       break;
 2075              		.loc 1 909 62 is_stmt 0 view .LVU565
 2076 0050 0820     		movs	r0, #8
 2077              	.LVL226:
 2078              	.L198:
 944:../../Middlewares/AI_Runtime/Npu/ll_aton/ll_aton.c ****       break;
 2079              		.loc 1 944 60 view .LVU566
 2080 0052 00EB8300 		add	r0, r0, r3, lsl #2
 2081 0056 E5E7     		b	.L172
 2082              	.L184:
 910:../../Middlewares/AI_Runtime/Npu/ll_aton/ll_aton.c **** #endif
 2083              		.loc 1 910 7 is_stmt 1 view .LVU567
 914:../../Middlewares/AI_Runtime/Npu/ll_aton/ll_aton.c ****       LL_ATON_ASSERT(au_num < ATON_CONVACC_NUM);
 2084              		.loc 1 914 7 view .LVU568
 2085 0058 022C     		cmp	r4, #2
 2086 005a 04D9     		bls	.L188
 914:../../Middlewares/AI_Runtime/Npu/ll_aton/ll_aton.c ****       LL_ATON_ASSERT(au_num < ATON_CONVACC_NUM);
 2087              		.loc 1 914 7 is_stmt 0 discriminator 1 view .LVU569
 2088 005c 40F29231 		movw	r1, #914
 2089 0060 374B     		ldr	r3, .L200+20
 2090              	.LVL227:
 914:../../Middlewares/AI_Runtime/Npu/ll_aton/ll_aton.c ****       LL_ATON_ASSERT(au_num < ATON_CONVACC_NUM);
 2091              		.loc 1 914 7 discriminator 1 view .LVU570
 2092 0062 334A     		ldr	r2, .L200+4
 2093              	.LVL228:
 914:../../Middlewares/AI_Runtime/Npu/ll_aton/ll_aton.c ****       LL_ATON_ASSERT(au_num < ATON_CONVACC_NUM);
 2094              		.loc 1 914 7 discriminator 1 view .LVU571
 2095 0064 D6E7     		b	.L199
 2096              	.LVL229:
ARM GAS  C:\Users\Antonio\AppData\Local\Temp\ccynTwLp.s 			page 69


 2097              	.L188:
 915:../../Middlewares/AI_Runtime/Npu/ll_aton/ll_aton.c ****       return ATONN_CONST_DSTPORT(STRSWITCH, 0, CONVACC, 0, 0) + (0x4 * (3 * au_num + port));
 2098              		.loc 1 915 7 is_stmt 1 view .LVU572
 2099 0066 032B     		cmp	r3, #3
 2100 0068 04D9     		bls	.L189
 915:../../Middlewares/AI_Runtime/Npu/ll_aton/ll_aton.c ****       return ATONN_CONST_DSTPORT(STRSWITCH, 0, CONVACC, 0, 0) + (0x4 * (3 * au_num + port));
 2101              		.loc 1 915 7 is_stmt 0 discriminator 1 view .LVU573
 2102 006a 40F29331 		movw	r1, #915
 2103 006e 354B     		ldr	r3, .L200+24
 2104              	.LVL230:
 915:../../Middlewares/AI_Runtime/Npu/ll_aton/ll_aton.c ****       return ATONN_CONST_DSTPORT(STRSWITCH, 0, CONVACC, 0, 0) + (0x4 * (3 * au_num + port));
 2105              		.loc 1 915 7 discriminator 1 view .LVU574
 2106 0070 2F4A     		ldr	r2, .L200+4
 2107              	.LVL231:
 915:../../Middlewares/AI_Runtime/Npu/ll_aton/ll_aton.c ****       return ATONN_CONST_DSTPORT(STRSWITCH, 0, CONVACC, 0, 0) + (0x4 * (3 * au_num + port));
 2108              		.loc 1 915 7 discriminator 1 view .LVU575
 2109 0072 CFE7     		b	.L199
 2110              	.LVL232:
 2111              	.L189:
 916:../../Middlewares/AI_Runtime/Npu/ll_aton/ll_aton.c ****       break;
 2112              		.loc 1 916 7 is_stmt 1 view .LVU576
 916:../../Middlewares/AI_Runtime/Npu/ll_aton/ll_aton.c ****       break;
 2113              		.loc 1 916 84 is_stmt 0 view .LVU577
 2114 0074 0320     		movs	r0, #3
 2115 0076 10FB0340 		smlabb	r0, r0, r3, r4
 916:../../Middlewares/AI_Runtime/Npu/ll_aton/ll_aton.c ****       break;
 2116              		.loc 1 916 70 view .LVU578
 2117 007a 8000     		lsls	r0, r0, #2
 916:../../Middlewares/AI_Runtime/Npu/ll_aton/ll_aton.c ****       break;
 2118              		.loc 1 916 63 view .LVU579
 2119 007c 3030     		adds	r0, r0, #48
 2120 007e D1E7     		b	.L172
 2121              	.L183:
 917:../../Middlewares/AI_Runtime/Npu/ll_aton/ll_aton.c **** #endif
 2122              		.loc 1 917 7 is_stmt 1 view .LVU580
 921:../../Middlewares/AI_Runtime/Npu/ll_aton/ll_aton.c ****       LL_ATON_ASSERT(au_num < ATON_DECUN_NUM);
 2123              		.loc 1 921 7 view .LVU581
 2124 0080 012C     		cmp	r4, #1
 2125 0082 04D9     		bls	.L190
 921:../../Middlewares/AI_Runtime/Npu/ll_aton/ll_aton.c ****       LL_ATON_ASSERT(au_num < ATON_DECUN_NUM);
 2126              		.loc 1 921 7 is_stmt 0 discriminator 1 view .LVU582
 2127 0084 40F29931 		movw	r1, #921
 2128 0088 2F4B     		ldr	r3, .L200+28
 2129              	.LVL233:
 921:../../Middlewares/AI_Runtime/Npu/ll_aton/ll_aton.c ****       LL_ATON_ASSERT(au_num < ATON_DECUN_NUM);
 2130              		.loc 1 921 7 discriminator 1 view .LVU583
 2131 008a 294A     		ldr	r2, .L200+4
 2132              	.LVL234:
 921:../../Middlewares/AI_Runtime/Npu/ll_aton/ll_aton.c ****       LL_ATON_ASSERT(au_num < ATON_DECUN_NUM);
 2133              		.loc 1 921 7 discriminator 1 view .LVU584
 2134 008c C2E7     		b	.L199
 2135              	.LVL235:
 2136              	.L190:
 922:../../Middlewares/AI_Runtime/Npu/ll_aton/ll_aton.c ****       return ATONN_CONST_DSTPORT(STRSWITCH, 0, DECUN, 0, 0) + (0x4 * (2 * au_num + port));
 2137              		.loc 1 922 7 is_stmt 1 view .LVU585
 2138 008e 012B     		cmp	r3, #1
 2139 0090 04D9     		bls	.L191
ARM GAS  C:\Users\Antonio\AppData\Local\Temp\ccynTwLp.s 			page 70


 922:../../Middlewares/AI_Runtime/Npu/ll_aton/ll_aton.c ****       return ATONN_CONST_DSTPORT(STRSWITCH, 0, DECUN, 0, 0) + (0x4 * (2 * au_num + port));
 2140              		.loc 1 922 7 is_stmt 0 discriminator 1 view .LVU586
 2141 0092 40F29A31 		movw	r1, #922
 2142 0096 2D4B     		ldr	r3, .L200+32
 2143              	.LVL236:
 922:../../Middlewares/AI_Runtime/Npu/ll_aton/ll_aton.c ****       return ATONN_CONST_DSTPORT(STRSWITCH, 0, DECUN, 0, 0) + (0x4 * (2 * au_num + port));
 2144              		.loc 1 922 7 discriminator 1 view .LVU587
 2145 0098 254A     		ldr	r2, .L200+4
 2146              	.LVL237:
 922:../../Middlewares/AI_Runtime/Npu/ll_aton/ll_aton.c ****       return ATONN_CONST_DSTPORT(STRSWITCH, 0, DECUN, 0, 0) + (0x4 * (2 * au_num + port));
 2147              		.loc 1 922 7 discriminator 1 view .LVU588
 2148 009a BBE7     		b	.L199
 2149              	.LVL238:
 2150              	.L191:
 923:../../Middlewares/AI_Runtime/Npu/ll_aton/ll_aton.c ****       break;
 2151              		.loc 1 923 7 is_stmt 1 view .LVU589
 923:../../Middlewares/AI_Runtime/Npu/ll_aton/ll_aton.c ****       break;
 2152              		.loc 1 923 82 is_stmt 0 view .LVU590
 2153 009c 04EB4304 		add	r4, r4, r3, lsl #1
 923:../../Middlewares/AI_Runtime/Npu/ll_aton/ll_aton.c ****       break;
 2154              		.loc 1 923 68 view .LVU591
 2155 00a0 A400     		lsls	r4, r4, #2
 923:../../Middlewares/AI_Runtime/Npu/ll_aton/ll_aton.c ****       break;
 2156              		.loc 1 923 61 view .LVU592
 2157 00a2 04F16000 		add	r0, r4, #96
 2158 00a6 BDE7     		b	.L172
 2159              	.L182:
 924:../../Middlewares/AI_Runtime/Npu/ll_aton/ll_aton.c **** #endif
 2160              		.loc 1 924 7 is_stmt 1 view .LVU593
 928:../../Middlewares/AI_Runtime/Npu/ll_aton/ll_aton.c ****       LL_ATON_ASSERT(au_num < ATON_ACTIV_NUM);
 2161              		.loc 1 928 7 view .LVU594
 2162 00a8 24B1     		cbz	r4, .L192
 928:../../Middlewares/AI_Runtime/Npu/ll_aton/ll_aton.c ****       LL_ATON_ASSERT(au_num < ATON_ACTIV_NUM);
 2163              		.loc 1 928 7 is_stmt 0 discriminator 1 view .LVU595
 2164 00aa 4FF46871 		mov	r1, #928
 2165 00ae 224B     		ldr	r3, .L200+12
 2166              	.LVL239:
 928:../../Middlewares/AI_Runtime/Npu/ll_aton/ll_aton.c ****       LL_ATON_ASSERT(au_num < ATON_ACTIV_NUM);
 2167              		.loc 1 928 7 discriminator 1 view .LVU596
 2168 00b0 1F4A     		ldr	r2, .L200+4
 2169              	.LVL240:
 928:../../Middlewares/AI_Runtime/Npu/ll_aton/ll_aton.c ****       LL_ATON_ASSERT(au_num < ATON_ACTIV_NUM);
 2170              		.loc 1 928 7 discriminator 1 view .LVU597
 2171 00b2 AFE7     		b	.L199
 2172              	.LVL241:
 2173              	.L192:
 929:../../Middlewares/AI_Runtime/Npu/ll_aton/ll_aton.c ****       return ATONN_CONST_DSTPORT(STRSWITCH, 0, ACTIV, 0, 0) + (0x4 * au_num);
 2174              		.loc 1 929 7 is_stmt 1 view .LVU598
 2175 00b4 012B     		cmp	r3, #1
 2176 00b6 04D9     		bls	.L193
 929:../../Middlewares/AI_Runtime/Npu/ll_aton/ll_aton.c ****       return ATONN_CONST_DSTPORT(STRSWITCH, 0, ACTIV, 0, 0) + (0x4 * au_num);
 2177              		.loc 1 929 7 is_stmt 0 discriminator 1 view .LVU599
 2178 00b8 40F2A131 		movw	r1, #929
 2179 00bc 234B     		ldr	r3, .L200+32
 2180              	.LVL242:
 929:../../Middlewares/AI_Runtime/Npu/ll_aton/ll_aton.c ****       return ATONN_CONST_DSTPORT(STRSWITCH, 0, ACTIV, 0, 0) + (0x4 * au_num);
 2181              		.loc 1 929 7 discriminator 1 view .LVU600
ARM GAS  C:\Users\Antonio\AppData\Local\Temp\ccynTwLp.s 			page 71


 2182 00be 1C4A     		ldr	r2, .L200+4
 2183              	.LVL243:
 929:../../Middlewares/AI_Runtime/Npu/ll_aton/ll_aton.c ****       return ATONN_CONST_DSTPORT(STRSWITCH, 0, ACTIV, 0, 0) + (0x4 * au_num);
 2184              		.loc 1 929 7 discriminator 1 view .LVU601
 2185 00c0 A8E7     		b	.L199
 2186              	.LVL244:
 2187              	.L193:
 930:../../Middlewares/AI_Runtime/Npu/ll_aton/ll_aton.c ****       break;
 2188              		.loc 1 930 7 is_stmt 1 view .LVU602
 930:../../Middlewares/AI_Runtime/Npu/ll_aton/ll_aton.c ****       break;
 2189              		.loc 1 930 61 is_stmt 0 view .LVU603
 2190 00c2 7020     		movs	r0, #112
 2191 00c4 C5E7     		b	.L198
 2192              	.L181:
 931:../../Middlewares/AI_Runtime/Npu/ll_aton/ll_aton.c **** #endif
 2193              		.loc 1 931 7 is_stmt 1 view .LVU604
 935:../../Middlewares/AI_Runtime/Npu/ll_aton/ll_aton.c ****       LL_ATON_ASSERT(au_num < ATON_ARITH_NUM);
 2194              		.loc 1 935 7 view .LVU605
 2195 00c6 012C     		cmp	r4, #1
 2196 00c8 04D9     		bls	.L194
 935:../../Middlewares/AI_Runtime/Npu/ll_aton/ll_aton.c ****       LL_ATON_ASSERT(au_num < ATON_ARITH_NUM);
 2197              		.loc 1 935 7 is_stmt 0 discriminator 1 view .LVU606
 2198 00ca 40F2A731 		movw	r1, #935
 2199 00ce 1E4B     		ldr	r3, .L200+28
 2200              	.LVL245:
 935:../../Middlewares/AI_Runtime/Npu/ll_aton/ll_aton.c ****       LL_ATON_ASSERT(au_num < ATON_ARITH_NUM);
 2201              		.loc 1 935 7 discriminator 1 view .LVU607
 2202 00d0 174A     		ldr	r2, .L200+4
 2203              	.LVL246:
 935:../../Middlewares/AI_Runtime/Npu/ll_aton/ll_aton.c ****       LL_ATON_ASSERT(au_num < ATON_ARITH_NUM);
 2204              		.loc 1 935 7 discriminator 1 view .LVU608
 2205 00d2 9FE7     		b	.L199
 2206              	.LVL247:
 2207              	.L194:
 936:../../Middlewares/AI_Runtime/Npu/ll_aton/ll_aton.c ****       return ATONN_CONST_DSTPORT(STRSWITCH, 0, ARITH, 0, 0) + (0x4 * (2 * au_num + port));
 2208              		.loc 1 936 7 is_stmt 1 view .LVU609
 2209 00d4 032B     		cmp	r3, #3
 2210 00d6 04D9     		bls	.L195
 936:../../Middlewares/AI_Runtime/Npu/ll_aton/ll_aton.c ****       return ATONN_CONST_DSTPORT(STRSWITCH, 0, ARITH, 0, 0) + (0x4 * (2 * au_num + port));
 2211              		.loc 1 936 7 is_stmt 0 discriminator 1 view .LVU610
 2212 00d8 4FF46A71 		mov	r1, #936
 2213 00dc 194B     		ldr	r3, .L200+24
 2214              	.LVL248:
 936:../../Middlewares/AI_Runtime/Npu/ll_aton/ll_aton.c ****       return ATONN_CONST_DSTPORT(STRSWITCH, 0, ARITH, 0, 0) + (0x4 * (2 * au_num + port));
 2215              		.loc 1 936 7 discriminator 1 view .LVU611
 2216 00de 144A     		ldr	r2, .L200+4
 2217              	.LVL249:
 936:../../Middlewares/AI_Runtime/Npu/ll_aton/ll_aton.c ****       return ATONN_CONST_DSTPORT(STRSWITCH, 0, ARITH, 0, 0) + (0x4 * (2 * au_num + port));
 2218              		.loc 1 936 7 discriminator 1 view .LVU612
 2219 00e0 98E7     		b	.L199
 2220              	.LVL250:
 2221              	.L195:
 937:../../Middlewares/AI_Runtime/Npu/ll_aton/ll_aton.c ****       break;
 2222              		.loc 1 937 7 is_stmt 1 view .LVU613
 937:../../Middlewares/AI_Runtime/Npu/ll_aton/ll_aton.c ****       break;
 2223              		.loc 1 937 82 is_stmt 0 view .LVU614
 2224 00e2 04EB4304 		add	r4, r4, r3, lsl #1
ARM GAS  C:\Users\Antonio\AppData\Local\Temp\ccynTwLp.s 			page 72


 937:../../Middlewares/AI_Runtime/Npu/ll_aton/ll_aton.c ****       break;
 2225              		.loc 1 937 68 view .LVU615
 2226 00e6 A400     		lsls	r4, r4, #2
 937:../../Middlewares/AI_Runtime/Npu/ll_aton/ll_aton.c ****       break;
 2227              		.loc 1 937 61 view .LVU616
 2228 00e8 04F17800 		add	r0, r4, #120
 2229 00ec 9AE7     		b	.L172
 2230              	.L179:
 938:../../Middlewares/AI_Runtime/Npu/ll_aton/ll_aton.c **** #endif
 2231              		.loc 1 938 7 is_stmt 1 view .LVU617
 942:../../Middlewares/AI_Runtime/Npu/ll_aton/ll_aton.c ****       LL_ATON_ASSERT(au_num < ATON_POOL_NUM);
 2232              		.loc 1 942 7 view .LVU618
 2233 00ee 24B1     		cbz	r4, .L196
 942:../../Middlewares/AI_Runtime/Npu/ll_aton/ll_aton.c ****       LL_ATON_ASSERT(au_num < ATON_POOL_NUM);
 2234              		.loc 1 942 7 is_stmt 0 discriminator 1 view .LVU619
 2235 00f0 40F2AE31 		movw	r1, #942
 2236 00f4 104B     		ldr	r3, .L200+12
 2237              	.LVL251:
 942:../../Middlewares/AI_Runtime/Npu/ll_aton/ll_aton.c ****       LL_ATON_ASSERT(au_num < ATON_POOL_NUM);
 2238              		.loc 1 942 7 discriminator 1 view .LVU620
 2239 00f6 0E4A     		ldr	r2, .L200+4
 2240              	.LVL252:
 942:../../Middlewares/AI_Runtime/Npu/ll_aton/ll_aton.c ****       LL_ATON_ASSERT(au_num < ATON_POOL_NUM);
 2241              		.loc 1 942 7 discriminator 1 view .LVU621
 2242 00f8 8CE7     		b	.L199
 2243              	.LVL253:
 2244              	.L196:
 943:../../Middlewares/AI_Runtime/Npu/ll_aton/ll_aton.c ****       return ATONN_CONST_DSTPORT(STRSWITCH, 0, POOL, 0, 0) + (0x4 * au_num);
 2245              		.loc 1 943 7 is_stmt 1 view .LVU622
 2246 00fa 012B     		cmp	r3, #1
 2247 00fc 04D9     		bls	.L197
 943:../../Middlewares/AI_Runtime/Npu/ll_aton/ll_aton.c ****       return ATONN_CONST_DSTPORT(STRSWITCH, 0, POOL, 0, 0) + (0x4 * au_num);
 2248              		.loc 1 943 7 is_stmt 0 discriminator 1 view .LVU623
 2249 00fe 40F2AF31 		movw	r1, #943
 2250 0102 124B     		ldr	r3, .L200+32
 2251              	.LVL254:
 943:../../Middlewares/AI_Runtime/Npu/ll_aton/ll_aton.c ****       return ATONN_CONST_DSTPORT(STRSWITCH, 0, POOL, 0, 0) + (0x4 * au_num);
 2252              		.loc 1 943 7 discriminator 1 view .LVU624
 2253 0104 0A4A     		ldr	r2, .L200+4
 2254              	.LVL255:
 943:../../Middlewares/AI_Runtime/Npu/ll_aton/ll_aton.c ****       return ATONN_CONST_DSTPORT(STRSWITCH, 0, POOL, 0, 0) + (0x4 * au_num);
 2255              		.loc 1 943 7 discriminator 1 view .LVU625
 2256 0106 85E7     		b	.L199
 2257              	.LVL256:
 2258              	.L197:
 944:../../Middlewares/AI_Runtime/Npu/ll_aton/ll_aton.c ****       break;
 2259              		.loc 1 944 7 is_stmt 1 view .LVU626
 944:../../Middlewares/AI_Runtime/Npu/ll_aton/ll_aton.c ****       break;
 2260              		.loc 1 944 60 is_stmt 0 view .LVU627
 2261 0108 9820     		movs	r0, #152
 2262 010a A2E7     		b	.L198
 2263              	.L178:
 945:../../Middlewares/AI_Runtime/Npu/ll_aton/ll_aton.c **** #endif
 2264              		.loc 1 945 7 is_stmt 1 view .LVU628
 948:../../Middlewares/AI_Runtime/Npu/ll_aton/ll_aton.c ****       break;
 2265              		.loc 1 948 7 view .LVU629
 2266 010c 4FF46D71 		mov	r1, #948
ARM GAS  C:\Users\Antonio\AppData\Local\Temp\ccynTwLp.s 			page 73


 2267 0110 0F4B     		ldr	r3, .L200+36
 2268              	.LVL257:
 948:../../Middlewares/AI_Runtime/Npu/ll_aton/ll_aton.c ****       break;
 2269              		.loc 1 948 7 is_stmt 0 view .LVU630
 2270 0112 074A     		ldr	r2, .L200+4
 2271              	.LVL258:
 948:../../Middlewares/AI_Runtime/Npu/ll_aton/ll_aton.c ****       break;
 2272              		.loc 1 948 7 view .LVU631
 2273 0114 7EE7     		b	.L199
 2274              	.LVL259:
 2275              	.L175:
 954:../../Middlewares/AI_Runtime/Npu/ll_aton/ll_aton.c ****     break;
 2276              		.loc 1 954 5 is_stmt 1 view .LVU632
 2277 0116 40F2BA31 		movw	r1, #954
 2278              	.LVL260:
 954:../../Middlewares/AI_Runtime/Npu/ll_aton/ll_aton.c ****     break;
 2279              		.loc 1 954 5 is_stmt 0 view .LVU633
 2280 011a 0D4B     		ldr	r3, .L200+36
 2281              	.LVL261:
 954:../../Middlewares/AI_Runtime/Npu/ll_aton/ll_aton.c ****     break;
 2282              		.loc 1 954 5 view .LVU634
 2283 011c 044A     		ldr	r2, .L200+4
 2284              	.LVL262:
 954:../../Middlewares/AI_Runtime/Npu/ll_aton/ll_aton.c ****     break;
 2285              		.loc 1 954 5 view .LVU635
 2286 011e 79E7     		b	.L199
 2287              	.LVL263:
 2288              	.L176:
 955:../../Middlewares/AI_Runtime/Npu/ll_aton/ll_aton.c ****   case STRSWITCH_VC:
 2289              		.loc 1 955 5 is_stmt 1 view .LVU636
 958:../../Middlewares/AI_Runtime/Npu/ll_aton/ll_aton.c ****     break;
 2290              		.loc 1 958 5 view .LVU637
 2291 0120 40F2BE31 		movw	r1, #958
 2292              	.LVL264:
 958:../../Middlewares/AI_Runtime/Npu/ll_aton/ll_aton.c ****     break;
 2293              		.loc 1 958 5 is_stmt 0 view .LVU638
 2294 0124 0A4B     		ldr	r3, .L200+36
 2295              	.LVL265:
 958:../../Middlewares/AI_Runtime/Npu/ll_aton/ll_aton.c ****     break;
 2296              		.loc 1 958 5 view .LVU639
 2297 0126 024A     		ldr	r2, .L200+4
 2298              	.LVL266:
 958:../../Middlewares/AI_Runtime/Npu/ll_aton/ll_aton.c ****     break;
 2299              		.loc 1 958 5 view .LVU640
 2300 0128 74E7     		b	.L199
 2301              	.L201:
 2302 012a 00BF     		.align	2
 2303              	.L200:
 2304 012c 00000000 		.word	.LC20
 2305 0130 00000000 		.word	__func__.5
 2306 0134 05000000 		.word	.LC4
 2307 0138 0C000000 		.word	.LC21
 2308 013c 16000000 		.word	.LC22
 2309 0140 00000000 		.word	.LC25
 2310 0144 22000000 		.word	.LC23
 2311 0148 09000000 		.word	.LC26
 2312 014c 2D000000 		.word	.LC24
ARM GAS  C:\Users\Antonio\AppData\Local\Temp\ccynTwLp.s 			page 74


 2313 0150 A3000000 		.word	.LC7
 2314              		.cfi_endproc
 2315              	.LFE4832:
 2317              		.section	.text.LL_Switch_Init_NoReset,"ax",%progbits
 2318              		.align	1
 2319              		.global	LL_Switch_Init_NoReset
 2320              		.syntax unified
 2321              		.thumb
 2322              		.thumb_func
 2324              	LL_Switch_Init_NoReset:
 2325              	.LVL267:
 2326              	.LFB4833:
 971:../../Middlewares/AI_Runtime/Npu/ll_aton/ll_aton.c ****   int i;
 2327              		.loc 1 971 1 is_stmt 1 view -0
 2328              		.cfi_startproc
 2329              		@ args = 0, pretend = 0, frame = 0
 2330              		@ frame_needed = 0, uses_anonymous_args = 0
 972:../../Middlewares/AI_Runtime/Npu/ll_aton/ll_aton.c ****   volatile uint32_t *reg;
 2331              		.loc 1 972 3 view .LVU642
 973:../../Middlewares/AI_Runtime/Npu/ll_aton/ll_aton.c ****   uint32_t t;
 2332              		.loc 1 973 3 view .LVU643
 974:../../Middlewares/AI_Runtime/Npu/ll_aton/ll_aton.c ****   unsigned int en_shift[ATON_SWITCH_CONTEXT_NUM] = {ATON_STRSWITCH_DST_EN0_LSB, ATON_STRSWITCH_DST_
 2333              		.loc 1 974 3 view .LVU644
 975:../../Middlewares/AI_Runtime/Npu/ll_aton/ll_aton.c ****   unsigned int link_shift[ATON_SWITCH_CONTEXT_NUM] = {ATON_STRSWITCH_DST_LINK0_LSB, ATON_STRSWITCH_
 2334              		.loc 1 975 3 view .LVU645
 976:../../Middlewares/AI_Runtime/Npu/ll_aton/ll_aton.c ****   unsigned int fnr_shift[ATON_SWITCH_CONTEXT_NUM] = {ATON_STRSWITCH_DST_FNR0_LSB, ATON_STRSWITCH_DS
 2335              		.loc 1 976 3 view .LVU646
 977:../../Middlewares/AI_Runtime/Npu/ll_aton/ll_aton.c ****   unsigned int fnr_mask[ATON_SWITCH_CONTEXT_NUM] = {ATON_STRSWITCH_DST_FNR0_MASK, ATON_STRSWITCH_DS
 2336              		.loc 1 977 3 view .LVU647
 978:../../Middlewares/AI_Runtime/Npu/ll_aton/ll_aton.c **** 
 2337              		.loc 1 978 3 view .LVU648
 981:../../Middlewares/AI_Runtime/Npu/ll_aton/ll_aton.c ****   t = ATON_STRSWITCH_CTRL_SET_EN(t, 1);
 2338              		.loc 1 981 3 view .LVU649
 982:../../Middlewares/AI_Runtime/Npu/ll_aton/ll_aton.c ****   ATON_STRSWITCH_CTRL_SET(0, t);
 2339              		.loc 1 982 3 view .LVU650
 983:../../Middlewares/AI_Runtime/Npu/ll_aton/ll_aton.c **** 
 2340              		.loc 1 983 3 view .LVU651
 983:../../Middlewares/AI_Runtime/Npu/ll_aton/ll_aton.c **** 
 2341              		.loc 1 983 3 view .LVU652
 2342 0000 0123     		movs	r3, #1
 2343 0002 134A     		ldr	r2, .L206
 2344 0004 0029     		cmp	r1, #0
 971:../../Middlewares/AI_Runtime/Npu/ll_aton/ll_aton.c ****   int i;
 2345              		.loc 1 971 1 is_stmt 0 view .LVU653
 2346 0006 30B5     		push	{r4, r5, lr}
 2347              		.cfi_def_cfa_offset 12
 2348              		.cfi_offset 4, -12
 2349              		.cfi_offset 5, -8
 2350              		.cfi_offset 14, -4
 983:../../Middlewares/AI_Runtime/Npu/ll_aton/ll_aton.c **** 
 2351              		.loc 1 983 3 view .LVU654
 2352 0008 1360     		str	r3, [r2]
 983:../../Middlewares/AI_Runtime/Npu/ll_aton/ll_aton.c **** 
 2353              		.loc 1 983 3 is_stmt 1 view .LVU655
 983:../../Middlewares/AI_Runtime/Npu/ll_aton/ll_aton.c **** 
 2354              		.loc 1 983 32 view .LVU656
 985:../../Middlewares/AI_Runtime/Npu/ll_aton/ll_aton.c ****   {
ARM GAS  C:\Users\Antonio\AppData\Local\Temp\ccynTwLp.s 			page 75


 2355              		.loc 1 985 3 view .LVU657
 2356              	.LVL268:
 985:../../Middlewares/AI_Runtime/Npu/ll_aton/ll_aton.c ****   {
 2357              		.loc 1 985 3 is_stmt 0 view .LVU658
 2358 000a 01EB0302 		add	r2, r1, r3
 2359 000e B8BF     		it	lt
 2360 0010 1A46     		movlt	r2, r3
 2361              	.LVL269:
 2362              	.L203:
 985:../../Middlewares/AI_Runtime/Npu/ll_aton/ll_aton.c ****   {
 2363              		.loc 1 985 17 is_stmt 1 discriminator 1 view .LVU659
 2364 0012 013A     		subs	r2, r2, #1
 2365 0014 01D1     		bne	.L204
1011:../../Middlewares/AI_Runtime/Npu/ll_aton/ll_aton.c **** }
 2366              		.loc 1 1011 3 view .LVU660
 2367              	.LVL270:
1012:../../Middlewares/AI_Runtime/Npu/ll_aton/ll_aton.c **** 
 2368              		.loc 1 1012 1 is_stmt 0 view .LVU661
 2369 0016 0020     		movs	r0, #0
 2370 0018 30BD     		pop	{r4, r5, pc}
 2371              	.LVL271:
 2372              	.L204:
 988:../../Middlewares/AI_Runtime/Npu/ll_aton/ll_aton.c ****     t = 0;
 2373              		.loc 1 988 5 is_stmt 1 view .LVU662
 992:../../Middlewares/AI_Runtime/Npu/ll_aton/ll_aton.c ****     t |= (ATONN_SRCPORT_ID(LL_Switch_InitStruct[i].source0) << link_shift[0]);
 2374              		.loc 1 992 45 is_stmt 0 view .LVU663
 2375 001a 847B     		ldrb	r4, [r0, #14]	@ zero_extendqisi2
 996:../../Middlewares/AI_Runtime/Npu/ll_aton/ll_aton.c ****     t |= ((LL_Switch_InitStruct[i].frames1 << fnr_shift[1]) & fnr_mask[1]);
 2376              		.loc 1 996 61 view .LVU664
 2377 001c D0E90053 		ldrd	r5, r3, [r0]
 2378 0020 5B04     		lsls	r3, r3, #17
 997:../../Middlewares/AI_Runtime/Npu/ll_aton/ll_aton.c **** #else
 2379              		.loc 1 997 7 view .LVU665
 2380 0022 43EA4503 		orr	r3, r3, r5, lsl #1
 992:../../Middlewares/AI_Runtime/Npu/ll_aton/ll_aton.c ****     t |= (ATONN_SRCPORT_ID(LL_Switch_InitStruct[i].source0) << link_shift[0]);
 2381              		.loc 1 992 51 view .LVU666
 2382 0026 04F00105 		and	r5, r4, #1
 997:../../Middlewares/AI_Runtime/Npu/ll_aton/ll_aton.c **** #else
 2383              		.loc 1 997 7 view .LVU667
 2384 002a 2B43     		orrs	r3, r3, r5
 994:../../Middlewares/AI_Runtime/Npu/ll_aton/ll_aton.c ****     t |= ((LL_Switch_InitStruct[i].context1 != 0) << en_shift[1]);
 2385              		.loc 1 994 61 view .LVU668
 2386 002c 057B     		ldrb	r5, [r0, #12]	@ zero_extendqisi2
 988:../../Middlewares/AI_Runtime/Npu/ll_aton/ll_aton.c ****     t = 0;
 2387              		.loc 1 988 47 view .LVU669
 2388 002e 8168     		ldr	r1, [r0, #8]
 997:../../Middlewares/AI_Runtime/Npu/ll_aton/ll_aton.c **** #else
 2389              		.loc 1 997 7 view .LVU670
 2390 0030 43EA0523 		orr	r3, r3, r5, lsl #8
 997:../../Middlewares/AI_Runtime/Npu/ll_aton/ll_aton.c **** #else
 2391              		.loc 1 997 44 view .LVU671
 2392 0034 457B     		ldrb	r5, [r0, #13]	@ zero_extendqisi2
 988:../../Middlewares/AI_Runtime/Npu/ll_aton/ll_aton.c ****     t = 0;
 2393              		.loc 1 988 47 view .LVU672
 2394 0036 01F1B041 		add	r1, r1, #1476395008
 997:../../Middlewares/AI_Runtime/Npu/ll_aton/ll_aton.c **** #else
 2395              		.loc 1 997 7 view .LVU673
ARM GAS  C:\Users\Antonio\AppData\Local\Temp\ccynTwLp.s 			page 76


 2396 003a 43EA0563 		orr	r3, r3, r5, lsl #24
 995:../../Middlewares/AI_Runtime/Npu/ll_aton/ll_aton.c ****     t |= (ATONN_SRCPORT_ID(LL_Switch_InitStruct[i].source1) << link_shift[1]);
 2397              		.loc 1 995 45 view .LVU674
 2398 003e C4F34004 		ubfx	r4, r4, #1, #1
 988:../../Middlewares/AI_Runtime/Npu/ll_aton/ll_aton.c ****     t = 0;
 2399              		.loc 1 988 47 view .LVU675
 2400 0042 01F56421 		add	r1, r1, #933888
 2401              	.LVL272:
 989:../../Middlewares/AI_Runtime/Npu/ll_aton/ll_aton.c ****     /* Enable Context and create link */
 2402              		.loc 1 989 5 is_stmt 1 view .LVU676
 992:../../Middlewares/AI_Runtime/Npu/ll_aton/ll_aton.c ****     t |= (ATONN_SRCPORT_ID(LL_Switch_InitStruct[i].source0) << link_shift[0]);
 2403              		.loc 1 992 5 view .LVU677
 993:../../Middlewares/AI_Runtime/Npu/ll_aton/ll_aton.c ****     t |= ((LL_Switch_InitStruct[i].frames0 << fnr_shift[0]) & fnr_mask[0]);
 2404              		.loc 1 993 5 view .LVU678
 994:../../Middlewares/AI_Runtime/Npu/ll_aton/ll_aton.c ****     t |= ((LL_Switch_InitStruct[i].context1 != 0) << en_shift[1]);
 2405              		.loc 1 994 5 view .LVU679
 995:../../Middlewares/AI_Runtime/Npu/ll_aton/ll_aton.c ****     t |= (ATONN_SRCPORT_ID(LL_Switch_InitStruct[i].source1) << link_shift[1]);
 2406              		.loc 1 995 5 view .LVU680
 996:../../Middlewares/AI_Runtime/Npu/ll_aton/ll_aton.c ****     t |= ((LL_Switch_InitStruct[i].frames1 << fnr_shift[1]) & fnr_mask[1]);
 2407              		.loc 1 996 5 view .LVU681
 997:../../Middlewares/AI_Runtime/Npu/ll_aton/ll_aton.c **** #else
 2408              		.loc 1 997 5 view .LVU682
 997:../../Middlewares/AI_Runtime/Npu/ll_aton/ll_aton.c **** #else
 2409              		.loc 1 997 7 is_stmt 0 view .LVU683
 2410 0046 43EA0443 		orr	r3, r3, r4, lsl #16
 2411              	.LVL273:
1008:../../Middlewares/AI_Runtime/Npu/ll_aton/ll_aton.c ****   }
 2412              		.loc 1 1008 5 is_stmt 1 view .LVU684
1008:../../Middlewares/AI_Runtime/Npu/ll_aton/ll_aton.c ****   }
 2413              		.loc 1 1008 5 view .LVU685
 2414 004a 0B60     		str	r3, [r1]
1008:../../Middlewares/AI_Runtime/Npu/ll_aton/ll_aton.c ****   }
 2415              		.loc 1 1008 5 view .LVU686
 985:../../Middlewares/AI_Runtime/Npu/ll_aton/ll_aton.c ****   {
 2416              		.loc 1 985 23 discriminator 3 view .LVU687
 2417 004c 1030     		adds	r0, r0, #16
 2418 004e E0E7     		b	.L203
 2419              	.L207:
 2420              		.align	2
 2421              	.L206:
 2422 0050 00400E58 		.word	1477328896
 2423              		.cfi_endproc
 2424              	.LFE4833:
 2426              		.section	.text.LL_Switch_Init,"ax",%progbits
 2427              		.align	1
 2428              		.global	LL_Switch_Init
 2429              		.syntax unified
 2430              		.thumb
 2431              		.thumb_func
 2433              	LL_Switch_Init:
 2434              	.LVL274:
 2435              	.LFB4834:
1021:../../Middlewares/AI_Runtime/Npu/ll_aton/ll_aton.c ****   uint32_t t;
 2436              		.loc 1 1021 1 view -0
 2437              		.cfi_startproc
 2438              		@ args = 0, pretend = 0, frame = 0
 2439              		@ frame_needed = 0, uses_anonymous_args = 0
ARM GAS  C:\Users\Antonio\AppData\Local\Temp\ccynTwLp.s 			page 77


 2440              		@ link register save eliminated.
1022:../../Middlewares/AI_Runtime/Npu/ll_aton/ll_aton.c **** 
 2441              		.loc 1 1022 3 view .LVU689
1029:../../Middlewares/AI_Runtime/Npu/ll_aton/ll_aton.c **** 
 2442              		.loc 1 1029 3 view .LVU690
1029:../../Middlewares/AI_Runtime/Npu/ll_aton/ll_aton.c **** 
 2443              		.loc 1 1029 3 view .LVU691
1029:../../Middlewares/AI_Runtime/Npu/ll_aton/ll_aton.c **** 
 2444              		.loc 1 1029 3 view .LVU692
1029:../../Middlewares/AI_Runtime/Npu/ll_aton/ll_aton.c **** 
 2445              		.loc 1 1029 3 view .LVU693
1029:../../Middlewares/AI_Runtime/Npu/ll_aton/ll_aton.c **** 
 2446              		.loc 1 1029 3 view .LVU694
1029:../../Middlewares/AI_Runtime/Npu/ll_aton/ll_aton.c **** 
 2447              		.loc 1 1029 3 view .LVU695
 2448 0000 0222     		movs	r2, #2
 2449 0002 064B     		ldr	r3, .L213
 2450 0004 1A60     		str	r2, [r3]
1029:../../Middlewares/AI_Runtime/Npu/ll_aton/ll_aton.c **** 
 2451              		.loc 1 1029 3 view .LVU696
1029:../../Middlewares/AI_Runtime/Npu/ll_aton/ll_aton.c **** 
 2452              		.loc 1 1029 3 view .LVU697
1029:../../Middlewares/AI_Runtime/Npu/ll_aton/ll_aton.c **** 
 2453              		.loc 1 1029 3 view .LVU698
1029:../../Middlewares/AI_Runtime/Npu/ll_aton/ll_aton.c **** 
 2454              		.loc 1 1029 3 view .LVU699
 2455              	.L209:
1029:../../Middlewares/AI_Runtime/Npu/ll_aton/ll_aton.c **** 
 2456              		.loc 1 1029 3 discriminator 2 view .LVU700
1029:../../Middlewares/AI_Runtime/Npu/ll_aton/ll_aton.c **** 
 2457              		.loc 1 1029 3 discriminator 2 view .LVU701
 2458 0006 1A68     		ldr	r2, [r3]
 2459 0008 9207     		lsls	r2, r2, #30
 2460 000a FCD4     		bmi	.L209
1029:../../Middlewares/AI_Runtime/Npu/ll_aton/ll_aton.c **** 
 2461              		.loc 1 1029 3 discriminator 3 view .LVU702
1029:../../Middlewares/AI_Runtime/Npu/ll_aton/ll_aton.c **** 
 2462              		.loc 1 1029 3 discriminator 3 view .LVU703
 2463              	.LVL275:
1029:../../Middlewares/AI_Runtime/Npu/ll_aton/ll_aton.c **** 
 2464              		.loc 1 1029 3 discriminator 3 view .LVU704
1029:../../Middlewares/AI_Runtime/Npu/ll_aton/ll_aton.c **** 
 2465              		.loc 1 1029 3 discriminator 3 view .LVU705
1029:../../Middlewares/AI_Runtime/Npu/ll_aton/ll_aton.c **** 
 2466              		.loc 1 1029 3 discriminator 3 view .LVU706
 2467 000c 4FF08042 		mov	r2, #1073741824
 2468 0010 1A60     		str	r2, [r3]
1029:../../Middlewares/AI_Runtime/Npu/ll_aton/ll_aton.c **** 
 2469              		.loc 1 1029 3 discriminator 3 view .LVU707
1029:../../Middlewares/AI_Runtime/Npu/ll_aton/ll_aton.c **** 
 2470              		.loc 1 1029 3 discriminator 3 view .LVU708
1029:../../Middlewares/AI_Runtime/Npu/ll_aton/ll_aton.c **** 
 2471              		.loc 1 1029 3 discriminator 3 view .LVU709
1029:../../Middlewares/AI_Runtime/Npu/ll_aton/ll_aton.c **** 
 2472              		.loc 1 1029 3 discriminator 3 view .LVU710
 2473              	.L210:
1029:../../Middlewares/AI_Runtime/Npu/ll_aton/ll_aton.c **** 
ARM GAS  C:\Users\Antonio\AppData\Local\Temp\ccynTwLp.s 			page 78


 2474              		.loc 1 1029 3 discriminator 5 view .LVU711
1029:../../Middlewares/AI_Runtime/Npu/ll_aton/ll_aton.c **** 
 2475              		.loc 1 1029 3 discriminator 5 view .LVU712
 2476 0012 1A68     		ldr	r2, [r3]
 2477 0014 5200     		lsls	r2, r2, #1
 2478 0016 FCD4     		bmi	.L210
1029:../../Middlewares/AI_Runtime/Npu/ll_aton/ll_aton.c **** 
 2479              		.loc 1 1029 3 discriminator 6 view .LVU713
1029:../../Middlewares/AI_Runtime/Npu/ll_aton/ll_aton.c **** 
 2480              		.loc 1 1029 3 discriminator 6 view .LVU714
1031:../../Middlewares/AI_Runtime/Npu/ll_aton/ll_aton.c **** }
 2481              		.loc 1 1031 3 view .LVU715
1031:../../Middlewares/AI_Runtime/Npu/ll_aton/ll_aton.c **** }
 2482              		.loc 1 1031 10 is_stmt 0 view .LVU716
 2483 0018 FFF7FEBF 		b	LL_Switch_Init_NoReset
 2484              	.LVL276:
 2485              	.L214:
1031:../../Middlewares/AI_Runtime/Npu/ll_aton/ll_aton.c **** }
 2486              		.loc 1 1031 10 view .LVU717
 2487              		.align	2
 2488              	.L213:
 2489 001c 00400E58 		.word	1477328896
 2490              		.cfi_endproc
 2491              	.LFE4834:
 2493              		.section	.text.LL_Switch_Deinit,"ax",%progbits
 2494              		.align	1
 2495              		.global	LL_Switch_Deinit
 2496              		.syntax unified
 2497              		.thumb
 2498              		.thumb_func
 2500              	LL_Switch_Deinit:
 2501              	.LVL277:
 2502              	.LFB4835:
1041:../../Middlewares/AI_Runtime/Npu/ll_aton/ll_aton.c ****   int i;
 2503              		.loc 1 1041 1 is_stmt 1 view -0
 2504              		.cfi_startproc
 2505              		@ args = 0, pretend = 0, frame = 0
 2506              		@ frame_needed = 0, uses_anonymous_args = 0
1042:../../Middlewares/AI_Runtime/Npu/ll_aton/ll_aton.c ****   volatile uint32_t *reg;
 2507              		.loc 1 1042 3 view .LVU719
1043:../../Middlewares/AI_Runtime/Npu/ll_aton/ll_aton.c **** 
 2508              		.loc 1 1043 3 view .LVU720
1045:../../Middlewares/AI_Runtime/Npu/ll_aton/ll_aton.c ****   {
 2509              		.loc 1 1045 3 view .LVU721
1041:../../Middlewares/AI_Runtime/Npu/ll_aton/ll_aton.c ****   int i;
 2510              		.loc 1 1041 1 is_stmt 0 view .LVU722
 2511 0000 30B5     		push	{r4, r5, lr}
 2512              		.cfi_def_cfa_offset 12
 2513              		.cfi_offset 4, -12
 2514              		.cfi_offset 5, -8
 2515              		.cfi_offset 14, -4
1045:../../Middlewares/AI_Runtime/Npu/ll_aton/ll_aton.c ****   {
 2516              		.loc 1 1045 10 view .LVU723
 2517 0002 0024     		movs	r4, #0
 2518 0004 A142     		cmp	r1, r4
 2519 0006 01F10103 		add	r3, r1, #1
1051:../../Middlewares/AI_Runtime/Npu/ll_aton/ll_aton.c ****   }
ARM GAS  C:\Users\Antonio\AppData\Local\Temp\ccynTwLp.s 			page 79


 2520              		.loc 1 1051 5 view .LVU724
 2521 000a 2546     		mov	r5, r4
 2522 000c B8BF     		it	lt
 2523 000e 0123     		movlt	r3, #1
1048:../../Middlewares/AI_Runtime/Npu/ll_aton/ll_aton.c **** 
 2524              		.loc 1 1048 49 view .LVU725
 2525 0010 0830     		adds	r0, r0, #8
 2526              	.LVL278:
 2527              	.L216:
1045:../../Middlewares/AI_Runtime/Npu/ll_aton/ll_aton.c ****   {
 2528              		.loc 1 1045 17 is_stmt 1 discriminator 1 view .LVU726
 2529 0012 013B     		subs	r3, r3, #1
 2530 0014 01D1     		bne	.L217
1054:../../Middlewares/AI_Runtime/Npu/ll_aton/ll_aton.c **** }
 2531              		.loc 1 1054 3 view .LVU727
1055:../../Middlewares/AI_Runtime/Npu/ll_aton/ll_aton.c **** 
 2532              		.loc 1 1055 1 is_stmt 0 view .LVU728
 2533 0016 0020     		movs	r0, #0
 2534              	.LVL279:
1055:../../Middlewares/AI_Runtime/Npu/ll_aton/ll_aton.c **** 
 2535              		.loc 1 1055 1 view .LVU729
 2536 0018 30BD     		pop	{r4, r5, pc}
 2537              	.LVL280:
 2538              	.L217:
1048:../../Middlewares/AI_Runtime/Npu/ll_aton/ll_aton.c **** 
 2539              		.loc 1 1048 5 is_stmt 1 view .LVU730
1048:../../Middlewares/AI_Runtime/Npu/ll_aton/ll_aton.c **** 
 2540              		.loc 1 1048 49 is_stmt 0 view .LVU731
 2541 001a 2201     		lsls	r2, r4, #4
1048:../../Middlewares/AI_Runtime/Npu/ll_aton/ll_aton.c **** 
 2542              		.loc 1 1048 47 view .LVU732
 2543 001c 8258     		ldr	r2, [r0, r2]
1045:../../Middlewares/AI_Runtime/Npu/ll_aton/ll_aton.c ****   {
 2544              		.loc 1 1045 23 discriminator 3 view .LVU733
 2545 001e 0134     		adds	r4, r4, #1
 2546              	.LVL281:
1048:../../Middlewares/AI_Runtime/Npu/ll_aton/ll_aton.c **** 
 2547              		.loc 1 1048 47 view .LVU734
 2548 0020 02F1B042 		add	r2, r2, #1476395008
 2549 0024 02F56422 		add	r2, r2, #933888
 2550              	.LVL282:
1051:../../Middlewares/AI_Runtime/Npu/ll_aton/ll_aton.c ****   }
 2551              		.loc 1 1051 5 is_stmt 1 view .LVU735
1051:../../Middlewares/AI_Runtime/Npu/ll_aton/ll_aton.c ****   }
 2552              		.loc 1 1051 5 view .LVU736
 2553 0028 1560     		str	r5, [r2]
1051:../../Middlewares/AI_Runtime/Npu/ll_aton/ll_aton.c ****   }
 2554              		.loc 1 1051 5 view .LVU737
1045:../../Middlewares/AI_Runtime/Npu/ll_aton/ll_aton.c ****   {
 2555              		.loc 1 1045 23 discriminator 3 view .LVU738
 2556              	.LVL283:
1045:../../Middlewares/AI_Runtime/Npu/ll_aton/ll_aton.c ****   {
 2557              		.loc 1 1045 23 is_stmt 0 discriminator 3 view .LVU739
 2558 002a F2E7     		b	.L216
 2559              		.cfi_endproc
 2560              	.LFE4835:
 2562              		.section	.text.LL_Switch_Deinit_Fine_Grained,"ax",%progbits
ARM GAS  C:\Users\Antonio\AppData\Local\Temp\ccynTwLp.s 			page 80


 2563              		.align	1
 2564              		.global	LL_Switch_Deinit_Fine_Grained
 2565              		.syntax unified
 2566              		.thumb
 2567              		.thumb_func
 2569              	LL_Switch_Deinit_Fine_Grained:
 2570              	.LVL284:
 2571              	.LFB4836:
1064:../../Middlewares/AI_Runtime/Npu/ll_aton/ll_aton.c ****   int i;
 2572              		.loc 1 1064 1 is_stmt 1 view -0
 2573              		.cfi_startproc
 2574              		@ args = 0, pretend = 0, frame = 0
 2575              		@ frame_needed = 0, uses_anonymous_args = 0
1065:../../Middlewares/AI_Runtime/Npu/ll_aton/ll_aton.c ****   volatile uint32_t *reg;
 2576              		.loc 1 1065 3 view .LVU741
1066:../../Middlewares/AI_Runtime/Npu/ll_aton/ll_aton.c ****   unsigned int en_shift[ATON_SWITCH_CONTEXT_NUM] = {ATON_STRSWITCH_DST_EN0_LSB, ATON_STRSWITCH_DST_
 2577              		.loc 1 1066 3 view .LVU742
1067:../../Middlewares/AI_Runtime/Npu/ll_aton/ll_aton.c **** 
 2578              		.loc 1 1067 3 view .LVU743
1069:../../Middlewares/AI_Runtime/Npu/ll_aton/ll_aton.c ****   {
 2579              		.loc 1 1069 3 view .LVU744
1069:../../Middlewares/AI_Runtime/Npu/ll_aton/ll_aton.c ****   {
 2580              		.loc 1 1069 3 is_stmt 0 view .LVU745
 2581 0000 0029     		cmp	r1, #0
 2582 0002 01F10103 		add	r3, r1, #1
 2583 0006 B8BF     		it	lt
 2584 0008 0123     		movlt	r3, #1
1064:../../Middlewares/AI_Runtime/Npu/ll_aton/ll_aton.c ****   int i;
 2585              		.loc 1 1064 1 view .LVU746
 2586 000a 30B5     		push	{r4, r5, lr}
 2587              		.cfi_def_cfa_offset 12
 2588              		.cfi_offset 4, -12
 2589              		.cfi_offset 5, -8
 2590              		.cfi_offset 14, -4
 2591              	.LVL285:
 2592              	.L220:
1069:../../Middlewares/AI_Runtime/Npu/ll_aton/ll_aton.c ****   {
 2593              		.loc 1 1069 17 is_stmt 1 discriminator 1 view .LVU747
 2594 000c 013B     		subs	r3, r3, #1
 2595 000e 01D1     		bne	.L221
1087:../../Middlewares/AI_Runtime/Npu/ll_aton/ll_aton.c **** }
 2596              		.loc 1 1087 3 view .LVU748
1088:../../Middlewares/AI_Runtime/Npu/ll_aton/ll_aton.c **** 
 2597              		.loc 1 1088 1 is_stmt 0 view .LVU749
 2598 0010 0020     		movs	r0, #0
 2599 0012 30BD     		pop	{r4, r5, pc}
 2600              	.L221:
 2601              	.LBB33:
1072:../../Middlewares/AI_Runtime/Npu/ll_aton/ll_aton.c **** 
 2602              		.loc 1 1072 5 is_stmt 1 view .LVU750
1072:../../Middlewares/AI_Runtime/Npu/ll_aton/ll_aton.c **** 
 2603              		.loc 1 1072 47 is_stmt 0 view .LVU751
 2604 0014 8268     		ldr	r2, [r0, #8]
1077:../../Middlewares/AI_Runtime/Npu/ll_aton/ll_aton.c ****     t &= ~((LL_Switch_InitStruct[i].context1 != 0) << en_shift[1]);
 2605              		.loc 1 1077 46 view .LVU752
 2606 0016 847B     		ldrb	r4, [r0, #14]	@ zero_extendqisi2
1072:../../Middlewares/AI_Runtime/Npu/ll_aton/ll_aton.c **** 
ARM GAS  C:\Users\Antonio\AppData\Local\Temp\ccynTwLp.s 			page 81


 2607              		.loc 1 1072 47 view .LVU753
 2608 0018 02F1B042 		add	r2, r2, #1476395008
 2609 001c 02F56422 		add	r2, r2, #933888
 2610              	.LVL286:
1075:../../Middlewares/AI_Runtime/Npu/ll_aton/ll_aton.c **** #if ATON_SWITCH_CONTEXT_NUM == 2
 2611              		.loc 1 1075 5 is_stmt 1 view .LVU754
1075:../../Middlewares/AI_Runtime/Npu/ll_aton/ll_aton.c **** #if ATON_SWITCH_CONTEXT_NUM == 2
 2612              		.loc 1 1075 14 is_stmt 0 view .LVU755
 2613 0020 1168     		ldr	r1, [r2]
 2614              	.LVL287:
1077:../../Middlewares/AI_Runtime/Npu/ll_aton/ll_aton.c ****     t &= ~((LL_Switch_InitStruct[i].context1 != 0) << en_shift[1]);
 2615              		.loc 1 1077 5 is_stmt 1 view .LVU756
1077:../../Middlewares/AI_Runtime/Npu/ll_aton/ll_aton.c ****     t &= ~((LL_Switch_InitStruct[i].context1 != 0) << en_shift[1]);
 2616              		.loc 1 1077 46 is_stmt 0 view .LVU757
 2617 0022 04F00105 		and	r5, r4, #1
1077:../../Middlewares/AI_Runtime/Npu/ll_aton/ll_aton.c ****     t &= ~((LL_Switch_InitStruct[i].context1 != 0) << en_shift[1]);
 2618              		.loc 1 1077 7 view .LVU758
 2619 0026 21EA0501 		bic	r1, r1, r5
 2620              	.LVL288:
1078:../../Middlewares/AI_Runtime/Npu/ll_aton/ll_aton.c **** #else
 2621              		.loc 1 1078 5 is_stmt 1 view .LVU759
1078:../../Middlewares/AI_Runtime/Npu/ll_aton/ll_aton.c **** #else
 2622              		.loc 1 1078 46 is_stmt 0 view .LVU760
 2623 002a C4F34004 		ubfx	r4, r4, #1, #1
1078:../../Middlewares/AI_Runtime/Npu/ll_aton/ll_aton.c **** #else
 2624              		.loc 1 1078 7 view .LVU761
 2625 002e 21EA0441 		bic	r1, r1, r4, lsl #16
 2626              	.LVL289:
1084:../../Middlewares/AI_Runtime/Npu/ll_aton/ll_aton.c ****   }
 2627              		.loc 1 1084 5 is_stmt 1 view .LVU762
1084:../../Middlewares/AI_Runtime/Npu/ll_aton/ll_aton.c ****   }
 2628              		.loc 1 1084 5 view .LVU763
 2629 0032 1160     		str	r1, [r2]
1084:../../Middlewares/AI_Runtime/Npu/ll_aton/ll_aton.c ****   }
 2630              		.loc 1 1084 5 view .LVU764
 2631              	.LBE33:
1069:../../Middlewares/AI_Runtime/Npu/ll_aton/ll_aton.c ****   {
 2632              		.loc 1 1069 23 discriminator 3 view .LVU765
 2633 0034 1030     		adds	r0, r0, #16
 2634 0036 E9E7     		b	.L220
 2635              		.cfi_endproc
 2636              	.LFE4836:
 2638              		.section	.text.LL_EpochCtrl_Step,"ax",%progbits
 2639              		.align	1
 2640              		.global	LL_EpochCtrl_Step
 2641              		.syntax unified
 2642              		.thumb
 2643              		.thumb_func
 2645              	LL_EpochCtrl_Step:
 2646              	.LVL290:
 2647              	.LFB4849:
1203:../../Middlewares/AI_Runtime/Npu/ll_aton/ll_aton.c **** 
1204:../../Middlewares/AI_Runtime/Npu/ll_aton/ll_aton.c **** static void LL_Decun_CB_1byte(int id, const LL_Decun_InitTypeDef *conf, uint32_t ctrl_val)
1205:../../Middlewares/AI_Runtime/Npu/ll_aton/ll_aton.c **** {
1206:../../Middlewares/AI_Runtime/Npu/ll_aton/ll_aton.c ****   unsigned CBsize = conf->CBs_size;
1207:../../Middlewares/AI_Runtime/Npu/ll_aton/ll_aton.c ****   unsigned i, k;
1208:../../Middlewares/AI_Runtime/Npu/ll_aton/ll_aton.c ****   unsigned mem_idx_num = ATON_DECUN_MEM_LOW_IDX_MAX - ATON_DECUN_MEM_LOW_IDX_MIN + 1;
ARM GAS  C:\Users\Antonio\AppData\Local\Temp\ccynTwLp.s 			page 82


1209:../../Middlewares/AI_Runtime/Npu/ll_aton/ll_aton.c **** 
1210:../../Middlewares/AI_Runtime/Npu/ll_aton/ll_aton.c ****   if (conf->nCWperCV == 1)
1211:../../Middlewares/AI_Runtime/Npu/ll_aton/ll_aton.c ****   {
1212:../../Middlewares/AI_Runtime/Npu/ll_aton/ll_aton.c ****     uint8_t *CBp = (uint8_t *)conf->CBs_vector.p;
1213:../../Middlewares/AI_Runtime/Npu/ll_aton/ll_aton.c ****     for (i = 0, k = 0; i < CBsize; i++)
1214:../../Middlewares/AI_Runtime/Npu/ll_aton/ll_aton.c ****     {
1215:../../Middlewares/AI_Runtime/Npu/ll_aton/ll_aton.c ****       uint32_t temp = CBp[i];
1216:../../Middlewares/AI_Runtime/Npu/ll_aton/ll_aton.c ****       ATON_DECUN_MEM_LOW_SET(id, k, temp);
1217:../../Middlewares/AI_Runtime/Npu/ll_aton/ll_aton.c ****       k++;
1218:../../Middlewares/AI_Runtime/Npu/ll_aton/ll_aton.c ****       if (k == mem_idx_num)
1219:../../Middlewares/AI_Runtime/Npu/ll_aton/ll_aton.c ****       {
1220:../../Middlewares/AI_Runtime/Npu/ll_aton/ll_aton.c ****         ctrl_val = decun_inc_page_addr(id, ctrl_val);
1221:../../Middlewares/AI_Runtime/Npu/ll_aton/ll_aton.c ****         k = 0;
1222:../../Middlewares/AI_Runtime/Npu/ll_aton/ll_aton.c ****       }
1223:../../Middlewares/AI_Runtime/Npu/ll_aton/ll_aton.c ****     }
1224:../../Middlewares/AI_Runtime/Npu/ll_aton/ll_aton.c ****   }
1225:../../Middlewares/AI_Runtime/Npu/ll_aton/ll_aton.c ****   if (conf->nCWperCV == 2)
1226:../../Middlewares/AI_Runtime/Npu/ll_aton/ll_aton.c ****   {
1227:../../Middlewares/AI_Runtime/Npu/ll_aton/ll_aton.c **** #if 0
1228:../../Middlewares/AI_Runtime/Npu/ll_aton/ll_aton.c ****     uint8_t *CBp = (uint8_t *)conf->CBs_vector.p;
1229:../../Middlewares/AI_Runtime/Npu/ll_aton/ll_aton.c ****     for (i = 0, k = 0; i < CBsize; i += 2)
1230:../../Middlewares/AI_Runtime/Npu/ll_aton/ll_aton.c ****     {
1231:../../Middlewares/AI_Runtime/Npu/ll_aton/ll_aton.c ****       uint32_t temp = CBp[i] | (CBp[i + 1] << 8);
1232:../../Middlewares/AI_Runtime/Npu/ll_aton/ll_aton.c ****       ATON_DECUN_MEM_LOW_SET(id, k, temp);
1233:../../Middlewares/AI_Runtime/Npu/ll_aton/ll_aton.c ****       k++;
1234:../../Middlewares/AI_Runtime/Npu/ll_aton/ll_aton.c ****       if (k == mem_idx_num )
1235:../../Middlewares/AI_Runtime/Npu/ll_aton/ll_aton.c ****       {
1236:../../Middlewares/AI_Runtime/Npu/ll_aton/ll_aton.c ****         ctrl_val = decun_inc_page_addr(id, ctrl_val);
1237:../../Middlewares/AI_Runtime/Npu/ll_aton/ll_aton.c ****         k = 0;
1238:../../Middlewares/AI_Runtime/Npu/ll_aton/ll_aton.c ****       }
1239:../../Middlewares/AI_Runtime/Npu/ll_aton/ll_aton.c ****     }
1240:../../Middlewares/AI_Runtime/Npu/ll_aton/ll_aton.c **** #else
1241:../../Middlewares/AI_Runtime/Npu/ll_aton/ll_aton.c ****     uint16_t *CBp = (uint16_t *)conf->CBs_vector.p;
1242:../../Middlewares/AI_Runtime/Npu/ll_aton/ll_aton.c ****     for (i = 0, k = 0; i < CBsize / 2; i++)
1243:../../Middlewares/AI_Runtime/Npu/ll_aton/ll_aton.c ****     {
1244:../../Middlewares/AI_Runtime/Npu/ll_aton/ll_aton.c ****       uint32_t temp = CBp[i];
1245:../../Middlewares/AI_Runtime/Npu/ll_aton/ll_aton.c ****       ATON_DECUN_MEM_LOW_SET(id, k, temp);
1246:../../Middlewares/AI_Runtime/Npu/ll_aton/ll_aton.c ****       k++;
1247:../../Middlewares/AI_Runtime/Npu/ll_aton/ll_aton.c ****       if (k == mem_idx_num)
1248:../../Middlewares/AI_Runtime/Npu/ll_aton/ll_aton.c ****       {
1249:../../Middlewares/AI_Runtime/Npu/ll_aton/ll_aton.c ****         ctrl_val = decun_inc_page_addr(id, ctrl_val);
1250:../../Middlewares/AI_Runtime/Npu/ll_aton/ll_aton.c ****         k = 0;
1251:../../Middlewares/AI_Runtime/Npu/ll_aton/ll_aton.c ****       }
1252:../../Middlewares/AI_Runtime/Npu/ll_aton/ll_aton.c ****     }
1253:../../Middlewares/AI_Runtime/Npu/ll_aton/ll_aton.c **** #endif
1254:../../Middlewares/AI_Runtime/Npu/ll_aton/ll_aton.c ****   }
1255:../../Middlewares/AI_Runtime/Npu/ll_aton/ll_aton.c ****   if (conf->nCWperCV == 3)
1256:../../Middlewares/AI_Runtime/Npu/ll_aton/ll_aton.c ****   {
1257:../../Middlewares/AI_Runtime/Npu/ll_aton/ll_aton.c ****     uint8_t *CBp = (uint8_t *)conf->CBs_vector.p;
1258:../../Middlewares/AI_Runtime/Npu/ll_aton/ll_aton.c ****     for (i = 0, k = 0; i < CBsize; i += 3)
1259:../../Middlewares/AI_Runtime/Npu/ll_aton/ll_aton.c ****     {
1260:../../Middlewares/AI_Runtime/Npu/ll_aton/ll_aton.c ****       uint32_t temp = CBp[i] | (CBp[i + 1] << 8) | (CBp[i + 2] << 16);
1261:../../Middlewares/AI_Runtime/Npu/ll_aton/ll_aton.c ****       ATON_DECUN_MEM_LOW_SET(id, k, temp);
1262:../../Middlewares/AI_Runtime/Npu/ll_aton/ll_aton.c ****       k++;
1263:../../Middlewares/AI_Runtime/Npu/ll_aton/ll_aton.c ****       if (k == mem_idx_num)
1264:../../Middlewares/AI_Runtime/Npu/ll_aton/ll_aton.c ****       {
1265:../../Middlewares/AI_Runtime/Npu/ll_aton/ll_aton.c ****         ctrl_val = decun_inc_page_addr(id, ctrl_val);
ARM GAS  C:\Users\Antonio\AppData\Local\Temp\ccynTwLp.s 			page 83


1266:../../Middlewares/AI_Runtime/Npu/ll_aton/ll_aton.c ****         k = 0;
1267:../../Middlewares/AI_Runtime/Npu/ll_aton/ll_aton.c ****       }
1268:../../Middlewares/AI_Runtime/Npu/ll_aton/ll_aton.c ****     }
1269:../../Middlewares/AI_Runtime/Npu/ll_aton/ll_aton.c ****   }
1270:../../Middlewares/AI_Runtime/Npu/ll_aton/ll_aton.c ****   if (conf->nCWperCV == 4 || conf->nCWperCV == 8)
1271:../../Middlewares/AI_Runtime/Npu/ll_aton/ll_aton.c ****   {
1272:../../Middlewares/AI_Runtime/Npu/ll_aton/ll_aton.c ****     uint32_t *CBp = (uint32_t *)conf->CBs_vector.p;
1273:../../Middlewares/AI_Runtime/Npu/ll_aton/ll_aton.c ****     for (i = 0, k = 0; i < CBsize / 4; i++)
1274:../../Middlewares/AI_Runtime/Npu/ll_aton/ll_aton.c ****     {
1275:../../Middlewares/AI_Runtime/Npu/ll_aton/ll_aton.c ****       uint32_t temp = CBp[i];
1276:../../Middlewares/AI_Runtime/Npu/ll_aton/ll_aton.c ****       ATON_DECUN_MEM_LOW_SET(id, k, temp);
1277:../../Middlewares/AI_Runtime/Npu/ll_aton/ll_aton.c ****       k++;
1278:../../Middlewares/AI_Runtime/Npu/ll_aton/ll_aton.c ****       if (k == mem_idx_num)
1279:../../Middlewares/AI_Runtime/Npu/ll_aton/ll_aton.c ****       {
1280:../../Middlewares/AI_Runtime/Npu/ll_aton/ll_aton.c ****         ctrl_val = decun_inc_page_addr(id, ctrl_val);
1281:../../Middlewares/AI_Runtime/Npu/ll_aton/ll_aton.c ****         k = 0;
1282:../../Middlewares/AI_Runtime/Npu/ll_aton/ll_aton.c ****       }
1283:../../Middlewares/AI_Runtime/Npu/ll_aton/ll_aton.c ****     }
1284:../../Middlewares/AI_Runtime/Npu/ll_aton/ll_aton.c ****   }
1285:../../Middlewares/AI_Runtime/Npu/ll_aton/ll_aton.c ****   if (conf->nCWperCV == 5)
1286:../../Middlewares/AI_Runtime/Npu/ll_aton/ll_aton.c ****   {
1287:../../Middlewares/AI_Runtime/Npu/ll_aton/ll_aton.c ****     uint8_t *CBp = (uint8_t *)conf->CBs_vector.p;
1288:../../Middlewares/AI_Runtime/Npu/ll_aton/ll_aton.c ****     for (i = 0, k = 0; i < CBsize; i += 5)
1289:../../Middlewares/AI_Runtime/Npu/ll_aton/ll_aton.c ****     {
1290:../../Middlewares/AI_Runtime/Npu/ll_aton/ll_aton.c ****       uint32_t temp = CBp[i] | (CBp[i + 1] << 8) | (CBp[i + 2] << 16) | (CBp[i + 3] << 24);
1291:../../Middlewares/AI_Runtime/Npu/ll_aton/ll_aton.c ****       ATON_DECUN_MEM_LOW_SET(id, k, temp);
1292:../../Middlewares/AI_Runtime/Npu/ll_aton/ll_aton.c ****       k++;
1293:../../Middlewares/AI_Runtime/Npu/ll_aton/ll_aton.c ****       temp = CBp[i + 4];
1294:../../Middlewares/AI_Runtime/Npu/ll_aton/ll_aton.c ****       ATON_DECUN_MEM_LOW_SET(id, k, temp);
1295:../../Middlewares/AI_Runtime/Npu/ll_aton/ll_aton.c ****       k++;
1296:../../Middlewares/AI_Runtime/Npu/ll_aton/ll_aton.c ****       if (k == mem_idx_num)
1297:../../Middlewares/AI_Runtime/Npu/ll_aton/ll_aton.c ****       {
1298:../../Middlewares/AI_Runtime/Npu/ll_aton/ll_aton.c ****         ctrl_val = decun_inc_page_addr(id, ctrl_val);
1299:../../Middlewares/AI_Runtime/Npu/ll_aton/ll_aton.c ****         k = 0;
1300:../../Middlewares/AI_Runtime/Npu/ll_aton/ll_aton.c ****       }
1301:../../Middlewares/AI_Runtime/Npu/ll_aton/ll_aton.c ****     }
1302:../../Middlewares/AI_Runtime/Npu/ll_aton/ll_aton.c ****   }
1303:../../Middlewares/AI_Runtime/Npu/ll_aton/ll_aton.c ****   if (conf->nCWperCV == 6)
1304:../../Middlewares/AI_Runtime/Npu/ll_aton/ll_aton.c ****   {
1305:../../Middlewares/AI_Runtime/Npu/ll_aton/ll_aton.c **** #if 0
1306:../../Middlewares/AI_Runtime/Npu/ll_aton/ll_aton.c ****     uint8_t *CBp = (uint8_t *)conf->CBs_vector.p;
1307:../../Middlewares/AI_Runtime/Npu/ll_aton/ll_aton.c ****     for (i = 0, k = 0; i < CBsize; i += 6)
1308:../../Middlewares/AI_Runtime/Npu/ll_aton/ll_aton.c ****     {
1309:../../Middlewares/AI_Runtime/Npu/ll_aton/ll_aton.c ****       uint32_t temp = CBp[i] | (CBp[i + 1] << 8) | (CBp[i + 2] << 16) | (CBp[i + 3] << 24);
1310:../../Middlewares/AI_Runtime/Npu/ll_aton/ll_aton.c ****       ATON_DECUN_MEM_LOW_SET(id, k, temp);
1311:../../Middlewares/AI_Runtime/Npu/ll_aton/ll_aton.c ****       k++;
1312:../../Middlewares/AI_Runtime/Npu/ll_aton/ll_aton.c ****       temp = CBp[i + 4] | (CBp[i + 5] << 8);
1313:../../Middlewares/AI_Runtime/Npu/ll_aton/ll_aton.c ****       ATON_DECUN_MEM_LOW_SET(id, k, temp);
1314:../../Middlewares/AI_Runtime/Npu/ll_aton/ll_aton.c ****       k++;
1315:../../Middlewares/AI_Runtime/Npu/ll_aton/ll_aton.c ****       if (k == mem_idx_num )
1316:../../Middlewares/AI_Runtime/Npu/ll_aton/ll_aton.c ****       {
1317:../../Middlewares/AI_Runtime/Npu/ll_aton/ll_aton.c ****         ctrl_val = decun_inc_page_addr(id, ctrl_val);
1318:../../Middlewares/AI_Runtime/Npu/ll_aton/ll_aton.c ****         k = 0;
1319:../../Middlewares/AI_Runtime/Npu/ll_aton/ll_aton.c ****       }
1320:../../Middlewares/AI_Runtime/Npu/ll_aton/ll_aton.c ****     }
1321:../../Middlewares/AI_Runtime/Npu/ll_aton/ll_aton.c **** #else
1322:../../Middlewares/AI_Runtime/Npu/ll_aton/ll_aton.c ****     uint16_t *CBp = (uint16_t *)conf->CBs_vector.p;
ARM GAS  C:\Users\Antonio\AppData\Local\Temp\ccynTwLp.s 			page 84


1323:../../Middlewares/AI_Runtime/Npu/ll_aton/ll_aton.c ****     for (i = 0, k = 0; i < CBsize / 2; i += 3)
1324:../../Middlewares/AI_Runtime/Npu/ll_aton/ll_aton.c ****     {
1325:../../Middlewares/AI_Runtime/Npu/ll_aton/ll_aton.c ****       uint32_t temp = CBp[i] | (CBp[i + 1] << 16);
1326:../../Middlewares/AI_Runtime/Npu/ll_aton/ll_aton.c ****       ATON_DECUN_MEM_LOW_SET(id, k, temp);
1327:../../Middlewares/AI_Runtime/Npu/ll_aton/ll_aton.c ****       k++;
1328:../../Middlewares/AI_Runtime/Npu/ll_aton/ll_aton.c ****       temp = CBp[i + 2];
1329:../../Middlewares/AI_Runtime/Npu/ll_aton/ll_aton.c ****       ATON_DECUN_MEM_LOW_SET(id, k, temp);
1330:../../Middlewares/AI_Runtime/Npu/ll_aton/ll_aton.c ****       k++;
1331:../../Middlewares/AI_Runtime/Npu/ll_aton/ll_aton.c ****       if (k == mem_idx_num)
1332:../../Middlewares/AI_Runtime/Npu/ll_aton/ll_aton.c ****       {
1333:../../Middlewares/AI_Runtime/Npu/ll_aton/ll_aton.c ****         ctrl_val = decun_inc_page_addr(id, ctrl_val);
1334:../../Middlewares/AI_Runtime/Npu/ll_aton/ll_aton.c ****         k = 0;
1335:../../Middlewares/AI_Runtime/Npu/ll_aton/ll_aton.c ****       }
1336:../../Middlewares/AI_Runtime/Npu/ll_aton/ll_aton.c ****     }
1337:../../Middlewares/AI_Runtime/Npu/ll_aton/ll_aton.c **** #endif
1338:../../Middlewares/AI_Runtime/Npu/ll_aton/ll_aton.c ****   }
1339:../../Middlewares/AI_Runtime/Npu/ll_aton/ll_aton.c ****   if (conf->nCWperCV == 7)
1340:../../Middlewares/AI_Runtime/Npu/ll_aton/ll_aton.c ****   {
1341:../../Middlewares/AI_Runtime/Npu/ll_aton/ll_aton.c ****     uint8_t *CBp = (uint8_t *)conf->CBs_vector.p;
1342:../../Middlewares/AI_Runtime/Npu/ll_aton/ll_aton.c ****     for (i = 0, k = 0; i < CBsize; i += 7)
1343:../../Middlewares/AI_Runtime/Npu/ll_aton/ll_aton.c ****     {
1344:../../Middlewares/AI_Runtime/Npu/ll_aton/ll_aton.c ****       uint32_t temp = CBp[i] | (CBp[i + 1] << 8) | (CBp[i + 2] << 16) | (CBp[i + 3] << 24);
1345:../../Middlewares/AI_Runtime/Npu/ll_aton/ll_aton.c ****       ATON_DECUN_MEM_LOW_SET(id, k, temp);
1346:../../Middlewares/AI_Runtime/Npu/ll_aton/ll_aton.c ****       k++;
1347:../../Middlewares/AI_Runtime/Npu/ll_aton/ll_aton.c ****       temp = CBp[i + 4] | (CBp[i + 5] << 8) | (CBp[i + 6] << 16);
1348:../../Middlewares/AI_Runtime/Npu/ll_aton/ll_aton.c ****       ATON_DECUN_MEM_LOW_SET(id, k, temp);
1349:../../Middlewares/AI_Runtime/Npu/ll_aton/ll_aton.c ****       k++;
1350:../../Middlewares/AI_Runtime/Npu/ll_aton/ll_aton.c ****       if (k == mem_idx_num)
1351:../../Middlewares/AI_Runtime/Npu/ll_aton/ll_aton.c ****       {
1352:../../Middlewares/AI_Runtime/Npu/ll_aton/ll_aton.c ****         ctrl_val = decun_inc_page_addr(id, ctrl_val);
1353:../../Middlewares/AI_Runtime/Npu/ll_aton/ll_aton.c ****         k = 0;
1354:../../Middlewares/AI_Runtime/Npu/ll_aton/ll_aton.c ****       }
1355:../../Middlewares/AI_Runtime/Npu/ll_aton/ll_aton.c ****     }
1356:../../Middlewares/AI_Runtime/Npu/ll_aton/ll_aton.c ****   }
1357:../../Middlewares/AI_Runtime/Npu/ll_aton/ll_aton.c **** }
1358:../../Middlewares/AI_Runtime/Npu/ll_aton/ll_aton.c **** 
1359:../../Middlewares/AI_Runtime/Npu/ll_aton/ll_aton.c **** static void LL_Decun_CB_2byte(int id, const LL_Decun_InitTypeDef *conf, uint32_t ctrl_val)
1360:../../Middlewares/AI_Runtime/Npu/ll_aton/ll_aton.c **** {
1361:../../Middlewares/AI_Runtime/Npu/ll_aton/ll_aton.c ****   unsigned CBsize = conf->CBs_size / 2;
1362:../../Middlewares/AI_Runtime/Npu/ll_aton/ll_aton.c ****   unsigned i, k;
1363:../../Middlewares/AI_Runtime/Npu/ll_aton/ll_aton.c ****   unsigned mem_idx_num = ATON_DECUN_MEM_LOW_IDX_MAX - ATON_DECUN_MEM_LOW_IDX_MIN + 1;
1364:../../Middlewares/AI_Runtime/Npu/ll_aton/ll_aton.c **** 
1365:../../Middlewares/AI_Runtime/Npu/ll_aton/ll_aton.c ****   if (conf->nCWperCV == 1)
1366:../../Middlewares/AI_Runtime/Npu/ll_aton/ll_aton.c ****   {
1367:../../Middlewares/AI_Runtime/Npu/ll_aton/ll_aton.c ****     uint16_t *CBp = (uint16_t *)conf->CBs_vector.p;
1368:../../Middlewares/AI_Runtime/Npu/ll_aton/ll_aton.c ****     for (i = 0, k = 0; i < CBsize; i++)
1369:../../Middlewares/AI_Runtime/Npu/ll_aton/ll_aton.c ****     {
1370:../../Middlewares/AI_Runtime/Npu/ll_aton/ll_aton.c ****       uint32_t temp = CBp[i];
1371:../../Middlewares/AI_Runtime/Npu/ll_aton/ll_aton.c ****       ATON_DECUN_MEM_LOW_SET(id, k, temp);
1372:../../Middlewares/AI_Runtime/Npu/ll_aton/ll_aton.c ****       k++;
1373:../../Middlewares/AI_Runtime/Npu/ll_aton/ll_aton.c ****       if (k == mem_idx_num)
1374:../../Middlewares/AI_Runtime/Npu/ll_aton/ll_aton.c ****       {
1375:../../Middlewares/AI_Runtime/Npu/ll_aton/ll_aton.c ****         ctrl_val = decun_inc_page_addr(id, ctrl_val);
1376:../../Middlewares/AI_Runtime/Npu/ll_aton/ll_aton.c ****         k = 0;
1377:../../Middlewares/AI_Runtime/Npu/ll_aton/ll_aton.c ****       }
1378:../../Middlewares/AI_Runtime/Npu/ll_aton/ll_aton.c ****     }
1379:../../Middlewares/AI_Runtime/Npu/ll_aton/ll_aton.c ****   }
ARM GAS  C:\Users\Antonio\AppData\Local\Temp\ccynTwLp.s 			page 85


1380:../../Middlewares/AI_Runtime/Npu/ll_aton/ll_aton.c ****   if (conf->nCWperCV == 2)
1381:../../Middlewares/AI_Runtime/Npu/ll_aton/ll_aton.c ****   {
1382:../../Middlewares/AI_Runtime/Npu/ll_aton/ll_aton.c **** #if 0
1383:../../Middlewares/AI_Runtime/Npu/ll_aton/ll_aton.c ****     uint16_t *CBp = (uint16_t *)conf->CBs_vector.p;
1384:../../Middlewares/AI_Runtime/Npu/ll_aton/ll_aton.c ****     for (i = 0, k = 0; i < CBsize; i += 2)
1385:../../Middlewares/AI_Runtime/Npu/ll_aton/ll_aton.c ****     {
1386:../../Middlewares/AI_Runtime/Npu/ll_aton/ll_aton.c ****       uint32_t temp = CBp[i] | (CBp[i + 1] << 16);
1387:../../Middlewares/AI_Runtime/Npu/ll_aton/ll_aton.c ****       ATON_DECUN_MEM_LOW_SET(id, k, temp);
1388:../../Middlewares/AI_Runtime/Npu/ll_aton/ll_aton.c ****       k++;
1389:../../Middlewares/AI_Runtime/Npu/ll_aton/ll_aton.c ****       if (k == mem_idx_num )
1390:../../Middlewares/AI_Runtime/Npu/ll_aton/ll_aton.c ****       {
1391:../../Middlewares/AI_Runtime/Npu/ll_aton/ll_aton.c ****         ctrl_val = decun_inc_page_addr(id, ctrl_val);
1392:../../Middlewares/AI_Runtime/Npu/ll_aton/ll_aton.c ****         k = 0;
1393:../../Middlewares/AI_Runtime/Npu/ll_aton/ll_aton.c ****       }
1394:../../Middlewares/AI_Runtime/Npu/ll_aton/ll_aton.c ****     }
1395:../../Middlewares/AI_Runtime/Npu/ll_aton/ll_aton.c **** #else
1396:../../Middlewares/AI_Runtime/Npu/ll_aton/ll_aton.c ****     uint32_t *CBp = (uint32_t *)conf->CBs_vector.p;
1397:../../Middlewares/AI_Runtime/Npu/ll_aton/ll_aton.c ****     for (i = 0, k = 0; i < CBsize / 2; i++)
1398:../../Middlewares/AI_Runtime/Npu/ll_aton/ll_aton.c ****     {
1399:../../Middlewares/AI_Runtime/Npu/ll_aton/ll_aton.c ****       uint32_t temp = CBp[i];
1400:../../Middlewares/AI_Runtime/Npu/ll_aton/ll_aton.c ****       ATON_DECUN_MEM_LOW_SET(id, k, temp);
1401:../../Middlewares/AI_Runtime/Npu/ll_aton/ll_aton.c ****       k++;
1402:../../Middlewares/AI_Runtime/Npu/ll_aton/ll_aton.c ****       if (k == mem_idx_num)
1403:../../Middlewares/AI_Runtime/Npu/ll_aton/ll_aton.c ****       {
1404:../../Middlewares/AI_Runtime/Npu/ll_aton/ll_aton.c ****         ctrl_val = decun_inc_page_addr(id, ctrl_val);
1405:../../Middlewares/AI_Runtime/Npu/ll_aton/ll_aton.c ****         k = 0;
1406:../../Middlewares/AI_Runtime/Npu/ll_aton/ll_aton.c ****       }
1407:../../Middlewares/AI_Runtime/Npu/ll_aton/ll_aton.c ****     }
1408:../../Middlewares/AI_Runtime/Npu/ll_aton/ll_aton.c **** #endif
1409:../../Middlewares/AI_Runtime/Npu/ll_aton/ll_aton.c ****   }
1410:../../Middlewares/AI_Runtime/Npu/ll_aton/ll_aton.c ****   if (conf->nCWperCV == 3)
1411:../../Middlewares/AI_Runtime/Npu/ll_aton/ll_aton.c ****   {
1412:../../Middlewares/AI_Runtime/Npu/ll_aton/ll_aton.c ****     uint16_t *CBp = (uint16_t *)conf->CBs_vector.p;
1413:../../Middlewares/AI_Runtime/Npu/ll_aton/ll_aton.c ****     for (i = 0, k = 0; i < CBsize; i += 3)
1414:../../Middlewares/AI_Runtime/Npu/ll_aton/ll_aton.c ****     {
1415:../../Middlewares/AI_Runtime/Npu/ll_aton/ll_aton.c ****       uint32_t temp = CBp[i] | (CBp[i + 1] << 16);
1416:../../Middlewares/AI_Runtime/Npu/ll_aton/ll_aton.c ****       ATON_DECUN_MEM_LOW_SET(id, k, temp);
1417:../../Middlewares/AI_Runtime/Npu/ll_aton/ll_aton.c ****       temp = CBp[i + 2];
1418:../../Middlewares/AI_Runtime/Npu/ll_aton/ll_aton.c ****       ATON_DECUN_MEM_HIGH_SET(id, k, temp);
1419:../../Middlewares/AI_Runtime/Npu/ll_aton/ll_aton.c ****       k++;
1420:../../Middlewares/AI_Runtime/Npu/ll_aton/ll_aton.c ****       if (k == mem_idx_num)
1421:../../Middlewares/AI_Runtime/Npu/ll_aton/ll_aton.c ****       {
1422:../../Middlewares/AI_Runtime/Npu/ll_aton/ll_aton.c ****         ctrl_val = decun_inc_page_addr(id, ctrl_val);
1423:../../Middlewares/AI_Runtime/Npu/ll_aton/ll_aton.c ****         k = 0;
1424:../../Middlewares/AI_Runtime/Npu/ll_aton/ll_aton.c ****       }
1425:../../Middlewares/AI_Runtime/Npu/ll_aton/ll_aton.c ****     }
1426:../../Middlewares/AI_Runtime/Npu/ll_aton/ll_aton.c ****   }
1427:../../Middlewares/AI_Runtime/Npu/ll_aton/ll_aton.c ****   if (conf->nCWperCV == 4)
1428:../../Middlewares/AI_Runtime/Npu/ll_aton/ll_aton.c ****   {
1429:../../Middlewares/AI_Runtime/Npu/ll_aton/ll_aton.c ****     uint32_t *CBp = (uint32_t *)conf->CBs_vector.p;
1430:../../Middlewares/AI_Runtime/Npu/ll_aton/ll_aton.c ****     for (i = 0, k = 0; i < CBsize / 2; i += 2)
1431:../../Middlewares/AI_Runtime/Npu/ll_aton/ll_aton.c ****     {
1432:../../Middlewares/AI_Runtime/Npu/ll_aton/ll_aton.c ****       uint32_t temp = CBp[i];
1433:../../Middlewares/AI_Runtime/Npu/ll_aton/ll_aton.c ****       ATON_DECUN_MEM_LOW_SET(id, k, temp);
1434:../../Middlewares/AI_Runtime/Npu/ll_aton/ll_aton.c ****       temp = CBp[i + 1];
1435:../../Middlewares/AI_Runtime/Npu/ll_aton/ll_aton.c ****       ATON_DECUN_MEM_HIGH_SET(id, k, temp);
1436:../../Middlewares/AI_Runtime/Npu/ll_aton/ll_aton.c ****       k++;
ARM GAS  C:\Users\Antonio\AppData\Local\Temp\ccynTwLp.s 			page 86


1437:../../Middlewares/AI_Runtime/Npu/ll_aton/ll_aton.c ****       if (k == mem_idx_num)
1438:../../Middlewares/AI_Runtime/Npu/ll_aton/ll_aton.c ****       {
1439:../../Middlewares/AI_Runtime/Npu/ll_aton/ll_aton.c ****         ctrl_val = decun_inc_page_addr(id, ctrl_val);
1440:../../Middlewares/AI_Runtime/Npu/ll_aton/ll_aton.c ****         k = 0;
1441:../../Middlewares/AI_Runtime/Npu/ll_aton/ll_aton.c ****       }
1442:../../Middlewares/AI_Runtime/Npu/ll_aton/ll_aton.c ****     }
1443:../../Middlewares/AI_Runtime/Npu/ll_aton/ll_aton.c ****   }
1444:../../Middlewares/AI_Runtime/Npu/ll_aton/ll_aton.c ****   if (conf->nCWperCV == 5)
1445:../../Middlewares/AI_Runtime/Npu/ll_aton/ll_aton.c ****   {
1446:../../Middlewares/AI_Runtime/Npu/ll_aton/ll_aton.c ****     uint16_t *CBp = (uint16_t *)conf->CBs_vector.p;
1447:../../Middlewares/AI_Runtime/Npu/ll_aton/ll_aton.c ****     for (i = 0, k = 0; i < CBsize; i += 5)
1448:../../Middlewares/AI_Runtime/Npu/ll_aton/ll_aton.c ****     {
1449:../../Middlewares/AI_Runtime/Npu/ll_aton/ll_aton.c ****       uint32_t temp = CBp[i] | (CBp[i + 1] << 16);
1450:../../Middlewares/AI_Runtime/Npu/ll_aton/ll_aton.c ****       ATON_DECUN_MEM_LOW_SET(id, k, temp);
1451:../../Middlewares/AI_Runtime/Npu/ll_aton/ll_aton.c ****       temp = CBp[i + 2] | (CBp[i + 3] << 16);
1452:../../Middlewares/AI_Runtime/Npu/ll_aton/ll_aton.c ****       ATON_DECUN_MEM_HIGH_SET(id, k, temp);
1453:../../Middlewares/AI_Runtime/Npu/ll_aton/ll_aton.c ****       k++;
1454:../../Middlewares/AI_Runtime/Npu/ll_aton/ll_aton.c ****       temp = CBp[i + 4];
1455:../../Middlewares/AI_Runtime/Npu/ll_aton/ll_aton.c ****       ATON_DECUN_MEM_LOW_SET(id, k, temp);
1456:../../Middlewares/AI_Runtime/Npu/ll_aton/ll_aton.c ****       k++;
1457:../../Middlewares/AI_Runtime/Npu/ll_aton/ll_aton.c ****       if (k == mem_idx_num)
1458:../../Middlewares/AI_Runtime/Npu/ll_aton/ll_aton.c ****       {
1459:../../Middlewares/AI_Runtime/Npu/ll_aton/ll_aton.c ****         ctrl_val = decun_inc_page_addr(id, ctrl_val);
1460:../../Middlewares/AI_Runtime/Npu/ll_aton/ll_aton.c ****         k = 0;
1461:../../Middlewares/AI_Runtime/Npu/ll_aton/ll_aton.c ****       }
1462:../../Middlewares/AI_Runtime/Npu/ll_aton/ll_aton.c ****     }
1463:../../Middlewares/AI_Runtime/Npu/ll_aton/ll_aton.c ****   }
1464:../../Middlewares/AI_Runtime/Npu/ll_aton/ll_aton.c ****   if (conf->nCWperCV == 6)
1465:../../Middlewares/AI_Runtime/Npu/ll_aton/ll_aton.c ****   {
1466:../../Middlewares/AI_Runtime/Npu/ll_aton/ll_aton.c **** #if 0
1467:../../Middlewares/AI_Runtime/Npu/ll_aton/ll_aton.c ****     uint16_t *CBp = (uint16_t *)conf->CBs_vector.p;
1468:../../Middlewares/AI_Runtime/Npu/ll_aton/ll_aton.c ****     for (i = 0, k = 0; i < CBsize; i += 6)
1469:../../Middlewares/AI_Runtime/Npu/ll_aton/ll_aton.c ****     {
1470:../../Middlewares/AI_Runtime/Npu/ll_aton/ll_aton.c ****       uint32_t temp = CBp[i] | (CBp[i + 1] << 16);
1471:../../Middlewares/AI_Runtime/Npu/ll_aton/ll_aton.c ****       ATON_DECUN_MEM_LOW_SET(id, k, temp);
1472:../../Middlewares/AI_Runtime/Npu/ll_aton/ll_aton.c ****       temp = CBp[i + 2] | (CBp[i + 3] << 16);
1473:../../Middlewares/AI_Runtime/Npu/ll_aton/ll_aton.c ****       ATON_DECUN_MEM_HIGH_SET(id, k, temp);
1474:../../Middlewares/AI_Runtime/Npu/ll_aton/ll_aton.c ****       k++;
1475:../../Middlewares/AI_Runtime/Npu/ll_aton/ll_aton.c ****       if (k == mem_idx_num )
1476:../../Middlewares/AI_Runtime/Npu/ll_aton/ll_aton.c ****       {
1477:../../Middlewares/AI_Runtime/Npu/ll_aton/ll_aton.c ****         ctrl_val = decun_inc_page_addr(id, ctrl_val);
1478:../../Middlewares/AI_Runtime/Npu/ll_aton/ll_aton.c ****         k = 0;
1479:../../Middlewares/AI_Runtime/Npu/ll_aton/ll_aton.c ****       }
1480:../../Middlewares/AI_Runtime/Npu/ll_aton/ll_aton.c ****       temp = CBp[i + 4] | (CBp[i + 5] << 16);
1481:../../Middlewares/AI_Runtime/Npu/ll_aton/ll_aton.c ****       ATON_DECUN_MEM_LOW_SET(id, k, temp);
1482:../../Middlewares/AI_Runtime/Npu/ll_aton/ll_aton.c ****       k++;
1483:../../Middlewares/AI_Runtime/Npu/ll_aton/ll_aton.c ****       if (k == mem_idx_num )
1484:../../Middlewares/AI_Runtime/Npu/ll_aton/ll_aton.c ****       {
1485:../../Middlewares/AI_Runtime/Npu/ll_aton/ll_aton.c ****         ctrl_val = decun_inc_page_addr(id, ctrl_val);
1486:../../Middlewares/AI_Runtime/Npu/ll_aton/ll_aton.c ****         k = 0;
1487:../../Middlewares/AI_Runtime/Npu/ll_aton/ll_aton.c ****       }
1488:../../Middlewares/AI_Runtime/Npu/ll_aton/ll_aton.c ****     }
1489:../../Middlewares/AI_Runtime/Npu/ll_aton/ll_aton.c **** #else
1490:../../Middlewares/AI_Runtime/Npu/ll_aton/ll_aton.c ****     uint32_t *CBp = (uint32_t *)conf->CBs_vector.p;
1491:../../Middlewares/AI_Runtime/Npu/ll_aton/ll_aton.c ****     for (i = 0, k = 0; i < CBsize / 2; i += 3)
1492:../../Middlewares/AI_Runtime/Npu/ll_aton/ll_aton.c ****     {
1493:../../Middlewares/AI_Runtime/Npu/ll_aton/ll_aton.c ****       uint32_t temp = CBp[i];
ARM GAS  C:\Users\Antonio\AppData\Local\Temp\ccynTwLp.s 			page 87


1494:../../Middlewares/AI_Runtime/Npu/ll_aton/ll_aton.c ****       ATON_DECUN_MEM_LOW_SET(id, k, temp);
1495:../../Middlewares/AI_Runtime/Npu/ll_aton/ll_aton.c ****       temp = CBp[i + 1];
1496:../../Middlewares/AI_Runtime/Npu/ll_aton/ll_aton.c ****       ATON_DECUN_MEM_HIGH_SET(id, k, temp);
1497:../../Middlewares/AI_Runtime/Npu/ll_aton/ll_aton.c ****       k++;
1498:../../Middlewares/AI_Runtime/Npu/ll_aton/ll_aton.c ****       temp = CBp[i + 2];
1499:../../Middlewares/AI_Runtime/Npu/ll_aton/ll_aton.c ****       ATON_DECUN_MEM_LOW_SET(id, k, temp);
1500:../../Middlewares/AI_Runtime/Npu/ll_aton/ll_aton.c ****       k++;
1501:../../Middlewares/AI_Runtime/Npu/ll_aton/ll_aton.c ****       if (k == mem_idx_num)
1502:../../Middlewares/AI_Runtime/Npu/ll_aton/ll_aton.c ****       {
1503:../../Middlewares/AI_Runtime/Npu/ll_aton/ll_aton.c ****         ctrl_val = decun_inc_page_addr(id, ctrl_val);
1504:../../Middlewares/AI_Runtime/Npu/ll_aton/ll_aton.c ****         k = 0;
1505:../../Middlewares/AI_Runtime/Npu/ll_aton/ll_aton.c ****       }
1506:../../Middlewares/AI_Runtime/Npu/ll_aton/ll_aton.c ****     }
1507:../../Middlewares/AI_Runtime/Npu/ll_aton/ll_aton.c **** #endif
1508:../../Middlewares/AI_Runtime/Npu/ll_aton/ll_aton.c ****   }
1509:../../Middlewares/AI_Runtime/Npu/ll_aton/ll_aton.c ****   if (conf->nCWperCV == 7)
1510:../../Middlewares/AI_Runtime/Npu/ll_aton/ll_aton.c ****   {
1511:../../Middlewares/AI_Runtime/Npu/ll_aton/ll_aton.c ****     uint16_t *CBp = (uint16_t *)conf->CBs_vector.p;
1512:../../Middlewares/AI_Runtime/Npu/ll_aton/ll_aton.c ****     for (i = 0, k = 0; i < CBsize; i += 7)
1513:../../Middlewares/AI_Runtime/Npu/ll_aton/ll_aton.c ****     {
1514:../../Middlewares/AI_Runtime/Npu/ll_aton/ll_aton.c ****       uint32_t temp = CBp[i] | (CBp[i + 1] << 16);
1515:../../Middlewares/AI_Runtime/Npu/ll_aton/ll_aton.c ****       ATON_DECUN_MEM_LOW_SET(id, k, temp);
1516:../../Middlewares/AI_Runtime/Npu/ll_aton/ll_aton.c ****       temp = CBp[i + 2] | (CBp[i + 3] << 16);
1517:../../Middlewares/AI_Runtime/Npu/ll_aton/ll_aton.c ****       ATON_DECUN_MEM_HIGH_SET(id, k, temp);
1518:../../Middlewares/AI_Runtime/Npu/ll_aton/ll_aton.c ****       k++;
1519:../../Middlewares/AI_Runtime/Npu/ll_aton/ll_aton.c ****       temp = CBp[i + 4] | (CBp[i + 5] << 16);
1520:../../Middlewares/AI_Runtime/Npu/ll_aton/ll_aton.c ****       ATON_DECUN_MEM_LOW_SET(id, k, temp);
1521:../../Middlewares/AI_Runtime/Npu/ll_aton/ll_aton.c ****       temp = CBp[i + 6];
1522:../../Middlewares/AI_Runtime/Npu/ll_aton/ll_aton.c ****       ATON_DECUN_MEM_HIGH_SET(id, k, temp);
1523:../../Middlewares/AI_Runtime/Npu/ll_aton/ll_aton.c ****       k++;
1524:../../Middlewares/AI_Runtime/Npu/ll_aton/ll_aton.c ****       if (k == mem_idx_num)
1525:../../Middlewares/AI_Runtime/Npu/ll_aton/ll_aton.c ****       {
1526:../../Middlewares/AI_Runtime/Npu/ll_aton/ll_aton.c ****         ctrl_val = decun_inc_page_addr(id, ctrl_val);
1527:../../Middlewares/AI_Runtime/Npu/ll_aton/ll_aton.c ****         k = 0;
1528:../../Middlewares/AI_Runtime/Npu/ll_aton/ll_aton.c ****       }
1529:../../Middlewares/AI_Runtime/Npu/ll_aton/ll_aton.c ****     }
1530:../../Middlewares/AI_Runtime/Npu/ll_aton/ll_aton.c ****   }
1531:../../Middlewares/AI_Runtime/Npu/ll_aton/ll_aton.c ****   if (conf->nCWperCV == 8)
1532:../../Middlewares/AI_Runtime/Npu/ll_aton/ll_aton.c ****   {
1533:../../Middlewares/AI_Runtime/Npu/ll_aton/ll_aton.c ****     uint32_t *CBp = (uint32_t *)conf->CBs_vector.p;
1534:../../Middlewares/AI_Runtime/Npu/ll_aton/ll_aton.c ****     for (i = 0, k = 0; i < CBsize / 2; i += 2)
1535:../../Middlewares/AI_Runtime/Npu/ll_aton/ll_aton.c ****     {
1536:../../Middlewares/AI_Runtime/Npu/ll_aton/ll_aton.c ****       uint32_t temp = CBp[i];
1537:../../Middlewares/AI_Runtime/Npu/ll_aton/ll_aton.c ****       ATON_DECUN_MEM_LOW_SET(id, k, temp);
1538:../../Middlewares/AI_Runtime/Npu/ll_aton/ll_aton.c ****       temp = CBp[i + 1];
1539:../../Middlewares/AI_Runtime/Npu/ll_aton/ll_aton.c ****       ATON_DECUN_MEM_HIGH_SET(id, k, temp);
1540:../../Middlewares/AI_Runtime/Npu/ll_aton/ll_aton.c ****       k++;
1541:../../Middlewares/AI_Runtime/Npu/ll_aton/ll_aton.c ****       if (k == mem_idx_num)
1542:../../Middlewares/AI_Runtime/Npu/ll_aton/ll_aton.c ****       {
1543:../../Middlewares/AI_Runtime/Npu/ll_aton/ll_aton.c ****         ctrl_val = decun_inc_page_addr(id, ctrl_val);
1544:../../Middlewares/AI_Runtime/Npu/ll_aton/ll_aton.c ****         k = 0;
1545:../../Middlewares/AI_Runtime/Npu/ll_aton/ll_aton.c ****       }
1546:../../Middlewares/AI_Runtime/Npu/ll_aton/ll_aton.c ****     }
1547:../../Middlewares/AI_Runtime/Npu/ll_aton/ll_aton.c ****   }
1548:../../Middlewares/AI_Runtime/Npu/ll_aton/ll_aton.c **** }
1549:../../Middlewares/AI_Runtime/Npu/ll_aton/ll_aton.c **** 
1550:../../Middlewares/AI_Runtime/Npu/ll_aton/ll_aton.c **** /**
ARM GAS  C:\Users\Antonio\AppData\Local\Temp\ccynTwLp.s 			page 88


1551:../../Middlewares/AI_Runtime/Npu/ll_aton/ll_aton.c ****  * @brief  Configures Decompression Unit accelerator
1552:../../Middlewares/AI_Runtime/Npu/ll_aton/ll_aton.c ****  * @param  id Decompression Unit identifier (Always 0 fo Tiny Orlando)
1553:../../Middlewares/AI_Runtime/Npu/ll_aton/ll_aton.c ****  * @param  conf Pointer to structure describing decompression unit configuration
1554:../../Middlewares/AI_Runtime/Npu/ll_aton/ll_aton.c ****  * @retval Error code
1555:../../Middlewares/AI_Runtime/Npu/ll_aton/ll_aton.c ****  */
1556:../../Middlewares/AI_Runtime/Npu/ll_aton/ll_aton.c **** int LL_Decun_Init(int id, const LL_Decun_InitTypeDef *conf)
1557:../../Middlewares/AI_Runtime/Npu/ll_aton/ll_aton.c **** {
1558:../../Middlewares/AI_Runtime/Npu/ll_aton/ll_aton.c ****   uint32_t t;
1559:../../Middlewares/AI_Runtime/Npu/ll_aton/ll_aton.c **** 
1560:../../Middlewares/AI_Runtime/Npu/ll_aton/ll_aton.c ****   if (id >= ATON_DECUN_NUM)
1561:../../Middlewares/AI_Runtime/Npu/ll_aton/ll_aton.c ****     return LL_ATON_INVALID_ID;
1562:../../Middlewares/AI_Runtime/Npu/ll_aton/ll_aton.c **** 
1563:../../Middlewares/AI_Runtime/Npu/ll_aton/ll_aton.c ****   LL_ATON_EnableClock(ATON_DECUN_CLKB_CLK(id));
1564:../../Middlewares/AI_Runtime/Npu/ll_aton/ll_aton.c **** 
1565:../../Middlewares/AI_Runtime/Npu/ll_aton/ll_aton.c ****   t = ATON_DECUN_CTRL_DT;
1566:../../Middlewares/AI_Runtime/Npu/ll_aton/ll_aton.c ****   t = ATON_DECUN_CTRL_SET_DUALIN(t, (conf->noDualInput != 0));
1567:../../Middlewares/AI_Runtime/Npu/ll_aton/ll_aton.c ****   t = ATON_DECUN_CTRL_SET_OW(t, (conf->noOverWrite != 0));
1568:../../Middlewares/AI_Runtime/Npu/ll_aton/ll_aton.c ****   ATON_DECUN_CTRL_SET(id, t);
1569:../../Middlewares/AI_Runtime/Npu/ll_aton/ll_aton.c **** 
1570:../../Middlewares/AI_Runtime/Npu/ll_aton/ll_aton.c ****   if (conf->CBs_size != 0)
1571:../../Middlewares/AI_Runtime/Npu/ll_aton/ll_aton.c ****   {
1572:../../Middlewares/AI_Runtime/Npu/ll_aton/ll_aton.c ****     if (conf->nFormatBytes == 1)
1573:../../Middlewares/AI_Runtime/Npu/ll_aton/ll_aton.c ****     {
1574:../../Middlewares/AI_Runtime/Npu/ll_aton/ll_aton.c ****       LL_Decun_CB_1byte(id, conf, t);
1575:../../Middlewares/AI_Runtime/Npu/ll_aton/ll_aton.c ****     }
1576:../../Middlewares/AI_Runtime/Npu/ll_aton/ll_aton.c ****     else
1577:../../Middlewares/AI_Runtime/Npu/ll_aton/ll_aton.c ****     {
1578:../../Middlewares/AI_Runtime/Npu/ll_aton/ll_aton.c ****       // LL_ATON_ASSERT(conf->nFormatBytes == 2);
1579:../../Middlewares/AI_Runtime/Npu/ll_aton/ll_aton.c ****       LL_Decun_CB_2byte(id, conf, t);
1580:../../Middlewares/AI_Runtime/Npu/ll_aton/ll_aton.c ****     }
1581:../../Middlewares/AI_Runtime/Npu/ll_aton/ll_aton.c ****   }
1582:../../Middlewares/AI_Runtime/Npu/ll_aton/ll_aton.c **** 
1583:../../Middlewares/AI_Runtime/Npu/ll_aton/ll_aton.c ****   t = ATON_DECUN_BFORMAT_DT;
1584:../../Middlewares/AI_Runtime/Npu/ll_aton/ll_aton.c ****   t = ATON_DECUN_BFORMAT_SET_CVS(t, conf->nCVperCB - 1);
1585:../../Middlewares/AI_Runtime/Npu/ll_aton/ll_aton.c ****   t = ATON_DECUN_BFORMAT_SET_CWS(t, conf->nCWperCV - 1);
1586:../../Middlewares/AI_Runtime/Npu/ll_aton/ll_aton.c ****   t = ATON_DECUN_BFORMAT_SET_OSAM(t, conf->nRCWlastCV);
1587:../../Middlewares/AI_Runtime/Npu/ll_aton/ll_aton.c ****   ATON_DECUN_BFORMAT_SET(id, t);
1588:../../Middlewares/AI_Runtime/Npu/ll_aton/ll_aton.c **** 
1589:../../Middlewares/AI_Runtime/Npu/ll_aton/ll_aton.c ****   LL_ATON_ASSERT((conf->nFormatBytes == 1) || (conf->nFormatBytes == 2));
1590:../../Middlewares/AI_Runtime/Npu/ll_aton/ll_aton.c **** 
1591:../../Middlewares/AI_Runtime/Npu/ll_aton/ll_aton.c ****   t = ATON_DECUN_DFORMAT_DT;
1592:../../Middlewares/AI_Runtime/Npu/ll_aton/ll_aton.c ****   t = ATON_DECUN_DFORMAT_SET_CV8(t, conf->nFormatBytes & 0x1);
1593:../../Middlewares/AI_Runtime/Npu/ll_aton/ll_aton.c ****   ATON_DECUN_DFORMAT_SET(id, t);
1594:../../Middlewares/AI_Runtime/Npu/ll_aton/ll_aton.c **** 
1595:../../Middlewares/AI_Runtime/Npu/ll_aton/ll_aton.c ****   t = ATON_DECUN_FFORMAT_DT;
1596:../../Middlewares/AI_Runtime/Npu/ll_aton/ll_aton.c ****   t = ATON_DECUN_FFORMAT_SET_BN(t, conf->nBatches);
1597:../../Middlewares/AI_Runtime/Npu/ll_aton/ll_aton.c ****   ATON_DECUN_FFORMAT_SET(id, t);
1598:../../Middlewares/AI_Runtime/Npu/ll_aton/ll_aton.c **** 
1599:../../Middlewares/AI_Runtime/Npu/ll_aton/ll_aton.c ****   return LL_ATON_OK;
1600:../../Middlewares/AI_Runtime/Npu/ll_aton/ll_aton.c **** }
1601:../../Middlewares/AI_Runtime/Npu/ll_aton/ll_aton.c **** #endif // ATON_DECUN_NUM
1602:../../Middlewares/AI_Runtime/Npu/ll_aton/ll_aton.c **** 
1603:../../Middlewares/AI_Runtime/Npu/ll_aton/ll_aton.c **** #ifdef ATON_CONVACC_NUM
1604:../../Middlewares/AI_Runtime/Npu/ll_aton/ll_aton.c **** /**
1605:../../Middlewares/AI_Runtime/Npu/ll_aton/ll_aton.c ****  * @brief  Configures Convolution Accelerator
1606:../../Middlewares/AI_Runtime/Npu/ll_aton/ll_aton.c ****  * @param  id Convolutional Accelerator identifier [0, ATON_CONVACC_NUM-1]
1607:../../Middlewares/AI_Runtime/Npu/ll_aton/ll_aton.c ****  * @param  Convacc_InitStruct Structure describing initialization parameters
ARM GAS  C:\Users\Antonio\AppData\Local\Temp\ccynTwLp.s 			page 89


1608:../../Middlewares/AI_Runtime/Npu/ll_aton/ll_aton.c ****  * @retval Error code E.g.: Invalid ID, invalid parameters, not idle,..
1609:../../Middlewares/AI_Runtime/Npu/ll_aton/ll_aton.c ****  */
1610:../../Middlewares/AI_Runtime/Npu/ll_aton/ll_aton.c **** int LL_Convacc_Init(int id, const LL_Convacc_InitTypeDef *conf)
1611:../../Middlewares/AI_Runtime/Npu/ll_aton/ll_aton.c **** {
1612:../../Middlewares/AI_Runtime/Npu/ll_aton/ll_aton.c ****   uint32_t t;
1613:../../Middlewares/AI_Runtime/Npu/ll_aton/ll_aton.c **** 
1614:../../Middlewares/AI_Runtime/Npu/ll_aton/ll_aton.c ****   if (id >= ATON_CONVACC_NUM)
1615:../../Middlewares/AI_Runtime/Npu/ll_aton/ll_aton.c ****     return LL_ATON_INVALID_ID;
1616:../../Middlewares/AI_Runtime/Npu/ll_aton/ll_aton.c **** 
1617:../../Middlewares/AI_Runtime/Npu/ll_aton/ll_aton.c ****   LL_ATON_EnableClock(ATON_CONVACC_CLKB_CLK(id));
1618:../../Middlewares/AI_Runtime/Npu/ll_aton/ll_aton.c **** 
1619:../../Middlewares/AI_Runtime/Npu/ll_aton/ll_aton.c ****   t = ATON_CONVACC_CTRL_DT;
1620:../../Middlewares/AI_Runtime/Npu/ll_aton/ll_aton.c ****   t = ATON_CONVACC_CTRL_SET_NOSUM(t, (conf->accumulate == 0));
1621:../../Middlewares/AI_Runtime/Npu/ll_aton/ll_aton.c ****   t = ATON_CONVACC_CTRL_SET_NO1SUM(t, (conf->accumulate_first == 0));
1622:../../Middlewares/AI_Runtime/Npu/ll_aton/ll_aton.c ****   t = ATON_CONVACC_CTRL_SET_GEN1SUM(t, (conf->accumulate_gen_first != 0));
1623:../../Middlewares/AI_Runtime/Npu/ll_aton/ll_aton.c ****   t = ATON_CONVACC_CTRL_SET_AFILTMODE(t, conf->afilt_mode);
1624:../../Middlewares/AI_Runtime/Npu/ll_aton/ll_aton.c ****   t = ATON_CONVACC_CTRL_SET_SIMD(t, (conf->simd));
1625:../../Middlewares/AI_Runtime/Npu/ll_aton/ll_aton.c ****   t = ATON_CONVACC_CTRL_SET_KT1(t, (conf->kt1_mode != 0));
1626:../../Middlewares/AI_Runtime/Npu/ll_aton/ll_aton.c ****   t = ATON_CONVACC_CTRL_SET_KSETEN(t, conf->kseten);
1627:../../Middlewares/AI_Runtime/Npu/ll_aton/ll_aton.c ****   t = ATON_CONVACC_CTRL_SET_FUNSIGNED(t, conf->f_unsigned);
1628:../../Middlewares/AI_Runtime/Npu/ll_aton/ll_aton.c ****   t = ATON_CONVACC_CTRL_SET_KUNSIGNED(t, conf->k_unsigned);
1629:../../Middlewares/AI_Runtime/Npu/ll_aton/ll_aton.c **** #if defined(ATON_CONVACC_CTRL_SET_FSTAT)
1630:../../Middlewares/AI_Runtime/Npu/ll_aton/ll_aton.c ****   t = ATON_CONVACC_CTRL_SET_FSTAT(t, (conf->fstat != 0));
1631:../../Middlewares/AI_Runtime/Npu/ll_aton/ll_aton.c **** #endif
1632:../../Middlewares/AI_Runtime/Npu/ll_aton/ll_aton.c **** 
1633:../../Middlewares/AI_Runtime/Npu/ll_aton/ll_aton.c **** #if defined(ATON_CONVACC_CTRL_GET_DEEPMODE)
1634:../../Middlewares/AI_Runtime/Npu/ll_aton/ll_aton.c ****   t = ATON_CONVACC_CTRL_SET_DEEPMODE(t, (conf->deepmode != 0));
1635:../../Middlewares/AI_Runtime/Npu/ll_aton/ll_aton.c **** #if defined(ATON_CONVACC_CTRL_SET_FSTAT)
1636:../../Middlewares/AI_Runtime/Npu/ll_aton/ll_aton.c ****   // deepmode and feature stats are incompatible
1637:../../Middlewares/AI_Runtime/Npu/ll_aton/ll_aton.c ****   if ((conf->fstat != 0) && (conf->deepmode != 0))
1638:../../Middlewares/AI_Runtime/Npu/ll_aton/ll_aton.c ****   {
1639:../../Middlewares/AI_Runtime/Npu/ll_aton/ll_aton.c ****     return LL_ATON_INVALID_PARAM;
1640:../../Middlewares/AI_Runtime/Npu/ll_aton/ll_aton.c ****   }
1641:../../Middlewares/AI_Runtime/Npu/ll_aton/ll_aton.c **** #endif
1642:../../Middlewares/AI_Runtime/Npu/ll_aton/ll_aton.c **** #endif
1643:../../Middlewares/AI_Runtime/Npu/ll_aton/ll_aton.c **** 
1644:../../Middlewares/AI_Runtime/Npu/ll_aton/ll_aton.c **** #if defined(ATON_CONVACC_CTRL_GET_DSS2MODE)
1645:../../Middlewares/AI_Runtime/Npu/ll_aton/ll_aton.c ****   t = ATON_CONVACC_CTRL_SET_DSS2MODE(t, (conf->dss2mode != 0));
1646:../../Middlewares/AI_Runtime/Npu/ll_aton/ll_aton.c **** #if defined(ATON_CONVACC_CTRL_SET_FSTAT)
1647:../../Middlewares/AI_Runtime/Npu/ll_aton/ll_aton.c ****   // deepmode and feature stats are incompatible
1648:../../Middlewares/AI_Runtime/Npu/ll_aton/ll_aton.c ****   if ((conf->fstat != 0) && (conf->dss2mode != 0))
1649:../../Middlewares/AI_Runtime/Npu/ll_aton/ll_aton.c ****   {
1650:../../Middlewares/AI_Runtime/Npu/ll_aton/ll_aton.c ****     return LL_ATON_INVALID_PARAM;
1651:../../Middlewares/AI_Runtime/Npu/ll_aton/ll_aton.c ****   }
1652:../../Middlewares/AI_Runtime/Npu/ll_aton/ll_aton.c **** #endif
1653:../../Middlewares/AI_Runtime/Npu/ll_aton/ll_aton.c **** #endif
1654:../../Middlewares/AI_Runtime/Npu/ll_aton/ll_aton.c **** 
1655:../../Middlewares/AI_Runtime/Npu/ll_aton/ll_aton.c **** #if defined(ATON_CONVACC_CTRL_SET_DSS2MODE) && defined(ATON_CONVACC_CTRL_SET_DEEPMODE)
1656:../../Middlewares/AI_Runtime/Npu/ll_aton/ll_aton.c ****   // deepmode and dss2mode stats are incompatible
1657:../../Middlewares/AI_Runtime/Npu/ll_aton/ll_aton.c ****   if ((conf->dss2mode != 0) && (conf->deepmode != 0))
1658:../../Middlewares/AI_Runtime/Npu/ll_aton/ll_aton.c ****   {
1659:../../Middlewares/AI_Runtime/Npu/ll_aton/ll_aton.c ****     return LL_ATON_INVALID_PARAM;
1660:../../Middlewares/AI_Runtime/Npu/ll_aton/ll_aton.c ****   }
1661:../../Middlewares/AI_Runtime/Npu/ll_aton/ll_aton.c **** #endif
1662:../../Middlewares/AI_Runtime/Npu/ll_aton/ll_aton.c **** 
1663:../../Middlewares/AI_Runtime/Npu/ll_aton/ll_aton.c ****   ATON_CONVACC_CTRL_SET(id, t);
1664:../../Middlewares/AI_Runtime/Npu/ll_aton/ll_aton.c ****   Conv_ctrl_bits[id] = t;
ARM GAS  C:\Users\Antonio\AppData\Local\Temp\ccynTwLp.s 			page 90


1665:../../Middlewares/AI_Runtime/Npu/ll_aton/ll_aton.c **** 
1666:../../Middlewares/AI_Runtime/Npu/ll_aton/ll_aton.c ****   if (conf->afilt_mode != AFILT_MODE_NONE)
1667:../../Middlewares/AI_Runtime/Npu/ll_aton/ll_aton.c ****   {
1668:../../Middlewares/AI_Runtime/Npu/ll_aton/ll_aton.c ****     t = ATON_CONVACC_AFILT_DT;
1669:../../Middlewares/AI_Runtime/Npu/ll_aton/ll_aton.c ****     t = ATON_CONVACC_AFILT_SET_TOT(t, conf->afilt_tot);
1670:../../Middlewares/AI_Runtime/Npu/ll_aton/ll_aton.c ****     t = ATON_CONVACC_AFILT_SET_FIRST(t, conf->afilt_first);
1671:../../Middlewares/AI_Runtime/Npu/ll_aton/ll_aton.c ****     t = ATON_CONVACC_AFILT_SET_LAST(t, conf->afilt_last);
1672:../../Middlewares/AI_Runtime/Npu/ll_aton/ll_aton.c ****     ATON_CONVACC_AFILT_SET(id, t);
1673:../../Middlewares/AI_Runtime/Npu/ll_aton/ll_aton.c ****   }
1674:../../Middlewares/AI_Runtime/Npu/ll_aton/ll_aton.c **** 
1675:../../Middlewares/AI_Runtime/Npu/ll_aton/ll_aton.c ****   if (conf->kfilt_tot > 0)
1676:../../Middlewares/AI_Runtime/Npu/ll_aton/ll_aton.c ****   {
1677:../../Middlewares/AI_Runtime/Npu/ll_aton/ll_aton.c ****     t = ATON_CONVACC_KFILT_DT;
1678:../../Middlewares/AI_Runtime/Npu/ll_aton/ll_aton.c ****     t = ATON_CONVACC_KFILT_SET_TOT(t, conf->kfilt_tot);
1679:../../Middlewares/AI_Runtime/Npu/ll_aton/ll_aton.c ****     t = ATON_CONVACC_KFILT_SET_FIRST(t, conf->kfilt_first);
1680:../../Middlewares/AI_Runtime/Npu/ll_aton/ll_aton.c ****     t = ATON_CONVACC_KFILT_SET_LAST(t, conf->kfilt_last);
1681:../../Middlewares/AI_Runtime/Npu/ll_aton/ll_aton.c ****     ATON_CONVACC_KFILT_SET(id, t);
1682:../../Middlewares/AI_Runtime/Npu/ll_aton/ll_aton.c ****   }
1683:../../Middlewares/AI_Runtime/Npu/ll_aton/ll_aton.c **** 
1684:../../Middlewares/AI_Runtime/Npu/ll_aton/ll_aton.c ****   t = ATON_CONVACC_DFORMAT_DT;
1685:../../Middlewares/AI_Runtime/Npu/ll_aton/ll_aton.c ****   t = ATON_CONVACC_DFORMAT_SET_FROUND(t, conf->rounding_f);
1686:../../Middlewares/AI_Runtime/Npu/ll_aton/ll_aton.c ****   t = ATON_CONVACC_DFORMAT_SET_FSAT(t, conf->saturation_f);
1687:../../Middlewares/AI_Runtime/Npu/ll_aton/ll_aton.c ****   t = ATON_CONVACC_DFORMAT_SET_FRNDMODE(t, conf->round_mode_f);
1688:../../Middlewares/AI_Runtime/Npu/ll_aton/ll_aton.c ****   t = ATON_CONVACC_DFORMAT_SET_FBYTES(t, conf->inbytes_f);
1689:../../Middlewares/AI_Runtime/Npu/ll_aton/ll_aton.c ****   t = ATON_CONVACC_DFORMAT_SET_FSHIFT(t, ATON_SHIFT(conf->shift_f));
1690:../../Middlewares/AI_Runtime/Npu/ll_aton/ll_aton.c **** 
1691:../../Middlewares/AI_Runtime/Npu/ll_aton/ll_aton.c ****   t = ATON_CONVACC_DFORMAT_SET_ROUND(t, conf->rounding_o);
1692:../../Middlewares/AI_Runtime/Npu/ll_aton/ll_aton.c ****   t = ATON_CONVACC_DFORMAT_SET_SAT(t, conf->saturation_o);
1693:../../Middlewares/AI_Runtime/Npu/ll_aton/ll_aton.c ****   t = ATON_CONVACC_DFORMAT_SET_ORNDMODE(t, (conf->relu_mode_o << 1) | conf->round_mode_o);
1694:../../Middlewares/AI_Runtime/Npu/ll_aton/ll_aton.c ****   t = ATON_CONVACC_DFORMAT_SET_OBYTES(t, conf->outbytes_o);
1695:../../Middlewares/AI_Runtime/Npu/ll_aton/ll_aton.c ****   t = ATON_CONVACC_DFORMAT_SET_OUTSHIFT(t, conf->shift_o); // shift right only
1696:../../Middlewares/AI_Runtime/Npu/ll_aton/ll_aton.c ****   t = ATON_CONVACC_DFORMAT_SET_RAW(t, conf->raw_o);
1697:../../Middlewares/AI_Runtime/Npu/ll_aton/ll_aton.c **** 
1698:../../Middlewares/AI_Runtime/Npu/ll_aton/ll_aton.c ****   t = ATON_CONVACC_DFORMAT_SET_INSHIFT(t, conf->shift_a); // accumulator shift left really (macro n
1699:../../Middlewares/AI_Runtime/Npu/ll_aton/ll_aton.c ****   ATON_CONVACC_DFORMAT_SET(id, t);
1700:../../Middlewares/AI_Runtime/Npu/ll_aton/ll_aton.c **** 
1701:../../Middlewares/AI_Runtime/Npu/ll_aton/ll_aton.c ****   t = ATON_CONVACC_FFORMAT_DT;
1702:../../Middlewares/AI_Runtime/Npu/ll_aton/ll_aton.c ****   t = ATON_CONVACC_FFORMAT_SET_WIDTH(t, conf->fWidth * conf->batchDepth);
1703:../../Middlewares/AI_Runtime/Npu/ll_aton/ll_aton.c ****   t = ATON_CONVACC_FFORMAT_SET_HEIGHT(t, conf->fHeight);
1704:../../Middlewares/AI_Runtime/Npu/ll_aton/ll_aton.c ****   ATON_CONVACC_FFORMAT_SET(id, t);
1705:../../Middlewares/AI_Runtime/Npu/ll_aton/ll_aton.c **** 
1706:../../Middlewares/AI_Runtime/Npu/ll_aton/ll_aton.c ****   t = ATON_CONVACC_KFORMAT_DT;
1707:../../Middlewares/AI_Runtime/Npu/ll_aton/ll_aton.c ****   t = ATON_CONVACC_KFORMAT_SET_WIDTH(t, conf->kernelWidth);
1708:../../Middlewares/AI_Runtime/Npu/ll_aton/ll_aton.c ****   t = ATON_CONVACC_KFORMAT_SET_HEIGHT(t, conf->kernelHeight);
1709:../../Middlewares/AI_Runtime/Npu/ll_aton/ll_aton.c ****   t = ATON_CONVACC_KFORMAT_SET_BTCDEPTH(t, conf->batchDepth);
1710:../../Middlewares/AI_Runtime/Npu/ll_aton/ll_aton.c ****   t = ATON_CONVACC_KFORMAT_SET_NR(t, conf->nKernels);
1711:../../Middlewares/AI_Runtime/Npu/ll_aton/ll_aton.c ****   ATON_CONVACC_KFORMAT_SET(id, t);
1712:../../Middlewares/AI_Runtime/Npu/ll_aton/ll_aton.c **** 
1713:../../Middlewares/AI_Runtime/Npu/ll_aton/ll_aton.c ****   // LL_ATON_PRINTF("depth=%d k_w=%d k_h=%d\n",conf->batchDepth,conf->kernelWidth,conf->kernelHeigh
1714:../../Middlewares/AI_Runtime/Npu/ll_aton/ll_aton.c ****   // LL_ATON_PRINTF("pad_t=%d pad_b=%d pad_l=%d
1715:../../Middlewares/AI_Runtime/Npu/ll_aton/ll_aton.c ****   // pad_r=%d\n",conf->top_padding,conf->bot_padding,conf->left_padding,conf->right_padding);
1716:../../Middlewares/AI_Runtime/Npu/ll_aton/ll_aton.c **** 
1717:../../Middlewares/AI_Runtime/Npu/ll_aton/ll_aton.c ****   int p_top = (conf->top_padding < conf->kernelHeight ? conf->top_padding : conf->kernelHeight - 1)
1718:../../Middlewares/AI_Runtime/Npu/ll_aton/ll_aton.c ****   int p_bot = (conf->bot_padding < conf->kernelHeight ? conf->bot_padding : conf->kernelHeight - 1)
1719:../../Middlewares/AI_Runtime/Npu/ll_aton/ll_aton.c ****   int p_left = (conf->left_padding < conf->kernelWidth ? conf->left_padding : conf->kernelWidth - 1
1720:../../Middlewares/AI_Runtime/Npu/ll_aton/ll_aton.c ****   int p_right = (conf->right_padding < conf->kernelWidth ? conf->right_padding : conf->kernelWidth 
1721:../../Middlewares/AI_Runtime/Npu/ll_aton/ll_aton.c **** 
ARM GAS  C:\Users\Antonio\AppData\Local\Temp\ccynTwLp.s 			page 91


1722:../../Middlewares/AI_Runtime/Npu/ll_aton/ll_aton.c ****   p_top = (p_top <= 2 ? p_top : 2);
1723:../../Middlewares/AI_Runtime/Npu/ll_aton/ll_aton.c ****   p_bot = (p_bot <= 2 ? p_bot : 2);
1724:../../Middlewares/AI_Runtime/Npu/ll_aton/ll_aton.c ****   p_left = (p_left <= 2 ? p_left : 2);
1725:../../Middlewares/AI_Runtime/Npu/ll_aton/ll_aton.c ****   p_right = (p_right <= 2 ? p_right : 2);
1726:../../Middlewares/AI_Runtime/Npu/ll_aton/ll_aton.c ****   // LL_ATON_PRINTF("p_t=%d p_b=%d p_l=%d p_r=%d\n",p_top,p_bot,p_left,p_right);
1727:../../Middlewares/AI_Runtime/Npu/ll_aton/ll_aton.c **** 
1728:../../Middlewares/AI_Runtime/Npu/ll_aton/ll_aton.c **** #if defined(ATON_CONVACC_CTRL_GET_DEEPMODE)
1729:../../Middlewares/AI_Runtime/Npu/ll_aton/ll_aton.c ****   // no pad mode available in 1x1 deepmode
1730:../../Middlewares/AI_Runtime/Npu/ll_aton/ll_aton.c ****   // will accomodate padding only with zframe below
1731:../../Middlewares/AI_Runtime/Npu/ll_aton/ll_aton.c ****   if (conf->deepmode != 0)
1732:../../Middlewares/AI_Runtime/Npu/ll_aton/ll_aton.c ****     p_top = p_bot = p_left = p_right = 0;
1733:../../Middlewares/AI_Runtime/Npu/ll_aton/ll_aton.c **** #endif
1734:../../Middlewares/AI_Runtime/Npu/ll_aton/ll_aton.c **** #if defined(ATON_CONVACC_CTRL_GET_DSS2MODE)
1735:../../Middlewares/AI_Runtime/Npu/ll_aton/ll_aton.c ****   // no pad mode available in dss2mode
1736:../../Middlewares/AI_Runtime/Npu/ll_aton/ll_aton.c ****   // will accomodate padding only with zframe below
1737:../../Middlewares/AI_Runtime/Npu/ll_aton/ll_aton.c ****   if (conf->dss2mode != 0)
1738:../../Middlewares/AI_Runtime/Npu/ll_aton/ll_aton.c ****     p_top = p_bot = p_left = p_right = 0;
1739:../../Middlewares/AI_Runtime/Npu/ll_aton/ll_aton.c **** #endif
1740:../../Middlewares/AI_Runtime/Npu/ll_aton/ll_aton.c **** #if defined(ATON_CONVACC_ZFBIAS_SET)
1741:../../Middlewares/AI_Runtime/Npu/ll_aton/ll_aton.c ****   // no pad mode available if zfbias is set
1742:../../Middlewares/AI_Runtime/Npu/ll_aton/ll_aton.c ****   // will accomodate padding only with zframe below
1743:../../Middlewares/AI_Runtime/Npu/ll_aton/ll_aton.c ****   if (conf->zfbias != 0)
1744:../../Middlewares/AI_Runtime/Npu/ll_aton/ll_aton.c ****     p_top = p_bot = p_left = p_right = 0;
1745:../../Middlewares/AI_Runtime/Npu/ll_aton/ll_aton.c **** #endif
1746:../../Middlewares/AI_Runtime/Npu/ll_aton/ll_aton.c **** 
1747:../../Middlewares/AI_Runtime/Npu/ll_aton/ll_aton.c ****   int z_top = (conf->top_padding - p_top);
1748:../../Middlewares/AI_Runtime/Npu/ll_aton/ll_aton.c ****   int z_bot = (conf->bot_padding - p_bot);
1749:../../Middlewares/AI_Runtime/Npu/ll_aton/ll_aton.c ****   int z_left = (conf->left_padding - p_left);
1750:../../Middlewares/AI_Runtime/Npu/ll_aton/ll_aton.c ****   int z_right = (conf->right_padding - p_right);
1751:../../Middlewares/AI_Runtime/Npu/ll_aton/ll_aton.c ****   // LL_ATON_PRINTF("z_t=%d z_b=%d z_l=%d z_r=%d\n",z_top,z_bot,z_left*conf->batchDepth,z_right*con
1752:../../Middlewares/AI_Runtime/Npu/ll_aton/ll_aton.c **** 
1753:../../Middlewares/AI_Runtime/Npu/ll_aton/ll_aton.c ****   t = ATON_CONVACC_ZFRAME_DT;
1754:../../Middlewares/AI_Runtime/Npu/ll_aton/ll_aton.c ****   t = ATON_CONVACC_ZFRAME_SET_TOP(t, z_top);
1755:../../Middlewares/AI_Runtime/Npu/ll_aton/ll_aton.c ****   t = ATON_CONVACC_ZFRAME_SET_BOTTOM(t, z_bot);
1756:../../Middlewares/AI_Runtime/Npu/ll_aton/ll_aton.c ****   t = ATON_CONVACC_ZFRAME_SET_LEFT(t, z_left * conf->batchDepth);
1757:../../Middlewares/AI_Runtime/Npu/ll_aton/ll_aton.c ****   t = ATON_CONVACC_ZFRAME_SET_RIGHT(t, z_right * conf->batchDepth);
1758:../../Middlewares/AI_Runtime/Npu/ll_aton/ll_aton.c ****   ATON_CONVACC_ZFRAME_SET(id, t);
1759:../../Middlewares/AI_Runtime/Npu/ll_aton/ll_aton.c **** 
1760:../../Middlewares/AI_Runtime/Npu/ll_aton/ll_aton.c ****   t = ATON_CONVACC_SAMPLE_DT;
1761:../../Middlewares/AI_Runtime/Npu/ll_aton/ll_aton.c ****   t = ATON_CONVACC_SAMPLE_SET_TPAD(t, p_top);
1762:../../Middlewares/AI_Runtime/Npu/ll_aton/ll_aton.c ****   t = ATON_CONVACC_SAMPLE_SET_BPAD(t, p_bot);
1763:../../Middlewares/AI_Runtime/Npu/ll_aton/ll_aton.c ****   t = ATON_CONVACC_SAMPLE_SET_LPAD(t, p_left);
1764:../../Middlewares/AI_Runtime/Npu/ll_aton/ll_aton.c ****   t = ATON_CONVACC_SAMPLE_SET_RPAD(t, p_right);
1765:../../Middlewares/AI_Runtime/Npu/ll_aton/ll_aton.c ****   t = ATON_CONVACC_SAMPLE_SET_HSTRD(t, conf->hstride);
1766:../../Middlewares/AI_Runtime/Npu/ll_aton/ll_aton.c ****   t = ATON_CONVACC_SAMPLE_SET_VSTRD(t, conf->vstride);
1767:../../Middlewares/AI_Runtime/Npu/ll_aton/ll_aton.c **** #if defined(ATON_CONVACC_SAMPLE_SET_FSTATCNT)
1768:../../Middlewares/AI_Runtime/Npu/ll_aton/ll_aton.c ****   if (conf->fstat != 0)
1769:../../Middlewares/AI_Runtime/Npu/ll_aton/ll_aton.c ****     t = ATON_CONVACC_SAMPLE_SET_FSTATCNT(t, conf->fstatcnt);
1770:../../Middlewares/AI_Runtime/Npu/ll_aton/ll_aton.c **** #endif
1771:../../Middlewares/AI_Runtime/Npu/ll_aton/ll_aton.c ****   ATON_CONVACC_SAMPLE_SET(id, t);
1772:../../Middlewares/AI_Runtime/Npu/ll_aton/ll_aton.c **** 
1773:../../Middlewares/AI_Runtime/Npu/ll_aton/ll_aton.c ****   // LL_ATON_PRINTF("crop_t=%d crop_b=%d crop_l=%d crop_r=%d\n",z_top,z_bot,z_left,z_right);
1774:../../Middlewares/AI_Runtime/Npu/ll_aton/ll_aton.c ****   t = ATON_CONVACC_FHCROP_DT;
1775:../../Middlewares/AI_Runtime/Npu/ll_aton/ll_aton.c ****   if (conf->left_crop > 0)
1776:../../Middlewares/AI_Runtime/Npu/ll_aton/ll_aton.c ****     t = ATON_CONVACC_FHCROP_SET_LEFT(t, conf->left_crop * conf->batchDepth);
1777:../../Middlewares/AI_Runtime/Npu/ll_aton/ll_aton.c ****   if (conf->right_crop > 0)
1778:../../Middlewares/AI_Runtime/Npu/ll_aton/ll_aton.c ****     t = ATON_CONVACC_FHCROP_SET_RIGHT(t, conf->right_crop * conf->batchDepth + (conf->batchDepth - 
ARM GAS  C:\Users\Antonio\AppData\Local\Temp\ccynTwLp.s 			page 92


1779:../../Middlewares/AI_Runtime/Npu/ll_aton/ll_aton.c ****   ATON_CONVACC_FHCROP_SET(id, t);
1780:../../Middlewares/AI_Runtime/Npu/ll_aton/ll_aton.c **** 
1781:../../Middlewares/AI_Runtime/Npu/ll_aton/ll_aton.c ****   t = ATON_CONVACC_FVCROP_DT;
1782:../../Middlewares/AI_Runtime/Npu/ll_aton/ll_aton.c ****   if (conf->top_crop > 0)
1783:../../Middlewares/AI_Runtime/Npu/ll_aton/ll_aton.c ****     t = ATON_CONVACC_FVCROP_SET_TOP(t, conf->top_crop);
1784:../../Middlewares/AI_Runtime/Npu/ll_aton/ll_aton.c ****   if (conf->bot_crop > 0)
1785:../../Middlewares/AI_Runtime/Npu/ll_aton/ll_aton.c ****     t = ATON_CONVACC_FVCROP_SET_BOTTOM(t, conf->bot_crop);
1786:../../Middlewares/AI_Runtime/Npu/ll_aton/ll_aton.c ****   ATON_CONVACC_FVCROP_SET(id, t);
1787:../../Middlewares/AI_Runtime/Npu/ll_aton/ll_aton.c ****   // LL_ATON_PRINTF("c_t=%d c_b=%d c_l=%d c_r=%d\n",conf->top_crop,conf->bot_crop,conf->left_crop  
1788:../../Middlewares/AI_Runtime/Npu/ll_aton/ll_aton.c ****   // conf->batchDepth,conf->right_crop  * conf->batchDepth + (conf->batchDepth - 1));
1789:../../Middlewares/AI_Runtime/Npu/ll_aton/ll_aton.c **** 
1790:../../Middlewares/AI_Runtime/Npu/ll_aton/ll_aton.c **** #if defined(ATON_CONVACC_FSUB_SET)
1791:../../Middlewares/AI_Runtime/Npu/ll_aton/ll_aton.c ****   if (conf->fsub != 0)
1792:../../Middlewares/AI_Runtime/Npu/ll_aton/ll_aton.c ****   {
1793:../../Middlewares/AI_Runtime/Npu/ll_aton/ll_aton.c ****     t = ATON_CONVACC_FSUB_DT;
1794:../../Middlewares/AI_Runtime/Npu/ll_aton/ll_aton.c ****     t = ATON_CONVACC_FSUB_SET_FSUB(t, conf->fsub);
1795:../../Middlewares/AI_Runtime/Npu/ll_aton/ll_aton.c ****     ATON_CONVACC_FSUB_SET(id, t);
1796:../../Middlewares/AI_Runtime/Npu/ll_aton/ll_aton.c ****   }
1797:../../Middlewares/AI_Runtime/Npu/ll_aton/ll_aton.c **** #endif
1798:../../Middlewares/AI_Runtime/Npu/ll_aton/ll_aton.c **** #if defined(ATON_CONVACC_ZFBIAS_SET)
1799:../../Middlewares/AI_Runtime/Npu/ll_aton/ll_aton.c ****   t = ATON_CONVACC_ZFBIAS_DT;
1800:../../Middlewares/AI_Runtime/Npu/ll_aton/ll_aton.c ****   if (conf->zfbias != 0)
1801:../../Middlewares/AI_Runtime/Npu/ll_aton/ll_aton.c ****   {
1802:../../Middlewares/AI_Runtime/Npu/ll_aton/ll_aton.c ****     t = ATON_CONVACC_ZFBIAS_SET_ZFBIAS(t, conf->zfbias);
1803:../../Middlewares/AI_Runtime/Npu/ll_aton/ll_aton.c ****   }
1804:../../Middlewares/AI_Runtime/Npu/ll_aton/ll_aton.c **** 
1805:../../Middlewares/AI_Runtime/Npu/ll_aton/ll_aton.c ****   /* If hardware supports it (e.g.: 4CA2P), manage Batch Depths not fitting 8 bits */
1806:../../Middlewares/AI_Runtime/Npu/ll_aton/ll_aton.c **** #if defined(ATON_CONVACC_ZFBIAS_SET_ZFLEFTMSB)
1807:../../Middlewares/AI_Runtime/Npu/ll_aton/ll_aton.c ****   t = ATON_CONVACC_ZFBIAS_SET_ZFLEFTMSB(t, (z_left * conf->batchDepth) >> ATON_CONVACC_ZFRAME_LEFT_
1808:../../Middlewares/AI_Runtime/Npu/ll_aton/ll_aton.c ****   t = ATON_CONVACC_ZFBIAS_SET_ZFRIGHTMSB(t, (z_right * conf->batchDepth) >> ATON_CONVACC_ZFRAME_RIG
1809:../../Middlewares/AI_Runtime/Npu/ll_aton/ll_aton.c **** #endif
1810:../../Middlewares/AI_Runtime/Npu/ll_aton/ll_aton.c **** 
1811:../../Middlewares/AI_Runtime/Npu/ll_aton/ll_aton.c ****   ATON_CONVACC_ZFBIAS_SET(id, t);
1812:../../Middlewares/AI_Runtime/Npu/ll_aton/ll_aton.c **** #endif
1813:../../Middlewares/AI_Runtime/Npu/ll_aton/ll_aton.c **** 
1814:../../Middlewares/AI_Runtime/Npu/ll_aton/ll_aton.c ****   return 0;
1815:../../Middlewares/AI_Runtime/Npu/ll_aton/ll_aton.c **** }
1816:../../Middlewares/AI_Runtime/Npu/ll_aton/ll_aton.c **** #endif // ATON_CONVACC_NUM
1817:../../Middlewares/AI_Runtime/Npu/ll_aton/ll_aton.c **** 
1818:../../Middlewares/AI_Runtime/Npu/ll_aton/ll_aton.c **** #ifdef ATON_ACTIV_NUM
1819:../../Middlewares/AI_Runtime/Npu/ll_aton/ll_aton.c **** 
1820:../../Middlewares/AI_Runtime/Npu/ll_aton/ll_aton.c **** static int32_t get_Activacc_type(LL_Activacc_Op op)
1821:../../Middlewares/AI_Runtime/Npu/ll_aton/ll_aton.c **** {
1822:../../Middlewares/AI_Runtime/Npu/ll_aton/ll_aton.c ****   switch (op)
1823:../../Middlewares/AI_Runtime/Npu/ll_aton/ll_aton.c ****   {
1824:../../Middlewares/AI_Runtime/Npu/ll_aton/ll_aton.c ****   case ACTIV_RELU:
1825:../../Middlewares/AI_Runtime/Npu/ll_aton/ll_aton.c ****     return ATON_ACTIVTYPE_RELU;
1826:../../Middlewares/AI_Runtime/Npu/ll_aton/ll_aton.c ****   case ACTIV_PRELU:
1827:../../Middlewares/AI_Runtime/Npu/ll_aton/ll_aton.c ****     return ATON_ACTIVTYPE_PRELU;
1828:../../Middlewares/AI_Runtime/Npu/ll_aton/ll_aton.c ****   case ACTIV_TRELU:
1829:../../Middlewares/AI_Runtime/Npu/ll_aton/ll_aton.c ****     return ATON_ACTIVTYPE_TRELU;
1830:../../Middlewares/AI_Runtime/Npu/ll_aton/ll_aton.c ****   case ACTIV_FUNC:
1831:../../Middlewares/AI_Runtime/Npu/ll_aton/ll_aton.c ****     return ATON_ACTIVTYPE_FUNCTION;
1832:../../Middlewares/AI_Runtime/Npu/ll_aton/ll_aton.c **** #if defined ATON_ACTIVTYPE_LUT
1833:../../Middlewares/AI_Runtime/Npu/ll_aton/ll_aton.c ****   case ACTIV_LUT:
1834:../../Middlewares/AI_Runtime/Npu/ll_aton/ll_aton.c ****     return ATON_ACTIVTYPE_LUT;
1835:../../Middlewares/AI_Runtime/Npu/ll_aton/ll_aton.c **** #endif
ARM GAS  C:\Users\Antonio\AppData\Local\Temp\ccynTwLp.s 			page 93


1836:../../Middlewares/AI_Runtime/Npu/ll_aton/ll_aton.c ****   default:
1837:../../Middlewares/AI_Runtime/Npu/ll_aton/ll_aton.c ****     break;
1838:../../Middlewares/AI_Runtime/Npu/ll_aton/ll_aton.c ****   }
1839:../../Middlewares/AI_Runtime/Npu/ll_aton/ll_aton.c ****   LL_ATON_ASSERT(0);
1840:../../Middlewares/AI_Runtime/Npu/ll_aton/ll_aton.c ****   return 0;
1841:../../Middlewares/AI_Runtime/Npu/ll_aton/ll_aton.c **** }
1842:../../Middlewares/AI_Runtime/Npu/ll_aton/ll_aton.c **** 
1843:../../Middlewares/AI_Runtime/Npu/ll_aton/ll_aton.c **** /**
1844:../../Middlewares/AI_Runtime/Npu/ll_aton/ll_aton.c ****  * @brief  Configures Activation Accelerator
1845:../../Middlewares/AI_Runtime/Npu/ll_aton/ll_aton.c ****  * @param  id Activation Accelerator identifier [0..ATON_ACTIV_NUM-1]
1846:../../Middlewares/AI_Runtime/Npu/ll_aton/ll_aton.c ****  * @param  Activacc_InitStruct Structure describing initialization parameters
1847:../../Middlewares/AI_Runtime/Npu/ll_aton/ll_aton.c ****  * @retval Error code E.g.: Invalid ID, invalid parameters, not idle,..
1848:../../Middlewares/AI_Runtime/Npu/ll_aton/ll_aton.c ****  */
1849:../../Middlewares/AI_Runtime/Npu/ll_aton/ll_aton.c **** int LL_Activacc_Init(int id, const LL_Activacc_InitTypeDef *conf)
1850:../../Middlewares/AI_Runtime/Npu/ll_aton/ll_aton.c **** {
1851:../../Middlewares/AI_Runtime/Npu/ll_aton/ll_aton.c ****   uint32_t t;
1852:../../Middlewares/AI_Runtime/Npu/ll_aton/ll_aton.c **** 
1853:../../Middlewares/AI_Runtime/Npu/ll_aton/ll_aton.c ****   if (id >= ATON_ACTIV_NUM)
1854:../../Middlewares/AI_Runtime/Npu/ll_aton/ll_aton.c ****     return LL_ATON_INVALID_ID;
1855:../../Middlewares/AI_Runtime/Npu/ll_aton/ll_aton.c **** 
1856:../../Middlewares/AI_Runtime/Npu/ll_aton/ll_aton.c ****   LL_ATON_EnableClock(ATON_ACTIV_CLKB_CLK(id));
1857:../../Middlewares/AI_Runtime/Npu/ll_aton/ll_aton.c **** 
1858:../../Middlewares/AI_Runtime/Npu/ll_aton/ll_aton.c ****   t = ATON_ACTIV_CTRL_DT;
1859:../../Middlewares/AI_Runtime/Npu/ll_aton/ll_aton.c ****   t = ATON_ACTIV_CTRL_SET_TYPE(t, get_Activacc_type(conf->operation));
1860:../../Middlewares/AI_Runtime/Npu/ll_aton/ll_aton.c ****   t = ATON_ACTIV_CTRL_SET_FBYTES(t, conf->inbytes_f);
1861:../../Middlewares/AI_Runtime/Npu/ll_aton/ll_aton.c ****   t = ATON_ACTIV_CTRL_SET_FSHIFT(t, ATON_SHIFT(conf->shift_f));
1862:../../Middlewares/AI_Runtime/Npu/ll_aton/ll_aton.c ****   t = ATON_ACTIV_CTRL_SET_FROUND(t, conf->rounding_f);
1863:../../Middlewares/AI_Runtime/Npu/ll_aton/ll_aton.c ****   t = ATON_ACTIV_CTRL_SET_FSAT(t, (conf->saturation_f != 0));
1864:../../Middlewares/AI_Runtime/Npu/ll_aton/ll_aton.c ****   t = ATON_ACTIV_CTRL_SET_FRNDMODE(t, conf->round_mode_f);
1865:../../Middlewares/AI_Runtime/Npu/ll_aton/ll_aton.c ****   t = ATON_ACTIV_CTRL_SET_FOBYTES(t, conf->outbytes_f);
1866:../../Middlewares/AI_Runtime/Npu/ll_aton/ll_aton.c **** 
1867:../../Middlewares/AI_Runtime/Npu/ll_aton/ll_aton.c ****   t = ATON_ACTIV_CTRL_SET_ROUND(t, (conf->rounding_o != 0));
1868:../../Middlewares/AI_Runtime/Npu/ll_aton/ll_aton.c ****   t = ATON_ACTIV_CTRL_SET_SAT(t, (conf->saturation_o != 0));
1869:../../Middlewares/AI_Runtime/Npu/ll_aton/ll_aton.c ****   t = ATON_ACTIV_CTRL_SET_OBYTES(t, conf->outbytes_o);
1870:../../Middlewares/AI_Runtime/Npu/ll_aton/ll_aton.c ****   t = ATON_ACTIV_CTRL_SET_ORNDMODE(t, (conf->relu_mode_o << 1) | conf->round_mode_o);
1871:../../Middlewares/AI_Runtime/Npu/ll_aton/ll_aton.c ****   ATON_ACTIV_CTRL_SET(id, t);
1872:../../Middlewares/AI_Runtime/Npu/ll_aton/ll_aton.c **** 
1873:../../Middlewares/AI_Runtime/Npu/ll_aton/ll_aton.c **** #if defined(ATON_ACTIV_FSUB_SET)
1874:../../Middlewares/AI_Runtime/Npu/ll_aton/ll_aton.c ****   if (conf->fsub != 0)
1875:../../Middlewares/AI_Runtime/Npu/ll_aton/ll_aton.c ****   {
1876:../../Middlewares/AI_Runtime/Npu/ll_aton/ll_aton.c ****     t = ATON_ACTIV_FSUB_DT;
1877:../../Middlewares/AI_Runtime/Npu/ll_aton/ll_aton.c ****     t = ATON_ACTIV_FSUB_SET_FSUB(t, conf->fsub);
1878:../../Middlewares/AI_Runtime/Npu/ll_aton/ll_aton.c ****     ATON_ACTIV_FSUB_SET(id, t);
1879:../../Middlewares/AI_Runtime/Npu/ll_aton/ll_aton.c ****   }
1880:../../Middlewares/AI_Runtime/Npu/ll_aton/ll_aton.c **** #endif
1881:../../Middlewares/AI_Runtime/Npu/ll_aton/ll_aton.c **** 
1882:../../Middlewares/AI_Runtime/Npu/ll_aton/ll_aton.c ****   switch (conf->operation)
1883:../../Middlewares/AI_Runtime/Npu/ll_aton/ll_aton.c ****   {
1884:../../Middlewares/AI_Runtime/Npu/ll_aton/ll_aton.c ****   case ACTIV_RELU:
1885:../../Middlewares/AI_Runtime/Npu/ll_aton/ll_aton.c ****   case ACTIV_PRELU:
1886:../../Middlewares/AI_Runtime/Npu/ll_aton/ll_aton.c ****   case ACTIV_TRELU:
1887:../../Middlewares/AI_Runtime/Npu/ll_aton/ll_aton.c ****     t = ATON_ACTIV_ACTIVPARAM_DT;
1888:../../Middlewares/AI_Runtime/Npu/ll_aton/ll_aton.c ****     t = ATON_ACTIV_ACTIVPARAM_SET_PARAM(t, conf->parameter);
1889:../../Middlewares/AI_Runtime/Npu/ll_aton/ll_aton.c ****     ATON_ACTIV_ACTIVPARAM_SET(id, t);
1890:../../Middlewares/AI_Runtime/Npu/ll_aton/ll_aton.c **** 
1891:../../Middlewares/AI_Runtime/Npu/ll_aton/ll_aton.c ****     t = ATON_ACTIV_ACTIVPARAM2_DT;
1892:../../Middlewares/AI_Runtime/Npu/ll_aton/ll_aton.c ****     t = ATON_ACTIV_ACTIVPARAM2_SET_PARAM2(t, conf->parameter_2);
ARM GAS  C:\Users\Antonio\AppData\Local\Temp\ccynTwLp.s 			page 94


1893:../../Middlewares/AI_Runtime/Npu/ll_aton/ll_aton.c ****     ATON_ACTIV_ACTIVPARAM2_SET(id, t);
1894:../../Middlewares/AI_Runtime/Npu/ll_aton/ll_aton.c **** 
1895:../../Middlewares/AI_Runtime/Npu/ll_aton/ll_aton.c ****     t = ATON_ACTIV_FUNC_DT;
1896:../../Middlewares/AI_Runtime/Npu/ll_aton/ll_aton.c ****     t = ATON_ACTIV_FUNC_SET_SIGNEDOP(t, (conf->signedop != 0));
1897:../../Middlewares/AI_Runtime/Npu/ll_aton/ll_aton.c ****     t = ATON_ACTIV_FUNC_SET_OUTSHIFT(t, conf->shift_o);
1898:../../Middlewares/AI_Runtime/Npu/ll_aton/ll_aton.c ****     ATON_ACTIV_FUNC_SET(id, t);
1899:../../Middlewares/AI_Runtime/Npu/ll_aton/ll_aton.c ****     break;
1900:../../Middlewares/AI_Runtime/Npu/ll_aton/ll_aton.c ****   case ACTIV_FUNC:
1901:../../Middlewares/AI_Runtime/Npu/ll_aton/ll_aton.c ****   {
1902:../../Middlewares/AI_Runtime/Npu/ll_aton/ll_aton.c ****     t = ATON_ACTIV_FUNC_DT;
1903:../../Middlewares/AI_Runtime/Npu/ll_aton/ll_aton.c ****     t = ATON_ACTIV_FUNC_SET_SIGNEDOP(t, (conf->signedop != 0));
1904:../../Middlewares/AI_Runtime/Npu/ll_aton/ll_aton.c ****     t = ATON_ACTIV_FUNC_SET_OUTSHIFT(t, conf->shift_o);
1905:../../Middlewares/AI_Runtime/Npu/ll_aton/ll_aton.c ****     t = ATON_ACTIV_FUNC_SET_BSHIFT(t, conf->shift_b);
1906:../../Middlewares/AI_Runtime/Npu/ll_aton/ll_aton.c ****     t = ATON_ACTIV_FUNC_SET_CSHIFT(t, conf->shift_c);
1907:../../Middlewares/AI_Runtime/Npu/ll_aton/ll_aton.c ****     t = ATON_ACTIV_FUNC_SET_BWIDTH(t, conf->bwidth);
1908:../../Middlewares/AI_Runtime/Npu/ll_aton/ll_aton.c ****     ATON_ACTIV_FUNC_SET(id, t);
1909:../../Middlewares/AI_Runtime/Npu/ll_aton/ll_aton.c **** 
1910:../../Middlewares/AI_Runtime/Npu/ll_aton/ll_aton.c ****     t = ATON_ACTIV_ACTIVPARAM_DT;
1911:../../Middlewares/AI_Runtime/Npu/ll_aton/ll_aton.c ****     t = ATON_ACTIV_ACTIVPARAM_SET_PARAM(t, conf->parameter);
1912:../../Middlewares/AI_Runtime/Npu/ll_aton/ll_aton.c ****     t = ATON_ACTIV_ACTIVPARAM_SET_FUNC(t, conf->shift_norm);
1913:../../Middlewares/AI_Runtime/Npu/ll_aton/ll_aton.c ****     ATON_ACTIV_ACTIVPARAM_SET(id, t);
1914:../../Middlewares/AI_Runtime/Npu/ll_aton/ll_aton.c **** 
1915:../../Middlewares/AI_Runtime/Npu/ll_aton/ll_aton.c ****     {
1916:../../Middlewares/AI_Runtime/Npu/ll_aton/ll_aton.c ****       uint8_t *R0p = (uint8_t *)conf->ROM0_vector.p;
1917:../../Middlewares/AI_Runtime/Npu/ll_aton/ll_aton.c ****       unsigned ROM0_rows = conf->ROM0_nbytes / (1 * 1);
1918:../../Middlewares/AI_Runtime/Npu/ll_aton/ll_aton.c ****       for (int i = 0; i < ROM0_rows; i++)
1919:../../Middlewares/AI_Runtime/Npu/ll_aton/ll_aton.c ****       {
1920:../../Middlewares/AI_Runtime/Npu/ll_aton/ll_aton.c ****         t = ATON_ACTIV_ROM0_DT;
1921:../../Middlewares/AI_Runtime/Npu/ll_aton/ll_aton.c ****         t = ATON_ACTIV_ROM0_SET_ENTRY(t, R0p[i]);
1922:../../Middlewares/AI_Runtime/Npu/ll_aton/ll_aton.c ****         ATON_ACTIV_ROM0_SET(id, i, t);
1923:../../Middlewares/AI_Runtime/Npu/ll_aton/ll_aton.c ****       }
1924:../../Middlewares/AI_Runtime/Npu/ll_aton/ll_aton.c ****     }
1925:../../Middlewares/AI_Runtime/Npu/ll_aton/ll_aton.c ****     {
1926:../../Middlewares/AI_Runtime/Npu/ll_aton/ll_aton.c ****       uint16_t *R1p = (uint16_t *)conf->ROM1_vector.p;
1927:../../Middlewares/AI_Runtime/Npu/ll_aton/ll_aton.c ****       unsigned ROM1_rows = conf->ROM1_nbytes / (3 * 2);
1928:../../Middlewares/AI_Runtime/Npu/ll_aton/ll_aton.c ****       for (int i = 0; i < ROM1_rows; i++)
1929:../../Middlewares/AI_Runtime/Npu/ll_aton/ll_aton.c ****       {
1930:../../Middlewares/AI_Runtime/Npu/ll_aton/ll_aton.c ****         t = ATON_ACTIV_ROM1_AB_DT;
1931:../../Middlewares/AI_Runtime/Npu/ll_aton/ll_aton.c ****         t = ATON_ACTIV_ROM1_AB_SET_A(t, R1p[3 * i + 0]);
1932:../../Middlewares/AI_Runtime/Npu/ll_aton/ll_aton.c ****         t = ATON_ACTIV_ROM1_AB_SET_B(t, R1p[3 * i + 1]);
1933:../../Middlewares/AI_Runtime/Npu/ll_aton/ll_aton.c ****         ATON_ACTIV_ROM1_AB_SET(id, i, t);
1934:../../Middlewares/AI_Runtime/Npu/ll_aton/ll_aton.c ****         t = ATON_ACTIV_ROM1_C_DT;
1935:../../Middlewares/AI_Runtime/Npu/ll_aton/ll_aton.c ****         t = ATON_ACTIV_ROM1_C_SET_C(t, R1p[3 * i + 2]);
1936:../../Middlewares/AI_Runtime/Npu/ll_aton/ll_aton.c ****         ATON_ACTIV_ROM1_C_SET(id, i, t);
1937:../../Middlewares/AI_Runtime/Npu/ll_aton/ll_aton.c ****       }
1938:../../Middlewares/AI_Runtime/Npu/ll_aton/ll_aton.c ****     }
1939:../../Middlewares/AI_Runtime/Npu/ll_aton/ll_aton.c ****   }
1940:../../Middlewares/AI_Runtime/Npu/ll_aton/ll_aton.c ****   break;
1941:../../Middlewares/AI_Runtime/Npu/ll_aton/ll_aton.c ****   case ACTIV_LUT:
1942:../../Middlewares/AI_Runtime/Npu/ll_aton/ll_aton.c **** #if defined ATON_ACTIVTYPE_LUT
1943:../../Middlewares/AI_Runtime/Npu/ll_aton/ll_aton.c ****   {
1944:../../Middlewares/AI_Runtime/Npu/ll_aton/ll_aton.c ****     uint8_t *Lutp = (uint8_t *)conf->LUT_vector.p;
1945:../../Middlewares/AI_Runtime/Npu/ll_aton/ll_aton.c ****     for (int i = 0; i < 64; i++)
1946:../../Middlewares/AI_Runtime/Npu/ll_aton/ll_aton.c ****     {
1947:../../Middlewares/AI_Runtime/Npu/ll_aton/ll_aton.c ****       uint32_t val = ATON_ACTIV_LUT_DT;
1948:../../Middlewares/AI_Runtime/Npu/ll_aton/ll_aton.c ****       val = ATON_ACTIV_LUT_SET_MOD8_1(val, Lutp[4 * i]);
1949:../../Middlewares/AI_Runtime/Npu/ll_aton/ll_aton.c ****       val = ATON_ACTIV_LUT_SET_MOD8_2(val, Lutp[4 * i + 1]);
ARM GAS  C:\Users\Antonio\AppData\Local\Temp\ccynTwLp.s 			page 95


1950:../../Middlewares/AI_Runtime/Npu/ll_aton/ll_aton.c ****       val = ATON_ACTIV_LUT_SET_MOD8_3(val, Lutp[4 * i + 2]);
1951:../../Middlewares/AI_Runtime/Npu/ll_aton/ll_aton.c ****       val = ATON_ACTIV_LUT_SET_MOD8_4(val, Lutp[4 * i + 3]);
1952:../../Middlewares/AI_Runtime/Npu/ll_aton/ll_aton.c ****       ATON_ACTIV_LUT_SET(id, i, val);
1953:../../Middlewares/AI_Runtime/Npu/ll_aton/ll_aton.c ****     }
1954:../../Middlewares/AI_Runtime/Npu/ll_aton/ll_aton.c ****   }
1955:../../Middlewares/AI_Runtime/Npu/ll_aton/ll_aton.c **** #else
1956:../../Middlewares/AI_Runtime/Npu/ll_aton/ll_aton.c ****     assert("Unsupported Activation LUT configuration");
1957:../../Middlewares/AI_Runtime/Npu/ll_aton/ll_aton.c **** #endif
1958:../../Middlewares/AI_Runtime/Npu/ll_aton/ll_aton.c ****   break;
1959:../../Middlewares/AI_Runtime/Npu/ll_aton/ll_aton.c ****   default:
1960:../../Middlewares/AI_Runtime/Npu/ll_aton/ll_aton.c ****     return -1;
1961:../../Middlewares/AI_Runtime/Npu/ll_aton/ll_aton.c ****   }
1962:../../Middlewares/AI_Runtime/Npu/ll_aton/ll_aton.c **** 
1963:../../Middlewares/AI_Runtime/Npu/ll_aton/ll_aton.c ****   return 0;
1964:../../Middlewares/AI_Runtime/Npu/ll_aton/ll_aton.c **** }
1965:../../Middlewares/AI_Runtime/Npu/ll_aton/ll_aton.c **** #endif // ATON_ACTIV_NUM
1966:../../Middlewares/AI_Runtime/Npu/ll_aton/ll_aton.c **** 
1967:../../Middlewares/AI_Runtime/Npu/ll_aton/ll_aton.c **** #ifdef ATON_ARITH_NUM
1968:../../Middlewares/AI_Runtime/Npu/ll_aton/ll_aton.c **** 
1969:../../Middlewares/AI_Runtime/Npu/ll_aton/ll_aton.c **** static int32_t get_Arithacc_type(LL_Arithacc_Op op)
1970:../../Middlewares/AI_Runtime/Npu/ll_aton/ll_aton.c **** {
1971:../../Middlewares/AI_Runtime/Npu/ll_aton/ll_aton.c ****   switch (op)
1972:../../Middlewares/AI_Runtime/Npu/ll_aton/ll_aton.c ****   {
1973:../../Middlewares/AI_Runtime/Npu/ll_aton/ll_aton.c ****   case ARITH_AFFINE:
1974:../../Middlewares/AI_Runtime/Npu/ll_aton/ll_aton.c ****     return ATON_ARITHOP_AX_BY_C;
1975:../../Middlewares/AI_Runtime/Npu/ll_aton/ll_aton.c ****   case ARITH_MIN:
1976:../../Middlewares/AI_Runtime/Npu/ll_aton/ll_aton.c ****     return ATON_ARITHOP_MIN_X_Y;
1977:../../Middlewares/AI_Runtime/Npu/ll_aton/ll_aton.c ****   case ARITH_MAX:
1978:../../Middlewares/AI_Runtime/Npu/ll_aton/ll_aton.c ****     return ATON_ARITHOP_MAX_X_Y;
1979:../../Middlewares/AI_Runtime/Npu/ll_aton/ll_aton.c ****   case ARITH_MUL:
1980:../../Middlewares/AI_Runtime/Npu/ll_aton/ll_aton.c ****     return ATON_ARITHOP_XY;
1981:../../Middlewares/AI_Runtime/Npu/ll_aton/ll_aton.c ****   case ARITH_X_AND_Y:
1982:../../Middlewares/AI_Runtime/Npu/ll_aton/ll_aton.c ****     return ATON_ARITHOP_X_AND_Y;
1983:../../Middlewares/AI_Runtime/Npu/ll_aton/ll_aton.c ****   case ARITH_X_OR_Y:
1984:../../Middlewares/AI_Runtime/Npu/ll_aton/ll_aton.c ****     return ATON_ARITHOP_X_OR_Y;
1985:../../Middlewares/AI_Runtime/Npu/ll_aton/ll_aton.c ****   case ARITH_NOT_X:
1986:../../Middlewares/AI_Runtime/Npu/ll_aton/ll_aton.c ****     return ATON_ARITHOP_NOT_X;
1987:../../Middlewares/AI_Runtime/Npu/ll_aton/ll_aton.c ****   case ARITH_X_XOR_Y:
1988:../../Middlewares/AI_Runtime/Npu/ll_aton/ll_aton.c ****     return ATON_ARITHOP_X_XOR_Y;
1989:../../Middlewares/AI_Runtime/Npu/ll_aton/ll_aton.c ****   case ARITH_X_EQ_Y:
1990:../../Middlewares/AI_Runtime/Npu/ll_aton/ll_aton.c ****     return ATON_ARITHOP_X_EQ_Y;
1991:../../Middlewares/AI_Runtime/Npu/ll_aton/ll_aton.c ****   case ARITH_X_LT_Y:
1992:../../Middlewares/AI_Runtime/Npu/ll_aton/ll_aton.c ****     return ATON_ARITHOP_X_LT_Y;
1993:../../Middlewares/AI_Runtime/Npu/ll_aton/ll_aton.c ****   case ARITH_X_LE_Y:
1994:../../Middlewares/AI_Runtime/Npu/ll_aton/ll_aton.c ****     return ATON_ARITHOP_X_LE_Y;
1995:../../Middlewares/AI_Runtime/Npu/ll_aton/ll_aton.c ****   case ARITH_X_GT_Y:
1996:../../Middlewares/AI_Runtime/Npu/ll_aton/ll_aton.c ****     return ATON_ARITHOP_X_GT_Y;
1997:../../Middlewares/AI_Runtime/Npu/ll_aton/ll_aton.c ****   case ARITH_X_GE_Y:
1998:../../Middlewares/AI_Runtime/Npu/ll_aton/ll_aton.c ****     return ATON_ARITHOP_X_GE_Y;
1999:../../Middlewares/AI_Runtime/Npu/ll_aton/ll_aton.c ****   case ARITH_ABS_X:
2000:../../Middlewares/AI_Runtime/Npu/ll_aton/ll_aton.c ****     return ATON_ARITHOP_ABS_X;
2001:../../Middlewares/AI_Runtime/Npu/ll_aton/ll_aton.c ****   case ARITH_SIGN_X:
2002:../../Middlewares/AI_Runtime/Npu/ll_aton/ll_aton.c ****     return ATON_ARITHOP_SIGN_X;
2003:../../Middlewares/AI_Runtime/Npu/ll_aton/ll_aton.c ****   case ARITH_CLIP:
2004:../../Middlewares/AI_Runtime/Npu/ll_aton/ll_aton.c ****     return ATON_ARITHOP_CLIP;
2005:../../Middlewares/AI_Runtime/Npu/ll_aton/ll_aton.c ****   default:
2006:../../Middlewares/AI_Runtime/Npu/ll_aton/ll_aton.c ****     break;
ARM GAS  C:\Users\Antonio\AppData\Local\Temp\ccynTwLp.s 			page 96


2007:../../Middlewares/AI_Runtime/Npu/ll_aton/ll_aton.c ****   }
2008:../../Middlewares/AI_Runtime/Npu/ll_aton/ll_aton.c ****   LL_ATON_ASSERT(0);
2009:../../Middlewares/AI_Runtime/Npu/ll_aton/ll_aton.c ****   return 0;
2010:../../Middlewares/AI_Runtime/Npu/ll_aton/ll_aton.c **** }
2011:../../Middlewares/AI_Runtime/Npu/ll_aton/ll_aton.c **** 
2012:../../Middlewares/AI_Runtime/Npu/ll_aton/ll_aton.c **** /**
2013:../../Middlewares/AI_Runtime/Npu/ll_aton/ll_aton.c ****  * @brief  Configures Arithmetic Accelerator
2014:../../Middlewares/AI_Runtime/Npu/ll_aton/ll_aton.c ****  * @param  id Arithmetic Accelerator identifier [0..ATON_ARITH_NUM-1]
2015:../../Middlewares/AI_Runtime/Npu/ll_aton/ll_aton.c ****  * @param  Arithacc_InitStruct Structure describing initialization parameters
2016:../../Middlewares/AI_Runtime/Npu/ll_aton/ll_aton.c ****  * @retval Error code E.g.: Invalid ID, invalid parameters, not idle,..
2017:../../Middlewares/AI_Runtime/Npu/ll_aton/ll_aton.c ****  */
2018:../../Middlewares/AI_Runtime/Npu/ll_aton/ll_aton.c **** int LL_Arithacc_Init(int id, const LL_Arithacc_InitTypeDef *conf)
2019:../../Middlewares/AI_Runtime/Npu/ll_aton/ll_aton.c **** {
2020:../../Middlewares/AI_Runtime/Npu/ll_aton/ll_aton.c ****   uint32_t t;
2021:../../Middlewares/AI_Runtime/Npu/ll_aton/ll_aton.c ****   char sshift;
2022:../../Middlewares/AI_Runtime/Npu/ll_aton/ll_aton.c **** 
2023:../../Middlewares/AI_Runtime/Npu/ll_aton/ll_aton.c ****   if (id >= ATON_ARITH_NUM)
2024:../../Middlewares/AI_Runtime/Npu/ll_aton/ll_aton.c ****     return LL_ATON_INVALID_ID;
2025:../../Middlewares/AI_Runtime/Npu/ll_aton/ll_aton.c **** 
2026:../../Middlewares/AI_Runtime/Npu/ll_aton/ll_aton.c ****   /* Deal with Arith Acc V3 shifts extensions */
2027:../../Middlewares/AI_Runtime/Npu/ll_aton/ll_aton.c ****   if (ATON_ARITH_VERSION_MAJOR_DT >= 3)
2028:../../Middlewares/AI_Runtime/Npu/ll_aton/ll_aton.c ****     sshift = 16;
2029:../../Middlewares/AI_Runtime/Npu/ll_aton/ll_aton.c ****   else
2030:../../Middlewares/AI_Runtime/Npu/ll_aton/ll_aton.c ****     sshift = 0;
2031:../../Middlewares/AI_Runtime/Npu/ll_aton/ll_aton.c **** 
2032:../../Middlewares/AI_Runtime/Npu/ll_aton/ll_aton.c ****   LL_ATON_EnableClock(ATON_ARITH_CLKB_CLK(id));
2033:../../Middlewares/AI_Runtime/Npu/ll_aton/ll_aton.c **** 
2034:../../Middlewares/AI_Runtime/Npu/ll_aton/ll_aton.c ****   t = ATON_ARITH_CTRL_DT;
2035:../../Middlewares/AI_Runtime/Npu/ll_aton/ll_aton.c ****   ATON_ARITH_CTRL_SET(id, t);
2036:../../Middlewares/AI_Runtime/Npu/ll_aton/ll_aton.c **** 
2037:../../Middlewares/AI_Runtime/Npu/ll_aton/ll_aton.c ****   t = ATON_ARITH_CTRL_DT;
2038:../../Middlewares/AI_Runtime/Npu/ll_aton/ll_aton.c ****   t = ATON_ARITH_CTRL_SET_CNT1(t, (conf->scalar == 0)); // these must be handled yet FIXME !!!
2039:../../Middlewares/AI_Runtime/Npu/ll_aton/ll_aton.c ****   t = ATON_ARITH_CTRL_SET_CNT2(t, (conf->scalar == 0) && (conf->bcast == ARITH_BCAST_CHAN));
2040:../../Middlewares/AI_Runtime/Npu/ll_aton/ll_aton.c ****   t = ATON_ARITH_CTRL_SET_CNT3(t, (conf->scalar == 0) && (conf->bcast == ARITH_BCAST_CHAN));
2041:../../Middlewares/AI_Runtime/Npu/ll_aton/ll_aton.c ****   t = ATON_ARITH_CTRL_SET_ROUND(t, (conf->rounding_o != 0));
2042:../../Middlewares/AI_Runtime/Npu/ll_aton/ll_aton.c ****   t = ATON_ARITH_CTRL_SET_ORNDMODE(t, (conf->relu_mode_o << 1) | conf->round_mode_o);
2043:../../Middlewares/AI_Runtime/Npu/ll_aton/ll_aton.c ****   // t = ATON_ARITH_CTRL_SET_OBYTES(t,((conf->dataw_o + 7) >> 3));
2044:../../Middlewares/AI_Runtime/Npu/ll_aton/ll_aton.c ****   t = ATON_ARITH_CTRL_SET_OBYTES(t, conf->outbytes_o);
2045:../../Middlewares/AI_Runtime/Npu/ll_aton/ll_aton.c ****   t = ATON_ARITH_CTRL_SET_SAT(t, (conf->saturation_o != 0));
2046:../../Middlewares/AI_Runtime/Npu/ll_aton/ll_aton.c ****   t = ATON_ARITH_CTRL_SET_COEFFA(t, (conf->scalar == 0));
2047:../../Middlewares/AI_Runtime/Npu/ll_aton/ll_aton.c ****   t = ATON_ARITH_CTRL_SET_COEFFB(t, (conf->scalar == 0));
2048:../../Middlewares/AI_Runtime/Npu/ll_aton/ll_aton.c ****   t = ATON_ARITH_CTRL_SET_COEFFC(t, (conf->scalar == 0));
2049:../../Middlewares/AI_Runtime/Npu/ll_aton/ll_aton.c ****   t = ATON_ARITH_CTRL_SET_DUALIN(t, (conf->dualinput != 0));
2050:../../Middlewares/AI_Runtime/Npu/ll_aton/ll_aton.c ****   t = ATON_ARITH_CTRL_SET_COMBINEBC(t, (conf->combinebc != 0));
2051:../../Middlewares/AI_Runtime/Npu/ll_aton/ll_aton.c **** #ifdef ATON_ARITH_CTRL_SET_CLIPOUT
2052:../../Middlewares/AI_Runtime/Npu/ll_aton/ll_aton.c ****   t = ATON_ARITH_CTRL_SET_CLIPOUT(t, (conf->clipout != 0));
2053:../../Middlewares/AI_Runtime/Npu/ll_aton/ll_aton.c **** #endif
2054:../../Middlewares/AI_Runtime/Npu/ll_aton/ll_aton.c ****   t = ATON_ARITH_CTRL_SET_OP(t, get_Arithacc_type(conf->operation));
2055:../../Middlewares/AI_Runtime/Npu/ll_aton/ll_aton.c ****   if (conf->operation == ARITH_NOT_X)
2056:../../Middlewares/AI_Runtime/Npu/ll_aton/ll_aton.c ****   { // WORKAROUND
2057:../../Middlewares/AI_Runtime/Npu/ll_aton/ll_aton.c ****     t = ATON_ARITH_CTRL_SET_LOGICALOP(t, 1);
2058:../../Middlewares/AI_Runtime/Npu/ll_aton/ll_aton.c ****   }
2059:../../Middlewares/AI_Runtime/Npu/ll_aton/ll_aton.c ****   ATON_ARITH_CTRL_SET(id, t);
2060:../../Middlewares/AI_Runtime/Npu/ll_aton/ll_aton.c **** 
2061:../../Middlewares/AI_Runtime/Npu/ll_aton/ll_aton.c ****   t = ATON_ARITH_INSHIFTER_DT;
2062:../../Middlewares/AI_Runtime/Npu/ll_aton/ll_aton.c ****   t = ATON_ARITH_INSHIFTER_SET_FBYTESX(t, conf->inbytes_x);
2063:../../Middlewares/AI_Runtime/Npu/ll_aton/ll_aton.c ****   t = ATON_ARITH_INSHIFTER_SET_FSHIFTX(t, ATON_SHIFT(conf->shift_x));
ARM GAS  C:\Users\Antonio\AppData\Local\Temp\ccynTwLp.s 			page 97


2064:../../Middlewares/AI_Runtime/Npu/ll_aton/ll_aton.c ****   t = ATON_ARITH_INSHIFTER_SET_FROUNDX(t, (conf->rounding_x != 0));
2065:../../Middlewares/AI_Runtime/Npu/ll_aton/ll_aton.c ****   t = ATON_ARITH_INSHIFTER_SET_FSATX(t, (conf->saturation_x != 0));
2066:../../Middlewares/AI_Runtime/Npu/ll_aton/ll_aton.c ****   t = ATON_ARITH_INSHIFTER_SET_FRNDMODEX(t, conf->round_mode_x);
2067:../../Middlewares/AI_Runtime/Npu/ll_aton/ll_aton.c ****   t = ATON_ARITH_INSHIFTER_SET_FOBYTESX(t, conf->outbytes_x);
2068:../../Middlewares/AI_Runtime/Npu/ll_aton/ll_aton.c **** 
2069:../../Middlewares/AI_Runtime/Npu/ll_aton/ll_aton.c ****   t = ATON_ARITH_INSHIFTER_SET_FBYTESY(t, conf->inbytes_y);
2070:../../Middlewares/AI_Runtime/Npu/ll_aton/ll_aton.c ****   t = ATON_ARITH_INSHIFTER_SET_FSHIFTY(t, ATON_SHIFT(conf->shift_y));
2071:../../Middlewares/AI_Runtime/Npu/ll_aton/ll_aton.c ****   t = ATON_ARITH_INSHIFTER_SET_FROUNDY(t, (conf->rounding_y != 0));
2072:../../Middlewares/AI_Runtime/Npu/ll_aton/ll_aton.c ****   t = ATON_ARITH_INSHIFTER_SET_FSATY(t, (conf->saturation_y != 0));
2073:../../Middlewares/AI_Runtime/Npu/ll_aton/ll_aton.c ****   t = ATON_ARITH_INSHIFTER_SET_FRNDMODEY(t, conf->round_mode_y);
2074:../../Middlewares/AI_Runtime/Npu/ll_aton/ll_aton.c ****   t = ATON_ARITH_INSHIFTER_SET_FOBYTESY(t, conf->outbytes_y);
2075:../../Middlewares/AI_Runtime/Npu/ll_aton/ll_aton.c ****   ATON_ARITH_INSHIFTER_SET(id, t);
2076:../../Middlewares/AI_Runtime/Npu/ll_aton/ll_aton.c **** 
2077:../../Middlewares/AI_Runtime/Npu/ll_aton/ll_aton.c ****   t = ATON_ARITH_SHIFT_DT;
2078:../../Middlewares/AI_Runtime/Npu/ll_aton/ll_aton.c ****   t = ATON_ARITH_SHIFT_SET_AX(t, conf->Ax_shift + sshift);
2079:../../Middlewares/AI_Runtime/Npu/ll_aton/ll_aton.c ****   t = ATON_ARITH_SHIFT_SET_BY(t, conf->By_shift + sshift);
2080:../../Middlewares/AI_Runtime/Npu/ll_aton/ll_aton.c ****   t = ATON_ARITH_SHIFT_SET_C(t, conf->C_shift + sshift);
2081:../../Middlewares/AI_Runtime/Npu/ll_aton/ll_aton.c ****   t = ATON_ARITH_SHIFT_SET_RES(t, conf->shift_o); // right shift only
2082:../../Middlewares/AI_Runtime/Npu/ll_aton/ll_aton.c ****   ATON_ARITH_SHIFT_SET(id, t);
2083:../../Middlewares/AI_Runtime/Npu/ll_aton/ll_aton.c **** 
2084:../../Middlewares/AI_Runtime/Npu/ll_aton/ll_aton.c ****   t = ATON_ARITH_COEFFAC_DT;
2085:../../Middlewares/AI_Runtime/Npu/ll_aton/ll_aton.c ****   t = ATON_ARITH_COEFFAC_SET_A(t, conf->A_scalar);
2086:../../Middlewares/AI_Runtime/Npu/ll_aton/ll_aton.c ****   t = ATON_ARITH_COEFFAC_SET_C(t, conf->C_scalar);
2087:../../Middlewares/AI_Runtime/Npu/ll_aton/ll_aton.c ****   ATON_ARITH_COEFFAC_SET(id, t);
2088:../../Middlewares/AI_Runtime/Npu/ll_aton/ll_aton.c **** 
2089:../../Middlewares/AI_Runtime/Npu/ll_aton/ll_aton.c ****   t = ATON_ARITH_COEFFB_DT;
2090:../../Middlewares/AI_Runtime/Npu/ll_aton/ll_aton.c ****   t = ATON_ARITH_COEFFB_SET_B(t, conf->B_scalar);
2091:../../Middlewares/AI_Runtime/Npu/ll_aton/ll_aton.c ****   ATON_ARITH_COEFFB_SET(id, t);
2092:../../Middlewares/AI_Runtime/Npu/ll_aton/ll_aton.c **** 
2093:../../Middlewares/AI_Runtime/Npu/ll_aton/ll_aton.c **** #ifdef ATON_ARITH_CLIPRANGE_SET
2094:../../Middlewares/AI_Runtime/Npu/ll_aton/ll_aton.c ****   if (conf->clipout)
2095:../../Middlewares/AI_Runtime/Npu/ll_aton/ll_aton.c ****   {
2096:../../Middlewares/AI_Runtime/Npu/ll_aton/ll_aton.c ****     t = ATON_ARITH_CLIPRANGE_DT;
2097:../../Middlewares/AI_Runtime/Npu/ll_aton/ll_aton.c ****     t = ATON_ARITH_CLIPRANGE_SET_CLIPMAX(t, (conf->clipmax & 0xFFFFU));
2098:../../Middlewares/AI_Runtime/Npu/ll_aton/ll_aton.c ****     t = ATON_ARITH_CLIPRANGE_SET_CLIPMIN(t, (conf->clipmin & 0xFFFFU));
2099:../../Middlewares/AI_Runtime/Npu/ll_aton/ll_aton.c ****     ATON_ARITH_CLIPRANGE_SET(id, t);
2100:../../Middlewares/AI_Runtime/Npu/ll_aton/ll_aton.c **** 
2101:../../Middlewares/AI_Runtime/Npu/ll_aton/ll_aton.c **** #ifdef ATON_ARITH_CLIPRANGE_MSB_SET
2102:../../Middlewares/AI_Runtime/Npu/ll_aton/ll_aton.c ****     t = ATON_ARITH_CLIPRANGE_MSB_DT;
2103:../../Middlewares/AI_Runtime/Npu/ll_aton/ll_aton.c ****     t = ATON_ARITH_CLIPRANGE_MSB_SET_CLIPMAX(t, (conf->clipmax >> 16));
2104:../../Middlewares/AI_Runtime/Npu/ll_aton/ll_aton.c ****     t = ATON_ARITH_CLIPRANGE_MSB_SET_CLIPMIN(t, (conf->clipmin >> 16));
2105:../../Middlewares/AI_Runtime/Npu/ll_aton/ll_aton.c ****     ATON_ARITH_CLIPRANGE_MSB_SET(id, t);
2106:../../Middlewares/AI_Runtime/Npu/ll_aton/ll_aton.c **** #endif
2107:../../Middlewares/AI_Runtime/Npu/ll_aton/ll_aton.c ****   }
2108:../../Middlewares/AI_Runtime/Npu/ll_aton/ll_aton.c **** #endif
2109:../../Middlewares/AI_Runtime/Npu/ll_aton/ll_aton.c **** 
2110:../../Middlewares/AI_Runtime/Npu/ll_aton/ll_aton.c ****   ATON_ARITH_COEFFADDR_SET(id, 0);
2111:../../Middlewares/AI_Runtime/Npu/ll_aton/ll_aton.c **** 
2112:../../Middlewares/AI_Runtime/Npu/ll_aton/ll_aton.c ****   int maxc = 0;
2113:../../Middlewares/AI_Runtime/Npu/ll_aton/ll_aton.c ****   if (conf->scalar == 0)
2114:../../Middlewares/AI_Runtime/Npu/ll_aton/ll_aton.c ****   { // vector mode
2115:../../Middlewares/AI_Runtime/Npu/ll_aton/ll_aton.c ****     switch (conf->bcast)
2116:../../Middlewares/AI_Runtime/Npu/ll_aton/ll_aton.c ****     {
2117:../../Middlewares/AI_Runtime/Npu/ll_aton/ll_aton.c ****     case ARITH_BCAST_CHAN:
2118:../../Middlewares/AI_Runtime/Npu/ll_aton/ll_aton.c ****       t = ATON_ARITH_INCCNT_SET_INCVAL(0, 0);
2119:../../Middlewares/AI_Runtime/Npu/ll_aton/ll_aton.c ****       ATON_ARITH_INCCNT_SET(id, t);
2120:../../Middlewares/AI_Runtime/Npu/ll_aton/ll_aton.c **** 
ARM GAS  C:\Users\Antonio\AppData\Local\Temp\ccynTwLp.s 			page 98


2121:../../Middlewares/AI_Runtime/Npu/ll_aton/ll_aton.c ****       t = ATON_ARITH_RSTCNT1_SET_RSTCNT(0, (conf->batchDepth - 1));
2122:../../Middlewares/AI_Runtime/Npu/ll_aton/ll_aton.c ****       ATON_ARITH_RSTCNT1_SET(id, t);
2123:../../Middlewares/AI_Runtime/Npu/ll_aton/ll_aton.c **** 
2124:../../Middlewares/AI_Runtime/Npu/ll_aton/ll_aton.c ****       t = ATON_ARITH_RSTCNT2_SET_RSTCNT(
2125:../../Middlewares/AI_Runtime/Npu/ll_aton/ll_aton.c ****           0, (conf->fWidth * conf->fHeight * conf->batchDepth - 1)); // must check this fits into 2
2126:../../Middlewares/AI_Runtime/Npu/ll_aton/ll_aton.c ****       ATON_ARITH_RSTCNT2_SET(id, t);
2127:../../Middlewares/AI_Runtime/Npu/ll_aton/ll_aton.c **** 
2128:../../Middlewares/AI_Runtime/Npu/ll_aton/ll_aton.c ****       t = ATON_ARITH_RSTCNT3_SET_RSTCNT(
2129:../../Middlewares/AI_Runtime/Npu/ll_aton/ll_aton.c ****           0, (conf->fWidth * conf->fHeight * conf->fChannels - 1)); // must check this fits into 27
2130:../../Middlewares/AI_Runtime/Npu/ll_aton/ll_aton.c ****       ATON_ARITH_RSTCNT3_SET(id, t);
2131:../../Middlewares/AI_Runtime/Npu/ll_aton/ll_aton.c **** 
2132:../../Middlewares/AI_Runtime/Npu/ll_aton/ll_aton.c ****       t = ATON_ARITH_INCOFFSET_SET_VAL(0, 1);
2133:../../Middlewares/AI_Runtime/Npu/ll_aton/ll_aton.c ****       ATON_ARITH_INCOFFSET_SET(id, t);
2134:../../Middlewares/AI_Runtime/Npu/ll_aton/ll_aton.c **** 
2135:../../Middlewares/AI_Runtime/Npu/ll_aton/ll_aton.c ****       t = ATON_ARITH_ADDROFFSET_SET_OFFSET1(0, -(conf->batchDepth - 1));
2136:../../Middlewares/AI_Runtime/Npu/ll_aton/ll_aton.c ****       t = ATON_ARITH_ADDROFFSET_SET_OFFSET2(t, 1);
2137:../../Middlewares/AI_Runtime/Npu/ll_aton/ll_aton.c ****       t = ATON_ARITH_ADDROFFSET_SET_OFFSET3(t, -(conf->fChannels - 1));
2138:../../Middlewares/AI_Runtime/Npu/ll_aton/ll_aton.c ****       ATON_ARITH_ADDROFFSET_SET(id, t);
2139:../../Middlewares/AI_Runtime/Npu/ll_aton/ll_aton.c ****       maxc = conf->fChannels;
2140:../../Middlewares/AI_Runtime/Npu/ll_aton/ll_aton.c ****       break;
2141:../../Middlewares/AI_Runtime/Npu/ll_aton/ll_aton.c ****     case ARITH_BCAST_HEIGHT:
2142:../../Middlewares/AI_Runtime/Npu/ll_aton/ll_aton.c ****       t = ATON_ARITH_INCCNT_SET_INCVAL(0, (conf->fWidth * conf->batchDepth - 1));
2143:../../Middlewares/AI_Runtime/Npu/ll_aton/ll_aton.c ****       ATON_ARITH_INCCNT_SET(id, t);
2144:../../Middlewares/AI_Runtime/Npu/ll_aton/ll_aton.c **** 
2145:../../Middlewares/AI_Runtime/Npu/ll_aton/ll_aton.c ****       t = ATON_ARITH_RSTCNT1_SET_RSTCNT(0, (conf->fWidth * conf->fHeight * conf->batchDepth - 1));
2146:../../Middlewares/AI_Runtime/Npu/ll_aton/ll_aton.c ****       ATON_ARITH_RSTCNT1_SET(id, t);
2147:../../Middlewares/AI_Runtime/Npu/ll_aton/ll_aton.c **** 
2148:../../Middlewares/AI_Runtime/Npu/ll_aton/ll_aton.c ****       t = ATON_ARITH_INCOFFSET_SET_VAL(0, 1);
2149:../../Middlewares/AI_Runtime/Npu/ll_aton/ll_aton.c ****       ATON_ARITH_INCOFFSET_SET(id, t);
2150:../../Middlewares/AI_Runtime/Npu/ll_aton/ll_aton.c **** 
2151:../../Middlewares/AI_Runtime/Npu/ll_aton/ll_aton.c ****       t = ATON_ARITH_ADDROFFSET_SET_OFFSET1(0, -(conf->fHeight - 1));
2152:../../Middlewares/AI_Runtime/Npu/ll_aton/ll_aton.c ****       ATON_ARITH_ADDROFFSET_SET(id, t);
2153:../../Middlewares/AI_Runtime/Npu/ll_aton/ll_aton.c ****       maxc = conf->fHeight;
2154:../../Middlewares/AI_Runtime/Npu/ll_aton/ll_aton.c ****       break;
2155:../../Middlewares/AI_Runtime/Npu/ll_aton/ll_aton.c ****     case ARITH_BCAST_WIDTH:
2156:../../Middlewares/AI_Runtime/Npu/ll_aton/ll_aton.c ****       t = ATON_ARITH_INCCNT_SET_INCVAL(0, (conf->batchDepth - 1));
2157:../../Middlewares/AI_Runtime/Npu/ll_aton/ll_aton.c ****       ATON_ARITH_INCCNT_SET(id, t);
2158:../../Middlewares/AI_Runtime/Npu/ll_aton/ll_aton.c **** 
2159:../../Middlewares/AI_Runtime/Npu/ll_aton/ll_aton.c ****       t = ATON_ARITH_RSTCNT1_SET_RSTCNT(0, (conf->fWidth * conf->batchDepth - 1));
2160:../../Middlewares/AI_Runtime/Npu/ll_aton/ll_aton.c ****       ATON_ARITH_RSTCNT1_SET(id, t);
2161:../../Middlewares/AI_Runtime/Npu/ll_aton/ll_aton.c **** 
2162:../../Middlewares/AI_Runtime/Npu/ll_aton/ll_aton.c ****       t = ATON_ARITH_INCOFFSET_SET_VAL(0, 1);
2163:../../Middlewares/AI_Runtime/Npu/ll_aton/ll_aton.c ****       ATON_ARITH_INCOFFSET_SET(id, t);
2164:../../Middlewares/AI_Runtime/Npu/ll_aton/ll_aton.c **** 
2165:../../Middlewares/AI_Runtime/Npu/ll_aton/ll_aton.c ****       t = ATON_ARITH_ADDROFFSET_SET_OFFSET1(0, -(conf->fWidth - 1));
2166:../../Middlewares/AI_Runtime/Npu/ll_aton/ll_aton.c ****       ATON_ARITH_ADDROFFSET_SET(id, t);
2167:../../Middlewares/AI_Runtime/Npu/ll_aton/ll_aton.c ****       maxc = conf->fWidth;
2168:../../Middlewares/AI_Runtime/Npu/ll_aton/ll_aton.c ****       break;
2169:../../Middlewares/AI_Runtime/Npu/ll_aton/ll_aton.c ****     case ARITH_BCAST_HEIGHT_WIDTH:
2170:../../Middlewares/AI_Runtime/Npu/ll_aton/ll_aton.c ****       t = ATON_ARITH_INCCNT_SET_INCVAL(0, (conf->batchDepth - 1));
2171:../../Middlewares/AI_Runtime/Npu/ll_aton/ll_aton.c ****       ATON_ARITH_INCCNT_SET(id, t);
2172:../../Middlewares/AI_Runtime/Npu/ll_aton/ll_aton.c **** 
2173:../../Middlewares/AI_Runtime/Npu/ll_aton/ll_aton.c ****       t = ATON_ARITH_RSTCNT1_SET_RSTCNT(0, (conf->fHeight * conf->fWidth * conf->batchDepth - 1));
2174:../../Middlewares/AI_Runtime/Npu/ll_aton/ll_aton.c ****       ATON_ARITH_RSTCNT1_SET(id, t);
2175:../../Middlewares/AI_Runtime/Npu/ll_aton/ll_aton.c **** 
2176:../../Middlewares/AI_Runtime/Npu/ll_aton/ll_aton.c ****       t = ATON_ARITH_INCOFFSET_SET_VAL(0, 1);
2177:../../Middlewares/AI_Runtime/Npu/ll_aton/ll_aton.c ****       ATON_ARITH_INCOFFSET_SET(id, t);
ARM GAS  C:\Users\Antonio\AppData\Local\Temp\ccynTwLp.s 			page 99


2178:../../Middlewares/AI_Runtime/Npu/ll_aton/ll_aton.c **** 
2179:../../Middlewares/AI_Runtime/Npu/ll_aton/ll_aton.c ****       t = ATON_ARITH_ADDROFFSET_SET_OFFSET1(0, -(conf->fHeight * conf->fWidth - 1));
2180:../../Middlewares/AI_Runtime/Npu/ll_aton/ll_aton.c ****       ATON_ARITH_ADDROFFSET_SET(id, t);
2181:../../Middlewares/AI_Runtime/Npu/ll_aton/ll_aton.c ****       maxc = conf->fHeight * conf->fWidth;
2182:../../Middlewares/AI_Runtime/Npu/ll_aton/ll_aton.c ****       break;
2183:../../Middlewares/AI_Runtime/Npu/ll_aton/ll_aton.c ****     case ARITH_BCAST_SCALAR:
2184:../../Middlewares/AI_Runtime/Npu/ll_aton/ll_aton.c ****       t = ATON_ARITH_INCCNT_SET_INCVAL(0, 0);
2185:../../Middlewares/AI_Runtime/Npu/ll_aton/ll_aton.c ****       ATON_ARITH_INCCNT_SET(id, t);
2186:../../Middlewares/AI_Runtime/Npu/ll_aton/ll_aton.c **** 
2187:../../Middlewares/AI_Runtime/Npu/ll_aton/ll_aton.c ****       t = ATON_ARITH_INCOFFSET_SET_VAL(0, 0);
2188:../../Middlewares/AI_Runtime/Npu/ll_aton/ll_aton.c ****       ATON_ARITH_INCOFFSET_SET(id, t);
2189:../../Middlewares/AI_Runtime/Npu/ll_aton/ll_aton.c **** 
2190:../../Middlewares/AI_Runtime/Npu/ll_aton/ll_aton.c ****       maxc = 1;
2191:../../Middlewares/AI_Runtime/Npu/ll_aton/ll_aton.c ****       break;
2192:../../Middlewares/AI_Runtime/Npu/ll_aton/ll_aton.c ****     default:
2193:../../Middlewares/AI_Runtime/Npu/ll_aton/ll_aton.c ****       return LL_ATON_INVALID_PARAM;
2194:../../Middlewares/AI_Runtime/Npu/ll_aton/ll_aton.c ****     }
2195:../../Middlewares/AI_Runtime/Npu/ll_aton/ll_aton.c **** 
2196:../../Middlewares/AI_Runtime/Npu/ll_aton/ll_aton.c ****     maxc = (maxc > 512 ? 512 : maxc);
2197:../../Middlewares/AI_Runtime/Npu/ll_aton/ll_aton.c ****     int i, k;
2198:../../Middlewares/AI_Runtime/Npu/ll_aton/ll_aton.c ****     uint32_t *Ap = (uint32_t *)conf->A_vector.p;
2199:../../Middlewares/AI_Runtime/Npu/ll_aton/ll_aton.c ****     uint32_t *Bp = (uint32_t *)conf->B_vector.p;
2200:../../Middlewares/AI_Runtime/Npu/ll_aton/ll_aton.c ****     uint32_t *Cp = (uint32_t *)conf->C_vector.p;
2201:../../Middlewares/AI_Runtime/Npu/ll_aton/ll_aton.c ****     int nbits_A = conf->vec_precision[0];
2202:../../Middlewares/AI_Runtime/Npu/ll_aton/ll_aton.c ****     int nbits_B = conf->vec_precision[1];
2203:../../Middlewares/AI_Runtime/Npu/ll_aton/ll_aton.c ****     int nbits_C = conf->vec_precision[2];
2204:../../Middlewares/AI_Runtime/Npu/ll_aton/ll_aton.c ****     int bitcnt_A = 0;
2205:../../Middlewares/AI_Runtime/Npu/ll_aton/ll_aton.c ****     int bitcnt_B = 0;
2206:../../Middlewares/AI_Runtime/Npu/ll_aton/ll_aton.c ****     int bitcnt_C = 0;
2207:../../Middlewares/AI_Runtime/Npu/ll_aton/ll_aton.c ****     int mem_idx_num = ATON_ARITH_COEFF_AB_IDX_MAX - ATON_ARITH_COEFF_AB_IDX_MIN + 1;
2208:../../Middlewares/AI_Runtime/Npu/ll_aton/ll_aton.c **** 
2209:../../Middlewares/AI_Runtime/Npu/ll_aton/ll_aton.c ****     int32_t c_sign = (conf->C_scalar == -1 ? -1 : 1);
2210:../../Middlewares/AI_Runtime/Npu/ll_aton/ll_aton.c **** #if (LL_ATON_PLATFORM == LL_ATON_PLAT_EC_TRACE)
2211:../../Middlewares/AI_Runtime/Npu/ll_aton/ll_aton.c ****     ec_trace_comment("Block ECASM optimizations to move reg writes pass this point");
2212:../../Middlewares/AI_Runtime/Npu/ll_aton/ll_aton.c **** #endif
2213:../../Middlewares/AI_Runtime/Npu/ll_aton/ll_aton.c ****     ATON_ARITH_TRANSLATEADDR_SET(id, 1); // map 0x400 onto 0x0 offset for coefficients
2214:../../Middlewares/AI_Runtime/Npu/ll_aton/ll_aton.c ****     for (i = 0, k = 0; i < maxc; i++, k++)
2215:../../Middlewares/AI_Runtime/Npu/ll_aton/ll_aton.c ****     {
2216:../../Middlewares/AI_Runtime/Npu/ll_aton/ll_aton.c ****       uint32_t t;
2217:../../Middlewares/AI_Runtime/Npu/ll_aton/ll_aton.c ****       uint32_t A = Ap != NULL ? LL_ATON_getbits(Ap, bitcnt_A, nbits_A) : (uint32_t)conf->A_scalar;
2218:../../Middlewares/AI_Runtime/Npu/ll_aton/ll_aton.c ****       uint32_t B = Bp != NULL ? LL_ATON_getbits(Bp, bitcnt_B, nbits_B) : (uint32_t)conf->B_scalar;
2219:../../Middlewares/AI_Runtime/Npu/ll_aton/ll_aton.c ****       uint32_t C = Cp != NULL ? (c_sign * LL_ATON_getbits(Cp, bitcnt_C, nbits_C)) : (uint32_t)conf-
2220:../../Middlewares/AI_Runtime/Npu/ll_aton/ll_aton.c ****       if (conf->combinebc)
2221:../../Middlewares/AI_Runtime/Npu/ll_aton/ll_aton.c ****       {
2222:../../Middlewares/AI_Runtime/Npu/ll_aton/ll_aton.c ****         B = (C >> 16);
2223:../../Middlewares/AI_Runtime/Npu/ll_aton/ll_aton.c ****         C = (C & 0xFFFF);
2224:../../Middlewares/AI_Runtime/Npu/ll_aton/ll_aton.c ****       }
2225:../../Middlewares/AI_Runtime/Npu/ll_aton/ll_aton.c ****       if (k == mem_idx_num)
2226:../../Middlewares/AI_Runtime/Npu/ll_aton/ll_aton.c ****       {
2227:../../Middlewares/AI_Runtime/Npu/ll_aton/ll_aton.c **** #if (LL_ATON_PLATFORM == LL_ATON_PLAT_EC_TRACE)
2228:../../Middlewares/AI_Runtime/Npu/ll_aton/ll_aton.c ****         ec_trace_comment("Block ECASM optimizations to move reg writes pass this point");
2229:../../Middlewares/AI_Runtime/Npu/ll_aton/ll_aton.c **** #endif
2230:../../Middlewares/AI_Runtime/Npu/ll_aton/ll_aton.c ****         ATON_ARITH_TRANSLATEADDR_SET(id, 0); // map 0xC00 onto 0xC00 offset for coefficients
2231:../../Middlewares/AI_Runtime/Npu/ll_aton/ll_aton.c ****         k -= (256 / 2);
2232:../../Middlewares/AI_Runtime/Npu/ll_aton/ll_aton.c ****       }
2233:../../Middlewares/AI_Runtime/Npu/ll_aton/ll_aton.c ****       t = ATON_ARITH_COEFF_AB_DT;
2234:../../Middlewares/AI_Runtime/Npu/ll_aton/ll_aton.c ****       t = ATON_ARITH_COEFF_AB_SET_A(t, A);
ARM GAS  C:\Users\Antonio\AppData\Local\Temp\ccynTwLp.s 			page 100


2235:../../Middlewares/AI_Runtime/Npu/ll_aton/ll_aton.c ****       t = ATON_ARITH_COEFF_AB_SET_B(t, B);
2236:../../Middlewares/AI_Runtime/Npu/ll_aton/ll_aton.c ****       ATON_ARITH_COEFF_AB_SET(id, k, t);
2237:../../Middlewares/AI_Runtime/Npu/ll_aton/ll_aton.c ****       t = ATON_ARITH_COEFF_C_DT;
2238:../../Middlewares/AI_Runtime/Npu/ll_aton/ll_aton.c ****       t = ATON_ARITH_COEFF_C_SET_C(t, C);
2239:../../Middlewares/AI_Runtime/Npu/ll_aton/ll_aton.c ****       ATON_ARITH_COEFF_C_SET(id, k, t);
2240:../../Middlewares/AI_Runtime/Npu/ll_aton/ll_aton.c **** 
2241:../../Middlewares/AI_Runtime/Npu/ll_aton/ll_aton.c ****       bitcnt_A += nbits_A;
2242:../../Middlewares/AI_Runtime/Npu/ll_aton/ll_aton.c ****       bitcnt_B += nbits_B;
2243:../../Middlewares/AI_Runtime/Npu/ll_aton/ll_aton.c ****       bitcnt_C += nbits_C;
2244:../../Middlewares/AI_Runtime/Npu/ll_aton/ll_aton.c ****     }
2245:../../Middlewares/AI_Runtime/Npu/ll_aton/ll_aton.c ****   }
2246:../../Middlewares/AI_Runtime/Npu/ll_aton/ll_aton.c ****   return 0;
2247:../../Middlewares/AI_Runtime/Npu/ll_aton/ll_aton.c **** }
2248:../../Middlewares/AI_Runtime/Npu/ll_aton/ll_aton.c **** #endif // ATON_ARITH_NUM
2249:../../Middlewares/AI_Runtime/Npu/ll_aton/ll_aton.c **** 
2250:../../Middlewares/AI_Runtime/Npu/ll_aton/ll_aton.c **** #ifdef ATON_POOL_NUM
2251:../../Middlewares/AI_Runtime/Npu/ll_aton/ll_aton.c **** 
2252:../../Middlewares/AI_Runtime/Npu/ll_aton/ll_aton.c **** static int32_t get_Poolacc_type(LL_Poolacc_Op op)
2253:../../Middlewares/AI_Runtime/Npu/ll_aton/ll_aton.c **** {
2254:../../Middlewares/AI_Runtime/Npu/ll_aton/ll_aton.c ****   switch (op)
2255:../../Middlewares/AI_Runtime/Npu/ll_aton/ll_aton.c ****   {
2256:../../Middlewares/AI_Runtime/Npu/ll_aton/ll_aton.c ****   case POOL_MAX:
2257:../../Middlewares/AI_Runtime/Npu/ll_aton/ll_aton.c ****     return ATON_POOLTYPE_MAX_POOLING;
2258:../../Middlewares/AI_Runtime/Npu/ll_aton/ll_aton.c ****   case POOL_MIN:
2259:../../Middlewares/AI_Runtime/Npu/ll_aton/ll_aton.c ****     return ATON_POOLTYPE_MIN_POOLING;
2260:../../Middlewares/AI_Runtime/Npu/ll_aton/ll_aton.c ****   case POOL_AVG:
2261:../../Middlewares/AI_Runtime/Npu/ll_aton/ll_aton.c ****     return ATON_POOLTYPE_AVG_POOLING;
2262:../../Middlewares/AI_Runtime/Npu/ll_aton/ll_aton.c ****   case POOL_GMAX:
2263:../../Middlewares/AI_Runtime/Npu/ll_aton/ll_aton.c ****     return ATON_POOLTYPE_GMAX_POOLING;
2264:../../Middlewares/AI_Runtime/Npu/ll_aton/ll_aton.c ****   case POOL_GMIN:
2265:../../Middlewares/AI_Runtime/Npu/ll_aton/ll_aton.c ****     return ATON_POOLTYPE_GMIN_POOLING;
2266:../../Middlewares/AI_Runtime/Npu/ll_aton/ll_aton.c ****   case POOL_GAVG:
2267:../../Middlewares/AI_Runtime/Npu/ll_aton/ll_aton.c ****     return ATON_POOLTYPE_GAVG_POOLING;
2268:../../Middlewares/AI_Runtime/Npu/ll_aton/ll_aton.c ****   default:
2269:../../Middlewares/AI_Runtime/Npu/ll_aton/ll_aton.c ****     break;
2270:../../Middlewares/AI_Runtime/Npu/ll_aton/ll_aton.c ****   }
2271:../../Middlewares/AI_Runtime/Npu/ll_aton/ll_aton.c ****   LL_ATON_ASSERT(0);
2272:../../Middlewares/AI_Runtime/Npu/ll_aton/ll_aton.c ****   return 0;
2273:../../Middlewares/AI_Runtime/Npu/ll_aton/ll_aton.c **** }
2274:../../Middlewares/AI_Runtime/Npu/ll_aton/ll_aton.c **** 
2275:../../Middlewares/AI_Runtime/Npu/ll_aton/ll_aton.c **** /**
2276:../../Middlewares/AI_Runtime/Npu/ll_aton/ll_aton.c ****  * @brief  Configure Pooling Accelerator
2277:../../Middlewares/AI_Runtime/Npu/ll_aton/ll_aton.c ****  * @param  id Pooling Accelerator identifier [0..ATON_POOL_NUM-1]
2278:../../Middlewares/AI_Runtime/Npu/ll_aton/ll_aton.c ****  * @param  Poolacc_InitStruct Structure describing initialization parameters
2279:../../Middlewares/AI_Runtime/Npu/ll_aton/ll_aton.c ****  * @retval Error code E.g.: Invalid ID, invalid parameters, not idle,..
2280:../../Middlewares/AI_Runtime/Npu/ll_aton/ll_aton.c ****  */
2281:../../Middlewares/AI_Runtime/Npu/ll_aton/ll_aton.c **** int LL_Poolacc_Init(int id, const LL_Poolacc_InitTypeDef *conf)
2282:../../Middlewares/AI_Runtime/Npu/ll_aton/ll_aton.c **** {
2283:../../Middlewares/AI_Runtime/Npu/ll_aton/ll_aton.c ****   uint32_t t;
2284:../../Middlewares/AI_Runtime/Npu/ll_aton/ll_aton.c **** 
2285:../../Middlewares/AI_Runtime/Npu/ll_aton/ll_aton.c ****   if (id >= ATON_POOL_NUM)
2286:../../Middlewares/AI_Runtime/Npu/ll_aton/ll_aton.c ****     return LL_ATON_INVALID_ID;
2287:../../Middlewares/AI_Runtime/Npu/ll_aton/ll_aton.c **** 
2288:../../Middlewares/AI_Runtime/Npu/ll_aton/ll_aton.c ****   LL_ATON_EnableClock(ATON_POOL_CLKB_CLK(id));
2289:../../Middlewares/AI_Runtime/Npu/ll_aton/ll_aton.c **** 
2290:../../Middlewares/AI_Runtime/Npu/ll_aton/ll_aton.c **** #ifdef POOL_RC14
2291:../../Middlewares/AI_Runtime/Npu/ll_aton/ll_aton.c ****   /* Clear pipeline */
ARM GAS  C:\Users\Antonio\AppData\Local\Temp\ccynTwLp.s 			page 101


2292:../../Middlewares/AI_Runtime/Npu/ll_aton/ll_aton.c ****   t = ATON_POOL_CTRL_GET(id);
2293:../../Middlewares/AI_Runtime/Npu/ll_aton/ll_aton.c ****   t = ATON_POOL_CTRL_SET_EN(t, 0);
2294:../../Middlewares/AI_Runtime/Npu/ll_aton/ll_aton.c ****   t = ATON_POOL_CTRL_SET_CLR(t, 1);
2295:../../Middlewares/AI_Runtime/Npu/ll_aton/ll_aton.c ****   t = ATON_POOL_CTRL_SET_CONFCLR(t, 1);
2296:../../Middlewares/AI_Runtime/Npu/ll_aton/ll_aton.c ****   ATON_POOL_CTRL_SET(id, t);
2297:../../Middlewares/AI_Runtime/Npu/ll_aton/ll_aton.c **** #endif // POOL_RC14
2298:../../Middlewares/AI_Runtime/Npu/ll_aton/ll_aton.c **** 
2299:../../Middlewares/AI_Runtime/Npu/ll_aton/ll_aton.c ****   /* Initialize CTRL register parameters */
2300:../../Middlewares/AI_Runtime/Npu/ll_aton/ll_aton.c ****   t = ATON_POOL_CTRL_DT;
2301:../../Middlewares/AI_Runtime/Npu/ll_aton/ll_aton.c ****   t = ATON_POOL_CTRL_SET_TYPE(t, get_Poolacc_type(conf->operation));
2302:../../Middlewares/AI_Runtime/Npu/ll_aton/ll_aton.c ****   t = ATON_POOL_CTRL_SET_ROUND(t, (conf->rounding_o != 0));
2303:../../Middlewares/AI_Runtime/Npu/ll_aton/ll_aton.c ****   t = ATON_POOL_CTRL_SET_SAT(t, (conf->saturation_o != 0));
2304:../../Middlewares/AI_Runtime/Npu/ll_aton/ll_aton.c ****   t = ATON_POOL_CTRL_SET_OUTSHIFT(t, conf->shift_o);
2305:../../Middlewares/AI_Runtime/Npu/ll_aton/ll_aton.c ****   t = ATON_POOL_CTRL_SET_FBYTES(t, conf->inbytes_f);
2306:../../Middlewares/AI_Runtime/Npu/ll_aton/ll_aton.c ****   t = ATON_POOL_CTRL_SET_FSHIFT(t, ATON_SHIFT(conf->shift_f));
2307:../../Middlewares/AI_Runtime/Npu/ll_aton/ll_aton.c ****   t = ATON_POOL_CTRL_SET_FROUND(t, (conf->rounding_f != 0));
2308:../../Middlewares/AI_Runtime/Npu/ll_aton/ll_aton.c ****   t = ATON_POOL_CTRL_SET_FSAT(t, (conf->saturation_f != 0));
2309:../../Middlewares/AI_Runtime/Npu/ll_aton/ll_aton.c **** #ifdef ATON_POOL_CTRL_SET_AVGNOPAD
2310:../../Middlewares/AI_Runtime/Npu/ll_aton/ll_aton.c ****   t = ATON_POOL_CTRL_SET_AVGNOPAD(t, (conf->avgnopad != 0));
2311:../../Middlewares/AI_Runtime/Npu/ll_aton/ll_aton.c **** #endif
2312:../../Middlewares/AI_Runtime/Npu/ll_aton/ll_aton.c ****   t = ATON_POOL_CTRL_SET_DUALLINE(t, conf->dualLine);
2313:../../Middlewares/AI_Runtime/Npu/ll_aton/ll_aton.c **** #if 0
2314:../../Middlewares/AI_Runtime/Npu/ll_aton/ll_aton.c ****   int crop_en = ((conf->leftCrop > 0) || (conf->rightCrop > 0) || (conf->topCrop > 0) || (conf->bot
2315:../../Middlewares/AI_Runtime/Npu/ll_aton/ll_aton.c **** #else
2316:../../Middlewares/AI_Runtime/Npu/ll_aton/ll_aton.c ****   int crop_en = 1;
2317:../../Middlewares/AI_Runtime/Npu/ll_aton/ll_aton.c **** #endif
2318:../../Middlewares/AI_Runtime/Npu/ll_aton/ll_aton.c ****   t = ATON_POOL_CTRL_SET_CROPEN(t, crop_en);
2319:../../Middlewares/AI_Runtime/Npu/ll_aton/ll_aton.c ****   ATON_POOL_CTRL_SET(id, t);
2320:../../Middlewares/AI_Runtime/Npu/ll_aton/ll_aton.c **** 
2321:../../Middlewares/AI_Runtime/Npu/ll_aton/ll_aton.c ****   /* configure remaining in/out shifters */
2322:../../Middlewares/AI_Runtime/Npu/ll_aton/ll_aton.c ****   t = ATON_POOL_RNDCTRL_DT;
2323:../../Middlewares/AI_Runtime/Npu/ll_aton/ll_aton.c ****   t = ATON_POOL_RNDCTRL_SET_FOBYTES(t, conf->outbytes_f);
2324:../../Middlewares/AI_Runtime/Npu/ll_aton/ll_aton.c ****   t = ATON_POOL_RNDCTRL_SET_FRNDMODE(t, conf->round_mode_f);
2325:../../Middlewares/AI_Runtime/Npu/ll_aton/ll_aton.c ****   t = ATON_POOL_RNDCTRL_SET_OBYTES(t, conf->outbytes_o);
2326:../../Middlewares/AI_Runtime/Npu/ll_aton/ll_aton.c ****   t = ATON_POOL_RNDCTRL_SET_ORNDMODE(t, (conf->relu_mode_o << 1) | conf->round_mode_o);
2327:../../Middlewares/AI_Runtime/Npu/ll_aton/ll_aton.c ****   ATON_POOL_RNDCTRL_SET(id, t);
2328:../../Middlewares/AI_Runtime/Npu/ll_aton/ll_aton.c **** 
2329:../../Middlewares/AI_Runtime/Npu/ll_aton/ll_aton.c ****   /* Configure Pooling unit dimensions register */
2330:../../Middlewares/AI_Runtime/Npu/ll_aton/ll_aton.c ****   t = ATON_POOL_PDIMS_DT;
2331:../../Middlewares/AI_Runtime/Npu/ll_aton/ll_aton.c ****   t = ATON_POOL_PDIMS_SET_WINX(t, conf->poolWinX);
2332:../../Middlewares/AI_Runtime/Npu/ll_aton/ll_aton.c ****   t = ATON_POOL_PDIMS_SET_WINY(t, conf->poolWinY);
2333:../../Middlewares/AI_Runtime/Npu/ll_aton/ll_aton.c ****   t = ATON_POOL_PDIMS_SET_STRDX(t, conf->strideX);
2334:../../Middlewares/AI_Runtime/Npu/ll_aton/ll_aton.c ****   t = ATON_POOL_PDIMS_SET_STRDY(t, conf->strideY);
2335:../../Middlewares/AI_Runtime/Npu/ll_aton/ll_aton.c ****   t = ATON_POOL_PDIMS_SET_TPAD(t, conf->topPad);
2336:../../Middlewares/AI_Runtime/Npu/ll_aton/ll_aton.c ****   t = ATON_POOL_PDIMS_SET_BPAD(t, conf->bottomPad);
2337:../../Middlewares/AI_Runtime/Npu/ll_aton/ll_aton.c ****   t = ATON_POOL_PDIMS_SET_LPAD(t, conf->leftPad);
2338:../../Middlewares/AI_Runtime/Npu/ll_aton/ll_aton.c ****   t = ATON_POOL_PDIMS_SET_RPAD(t, conf->rightPad);
2339:../../Middlewares/AI_Runtime/Npu/ll_aton/ll_aton.c ****   t = ATON_POOL_PDIMS_SET_BSIZE(t, conf->batchSize);
2340:../../Middlewares/AI_Runtime/Npu/ll_aton/ll_aton.c ****   ATON_POOL_PDIMS_SET(id, t);
2341:../../Middlewares/AI_Runtime/Npu/ll_aton/ll_aton.c **** 
2342:../../Middlewares/AI_Runtime/Npu/ll_aton/ll_aton.c ****   /* Configure Pooling unit FDIMS register */
2343:../../Middlewares/AI_Runtime/Npu/ll_aton/ll_aton.c ****   t = ATON_POOL_FDIMS_DT;
2344:../../Middlewares/AI_Runtime/Npu/ll_aton/ll_aton.c ****   t = ATON_POOL_FDIMS_SET_FEATX(t, conf->inputX * conf->batchSize);
2345:../../Middlewares/AI_Runtime/Npu/ll_aton/ll_aton.c ****   t = ATON_POOL_FDIMS_SET_FEATY(t, conf->inputY);
2346:../../Middlewares/AI_Runtime/Npu/ll_aton/ll_aton.c ****   ATON_POOL_FDIMS_SET(id, t);
2347:../../Middlewares/AI_Runtime/Npu/ll_aton/ll_aton.c **** 
2348:../../Middlewares/AI_Runtime/Npu/ll_aton/ll_aton.c ****   /* Configure Pooling unit OUTDIMS register */
ARM GAS  C:\Users\Antonio\AppData\Local\Temp\ccynTwLp.s 			page 102


2349:../../Middlewares/AI_Runtime/Npu/ll_aton/ll_aton.c ****   t = ATON_POOL_OUTDIMS_DT;
2350:../../Middlewares/AI_Runtime/Npu/ll_aton/ll_aton.c ****   t = ATON_POOL_OUTDIMS_SET_FEATX(t, conf->outputX);
2351:../../Middlewares/AI_Runtime/Npu/ll_aton/ll_aton.c ****   t = ATON_POOL_OUTDIMS_SET_FEATY(t, conf->outputY);
2352:../../Middlewares/AI_Runtime/Npu/ll_aton/ll_aton.c ****   ATON_POOL_OUTDIMS_SET(id, t);
2353:../../Middlewares/AI_Runtime/Npu/ll_aton/ll_aton.c **** 
2354:../../Middlewares/AI_Runtime/Npu/ll_aton/ll_aton.c ****   /* Configure mulval */
2355:../../Middlewares/AI_Runtime/Npu/ll_aton/ll_aton.c ****   t = ATON_POOL_MULVAL_DT;
2356:../../Middlewares/AI_Runtime/Npu/ll_aton/ll_aton.c ****   t = ATON_POOL_MULVAL_SET_MULVAL(t, conf->mulval);
2357:../../Middlewares/AI_Runtime/Npu/ll_aton/ll_aton.c ****   ATON_POOL_MULVAL_SET(id, t);
2358:../../Middlewares/AI_Runtime/Npu/ll_aton/ll_aton.c **** 
2359:../../Middlewares/AI_Runtime/Npu/ll_aton/ll_aton.c ****   /* Mulval is scattered across different registers from V3 onwards. TODO: use ATON.h macros */
2360:../../Middlewares/AI_Runtime/Npu/ll_aton/ll_aton.c **** #if (ATON_POOL_VERSION_MAJOR_DT >= 3)
2361:../../Middlewares/AI_Runtime/Npu/ll_aton/ll_aton.c ****   unsigned int wsize = conf->poolWinX * conf->poolWinY;
2362:../../Middlewares/AI_Runtime/Npu/ll_aton/ll_aton.c ****   if (wsize > 0 && wsize < 9)
2363:../../Middlewares/AI_Runtime/Npu/ll_aton/ll_aton.c ****   {
2364:../../Middlewares/AI_Runtime/Npu/ll_aton/ll_aton.c ****     uint32_t *mulval_addr = (uint32_t *)ATON_POOL_MULVAL_1_2_ADDR(id);
2365:../../Middlewares/AI_Runtime/Npu/ll_aton/ll_aton.c ****     wsize--;
2366:../../Middlewares/AI_Runtime/Npu/ll_aton/ll_aton.c ****     mulval_addr += (wsize / 2);
2367:../../Middlewares/AI_Runtime/Npu/ll_aton/ll_aton.c ****     if (wsize & 1)
2368:../../Middlewares/AI_Runtime/Npu/ll_aton/ll_aton.c ****       *mulval_addr |= ((conf->mulval) << 16);
2369:../../Middlewares/AI_Runtime/Npu/ll_aton/ll_aton.c ****     else
2370:../../Middlewares/AI_Runtime/Npu/ll_aton/ll_aton.c ****       *mulval_addr |= conf->mulval;
2371:../../Middlewares/AI_Runtime/Npu/ll_aton/ll_aton.c ****   }
2372:../../Middlewares/AI_Runtime/Npu/ll_aton/ll_aton.c **** #endif
2373:../../Middlewares/AI_Runtime/Npu/ll_aton/ll_aton.c **** 
2374:../../Middlewares/AI_Runtime/Npu/ll_aton/ll_aton.c ****   /* Configure cropping if needed */
2375:../../Middlewares/AI_Runtime/Npu/ll_aton/ll_aton.c ****   t = ATON_POOL_XCROP_DT;
2376:../../Middlewares/AI_Runtime/Npu/ll_aton/ll_aton.c ****   if (conf->leftCrop > 0)
2377:../../Middlewares/AI_Runtime/Npu/ll_aton/ll_aton.c ****     t = ATON_POOL_XCROP_SET_LCROP(t, conf->leftCrop * conf->batchSize);
2378:../../Middlewares/AI_Runtime/Npu/ll_aton/ll_aton.c ****   int r_crop = conf->rightCrop * conf->batchSize + (conf->batchSize - 1);
2379:../../Middlewares/AI_Runtime/Npu/ll_aton/ll_aton.c ****   if (r_crop > 0)
2380:../../Middlewares/AI_Runtime/Npu/ll_aton/ll_aton.c ****     t = ATON_POOL_XCROP_SET_RCROP(t, conf->rightCrop * conf->batchSize + (conf->batchSize - 1));
2381:../../Middlewares/AI_Runtime/Npu/ll_aton/ll_aton.c ****   ATON_POOL_XCROP_SET(id, t);
2382:../../Middlewares/AI_Runtime/Npu/ll_aton/ll_aton.c **** 
2383:../../Middlewares/AI_Runtime/Npu/ll_aton/ll_aton.c ****   t = ATON_POOL_YCROP_DT;
2384:../../Middlewares/AI_Runtime/Npu/ll_aton/ll_aton.c ****   if (conf->topCrop > 0)
2385:../../Middlewares/AI_Runtime/Npu/ll_aton/ll_aton.c ****     t = ATON_POOL_YCROP_SET_TCROP(t, conf->topCrop);
2386:../../Middlewares/AI_Runtime/Npu/ll_aton/ll_aton.c ****   if (conf->bottomCrop > 0)
2387:../../Middlewares/AI_Runtime/Npu/ll_aton/ll_aton.c ****     t = ATON_POOL_YCROP_SET_BCROP(t, conf->bottomCrop);
2388:../../Middlewares/AI_Runtime/Npu/ll_aton/ll_aton.c ****   ATON_POOL_YCROP_SET(id, t);
2389:../../Middlewares/AI_Runtime/Npu/ll_aton/ll_aton.c **** 
2390:../../Middlewares/AI_Runtime/Npu/ll_aton/ll_aton.c **** #ifdef ATON_POOL_USER_PAD_VALUE_SET
2391:../../Middlewares/AI_Runtime/Npu/ll_aton/ll_aton.c ****   if (conf->pad_val_en)
2392:../../Middlewares/AI_Runtime/Npu/ll_aton/ll_aton.c ****   {
2393:../../Middlewares/AI_Runtime/Npu/ll_aton/ll_aton.c ****     t = ATON_POOL_USER_PAD_VALUE_DT;
2394:../../Middlewares/AI_Runtime/Npu/ll_aton/ll_aton.c ****     t = ATON_POOL_USER_PAD_VALUE_SET_PADVAL(t, conf->pad_val);
2395:../../Middlewares/AI_Runtime/Npu/ll_aton/ll_aton.c ****     t = ATON_POOL_USER_PAD_VALUE_SET_PADVALEN(t, 1);
2396:../../Middlewares/AI_Runtime/Npu/ll_aton/ll_aton.c ****     ATON_POOL_USER_PAD_VALUE_SET(id, t);
2397:../../Middlewares/AI_Runtime/Npu/ll_aton/ll_aton.c ****   }
2398:../../Middlewares/AI_Runtime/Npu/ll_aton/ll_aton.c **** #endif
2399:../../Middlewares/AI_Runtime/Npu/ll_aton/ll_aton.c **** 
2400:../../Middlewares/AI_Runtime/Npu/ll_aton/ll_aton.c ****   return 0;
2401:../../Middlewares/AI_Runtime/Npu/ll_aton/ll_aton.c **** }
2402:../../Middlewares/AI_Runtime/Npu/ll_aton/ll_aton.c **** #endif // ATON_POOL_NUM
2403:../../Middlewares/AI_Runtime/Npu/ll_aton/ll_aton.c **** 
2404:../../Middlewares/AI_Runtime/Npu/ll_aton/ll_aton.c **** #if defined(ATON_EPOCHCTRL_NUM)
2405:../../Middlewares/AI_Runtime/Npu/ll_aton/ll_aton.c **** /**
ARM GAS  C:\Users\Antonio\AppData\Local\Temp\ccynTwLp.s 			page 103


2406:../../Middlewares/AI_Runtime/Npu/ll_aton/ll_aton.c ****  * @brief  Configure Epoch Controller
2407:../../Middlewares/AI_Runtime/Npu/ll_aton/ll_aton.c ****  * @param  id Epoch Controller identifier [0..ATON_EPOCHCTRL_NUM-1]
2408:../../Middlewares/AI_Runtime/Npu/ll_aton/ll_aton.c ****  * @param  conf Structure describing Epoch Controller initialization parameters
2409:../../Middlewares/AI_Runtime/Npu/ll_aton/ll_aton.c ****  * @retval Error code
2410:../../Middlewares/AI_Runtime/Npu/ll_aton/ll_aton.c ****  */
2411:../../Middlewares/AI_Runtime/Npu/ll_aton/ll_aton.c **** int LL_EpochCtrl_Init(int id, const LL_EpochCtrl_InitTypeDef *conf)
2412:../../Middlewares/AI_Runtime/Npu/ll_aton/ll_aton.c **** {
2413:../../Middlewares/AI_Runtime/Npu/ll_aton/ll_aton.c ****   uint32_t t;
2414:../../Middlewares/AI_Runtime/Npu/ll_aton/ll_aton.c **** 
2415:../../Middlewares/AI_Runtime/Npu/ll_aton/ll_aton.c ****   if (id >= ATON_EPOCHCTRL_NUM)
2416:../../Middlewares/AI_Runtime/Npu/ll_aton/ll_aton.c ****     return LL_ATON_INVALID_ID;
2417:../../Middlewares/AI_Runtime/Npu/ll_aton/ll_aton.c **** 
2418:../../Middlewares/AI_Runtime/Npu/ll_aton/ll_aton.c ****   LL_ATON_EnableClock(ATON_EPOCHCTRL_CLKB_CLK(id));
2419:../../Middlewares/AI_Runtime/Npu/ll_aton/ll_aton.c **** 
2420:../../Middlewares/AI_Runtime/Npu/ll_aton/ll_aton.c ****   /* Configure CTRL register */
2421:../../Middlewares/AI_Runtime/Npu/ll_aton/ll_aton.c ****   t = ATON_EPOCHCTRL_CTRL_DT;
2422:../../Middlewares/AI_Runtime/Npu/ll_aton/ll_aton.c ****   t = ATON_EPOCHCTRL_CTRL_SET_SM(t, conf->stepmode);
2423:../../Middlewares/AI_Runtime/Npu/ll_aton/ll_aton.c ****   ATON_EPOCHCTRL_CTRL_SET(id, t);
2424:../../Middlewares/AI_Runtime/Npu/ll_aton/ll_aton.c **** 
2425:../../Middlewares/AI_Runtime/Npu/ll_aton/ll_aton.c ****   /* Check address is 8 byte aligned */
2426:../../Middlewares/AI_Runtime/Npu/ll_aton/ll_aton.c ****   if (conf->blobaddr & 0x7)
2427:../../Middlewares/AI_Runtime/Npu/ll_aton/ll_aton.c ****     return LL_ATON_INVALID_PARAM;
2428:../../Middlewares/AI_Runtime/Npu/ll_aton/ll_aton.c **** 
2429:../../Middlewares/AI_Runtime/Npu/ll_aton/ll_aton.c ****   ATON_EPOCHCTRL_ADDR_SET(id, conf->blobaddr);
2430:../../Middlewares/AI_Runtime/Npu/ll_aton/ll_aton.c **** 
2431:../../Middlewares/AI_Runtime/Npu/ll_aton/ll_aton.c ****   return LL_ATON_OK;
2432:../../Middlewares/AI_Runtime/Npu/ll_aton/ll_aton.c **** }
2433:../../Middlewares/AI_Runtime/Npu/ll_aton/ll_aton.c **** 
2434:../../Middlewares/AI_Runtime/Npu/ll_aton/ll_aton.c **** /**
2435:../../Middlewares/AI_Runtime/Npu/ll_aton/ll_aton.c ****  * @brief  Trigger Epoch Controller Single Step execution
2436:../../Middlewares/AI_Runtime/Npu/ll_aton/ll_aton.c ****  * @param  id Epoch Controller identifier [0..ATON_EPOCHCTRL_NUM-1]
2437:../../Middlewares/AI_Runtime/Npu/ll_aton/ll_aton.c ****  * @retval Error code
2438:../../Middlewares/AI_Runtime/Npu/ll_aton/ll_aton.c ****  */
2439:../../Middlewares/AI_Runtime/Npu/ll_aton/ll_aton.c **** int LL_EpochCtrl_Step(int id)
2440:../../Middlewares/AI_Runtime/Npu/ll_aton/ll_aton.c **** {
 2648              		.loc 1 2440 1 view -0
 2649              		.cfi_startproc
 2650              		@ args = 0, pretend = 0, frame = 0
 2651              		@ frame_needed = 0, uses_anonymous_args = 0
 2652              		@ link register save eliminated.
2441:../../Middlewares/AI_Runtime/Npu/ll_aton/ll_aton.c ****   uint32_t t;
 2653              		.loc 1 2441 3 view .LVU767
2442:../../Middlewares/AI_Runtime/Npu/ll_aton/ll_aton.c **** 
2443:../../Middlewares/AI_Runtime/Npu/ll_aton/ll_aton.c ****   t = ATON_EPOCHCTRL_IRQ_GET(id);
 2654              		.loc 1 2443 3 view .LVU768
 2655              		.loc 1 2443 5 is_stmt 0 view .LVU769
 2656 0000 034A     		ldr	r2, .L224
2444:../../Middlewares/AI_Runtime/Npu/ll_aton/ll_aton.c ****   t = ATON_EPOCHCTRL_IRQ_SET_SM(t, 1);
2445:../../Middlewares/AI_Runtime/Npu/ll_aton/ll_aton.c ****   ATON_EPOCHCTRL_IRQ_SET(id, t);
2446:../../Middlewares/AI_Runtime/Npu/ll_aton/ll_aton.c **** 
2447:../../Middlewares/AI_Runtime/Npu/ll_aton/ll_aton.c ****   return 0;
2448:../../Middlewares/AI_Runtime/Npu/ll_aton/ll_aton.c **** }
 2657              		.loc 1 2448 1 view .LVU770
 2658 0002 0020     		movs	r0, #0
 2659              	.LVL291:
2443:../../Middlewares/AI_Runtime/Npu/ll_aton/ll_aton.c ****   t = ATON_EPOCHCTRL_IRQ_SET_SM(t, 1);
 2660              		.loc 1 2443 5 view .LVU771
ARM GAS  C:\Users\Antonio\AppData\Local\Temp\ccynTwLp.s 			page 104


 2661 0004 D368     		ldr	r3, [r2, #12]
 2662              	.LVL292:
2444:../../Middlewares/AI_Runtime/Npu/ll_aton/ll_aton.c ****   t = ATON_EPOCHCTRL_IRQ_SET_SM(t, 1);
 2663              		.loc 1 2444 3 is_stmt 1 view .LVU772
2444:../../Middlewares/AI_Runtime/Npu/ll_aton/ll_aton.c ****   t = ATON_EPOCHCTRL_IRQ_SET_SM(t, 1);
 2664              		.loc 1 2444 5 is_stmt 0 view .LVU773
 2665 0006 43F48033 		orr	r3, r3, #65536
 2666              	.LVL293:
2445:../../Middlewares/AI_Runtime/Npu/ll_aton/ll_aton.c **** 
 2667              		.loc 1 2445 3 is_stmt 1 view .LVU774
2445:../../Middlewares/AI_Runtime/Npu/ll_aton/ll_aton.c **** 
 2668              		.loc 1 2445 3 view .LVU775
 2669 000a D360     		str	r3, [r2, #12]
2445:../../Middlewares/AI_Runtime/Npu/ll_aton/ll_aton.c **** 
 2670              		.loc 1 2445 3 view .LVU776
2445:../../Middlewares/AI_Runtime/Npu/ll_aton/ll_aton.c **** 
 2671              		.loc 1 2445 32 view .LVU777
2447:../../Middlewares/AI_Runtime/Npu/ll_aton/ll_aton.c **** }
 2672              		.loc 1 2447 3 view .LVU778
 2673              		.loc 1 2448 1 is_stmt 0 view .LVU779
 2674 000c 7047     		bx	lr
 2675              	.L225:
 2676 000e 00BF     		.align	2
 2677              	.L224:
 2678 0010 00E00F58 		.word	1477435392
 2679              		.cfi_endproc
 2680              	.LFE4849:
 2682              		.section	.text.LL_EpochCtrl_Wait,"ax",%progbits
 2683              		.align	1
 2684              		.global	LL_EpochCtrl_Wait
 2685              		.syntax unified
 2686              		.thumb
 2687              		.thumb_func
 2689              	LL_EpochCtrl_Wait:
 2690              	.LVL294:
 2691              	.LFB4850:
2449:../../Middlewares/AI_Runtime/Npu/ll_aton/ll_aton.c **** 
2450:../../Middlewares/AI_Runtime/Npu/ll_aton/ll_aton.c **** /**
2451:../../Middlewares/AI_Runtime/Npu/ll_aton/ll_aton.c ****  * @brief  Waits for epoch controller to become idle
2452:../../Middlewares/AI_Runtime/Npu/ll_aton/ll_aton.c ****  * @param  id Bitmask of EC identifiers
2453:../../Middlewares/AI_Runtime/Npu/ll_aton/ll_aton.c ****  * @retval Error code
2454:../../Middlewares/AI_Runtime/Npu/ll_aton/ll_aton.c ****  */
2455:../../Middlewares/AI_Runtime/Npu/ll_aton/ll_aton.c **** int LL_EpochCtrl_Wait(uint32_t mask)
2456:../../Middlewares/AI_Runtime/Npu/ll_aton/ll_aton.c **** {
 2692              		.loc 1 2456 1 is_stmt 1 view -0
 2693              		.cfi_startproc
 2694              		@ args = 0, pretend = 0, frame = 0
 2695              		@ frame_needed = 0, uses_anonymous_args = 0
2457:../../Middlewares/AI_Runtime/Npu/ll_aton/ll_aton.c ****   int i;
 2696              		.loc 1 2457 3 view .LVU781
2458:../../Middlewares/AI_Runtime/Npu/ll_aton/ll_aton.c ****   uint32_t enableFlags;
 2697              		.loc 1 2458 3 view .LVU782
2459:../../Middlewares/AI_Runtime/Npu/ll_aton/ll_aton.c **** 
2460:../../Middlewares/AI_Runtime/Npu/ll_aton/ll_aton.c ****   startWatchdog(ATON_EPOCH_TIMEOUT);
 2698              		.loc 1 2460 3 view .LVU783
2456:../../Middlewares/AI_Runtime/Npu/ll_aton/ll_aton.c ****   int i;
 2699              		.loc 1 2456 1 is_stmt 0 view .LVU784
ARM GAS  C:\Users\Antonio\AppData\Local\Temp\ccynTwLp.s 			page 105


 2700 0000 70B5     		push	{r4, r5, r6, lr}
 2701              		.cfi_def_cfa_offset 16
 2702              		.cfi_offset 4, -16
 2703              		.cfi_offset 5, -12
 2704              		.cfi_offset 6, -8
 2705              		.cfi_offset 14, -4
2456:../../Middlewares/AI_Runtime/Npu/ll_aton/ll_aton.c ****   int i;
 2706              		.loc 1 2456 1 view .LVU785
 2707 0002 0446     		mov	r4, r0
 2708              		.loc 1 2460 3 view .LVU786
 2709 0004 0B48     		ldr	r0, .L234
 2710              	.LVL295:
 2711              		.loc 1 2460 3 view .LVU787
 2712 0006 FFF7FEFF 		bl	startWatchdog
 2713              	.LVL296:
2461:../../Middlewares/AI_Runtime/Npu/ll_aton/ll_aton.c **** 
2462:../../Middlewares/AI_Runtime/Npu/ll_aton/ll_aton.c ****   do
2463:../../Middlewares/AI_Runtime/Npu/ll_aton/ll_aton.c ****   {
2464:../../Middlewares/AI_Runtime/Npu/ll_aton/ll_aton.c ****     enableFlags = 0;
2465:../../Middlewares/AI_Runtime/Npu/ll_aton/ll_aton.c ****     for (i = 0; i < ATON_EPOCHCTRL_NUM; i++)
2466:../../Middlewares/AI_Runtime/Npu/ll_aton/ll_aton.c ****     {
2467:../../Middlewares/AI_Runtime/Npu/ll_aton/ll_aton.c ****       if (mask & (1 << i))
2468:../../Middlewares/AI_Runtime/Npu/ll_aton/ll_aton.c ****       {
2469:../../Middlewares/AI_Runtime/Npu/ll_aton/ll_aton.c ****         enableFlags |= (ATON_EPOCHCTRL_CTRL_GET(i) & (1U << ATON_EPOCHCTRL_CTRL_RUNNING_LSB));
 2714              		.loc 1 2469 25 view .LVU788
 2715 000a 0B4E     		ldr	r6, .L234+4
2467:../../Middlewares/AI_Runtime/Npu/ll_aton/ll_aton.c ****       {
 2716              		.loc 1 2467 16 view .LVU789
 2717 000c 04F00104 		and	r4, r4, #1
 2718              	.LVL297:
 2719              	.L229:
2462:../../Middlewares/AI_Runtime/Npu/ll_aton/ll_aton.c ****   {
 2720              		.loc 1 2462 3 is_stmt 1 view .LVU790
2464:../../Middlewares/AI_Runtime/Npu/ll_aton/ll_aton.c ****     for (i = 0; i < ATON_EPOCHCTRL_NUM; i++)
 2721              		.loc 1 2464 5 view .LVU791
2465:../../Middlewares/AI_Runtime/Npu/ll_aton/ll_aton.c ****     {
 2722              		.loc 1 2465 5 view .LVU792
2465:../../Middlewares/AI_Runtime/Npu/ll_aton/ll_aton.c ****     {
 2723              		.loc 1 2465 19 discriminator 1 view .LVU793
2467:../../Middlewares/AI_Runtime/Npu/ll_aton/ll_aton.c ****       {
 2724              		.loc 1 2467 7 view .LVU794
2467:../../Middlewares/AI_Runtime/Npu/ll_aton/ll_aton.c ****       {
 2725              		.loc 1 2467 16 is_stmt 0 view .LVU795
 2726 0010 2546     		mov	r5, r4
2467:../../Middlewares/AI_Runtime/Npu/ll_aton/ll_aton.c ****       {
 2727              		.loc 1 2467 10 view .LVU796
 2728 0012 14B1     		cbz	r4, .L227
 2729              		.loc 1 2469 9 is_stmt 1 view .LVU797
 2730              		.loc 1 2469 25 is_stmt 0 view .LVU798
 2731 0014 3568     		ldr	r5, [r6]
 2732              		.loc 1 2469 52 view .LVU799
 2733 0016 05F00045 		and	r5, r5, #-2147483648
 2734              	.LVL298:
2465:../../Middlewares/AI_Runtime/Npu/ll_aton/ll_aton.c ****     {
 2735              		.loc 1 2465 19 is_stmt 1 discriminator 1 view .LVU800
 2736              	.L227:
2470:../../Middlewares/AI_Runtime/Npu/ll_aton/ll_aton.c ****       }
ARM GAS  C:\Users\Antonio\AppData\Local\Temp\ccynTwLp.s 			page 106


2471:../../Middlewares/AI_Runtime/Npu/ll_aton/ll_aton.c ****     }
2472:../../Middlewares/AI_Runtime/Npu/ll_aton/ll_aton.c **** 
2473:../../Middlewares/AI_Runtime/Npu/ll_aton/ll_aton.c ****     LL_ATON_ASSERT(checkWatchdog() == 0);
 2737              		.loc 1 2473 5 view .LVU801
 2738 001a FFF7FEFF 		bl	checkWatchdog
 2739              	.LVL299:
 2740              		.loc 1 2473 5 is_stmt 0 discriminator 1 view .LVU802
 2741 001e 30B1     		cbz	r0, .L228
 2742 0020 40F6A911 		movw	r1, #2473
 2743 0024 054B     		ldr	r3, .L234+8
 2744 0026 064A     		ldr	r2, .L234+12
 2745 0028 0648     		ldr	r0, .L234+16
 2746 002a FFF7FEFF 		bl	__assert_func
 2747              	.LVL300:
 2748              	.L228:
2474:../../Middlewares/AI_Runtime/Npu/ll_aton/ll_aton.c **** 
2475:../../Middlewares/AI_Runtime/Npu/ll_aton/ll_aton.c ****   } while (enableFlags);
 2749              		.loc 1 2475 12 is_stmt 1 view .LVU803
 2750 002e 002D     		cmp	r5, #0
 2751 0030 EED1     		bne	.L229
2476:../../Middlewares/AI_Runtime/Npu/ll_aton/ll_aton.c **** 
2477:../../Middlewares/AI_Runtime/Npu/ll_aton/ll_aton.c ****   return LL_ATON_OK;
 2752              		.loc 1 2477 3 view .LVU804
2478:../../Middlewares/AI_Runtime/Npu/ll_aton/ll_aton.c **** }
 2753              		.loc 1 2478 1 is_stmt 0 view .LVU805
 2754 0032 70BD     		pop	{r4, r5, r6, pc}
 2755              	.L235:
 2756              		.align	2
 2757              	.L234:
 2758 0034 80969800 		.word	10000000
 2759 0038 00E00F58 		.word	1477435392
 2760 003c 00000000 		.word	.LC19
 2761 0040 00000000 		.word	__func__.0
 2762 0044 05000000 		.word	.LC4
 2763              		.cfi_endproc
 2764              	.LFE4850:
 2766              		.section	.text.LL_EpochCtrl_GetBlobSize,"ax",%progbits
 2767              		.align	1
 2768              		.global	LL_EpochCtrl_GetBlobSize
 2769              		.syntax unified
 2770              		.thumb
 2771              		.thumb_func
 2773              	LL_EpochCtrl_GetBlobSize:
 2774              	.LVL301:
 2775              	.LFB4851:
2479:../../Middlewares/AI_Runtime/Npu/ll_aton/ll_aton.c **** 
2480:../../Middlewares/AI_Runtime/Npu/ll_aton/ll_aton.c **** /**
2481:../../Middlewares/AI_Runtime/Npu/ll_aton/ll_aton.c ****  * @brief  Returns the size of a blob
2482:../../Middlewares/AI_Runtime/Npu/ll_aton/ll_aton.c ****  * @param  eb_addr Pointer to blob
2483:../../Middlewares/AI_Runtime/Npu/ll_aton/ll_aton.c ****  * @retval Size in bytes of the blob
2484:../../Middlewares/AI_Runtime/Npu/ll_aton/ll_aton.c ****  */
2485:../../Middlewares/AI_Runtime/Npu/ll_aton/ll_aton.c **** unsigned int LL_EpochCtrl_GetBlobSize(uint32_t *eb_addr)
2486:../../Middlewares/AI_Runtime/Npu/ll_aton/ll_aton.c **** {
 2776              		.loc 1 2486 1 is_stmt 1 view -0
 2777              		.cfi_startproc
 2778              		@ args = 0, pretend = 0, frame = 0
 2779              		@ frame_needed = 0, uses_anonymous_args = 0
ARM GAS  C:\Users\Antonio\AppData\Local\Temp\ccynTwLp.s 			page 107


 2780              		@ link register save eliminated.
2487:../../Middlewares/AI_Runtime/Npu/ll_aton/ll_aton.c ****   unsigned bloblines = eb_addr[1] + 2;
 2781              		.loc 1 2487 3 view .LVU807
2488:../../Middlewares/AI_Runtime/Npu/ll_aton/ll_aton.c ****   return bloblines * 4;
 2782              		.loc 1 2488 3 view .LVU808
2487:../../Middlewares/AI_Runtime/Npu/ll_aton/ll_aton.c ****   unsigned bloblines = eb_addr[1] + 2;
 2783              		.loc 1 2487 12 is_stmt 0 view .LVU809
 2784 0000 4068     		ldr	r0, [r0, #4]
 2785              	.LVL302:
2487:../../Middlewares/AI_Runtime/Npu/ll_aton/ll_aton.c ****   unsigned bloblines = eb_addr[1] + 2;
 2786              		.loc 1 2487 12 view .LVU810
 2787 0002 0230     		adds	r0, r0, #2
 2788              	.LVL303:
2489:../../Middlewares/AI_Runtime/Npu/ll_aton/ll_aton.c **** }
 2789              		.loc 1 2489 1 view .LVU811
 2790 0004 8000     		lsls	r0, r0, #2
 2791              	.LVL304:
 2792              		.loc 1 2489 1 view .LVU812
 2793 0006 7047     		bx	lr
 2794              		.cfi_endproc
 2795              	.LFE4851:
 2797              		.section	.text.LL_ATON_EnableClock,"ax",%progbits
 2798              		.align	1
 2799              		.global	LL_ATON_EnableClock
 2800              		.syntax unified
 2801              		.thumb
 2802              		.thumb_func
 2804              	LL_ATON_EnableClock:
 2805              	.LVL305:
 2806              	.LFB4852:
2490:../../Middlewares/AI_Runtime/Npu/ll_aton/ll_aton.c **** #endif // ATON_EPOCHCTRL_NUM
2491:../../Middlewares/AI_Runtime/Npu/ll_aton/ll_aton.c **** 
2492:../../Middlewares/AI_Runtime/Npu/ll_aton/ll_aton.c **** void LL_ATON_EnableClock(unsigned int clock)
2493:../../Middlewares/AI_Runtime/Npu/ll_aton/ll_aton.c **** {
 2807              		.loc 1 2493 1 is_stmt 1 view -0
 2808              		.cfi_startproc
 2809              		@ args = 0, pretend = 0, frame = 0
 2810              		@ frame_needed = 0, uses_anonymous_args = 0
2494:../../Middlewares/AI_Runtime/Npu/ll_aton/ll_aton.c **** #if (LL_ATON_ENABLE_CLOCK_GATING == 1)
2495:../../Middlewares/AI_Runtime/Npu/ll_aton/ll_aton.c ****   ATON_REG_WRITE_FIELD_RANGE(CLKCTRL, 0, BGATES, clock, 1, 1);
 2811              		.loc 1 2495 3 view .LVU814
 2812              	.LBB34:
 2813              		.loc 1 2495 3 view .LVU815
 2814              	.LBE34:
2493:../../Middlewares/AI_Runtime/Npu/ll_aton/ll_aton.c **** #if (LL_ATON_ENABLE_CLOCK_GATING == 1)
 2815              		.loc 1 2493 1 is_stmt 0 view .LVU816
 2816 0000 30B5     		push	{r4, r5, lr}
 2817              		.cfi_def_cfa_offset 12
 2818              		.cfi_offset 4, -12
 2819              		.cfi_offset 5, -8
 2820              		.cfi_offset 14, -4
 2821              	.LBB35:
 2822              		.loc 1 2495 3 view .LVU817
 2823 0002 0124     		movs	r4, #1
 2824 0004 0025     		movs	r5, #0
 2825 0006 0123     		movs	r3, #1
 2826 0008 54EA0D05 		lsll	r4, r5, r0
ARM GAS  C:\Users\Antonio\AppData\Local\Temp\ccynTwLp.s 			page 108


 2827 000c 034A     		ldr	r2, .L238
 2828 000e 8340     		lsls	r3, r3, r0
 2829 0010 1169     		ldr	r1, [r2, #16]
 2830              	.LVL306:
 2831              		.loc 1 2495 3 is_stmt 1 view .LVU818
 2832 0012 4B40     		eors	r3, r3, r1
 2833 0014 2340     		ands	r3, r3, r4
 2834 0016 4B40     		eors	r3, r3, r1
 2835              	.LVL307:
 2836              		.loc 1 2495 3 view .LVU819
 2837              		.loc 1 2495 3 view .LVU820
 2838 0018 1361     		str	r3, [r2, #16]
 2839              		.loc 1 2495 3 view .LVU821
 2840              		.loc 1 2495 3 view .LVU822
 2841              	.LBE35:
 2842              		.loc 1 2495 3 view .LVU823
2496:../../Middlewares/AI_Runtime/Npu/ll_aton/ll_aton.c **** #endif
2497:../../Middlewares/AI_Runtime/Npu/ll_aton/ll_aton.c **** }
 2843              		.loc 1 2497 1 is_stmt 0 view .LVU824
 2844 001a 30BD     		pop	{r4, r5, pc}
 2845              	.L239:
 2846              		.align	2
 2847              	.L238:
 2848 001c 00000E58 		.word	1477312512
 2849              		.cfi_endproc
 2850              	.LFE4852:
 2852              		.section	.text.LL_Streng_TensorInit,"ax",%progbits
 2853              		.align	1
 2854              		.global	LL_Streng_TensorInit
 2855              		.syntax unified
 2856              		.thumb
 2857              		.thumb_func
 2859              	LL_Streng_TensorInit:
 2860              	.LVL308:
 2861              	.LFB4827:
 495:../../Middlewares/AI_Runtime/Npu/ll_aton/ll_aton.c ****   uint32_t t;
 2862              		.loc 1 495 1 is_stmt 1 view -0
 2863              		.cfi_startproc
 2864              		@ args = 0, pretend = 0, frame = 8
 2865              		@ frame_needed = 0, uses_anonymous_args = 0
 503:../../Middlewares/AI_Runtime/Npu/ll_aton/ll_aton.c ****     return LL_ATON_INVALID_ID;
 2866              		.loc 1 503 6 is_stmt 0 view .LVU826
 2867 0000 0928     		cmp	r0, #9
 495:../../Middlewares/AI_Runtime/Npu/ll_aton/ll_aton.c ****   uint32_t t;
 2868              		.loc 1 495 1 view .LVU827
 2869 0002 2DE9F74F 		push	{r0, r1, r2, r4, r5, r6, r7, r8, r9, r10, fp, lr}
 2870              		.cfi_def_cfa_offset 48
 2871              		.cfi_offset 4, -36
 2872              		.cfi_offset 5, -32
 2873              		.cfi_offset 6, -28
 2874              		.cfi_offset 7, -24
 2875              		.cfi_offset 8, -20
 2876              		.cfi_offset 9, -16
 2877              		.cfi_offset 10, -12
 2878              		.cfi_offset 11, -8
 2879              		.cfi_offset 14, -4
 495:../../Middlewares/AI_Runtime/Npu/ll_aton/ll_aton.c ****   uint32_t t;
ARM GAS  C:\Users\Antonio\AppData\Local\Temp\ccynTwLp.s 			page 109


 2880              		.loc 1 495 1 view .LVU828
 2881 0006 0446     		mov	r4, r0
 496:../../Middlewares/AI_Runtime/Npu/ll_aton/ll_aton.c **** 
 2882              		.loc 1 496 3 is_stmt 1 view .LVU829
 499:../../Middlewares/AI_Runtime/Npu/ll_aton/ll_aton.c ****   uint32_t t_streng_cid_cache = ATON_STRENG_CID_CACHE_DT;
 2883              		.loc 1 499 3 view .LVU830
 2884              	.LVL309:
 500:../../Middlewares/AI_Runtime/Npu/ll_aton/ll_aton.c ****   uint32_t t_streng_event = ATON_STRENG_EVENT_DT;
 2885              		.loc 1 500 3 view .LVU831
 501:../../Middlewares/AI_Runtime/Npu/ll_aton/ll_aton.c **** 
 2886              		.loc 1 501 3 view .LVU832
 503:../../Middlewares/AI_Runtime/Npu/ll_aton/ll_aton.c ****     return LL_ATON_INVALID_ID;
 2887              		.loc 1 503 3 view .LVU833
 495:../../Middlewares/AI_Runtime/Npu/ll_aton/ll_aton.c ****   uint32_t t;
 2888              		.loc 1 495 1 is_stmt 0 view .LVU834
 2889 0008 0D46     		mov	r5, r1
 2890 000a 1646     		mov	r6, r2
 503:../../Middlewares/AI_Runtime/Npu/ll_aton/ll_aton.c ****     return LL_ATON_INVALID_ID;
 2891              		.loc 1 503 6 view .LVU835
 2892 000c 04DD     		ble	.L241
 2893              	.LVL310:
 2894              	.L243:
 504:../../Middlewares/AI_Runtime/Npu/ll_aton/ll_aton.c **** 
 2895              		.loc 1 504 12 view .LVU836
 2896 000e 4FF0FF30 		mov	r0, #-1
 2897              	.LVL311:
 2898              	.L240:
 763:../../Middlewares/AI_Runtime/Npu/ll_aton/ll_aton.c **** 
 2899              		.loc 1 763 1 view .LVU837
 2900 0012 03B0     		add	sp, sp, #12
 2901              		.cfi_remember_state
 2902              		.cfi_def_cfa_offset 36
 2903              		@ sp needed
 2904 0014 BDE8F08F 		pop	{r4, r5, r6, r7, r8, r9, r10, fp, pc}
 2905              	.LVL312:
 2906              	.L241:
 2907              		.cfi_restore_state
 506:../../Middlewares/AI_Runtime/Npu/ll_aton/ll_aton.c **** 
 2908              		.loc 1 506 3 is_stmt 1 view .LVU838
 2909 0018 FFF7FEFF 		bl	LL_ATON_EnableClock
 2910              	.LVL313:
 510:../../Middlewares/AI_Runtime/Npu/ll_aton/ll_aton.c ****     return -1;
 2911              		.loc 1 510 3 view .LVU839
 510:../../Middlewares/AI_Runtime/Npu/ll_aton/ll_aton.c ****     return -1;
 2912              		.loc 1 510 6 is_stmt 0 view .LVU840
 2913 001c 012E     		cmp	r6, #1
 2914 001e F6D1     		bne	.L243
 514:../../Middlewares/AI_Runtime/Npu/ll_aton/ll_aton.c ****     return -1;
 2915              		.loc 1 514 3 is_stmt 1 view .LVU841
 514:../../Middlewares/AI_Runtime/Npu/ll_aton/ll_aton.c ****     return -1;
 2916              		.loc 1 514 11 is_stmt 0 view .LVU842
 2917 0020 95F83C60 		ldrb	r6, [r5, #60]	@ zero_extendqisi2
 2918              	.LVL314:
 514:../../Middlewares/AI_Runtime/Npu/ll_aton/ll_aton.c ****     return -1;
 2919              		.loc 1 514 6 view .LVU843
 2920 0024 182E     		cmp	r6, #24
 2921 0026 F2D8     		bhi	.L243
ARM GAS  C:\Users\Antonio\AppData\Local\Temp\ccynTwLp.s 			page 110


 514:../../Middlewares/AI_Runtime/Npu/ll_aton/ll_aton.c ****     return -1;
 2922              		.loc 1 514 34 discriminator 1 view .LVU844
 2923 0028 95F83DC0 		ldrb	ip, [r5, #61]	@ zero_extendqisi2
 514:../../Middlewares/AI_Runtime/Npu/ll_aton/ll_aton.c ****     return -1;
 2924              		.loc 1 514 27 discriminator 1 view .LVU845
 2925 002c BCF1180F 		cmp	ip, #24
 2926 0030 EDD8     		bhi	.L243
 518:../../Middlewares/AI_Runtime/Npu/ll_aton/ll_aton.c ****   t = ATON_STRENG_CTRL_SET_DIR(t, (conf->dir != 0));
 2927              		.loc 1 518 3 is_stmt 1 view .LVU846
 2928              	.LVL315:
 519:../../Middlewares/AI_Runtime/Npu/ll_aton/ll_aton.c ****   t = ATON_STRENG_CTRL_SET_RAW(t, (conf->raw != 0));
 2929              		.loc 1 519 3 view .LVU847
 519:../../Middlewares/AI_Runtime/Npu/ll_aton/ll_aton.c ****   t = ATON_STRENG_CTRL_SET_RAW(t, (conf->raw != 0));
 2930              		.loc 1 519 7 is_stmt 0 view .LVU848
 2931 0032 2878     		ldrb	r0, [r5]	@ zero_extendqisi2
 2932              	.LVL316:
 520:../../Middlewares/AI_Runtime/Npu/ll_aton/ll_aton.c **** #ifdef ATON_STRENG_CTRL_SET_RAW_OUT
 2933              		.loc 1 520 3 is_stmt 1 view .LVU849
 529:../../Middlewares/AI_Runtime/Npu/ll_aton/ll_aton.c ****   t = ATON_STRENG_CTRL_SET_CONT(t, conf->continuous == 1);
 2934              		.loc 1 529 7 is_stmt 0 view .LVU850
 2935 0034 D5F838A0 		ldr	r10, [r5, #56]
 520:../../Middlewares/AI_Runtime/Npu/ll_aton/ll_aton.c **** #ifdef ATON_STRENG_CTRL_SET_RAW_OUT
 2936              		.loc 1 520 7 view .LVU851
 2937 0038 C201     		lsls	r2, r0, #7
 519:../../Middlewares/AI_Runtime/Npu/ll_aton/ll_aton.c ****   t = ATON_STRENG_CTRL_SET_RAW(t, (conf->raw != 0));
 2938              		.loc 1 519 7 view .LVU852
 2939 003a C300     		lsls	r3, r0, #3
 520:../../Middlewares/AI_Runtime/Npu/ll_aton/ll_aton.c **** #ifdef ATON_STRENG_CTRL_SET_RAW_OUT
 2940              		.loc 1 520 7 view .LVU853
 2941 003c 02F48071 		and	r1, r2, #256
 519:../../Middlewares/AI_Runtime/Npu/ll_aton/ll_aton.c ****   t = ATON_STRENG_CTRL_SET_RAW(t, (conf->raw != 0));
 2942              		.loc 1 519 7 view .LVU854
 2943 0040 03F00803 		and	r3, r3, #8
 2944              	.LVL317:
 520:../../Middlewares/AI_Runtime/Npu/ll_aton/ll_aton.c **** #ifdef ATON_STRENG_CTRL_SET_RAW_OUT
 2945              		.loc 1 520 5 view .LVU855
 2946 0044 0B43     		orrs	r3, r3, r1
 2947              	.LVL318:
 522:../../Middlewares/AI_Runtime/Npu/ll_aton/ll_aton.c **** #else
 2948              		.loc 1 522 3 is_stmt 1 view .LVU856
 522:../../Middlewares/AI_Runtime/Npu/ll_aton/ll_aton.c **** #else
 2949              		.loc 1 522 7 is_stmt 0 view .LVU857
 2950 0046 C0F38001 		ubfx	r1, r0, #2, #1
 522:../../Middlewares/AI_Runtime/Npu/ll_aton/ll_aton.c **** #else
 2951              		.loc 1 522 5 view .LVU858
 2952 004a 43EA4123 		orr	r3, r3, r1, lsl #9
 2953              	.LVL319:
 527:../../Middlewares/AI_Runtime/Npu/ll_aton/ll_aton.c ****   t = ATON_STRENG_CTRL_SET_NOINC(t, (conf->noinc == 1));
 2954              		.loc 1 527 3 is_stmt 1 view .LVU859
 527:../../Middlewares/AI_Runtime/Npu/ll_aton/ll_aton.c ****   t = ATON_STRENG_CTRL_SET_NOINC(t, (conf->noinc == 1));
 2955              		.loc 1 527 7 is_stmt 0 view .LVU860
 2956 004e 02F40062 		and	r2, r2, #2048
 527:../../Middlewares/AI_Runtime/Npu/ll_aton/ll_aton.c ****   t = ATON_STRENG_CTRL_SET_NOINC(t, (conf->noinc == 1));
 2957              		.loc 1 527 5 view .LVU861
 2958 0052 1A43     		orrs	r2, r2, r3
 2959              	.LVL320:
 528:../../Middlewares/AI_Runtime/Npu/ll_aton/ll_aton.c ****   t = ATON_STRENG_CTRL_SET_SINGLE(t, conf->frame_tot_cnt == 1);
ARM GAS  C:\Users\Antonio\AppData\Local\Temp\ccynTwLp.s 			page 111


 2960              		.loc 1 528 3 is_stmt 1 view .LVU862
 528:../../Middlewares/AI_Runtime/Npu/ll_aton/ll_aton.c ****   t = ATON_STRENG_CTRL_SET_SINGLE(t, conf->frame_tot_cnt == 1);
 2961              		.loc 1 528 7 is_stmt 0 view .LVU863
 2962 0054 4308     		lsrs	r3, r0, #1
 529:../../Middlewares/AI_Runtime/Npu/ll_aton/ll_aton.c ****   t = ATON_STRENG_CTRL_SET_CONT(t, conf->continuous == 1);
 2963              		.loc 1 529 7 view .LVU864
 2964 0056 0AF1FF31 		add	r1, r10, #-1
 528:../../Middlewares/AI_Runtime/Npu/ll_aton/ll_aton.c ****   t = ATON_STRENG_CTRL_SET_SINGLE(t, conf->frame_tot_cnt == 1);
 2965              		.loc 1 528 7 view .LVU865
 2966 005a 03F01003 		and	r3, r3, #16
 528:../../Middlewares/AI_Runtime/Npu/ll_aton/ll_aton.c ****   t = ATON_STRENG_CTRL_SET_SINGLE(t, conf->frame_tot_cnt == 1);
 2967              		.loc 1 528 5 view .LVU866
 2968 005e 1343     		orrs	r3, r3, r2
 2969              	.LVL321:
 529:../../Middlewares/AI_Runtime/Npu/ll_aton/ll_aton.c ****   t = ATON_STRENG_CTRL_SET_CONT(t, conf->continuous == 1);
 2970              		.loc 1 529 3 is_stmt 1 view .LVU867
 529:../../Middlewares/AI_Runtime/Npu/ll_aton/ll_aton.c ****   t = ATON_STRENG_CTRL_SET_CONT(t, conf->continuous == 1);
 2971              		.loc 1 529 7 is_stmt 0 view .LVU868
 2972 0060 4A42     		rsbs	r2, r1, #0
 2973 0062 4A41     		adcs	r2, r2, r1
 529:../../Middlewares/AI_Runtime/Npu/ll_aton/ll_aton.c ****   t = ATON_STRENG_CTRL_SET_CONT(t, conf->continuous == 1);
 2974              		.loc 1 529 5 discriminator 4 view .LVU869
 2975 0064 43EA8203 		orr	r3, r3, r2, lsl #2
 2976              	.LVL322:
 530:../../Middlewares/AI_Runtime/Npu/ll_aton/ll_aton.c ****   t = ATON_STRENG_CTRL_SET_LSBMODE(t, conf->align_right == 1);
 2977              		.loc 1 530 3 is_stmt 1 view .LVU870
 530:../../Middlewares/AI_Runtime/Npu/ll_aton/ll_aton.c ****   t = ATON_STRENG_CTRL_SET_LSBMODE(t, conf->align_right == 1);
 2978              		.loc 1 530 7 is_stmt 0 view .LVU871
 2979 0068 0201     		lsls	r2, r0, #4
 2980 006a 02F08002 		and	r2, r2, #128
 532:../../Middlewares/AI_Runtime/Npu/ll_aton/ll_aton.c **** 
 2981              		.loc 1 532 7 view .LVU872
 2982 006e B5F80080 		ldrh	r8, [r5]
 531:../../Middlewares/AI_Runtime/Npu/ll_aton/ll_aton.c ****   t = ATON_STRENG_CTRL_SET_SIGNEXT(t, conf->align_right == 1 && conf->nbits_unsigned == 0);
 2983              		.loc 1 531 7 view .LVU873
 2984 0072 0702     		lsls	r7, r0, #8
 530:../../Middlewares/AI_Runtime/Npu/ll_aton/ll_aton.c ****   t = ATON_STRENG_CTRL_SET_LSBMODE(t, conf->align_right == 1);
 2985              		.loc 1 530 5 view .LVU874
 2986 0074 1343     		orrs	r3, r3, r2
 2987              	.LVL323:
 531:../../Middlewares/AI_Runtime/Npu/ll_aton/ll_aton.c ****   t = ATON_STRENG_CTRL_SET_SIGNEXT(t, conf->align_right == 1 && conf->nbits_unsigned == 0);
 2988              		.loc 1 531 3 is_stmt 1 view .LVU875
 531:../../Middlewares/AI_Runtime/Npu/ll_aton/ll_aton.c ****   t = ATON_STRENG_CTRL_SET_SIGNEXT(t, conf->align_right == 1 && conf->nbits_unsigned == 0);
 2989              		.loc 1 531 7 is_stmt 0 view .LVU876
 2990 0076 07F48047 		and	r7, r7, #16384
 531:../../Middlewares/AI_Runtime/Npu/ll_aton/ll_aton.c ****   t = ATON_STRENG_CTRL_SET_SIGNEXT(t, conf->align_right == 1 && conf->nbits_unsigned == 0);
 2991              		.loc 1 531 5 view .LVU877
 2992 007a 1F43     		orrs	r7, r7, r3
 2993              	.LVL324:
 532:../../Middlewares/AI_Runtime/Npu/ll_aton/ll_aton.c **** 
 2994              		.loc 1 532 3 is_stmt 1 view .LVU878
 532:../../Middlewares/AI_Runtime/Npu/ll_aton/ll_aton.c **** 
 2995              		.loc 1 532 7 is_stmt 0 view .LVU879
 2996 007c 08F41073 		and	r3, r8, #576
 2997 0080 A3F1400E 		sub	lr, r3, #64
 2998 0084 DEF10003 		rsbs	r3, lr, #0
 2999 0088 43EB0E03 		adc	r3, r3, lr
ARM GAS  C:\Users\Antonio\AppData\Local\Temp\ccynTwLp.s 			page 112


 551:../../Middlewares/AI_Runtime/Npu/ll_aton/ll_aton.c **** 
 3000              		.loc 1 551 68 view .LVU880
 3001 008c 10F00102 		ands	r2, r0, #1
 532:../../Middlewares/AI_Runtime/Npu/ll_aton/ll_aton.c **** 
 3002              		.loc 1 532 5 discriminator 4 view .LVU881
 3003 0090 47EAC337 		orr	r7, r7, r3, lsl #15
 3004              	.LVL325:
 534:../../Middlewares/AI_Runtime/Npu/ll_aton/ll_aton.c ****   int in_bits[3];
 3005              		.loc 1 534 3 is_stmt 1 view .LVU882
 535:../../Middlewares/AI_Runtime/Npu/ll_aton/ll_aton.c ****   int out_bits[3];
 3006              		.loc 1 535 3 view .LVU883
 536:../../Middlewares/AI_Runtime/Npu/ll_aton/ll_aton.c ****   int nbits_out = conf->nbits_out;
 3007              		.loc 1 536 3 view .LVU884
 537:../../Middlewares/AI_Runtime/Npu/ll_aton/ll_aton.c ****   int nbits_in = conf->nbits_in;
 3008              		.loc 1 537 3 view .LVU885
 538:../../Middlewares/AI_Runtime/Npu/ll_aton/ll_aton.c **** 
 3009              		.loc 1 538 7 is_stmt 0 view .LVU886
 3010 0094 3146     		mov	r1, r6
 537:../../Middlewares/AI_Runtime/Npu/ll_aton/ll_aton.c ****   int nbits_in = conf->nbits_in;
 3011              		.loc 1 537 7 view .LVU887
 3012 0096 6346     		mov	r3, ip
 3013              	.LVL326:
 538:../../Middlewares/AI_Runtime/Npu/ll_aton/ll_aton.c **** 
 3014              		.loc 1 538 3 is_stmt 1 view .LVU888
 550:../../Middlewares/AI_Runtime/Npu/ll_aton/ll_aton.c ****   io_case += (conf->dir == 0 ? (conf->nbits_in <= conf->nbits_out) : (conf->nbits_in < conf->nbits_
 3015              		.loc 1 550 3 view .LVU889
 551:../../Middlewares/AI_Runtime/Npu/ll_aton/ll_aton.c **** 
 3016              		.loc 1 551 3 view .LVU890
 551:../../Middlewares/AI_Runtime/Npu/ll_aton/ll_aton.c **** 
 3017              		.loc 1 551 68 is_stmt 0 view .LVU891
 3018 0098 0192     		str	r2, [sp, #4]
 3019 009a 00F04009 		and	r9, r0, #64
 3020 009e 40F0A980 		bne	.L244
 551:../../Middlewares/AI_Runtime/Npu/ll_aton/ll_aton.c **** 
 3021              		.loc 1 551 48 discriminator 1 view .LVU892
 3022 00a2 6645     		cmp	r6, ip
 3023 00a4 8CBF     		ite	hi
 3024 00a6 0022     		movhi	r2, #0
 3025 00a8 0122     		movls	r2, #1
 3026              	.LVL327:
 553:../../Middlewares/AI_Runtime/Npu/ll_aton/ll_aton.c ****   {
 3027              		.loc 1 553 3 is_stmt 1 view .LVU893
 3028              	.L245:
 553:../../Middlewares/AI_Runtime/Npu/ll_aton/ll_aton.c ****   {
 3029              		.loc 1 553 3 is_stmt 0 view .LVU894
 3030 00aa 032A     		cmp	r2, #3
 3031 00ac 00F0B280 		beq	.L247
 553:../../Middlewares/AI_Runtime/Npu/ll_aton/ll_aton.c ****   {
 3032              		.loc 1 553 3 view .LVU895
 3033 00b0 012A     		cmp	r2, #1
 3034 00b2 00F0AA80 		beq	.L266
 558:../../Middlewares/AI_Runtime/Npu/ll_aton/ll_aton.c ****       t_streng_strd = ATON_STRENG_STRD_SET_FGAP(t_streng_strd, (nbits_in - nbits_out));
 3035              		.loc 1 558 5 is_stmt 1 view .LVU896
 562:../../Middlewares/AI_Runtime/Npu/ll_aton/ll_aton.c ****   }
 3036              		.loc 1 562 14 is_stmt 0 view .LVU897
 3037 00b6 6146     		mov	r1, ip
 3038              	.LVL328:
ARM GAS  C:\Users\Antonio\AppData\Local\Temp\ccynTwLp.s 			page 113


 559:../../Middlewares/AI_Runtime/Npu/ll_aton/ll_aton.c ****     else
 3039              		.loc 1 559 23 view .LVU898
 3040 00b8 A6EB0C02 		sub	r2, r6, ip
 3041              	.LVL329:
 558:../../Middlewares/AI_Runtime/Npu/ll_aton/ll_aton.c ****       t_streng_strd = ATON_STRENG_STRD_SET_FGAP(t_streng_strd, (nbits_in - nbits_out));
 3042              		.loc 1 558 8 view .LVU899
 3043 00bc 0306     		lsls	r3, r0, #24
 3044              	.LVL330:
 559:../../Middlewares/AI_Runtime/Npu/ll_aton/ll_aton.c ****     else
 3045              		.loc 1 559 7 is_stmt 1 view .LVU900
 559:../../Middlewares/AI_Runtime/Npu/ll_aton/ll_aton.c ****     else
 3046              		.loc 1 559 23 is_stmt 0 view .LVU901
 3047 00be 4BBF     		itete	mi
 3048 00c0 1204     		lslmi	r2, r2, #16
 561:../../Middlewares/AI_Runtime/Npu/ll_aton/ll_aton.c ****     nbits_in = nbits_out;
 3049              		.loc 1 561 23 view .LVU902
 3050 00c2 1206     		lslpl	r2, r2, #24
 559:../../Middlewares/AI_Runtime/Npu/ll_aton/ll_aton.c ****     else
 3051              		.loc 1 559 23 view .LVU903
 3052 00c4 02F47C12 		andmi	r2, r2, #4128768
 3053              	.LVL331:
 561:../../Middlewares/AI_Runtime/Npu/ll_aton/ll_aton.c ****     nbits_in = nbits_out;
 3054              		.loc 1 561 7 is_stmt 1 view .LVU904
 561:../../Middlewares/AI_Runtime/Npu/ll_aton/ll_aton.c ****     nbits_in = nbits_out;
 3055              		.loc 1 561 23 is_stmt 0 view .LVU905
 3056 00c8 02F07C52 		andpl	r2, r2, #1056964608
 3057              	.LVL332:
 3058              	.L248:
 566:../../Middlewares/AI_Runtime/Npu/ll_aton/ll_aton.c ****     in_bits[1] = nbits_in > 8 ? _LL_min(8, nbits_in - 8) : 0;
 3059              		.loc 1 566 5 is_stmt 1 view .LVU906
 566:../../Middlewares/AI_Runtime/Npu/ll_aton/ll_aton.c ****     in_bits[1] = nbits_in > 8 ? _LL_min(8, nbits_in - 8) : 0;
 3060              		.loc 1 566 18 is_stmt 0 view .LVU907
 3061 00cc 0829     		cmp	r1, #8
 3062 00ce 8E46     		mov	lr, r1
 3063 00d0 A8BF     		it	ge
 3064 00d2 4FF0080E 		movge	lr, #8
 3065              	.LVL333:
 567:../../Middlewares/AI_Runtime/Npu/ll_aton/ll_aton.c ****     in_bits[2] = nbits_in > 16 ? _LL_min(8, nbits_in - 16) : 0;
 3066              		.loc 1 567 5 is_stmt 1 view .LVU908
 567:../../Middlewares/AI_Runtime/Npu/ll_aton/ll_aton.c ****     in_bits[2] = nbits_in > 16 ? _LL_min(8, nbits_in - 16) : 0;
 3067              		.loc 1 567 58 is_stmt 0 view .LVU909
 3068 00d6 0829     		cmp	r1, #8
 3069 00d8 40F39980 		ble	.L267
 3070              	.LVL334:
 568:../../Middlewares/AI_Runtime/Npu/ll_aton/ll_aton.c ****     if (conf->align_right)
 3071              		.loc 1 568 5 is_stmt 1 view .LVU910
 568:../../Middlewares/AI_Runtime/Npu/ll_aton/ll_aton.c ****     if (conf->align_right)
 3072              		.loc 1 568 60 is_stmt 0 view .LVU911
 3073 00dc 1029     		cmp	r1, #16
 568:../../Middlewares/AI_Runtime/Npu/ll_aton/ll_aton.c ****     if (conf->align_right)
 3074              		.loc 1 568 60 discriminator 1 view .LVU912
 3075 00de CBBF     		itete	gt
 3076 00e0 A1F11003 		subgt	r3, r1, #16
 568:../../Middlewares/AI_Runtime/Npu/ll_aton/ll_aton.c ****     if (conf->align_right)
 3077              		.loc 1 568 60 discriminator 2 view .LVU913
 3078 00e4 0023     		movle	r3, #0
 567:../../Middlewares/AI_Runtime/Npu/ll_aton/ll_aton.c ****     in_bits[2] = nbits_in > 16 ? _LL_min(8, nbits_in - 16) : 0;
ARM GAS  C:\Users\Antonio\AppData\Local\Temp\ccynTwLp.s 			page 114


 3079              		.loc 1 567 16 discriminator 4 view .LVU914
 3080 00e6 0821     		movgt	r1, #8
 3081              	.LVL335:
 567:../../Middlewares/AI_Runtime/Npu/ll_aton/ll_aton.c ****     in_bits[2] = nbits_in > 16 ? _LL_min(8, nbits_in - 16) : 0;
 3082              		.loc 1 567 58 discriminator 1 view .LVU915
 3083 00e8 0839     		suble	r1, r1, #8
 3084              	.LVL336:
 3085              	.L250:
 569:../../Middlewares/AI_Runtime/Npu/ll_aton/ll_aton.c ****     {
 3086              		.loc 1 569 5 is_stmt 1 view .LVU916
 569:../../Middlewares/AI_Runtime/Npu/ll_aton/ll_aton.c ****     {
 3087              		.loc 1 569 8 is_stmt 0 view .LVU917
 3088 00ea 09F0FF0B 		and	fp, r9, #255
 3089 00ee B9F1000F 		cmp	r9, #0
 3090 00f2 0BD1     		bne	.L252
 577:../../Middlewares/AI_Runtime/Npu/ll_aton/ll_aton.c ****       {
 3091              		.loc 1 577 7 is_stmt 1 view .LVU918
 577:../../Middlewares/AI_Runtime/Npu/ll_aton/ll_aton.c ****       {
 3092              		.loc 1 577 10 is_stmt 0 view .LVU919
 3093 00f4 BCF1100F 		cmp	ip, #16
 3094 00f8 00F3B280 		bgt	.L271
 583:../../Middlewares/AI_Runtime/Npu/ll_aton/ll_aton.c ****       {
 3095              		.loc 1 583 12 is_stmt 1 view .LVU920
 583:../../Middlewares/AI_Runtime/Npu/ll_aton/ll_aton.c ****       {
 3096              		.loc 1 583 15 is_stmt 0 view .LVU921
 3097 00fc BCF1080F 		cmp	ip, #8
 3098              	.LVL337:
 3099              	.L280:
 619:../../Middlewares/AI_Runtime/Npu/ll_aton/ll_aton.c ****       {
 3100              		.loc 1 619 15 view .LVU922
 3101 0100 40F3B280 		ble	.L272
 3102 0104 7346     		mov	r3, lr
 622:../../Middlewares/AI_Runtime/Npu/ll_aton/ll_aton.c ****       } // N.B. the DMA stuffs the bits to the left of the channel
 3103              		.loc 1 622 20 view .LVU923
 3104 0106 8E46     		mov	lr, r1
 621:../../Middlewares/AI_Runtime/Npu/ll_aton/ll_aton.c ****         ch_bits[0] = out_bits[1];
 3105              		.loc 1 621 20 view .LVU924
 3106 0108 1946     		mov	r1, r3
 534:../../Middlewares/AI_Runtime/Npu/ll_aton/ll_aton.c ****   int in_bits[3];
 3107              		.loc 1 534 7 view .LVU925
 3108 010a 5B46     		mov	r3, fp
 3109              	.L252:
 3110              	.LVL338:
 632:../../Middlewares/AI_Runtime/Npu/ll_aton/ll_aton.c ****   t = ATON_STRENG_CTRL_SET_SIZE1(t, ch_bits[1]);
 3111              		.loc 1 632 3 is_stmt 1 view .LVU926
 632:../../Middlewares/AI_Runtime/Npu/ll_aton/ll_aton.c ****   t = ATON_STRENG_CTRL_SET_SIZE1(t, ch_bits[1]);
 3112              		.loc 1 632 5 is_stmt 0 view .LVU927
 3113 010c 47EA0E47 		orr	r7, r7, lr, lsl #16
 3114              	.LVL339:
 633:../../Middlewares/AI_Runtime/Npu/ll_aton/ll_aton.c ****   t = ATON_STRENG_CTRL_SET_SIZE2(t, ch_bits[2]);
 3115              		.loc 1 633 3 is_stmt 1 view .LVU928
 642:../../Middlewares/AI_Runtime/Npu/ll_aton/ll_aton.c **** 
 3116              		.loc 1 642 3 is_stmt 0 view .LVU929
 3117 0110 04F5B024 		add	r4, r4, #360448
 3118              	.LVL340:
 633:../../Middlewares/AI_Runtime/Npu/ll_aton/ll_aton.c ****   t = ATON_STRENG_CTRL_SET_SIZE2(t, ch_bits[2]);
 3119              		.loc 1 633 5 view .LVU930
ARM GAS  C:\Users\Antonio\AppData\Local\Temp\ccynTwLp.s 			page 115


 3120 0114 47EA0157 		orr	r7, r7, r1, lsl #20
 3121              	.LVL341:
 634:../../Middlewares/AI_Runtime/Npu/ll_aton/ll_aton.c **** #else
 3122              		.loc 1 634 3 is_stmt 1 view .LVU931
 642:../../Middlewares/AI_Runtime/Npu/ll_aton/ll_aton.c **** 
 3123              		.loc 1 642 3 is_stmt 0 view .LVU932
 3124 0118 E534     		adds	r4, r4, #229
 3125              	.LVL342:
 634:../../Middlewares/AI_Runtime/Npu/ll_aton/ll_aton.c **** #else
 3126              		.loc 1 634 5 view .LVU933
 3127 011a 47EA0367 		orr	r7, r7, r3, lsl #24
 3128              	.LVL343:
 642:../../Middlewares/AI_Runtime/Npu/ll_aton/ll_aton.c **** 
 3129              		.loc 1 642 3 is_stmt 1 view .LVU934
 642:../../Middlewares/AI_Runtime/Npu/ll_aton/ll_aton.c **** 
 3130              		.loc 1 642 3 view .LVU935
 3131 011e 2403     		lsls	r4, r4, #12
 3132              	.LVL344:
 642:../../Middlewares/AI_Runtime/Npu/ll_aton/ll_aton.c **** 
 3133              		.loc 1 642 3 is_stmt 0 view .LVU936
 3134 0120 2760     		str	r7, [r4]
 642:../../Middlewares/AI_Runtime/Npu/ll_aton/ll_aton.c **** 
 3135              		.loc 1 642 3 is_stmt 1 view .LVU937
 642:../../Middlewares/AI_Runtime/Npu/ll_aton/ll_aton.c **** 
 3136              		.loc 1 642 30 view .LVU938
 645:../../Middlewares/AI_Runtime/Npu/ll_aton/ll_aton.c ****                        conf->offset_start);
 3137              		.loc 1 645 3 view .LVU939
 645:../../Middlewares/AI_Runtime/Npu/ll_aton/ll_aton.c ****                        conf->offset_start);
 3138              		.loc 1 645 3 view .LVU940
 3139 0122 D5E9017E 		ldrd	r7, lr, [r5, #4]
 3140              	.LVL345:
 645:../../Middlewares/AI_Runtime/Npu/ll_aton/ll_aton.c ****                        conf->offset_start);
 3141              		.loc 1 645 3 is_stmt 0 view .LVU941
 3142 0126 07EB0E03 		add	r3, r7, lr
 3143              	.LVL346:
 645:../../Middlewares/AI_Runtime/Npu/ll_aton/ll_aton.c ****                        conf->offset_start);
 3144              		.loc 1 645 3 view .LVU942
 3145 012a A360     		str	r3, [r4, #8]
 3146              	.LVL347:
 645:../../Middlewares/AI_Runtime/Npu/ll_aton/ll_aton.c ****                        conf->offset_start);
 3147              		.loc 1 645 3 is_stmt 1 view .LVU943
 648:../../Middlewares/AI_Runtime/Npu/ll_aton/ll_aton.c ****   {
 3148              		.loc 1 648 3 view .LVU944
 648:../../Middlewares/AI_Runtime/Npu/ll_aton/ll_aton.c ****   {
 3149              		.loc 1 648 6 is_stmt 0 view .LVU945
 3150 012c 8307     		lsls	r3, r0, #30
 3151              	.LBB36:
 666:../../Middlewares/AI_Runtime/Npu/ll_aton/ll_aton.c ****     // if line_offset is left=0 then it's computed from the standard geometry of lines and batch
 3152              		.loc 1 666 72 discriminator 1 view .LVU946
 3153 012e 696A     		ldr	r1, [r5, #36]
 3154              	.LVL348:
 666:../../Middlewares/AI_Runtime/Npu/ll_aton/ll_aton.c ****     // if line_offset is left=0 then it's computed from the standard geometry of lines and batch
 3155              		.loc 1 666 72 discriminator 1 view .LVU947
 3156              	.LBE36:
 648:../../Middlewares/AI_Runtime/Npu/ll_aton/ll_aton.c ****   {
 3157              		.loc 1 648 6 view .LVU948
 3158 0130 40F19D80 		bpl	.L256
ARM GAS  C:\Users\Antonio\AppData\Local\Temp\ccynTwLp.s 			page 116


 650:../../Middlewares/AI_Runtime/Npu/ll_aton/ll_aton.c ****       t = conf->frame_count;
 3159              		.loc 1 650 5 is_stmt 1 view .LVU949
 650:../../Middlewares/AI_Runtime/Npu/ll_aton/ll_aton.c ****       t = conf->frame_count;
 3160              		.loc 1 650 13 is_stmt 0 view .LVU950
 3161 0134 6B69     		ldr	r3, [r5, #20]
 650:../../Middlewares/AI_Runtime/Npu/ll_aton/ll_aton.c ****       t = conf->frame_count;
 3162              		.loc 1 650 8 view .LVU951
 3163 0136 4BB9     		cbnz	r3, .L257
 655:../../Middlewares/AI_Runtime/Npu/ll_aton/ll_aton.c ****     }
 3164              		.loc 1 655 7 is_stmt 1 view .LVU952
 3165              	.LVL349:
 3166              	.LBB37:
 3167              	.LBI37:
 3168              		.file 2 "../../Middlewares/AI_Runtime/Npu/ll_aton/ll_aton.h"
   1:../../Middlewares/AI_Runtime/Npu/ll_aton/ll_aton.h **** /**
   2:../../Middlewares/AI_Runtime/Npu/ll_aton/ll_aton.h ****  ******************************************************************************
   3:../../Middlewares/AI_Runtime/Npu/ll_aton/ll_aton.h ****  * @file    ll_aton.h
   4:../../Middlewares/AI_Runtime/Npu/ll_aton/ll_aton.h ****  * @author  SRA Artificial Intelligence & Embedded Architectures
   5:../../Middlewares/AI_Runtime/Npu/ll_aton/ll_aton.h ****  * @brief   Header file of ATON LL module.
   6:../../Middlewares/AI_Runtime/Npu/ll_aton/ll_aton.h ****  ******************************************************************************
   7:../../Middlewares/AI_Runtime/Npu/ll_aton/ll_aton.h ****  * @attention
   8:../../Middlewares/AI_Runtime/Npu/ll_aton/ll_aton.h ****  *
   9:../../Middlewares/AI_Runtime/Npu/ll_aton/ll_aton.h ****  * Copyright (c) 2024 STMicroelectronics.
  10:../../Middlewares/AI_Runtime/Npu/ll_aton/ll_aton.h ****  * All rights reserved.
  11:../../Middlewares/AI_Runtime/Npu/ll_aton/ll_aton.h ****  *
  12:../../Middlewares/AI_Runtime/Npu/ll_aton/ll_aton.h ****  * This software is licensed under terms that can be found in the LICENSE file
  13:../../Middlewares/AI_Runtime/Npu/ll_aton/ll_aton.h ****  * in the root directory of this software component.
  14:../../Middlewares/AI_Runtime/Npu/ll_aton/ll_aton.h ****  * If no LICENSE file comes with this software, it is provided AS-IS.
  15:../../Middlewares/AI_Runtime/Npu/ll_aton/ll_aton.h ****  *
  16:../../Middlewares/AI_Runtime/Npu/ll_aton/ll_aton.h ****  ******************************************************************************
  17:../../Middlewares/AI_Runtime/Npu/ll_aton/ll_aton.h ****  */
  18:../../Middlewares/AI_Runtime/Npu/ll_aton/ll_aton.h **** 
  19:../../Middlewares/AI_Runtime/Npu/ll_aton/ll_aton.h **** #ifndef __LL_ATON_H
  20:../../Middlewares/AI_Runtime/Npu/ll_aton/ll_aton.h **** #define __LL_ATON_H
  21:../../Middlewares/AI_Runtime/Npu/ll_aton/ll_aton.h **** 
  22:../../Middlewares/AI_Runtime/Npu/ll_aton/ll_aton.h **** #ifdef __cplusplus
  23:../../Middlewares/AI_Runtime/Npu/ll_aton/ll_aton.h **** extern "C"
  24:../../Middlewares/AI_Runtime/Npu/ll_aton/ll_aton.h **** {
  25:../../Middlewares/AI_Runtime/Npu/ll_aton/ll_aton.h **** #endif
  26:../../Middlewares/AI_Runtime/Npu/ll_aton/ll_aton.h **** 
  27:../../Middlewares/AI_Runtime/Npu/ll_aton/ll_aton.h **** #include <assert.h>
  28:../../Middlewares/AI_Runtime/Npu/ll_aton/ll_aton.h **** #include <stddef.h>
  29:../../Middlewares/AI_Runtime/Npu/ll_aton/ll_aton.h **** #include <stdint.h>
  30:../../Middlewares/AI_Runtime/Npu/ll_aton/ll_aton.h **** 
  31:../../Middlewares/AI_Runtime/Npu/ll_aton/ll_aton.h **** #include "ll_aton_attributes.h"
  32:../../Middlewares/AI_Runtime/Npu/ll_aton/ll_aton.h **** #include "ll_aton_config.h"
  33:../../Middlewares/AI_Runtime/Npu/ll_aton/ll_aton.h **** 
  34:../../Middlewares/AI_Runtime/Npu/ll_aton/ll_aton.h **** #if (LL_ATON_PLATFORM != LL_ATON_PLAT_EC_TRACE)
  35:../../Middlewares/AI_Runtime/Npu/ll_aton/ll_aton.h **** #include "ll_aton_osal.h"
  36:../../Middlewares/AI_Runtime/Npu/ll_aton/ll_aton.h **** #include "ll_aton_platform.h"
  37:../../Middlewares/AI_Runtime/Npu/ll_aton/ll_aton.h **** #endif // LL_ATON_PLATFORM != LL_ATON_PLAT_EC_TRACE
  38:../../Middlewares/AI_Runtime/Npu/ll_aton/ll_aton.h **** 
  39:../../Middlewares/AI_Runtime/Npu/ll_aton/ll_aton.h **** /** @defgroup ATON_LL ATON_LL_Driver
  40:../../Middlewares/AI_Runtime/Npu/ll_aton/ll_aton.h ****  * @{
  41:../../Middlewares/AI_Runtime/Npu/ll_aton/ll_aton.h ****  */
  42:../../Middlewares/AI_Runtime/Npu/ll_aton/ll_aton.h **** 
  43:../../Middlewares/AI_Runtime/Npu/ll_aton/ll_aton.h **** /* LL ATON error codes */
ARM GAS  C:\Users\Antonio\AppData\Local\Temp\ccynTwLp.s 			page 117


  44:../../Middlewares/AI_Runtime/Npu/ll_aton/ll_aton.h **** #define LL_ATON_OK            (0)
  45:../../Middlewares/AI_Runtime/Npu/ll_aton/ll_aton.h **** #define LL_ATON_INVALID_ID    (-1)
  46:../../Middlewares/AI_Runtime/Npu/ll_aton/ll_aton.h **** #define LL_ATON_INVALID_PARAM (-2)
  47:../../Middlewares/AI_Runtime/Npu/ll_aton/ll_aton.h **** #define LL_ATON_TIMEOUT       (-3)
  48:../../Middlewares/AI_Runtime/Npu/ll_aton/ll_aton.h **** 
  49:../../Middlewares/AI_Runtime/Npu/ll_aton/ll_aton.h ****   /* this is needed to avoid some compilers (e.g. KEIL) that observe a strict semantic about conver
  50:../../Middlewares/AI_Runtime/Npu/ll_aton/ll_aton.h ****    * pointers to integers in const initializers
  51:../../Middlewares/AI_Runtime/Npu/ll_aton/ll_aton.h ****    */
  52:../../Middlewares/AI_Runtime/Npu/ll_aton/ll_aton.h ****   typedef union
  53:../../Middlewares/AI_Runtime/Npu/ll_aton/ll_aton.h ****   {
  54:../../Middlewares/AI_Runtime/Npu/ll_aton/ll_aton.h ****     unsigned char *p;
  55:../../Middlewares/AI_Runtime/Npu/ll_aton/ll_aton.h ****     uintptr_t i;
  56:../../Middlewares/AI_Runtime/Npu/ll_aton/ll_aton.h ****   } ll_aton_pointer;
  57:../../Middlewares/AI_Runtime/Npu/ll_aton/ll_aton.h **** 
  58:../../Middlewares/AI_Runtime/Npu/ll_aton/ll_aton.h ****   /* Method that translates an address from physical to virtual */
  59:../../Middlewares/AI_Runtime/Npu/ll_aton/ll_aton.h ****   unsigned char *LL_Address_Physical2Virtual(unsigned char *address);
  60:../../Middlewares/AI_Runtime/Npu/ll_aton/ll_aton.h **** 
  61:../../Middlewares/AI_Runtime/Npu/ll_aton/ll_aton.h ****   /* Method that translates an address from virtual to physical */
  62:../../Middlewares/AI_Runtime/Npu/ll_aton/ll_aton.h ****   unsigned char *LL_Address_Virtual2Physical(unsigned char *address);
  63:../../Middlewares/AI_Runtime/Npu/ll_aton/ll_aton.h **** 
  64:../../Middlewares/AI_Runtime/Npu/ll_aton/ll_aton.h **** /**
  65:../../Middlewares/AI_Runtime/Npu/ll_aton/ll_aton.h ****  * @brief ATON User Configuration macros
  66:../../Middlewares/AI_Runtime/Npu/ll_aton/ll_aton.h ****  */
  67:../../Middlewares/AI_Runtime/Npu/ll_aton/ll_aton.h **** /* Set beyond macro to 1 if you want to enable the generation of ATON event interrupts */
  68:../../Middlewares/AI_Runtime/Npu/ll_aton/ll_aton.h **** #ifndef LL_ATON_EN_EVENT_IRQ
  69:../../Middlewares/AI_Runtime/Npu/ll_aton/ll_aton.h **** #define LL_ATON_EN_EVENT_IRQ 1
  70:../../Middlewares/AI_Runtime/Npu/ll_aton/ll_aton.h **** #endif
  71:../../Middlewares/AI_Runtime/Npu/ll_aton/ll_aton.h **** 
  72:../../Middlewares/AI_Runtime/Npu/ll_aton/ll_aton.h **** /* Set beyond macro to 1 if you want to enable the generation of ATON configuration error interrupt
  73:../../Middlewares/AI_Runtime/Npu/ll_aton/ll_aton.h **** #ifndef LL_ATON_EN_ERROR_IRQ
  74:../../Middlewares/AI_Runtime/Npu/ll_aton/ll_aton.h **** #define LL_ATON_EN_ERROR_IRQ 1
  75:../../Middlewares/AI_Runtime/Npu/ll_aton/ll_aton.h **** #endif
  76:../../Middlewares/AI_Runtime/Npu/ll_aton/ll_aton.h **** 
  77:../../Middlewares/AI_Runtime/Npu/ll_aton/ll_aton.h ****   /** @defgroup ATON_INIT ATON Global initialization/deinitialization functions
  78:../../Middlewares/AI_Runtime/Npu/ll_aton/ll_aton.h ****    * @{
  79:../../Middlewares/AI_Runtime/Npu/ll_aton/ll_aton.h ****    */
  80:../../Middlewares/AI_Runtime/Npu/ll_aton/ll_aton.h ****   int LL_ATON_Init(void);
  81:../../Middlewares/AI_Runtime/Npu/ll_aton/ll_aton.h ****   int LL_ATON_DeInit(void);
  82:../../Middlewares/AI_Runtime/Npu/ll_aton/ll_aton.h ****   /**
  83:../../Middlewares/AI_Runtime/Npu/ll_aton/ll_aton.h ****    * @}
  84:../../Middlewares/AI_Runtime/Npu/ll_aton/ll_aton.h ****    */
  85:../../Middlewares/AI_Runtime/Npu/ll_aton/ll_aton.h **** 
  86:../../Middlewares/AI_Runtime/Npu/ll_aton/ll_aton.h ****   /**
  87:../../Middlewares/AI_Runtime/Npu/ll_aton/ll_aton.h ****    * @brief List of acceleration units types
  88:../../Middlewares/AI_Runtime/Npu/ll_aton/ll_aton.h ****    */
  89:../../Middlewares/AI_Runtime/Npu/ll_aton/ll_aton.h ****   enum AccelUnitsType
  90:../../Middlewares/AI_Runtime/Npu/ll_aton/ll_aton.h ****   {
  91:../../Middlewares/AI_Runtime/Npu/ll_aton/ll_aton.h ****     STRENG = 0,
  92:../../Middlewares/AI_Runtime/Npu/ll_aton/ll_aton.h ****     STRENG64,
  93:../../Middlewares/AI_Runtime/Npu/ll_aton/ll_aton.h ****     CONVACC,
  94:../../Middlewares/AI_Runtime/Npu/ll_aton/ll_aton.h ****     DECUN,
  95:../../Middlewares/AI_Runtime/Npu/ll_aton/ll_aton.h ****     ACTIV,
  96:../../Middlewares/AI_Runtime/Npu/ll_aton/ll_aton.h ****     ARITH,
  97:../../Middlewares/AI_Runtime/Npu/ll_aton/ll_aton.h ****     POOL,
  98:../../Middlewares/AI_Runtime/Npu/ll_aton/ll_aton.h ****     IMC,
  99:../../Middlewares/AI_Runtime/Npu/ll_aton/ll_aton.h ****     RECBUF,
 100:../../Middlewares/AI_Runtime/Npu/ll_aton/ll_aton.h ****   };
ARM GAS  C:\Users\Antonio\AppData\Local\Temp\ccynTwLp.s 			page 118


 101:../../Middlewares/AI_Runtime/Npu/ll_aton/ll_aton.h **** 
 102:../../Middlewares/AI_Runtime/Npu/ll_aton/ll_aton.h ****   typedef struct
 103:../../Middlewares/AI_Runtime/Npu/ll_aton/ll_aton.h ****   {
 104:../../Middlewares/AI_Runtime/Npu/ll_aton/ll_aton.h ****     enum AccelUnitsType unit_type;
 105:../../Middlewares/AI_Runtime/Npu/ll_aton/ll_aton.h ****     unsigned short unit_num;
 106:../../Middlewares/AI_Runtime/Npu/ll_aton/ll_aton.h ****   } AccelUnits;
 107:../../Middlewares/AI_Runtime/Npu/ll_aton/ll_aton.h **** 
 108:../../Middlewares/AI_Runtime/Npu/ll_aton/ll_aton.h ****   /**
 109:../../Middlewares/AI_Runtime/Npu/ll_aton/ll_aton.h ****    * @brief  Converts an Aton unit cardinal group id into a global one
 110:../../Middlewares/AI_Runtime/Npu/ll_aton/ll_aton.h ****    * @param  type enum specifying the unit group
 111:../../Middlewares/AI_Runtime/Npu/ll_aton/ll_aton.h ****    * @param  id Cardinal id of the unit in the group
 112:../../Middlewares/AI_Runtime/Npu/ll_aton/ll_aton.h ****    * @retval ATON Unit index
 113:../../Middlewares/AI_Runtime/Npu/ll_aton/ll_aton.h ****    * @todo   Add boundary checks
 114:../../Middlewares/AI_Runtime/Npu/ll_aton/ll_aton.h ****    */
 115:../../Middlewares/AI_Runtime/Npu/ll_aton/ll_aton.h ****   static inline AccelUnits LL_ATON_GetUnit_From_Cardinal_ID(enum AccelUnitsType type, int id)
 116:../../Middlewares/AI_Runtime/Npu/ll_aton/ll_aton.h ****   {
 117:../../Middlewares/AI_Runtime/Npu/ll_aton/ll_aton.h ****     return (AccelUnits){type, (unsigned short)id};
 118:../../Middlewares/AI_Runtime/Npu/ll_aton/ll_aton.h ****   }
 119:../../Middlewares/AI_Runtime/Npu/ll_aton/ll_aton.h **** 
 120:../../Middlewares/AI_Runtime/Npu/ll_aton/ll_aton.h ****   /**
 121:../../Middlewares/AI_Runtime/Npu/ll_aton/ll_aton.h ****    * @brief Activation Unit function types
 122:../../Middlewares/AI_Runtime/Npu/ll_aton/ll_aton.h ****    */
 123:../../Middlewares/AI_Runtime/Npu/ll_aton/ll_aton.h ****   typedef enum
 124:../../Middlewares/AI_Runtime/Npu/ll_aton/ll_aton.h ****   {
 125:../../Middlewares/AI_Runtime/Npu/ll_aton/ll_aton.h ****     ACTIV_RELU = 1,
 126:../../Middlewares/AI_Runtime/Npu/ll_aton/ll_aton.h ****     ACTIV_PRELU,
 127:../../Middlewares/AI_Runtime/Npu/ll_aton/ll_aton.h ****     ACTIV_TRELU,
 128:../../Middlewares/AI_Runtime/Npu/ll_aton/ll_aton.h ****     ACTIV_FUNC,
 129:../../Middlewares/AI_Runtime/Npu/ll_aton/ll_aton.h ****     ACTIV_LUT
 130:../../Middlewares/AI_Runtime/Npu/ll_aton/ll_aton.h ****   } LL_Activacc_Op;
 131:../../Middlewares/AI_Runtime/Npu/ll_aton/ll_aton.h **** 
 132:../../Middlewares/AI_Runtime/Npu/ll_aton/ll_aton.h ****   /**
 133:../../Middlewares/AI_Runtime/Npu/ll_aton/ll_aton.h ****    * @brief Activation unit Accelerator configuration structure
 134:../../Middlewares/AI_Runtime/Npu/ll_aton/ll_aton.h ****    */
 135:../../Middlewares/AI_Runtime/Npu/ll_aton/ll_aton.h ****   typedef struct
 136:../../Middlewares/AI_Runtime/Npu/ll_aton/ll_aton.h ****   {
 137:../../Middlewares/AI_Runtime/Npu/ll_aton/ll_aton.h ****     unsigned rounding_f : 1;     /**< Input feature data rounding control: 1=enable,0=disable */
 138:../../Middlewares/AI_Runtime/Npu/ll_aton/ll_aton.h ****     unsigned saturation_f : 1;   /**< Input feature data saturation control: 1=enable,0=disable */
 139:../../Middlewares/AI_Runtime/Npu/ll_aton/ll_aton.h ****     unsigned round_mode_f : 2;   /**< Input feature round mode */
 140:../../Middlewares/AI_Runtime/Npu/ll_aton/ll_aton.h ****     unsigned inbytes_f : 2;      /**< Input data width in bytes. Valid values are 1, 2 or 3 bytes *
 141:../../Middlewares/AI_Runtime/Npu/ll_aton/ll_aton.h ****     unsigned outbytes_f : 2;     /**< Input feature output bytes after shift. Valid values are 1 or
 142:../../Middlewares/AI_Runtime/Npu/ll_aton/ll_aton.h ****     unsigned rounding_o : 1;     /**< Output rounding control, 1=enable,0=disable */
 143:../../Middlewares/AI_Runtime/Npu/ll_aton/ll_aton.h ****     unsigned saturation_o : 1;   /**< Output saturation control,1=enable,0=disable */
 144:../../Middlewares/AI_Runtime/Npu/ll_aton/ll_aton.h ****     unsigned round_mode_o : 1;   /**< Output rounding mode */
 145:../../Middlewares/AI_Runtime/Npu/ll_aton/ll_aton.h ****     unsigned relu_mode_o : 1;    /**< Apply Relu operation before rounding */
 146:../../Middlewares/AI_Runtime/Npu/ll_aton/ll_aton.h ****     unsigned outbytes_o : 2;     /**< Number of output bytes: 1, 2 or 3 */
 147:../../Middlewares/AI_Runtime/Npu/ll_aton/ll_aton.h ****     unsigned signedop : 1;       /**< Signed/unsigned activations: 0: unsigned activations, 1 signe
 148:../../Middlewares/AI_Runtime/Npu/ll_aton/ll_aton.h ****     unsigned char shift_f;       /**< Input feature data shift. Negative values represent left shif
 149:../../Middlewares/AI_Runtime/Npu/ll_aton/ll_aton.h ****     unsigned char shift_o;       /**< Optional right shift to be applied to the function evaluator 
 150:../../Middlewares/AI_Runtime/Npu/ll_aton/ll_aton.h ****     unsigned parameter;          /**< ReLU parameter */
 151:../../Middlewares/AI_Runtime/Npu/ll_aton/ll_aton.h ****     unsigned parameter_2;        /**< Zero offset for TRELU operation for use in scale/offset integ
 152:../../Middlewares/AI_Runtime/Npu/ll_aton/ll_aton.h ****                                   *   Needs zp alignment */
 153:../../Middlewares/AI_Runtime/Npu/ll_aton/ll_aton.h ****     unsigned nbytes;             /**< Number of bytes of input data  */
 154:../../Middlewares/AI_Runtime/Npu/ll_aton/ll_aton.h ****     ll_aton_pointer ROM0_vector; /**< Address of ROM0 coefficients table */
 155:../../Middlewares/AI_Runtime/Npu/ll_aton/ll_aton.h ****     ll_aton_pointer ROM1_vector; /**< Address of ROM1 coefficients table */
 156:../../Middlewares/AI_Runtime/Npu/ll_aton/ll_aton.h ****     ll_aton_pointer LUT_vector;  /**< Address of LUT coefficients table */
 157:../../Middlewares/AI_Runtime/Npu/ll_aton/ll_aton.h ****     unsigned ROM0_nbytes;        /**< Length of ROM0 table */
ARM GAS  C:\Users\Antonio\AppData\Local\Temp\ccynTwLp.s 			page 119


 158:../../Middlewares/AI_Runtime/Npu/ll_aton/ll_aton.h ****     unsigned ROM1_nbytes;        /**< Length of ROM1 table */
 159:../../Middlewares/AI_Runtime/Npu/ll_aton/ll_aton.h ****     unsigned char shift_b;       /**< Optional left shift to be applied to coefficient B */
 160:../../Middlewares/AI_Runtime/Npu/ll_aton/ll_aton.h ****     unsigned char shift_c;       /**< Optional left shift to be applied to coefficient C */
 161:../../Middlewares/AI_Runtime/Npu/ll_aton/ll_aton.h ****     unsigned char shift_norm;    /**< Function input range normalization left shift parameter */
 162:../../Middlewares/AI_Runtime/Npu/ll_aton/ll_aton.h ****     unsigned char bwidth;        /**< Number of MSB bits of the input activation to be used to addr
 163:../../Middlewares/AI_Runtime/Npu/ll_aton/ll_aton.h ****                                   *   This field configures the number of outer segments (max outer
 164:../../Middlewares/AI_Runtime/Npu/ll_aton/ll_aton.h ****                                   *   Valid values range = 0,1,2,3,4 and 5 corresponding to 1,2,4,8
 165:../../Middlewares/AI_Runtime/Npu/ll_aton/ll_aton.h ****                                   *   respectively */
 166:../../Middlewares/AI_Runtime/Npu/ll_aton/ll_aton.h ****     int fsub;                    /**< Feature data subtract value */
 167:../../Middlewares/AI_Runtime/Npu/ll_aton/ll_aton.h ****     LL_Activacc_Op operation;    /**< Activation type. See LL_Activacc_Op */
 168:../../Middlewares/AI_Runtime/Npu/ll_aton/ll_aton.h ****   } LL_Activacc_InitTypeDef;
 169:../../Middlewares/AI_Runtime/Npu/ll_aton/ll_aton.h **** 
 170:../../Middlewares/AI_Runtime/Npu/ll_aton/ll_aton.h ****   /** @defgroup LL_ACTIV Activation unit configuration functions
 171:../../Middlewares/AI_Runtime/Npu/ll_aton/ll_aton.h ****    * @{
 172:../../Middlewares/AI_Runtime/Npu/ll_aton/ll_aton.h ****    */
 173:../../Middlewares/AI_Runtime/Npu/ll_aton/ll_aton.h ****   int LL_Activacc_Init(int id, const LL_Activacc_InitTypeDef *Activacc_InitStruct);
 174:../../Middlewares/AI_Runtime/Npu/ll_aton/ll_aton.h ****   /**
 175:../../Middlewares/AI_Runtime/Npu/ll_aton/ll_aton.h ****    * @}
 176:../../Middlewares/AI_Runtime/Npu/ll_aton/ll_aton.h ****    */
 177:../../Middlewares/AI_Runtime/Npu/ll_aton/ll_aton.h **** 
 178:../../Middlewares/AI_Runtime/Npu/ll_aton/ll_aton.h ****   /**
 179:../../Middlewares/AI_Runtime/Npu/ll_aton/ll_aton.h ****    * @brief Arithmetic unit operations
 180:../../Middlewares/AI_Runtime/Npu/ll_aton/ll_aton.h ****    */
 181:../../Middlewares/AI_Runtime/Npu/ll_aton/ll_aton.h ****   typedef enum
 182:../../Middlewares/AI_Runtime/Npu/ll_aton/ll_aton.h ****   {
 183:../../Middlewares/AI_Runtime/Npu/ll_aton/ll_aton.h ****     ARITH_AFFINE = 1,
 184:../../Middlewares/AI_Runtime/Npu/ll_aton/ll_aton.h ****     ARITH_MIN,
 185:../../Middlewares/AI_Runtime/Npu/ll_aton/ll_aton.h ****     ARITH_MAX,
 186:../../Middlewares/AI_Runtime/Npu/ll_aton/ll_aton.h ****     ARITH_MUL,
 187:../../Middlewares/AI_Runtime/Npu/ll_aton/ll_aton.h ****     ARITH_X_AND_Y,
 188:../../Middlewares/AI_Runtime/Npu/ll_aton/ll_aton.h ****     ARITH_X_OR_Y,
 189:../../Middlewares/AI_Runtime/Npu/ll_aton/ll_aton.h ****     ARITH_NOT_X,
 190:../../Middlewares/AI_Runtime/Npu/ll_aton/ll_aton.h ****     ARITH_X_XOR_Y,
 191:../../Middlewares/AI_Runtime/Npu/ll_aton/ll_aton.h ****     ARITH_X_EQ_Y,
 192:../../Middlewares/AI_Runtime/Npu/ll_aton/ll_aton.h ****     ARITH_X_LT_Y,
 193:../../Middlewares/AI_Runtime/Npu/ll_aton/ll_aton.h ****     ARITH_X_LE_Y,
 194:../../Middlewares/AI_Runtime/Npu/ll_aton/ll_aton.h ****     ARITH_X_GT_Y,
 195:../../Middlewares/AI_Runtime/Npu/ll_aton/ll_aton.h ****     ARITH_X_GE_Y,
 196:../../Middlewares/AI_Runtime/Npu/ll_aton/ll_aton.h ****     ARITH_ABS_X,
 197:../../Middlewares/AI_Runtime/Npu/ll_aton/ll_aton.h ****     ARITH_SIGN_X,
 198:../../Middlewares/AI_Runtime/Npu/ll_aton/ll_aton.h ****     ARITH_CLIP
 199:../../Middlewares/AI_Runtime/Npu/ll_aton/ll_aton.h ****   } LL_Arithacc_Op;
 200:../../Middlewares/AI_Runtime/Npu/ll_aton/ll_aton.h **** 
 201:../../Middlewares/AI_Runtime/Npu/ll_aton/ll_aton.h ****   /**
 202:../../Middlewares/AI_Runtime/Npu/ll_aton/ll_aton.h ****    * @brief Arithmetic constant broadcast modes
 203:../../Middlewares/AI_Runtime/Npu/ll_aton/ll_aton.h ****    */
 204:../../Middlewares/AI_Runtime/Npu/ll_aton/ll_aton.h ****   typedef enum
 205:../../Middlewares/AI_Runtime/Npu/ll_aton/ll_aton.h ****   {
 206:../../Middlewares/AI_Runtime/Npu/ll_aton/ll_aton.h ****     ARITH_BCAST_NONE,
 207:../../Middlewares/AI_Runtime/Npu/ll_aton/ll_aton.h ****     ARITH_BCAST_CHAN,
 208:../../Middlewares/AI_Runtime/Npu/ll_aton/ll_aton.h ****     ARITH_BCAST_HEIGHT,
 209:../../Middlewares/AI_Runtime/Npu/ll_aton/ll_aton.h ****     ARITH_BCAST_WIDTH,
 210:../../Middlewares/AI_Runtime/Npu/ll_aton/ll_aton.h ****     ARITH_BCAST_HEIGHT_WIDTH,
 211:../../Middlewares/AI_Runtime/Npu/ll_aton/ll_aton.h ****     ARITH_BCAST_SCALAR,
 212:../../Middlewares/AI_Runtime/Npu/ll_aton/ll_aton.h ****   } LL_Arithacc_Bcast;
 213:../../Middlewares/AI_Runtime/Npu/ll_aton/ll_aton.h **** 
 214:../../Middlewares/AI_Runtime/Npu/ll_aton/ll_aton.h ****   /**
ARM GAS  C:\Users\Antonio\AppData\Local\Temp\ccynTwLp.s 			page 120


 215:../../Middlewares/AI_Runtime/Npu/ll_aton/ll_aton.h ****    *	@brief Arithmetic unit Accelerator configuration structure
 216:../../Middlewares/AI_Runtime/Npu/ll_aton/ll_aton.h ****    */
 217:../../Middlewares/AI_Runtime/Npu/ll_aton/ll_aton.h ****   typedef struct
 218:../../Middlewares/AI_Runtime/Npu/ll_aton/ll_aton.h ****   {
 219:../../Middlewares/AI_Runtime/Npu/ll_aton/ll_aton.h ****     unsigned rounding_x : 1;   /**< Input feature data rounding for stream X */
 220:../../Middlewares/AI_Runtime/Npu/ll_aton/ll_aton.h ****     unsigned saturation_x : 1; /**< Input feature data saturation for stream X */
 221:../../Middlewares/AI_Runtime/Npu/ll_aton/ll_aton.h ****     unsigned round_mode_x : 2; /**< Input feature data rounding mode for stream X */
 222:../../Middlewares/AI_Runtime/Npu/ll_aton/ll_aton.h ****     unsigned inbytes_x : 2;    /**< Input data width in bytes for stream X. Valid values are 1, 2 o
 223:../../Middlewares/AI_Runtime/Npu/ll_aton/ll_aton.h ****     unsigned outbytes_x : 2;   /**< Number of output bytes to use for input feature data of stream 
 224:../../Middlewares/AI_Runtime/Npu/ll_aton/ll_aton.h ****                                 *  saturation. Valid values are 1 or 2 bytes */
 225:../../Middlewares/AI_Runtime/Npu/ll_aton/ll_aton.h ****     signed char shift_x;       /**< Input feature data shift for stream X. Use negative values for 
 226:../../Middlewares/AI_Runtime/Npu/ll_aton/ll_aton.h ****     unsigned rounding_y : 1;   /**< Input feature data rounding for stream Y */
 227:../../Middlewares/AI_Runtime/Npu/ll_aton/ll_aton.h ****     unsigned saturation_y : 1; /**< Input feature data saturation for stream Y */
 228:../../Middlewares/AI_Runtime/Npu/ll_aton/ll_aton.h ****     unsigned round_mode_y : 2; /**< Input feature data rounding mode for stream Y */
 229:../../Middlewares/AI_Runtime/Npu/ll_aton/ll_aton.h ****     unsigned inbytes_y : 2;    /**< Input data width in bytes for stream Y. Valid values are 1, 2 o
 230:../../Middlewares/AI_Runtime/Npu/ll_aton/ll_aton.h ****     unsigned outbytes_y : 2;   /**< Number of output bytes to use for input feature data of stream 
 231:../../Middlewares/AI_Runtime/Npu/ll_aton/ll_aton.h ****                                 *  saturation. Valid values are 1 or 2 bytes */
 232:../../Middlewares/AI_Runtime/Npu/ll_aton/ll_aton.h ****     unsigned combinebc : 1;    /**< Combine coeff B and C to form a 32b coeff BC = {B[15:0],C[15:0]
 233:../../Middlewares/AI_Runtime/Npu/ll_aton/ll_aton.h ****     unsigned clipout : 1;      /**< Controls output clipping to range specified by clip range confi
 234:../../Middlewares/AI_Runtime/Npu/ll_aton/ll_aton.h ****                                 *  0=disable */
 235:../../Middlewares/AI_Runtime/Npu/ll_aton/ll_aton.h ****     signed char shift_y;       /**< Input feature data shift for stream Y. Use negative values for 
 236:../../Middlewares/AI_Runtime/Npu/ll_aton/ll_aton.h ****     unsigned rounding_o : 1;   /**< Rounding control, 1=enable, 0=disable */
 237:../../Middlewares/AI_Runtime/Npu/ll_aton/ll_aton.h ****     unsigned saturation_o : 1; /**< Saturation control, 1=enable, 0=disable */
 238:../../Middlewares/AI_Runtime/Npu/ll_aton/ll_aton.h ****     unsigned round_mode_o : 1; /**< Otput rounding mode control */
 239:../../Middlewares/AI_Runtime/Npu/ll_aton/ll_aton.h ****     unsigned relu_mode_o : 1;  /**< Apply Relu operation before rounding */
 240:../../Middlewares/AI_Runtime/Npu/ll_aton/ll_aton.h ****     unsigned outbytes_o : 2;   /**< Number of output bytes: 1 or 2 */
 241:../../Middlewares/AI_Runtime/Npu/ll_aton/ll_aton.h ****     unsigned char shift_o;     /**< Optional right shift to apply to final result of operation */
 242:../../Middlewares/AI_Runtime/Npu/ll_aton/ll_aton.h ****     unsigned scalar : 1;       /**< Set Scalar/Vector mode */
 243:../../Middlewares/AI_Runtime/Npu/ll_aton/ll_aton.h ****     unsigned dualinput : 1;    /**< Dual input control, 1=both X,Y streams valid, 0=only X stream i
 244:../../Middlewares/AI_Runtime/Npu/ll_aton/ll_aton.h ****     LL_Arithacc_Op operation;  /**< Arithmetic operation to be applied. See LL_Arithacc_Op */
 245:../../Middlewares/AI_Runtime/Npu/ll_aton/ll_aton.h ****     LL_Arithacc_Bcast bcast;   /**< Set constant broadcast modes. See LL_Arithacc_Bcast */
 246:../../Middlewares/AI_Runtime/Npu/ll_aton/ll_aton.h ****     unsigned char Ax_shift;    /**< Optional right shift to result of Ax */
 247:../../Middlewares/AI_Runtime/Npu/ll_aton/ll_aton.h ****     unsigned char By_shift;    /**< Optional right shift to result of By */
 248:../../Middlewares/AI_Runtime/Npu/ll_aton/ll_aton.h ****     unsigned char C_shift;     /**< Optional left shift to apply to C */
 249:../../Middlewares/AI_Runtime/Npu/ll_aton/ll_aton.h ****     unsigned fWidth;           /**< Feature width */
 250:../../Middlewares/AI_Runtime/Npu/ll_aton/ll_aton.h ****     unsigned fHeight;          /**< Feature height */
 251:../../Middlewares/AI_Runtime/Npu/ll_aton/ll_aton.h ****     unsigned short fChannels;  /**< Number of feature channels */
 252:../../Middlewares/AI_Runtime/Npu/ll_aton/ll_aton.h ****     unsigned short batchDepth; /**< Batch depth */
 253:../../Middlewares/AI_Runtime/Npu/ll_aton/ll_aton.h ****     short clipmin;             /**< Signed 16b value specifying output clip min */
 254:../../Middlewares/AI_Runtime/Npu/ll_aton/ll_aton.h ****     short clipmax;             /**< Signed 16b value specifying output clip max */
 255:../../Middlewares/AI_Runtime/Npu/ll_aton/ll_aton.h ****     short A_scalar;            /**< Scalar coefficient A */
 256:../../Middlewares/AI_Runtime/Npu/ll_aton/ll_aton.h ****     short B_scalar;            /**< Scalar coefficient B */
 257:../../Middlewares/AI_Runtime/Npu/ll_aton/ll_aton.h ****     short C_scalar;            /**< Scalar coefficient C */
 258:../../Middlewares/AI_Runtime/Npu/ll_aton/ll_aton.h ****     ll_aton_pointer A_vector;  /**< Address of A vector table */
 259:../../Middlewares/AI_Runtime/Npu/ll_aton/ll_aton.h ****     ll_aton_pointer B_vector;  /**< Address of B vector table */
 260:../../Middlewares/AI_Runtime/Npu/ll_aton/ll_aton.h ****     ll_aton_pointer C_vector;  /**< Address of C vector table */
 261:../../Middlewares/AI_Runtime/Npu/ll_aton/ll_aton.h ****     unsigned char vec_precision[3]; /**< Number of bits for A, B and C vectors */
 262:../../Middlewares/AI_Runtime/Npu/ll_aton/ll_aton.h ****   } LL_Arithacc_InitTypeDef;
 263:../../Middlewares/AI_Runtime/Npu/ll_aton/ll_aton.h **** 
 264:../../Middlewares/AI_Runtime/Npu/ll_aton/ll_aton.h ****   /** @defgroup LL_ARITH Arithmetic Unit configuration functions
 265:../../Middlewares/AI_Runtime/Npu/ll_aton/ll_aton.h ****    * @{
 266:../../Middlewares/AI_Runtime/Npu/ll_aton/ll_aton.h ****    */
 267:../../Middlewares/AI_Runtime/Npu/ll_aton/ll_aton.h ****   int LL_Arithacc_Init(int id, const LL_Arithacc_InitTypeDef *Arithacc_InitStruct);
 268:../../Middlewares/AI_Runtime/Npu/ll_aton/ll_aton.h ****   /**
 269:../../Middlewares/AI_Runtime/Npu/ll_aton/ll_aton.h ****    * @}
 270:../../Middlewares/AI_Runtime/Npu/ll_aton/ll_aton.h ****    */
 271:../../Middlewares/AI_Runtime/Npu/ll_aton/ll_aton.h **** 
ARM GAS  C:\Users\Antonio\AppData\Local\Temp\ccynTwLp.s 			page 121


 272:../../Middlewares/AI_Runtime/Npu/ll_aton/ll_aton.h ****   typedef enum
 273:../../Middlewares/AI_Runtime/Npu/ll_aton/ll_aton.h ****   {
 274:../../Middlewares/AI_Runtime/Npu/ll_aton/ll_aton.h ****     AFILT_MODE_NONE = 0,
 275:../../Middlewares/AI_Runtime/Npu/ll_aton/ll_aton.h ****     AFILT_MODE_PIXELDROP = 1,
 276:../../Middlewares/AI_Runtime/Npu/ll_aton/ll_aton.h ****     AFILT_MODE_FRAMEDROP = 2,
 277:../../Middlewares/AI_Runtime/Npu/ll_aton/ll_aton.h ****     AFILT_MODE_FRAMEZERO = 3
 278:../../Middlewares/AI_Runtime/Npu/ll_aton/ll_aton.h ****   } LL_Convacc_Afilt_Mode;
 279:../../Middlewares/AI_Runtime/Npu/ll_aton/ll_aton.h **** 
 280:../../Middlewares/AI_Runtime/Npu/ll_aton/ll_aton.h ****   /**
 281:../../Middlewares/AI_Runtime/Npu/ll_aton/ll_aton.h ****    *	@brief Convolutional Accelerator configuration structure
 282:../../Middlewares/AI_Runtime/Npu/ll_aton/ll_aton.h ****    */
 283:../../Middlewares/AI_Runtime/Npu/ll_aton/ll_aton.h ****   typedef struct
 284:../../Middlewares/AI_Runtime/Npu/ll_aton/ll_aton.h ****   {
 285:../../Middlewares/AI_Runtime/Npu/ll_aton/ll_aton.h ****     unsigned rounding_f : 1;           /**< Input feature data rounding */
 286:../../Middlewares/AI_Runtime/Npu/ll_aton/ll_aton.h ****     unsigned saturation_f : 1;         /**< Input feature data saturation */
 287:../../Middlewares/AI_Runtime/Npu/ll_aton/ll_aton.h ****     unsigned round_mode_f : 2;         /**< Output data rounding mode */
 288:../../Middlewares/AI_Runtime/Npu/ll_aton/ll_aton.h ****     unsigned inbytes_f : 2;            /**< Input data width in bytes */
 289:../../Middlewares/AI_Runtime/Npu/ll_aton/ll_aton.h ****     unsigned rounding_o : 1;           /**< Output data rounding after right shift */
 290:../../Middlewares/AI_Runtime/Npu/ll_aton/ll_aton.h ****     unsigned saturation_o : 1;         /**< Output saturation */
 291:../../Middlewares/AI_Runtime/Npu/ll_aton/ll_aton.h ****     unsigned round_mode_o : 1;         /**< Output data rounding mode */
 292:../../Middlewares/AI_Runtime/Npu/ll_aton/ll_aton.h ****     unsigned relu_mode_o : 1;          /**< Apply Relu operation before rounding */
 293:../../Middlewares/AI_Runtime/Npu/ll_aton/ll_aton.h ****     unsigned outbytes_o : 2;           /**< Output data width in bytes */
 294:../../Middlewares/AI_Runtime/Npu/ll_aton/ll_aton.h ****     unsigned simd : 2;                 /**< Enable 8x8bit (1) or 16x8bit (2) SIMD mode */
 295:../../Middlewares/AI_Runtime/Npu/ll_aton/ll_aton.h ****     unsigned accumulate : 1;           /**< Sum and synchronize with stream link input #2 */
 296:../../Middlewares/AI_Runtime/Npu/ll_aton/ll_aton.h ****     unsigned accumulate_first : 1;     /**< No sum and synchronization with stream link input #2 fo
 297:../../Middlewares/AI_Runtime/Npu/ll_aton/ll_aton.h ****     unsigned accumulate_gen_first : 1; /**< Generate first accumulator input frame internally */
 298:../../Middlewares/AI_Runtime/Npu/ll_aton/ll_aton.h ****     unsigned fstat : 1;                /**< Feature data stationary */
 299:../../Middlewares/AI_Runtime/Npu/ll_aton/ll_aton.h ****     unsigned raw_o : 1;                /**< Use RAW file output format */
 300:../../Middlewares/AI_Runtime/Npu/ll_aton/ll_aton.h ****     unsigned kt1_mode : 1;             /**< Load kernel from T1 buffer */
 301:../../Middlewares/AI_Runtime/Npu/ll_aton/ll_aton.h ****     unsigned deepmode : 1;             /**< Enable Deep1x1 optimized mode */
 302:../../Middlewares/AI_Runtime/Npu/ll_aton/ll_aton.h ****     unsigned dss2mode : 1;             /**< Enable DSS2 (depth separable stride 2) optimized mode *
 303:../../Middlewares/AI_Runtime/Npu/ll_aton/ll_aton.h ****     unsigned f_unsigned : 1;           /**< Feature data unsigned */
 304:../../Middlewares/AI_Runtime/Npu/ll_aton/ll_aton.h ****     unsigned k_unsigned : 1;           /**< Kernel data unsigned */
 305:../../Middlewares/AI_Runtime/Npu/ll_aton/ll_aton.h ****     unsigned kseten : 2;               /**< Enable kernel set 0 (bit 0) or 1 (bit 1) if KT1 is 1,
 306:../../Middlewares/AI_Runtime/Npu/ll_aton/ll_aton.h ****                                         *   otherwise select byte 1 (0), byte 2 (1), byte 3 (2) or
 307:../../Middlewares/AI_Runtime/Npu/ll_aton/ll_aton.h ****                                         *   all bytes (Deep1x1 mode only) (3) of kernel stream in S
 308:../../Middlewares/AI_Runtime/Npu/ll_aton/ll_aton.h ****     unsigned char shift_f;             /**< Input feature data shift */
 309:../../Middlewares/AI_Runtime/Npu/ll_aton/ll_aton.h ****     unsigned char shift_a;             /**< Accumulator data input signed left shift */
 310:../../Middlewares/AI_Runtime/Npu/ll_aton/ll_aton.h ****     unsigned char shift_o;             /**< Result data output signed right shift */
 311:../../Middlewares/AI_Runtime/Npu/ll_aton/ll_aton.h ****     unsigned fWidth;                   /**< Feature data width */
 312:../../Middlewares/AI_Runtime/Npu/ll_aton/ll_aton.h ****     unsigned fHeight;                  /**< Feature data height */
 313:../../Middlewares/AI_Runtime/Npu/ll_aton/ll_aton.h ****     unsigned char kernelWidth;         /**< Kernel width */
 314:../../Middlewares/AI_Runtime/Npu/ll_aton/ll_aton.h ****     unsigned char kernelHeight;        /**< Kernel height */
 315:../../Middlewares/AI_Runtime/Npu/ll_aton/ll_aton.h ****     unsigned char nKernels;            /**< Total number of parallel kernels */
 316:../../Middlewares/AI_Runtime/Npu/ll_aton/ll_aton.h ****     unsigned short batchDepth;         /**< Batch Depth */
 317:../../Middlewares/AI_Runtime/Npu/ll_aton/ll_aton.h ****     unsigned char hstride;             /**< Horizontal stride */
 318:../../Middlewares/AI_Runtime/Npu/ll_aton/ll_aton.h ****     unsigned char vstride;             /**< Vertical stride */
 319:../../Middlewares/AI_Runtime/Npu/ll_aton/ll_aton.h ****     unsigned short left_padding;       /**< Number of vertical left dummy columns */
 320:../../Middlewares/AI_Runtime/Npu/ll_aton/ll_aton.h ****     unsigned short right_padding;      /**< Number of vertical right dummy columns */
 321:../../Middlewares/AI_Runtime/Npu/ll_aton/ll_aton.h ****     unsigned short top_padding;        /**< Number of horizontal top dummy lines */
 322:../../Middlewares/AI_Runtime/Npu/ll_aton/ll_aton.h ****     unsigned short bot_padding;        /**< Number of horizontal bottom dummy lines */
 323:../../Middlewares/AI_Runtime/Npu/ll_aton/ll_aton.h ****     unsigned short left_crop;          /**< Left feature data boundary */
 324:../../Middlewares/AI_Runtime/Npu/ll_aton/ll_aton.h ****     unsigned short right_crop;         /**< Right feature data boundary */
 325:../../Middlewares/AI_Runtime/Npu/ll_aton/ll_aton.h ****     unsigned short top_crop;           /**< Top feature data boundary */
 326:../../Middlewares/AI_Runtime/Npu/ll_aton/ll_aton.h ****     unsigned short bot_crop;           /**< Bottom feature data boundary */
 327:../../Middlewares/AI_Runtime/Npu/ll_aton/ll_aton.h ****     unsigned short fstatcnt;           /**< Number of frames before next reload of feature stationa
 328:../../Middlewares/AI_Runtime/Npu/ll_aton/ll_aton.h ****     LL_Convacc_Afilt_Mode afilt_mode;  /**< Accumulator port filter mode. See LL_Convacc_Afilt_Mode
ARM GAS  C:\Users\Antonio\AppData\Local\Temp\ccynTwLp.s 			page 122


 329:../../Middlewares/AI_Runtime/Npu/ll_aton/ll_aton.h ****     unsigned char afilt_tot;           /**< Total number of accumulation tensors */
 330:../../Middlewares/AI_Runtime/Npu/ll_aton/ll_aton.h ****     unsigned char afilt_first;         /**< First accumulation tensor */
 331:../../Middlewares/AI_Runtime/Npu/ll_aton/ll_aton.h ****     unsigned char afilt_last;          /**< Last accumulation tensor */
 332:../../Middlewares/AI_Runtime/Npu/ll_aton/ll_aton.h ****     unsigned char kfilt_tot;           /**< Total number of kernels */
 333:../../Middlewares/AI_Runtime/Npu/ll_aton/ll_aton.h ****     unsigned char kfilt_first;         /**< First kernel */
 334:../../Middlewares/AI_Runtime/Npu/ll_aton/ll_aton.h ****     unsigned char kfilt_last;          /**< Last kernel */
 335:../../Middlewares/AI_Runtime/Npu/ll_aton/ll_aton.h ****     int fsub;                          /**< Feature data subtract value */
 336:../../Middlewares/AI_Runtime/Npu/ll_aton/ll_aton.h ****     short zfbias;                      /**< Bias added to zero frames */
 337:../../Middlewares/AI_Runtime/Npu/ll_aton/ll_aton.h ****   } LL_Convacc_InitTypeDef;
 338:../../Middlewares/AI_Runtime/Npu/ll_aton/ll_aton.h **** 
 339:../../Middlewares/AI_Runtime/Npu/ll_aton/ll_aton.h ****   /** @defgroup LL_CONVACC Convolutional accelerator unit configuration functions
 340:../../Middlewares/AI_Runtime/Npu/ll_aton/ll_aton.h ****    * @{
 341:../../Middlewares/AI_Runtime/Npu/ll_aton/ll_aton.h ****    */
 342:../../Middlewares/AI_Runtime/Npu/ll_aton/ll_aton.h ****   int LL_Convacc_Init(int id, const LL_Convacc_InitTypeDef *Convacc_InitStruct);
 343:../../Middlewares/AI_Runtime/Npu/ll_aton/ll_aton.h ****   /**
 344:../../Middlewares/AI_Runtime/Npu/ll_aton/ll_aton.h ****    * @}
 345:../../Middlewares/AI_Runtime/Npu/ll_aton/ll_aton.h ****    */
 346:../../Middlewares/AI_Runtime/Npu/ll_aton/ll_aton.h **** 
 347:../../Middlewares/AI_Runtime/Npu/ll_aton/ll_aton.h ****   /**
 348:../../Middlewares/AI_Runtime/Npu/ll_aton/ll_aton.h ****    * @brief Pooling Acceleration supported operations
 349:../../Middlewares/AI_Runtime/Npu/ll_aton/ll_aton.h ****    */
 350:../../Middlewares/AI_Runtime/Npu/ll_aton/ll_aton.h ****   typedef enum
 351:../../Middlewares/AI_Runtime/Npu/ll_aton/ll_aton.h ****   {
 352:../../Middlewares/AI_Runtime/Npu/ll_aton/ll_aton.h ****     POOL_MAX = 1,
 353:../../Middlewares/AI_Runtime/Npu/ll_aton/ll_aton.h ****     POOL_MIN,
 354:../../Middlewares/AI_Runtime/Npu/ll_aton/ll_aton.h ****     POOL_AVG,
 355:../../Middlewares/AI_Runtime/Npu/ll_aton/ll_aton.h ****     POOL_GMAX,
 356:../../Middlewares/AI_Runtime/Npu/ll_aton/ll_aton.h ****     POOL_GMIN,
 357:../../Middlewares/AI_Runtime/Npu/ll_aton/ll_aton.h ****     POOL_GAVG
 358:../../Middlewares/AI_Runtime/Npu/ll_aton/ll_aton.h ****   } LL_Poolacc_Op;
 359:../../Middlewares/AI_Runtime/Npu/ll_aton/ll_aton.h **** 
 360:../../Middlewares/AI_Runtime/Npu/ll_aton/ll_aton.h ****   /**
 361:../../Middlewares/AI_Runtime/Npu/ll_aton/ll_aton.h ****    * @brief Pooling Accelerator configuration structure
 362:../../Middlewares/AI_Runtime/Npu/ll_aton/ll_aton.h ****    */
 363:../../Middlewares/AI_Runtime/Npu/ll_aton/ll_aton.h ****   typedef struct
 364:../../Middlewares/AI_Runtime/Npu/ll_aton/ll_aton.h ****   {
 365:../../Middlewares/AI_Runtime/Npu/ll_aton/ll_aton.h ****     LL_Poolacc_Op operation;   /**< Pooling operation type. See LL_Poolacc_Op */
 366:../../Middlewares/AI_Runtime/Npu/ll_aton/ll_aton.h ****     unsigned avgnopad : 1;     /**< Average pooling operation without padding */
 367:../../Middlewares/AI_Runtime/Npu/ll_aton/ll_aton.h ****     unsigned short inputX;     /**< Size X of the input feature */
 368:../../Middlewares/AI_Runtime/Npu/ll_aton/ll_aton.h ****     unsigned short inputY;     /**< Size Y of the input feature */
 369:../../Middlewares/AI_Runtime/Npu/ll_aton/ll_aton.h ****     unsigned short outputX;    /**< Size X of the output data */
 370:../../Middlewares/AI_Runtime/Npu/ll_aton/ll_aton.h ****     unsigned short outputY;    /**< Size Y of the output data */
 371:../../Middlewares/AI_Runtime/Npu/ll_aton/ll_aton.h ****     unsigned char poolWinX;    /**< Size X of pooling window */
 372:../../Middlewares/AI_Runtime/Npu/ll_aton/ll_aton.h ****     unsigned char poolWinY;    /**< Size Y of pooling window */
 373:../../Middlewares/AI_Runtime/Npu/ll_aton/ll_aton.h ****     unsigned char strideX;     /**< Stride value in X direction */
 374:../../Middlewares/AI_Runtime/Npu/ll_aton/ll_aton.h ****     unsigned char strideY;     /**< Stride value in Y direction */
 375:../../Middlewares/AI_Runtime/Npu/ll_aton/ll_aton.h ****     unsigned short topCrop;    /**< Top cropping size */
 376:../../Middlewares/AI_Runtime/Npu/ll_aton/ll_aton.h ****     unsigned short bottomCrop; /**< Bottom cropping size */
 377:../../Middlewares/AI_Runtime/Npu/ll_aton/ll_aton.h ****     unsigned short leftCrop;   /**< Left cropping size */
 378:../../Middlewares/AI_Runtime/Npu/ll_aton/ll_aton.h ****     unsigned short rightCrop;  /**< Right cropping size */
 379:../../Middlewares/AI_Runtime/Npu/ll_aton/ll_aton.h ****     unsigned short topPad;     /**< Top padding size */
 380:../../Middlewares/AI_Runtime/Npu/ll_aton/ll_aton.h ****     unsigned short bottomPad;  /**< Bottom padding size */
 381:../../Middlewares/AI_Runtime/Npu/ll_aton/ll_aton.h ****     unsigned short leftPad;    /**< Left padding size */
 382:../../Middlewares/AI_Runtime/Npu/ll_aton/ll_aton.h ****     unsigned short rightPad;   /**< Right padding size */
 383:../../Middlewares/AI_Runtime/Npu/ll_aton/ll_aton.h ****     unsigned short batchSize;  /**< Batch size */
 384:../../Middlewares/AI_Runtime/Npu/ll_aton/ll_aton.h ****     unsigned char shift_f;     /**< Input feature data shift */
 385:../../Middlewares/AI_Runtime/Npu/ll_aton/ll_aton.h ****     unsigned char shift_o;     /**< Optional right shift to apply the average pooling output */
ARM GAS  C:\Users\Antonio\AppData\Local\Temp\ccynTwLp.s 			page 123


 386:../../Middlewares/AI_Runtime/Npu/ll_aton/ll_aton.h ****     unsigned dualLine : 1;     /**< Enable dual line, allows each linebuffer line to work as 2 line
 387:../../Middlewares/AI_Runtime/Npu/ll_aton/ll_aton.h ****                                 *   applicable for 8-bit data */
 388:../../Middlewares/AI_Runtime/Npu/ll_aton/ll_aton.h ****     unsigned nbytes : 2;       /**< input data number of bytes */
 389:../../Middlewares/AI_Runtime/Npu/ll_aton/ll_aton.h ****     unsigned rounding_f : 1;   /**< Input feature data rounding */
 390:../../Middlewares/AI_Runtime/Npu/ll_aton/ll_aton.h ****     unsigned saturation_f : 1; /**< Input feature data saturation */
 391:../../Middlewares/AI_Runtime/Npu/ll_aton/ll_aton.h ****     unsigned round_mode_f : 2; /**< Rounding mode to apply to input feature data */
 392:../../Middlewares/AI_Runtime/Npu/ll_aton/ll_aton.h ****     unsigned inbytes_f : 2;    /**< Input data width in bytes. Valid values are 1, 2 or 3 bytes */
 393:../../Middlewares/AI_Runtime/Npu/ll_aton/ll_aton.h ****     unsigned outbytes_f : 2;   /**< Number of output bytes to use for final result after rounding o
 394:../../Middlewares/AI_Runtime/Npu/ll_aton/ll_aton.h ****                                 *   Valid values are 1 or 2 bytes */
 395:../../Middlewares/AI_Runtime/Npu/ll_aton/ll_aton.h ****     unsigned rounding_o : 1;   /**< Enable output rounding using round-to-nearest (round up)
 396:../../Middlewares/AI_Runtime/Npu/ll_aton/ll_aton.h ****                                 *   (applicable to average pooling operations) */
 397:../../Middlewares/AI_Runtime/Npu/ll_aton/ll_aton.h ****     unsigned saturation_o : 1; /**< Enable output saturation (applicable to average pooling operati
 398:../../Middlewares/AI_Runtime/Npu/ll_aton/ll_aton.h ****     unsigned round_mode_o : 1; /**< Rounding mode to apply to output feature data */
 399:../../Middlewares/AI_Runtime/Npu/ll_aton/ll_aton.h ****     unsigned relu_mode_o : 1;  /**< Apply Relu operation before rounding */
 400:../../Middlewares/AI_Runtime/Npu/ll_aton/ll_aton.h ****     unsigned outbytes_o : 2;   /**< Number of output bytes to use for final result after rounding o
 401:../../Middlewares/AI_Runtime/Npu/ll_aton/ll_aton.h ****                                 *   Valid values are 1 or 2 bytes */
 402:../../Middlewares/AI_Runtime/Npu/ll_aton/ll_aton.h ****     short mulval;              /**< constant to be multiplied to accumulated sum of pooling window.
 403:../../Middlewares/AI_Runtime/Npu/ll_aton/ll_aton.h ****                                 * For average operation, it represents the reciprocal of the diviso
 404:../../Middlewares/AI_Runtime/Npu/ll_aton/ll_aton.h ****                                 * The average is computed by multiplying this constant with the acc
 405:../../Middlewares/AI_Runtime/Npu/ll_aton/ll_aton.h ****                                 * relevant right shift at the output. (Applicable to average poolin
 406:../../Middlewares/AI_Runtime/Npu/ll_aton/ll_aton.h ****     unsigned pad_val_en : 1;   /**< Enable padding value */
 407:../../Middlewares/AI_Runtime/Npu/ll_aton/ll_aton.h ****     short pad_val;             /**< Padding value to be used for padding operation */
 408:../../Middlewares/AI_Runtime/Npu/ll_aton/ll_aton.h ****   } LL_Poolacc_InitTypeDef;
 409:../../Middlewares/AI_Runtime/Npu/ll_aton/ll_aton.h **** 
 410:../../Middlewares/AI_Runtime/Npu/ll_aton/ll_aton.h ****   /**
 411:../../Middlewares/AI_Runtime/Npu/ll_aton/ll_aton.h ****    * @brief Epoch Controller configuration structure
 412:../../Middlewares/AI_Runtime/Npu/ll_aton/ll_aton.h ****    */
 413:../../Middlewares/AI_Runtime/Npu/ll_aton/ll_aton.h ****   typedef struct
 414:../../Middlewares/AI_Runtime/Npu/ll_aton/ll_aton.h ****   {
 415:../../Middlewares/AI_Runtime/Npu/ll_aton/ll_aton.h ****     uint32_t blobaddr;     /**< Blob code start address. Must be 8 byte aligned */
 416:../../Middlewares/AI_Runtime/Npu/ll_aton/ll_aton.h ****     unsigned stepmode : 1; /**< Enable step mode. Used for debugging purposes */
 417:../../Middlewares/AI_Runtime/Npu/ll_aton/ll_aton.h ****   } LL_EpochCtrl_InitTypeDef;
 418:../../Middlewares/AI_Runtime/Npu/ll_aton/ll_aton.h **** 
 419:../../Middlewares/AI_Runtime/Npu/ll_aton/ll_aton.h ****   /** @defgroup LL_POOL Pooling unit configuration functions
 420:../../Middlewares/AI_Runtime/Npu/ll_aton/ll_aton.h ****    * @{
 421:../../Middlewares/AI_Runtime/Npu/ll_aton/ll_aton.h ****    */
 422:../../Middlewares/AI_Runtime/Npu/ll_aton/ll_aton.h ****   int LL_Poolacc_Init(int id, const LL_Poolacc_InitTypeDef *conf);
 423:../../Middlewares/AI_Runtime/Npu/ll_aton/ll_aton.h ****   /**
 424:../../Middlewares/AI_Runtime/Npu/ll_aton/ll_aton.h ****    * @}
 425:../../Middlewares/AI_Runtime/Npu/ll_aton/ll_aton.h ****    */
 426:../../Middlewares/AI_Runtime/Npu/ll_aton/ll_aton.h **** 
 427:../../Middlewares/AI_Runtime/Npu/ll_aton/ll_aton.h ****   /**
 428:../../Middlewares/AI_Runtime/Npu/ll_aton/ll_aton.h ****    * @brief Streaming engine configuration structure
 429:../../Middlewares/AI_Runtime/Npu/ll_aton/ll_aton.h ****    */
 430:../../Middlewares/AI_Runtime/Npu/ll_aton/ll_aton.h ****   typedef struct
 431:../../Middlewares/AI_Runtime/Npu/ll_aton/ll_aton.h ****   {
 432:../../Middlewares/AI_Runtime/Npu/ll_aton/ll_aton.h ****     unsigned dir : 1;             /**< Stream Direction: 0 input, 1 output */
 433:../../Middlewares/AI_Runtime/Npu/ll_aton/ll_aton.h ****     unsigned raw : 1;             /**< Set RAW mode (1) or raster mode (0) */
 434:../../Middlewares/AI_Runtime/Npu/ll_aton/ll_aton.h ****     unsigned raw_out : 1;         /**< Force RAW output (bus to stream only)
 435:../../Middlewares/AI_Runtime/Npu/ll_aton/ll_aton.h ****                                    *   even if the engine is programmed in raster mode */
 436:../../Middlewares/AI_Runtime/Npu/ll_aton/ll_aton.h ****     unsigned continuous : 1;      /**< Do not restart address pointer at end of frame */
 437:../../Middlewares/AI_Runtime/Npu/ll_aton/ll_aton.h ****     unsigned noblk : 1;           /**< Do not use blocks wider that the native bus size */
 438:../../Middlewares/AI_Runtime/Npu/ll_aton/ll_aton.h ****     unsigned noinc : 1;           /**< Do not increment address */
 439:../../Middlewares/AI_Runtime/Npu/ll_aton/ll_aton.h ****     unsigned align_right : 1;     /**< Alignment for data on switch (default left) */
 440:../../Middlewares/AI_Runtime/Npu/ll_aton/ll_aton.h ****     unsigned mem_lsb : 1;         /**< For when nbits_in != nbits_out to decide which bits are read
 441:../../Middlewares/AI_Runtime/Npu/ll_aton/ll_aton.h ****                                    *   (default msb) */
 442:../../Middlewares/AI_Runtime/Npu/ll_aton/ll_aton.h ****     unsigned sync_with_other : 1; /**< Enable synchronizations signals between engines */
ARM GAS  C:\Users\Antonio\AppData\Local\Temp\ccynTwLp.s 			page 124


 443:../../Middlewares/AI_Runtime/Npu/ll_aton/ll_aton.h ****     unsigned nbits_unsigned : 1;  /**< Disable sign extension */
 444:../../Middlewares/AI_Runtime/Npu/ll_aton/ll_aton.h ****     unsigned bus_cid : 3;         /**< Set Compartment ID cache attribute */
 445:../../Middlewares/AI_Runtime/Npu/ll_aton/ll_aton.h ****     unsigned cacheable : 1;       /**< Set cacheable bus attribute */
 446:../../Middlewares/AI_Runtime/Npu/ll_aton/ll_aton.h ****     unsigned cache_allocate : 1;  /**< Set cache allocate bus attribute */
 447:../../Middlewares/AI_Runtime/Npu/ll_aton/ll_aton.h ****     unsigned bus_pfetch : 1;      /**< Enable bus prefetch */
 448:../../Middlewares/AI_Runtime/Npu/ll_aton/ll_aton.h ****     unsigned cache_linesize : 2;  /**< Cache Line size: 0 -> 64B, 1 -> 128B, 2 -> 256B, 3 -> 512B *
 449:../../Middlewares/AI_Runtime/Npu/ll_aton/ll_aton.h ****     unsigned cipher_en : 1;       /**< Enable ciphering: 0 -> disable, 1-> enable  */
 450:../../Middlewares/AI_Runtime/Npu/ll_aton/ll_aton.h ****     unsigned key_sel : 1;         /**< Bus Interface key to be used for ciphering (0, 1) */
 451:../../Middlewares/AI_Runtime/Npu/ll_aton/ll_aton.h ****     unsigned char sync_dma;       /**< Synchronization signals source engine */
 452:../../Middlewares/AI_Runtime/Npu/ll_aton/ll_aton.h ****     ll_aton_pointer addr_base;    /**< Source/Destination base address */
 453:../../Middlewares/AI_Runtime/Npu/ll_aton/ll_aton.h ****     unsigned offset_start;        /**< Offset of the Source/Destination start address from the base
 454:../../Middlewares/AI_Runtime/Npu/ll_aton/ll_aton.h ****     unsigned offset_end;          /**< Offset of the Source/Destination end address from the base a
 455:../../Middlewares/AI_Runtime/Npu/ll_aton/ll_aton.h ****     unsigned offset_limit;        /**< Offset of the Stream engine address limit from the base addr
 456:../../Middlewares/AI_Runtime/Npu/ll_aton/ll_aton.h ****                                    *   Used to prevent prefetch beyond memory boundaries */
 457:../../Middlewares/AI_Runtime/Npu/ll_aton/ll_aton.h ****     unsigned frame_count;         /**< Number of frames to transfer */
 458:../../Middlewares/AI_Runtime/Npu/ll_aton/ll_aton.h ****     unsigned fwidth;              /**< Frame width (pixel per line) */
 459:../../Middlewares/AI_Runtime/Npu/ll_aton/ll_aton.h ****     unsigned fheight;             /**< Frame height (number of lines) */
 460:../../Middlewares/AI_Runtime/Npu/ll_aton/ll_aton.h ****     unsigned batch_depth;         /**< Batch depth (subpix per pixel) */
 461:../../Middlewares/AI_Runtime/Npu/ll_aton/ll_aton.h ****     unsigned batch_offset;        /**< Offset (bytes) between batches */
 462:../../Middlewares/AI_Runtime/Npu/ll_aton/ll_aton.h ****     unsigned frame_offset;        /**< Offset between multiple frames within frame repetition loop 
 463:../../Middlewares/AI_Runtime/Npu/ll_aton/ll_aton.h ****     unsigned line_offset;         /**< Offset between multiple frames within frame repetition loop.
 464:../../Middlewares/AI_Runtime/Npu/ll_aton/ll_aton.h ****                                    *   If set to zero it's derived from width and batch_offset */
 465:../../Middlewares/AI_Runtime/Npu/ll_aton/ll_aton.h ****     unsigned loop_offset;         /**< Offset between frame repetition loops */
 466:../../Middlewares/AI_Runtime/Npu/ll_aton/ll_aton.h ****     unsigned frame_loop_cnt;      /**< Number of frames to loop */
 467:../../Middlewares/AI_Runtime/Npu/ll_aton/ll_aton.h ****     unsigned frame_tot_cnt;       /**< Frame limit */
 468:../../Middlewares/AI_Runtime/Npu/ll_aton/ll_aton.h ****     unsigned char nbits_in;       /**< Data size in bits if reading */
 469:../../Middlewares/AI_Runtime/Npu/ll_aton/ll_aton.h ****     unsigned char nbits_out;      /**< Data size in bits if writing */
 470:../../Middlewares/AI_Runtime/Npu/ll_aton/ll_aton.h ****   } LL_Streng_TensorInitTypeDef;
 471:../../Middlewares/AI_Runtime/Npu/ll_aton/ll_aton.h **** 
 472:../../Middlewares/AI_Runtime/Npu/ll_aton/ll_aton.h ****   static inline unsigned char *LL_Streng_addr_start(const LL_Streng_TensorInitTypeDef *conf)
 473:../../Middlewares/AI_Runtime/Npu/ll_aton/ll_aton.h ****   {
 474:../../Middlewares/AI_Runtime/Npu/ll_aton/ll_aton.h ****     return conf->addr_base.p + conf->offset_start;
 475:../../Middlewares/AI_Runtime/Npu/ll_aton/ll_aton.h ****   }
 476:../../Middlewares/AI_Runtime/Npu/ll_aton/ll_aton.h **** 
 477:../../Middlewares/AI_Runtime/Npu/ll_aton/ll_aton.h ****   static inline unsigned char *LL_Streng_addr_end(const LL_Streng_TensorInitTypeDef *conf)
 478:../../Middlewares/AI_Runtime/Npu/ll_aton/ll_aton.h ****   {
 479:../../Middlewares/AI_Runtime/Npu/ll_aton/ll_aton.h ****     return conf->addr_base.p + conf->offset_end;
 480:../../Middlewares/AI_Runtime/Npu/ll_aton/ll_aton.h ****   }
 481:../../Middlewares/AI_Runtime/Npu/ll_aton/ll_aton.h **** 
 482:../../Middlewares/AI_Runtime/Npu/ll_aton/ll_aton.h ****   static inline unsigned char *LL_Streng_addr_limit(const LL_Streng_TensorInitTypeDef *conf)
 483:../../Middlewares/AI_Runtime/Npu/ll_aton/ll_aton.h ****   {
 484:../../Middlewares/AI_Runtime/Npu/ll_aton/ll_aton.h ****     return conf->addr_base.p + conf->offset_limit;
 485:../../Middlewares/AI_Runtime/Npu/ll_aton/ll_aton.h ****   }
 486:../../Middlewares/AI_Runtime/Npu/ll_aton/ll_aton.h **** 
 487:../../Middlewares/AI_Runtime/Npu/ll_aton/ll_aton.h ****   static inline uint32_t LL_Streng_len(const LL_Streng_TensorInitTypeDef *conf)
 3169              		.loc 2 487 26 view .LVU953
 3170              	.LBB38:
 488:../../Middlewares/AI_Runtime/Npu/ll_aton/ll_aton.h ****   {
 489:../../Middlewares/AI_Runtime/Npu/ll_aton/ll_aton.h ****     return conf->offset_end - conf->offset_start;
 3171              		.loc 2 489 5 view .LVU954
 3172              		.loc 2 489 5 is_stmt 0 view .LVU955
 3173              	.LBE38:
 3174              	.LBE37:
 655:../../Middlewares/AI_Runtime/Npu/ll_aton/ll_aton.c ****     }
 3175              		.loc 1 655 72 discriminator 1 view .LVU956
 3176 0138 10F0010F 		tst	r0, #1
 3177 013c 18BF     		it	ne
ARM GAS  C:\Users\Antonio\AppData\Local\Temp\ccynTwLp.s 			page 125


 3178 013e 6646     		movne	r6, ip
 3179              	.LBB40:
 3180              	.LBB39:
 3181              		.loc 2 489 29 view .LVU957
 3182 0140 EB68     		ldr	r3, [r5, #12]
 3183 0142 A3EB0E03 		sub	r3, r3, lr
 3184              	.LBE39:
 3185              	.LBE40:
 655:../../Middlewares/AI_Runtime/Npu/ll_aton/ll_aton.c ****     }
 3186              		.loc 1 655 32 discriminator 1 view .LVU958
 3187 0146 DB00     		lsls	r3, r3, #3
 655:../../Middlewares/AI_Runtime/Npu/ll_aton/ll_aton.c ****     }
 3188              		.loc 1 655 9 discriminator 4 view .LVU959
 3189 0148 B3FBF6F3 		udiv	r3, r3, r6
 3190              	.LVL350:
 3191              	.L257:
 657:../../Middlewares/AI_Runtime/Npu/ll_aton/ll_aton.c ****   }
 3192              		.loc 1 657 5 is_stmt 1 view .LVU960
 657:../../Middlewares/AI_Runtime/Npu/ll_aton/ll_aton.c ****   }
 3193              		.loc 1 657 5 view .LVU961
 500:../../Middlewares/AI_Runtime/Npu/ll_aton/ll_aton.c ****   uint32_t t_streng_event = ATON_STRENG_EVENT_DT;
 3194              		.loc 1 500 12 is_stmt 0 view .LVU962
 3195 014c 0020     		movs	r0, #0
 657:../../Middlewares/AI_Runtime/Npu/ll_aton/ll_aton.c ****   }
 3196              		.loc 1 657 5 view .LVU963
 3197 014e E360     		str	r3, [r4, #12]
 657:../../Middlewares/AI_Runtime/Npu/ll_aton/ll_aton.c ****   }
 3198              		.loc 1 657 5 is_stmt 1 view .LVU964
 657:../../Middlewares/AI_Runtime/Npu/ll_aton/ll_aton.c ****   }
 3199              		.loc 1 657 33 view .LVU965
 3200              	.LVL351:
 3201              	.L260:
 3202              	.LBB41:
 679:../../Middlewares/AI_Runtime/Npu/ll_aton/ll_aton.c ****   }
 3203              		.loc 1 679 5 discriminator 1 view .LVU966
 679:../../Middlewares/AI_Runtime/Npu/ll_aton/ll_aton.c ****   }
 3204              		.loc 1 679 33 discriminator 1 view .LVU967
 3205              	.LBE41:
 682:../../Middlewares/AI_Runtime/Npu/ll_aton/ll_aton.c ****   ATON_STRENG_FRAME_RPT_SET(id, conf->frame_loop_cnt);
 3206              		.loc 1 682 3 view .LVU968
 682:../../Middlewares/AI_Runtime/Npu/ll_aton/ll_aton.c ****   ATON_STRENG_FRAME_RPT_SET(id, conf->frame_loop_cnt);
 3207              		.loc 1 682 3 view .LVU969
 3208 0150 2B6B     		ldr	r3, [r5, #48]
 3209              	.LVL352:
 689:../../Middlewares/AI_Runtime/Npu/ll_aton/ll_aton.c **** #endif
 3210              		.loc 1 689 7 is_stmt 0 view .LVU970
 3211 0152 6FF30F01 		bfc	r1, #0, #16
 682:../../Middlewares/AI_Runtime/Npu/ll_aton/ll_aton.c ****   ATON_STRENG_FRAME_RPT_SET(id, conf->frame_loop_cnt);
 3212              		.loc 1 682 3 view .LVU971
 3213 0156 2362     		str	r3, [r4, #32]
 682:../../Middlewares/AI_Runtime/Npu/ll_aton/ll_aton.c ****   ATON_STRENG_FRAME_RPT_SET(id, conf->frame_loop_cnt);
 3214              		.loc 1 682 3 is_stmt 1 view .LVU972
 682:../../Middlewares/AI_Runtime/Npu/ll_aton/ll_aton.c ****   ATON_STRENG_FRAME_RPT_SET(id, conf->frame_loop_cnt);
 3215              		.loc 1 682 49 view .LVU973
 683:../../Middlewares/AI_Runtime/Npu/ll_aton/ll_aton.c ****   ATON_STRENG_FOFFSET_SET(id, conf->frame_offset);
 3216              		.loc 1 683 3 view .LVU974
 683:../../Middlewares/AI_Runtime/Npu/ll_aton/ll_aton.c ****   ATON_STRENG_FOFFSET_SET(id, conf->frame_offset);
ARM GAS  C:\Users\Antonio\AppData\Local\Temp\ccynTwLp.s 			page 126


 3217              		.loc 1 683 3 view .LVU975
 3218 0158 6B6B     		ldr	r3, [r5, #52]
 3219 015a E361     		str	r3, [r4, #28]
 683:../../Middlewares/AI_Runtime/Npu/ll_aton/ll_aton.c ****   ATON_STRENG_FOFFSET_SET(id, conf->frame_offset);
 3220              		.loc 1 683 3 view .LVU976
 683:../../Middlewares/AI_Runtime/Npu/ll_aton/ll_aton.c ****   ATON_STRENG_FOFFSET_SET(id, conf->frame_offset);
 3221              		.loc 1 683 54 view .LVU977
 684:../../Middlewares/AI_Runtime/Npu/ll_aton/ll_aton.c **** 
 3222              		.loc 1 684 3 view .LVU978
 684:../../Middlewares/AI_Runtime/Npu/ll_aton/ll_aton.c **** 
 3223              		.loc 1 684 3 view .LVU979
 3224 015c AB6A     		ldr	r3, [r5, #40]
 3225 015e A361     		str	r3, [r4, #24]
 684:../../Middlewares/AI_Runtime/Npu/ll_aton/ll_aton.c **** 
 3226              		.loc 1 684 3 view .LVU980
 684:../../Middlewares/AI_Runtime/Npu/ll_aton/ll_aton.c **** 
 3227              		.loc 1 684 50 view .LVU981
 686:../../Middlewares/AI_Runtime/Npu/ll_aton/ll_aton.c ****   t = ATON_STRENG_LIMITEN_SET_FRAMELIMIT(t, 1);
 3228              		.loc 1 686 3 view .LVU982
 3229              	.LVL353:
 687:../../Middlewares/AI_Runtime/Npu/ll_aton/ll_aton.c **** #if defined(ATON_STRENG_LIMITEN_SET_DOFF_MSB)
 3230              		.loc 1 687 3 view .LVU983
 689:../../Middlewares/AI_Runtime/Npu/ll_aton/ll_aton.c **** #endif
 3231              		.loc 1 689 3 view .LVU984
 689:../../Middlewares/AI_Runtime/Npu/ll_aton/ll_aton.c **** #endif
 3232              		.loc 1 689 5 is_stmt 0 view .LVU985
 3233 0160 41F00603 		orr	r3, r1, #6
 3234              	.LVL354:
 691:../../Middlewares/AI_Runtime/Npu/ll_aton/ll_aton.c **** 
 3235              		.loc 1 691 3 is_stmt 1 view .LVU986
 691:../../Middlewares/AI_Runtime/Npu/ll_aton/ll_aton.c **** 
 3236              		.loc 1 691 3 view .LVU987
 3237 0164 2363     		str	r3, [r4, #48]
 691:../../Middlewares/AI_Runtime/Npu/ll_aton/ll_aton.c **** 
 3238              		.loc 1 691 3 view .LVU988
 691:../../Middlewares/AI_Runtime/Npu/ll_aton/ll_aton.c **** 
 3239              		.loc 1 691 33 view .LVU989
 693:../../Middlewares/AI_Runtime/Npu/ll_aton/ll_aton.c ****   {
 3240              		.loc 1 693 3 view .LVU990
 693:../../Middlewares/AI_Runtime/Npu/ll_aton/ll_aton.c ****   {
 3241              		.loc 1 693 37 is_stmt 0 view .LVU991
 3242 0166 2B69     		ldr	r3, [r5, #16]
 3243              	.LVL355:
 693:../../Middlewares/AI_Runtime/Npu/ll_aton/ll_aton.c ****   {
 3244              		.loc 1 693 6 view .LVU992
 3245 0168 2BB1     		cbz	r3, .L262
 695:../../Middlewares/AI_Runtime/Npu/ll_aton/ll_aton.c ****     t = ATON_STRENG_LIMITEN_SET_STOPPREFTC(t, 1);
 3246              		.loc 1 695 5 is_stmt 1 view .LVU993
 3247              	.LVL356:
 696:../../Middlewares/AI_Runtime/Npu/ll_aton/ll_aton.c ****     ATON_STRENG_LIMITEN_SET(id, t);
 3248              		.loc 1 696 5 view .LVU994
 700:../../Middlewares/AI_Runtime/Npu/ll_aton/ll_aton.c ****                          conf->offset_limit - 1);
 3249              		.loc 1 700 5 is_stmt 0 view .LVU995
 3250 016a 1F44     		add	r7, r7, r3
 696:../../Middlewares/AI_Runtime/Npu/ll_aton/ll_aton.c ****     ATON_STRENG_LIMITEN_SET(id, t);
 3251              		.loc 1 696 7 view .LVU996
 3252 016c 41F00701 		orr	r1, r1, #7
ARM GAS  C:\Users\Antonio\AppData\Local\Temp\ccynTwLp.s 			page 127


 3253              	.LVL357:
 697:../../Middlewares/AI_Runtime/Npu/ll_aton/ll_aton.c ****     // NOTE: limiter is to be set to last accessible byte address
 3254              		.loc 1 697 5 is_stmt 1 view .LVU997
 697:../../Middlewares/AI_Runtime/Npu/ll_aton/ll_aton.c ****     // NOTE: limiter is to be set to last accessible byte address
 3255              		.loc 1 697 5 view .LVU998
 700:../../Middlewares/AI_Runtime/Npu/ll_aton/ll_aton.c ****                          conf->offset_limit - 1);
 3256              		.loc 1 700 5 is_stmt 0 view .LVU999
 3257 0170 013F     		subs	r7, r7, #1
 697:../../Middlewares/AI_Runtime/Npu/ll_aton/ll_aton.c ****     // NOTE: limiter is to be set to last accessible byte address
 3258              		.loc 1 697 5 view .LVU1000
 3259 0172 2163     		str	r1, [r4, #48]
 697:../../Middlewares/AI_Runtime/Npu/ll_aton/ll_aton.c ****     // NOTE: limiter is to be set to last accessible byte address
 3260              		.loc 1 697 5 is_stmt 1 view .LVU1001
 697:../../Middlewares/AI_Runtime/Npu/ll_aton/ll_aton.c ****     // NOTE: limiter is to be set to last accessible byte address
 3261              		.loc 1 697 35 view .LVU1002
 700:../../Middlewares/AI_Runtime/Npu/ll_aton/ll_aton.c ****                          conf->offset_limit - 1);
 3262              		.loc 1 700 5 view .LVU1003
 700:../../Middlewares/AI_Runtime/Npu/ll_aton/ll_aton.c ****                          conf->offset_limit - 1);
 3263              		.loc 1 700 5 view .LVU1004
 3264 0174 A763     		str	r7, [r4, #56]
 3265              	.LVL358:
 3266              	.L262:
 700:../../Middlewares/AI_Runtime/Npu/ll_aton/ll_aton.c ****                          conf->offset_limit - 1);
 3267              		.loc 1 700 5 discriminator 1 view .LVU1005
 704:../../Middlewares/AI_Runtime/Npu/ll_aton/ll_aton.c ****   // LL_ATON_PRINTF("frame_tot_cnt=%d\n", conf->frame_tot_cnt);
 3268              		.loc 1 704 3 view .LVU1006
 704:../../Middlewares/AI_Runtime/Npu/ll_aton/ll_aton.c ****   // LL_ATON_PRINTF("frame_tot_cnt=%d\n", conf->frame_tot_cnt);
 3269              		.loc 1 704 3 view .LVU1007
 709:../../Middlewares/AI_Runtime/Npu/ll_aton/ll_aton.c ****   t_streng_cid_cache = ATON_STRENG_CID_CACHE_SET_ALLOC(t_streng_cid_cache, conf->cache_allocate);
 3270              		.loc 1 709 24 is_stmt 0 view .LVU1008
 3271 0176 6978     		ldrb	r1, [r5, #1]	@ zero_extendqisi2
 735:../../Middlewares/AI_Runtime/Npu/ll_aton/ll_aton.c ****   {
 3272              		.loc 1 735 6 view .LVU1009
 3273 0178 28F0FE08 		bic	r8, r8, #254
 710:../../Middlewares/AI_Runtime/Npu/ll_aton/ll_aton.c ****   t_streng_cid_cache = ATON_STRENG_CID_CACHE_SET_PFETCH(t_streng_cid_cache, conf->bus_pfetch);
 3274              		.loc 1 710 24 view .LVU1010
 3275 017c C1F38013 		ubfx	r3, r1, #6, #1
 709:../../Middlewares/AI_Runtime/Npu/ll_aton/ll_aton.c ****   t_streng_cid_cache = ATON_STRENG_CID_CACHE_SET_ALLOC(t_streng_cid_cache, conf->cache_allocate);
 3276              		.loc 1 709 24 view .LVU1011
 3277 0180 C1F34016 		ubfx	r6, r1, #5, #1
 710:../../Middlewares/AI_Runtime/Npu/ll_aton/ll_aton.c ****   t_streng_cid_cache = ATON_STRENG_CID_CACHE_SET_PFETCH(t_streng_cid_cache, conf->bus_pfetch);
 3278              		.loc 1 710 24 view .LVU1012
 3279 0184 1B01     		lsls	r3, r3, #4
 712:../../Middlewares/AI_Runtime/Npu/ll_aton/ll_aton.c **** #endif
 3280              		.loc 1 712 22 view .LVU1013
 3281 0186 43EAC603 		orr	r3, r3, r6, lsl #3
 708:../../Middlewares/AI_Runtime/Npu/ll_aton/ll_aton.c ****   t_streng_cid_cache = ATON_STRENG_CID_CACHE_SET_CACHEABLE(t_streng_cid_cache, conf->cacheable);
 3282              		.loc 1 708 24 view .LVU1014
 3283 018a C1F38206 		ubfx	r6, r1, #2, #3
 712:../../Middlewares/AI_Runtime/Npu/ll_aton/ll_aton.c **** #endif
 3284              		.loc 1 712 22 view .LVU1015
 3285 018e 3343     		orrs	r3, r3, r6
 712:../../Middlewares/AI_Runtime/Npu/ll_aton/ll_aton.c **** #endif
 3286              		.loc 1 712 24 view .LVU1016
 3287 0190 AE78     		ldrb	r6, [r5, #2]	@ zero_extendqisi2
 711:../../Middlewares/AI_Runtime/Npu/ll_aton/ll_aton.c ****   t_streng_cid_cache = ATON_STRENG_CID_CACHE_SET_LINESIZE(t_streng_cid_cache, conf->cache_linesize)
 3288              		.loc 1 711 24 view .LVU1017
ARM GAS  C:\Users\Antonio\AppData\Local\Temp\ccynTwLp.s 			page 128


 3289 0192 C909     		lsrs	r1, r1, #7
 712:../../Middlewares/AI_Runtime/Npu/ll_aton/ll_aton.c **** #endif
 3290              		.loc 1 712 22 view .LVU1018
 3291 0194 43EA4113 		orr	r3, r3, r1, lsl #5
 735:../../Middlewares/AI_Runtime/Npu/ll_aton/ll_aton.c ****   {
 3292              		.loc 1 735 6 view .LVU1019
 3293 0198 4FEAC858 		lsl	r8, r8, #23
 712:../../Middlewares/AI_Runtime/Npu/ll_aton/ll_aton.c **** #endif
 3294              		.loc 1 712 24 view .LVU1020
 3295 019c 06F00301 		and	r1, r6, #3
 712:../../Middlewares/AI_Runtime/Npu/ll_aton/ll_aton.c **** #endif
 3296              		.loc 1 712 22 view .LVU1021
 3297 01a0 43EA8113 		orr	r3, r3, r1, lsl #6
 735:../../Middlewares/AI_Runtime/Npu/ll_aton/ll_aton.c ****   {
 3298              		.loc 1 735 6 view .LVU1022
 3299 01a4 4FEAD858 		lsr	r8, r8, #23
 716:../../Middlewares/AI_Runtime/Npu/ll_aton/ll_aton.c ****   {
 3300              		.loc 1 716 6 view .LVU1023
 3301 01a8 0199     		ldr	r1, [sp, #4]
 704:../../Middlewares/AI_Runtime/Npu/ll_aton/ll_aton.c ****   // LL_ATON_PRINTF("frame_tot_cnt=%d\n", conf->frame_tot_cnt);
 3302              		.loc 1 704 3 view .LVU1024
 3303 01aa C4F834A0 		str	r10, [r4, #52]
 704:../../Middlewares/AI_Runtime/Npu/ll_aton/ll_aton.c ****   // LL_ATON_PRINTF("frame_tot_cnt=%d\n", conf->frame_tot_cnt);
 3304              		.loc 1 704 3 is_stmt 1 view .LVU1025
 704:../../Middlewares/AI_Runtime/Npu/ll_aton/ll_aton.c ****   // LL_ATON_PRINTF("frame_tot_cnt=%d\n", conf->frame_tot_cnt);
 3305              		.loc 1 704 49 view .LVU1026
 708:../../Middlewares/AI_Runtime/Npu/ll_aton/ll_aton.c ****   t_streng_cid_cache = ATON_STRENG_CID_CACHE_SET_CACHEABLE(t_streng_cid_cache, conf->cacheable);
 3306              		.loc 1 708 3 view .LVU1027
 3307              	.LVL359:
 709:../../Middlewares/AI_Runtime/Npu/ll_aton/ll_aton.c ****   t_streng_cid_cache = ATON_STRENG_CID_CACHE_SET_ALLOC(t_streng_cid_cache, conf->cache_allocate);
 3308              		.loc 1 709 3 view .LVU1028
 710:../../Middlewares/AI_Runtime/Npu/ll_aton/ll_aton.c ****   t_streng_cid_cache = ATON_STRENG_CID_CACHE_SET_PFETCH(t_streng_cid_cache, conf->bus_pfetch);
 3309              		.loc 1 710 3 view .LVU1029
 711:../../Middlewares/AI_Runtime/Npu/ll_aton/ll_aton.c ****   t_streng_cid_cache = ATON_STRENG_CID_CACHE_SET_LINESIZE(t_streng_cid_cache, conf->cache_linesize)
 3310              		.loc 1 711 3 view .LVU1030
 712:../../Middlewares/AI_Runtime/Npu/ll_aton/ll_aton.c **** #endif
 3311              		.loc 1 712 3 view .LVU1031
 735:../../Middlewares/AI_Runtime/Npu/ll_aton/ll_aton.c ****   {
 3312              		.loc 1 735 6 is_stmt 0 view .LVU1032
 3313 01ae B8F5807F 		cmp	r8, #256
 712:../../Middlewares/AI_Runtime/Npu/ll_aton/ll_aton.c **** #endif
 3314              		.loc 1 712 22 view .LVU1033
 3315 01b2 43EA0003 		orr	r3, r3, r0
 3316              	.LVL360:
 716:../../Middlewares/AI_Runtime/Npu/ll_aton/ll_aton.c ****   {
 3317              		.loc 1 716 3 is_stmt 1 view .LVU1034
 716:../../Middlewares/AI_Runtime/Npu/ll_aton/ll_aton.c ****   {
 3318              		.loc 1 716 6 is_stmt 0 view .LVU1035
 3319 01b6 4FEAC140 		lsl	r0, r1, #19
 3320              	.LVL361:
 729:../../Middlewares/AI_Runtime/Npu/ll_aton/ll_aton.c ****   t = ATON_STRENG_EVENT_SET_EN_ILLCFG(t, 1); // Enable Illegal Configuration interrupt
 3321              		.loc 1 729 3 is_stmt 1 view .LVU1036
 730:../../Middlewares/AI_Runtime/Npu/ll_aton/ll_aton.c ****   // t = ATON_STRENG_EVENT_SET_EN_FMTMM(t, 1); // Enable Format Mismatch interrupt (intentionally n
 3322              		.loc 1 730 3 view .LVU1037
 732:../../Middlewares/AI_Runtime/Npu/ll_aton/ll_aton.c **** #endif // LL_ATON_EN_ERROR_IRQ
 3323              		.loc 1 732 3 view .LVU1038
 735:../../Middlewares/AI_Runtime/Npu/ll_aton/ll_aton.c ****   {
ARM GAS  C:\Users\Antonio\AppData\Local\Temp\ccynTwLp.s 			page 129


 3324              		.loc 1 735 3 view .LVU1039
 739:../../Middlewares/AI_Runtime/Npu/ll_aton/ll_aton.c ****     t_streng_event = t;
 3325              		.loc 1 739 9 is_stmt 0 view .LVU1040
 3326 01ba 09BF     		itett	eq
 3327 01bc E978     		ldrbeq	r1, [r5, #3]	@ zero_extendqisi2
 730:../../Middlewares/AI_Runtime/Npu/ll_aton/ll_aton.c ****   // t = ATON_STRENG_EVENT_SET_EN_FMTMM(t, 1); // Enable Format Mismatch interrupt (intentionally n
 3328              		.loc 1 730 5 view .LVU1041
 3329 01be 40F48011 		orrne	r1, r0, #1048576
 737:../../Middlewares/AI_Runtime/Npu/ll_aton/ll_aton.c ****     t = ATON_STRENG_EVENT_SET_FRMTRG_EN(t, 1);               // Enable synchronizations of frames w
 3330              		.loc 1 737 5 is_stmt 1 view .LVU1042
 738:../../Middlewares/AI_Runtime/Npu/ll_aton/ll_aton.c ****     t = ATON_STRENG_EVENT_SET_FRMTRG_SRC(t, conf->sync_dma); // Enable synchronizations of frames w
 3331              		.loc 1 738 5 view .LVU1043
 3332              	.LVL362:
 739:../../Middlewares/AI_Runtime/Npu/ll_aton/ll_aton.c ****     t_streng_event = t;
 3333              		.loc 1 739 5 view .LVU1044
 739:../../Middlewares/AI_Runtime/Npu/ll_aton/ll_aton.c ****     t_streng_event = t;
 3334              		.loc 1 739 9 is_stmt 0 view .LVU1045
 3335 01c2 0906     		lsleq	r1, r1, #24
 3336 01c4 01F0F851 		andeq	r1, r1, #520093696
 739:../../Middlewares/AI_Runtime/Npu/ll_aton/ll_aton.c ****     t_streng_event = t;
 3337              		.loc 1 739 7 view .LVU1046
 3338 01c8 08BF     		it	eq
 3339 01ca 0143     		orreq	r1, r1, r0
 746:../../Middlewares/AI_Runtime/Npu/ll_aton/ll_aton.c **** #endif
 3340              		.loc 1 746 3 view .LVU1047
 3341 01cc 4FF02400 		mov	r0, #36
 3342              	.LVL363:
 746:../../Middlewares/AI_Runtime/Npu/ll_aton/ll_aton.c **** #endif
 3343              		.loc 1 746 3 view .LVU1048
 3344 01d0 6062     		str	r0, [r4, #36]
 750:../../Middlewares/AI_Runtime/Npu/ll_aton/ll_aton.c ****   ATON_STRENG_CID_CACHE_SET(id, t_streng_cid_cache);
 3345              		.loc 1 750 3 view .LVU1049
 3346 01d2 6261     		str	r2, [r4, #20]
 751:../../Middlewares/AI_Runtime/Npu/ll_aton/ll_aton.c ****   ATON_STRENG_EVENT_SET(id, t_streng_event);
 3347              		.loc 1 751 3 view .LVU1050
 3348 01d4 A364     		str	r3, [r4, #72]
 757:../../Middlewares/AI_Runtime/Npu/ll_aton/ll_aton.c ****   t = ATON_STRENG_ENCR_MSB_SET_KEY_SEL(t, conf->key_sel);
 3349              		.loc 1 757 7 view .LVU1051
 3350 01d6 C6F38003 		ubfx	r3, r6, #2, #1
 3351              	.LVL364:
 758:../../Middlewares/AI_Runtime/Npu/ll_aton/ll_aton.c ****   ATON_STRENG_ENCR_MSB_SET(id, t);
 3352              		.loc 1 758 7 view .LVU1052
 3353 01da C6F3C006 		ubfx	r6, r6, #3, #1
 3354 01de 4FEA8636 		lsl	r6, r6, #14
 739:../../Middlewares/AI_Runtime/Npu/ll_aton/ll_aton.c ****     t_streng_event = t;
 3355              		.loc 1 739 7 view .LVU1053
 3356 01e2 08BF     		it	eq
 3357 01e4 41F41001 		orreq	r1, r1, #9437184
 3358              	.LVL365:
 740:../../Middlewares/AI_Runtime/Npu/ll_aton/ll_aton.c ****   }
 3359              		.loc 1 740 5 is_stmt 1 view .LVU1054
 744:../../Middlewares/AI_Runtime/Npu/ll_aton/ll_aton.c ****   t = ATON_STRENG_POS_SET_GAPCYCLES(t, 0); // set interline gap cycle to 0, as it should be safe to
 3360              		.loc 1 744 3 view .LVU1055
 745:../../Middlewares/AI_Runtime/Npu/ll_aton/ll_aton.c ****   ATON_STRENG_POS_SET(id, t);
 3361              		.loc 1 745 3 view .LVU1056
 746:../../Middlewares/AI_Runtime/Npu/ll_aton/ll_aton.c **** #endif
 3362              		.loc 1 746 3 view .LVU1057
ARM GAS  C:\Users\Antonio\AppData\Local\Temp\ccynTwLp.s 			page 130


 746:../../Middlewares/AI_Runtime/Npu/ll_aton/ll_aton.c **** #endif
 3363              		.loc 1 746 3 view .LVU1058
 746:../../Middlewares/AI_Runtime/Npu/ll_aton/ll_aton.c **** #endif
 3364              		.loc 1 746 3 view .LVU1059
 746:../../Middlewares/AI_Runtime/Npu/ll_aton/ll_aton.c **** #endif
 3365              		.loc 1 746 29 view .LVU1060
 750:../../Middlewares/AI_Runtime/Npu/ll_aton/ll_aton.c ****   ATON_STRENG_CID_CACHE_SET(id, t_streng_cid_cache);
 3366              		.loc 1 750 3 view .LVU1061
 750:../../Middlewares/AI_Runtime/Npu/ll_aton/ll_aton.c ****   ATON_STRENG_CID_CACHE_SET(id, t_streng_cid_cache);
 3367              		.loc 1 750 3 view .LVU1062
 750:../../Middlewares/AI_Runtime/Npu/ll_aton/ll_aton.c ****   ATON_STRENG_CID_CACHE_SET(id, t_streng_cid_cache);
 3368              		.loc 1 750 3 view .LVU1063
 750:../../Middlewares/AI_Runtime/Npu/ll_aton/ll_aton.c ****   ATON_STRENG_CID_CACHE_SET(id, t_streng_cid_cache);
 3369              		.loc 1 750 42 view .LVU1064
 751:../../Middlewares/AI_Runtime/Npu/ll_aton/ll_aton.c ****   ATON_STRENG_EVENT_SET(id, t_streng_event);
 3370              		.loc 1 751 3 view .LVU1065
 751:../../Middlewares/AI_Runtime/Npu/ll_aton/ll_aton.c ****   ATON_STRENG_EVENT_SET(id, t_streng_event);
 3371              		.loc 1 751 3 view .LVU1066
 751:../../Middlewares/AI_Runtime/Npu/ll_aton/ll_aton.c ****   ATON_STRENG_EVENT_SET(id, t_streng_event);
 3372              		.loc 1 751 3 view .LVU1067
 751:../../Middlewares/AI_Runtime/Npu/ll_aton/ll_aton.c ****   ATON_STRENG_EVENT_SET(id, t_streng_event);
 3373              		.loc 1 751 52 view .LVU1068
 752:../../Middlewares/AI_Runtime/Npu/ll_aton/ll_aton.c **** 
 3374              		.loc 1 752 3 view .LVU1069
 752:../../Middlewares/AI_Runtime/Npu/ll_aton/ll_aton.c **** 
 3375              		.loc 1 752 3 view .LVU1070
 758:../../Middlewares/AI_Runtime/Npu/ll_aton/ll_aton.c ****   ATON_STRENG_ENCR_MSB_SET(id, t);
 3376              		.loc 1 758 5 is_stmt 0 view .LVU1071
 3377 01e8 46EA0336 		orr	r6, r6, r3, lsl #12
 752:../../Middlewares/AI_Runtime/Npu/ll_aton/ll_aton.c **** 
 3378              		.loc 1 752 3 view .LVU1072
 3379 01ec A162     		str	r1, [r4, #40]
 3380              	.LVL366:
 752:../../Middlewares/AI_Runtime/Npu/ll_aton/ll_aton.c **** 
 3381              		.loc 1 752 3 is_stmt 1 view .LVU1073
 752:../../Middlewares/AI_Runtime/Npu/ll_aton/ll_aton.c **** 
 3382              		.loc 1 752 44 view .LVU1074
 756:../../Middlewares/AI_Runtime/Npu/ll_aton/ll_aton.c ****   t = ATON_STRENG_ENCR_MSB_SET_EN(t, conf->cipher_en);
 3383              		.loc 1 756 3 view .LVU1075
 757:../../Middlewares/AI_Runtime/Npu/ll_aton/ll_aton.c ****   t = ATON_STRENG_ENCR_MSB_SET_KEY_SEL(t, conf->key_sel);
 3384              		.loc 1 757 3 view .LVU1076
 758:../../Middlewares/AI_Runtime/Npu/ll_aton/ll_aton.c ****   ATON_STRENG_ENCR_MSB_SET(id, t);
 3385              		.loc 1 758 3 view .LVU1077
 759:../../Middlewares/AI_Runtime/Npu/ll_aton/ll_aton.c **** #endif
 3386              		.loc 1 759 3 view .LVU1078
 759:../../Middlewares/AI_Runtime/Npu/ll_aton/ll_aton.c **** #endif
 3387              		.loc 1 759 3 view .LVU1079
 762:../../Middlewares/AI_Runtime/Npu/ll_aton/ll_aton.c **** }
 3388              		.loc 1 762 10 is_stmt 0 view .LVU1080
 3389 01ee 0020     		movs	r0, #0
 759:../../Middlewares/AI_Runtime/Npu/ll_aton/ll_aton.c **** #endif
 3390              		.loc 1 759 3 view .LVU1081
 3391 01f0 6664     		str	r6, [r4, #68]
 759:../../Middlewares/AI_Runtime/Npu/ll_aton/ll_aton.c **** #endif
 3392              		.loc 1 759 3 is_stmt 1 view .LVU1082
 759:../../Middlewares/AI_Runtime/Npu/ll_aton/ll_aton.c **** #endif
 3393              		.loc 1 759 34 view .LVU1083
ARM GAS  C:\Users\Antonio\AppData\Local\Temp\ccynTwLp.s 			page 131


 762:../../Middlewares/AI_Runtime/Npu/ll_aton/ll_aton.c **** }
 3394              		.loc 1 762 3 view .LVU1084
 762:../../Middlewares/AI_Runtime/Npu/ll_aton/ll_aton.c **** }
 3395              		.loc 1 762 10 is_stmt 0 view .LVU1085
 3396 01f2 0EE7     		b	.L240
 3397              	.LVL367:
 3398              	.L244:
 550:../../Middlewares/AI_Runtime/Npu/ll_aton/ll_aton.c ****   io_case += (conf->dir == 0 ? (conf->nbits_in <= conf->nbits_out) : (conf->nbits_in < conf->nbits_
 3399              		.loc 1 550 35 view .LVU1086
 3400 01f4 4200     		lsls	r2, r0, #1
 550:../../Middlewares/AI_Runtime/Npu/ll_aton/ll_aton.c ****   io_case += (conf->dir == 0 ? (conf->nbits_in <= conf->nbits_out) : (conf->nbits_in < conf->nbits_
 3401              		.loc 1 550 7 view .LVU1087
 3402 01f6 02F00202 		and	r2, r2, #2
 551:../../Middlewares/AI_Runtime/Npu/ll_aton/ll_aton.c **** 
 3403              		.loc 1 551 11 discriminator 4 view .LVU1088
 3404 01fa 6645     		cmp	r6, ip
 3405 01fc 52EA2292 		cinc	r2, r2, cc
 3406              	.LVL368:
 553:../../Middlewares/AI_Runtime/Npu/ll_aton/ll_aton.c ****   {
 3407              		.loc 1 553 3 is_stmt 1 view .LVU1089
 3408 0200 022A     		cmp	r2, #2
 3409 0202 7FF452AF 		bne	.L245
 3410 0206 0022     		movs	r2, #0
 3411              	.LVL369:
 553:../../Middlewares/AI_Runtime/Npu/ll_aton/ll_aton.c ****   {
 3412              		.loc 1 553 3 is_stmt 0 view .LVU1090
 3413 0208 0FE0     		b	.L246
 3414              	.LVL370:
 3415              	.L266:
 553:../../Middlewares/AI_Runtime/Npu/ll_aton/ll_aton.c ****   {
 3416              		.loc 1 553 3 view .LVU1091
 3417 020a 0022     		movs	r2, #0
 3418              	.LVL371:
 553:../../Middlewares/AI_Runtime/Npu/ll_aton/ll_aton.c ****   {
 3419              		.loc 1 553 3 view .LVU1092
 3420 020c 5EE7     		b	.L248
 3421              	.LVL372:
 3422              	.L267:
 567:../../Middlewares/AI_Runtime/Npu/ll_aton/ll_aton.c ****     in_bits[2] = nbits_in > 16 ? _LL_min(8, nbits_in - 16) : 0;
 3423              		.loc 1 567 16 discriminator 4 view .LVU1093
 3424 020e 0021     		movs	r1, #0
 3425              	.LVL373:
 568:../../Middlewares/AI_Runtime/Npu/ll_aton/ll_aton.c ****     if (conf->align_right)
 3426              		.loc 1 568 60 discriminator 2 view .LVU1094
 3427 0210 0B46     		mov	r3, r1
 3428 0212 6AE7     		b	.L250
 3429              	.LVL374:
 3430              	.L247:
 594:../../Middlewares/AI_Runtime/Npu/ll_aton/ll_aton.c ****       t_streng_strd = ATON_STRENG_STRD_SET_FGAP(t_streng_strd, (nbits_out - nbits_in));
 3431              		.loc 1 594 5 is_stmt 1 view .LVU1095
 598:../../Middlewares/AI_Runtime/Npu/ll_aton/ll_aton.c ****   }
 3432              		.loc 1 598 15 is_stmt 0 view .LVU1096
 3433 0214 3346     		mov	r3, r6
 3434              	.LVL375:
 595:../../Middlewares/AI_Runtime/Npu/ll_aton/ll_aton.c ****     else
 3435              		.loc 1 595 23 view .LVU1097
 3436 0216 ACEB0602 		sub	r2, ip, r6
ARM GAS  C:\Users\Antonio\AppData\Local\Temp\ccynTwLp.s 			page 132


 3437              	.LVL376:
 594:../../Middlewares/AI_Runtime/Npu/ll_aton/ll_aton.c ****       t_streng_strd = ATON_STRENG_STRD_SET_FGAP(t_streng_strd, (nbits_out - nbits_in));
 3438              		.loc 1 594 8 view .LVU1098
 3439 021a 0106     		lsls	r1, r0, #24
 3440              	.LVL377:
 595:../../Middlewares/AI_Runtime/Npu/ll_aton/ll_aton.c ****     else
 3441              		.loc 1 595 7 is_stmt 1 view .LVU1099
 595:../../Middlewares/AI_Runtime/Npu/ll_aton/ll_aton.c ****     else
 3442              		.loc 1 595 23 is_stmt 0 view .LVU1100
 3443 021c 4BBF     		itete	mi
 3444 021e 1204     		lslmi	r2, r2, #16
 597:../../Middlewares/AI_Runtime/Npu/ll_aton/ll_aton.c ****     nbits_out = nbits_in;
 3445              		.loc 1 597 23 view .LVU1101
 3446 0220 1206     		lslpl	r2, r2, #24
 595:../../Middlewares/AI_Runtime/Npu/ll_aton/ll_aton.c ****     else
 3447              		.loc 1 595 23 view .LVU1102
 3448 0222 02F47C12 		andmi	r2, r2, #4128768
 3449              	.LVL378:
 597:../../Middlewares/AI_Runtime/Npu/ll_aton/ll_aton.c ****     nbits_out = nbits_in;
 3450              		.loc 1 597 7 is_stmt 1 view .LVU1103
 597:../../Middlewares/AI_Runtime/Npu/ll_aton/ll_aton.c ****     nbits_out = nbits_in;
 3451              		.loc 1 597 23 is_stmt 0 view .LVU1104
 3452 0226 02F07C52 		andpl	r2, r2, #1056964608
 3453              	.LVL379:
 3454              	.L246:
 602:../../Middlewares/AI_Runtime/Npu/ll_aton/ll_aton.c ****     out_bits[1] = nbits_out > 8 ? _LL_min(8, nbits_out - 8) : 0;
 3455              		.loc 1 602 5 is_stmt 1 view .LVU1105
 602:../../Middlewares/AI_Runtime/Npu/ll_aton/ll_aton.c ****     out_bits[1] = nbits_out > 8 ? _LL_min(8, nbits_out - 8) : 0;
 3456              		.loc 1 602 19 is_stmt 0 view .LVU1106
 3457 022a 082B     		cmp	r3, #8
 3458 022c 9E46     		mov	lr, r3
 3459 022e A8BF     		it	ge
 3460 0230 4FF0080E 		movge	lr, #8
 3461              	.LVL380:
 603:../../Middlewares/AI_Runtime/Npu/ll_aton/ll_aton.c ****     out_bits[2] = nbits_out > 16 ? _LL_min(8, nbits_out - 16) : 0;
 3462              		.loc 1 603 5 is_stmt 1 view .LVU1107
 603:../../Middlewares/AI_Runtime/Npu/ll_aton/ll_aton.c ****     out_bits[2] = nbits_out > 16 ? _LL_min(8, nbits_out - 16) : 0;
 3463              		.loc 1 603 61 is_stmt 0 view .LVU1108
 3464 0234 082B     		cmp	r3, #8
 3465 0236 10DD     		ble	.L270
 3466              	.LVL381:
 604:../../Middlewares/AI_Runtime/Npu/ll_aton/ll_aton.c ****     if (conf->align_right)
 3467              		.loc 1 604 5 is_stmt 1 view .LVU1109
 604:../../Middlewares/AI_Runtime/Npu/ll_aton/ll_aton.c ****     if (conf->align_right)
 3468              		.loc 1 604 63 is_stmt 0 view .LVU1110
 3469 0238 102B     		cmp	r3, #16
 603:../../Middlewares/AI_Runtime/Npu/ll_aton/ll_aton.c ****     out_bits[2] = nbits_out > 16 ? _LL_min(8, nbits_out - 16) : 0;
 3470              		.loc 1 603 61 discriminator 1 view .LVU1111
 3471 023a D5BF     		itete	le
 3472 023c A3F10801 		suble	r1, r3, #8
 603:../../Middlewares/AI_Runtime/Npu/ll_aton/ll_aton.c ****     out_bits[2] = nbits_out > 16 ? _LL_min(8, nbits_out - 16) : 0;
 3473              		.loc 1 603 17 discriminator 4 view .LVU1112
 3474 0240 0821     		movgt	r1, #8
 604:../../Middlewares/AI_Runtime/Npu/ll_aton/ll_aton.c ****     if (conf->align_right)
 3475              		.loc 1 604 63 discriminator 2 view .LVU1113
 3476 0242 0023     		movle	r3, #0
 3477              	.LVL382:
ARM GAS  C:\Users\Antonio\AppData\Local\Temp\ccynTwLp.s 			page 133


 604:../../Middlewares/AI_Runtime/Npu/ll_aton/ll_aton.c ****     if (conf->align_right)
 3478              		.loc 1 604 63 discriminator 1 view .LVU1114
 3479 0244 103B     		subgt	r3, r3, #16
 3480              	.LVL383:
 3481              	.L254:
 605:../../Middlewares/AI_Runtime/Npu/ll_aton/ll_aton.c ****     {
 3482              		.loc 1 605 5 is_stmt 1 view .LVU1115
 605:../../Middlewares/AI_Runtime/Npu/ll_aton/ll_aton.c ****     {
 3483              		.loc 1 605 8 is_stmt 0 view .LVU1116
 3484 0246 09F0FF0B 		and	fp, r9, #255
 3485 024a B9F1000F 		cmp	r9, #0
 3486 024e 7FF45DAF 		bne	.L252
 613:../../Middlewares/AI_Runtime/Npu/ll_aton/ll_aton.c ****       {
 3487              		.loc 1 613 7 is_stmt 1 view .LVU1117
 613:../../Middlewares/AI_Runtime/Npu/ll_aton/ll_aton.c ****       {
 3488              		.loc 1 613 10 is_stmt 0 view .LVU1118
 3489 0252 102E     		cmp	r6, #16
 3490 0254 04DC     		bgt	.L271
 619:../../Middlewares/AI_Runtime/Npu/ll_aton/ll_aton.c ****       {
 3491              		.loc 1 619 12 is_stmt 1 view .LVU1119
 619:../../Middlewares/AI_Runtime/Npu/ll_aton/ll_aton.c ****       {
 3492              		.loc 1 619 15 is_stmt 0 view .LVU1120
 3493 0256 082E     		cmp	r6, #8
 3494 0258 52E7     		b	.L280
 3495              	.LVL384:
 3496              	.L270:
 603:../../Middlewares/AI_Runtime/Npu/ll_aton/ll_aton.c ****     out_bits[2] = nbits_out > 16 ? _LL_min(8, nbits_out - 16) : 0;
 3497              		.loc 1 603 17 discriminator 4 view .LVU1121
 3498 025a 0021     		movs	r1, #0
 604:../../Middlewares/AI_Runtime/Npu/ll_aton/ll_aton.c ****     if (conf->align_right)
 3499              		.loc 1 604 63 discriminator 2 view .LVU1122
 3500 025c 0B46     		mov	r3, r1
 3501              	.LVL385:
 604:../../Middlewares/AI_Runtime/Npu/ll_aton/ll_aton.c ****     if (conf->align_right)
 3502              		.loc 1 604 63 discriminator 2 view .LVU1123
 3503 025e F2E7     		b	.L254
 3504              	.LVL386:
 3505              	.L271:
 604:../../Middlewares/AI_Runtime/Npu/ll_aton/ll_aton.c ****     if (conf->align_right)
 3506              		.loc 1 604 63 discriminator 2 view .LVU1124
 3507 0260 F146     		mov	r9, lr
 617:../../Middlewares/AI_Runtime/Npu/ll_aton/ll_aton.c ****       }
 3508              		.loc 1 617 20 view .LVU1125
 3509 0262 9E46     		mov	lr, r3
 615:../../Middlewares/AI_Runtime/Npu/ll_aton/ll_aton.c ****         ch_bits[1] = out_bits[1];
 3510              		.loc 1 615 20 view .LVU1126
 3511 0264 4B46     		mov	r3, r9
 3512 0266 51E7     		b	.L252
 3513              	.L272:
 534:../../Middlewares/AI_Runtime/Npu/ll_aton/ll_aton.c ****   int in_bits[3];
 3514              		.loc 1 534 7 view .LVU1127
 3515 0268 5B46     		mov	r3, fp
 3516 026a 5946     		mov	r1, fp
 3517 026c 4EE7     		b	.L252
 3518              	.LVL387:
 3519              	.L256:
 3520              	.LBB42:
ARM GAS  C:\Users\Antonio\AppData\Local\Temp\ccynTwLp.s 			page 134


 661:../../Middlewares/AI_Runtime/Npu/ll_aton/ll_aton.c ****     t = ATON_STRENG_FSIZE_SET_WIDTH(t, conf->fwidth);
 3521              		.loc 1 661 5 is_stmt 1 view .LVU1128
 662:../../Middlewares/AI_Runtime/Npu/ll_aton/ll_aton.c ****     t = ATON_STRENG_FSIZE_SET_HEIGHT(t, conf->fheight);
 3522              		.loc 1 662 5 view .LVU1129
 663:../../Middlewares/AI_Runtime/Npu/ll_aton/ll_aton.c ****     ATON_STRENG_FSIZE_SET(id, t);
 3523              		.loc 1 663 9 is_stmt 0 view .LVU1130
 3524 026e D5E90663 		ldrd	r6, r3, [r5, #24]
 662:../../Middlewares/AI_Runtime/Npu/ll_aton/ll_aton.c ****     t = ATON_STRENG_FSIZE_SET_HEIGHT(t, conf->fheight);
 3525              		.loc 1 662 9 view .LVU1131
 3526 0272 B0B2     		uxth	r0, r6
 666:../../Middlewares/AI_Runtime/Npu/ll_aton/ll_aton.c ****     // if line_offset is left=0 then it's computed from the standard geometry of lines and batch
 3527              		.loc 1 666 87 discriminator 1 view .LVU1132
 3528 0274 4E43     		muls	r6, r1, r6
 663:../../Middlewares/AI_Runtime/Npu/ll_aton/ll_aton.c ****     ATON_STRENG_FSIZE_SET(id, t);
 3529              		.loc 1 663 7 view .LVU1133
 3530 0276 40EA0343 		orr	r3, r0, r3, lsl #16
 3531              	.LVL388:
 664:../../Middlewares/AI_Runtime/Npu/ll_aton/ll_aton.c **** 
 3532              		.loc 1 664 5 is_stmt 1 view .LVU1134
 664:../../Middlewares/AI_Runtime/Npu/ll_aton/ll_aton.c **** 
 3533              		.loc 1 664 5 view .LVU1135
 666:../../Middlewares/AI_Runtime/Npu/ll_aton/ll_aton.c ****     // if line_offset is left=0 then it's computed from the standard geometry of lines and batch
 3534              		.loc 1 666 32 is_stmt 0 view .LVU1136
 3535 027a E86A     		ldr	r0, [r5, #44]
 664:../../Middlewares/AI_Runtime/Npu/ll_aton/ll_aton.c **** 
 3536              		.loc 1 664 5 view .LVU1137
 3537 027c E360     		str	r3, [r4, #12]
 664:../../Middlewares/AI_Runtime/Npu/ll_aton/ll_aton.c **** 
 3538              		.loc 1 664 5 is_stmt 1 view .LVU1138
 664:../../Middlewares/AI_Runtime/Npu/ll_aton/ll_aton.c **** 
 3539              		.loc 1 664 33 view .LVU1139
 666:../../Middlewares/AI_Runtime/Npu/ll_aton/ll_aton.c ****     // if line_offset is left=0 then it's computed from the standard geometry of lines and batch
 3540              		.loc 1 666 5 view .LVU1140
 666:../../Middlewares/AI_Runtime/Npu/ll_aton/ll_aton.c ****     // if line_offset is left=0 then it's computed from the standard geometry of lines and batch
 3541              		.loc 1 666 87 is_stmt 0 discriminator 1 view .LVU1141
 3542 027e 0028     		cmp	r0, #0
 3543 0280 08BF     		it	eq
 3544 0282 3046     		moveq	r0, r6
 3545              	.LVL389:
 668:../../Middlewares/AI_Runtime/Npu/ll_aton/ll_aton.c **** 
 3546              		.loc 1 668 5 is_stmt 1 view .LVU1142
 668:../../Middlewares/AI_Runtime/Npu/ll_aton/ll_aton.c **** 
 3547              		.loc 1 668 21 is_stmt 0 view .LVU1143
 3548 0284 83B2     		uxth	r3, r0
 3549              	.LVL390:
 668:../../Middlewares/AI_Runtime/Npu/ll_aton/ll_aton.c **** 
 3550              		.loc 1 668 19 view .LVU1144
 3551 0286 1A43     		orrs	r2, r2, r3
 3552              	.LVL391:
 671:../../Middlewares/AI_Runtime/Npu/ll_aton/ll_aton.c ****     t = ATON_STRENG_CID_CACHE_SET_LOFF_MSB(t, (line_offset >> ATON_STRENG_STRD_LOFF_W));
 3553              		.loc 1 671 5 is_stmt 1 view .LVU1145
 672:../../Middlewares/AI_Runtime/Npu/ll_aton/ll_aton.c ****     t_streng_cid_cache = t;
 3554              		.loc 1 672 5 view .LVU1146
 677:../../Middlewares/AI_Runtime/Npu/ll_aton/ll_aton.c ****     t = ATON_STRENG_DEPTH_SET_OFFSET(t, conf->batch_offset);
 3555              		.loc 1 677 9 is_stmt 0 view .LVU1147
 3556 0288 2B8C     		ldrh	r3, [r5, #32]
 672:../../Middlewares/AI_Runtime/Npu/ll_aton/ll_aton.c ****     t_streng_cid_cache = t;
ARM GAS  C:\Users\Antonio\AppData\Local\Temp\ccynTwLp.s 			page 135


 3557              		.loc 1 672 9 view .LVU1148
 3558 028a 6FF30F00 		bfc	r0, #0, #16
 3559              	.LVL392:
 673:../../Middlewares/AI_Runtime/Npu/ll_aton/ll_aton.c **** #endif
 3560              		.loc 1 673 5 is_stmt 1 view .LVU1149
 676:../../Middlewares/AI_Runtime/Npu/ll_aton/ll_aton.c ****     t = ATON_STRENG_DEPTH_SET_SIZE(t, conf->batch_depth);
 3561              		.loc 1 676 5 view .LVU1150
 677:../../Middlewares/AI_Runtime/Npu/ll_aton/ll_aton.c ****     t = ATON_STRENG_DEPTH_SET_OFFSET(t, conf->batch_offset);
 3562              		.loc 1 677 5 view .LVU1151
 678:../../Middlewares/AI_Runtime/Npu/ll_aton/ll_aton.c ****     ATON_STRENG_DEPTH_SET(id, t);
 3563              		.loc 1 678 5 view .LVU1152
 678:../../Middlewares/AI_Runtime/Npu/ll_aton/ll_aton.c ****     ATON_STRENG_DEPTH_SET(id, t);
 3564              		.loc 1 678 7 is_stmt 0 view .LVU1153
 3565 028e 43EA0143 		orr	r3, r3, r1, lsl #16
 3566              	.LVL393:
 679:../../Middlewares/AI_Runtime/Npu/ll_aton/ll_aton.c ****   }
 3567              		.loc 1 679 5 is_stmt 1 view .LVU1154
 679:../../Middlewares/AI_Runtime/Npu/ll_aton/ll_aton.c ****   }
 3568              		.loc 1 679 5 view .LVU1155
 3569 0292 2361     		str	r3, [r4, #16]
 3570 0294 5CE7     		b	.L260
 3571              	.LBE42:
 3572              		.cfi_endproc
 3573              	.LFE4827:
 3575              		.section	.text.LL_Streng_ExtSyncInit,"ax",%progbits
 3576              		.align	1
 3577              		.global	LL_Streng_ExtSyncInit
 3578              		.syntax unified
 3579              		.thumb
 3580              		.thumb_func
 3582              	LL_Streng_ExtSyncInit:
 3583              	.LVL394:
 3584              	.LFB4828:
 772:../../Middlewares/AI_Runtime/Npu/ll_aton/ll_aton.c **** #ifdef ATON_STRENG_EXTSYNC_SET
 3585              		.loc 1 772 1 view -0
 3586              		.cfi_startproc
 3587              		@ args = 0, pretend = 0, frame = 0
 3588              		@ frame_needed = 0, uses_anonymous_args = 0
 774:../../Middlewares/AI_Runtime/Npu/ll_aton/ll_aton.c **** 
 3589              		.loc 1 774 3 view .LVU1157
 776:../../Middlewares/AI_Runtime/Npu/ll_aton/ll_aton.c ****     return LL_ATON_INVALID_ID;
 3590              		.loc 1 776 3 view .LVU1158
 776:../../Middlewares/AI_Runtime/Npu/ll_aton/ll_aton.c ****     return LL_ATON_INVALID_ID;
 3591              		.loc 1 776 6 is_stmt 0 view .LVU1159
 3592 0000 0928     		cmp	r0, #9
 772:../../Middlewares/AI_Runtime/Npu/ll_aton/ll_aton.c **** #ifdef ATON_STRENG_EXTSYNC_SET
 3593              		.loc 1 772 1 view .LVU1160
 3594 0002 38B5     		push	{r3, r4, r5, lr}
 3595              		.cfi_def_cfa_offset 16
 3596              		.cfi_offset 3, -16
 3597              		.cfi_offset 4, -12
 3598              		.cfi_offset 5, -8
 3599              		.cfi_offset 14, -4
 772:../../Middlewares/AI_Runtime/Npu/ll_aton/ll_aton.c **** #ifdef ATON_STRENG_EXTSYNC_SET
 3600              		.loc 1 772 1 view .LVU1161
 3601 0004 0D46     		mov	r5, r1
 776:../../Middlewares/AI_Runtime/Npu/ll_aton/ll_aton.c ****     return LL_ATON_INVALID_ID;
ARM GAS  C:\Users\Antonio\AppData\Local\Temp\ccynTwLp.s 			page 136


 3602              		.loc 1 776 6 view .LVU1162
 3603 0006 16DC     		bgt	.L283
 779:../../Middlewares/AI_Runtime/Npu/ll_aton/ll_aton.c **** 
 3604              		.loc 1 779 3 is_stmt 1 view .LVU1163
 3605 0008 FFF7FEFF 		bl	LL_ATON_EnableClock
 3606              	.LVL395:
 781:../../Middlewares/AI_Runtime/Npu/ll_aton/ll_aton.c ****   t = ATON_STRENG_EXTSYNC_SET_EN(t, conf->enable);
 3607              		.loc 1 781 3 view .LVU1164
 782:../../Middlewares/AI_Runtime/Npu/ll_aton/ll_aton.c ****   t = ATON_STRENG_EXTSYNC_SET_SRC(t, conf->trig_source);
 3608              		.loc 1 782 3 view .LVU1165
 783:../../Middlewares/AI_Runtime/Npu/ll_aton/ll_aton.c ****   t = ATON_STRENG_EXTSYNC_SET_LINES(t, conf->lines);
 3609              		.loc 1 783 3 view .LVU1166
 784:../../Middlewares/AI_Runtime/Npu/ll_aton/ll_aton.c ****   ATON_STRENG_EXTSYNC_SET(id, t);
 3610              		.loc 1 784 3 view .LVU1167
 785:../../Middlewares/AI_Runtime/Npu/ll_aton/ll_aton.c **** 
 3611              		.loc 1 785 3 is_stmt 0 view .LVU1168
 3612 000c 0403     		lsls	r4, r0, #12
 792:../../Middlewares/AI_Runtime/Npu/ll_aton/ll_aton.c **** }
 3613              		.loc 1 792 10 view .LVU1169
 3614 000e 0020     		movs	r0, #0
 3615              	.LVL396:
 782:../../Middlewares/AI_Runtime/Npu/ll_aton/ll_aton.c ****   t = ATON_STRENG_EXTSYNC_SET_SRC(t, conf->trig_source);
 3616              		.loc 1 782 7 view .LVU1170
 3617 0010 2A78     		ldrb	r2, [r5]	@ zero_extendqisi2
 784:../../Middlewares/AI_Runtime/Npu/ll_aton/ll_aton.c ****   ATON_STRENG_EXTSYNC_SET(id, t);
 3618              		.loc 1 784 7 view .LVU1171
 3619 0012 6968     		ldr	r1, [r5, #4]
 782:../../Middlewares/AI_Runtime/Npu/ll_aton/ll_aton.c ****   t = ATON_STRENG_EXTSYNC_SET_SRC(t, conf->trig_source);
 3620              		.loc 1 782 7 view .LVU1172
 3621 0014 02F00103 		and	r3, r2, #1
 784:../../Middlewares/AI_Runtime/Npu/ll_aton/ll_aton.c ****   ATON_STRENG_EXTSYNC_SET(id, t);
 3622              		.loc 1 784 5 view .LVU1173
 3623 0018 43EA0143 		orr	r3, r3, r1, lsl #16
 783:../../Middlewares/AI_Runtime/Npu/ll_aton/ll_aton.c ****   t = ATON_STRENG_EXTSYNC_SET_LINES(t, conf->lines);
 3624              		.loc 1 783 7 view .LVU1174
 3625 001c C2F34302 		ubfx	r2, r2, #1, #4
 784:../../Middlewares/AI_Runtime/Npu/ll_aton/ll_aton.c ****   ATON_STRENG_EXTSYNC_SET(id, t);
 3626              		.loc 1 784 5 view .LVU1175
 3627 0020 43EA0213 		orr	r3, r3, r2, lsl #4
 3628              	.LVL397:
 785:../../Middlewares/AI_Runtime/Npu/ll_aton/ll_aton.c **** 
 3629              		.loc 1 785 3 is_stmt 1 view .LVU1176
 785:../../Middlewares/AI_Runtime/Npu/ll_aton/ll_aton.c **** 
 3630              		.loc 1 785 3 view .LVU1177
 3631 0024 054A     		ldr	r2, .L284
 3632 0026 A350     		str	r3, [r4, r2]
 785:../../Middlewares/AI_Runtime/Npu/ll_aton/ll_aton.c **** 
 3633              		.loc 1 785 3 view .LVU1178
 785:../../Middlewares/AI_Runtime/Npu/ll_aton/ll_aton.c **** 
 3634              		.loc 1 785 33 view .LVU1179
 787:../../Middlewares/AI_Runtime/Npu/ll_aton/ll_aton.c ****   t = ATON_STRENG_EXTSYNC2_SET_LINES(t, conf->lines_offset);
 3635              		.loc 1 787 3 view .LVU1180
 3636              	.LVL398:
 788:../../Middlewares/AI_Runtime/Npu/ll_aton/ll_aton.c ****   t = ATON_STRENG_EXTSYNC2_SET_OFF(t, conf->offset);
 3637              		.loc 1 788 3 view .LVU1181
 789:../../Middlewares/AI_Runtime/Npu/ll_aton/ll_aton.c ****   ATON_STRENG_EXTSYNC2_SET(id, t);
 3638              		.loc 1 789 3 view .LVU1182
ARM GAS  C:\Users\Antonio\AppData\Local\Temp\ccynTwLp.s 			page 137


 789:../../Middlewares/AI_Runtime/Npu/ll_aton/ll_aton.c ****   ATON_STRENG_EXTSYNC2_SET(id, t);
 3639              		.loc 1 789 7 is_stmt 0 view .LVU1183
 3640 0028 EA68     		ldr	r2, [r5, #12]
 788:../../Middlewares/AI_Runtime/Npu/ll_aton/ll_aton.c ****   t = ATON_STRENG_EXTSYNC2_SET_OFF(t, conf->offset);
 3641              		.loc 1 788 7 view .LVU1184
 3642 002a 2B89     		ldrh	r3, [r5, #8]
 789:../../Middlewares/AI_Runtime/Npu/ll_aton/ll_aton.c ****   ATON_STRENG_EXTSYNC2_SET(id, t);
 3643              		.loc 1 789 5 view .LVU1185
 3644 002c 43EA0243 		orr	r3, r3, r2, lsl #16
 3645              	.LVL399:
 790:../../Middlewares/AI_Runtime/Npu/ll_aton/ll_aton.c **** #endif
 3646              		.loc 1 790 3 is_stmt 1 view .LVU1186
 790:../../Middlewares/AI_Runtime/Npu/ll_aton/ll_aton.c **** #endif
 3647              		.loc 1 790 3 view .LVU1187
 3648 0030 034A     		ldr	r2, .L284+4
 3649 0032 A350     		str	r3, [r4, r2]
 790:../../Middlewares/AI_Runtime/Npu/ll_aton/ll_aton.c **** #endif
 3650              		.loc 1 790 3 view .LVU1188
 790:../../Middlewares/AI_Runtime/Npu/ll_aton/ll_aton.c **** #endif
 3651              		.loc 1 790 34 view .LVU1189
 792:../../Middlewares/AI_Runtime/Npu/ll_aton/ll_aton.c **** }
 3652              		.loc 1 792 3 view .LVU1190
 3653              	.LVL400:
 3654              	.L281:
 793:../../Middlewares/AI_Runtime/Npu/ll_aton/ll_aton.c **** 
 3655              		.loc 1 793 1 is_stmt 0 view .LVU1191
 3656 0034 38BD     		pop	{r3, r4, r5, pc}
 3657              	.LVL401:
 3658              	.L283:
 777:../../Middlewares/AI_Runtime/Npu/ll_aton/ll_aton.c **** 
 3659              		.loc 1 777 12 view .LVU1192
 3660 0036 4FF0FF30 		mov	r0, #-1
 3661              	.LVL402:
 777:../../Middlewares/AI_Runtime/Npu/ll_aton/ll_aton.c **** 
 3662              		.loc 1 777 12 view .LVU1193
 3663 003a FBE7     		b	.L281
 3664              	.L285:
 3665              		.align	2
 3666              	.L284:
 3667 003c 4C500E58 		.word	1477333068
 3668 0040 50500E58 		.word	1477333072
 3669              		.cfi_endproc
 3670              	.LFE4828:
 3672              		.section	.rodata.LL_Decun_Init.str1.1,"aMS",%progbits,1
 3673              	.LC27:
 3674 0000 28636F6E 		.ascii	"(conf->nFormatBytes == 1) || (conf->nFormatBytes =="
 3674      662D3E6E 
 3674      466F726D 
 3674      61744279 
 3674      74657320 
 3675 0033 20322900 		.ascii	" 2)\000"
 3676              		.section	.text.LL_Decun_Init,"ax",%progbits
 3677              		.align	1
 3678              		.global	LL_Decun_Init
 3679              		.syntax unified
 3680              		.thumb
 3681              		.thumb_func
ARM GAS  C:\Users\Antonio\AppData\Local\Temp\ccynTwLp.s 			page 138


 3683              	LL_Decun_Init:
 3684              	.LVL403:
 3685              	.LFB4840:
1557:../../Middlewares/AI_Runtime/Npu/ll_aton/ll_aton.c ****   uint32_t t;
 3686              		.loc 1 1557 1 is_stmt 1 view -0
 3687              		.cfi_startproc
 3688              		@ args = 0, pretend = 0, frame = 8
 3689              		@ frame_needed = 0, uses_anonymous_args = 0
1558:../../Middlewares/AI_Runtime/Npu/ll_aton/ll_aton.c **** 
 3690              		.loc 1 1558 3 view .LVU1195
1560:../../Middlewares/AI_Runtime/Npu/ll_aton/ll_aton.c ****     return LL_ATON_INVALID_ID;
 3691              		.loc 1 1560 3 view .LVU1196
1560:../../Middlewares/AI_Runtime/Npu/ll_aton/ll_aton.c ****     return LL_ATON_INVALID_ID;
 3692              		.loc 1 1560 6 is_stmt 0 view .LVU1197
 3693 0000 0128     		cmp	r0, #1
1557:../../Middlewares/AI_Runtime/Npu/ll_aton/ll_aton.c ****   uint32_t t;
 3694              		.loc 1 1557 1 view .LVU1198
 3695 0002 2DE9F74F 		push	{r0, r1, r2, r4, r5, r6, r7, r8, r9, r10, fp, lr}
 3696              		.cfi_def_cfa_offset 48
 3697              		.cfi_offset 4, -36
 3698              		.cfi_offset 5, -32
 3699              		.cfi_offset 6, -28
 3700              		.cfi_offset 7, -24
 3701              		.cfi_offset 8, -20
 3702              		.cfi_offset 9, -16
 3703              		.cfi_offset 10, -12
 3704              		.cfi_offset 11, -8
 3705              		.cfi_offset 14, -4
1557:../../Middlewares/AI_Runtime/Npu/ll_aton/ll_aton.c ****   uint32_t t;
 3706              		.loc 1 1557 1 view .LVU1199
 3707 0006 0446     		mov	r4, r0
 3708 0008 0E46     		mov	r6, r1
1560:../../Middlewares/AI_Runtime/Npu/ll_aton/ll_aton.c ****     return LL_ATON_INVALID_ID;
 3709              		.loc 1 1560 6 view .LVU1200
 3710 000a 00F38882 		bgt	.L349
1563:../../Middlewares/AI_Runtime/Npu/ll_aton/ll_aton.c **** 
 3711              		.loc 1 1563 3 is_stmt 1 view .LVU1201
 3712 000e 0E30     		adds	r0, r0, #14
 3713              	.LVL404:
1563:../../Middlewares/AI_Runtime/Npu/ll_aton/ll_aton.c **** 
 3714              		.loc 1 1563 3 is_stmt 0 view .LVU1202
 3715 0010 FFF7FEFF 		bl	LL_ATON_EnableClock
 3716              	.LVL405:
1565:../../Middlewares/AI_Runtime/Npu/ll_aton/ll_aton.c ****   t = ATON_DECUN_CTRL_SET_DUALIN(t, (conf->noDualInput != 0));
 3717              		.loc 1 1565 3 is_stmt 1 view .LVU1203
1566:../../Middlewares/AI_Runtime/Npu/ll_aton/ll_aton.c ****   t = ATON_DECUN_CTRL_SET_OW(t, (conf->noOverWrite != 0));
 3718              		.loc 1 1566 3 view .LVU1204
1567:../../Middlewares/AI_Runtime/Npu/ll_aton/ll_aton.c ****   ATON_DECUN_CTRL_SET(id, t);
 3719              		.loc 1 1567 3 view .LVU1205
1566:../../Middlewares/AI_Runtime/Npu/ll_aton/ll_aton.c ****   t = ATON_DECUN_CTRL_SET_OW(t, (conf->noOverWrite != 0));
 3720              		.loc 1 1566 7 is_stmt 0 view .LVU1206
 3721 0014 317A     		ldrb	r1, [r6, #8]	@ zero_extendqisi2
1568:../../Middlewares/AI_Runtime/Npu/ll_aton/ll_aton.c **** 
 3722              		.loc 1 1568 3 view .LVU1207
 3723 0016 04F5B028 		add	r8, r4, #360448
1566:../../Middlewares/AI_Runtime/Npu/ll_aton/ll_aton.c ****   t = ATON_DECUN_CTRL_SET_OW(t, (conf->noOverWrite != 0));
 3724              		.loc 1 1566 7 view .LVU1208
ARM GAS  C:\Users\Antonio\AppData\Local\Temp\ccynTwLp.s 			page 139


 3725 001a 8900     		lsls	r1, r1, #2
1568:../../Middlewares/AI_Runtime/Npu/ll_aton/ll_aton.c **** 
 3726              		.loc 1 1568 3 view .LVU1209
 3727 001c 08F1F308 		add	r8, r8, #243
1570:../../Middlewares/AI_Runtime/Npu/ll_aton/ll_aton.c ****   {
 3728              		.loc 1 1570 11 view .LVU1210
 3729 0020 3569     		ldr	r5, [r6, #16]
1567:../../Middlewares/AI_Runtime/Npu/ll_aton/ll_aton.c ****   ATON_DECUN_CTRL_SET(id, t);
 3730              		.loc 1 1567 5 view .LVU1211
 3731 0022 01F00C01 		and	r1, r1, #12
 3732              	.LVL406:
1568:../../Middlewares/AI_Runtime/Npu/ll_aton/ll_aton.c **** 
 3733              		.loc 1 1568 3 is_stmt 1 view .LVU1212
1568:../../Middlewares/AI_Runtime/Npu/ll_aton/ll_aton.c **** 
 3734              		.loc 1 1568 3 view .LVU1213
 3735 0026 4FEA0838 		lsl	r8, r8, #12
 3736 002a C8F80010 		str	r1, [r8]
1568:../../Middlewares/AI_Runtime/Npu/ll_aton/ll_aton.c **** 
 3737              		.loc 1 1568 3 view .LVU1214
1568:../../Middlewares/AI_Runtime/Npu/ll_aton/ll_aton.c **** 
 3738              		.loc 1 1568 29 view .LVU1215
1570:../../Middlewares/AI_Runtime/Npu/ll_aton/ll_aton.c ****   {
 3739              		.loc 1 1570 3 view .LVU1216
1570:../../Middlewares/AI_Runtime/Npu/ll_aton/ll_aton.c ****   {
 3740              		.loc 1 1570 6 is_stmt 0 view .LVU1217
 3741 002e DDB9     		cbnz	r5, .L288
 3742              	.LVL407:
 3743              	.L312:
1583:../../Middlewares/AI_Runtime/Npu/ll_aton/ll_aton.c ****   t = ATON_DECUN_BFORMAT_SET_CVS(t, conf->nCVperCB - 1);
 3744              		.loc 1 1583 3 is_stmt 1 view .LVU1218
1584:../../Middlewares/AI_Runtime/Npu/ll_aton/ll_aton.c ****   t = ATON_DECUN_BFORMAT_SET_CWS(t, conf->nCWperCV - 1);
 3745              		.loc 1 1584 3 view .LVU1219
1585:../../Middlewares/AI_Runtime/Npu/ll_aton/ll_aton.c ****   t = ATON_DECUN_BFORMAT_SET_OSAM(t, conf->nRCWlastCV);
 3746              		.loc 1 1585 3 view .LVU1220
1586:../../Middlewares/AI_Runtime/Npu/ll_aton/ll_aton.c ****   ATON_DECUN_BFORMAT_SET(id, t);
 3747              		.loc 1 1586 3 view .LVU1221
1584:../../Middlewares/AI_Runtime/Npu/ll_aton/ll_aton.c ****   t = ATON_DECUN_BFORMAT_SET_CWS(t, conf->nCWperCV - 1);
 3748              		.loc 1 1584 7 is_stmt 0 view .LVU1222
 3749 0030 3388     		ldrh	r3, [r6]
1586:../../Middlewares/AI_Runtime/Npu/ll_aton/ll_aton.c ****   ATON_DECUN_BFORMAT_SET(id, t);
 3750              		.loc 1 1586 7 view .LVU1223
 3751 0032 F278     		ldrb	r2, [r6, #3]	@ zero_extendqisi2
1584:../../Middlewares/AI_Runtime/Npu/ll_aton/ll_aton.c ****   t = ATON_DECUN_BFORMAT_SET_CWS(t, conf->nCWperCV - 1);
 3752              		.loc 1 1584 7 view .LVU1224
 3753 0034 013B     		subs	r3, r3, #1
1586:../../Middlewares/AI_Runtime/Npu/ll_aton/ll_aton.c ****   ATON_DECUN_BFORMAT_SET(id, t);
 3754              		.loc 1 1586 7 view .LVU1225
 3755 0036 1203     		lsls	r2, r2, #12
 3756 0038 02F4E042 		and	r2, r2, #28672
1584:../../Middlewares/AI_Runtime/Npu/ll_aton/ll_aton.c ****   t = ATON_DECUN_BFORMAT_SET_CWS(t, conf->nCWperCV - 1);
 3757              		.loc 1 1584 7 view .LVU1226
 3758 003c DBB2     		uxtb	r3, r3
1586:../../Middlewares/AI_Runtime/Npu/ll_aton/ll_aton.c ****   ATON_DECUN_BFORMAT_SET(id, t);
 3759              		.loc 1 1586 5 view .LVU1227
 3760 003e 1343     		orrs	r3, r3, r2
1585:../../Middlewares/AI_Runtime/Npu/ll_aton/ll_aton.c ****   t = ATON_DECUN_BFORMAT_SET_OSAM(t, conf->nRCWlastCV);
 3761              		.loc 1 1585 7 view .LVU1228
ARM GAS  C:\Users\Antonio\AppData\Local\Temp\ccynTwLp.s 			page 140


 3762 0040 B278     		ldrb	r2, [r6, #2]	@ zero_extendqisi2
 3763              	.LVL408:
1585:../../Middlewares/AI_Runtime/Npu/ll_aton/ll_aton.c ****   t = ATON_DECUN_BFORMAT_SET_OSAM(t, conf->nRCWlastCV);
 3764              		.loc 1 1585 7 view .LVU1229
 3765 0042 013A     		subs	r2, r2, #1
 3766              	.LVL409:
1585:../../Middlewares/AI_Runtime/Npu/ll_aton/ll_aton.c ****   t = ATON_DECUN_BFORMAT_SET_OSAM(t, conf->nRCWlastCV);
 3767              		.loc 1 1585 7 view .LVU1230
 3768 0044 1202     		lsls	r2, r2, #8
 3769              	.LVL410:
1585:../../Middlewares/AI_Runtime/Npu/ll_aton/ll_aton.c ****   t = ATON_DECUN_BFORMAT_SET_OSAM(t, conf->nRCWlastCV);
 3770              		.loc 1 1585 7 view .LVU1231
 3771 0046 02F4E062 		and	r2, r2, #1792
1586:../../Middlewares/AI_Runtime/Npu/ll_aton/ll_aton.c ****   ATON_DECUN_BFORMAT_SET(id, t);
 3772              		.loc 1 1586 5 view .LVU1232
 3773 004a 1343     		orrs	r3, r3, r2
 3774              	.LVL411:
1587:../../Middlewares/AI_Runtime/Npu/ll_aton/ll_aton.c **** 
 3775              		.loc 1 1587 3 is_stmt 1 view .LVU1233
1587:../../Middlewares/AI_Runtime/Npu/ll_aton/ll_aton.c **** 
 3776              		.loc 1 1587 3 view .LVU1234
 3777 004c C8F80830 		str	r3, [r8, #8]
1587:../../Middlewares/AI_Runtime/Npu/ll_aton/ll_aton.c **** 
 3778              		.loc 1 1587 3 view .LVU1235
1587:../../Middlewares/AI_Runtime/Npu/ll_aton/ll_aton.c **** 
 3779              		.loc 1 1587 32 view .LVU1236
1589:../../Middlewares/AI_Runtime/Npu/ll_aton/ll_aton.c **** 
 3780              		.loc 1 1589 3 view .LVU1237
 3781 0050 3379     		ldrb	r3, [r6, #4]	@ zero_extendqisi2
 3782              	.LVL412:
1589:../../Middlewares/AI_Runtime/Npu/ll_aton/ll_aton.c **** 
 3783              		.loc 1 1589 3 is_stmt 0 view .LVU1238
 3784 0052 5A1E     		subs	r2, r3, #1
 3785 0054 012A     		cmp	r2, #1
 3786 0056 40F25582 		bls	.L357
1589:../../Middlewares/AI_Runtime/Npu/ll_aton/ll_aton.c **** 
 3787              		.loc 1 1589 3 discriminator 1 view .LVU1239
 3788 005a 40F23561 		movw	r1, #1589
 3789 005e B34B     		ldr	r3, .L362
 3790 0060 B34A     		ldr	r2, .L362+4
 3791 0062 B448     		ldr	r0, .L362+8
 3792 0064 FFF7FEFF 		bl	__assert_func
 3793              	.LVL413:
 3794              	.L288:
1572:../../Middlewares/AI_Runtime/Npu/ll_aton/ll_aton.c ****     {
 3795              		.loc 1 1572 5 is_stmt 1 view .LVU1240
1572:../../Middlewares/AI_Runtime/Npu/ll_aton/ll_aton.c ****     {
 3796              		.loc 1 1572 8 is_stmt 0 view .LVU1241
 3797 0068 3379     		ldrb	r3, [r6, #4]	@ zero_extendqisi2
 3798              	.LBB77:
 3799              	.LBB78:
1210:../../Middlewares/AI_Runtime/Npu/ll_aton/ll_aton.c ****   {
 3800              		.loc 1 1210 11 view .LVU1242
 3801 006a B778     		ldrb	r7, [r6, #2]	@ zero_extendqisi2
 3802              	.LBE78:
 3803              	.LBE77:
1572:../../Middlewares/AI_Runtime/Npu/ll_aton/ll_aton.c ****     {
ARM GAS  C:\Users\Antonio\AppData\Local\Temp\ccynTwLp.s 			page 141


 3804              		.loc 1 1572 8 view .LVU1243
 3805 006c 012B     		cmp	r3, #1
 3806 006e 40F00281 		bne	.L291
1574:../../Middlewares/AI_Runtime/Npu/ll_aton/ll_aton.c ****     }
 3807              		.loc 1 1574 7 is_stmt 1 view .LVU1244
 3808              	.LVL414:
 3809              	.LBB97:
 3810              	.LBI77:
1204:../../Middlewares/AI_Runtime/Npu/ll_aton/ll_aton.c **** {
 3811              		.loc 1 1204 13 view .LVU1245
 3812              	.LBB96:
1206:../../Middlewares/AI_Runtime/Npu/ll_aton/ll_aton.c ****   unsigned i, k;
 3813              		.loc 1 1206 3 view .LVU1246
1207:../../Middlewares/AI_Runtime/Npu/ll_aton/ll_aton.c ****   unsigned mem_idx_num = ATON_DECUN_MEM_LOW_IDX_MAX - ATON_DECUN_MEM_LOW_IDX_MIN + 1;
 3814              		.loc 1 1207 3 view .LVU1247
1208:../../Middlewares/AI_Runtime/Npu/ll_aton/ll_aton.c **** 
 3815              		.loc 1 1208 3 view .LVU1248
1210:../../Middlewares/AI_Runtime/Npu/ll_aton/ll_aton.c ****   {
 3816              		.loc 1 1210 3 view .LVU1249
1210:../../Middlewares/AI_Runtime/Npu/ll_aton/ll_aton.c ****   {
 3817              		.loc 1 1210 6 is_stmt 0 view .LVU1250
 3818 0072 012F     		cmp	r7, #1
 3819 0074 17D1     		bne	.L292
 3820              	.LBB79:
1212:../../Middlewares/AI_Runtime/Npu/ll_aton/ll_aton.c ****     for (i = 0, k = 0; i < CBsize; i++)
 3821              		.loc 1 1212 5 is_stmt 1 view .LVU1251
 3822              	.LVL415:
1213:../../Middlewares/AI_Runtime/Npu/ll_aton/ll_aton.c ****     {
 3823              		.loc 1 1213 5 view .LVU1252
1213:../../Middlewares/AI_Runtime/Npu/ll_aton/ll_aton.c ****     {
 3824              		.loc 1 1213 26 discriminator 1 view .LVU1253
 3825 0076 B04B     		ldr	r3, .L362+12
 3826 0078 F768     		ldr	r7, [r6, #12]
 3827 007a 03EB4429 		add	r9, r3, r4, lsl #9
1213:../../Middlewares/AI_Runtime/Npu/ll_aton/ll_aton.c ****     {
 3828              		.loc 1 1213 19 is_stmt 0 view .LVU1254
 3829 007e 0023     		movs	r3, #0
 3830 0080 3D44     		add	r5, r5, r7
 3831              	.LVL416:
 3832              	.L294:
 3833              	.LBB80:
1215:../../Middlewares/AI_Runtime/Npu/ll_aton/ll_aton.c ****       ATON_DECUN_MEM_LOW_SET(id, k, temp);
 3834              		.loc 1 1215 7 is_stmt 1 view .LVU1255
1216:../../Middlewares/AI_Runtime/Npu/ll_aton/ll_aton.c ****       k++;
 3835              		.loc 1 1216 7 is_stmt 0 view .LVU1256
 3836 0082 09EB0302 		add	r2, r9, r3
1215:../../Middlewares/AI_Runtime/Npu/ll_aton/ll_aton.c ****       ATON_DECUN_MEM_LOW_SET(id, k, temp);
 3837              		.loc 1 1215 26 view .LVU1257
 3838 0086 17F8010B 		ldrb	r0, [r7], #1	@ zero_extendqisi2
 3839              	.LVL417:
1216:../../Middlewares/AI_Runtime/Npu/ll_aton/ll_aton.c ****       k++;
 3840              		.loc 1 1216 7 is_stmt 1 view .LVU1258
1216:../../Middlewares/AI_Runtime/Npu/ll_aton/ll_aton.c ****       k++;
 3841              		.loc 1 1216 7 view .LVU1259
1217:../../Middlewares/AI_Runtime/Npu/ll_aton/ll_aton.c ****       if (k == mem_idx_num)
 3842              		.loc 1 1217 8 is_stmt 0 view .LVU1260
 3843 008a 0133     		adds	r3, r3, #1
ARM GAS  C:\Users\Antonio\AppData\Local\Temp\ccynTwLp.s 			page 142


 3844              	.LVL418:
1216:../../Middlewares/AI_Runtime/Npu/ll_aton/ll_aton.c ****       k++;
 3845              		.loc 1 1216 7 view .LVU1261
 3846 008c D200     		lsls	r2, r2, #3
1218:../../Middlewares/AI_Runtime/Npu/ll_aton/ll_aton.c ****       {
 3847              		.loc 1 1218 10 view .LVU1262
 3848 008e B3F5807F 		cmp	r3, #256
1216:../../Middlewares/AI_Runtime/Npu/ll_aton/ll_aton.c ****       k++;
 3849              		.loc 1 1216 7 view .LVU1263
 3850 0092 1060     		str	r0, [r2]
1216:../../Middlewares/AI_Runtime/Npu/ll_aton/ll_aton.c ****       k++;
 3851              		.loc 1 1216 7 is_stmt 1 view .LVU1264
1217:../../Middlewares/AI_Runtime/Npu/ll_aton/ll_aton.c ****       if (k == mem_idx_num)
 3852              		.loc 1 1217 7 view .LVU1265
 3853              	.LVL419:
1218:../../Middlewares/AI_Runtime/Npu/ll_aton/ll_aton.c ****       {
 3854              		.loc 1 1218 7 view .LVU1266
1218:../../Middlewares/AI_Runtime/Npu/ll_aton/ll_aton.c ****       {
 3855              		.loc 1 1218 10 is_stmt 0 view .LVU1267
 3856 0094 04D1     		bne	.L293
1220:../../Middlewares/AI_Runtime/Npu/ll_aton/ll_aton.c ****         k = 0;
 3857              		.loc 1 1220 9 is_stmt 1 view .LVU1268
1220:../../Middlewares/AI_Runtime/Npu/ll_aton/ll_aton.c ****         k = 0;
 3858              		.loc 1 1220 20 is_stmt 0 view .LVU1269
 3859 0096 2046     		mov	r0, r4
 3860              	.LVL420:
1220:../../Middlewares/AI_Runtime/Npu/ll_aton/ll_aton.c ****         k = 0;
 3861              		.loc 1 1220 20 view .LVU1270
 3862 0098 FFF7FEFF 		bl	decun_inc_page_addr
 3863              	.LVL421:
1221:../../Middlewares/AI_Runtime/Npu/ll_aton/ll_aton.c ****       }
 3864              		.loc 1 1221 11 view .LVU1271
 3865 009c 0023     		movs	r3, #0
1220:../../Middlewares/AI_Runtime/Npu/ll_aton/ll_aton.c ****         k = 0;
 3866              		.loc 1 1220 20 view .LVU1272
 3867 009e 0146     		mov	r1, r0
 3868              	.LVL422:
1221:../../Middlewares/AI_Runtime/Npu/ll_aton/ll_aton.c ****       }
 3869              		.loc 1 1221 9 is_stmt 1 view .LVU1273
 3870              	.L293:
1221:../../Middlewares/AI_Runtime/Npu/ll_aton/ll_aton.c ****       }
 3871              		.loc 1 1221 9 is_stmt 0 view .LVU1274
 3872              	.LBE80:
1213:../../Middlewares/AI_Runtime/Npu/ll_aton/ll_aton.c ****     {
 3873              		.loc 1 1213 37 is_stmt 1 discriminator 2 view .LVU1275
1213:../../Middlewares/AI_Runtime/Npu/ll_aton/ll_aton.c ****     {
 3874              		.loc 1 1213 26 discriminator 1 view .LVU1276
 3875 00a0 BD42     		cmp	r5, r7
 3876 00a2 EED1     		bne	.L294
1213:../../Middlewares/AI_Runtime/Npu/ll_aton/ll_aton.c ****     {
 3877              		.loc 1 1213 26 is_stmt 0 discriminator 1 view .LVU1277
 3878 00a4 C4E7     		b	.L312
 3879              	.LVL423:
 3880              	.L292:
1213:../../Middlewares/AI_Runtime/Npu/ll_aton/ll_aton.c ****     {
 3881              		.loc 1 1213 26 discriminator 1 view .LVU1278
 3882              	.LBE79:
ARM GAS  C:\Users\Antonio\AppData\Local\Temp\ccynTwLp.s 			page 143


1225:../../Middlewares/AI_Runtime/Npu/ll_aton/ll_aton.c ****   {
 3883              		.loc 1 1225 3 is_stmt 1 view .LVU1279
1225:../../Middlewares/AI_Runtime/Npu/ll_aton/ll_aton.c ****   {
 3884              		.loc 1 1225 6 is_stmt 0 view .LVU1280
 3885 00a6 022F     		cmp	r7, #2
 3886 00a8 18D1     		bne	.L296
 3887              	.LBB81:
1241:../../Middlewares/AI_Runtime/Npu/ll_aton/ll_aton.c ****     for (i = 0, k = 0; i < CBsize / 2; i++)
 3888              		.loc 1 1241 5 is_stmt 1 view .LVU1281
 3889              	.LVL424:
1242:../../Middlewares/AI_Runtime/Npu/ll_aton/ll_aton.c ****     {
 3890              		.loc 1 1242 5 view .LVU1282
1242:../../Middlewares/AI_Runtime/Npu/ll_aton/ll_aton.c ****     {
 3891              		.loc 1 1242 5 is_stmt 0 view .LVU1283
 3892 00aa A34B     		ldr	r3, .L362+12
 3893 00ac F768     		ldr	r7, [r6, #12]
 3894 00ae 25F00105 		bic	r5, r5, #1
 3895              	.LVL425:
1242:../../Middlewares/AI_Runtime/Npu/ll_aton/ll_aton.c ****     {
 3896              		.loc 1 1242 5 view .LVU1284
 3897 00b2 03EB4429 		add	r9, r3, r4, lsl #9
 3898 00b6 3D44     		add	r5, r5, r7
 3899              	.LVL426:
 3900              	.L358:
 3901              	.LBB82:
1250:../../Middlewares/AI_Runtime/Npu/ll_aton/ll_aton.c ****       }
 3902              		.loc 1 1250 9 is_stmt 1 view .LVU1285
1250:../../Middlewares/AI_Runtime/Npu/ll_aton/ll_aton.c ****       }
 3903              		.loc 1 1250 11 is_stmt 0 view .LVU1286
 3904 00b8 0023     		movs	r3, #0
 3905              	.LVL427:
1250:../../Middlewares/AI_Runtime/Npu/ll_aton/ll_aton.c ****       }
 3906              		.loc 1 1250 11 view .LVU1287
 3907              	.LBE82:
1242:../../Middlewares/AI_Runtime/Npu/ll_aton/ll_aton.c ****     {
 3908              		.loc 1 1242 41 is_stmt 1 discriminator 2 view .LVU1288
 3909              	.L297:
1242:../../Middlewares/AI_Runtime/Npu/ll_aton/ll_aton.c ****     {
 3910              		.loc 1 1242 26 discriminator 1 view .LVU1289
 3911 00ba BD42     		cmp	r5, r7
 3912 00bc B8D0     		beq	.L312
 3913              	.LBB83:
1244:../../Middlewares/AI_Runtime/Npu/ll_aton/ll_aton.c ****       ATON_DECUN_MEM_LOW_SET(id, k, temp);
 3914              		.loc 1 1244 7 view .LVU1290
1245:../../Middlewares/AI_Runtime/Npu/ll_aton/ll_aton.c ****       k++;
 3915              		.loc 1 1245 7 is_stmt 0 view .LVU1291
 3916 00be 03EB0902 		add	r2, r3, r9
1244:../../Middlewares/AI_Runtime/Npu/ll_aton/ll_aton.c ****       ATON_DECUN_MEM_LOW_SET(id, k, temp);
 3917              		.loc 1 1244 26 view .LVU1292
 3918 00c2 37F8020B 		ldrh	r0, [r7], #2
 3919              	.LVL428:
1245:../../Middlewares/AI_Runtime/Npu/ll_aton/ll_aton.c ****       k++;
 3920              		.loc 1 1245 7 is_stmt 1 view .LVU1293
1245:../../Middlewares/AI_Runtime/Npu/ll_aton/ll_aton.c ****       k++;
 3921              		.loc 1 1245 7 view .LVU1294
1246:../../Middlewares/AI_Runtime/Npu/ll_aton/ll_aton.c ****       if (k == mem_idx_num)
 3922              		.loc 1 1246 8 is_stmt 0 view .LVU1295
ARM GAS  C:\Users\Antonio\AppData\Local\Temp\ccynTwLp.s 			page 144


 3923 00c6 0133     		adds	r3, r3, #1
 3924              	.LVL429:
1245:../../Middlewares/AI_Runtime/Npu/ll_aton/ll_aton.c ****       k++;
 3925              		.loc 1 1245 7 view .LVU1296
 3926 00c8 D200     		lsls	r2, r2, #3
1247:../../Middlewares/AI_Runtime/Npu/ll_aton/ll_aton.c ****       {
 3927              		.loc 1 1247 10 view .LVU1297
 3928 00ca B3F5807F 		cmp	r3, #256
1245:../../Middlewares/AI_Runtime/Npu/ll_aton/ll_aton.c ****       k++;
 3929              		.loc 1 1245 7 view .LVU1298
 3930 00ce 1060     		str	r0, [r2]
1245:../../Middlewares/AI_Runtime/Npu/ll_aton/ll_aton.c ****       k++;
 3931              		.loc 1 1245 7 is_stmt 1 view .LVU1299
1246:../../Middlewares/AI_Runtime/Npu/ll_aton/ll_aton.c ****       if (k == mem_idx_num)
 3932              		.loc 1 1246 7 view .LVU1300
 3933              	.LVL430:
1247:../../Middlewares/AI_Runtime/Npu/ll_aton/ll_aton.c ****       {
 3934              		.loc 1 1247 7 view .LVU1301
1247:../../Middlewares/AI_Runtime/Npu/ll_aton/ll_aton.c ****       {
 3935              		.loc 1 1247 10 is_stmt 0 view .LVU1302
 3936 00d0 F3D1     		bne	.L297
1249:../../Middlewares/AI_Runtime/Npu/ll_aton/ll_aton.c ****         k = 0;
 3937              		.loc 1 1249 9 is_stmt 1 view .LVU1303
1249:../../Middlewares/AI_Runtime/Npu/ll_aton/ll_aton.c ****         k = 0;
 3938              		.loc 1 1249 20 is_stmt 0 view .LVU1304
 3939 00d2 2046     		mov	r0, r4
 3940              	.LVL431:
1249:../../Middlewares/AI_Runtime/Npu/ll_aton/ll_aton.c ****         k = 0;
 3941              		.loc 1 1249 20 view .LVU1305
 3942 00d4 FFF7FEFF 		bl	decun_inc_page_addr
 3943              	.LVL432:
1249:../../Middlewares/AI_Runtime/Npu/ll_aton/ll_aton.c ****         k = 0;
 3944              		.loc 1 1249 20 view .LVU1306
 3945 00d8 0146     		mov	r1, r0
 3946              	.LVL433:
1249:../../Middlewares/AI_Runtime/Npu/ll_aton/ll_aton.c ****         k = 0;
 3947              		.loc 1 1249 20 view .LVU1307
 3948 00da EDE7     		b	.L358
 3949              	.LVL434:
 3950              	.L296:
1249:../../Middlewares/AI_Runtime/Npu/ll_aton/ll_aton.c ****         k = 0;
 3951              		.loc 1 1249 20 view .LVU1308
 3952              	.LBE83:
 3953              	.LBE81:
1255:../../Middlewares/AI_Runtime/Npu/ll_aton/ll_aton.c ****   {
 3954              		.loc 1 1255 3 is_stmt 1 view .LVU1309
1255:../../Middlewares/AI_Runtime/Npu/ll_aton/ll_aton.c ****   {
 3955              		.loc 1 1255 6 is_stmt 0 view .LVU1310
 3956 00dc 032F     		cmp	r7, #3
 3957 00de 20D1     		bne	.L295
 3958              	.LBB84:
1257:../../Middlewares/AI_Runtime/Npu/ll_aton/ll_aton.c ****     for (i = 0, k = 0; i < CBsize; i += 3)
 3959              		.loc 1 1257 5 is_stmt 1 view .LVU1311
 3960              	.LVL435:
1258:../../Middlewares/AI_Runtime/Npu/ll_aton/ll_aton.c ****     {
 3961              		.loc 1 1258 5 view .LVU1312
1258:../../Middlewares/AI_Runtime/Npu/ll_aton/ll_aton.c ****     {
ARM GAS  C:\Users\Antonio\AppData\Local\Temp\ccynTwLp.s 			page 145


 3962              		.loc 1 1258 26 discriminator 1 view .LVU1313
 3963 00e0 D6F80CA0 		ldr	r10, [r6, #12]
1258:../../Middlewares/AI_Runtime/Npu/ll_aton/ll_aton.c ****     {
 3964              		.loc 1 1258 19 is_stmt 0 view .LVU1314
 3965 00e4 0022     		movs	r2, #0
 3966              	.LBB85:
1261:../../Middlewares/AI_Runtime/Npu/ll_aton/ll_aton.c ****       k++;
 3967              		.loc 1 1261 7 view .LVU1315
 3968 00e6 5746     		mov	r7, r10
 3969 00e8 934B     		ldr	r3, .L362+12
 3970 00ea 03EB4429 		add	r9, r3, r4, lsl #9
 3971              	.LVL436:
 3972              	.L302:
1260:../../Middlewares/AI_Runtime/Npu/ll_aton/ll_aton.c ****       ATON_DECUN_MEM_LOW_SET(id, k, temp);
 3973              		.loc 1 1260 7 is_stmt 1 view .LVU1316
1260:../../Middlewares/AI_Runtime/Npu/ll_aton/ll_aton.c ****       ATON_DECUN_MEM_LOW_SET(id, k, temp);
 3974              		.loc 1 1260 56 is_stmt 0 view .LVU1317
 3975 00ee BB78     		ldrb	r3, [r7, #2]	@ zero_extendqisi2
1260:../../Middlewares/AI_Runtime/Npu/ll_aton/ll_aton.c ****       ATON_DECUN_MEM_LOW_SET(id, k, temp);
 3976              		.loc 1 1260 36 view .LVU1318
 3977 00f0 7878     		ldrb	r0, [r7, #1]	@ zero_extendqisi2
1260:../../Middlewares/AI_Runtime/Npu/ll_aton/ll_aton.c ****       ATON_DECUN_MEM_LOW_SET(id, k, temp);
 3978              		.loc 1 1260 64 view .LVU1319
 3979 00f2 1B04     		lsls	r3, r3, #16
1260:../../Middlewares/AI_Runtime/Npu/ll_aton/ll_aton.c ****       ATON_DECUN_MEM_LOW_SET(id, k, temp);
 3980              		.loc 1 1260 50 view .LVU1320
 3981 00f4 43EA0023 		orr	r3, r3, r0, lsl #8
1260:../../Middlewares/AI_Runtime/Npu/ll_aton/ll_aton.c ****       ATON_DECUN_MEM_LOW_SET(id, k, temp);
 3982              		.loc 1 1260 26 view .LVU1321
 3983 00f8 3878     		ldrb	r0, [r7]	@ zero_extendqisi2
1260:../../Middlewares/AI_Runtime/Npu/ll_aton/ll_aton.c ****       ATON_DECUN_MEM_LOW_SET(id, k, temp);
 3984              		.loc 1 1260 50 view .LVU1322
 3985 00fa 0343     		orrs	r3, r3, r0
 3986              	.LVL437:
1261:../../Middlewares/AI_Runtime/Npu/ll_aton/ll_aton.c ****       k++;
 3987              		.loc 1 1261 7 is_stmt 1 view .LVU1323
1261:../../Middlewares/AI_Runtime/Npu/ll_aton/ll_aton.c ****       k++;
 3988              		.loc 1 1261 7 view .LVU1324
 3989 00fc 02EB0900 		add	r0, r2, r9
1262:../../Middlewares/AI_Runtime/Npu/ll_aton/ll_aton.c ****       if (k == mem_idx_num)
 3990              		.loc 1 1262 8 is_stmt 0 view .LVU1325
 3991 0100 0132     		adds	r2, r2, #1
 3992              	.LVL438:
1261:../../Middlewares/AI_Runtime/Npu/ll_aton/ll_aton.c ****       k++;
 3993              		.loc 1 1261 7 view .LVU1326
 3994 0102 C000     		lsls	r0, r0, #3
1263:../../Middlewares/AI_Runtime/Npu/ll_aton/ll_aton.c ****       {
 3995              		.loc 1 1263 10 view .LVU1327
 3996 0104 B2F5807F 		cmp	r2, #256
1261:../../Middlewares/AI_Runtime/Npu/ll_aton/ll_aton.c ****       k++;
 3997              		.loc 1 1261 7 view .LVU1328
 3998 0108 0360     		str	r3, [r0]
1261:../../Middlewares/AI_Runtime/Npu/ll_aton/ll_aton.c ****       k++;
 3999              		.loc 1 1261 7 is_stmt 1 view .LVU1329
1262:../../Middlewares/AI_Runtime/Npu/ll_aton/ll_aton.c ****       if (k == mem_idx_num)
 4000              		.loc 1 1262 7 view .LVU1330
 4001              	.LVL439:
ARM GAS  C:\Users\Antonio\AppData\Local\Temp\ccynTwLp.s 			page 146


1263:../../Middlewares/AI_Runtime/Npu/ll_aton/ll_aton.c ****       {
 4002              		.loc 1 1263 7 view .LVU1331
1263:../../Middlewares/AI_Runtime/Npu/ll_aton/ll_aton.c ****       {
 4003              		.loc 1 1263 10 is_stmt 0 view .LVU1332
 4004 010a 04D1     		bne	.L301
1265:../../Middlewares/AI_Runtime/Npu/ll_aton/ll_aton.c ****         k = 0;
 4005              		.loc 1 1265 9 is_stmt 1 view .LVU1333
1265:../../Middlewares/AI_Runtime/Npu/ll_aton/ll_aton.c ****         k = 0;
 4006              		.loc 1 1265 20 is_stmt 0 view .LVU1334
 4007 010c 2046     		mov	r0, r4
 4008 010e FFF7FEFF 		bl	decun_inc_page_addr
 4009              	.LVL440:
1266:../../Middlewares/AI_Runtime/Npu/ll_aton/ll_aton.c ****       }
 4010              		.loc 1 1266 11 view .LVU1335
 4011 0112 0022     		movs	r2, #0
1265:../../Middlewares/AI_Runtime/Npu/ll_aton/ll_aton.c ****         k = 0;
 4012              		.loc 1 1265 20 view .LVU1336
 4013 0114 0146     		mov	r1, r0
 4014              	.LVL441:
1266:../../Middlewares/AI_Runtime/Npu/ll_aton/ll_aton.c ****       }
 4015              		.loc 1 1266 9 is_stmt 1 view .LVU1337
 4016              	.L301:
1266:../../Middlewares/AI_Runtime/Npu/ll_aton/ll_aton.c ****       }
 4017              		.loc 1 1266 9 is_stmt 0 view .LVU1338
 4018              	.LBE85:
1258:../../Middlewares/AI_Runtime/Npu/ll_aton/ll_aton.c ****     {
 4019              		.loc 1 1258 38 is_stmt 1 discriminator 2 view .LVU1339
1258:../../Middlewares/AI_Runtime/Npu/ll_aton/ll_aton.c ****     {
 4020              		.loc 1 1258 26 discriminator 1 view .LVU1340
 4021 0116 0337     		adds	r7, r7, #3
 4022              	.LVL442:
1258:../../Middlewares/AI_Runtime/Npu/ll_aton/ll_aton.c ****     {
 4023              		.loc 1 1258 26 is_stmt 0 discriminator 1 view .LVU1341
 4024 0118 A7EB0A03 		sub	r3, r7, r10
 4025 011c 9D42     		cmp	r5, r3
 4026 011e E6D8     		bhi	.L302
1258:../../Middlewares/AI_Runtime/Npu/ll_aton/ll_aton.c ****     {
 4027              		.loc 1 1258 26 discriminator 1 view .LVU1342
 4028 0120 86E7     		b	.L312
 4029              	.LVL443:
 4030              	.L295:
1258:../../Middlewares/AI_Runtime/Npu/ll_aton/ll_aton.c ****     {
 4031              		.loc 1 1258 26 discriminator 1 view .LVU1343
 4032              	.LBE84:
1270:../../Middlewares/AI_Runtime/Npu/ll_aton/ll_aton.c ****   {
 4033              		.loc 1 1270 3 is_stmt 1 view .LVU1344
1270:../../Middlewares/AI_Runtime/Npu/ll_aton/ll_aton.c ****   {
 4034              		.loc 1 1270 6 is_stmt 0 view .LVU1345
 4035 0122 042F     		cmp	r7, #4
 4036 0124 01D0     		beq	.L304
 4037              	.LVL444:
1270:../../Middlewares/AI_Runtime/Npu/ll_aton/ll_aton.c ****   {
 4038              		.loc 1 1270 27 discriminator 1 view .LVU1346
 4039 0126 082F     		cmp	r7, #8
 4040 0128 4ED1     		bne	.L305
 4041              	.L304:
 4042              	.LBB86:
ARM GAS  C:\Users\Antonio\AppData\Local\Temp\ccynTwLp.s 			page 147


1272:../../Middlewares/AI_Runtime/Npu/ll_aton/ll_aton.c ****     for (i = 0, k = 0; i < CBsize / 4; i++)
 4043              		.loc 1 1272 5 is_stmt 1 view .LVU1347
 4044              	.LVL445:
1273:../../Middlewares/AI_Runtime/Npu/ll_aton/ll_aton.c ****     {
 4045              		.loc 1 1273 5 view .LVU1348
1273:../../Middlewares/AI_Runtime/Npu/ll_aton/ll_aton.c ****     {
 4046              		.loc 1 1273 5 is_stmt 0 view .LVU1349
 4047 012a 834B     		ldr	r3, .L362+12
 4048 012c D6F80C90 		ldr	r9, [r6, #12]
 4049 0130 25F0030A 		bic	r10, r5, #3
 4050 0134 03EB442B 		add	fp, r3, r4, lsl #9
 4051 0138 CA44     		add	r10, r10, r9
 4052              	.LVL446:
 4053              	.L359:
 4054              	.LBB87:
1281:../../Middlewares/AI_Runtime/Npu/ll_aton/ll_aton.c ****       }
 4055              		.loc 1 1281 9 is_stmt 1 view .LVU1350
1281:../../Middlewares/AI_Runtime/Npu/ll_aton/ll_aton.c ****       }
 4056              		.loc 1 1281 11 is_stmt 0 view .LVU1351
 4057 013a 0023     		movs	r3, #0
 4058              	.LVL447:
1281:../../Middlewares/AI_Runtime/Npu/ll_aton/ll_aton.c ****       }
 4059              		.loc 1 1281 11 view .LVU1352
 4060              	.LBE87:
1273:../../Middlewares/AI_Runtime/Npu/ll_aton/ll_aton.c ****     {
 4061              		.loc 1 1273 41 is_stmt 1 discriminator 2 view .LVU1353
 4062              	.L306:
1273:../../Middlewares/AI_Runtime/Npu/ll_aton/ll_aton.c ****     {
 4063              		.loc 1 1273 26 discriminator 1 view .LVU1354
 4064 013c CA45     		cmp	r10, r9
 4065 013e 34D1     		bne	.L308
 4066              	.LVL448:
 4067              	.L309:
1273:../../Middlewares/AI_Runtime/Npu/ll_aton/ll_aton.c ****     {
 4068              		.loc 1 1273 26 is_stmt 0 discriminator 1 view .LVU1355
 4069              	.LBE86:
1339:../../Middlewares/AI_Runtime/Npu/ll_aton/ll_aton.c ****   {
 4070              		.loc 1 1339 3 is_stmt 1 view .LVU1356
1339:../../Middlewares/AI_Runtime/Npu/ll_aton/ll_aton.c ****   {
 4071              		.loc 1 1339 6 is_stmt 0 view .LVU1357
 4072 0140 072F     		cmp	r7, #7
 4073 0142 7FF475AF 		bne	.L312
 4074              	.LBB89:
1341:../../Middlewares/AI_Runtime/Npu/ll_aton/ll_aton.c ****     for (i = 0, k = 0; i < CBsize; i += 7)
 4075              		.loc 1 1341 5 is_stmt 1 view .LVU1358
 4076              	.LVL449:
1342:../../Middlewares/AI_Runtime/Npu/ll_aton/ll_aton.c ****     {
 4077              		.loc 1 1342 5 view .LVU1359
1342:../../Middlewares/AI_Runtime/Npu/ll_aton/ll_aton.c ****     {
 4078              		.loc 1 1342 26 discriminator 1 view .LVU1360
 4079 0146 D6F80CB0 		ldr	fp, [r6, #12]
1342:../../Middlewares/AI_Runtime/Npu/ll_aton/ll_aton.c ****     {
 4080              		.loc 1 1342 19 is_stmt 0 view .LVU1361
 4081 014a 0022     		movs	r2, #0
 4082              	.LBB90:
1345:../../Middlewares/AI_Runtime/Npu/ll_aton/ll_aton.c ****       k++;
 4083              		.loc 1 1345 7 view .LVU1362
ARM GAS  C:\Users\Antonio\AppData\Local\Temp\ccynTwLp.s 			page 148


 4084 014c 5F46     		mov	r7, fp
 4085 014e 7A4B     		ldr	r3, .L362+12
 4086 0150 03EB4429 		add	r9, r3, r4, lsl #9
 4087 0154 0133     		adds	r3, r3, #1
 4088 0156 03EB442A 		add	r10, r3, r4, lsl #9
 4089              	.LVL450:
 4090              	.L317:
1344:../../Middlewares/AI_Runtime/Npu/ll_aton/ll_aton.c ****       ATON_DECUN_MEM_LOW_SET(id, k, temp);
 4091              		.loc 1 1344 7 is_stmt 1 view .LVU1363
1344:../../Middlewares/AI_Runtime/Npu/ll_aton/ll_aton.c ****       ATON_DECUN_MEM_LOW_SET(id, k, temp);
 4092              		.loc 1 1344 56 is_stmt 0 view .LVU1364
 4093 015a BB78     		ldrb	r3, [r7, #2]	@ zero_extendqisi2
1344:../../Middlewares/AI_Runtime/Npu/ll_aton/ll_aton.c ****       ATON_DECUN_MEM_LOW_SET(id, k, temp);
 4094              		.loc 1 1344 36 view .LVU1365
 4095 015c 7878     		ldrb	r0, [r7, #1]	@ zero_extendqisi2
1344:../../Middlewares/AI_Runtime/Npu/ll_aton/ll_aton.c ****       ATON_DECUN_MEM_LOW_SET(id, k, temp);
 4096              		.loc 1 1344 64 view .LVU1366
 4097 015e 1B04     		lsls	r3, r3, #16
1344:../../Middlewares/AI_Runtime/Npu/ll_aton/ll_aton.c ****       ATON_DECUN_MEM_LOW_SET(id, k, temp);
 4098              		.loc 1 1344 50 view .LVU1367
 4099 0160 43EA0023 		orr	r3, r3, r0, lsl #8
1344:../../Middlewares/AI_Runtime/Npu/ll_aton/ll_aton.c ****       ATON_DECUN_MEM_LOW_SET(id, k, temp);
 4100              		.loc 1 1344 26 view .LVU1368
 4101 0164 3878     		ldrb	r0, [r7]	@ zero_extendqisi2
1344:../../Middlewares/AI_Runtime/Npu/ll_aton/ll_aton.c ****       ATON_DECUN_MEM_LOW_SET(id, k, temp);
 4102              		.loc 1 1344 50 view .LVU1369
 4103 0166 0343     		orrs	r3, r3, r0
1344:../../Middlewares/AI_Runtime/Npu/ll_aton/ll_aton.c ****       ATON_DECUN_MEM_LOW_SET(id, k, temp);
 4104              		.loc 1 1344 77 view .LVU1370
 4105 0168 F878     		ldrb	r0, [r7, #3]	@ zero_extendqisi2
1344:../../Middlewares/AI_Runtime/Npu/ll_aton/ll_aton.c ****       ATON_DECUN_MEM_LOW_SET(id, k, temp);
 4106              		.loc 1 1344 71 view .LVU1371
 4107 016a 43EA0063 		orr	r3, r3, r0, lsl #24
 4108              	.LVL451:
1345:../../Middlewares/AI_Runtime/Npu/ll_aton/ll_aton.c ****       k++;
 4109              		.loc 1 1345 7 is_stmt 1 view .LVU1372
1345:../../Middlewares/AI_Runtime/Npu/ll_aton/ll_aton.c ****       k++;
 4110              		.loc 1 1345 7 view .LVU1373
 4111 016e 09EB0200 		add	r0, r9, r2
 4112 0172 C000     		lsls	r0, r0, #3
 4113 0174 0360     		str	r3, [r0]
1345:../../Middlewares/AI_Runtime/Npu/ll_aton/ll_aton.c ****       k++;
 4114              		.loc 1 1345 7 view .LVU1374
1346:../../Middlewares/AI_Runtime/Npu/ll_aton/ll_aton.c ****       temp = CBp[i + 4] | (CBp[i + 5] << 8) | (CBp[i + 6] << 16);
 4115              		.loc 1 1346 7 view .LVU1375
 4116              	.LVL452:
1347:../../Middlewares/AI_Runtime/Npu/ll_aton/ll_aton.c ****       ATON_DECUN_MEM_LOW_SET(id, k, temp);
 4117              		.loc 1 1347 7 view .LVU1376
1347:../../Middlewares/AI_Runtime/Npu/ll_aton/ll_aton.c ****       ATON_DECUN_MEM_LOW_SET(id, k, temp);
 4118              		.loc 1 1347 51 is_stmt 0 view .LVU1377
 4119 0176 BB79     		ldrb	r3, [r7, #6]	@ zero_extendqisi2
 4120              	.LVL453:
1347:../../Middlewares/AI_Runtime/Npu/ll_aton/ll_aton.c ****       ATON_DECUN_MEM_LOW_SET(id, k, temp);
 4121              		.loc 1 1347 31 view .LVU1378
 4122 0178 7879     		ldrb	r0, [r7, #5]	@ zero_extendqisi2
 4123              	.LVL454:
1347:../../Middlewares/AI_Runtime/Npu/ll_aton/ll_aton.c ****       ATON_DECUN_MEM_LOW_SET(id, k, temp);
ARM GAS  C:\Users\Antonio\AppData\Local\Temp\ccynTwLp.s 			page 149


 4124              		.loc 1 1347 59 view .LVU1379
 4125 017a 1B04     		lsls	r3, r3, #16
1347:../../Middlewares/AI_Runtime/Npu/ll_aton/ll_aton.c ****       ATON_DECUN_MEM_LOW_SET(id, k, temp);
 4126              		.loc 1 1347 45 view .LVU1380
 4127 017c 43EA0023 		orr	r3, r3, r0, lsl #8
1347:../../Middlewares/AI_Runtime/Npu/ll_aton/ll_aton.c ****       ATON_DECUN_MEM_LOW_SET(id, k, temp);
 4128              		.loc 1 1347 17 view .LVU1381
 4129 0180 3879     		ldrb	r0, [r7, #4]	@ zero_extendqisi2
1347:../../Middlewares/AI_Runtime/Npu/ll_aton/ll_aton.c ****       ATON_DECUN_MEM_LOW_SET(id, k, temp);
 4130              		.loc 1 1347 45 view .LVU1382
 4131 0182 0343     		orrs	r3, r3, r0
 4132              	.LVL455:
1348:../../Middlewares/AI_Runtime/Npu/ll_aton/ll_aton.c ****       k++;
 4133              		.loc 1 1348 7 is_stmt 1 view .LVU1383
1348:../../Middlewares/AI_Runtime/Npu/ll_aton/ll_aton.c ****       k++;
 4134              		.loc 1 1348 7 view .LVU1384
 4135 0184 0AEB0200 		add	r0, r10, r2
1349:../../Middlewares/AI_Runtime/Npu/ll_aton/ll_aton.c ****       if (k == mem_idx_num)
 4136              		.loc 1 1349 8 is_stmt 0 view .LVU1385
 4137 0188 0232     		adds	r2, r2, #2
 4138              	.LVL456:
1348:../../Middlewares/AI_Runtime/Npu/ll_aton/ll_aton.c ****       k++;
 4139              		.loc 1 1348 7 view .LVU1386
 4140 018a C000     		lsls	r0, r0, #3
1350:../../Middlewares/AI_Runtime/Npu/ll_aton/ll_aton.c ****       {
 4141              		.loc 1 1350 10 view .LVU1387
 4142 018c B2F5807F 		cmp	r2, #256
1348:../../Middlewares/AI_Runtime/Npu/ll_aton/ll_aton.c ****       k++;
 4143              		.loc 1 1348 7 view .LVU1388
 4144 0190 0360     		str	r3, [r0]
1348:../../Middlewares/AI_Runtime/Npu/ll_aton/ll_aton.c ****       k++;
 4145              		.loc 1 1348 7 is_stmt 1 view .LVU1389
1349:../../Middlewares/AI_Runtime/Npu/ll_aton/ll_aton.c ****       if (k == mem_idx_num)
 4146              		.loc 1 1349 7 view .LVU1390
 4147              	.LVL457:
1350:../../Middlewares/AI_Runtime/Npu/ll_aton/ll_aton.c ****       {
 4148              		.loc 1 1350 7 view .LVU1391
1350:../../Middlewares/AI_Runtime/Npu/ll_aton/ll_aton.c ****       {
 4149              		.loc 1 1350 10 is_stmt 0 view .LVU1392
 4150 0192 04D1     		bne	.L316
1352:../../Middlewares/AI_Runtime/Npu/ll_aton/ll_aton.c ****         k = 0;
 4151              		.loc 1 1352 9 is_stmt 1 view .LVU1393
1352:../../Middlewares/AI_Runtime/Npu/ll_aton/ll_aton.c ****         k = 0;
 4152              		.loc 1 1352 20 is_stmt 0 view .LVU1394
 4153 0194 2046     		mov	r0, r4
 4154 0196 FFF7FEFF 		bl	decun_inc_page_addr
 4155              	.LVL458:
1353:../../Middlewares/AI_Runtime/Npu/ll_aton/ll_aton.c ****       }
 4156              		.loc 1 1353 11 view .LVU1395
 4157 019a 0022     		movs	r2, #0
1352:../../Middlewares/AI_Runtime/Npu/ll_aton/ll_aton.c ****         k = 0;
 4158              		.loc 1 1352 20 view .LVU1396
 4159 019c 0146     		mov	r1, r0
 4160              	.LVL459:
1353:../../Middlewares/AI_Runtime/Npu/ll_aton/ll_aton.c ****       }
 4161              		.loc 1 1353 9 is_stmt 1 view .LVU1397
 4162              	.L316:
ARM GAS  C:\Users\Antonio\AppData\Local\Temp\ccynTwLp.s 			page 150


1353:../../Middlewares/AI_Runtime/Npu/ll_aton/ll_aton.c ****       }
 4163              		.loc 1 1353 9 is_stmt 0 view .LVU1398
 4164              	.LBE90:
1342:../../Middlewares/AI_Runtime/Npu/ll_aton/ll_aton.c ****     {
 4165              		.loc 1 1342 38 is_stmt 1 discriminator 2 view .LVU1399
1342:../../Middlewares/AI_Runtime/Npu/ll_aton/ll_aton.c ****     {
 4166              		.loc 1 1342 26 discriminator 1 view .LVU1400
 4167 019e 0737     		adds	r7, r7, #7
 4168              	.LVL460:
1342:../../Middlewares/AI_Runtime/Npu/ll_aton/ll_aton.c ****     {
 4169              		.loc 1 1342 26 is_stmt 0 discriminator 1 view .LVU1401
 4170 01a0 A7EB0B03 		sub	r3, r7, fp
 4171 01a4 9D42     		cmp	r5, r3
 4172 01a6 D8D8     		bhi	.L317
1342:../../Middlewares/AI_Runtime/Npu/ll_aton/ll_aton.c ****     {
 4173              		.loc 1 1342 26 discriminator 1 view .LVU1402
 4174 01a8 42E7     		b	.L312
 4175              	.LVL461:
 4176              	.L308:
1342:../../Middlewares/AI_Runtime/Npu/ll_aton/ll_aton.c ****     {
 4177              		.loc 1 1342 26 discriminator 1 view .LVU1403
 4178              	.LBE89:
 4179              	.LBB91:
 4180              	.LBB88:
1275:../../Middlewares/AI_Runtime/Npu/ll_aton/ll_aton.c ****       ATON_DECUN_MEM_LOW_SET(id, k, temp);
 4181              		.loc 1 1275 7 is_stmt 1 view .LVU1404
1276:../../Middlewares/AI_Runtime/Npu/ll_aton/ll_aton.c ****       k++;
 4182              		.loc 1 1276 7 is_stmt 0 view .LVU1405
 4183 01aa 0BEB0302 		add	r2, fp, r3
1275:../../Middlewares/AI_Runtime/Npu/ll_aton/ll_aton.c ****       ATON_DECUN_MEM_LOW_SET(id, k, temp);
 4184              		.loc 1 1275 16 view .LVU1406
 4185 01ae 59F8040B 		ldr	r0, [r9], #4
 4186              	.LVL462:
1276:../../Middlewares/AI_Runtime/Npu/ll_aton/ll_aton.c ****       k++;
 4187              		.loc 1 1276 7 is_stmt 1 view .LVU1407
1276:../../Middlewares/AI_Runtime/Npu/ll_aton/ll_aton.c ****       k++;
 4188              		.loc 1 1276 7 view .LVU1408
1277:../../Middlewares/AI_Runtime/Npu/ll_aton/ll_aton.c ****       if (k == mem_idx_num)
 4189              		.loc 1 1277 8 is_stmt 0 view .LVU1409
 4190 01b2 0133     		adds	r3, r3, #1
 4191              	.LVL463:
1276:../../Middlewares/AI_Runtime/Npu/ll_aton/ll_aton.c ****       k++;
 4192              		.loc 1 1276 7 view .LVU1410
 4193 01b4 D200     		lsls	r2, r2, #3
1278:../../Middlewares/AI_Runtime/Npu/ll_aton/ll_aton.c ****       {
 4194              		.loc 1 1278 10 view .LVU1411
 4195 01b6 B3F5807F 		cmp	r3, #256
1276:../../Middlewares/AI_Runtime/Npu/ll_aton/ll_aton.c ****       k++;
 4196              		.loc 1 1276 7 view .LVU1412
 4197 01ba 1060     		str	r0, [r2]
1276:../../Middlewares/AI_Runtime/Npu/ll_aton/ll_aton.c ****       k++;
 4198              		.loc 1 1276 7 is_stmt 1 view .LVU1413
1277:../../Middlewares/AI_Runtime/Npu/ll_aton/ll_aton.c ****       if (k == mem_idx_num)
 4199              		.loc 1 1277 7 view .LVU1414
 4200              	.LVL464:
1278:../../Middlewares/AI_Runtime/Npu/ll_aton/ll_aton.c ****       {
 4201              		.loc 1 1278 7 view .LVU1415
ARM GAS  C:\Users\Antonio\AppData\Local\Temp\ccynTwLp.s 			page 151


1278:../../Middlewares/AI_Runtime/Npu/ll_aton/ll_aton.c ****       {
 4202              		.loc 1 1278 10 is_stmt 0 view .LVU1416
 4203 01bc BED1     		bne	.L306
1280:../../Middlewares/AI_Runtime/Npu/ll_aton/ll_aton.c ****         k = 0;
 4204              		.loc 1 1280 9 is_stmt 1 view .LVU1417
1280:../../Middlewares/AI_Runtime/Npu/ll_aton/ll_aton.c ****         k = 0;
 4205              		.loc 1 1280 20 is_stmt 0 view .LVU1418
 4206 01be 2046     		mov	r0, r4
 4207              	.LVL465:
1280:../../Middlewares/AI_Runtime/Npu/ll_aton/ll_aton.c ****         k = 0;
 4208              		.loc 1 1280 20 view .LVU1419
 4209 01c0 FFF7FEFF 		bl	decun_inc_page_addr
 4210              	.LVL466:
1280:../../Middlewares/AI_Runtime/Npu/ll_aton/ll_aton.c ****         k = 0;
 4211              		.loc 1 1280 20 view .LVU1420
 4212 01c4 0146     		mov	r1, r0
 4213              	.LVL467:
1280:../../Middlewares/AI_Runtime/Npu/ll_aton/ll_aton.c ****         k = 0;
 4214              		.loc 1 1280 20 view .LVU1421
 4215 01c6 B8E7     		b	.L359
 4216              	.LVL468:
 4217              	.L305:
1280:../../Middlewares/AI_Runtime/Npu/ll_aton/ll_aton.c ****         k = 0;
 4218              		.loc 1 1280 20 view .LVU1422
 4219              	.LBE88:
 4220              	.LBE91:
1285:../../Middlewares/AI_Runtime/Npu/ll_aton/ll_aton.c ****   {
 4221              		.loc 1 1285 3 is_stmt 1 view .LVU1423
1285:../../Middlewares/AI_Runtime/Npu/ll_aton/ll_aton.c ****   {
 4222              		.loc 1 1285 6 is_stmt 0 view .LVU1424
 4223 01c8 052F     		cmp	r7, #5
 4224 01ca 2BD1     		bne	.L303
 4225              	.LBB92:
1287:../../Middlewares/AI_Runtime/Npu/ll_aton/ll_aton.c ****     for (i = 0, k = 0; i < CBsize; i += 5)
 4226              		.loc 1 1287 5 is_stmt 1 view .LVU1425
 4227              	.LVL469:
1288:../../Middlewares/AI_Runtime/Npu/ll_aton/ll_aton.c ****     {
 4228              		.loc 1 1288 5 view .LVU1426
1288:../../Middlewares/AI_Runtime/Npu/ll_aton/ll_aton.c ****     {
 4229              		.loc 1 1288 26 discriminator 1 view .LVU1427
 4230 01cc D6F80CB0 		ldr	fp, [r6, #12]
1288:../../Middlewares/AI_Runtime/Npu/ll_aton/ll_aton.c ****     {
 4231              		.loc 1 1288 19 is_stmt 0 view .LVU1428
 4232 01d0 0022     		movs	r2, #0
 4233              	.LBB93:
1291:../../Middlewares/AI_Runtime/Npu/ll_aton/ll_aton.c ****       k++;
 4234              		.loc 1 1291 7 view .LVU1429
 4235 01d2 5F46     		mov	r7, fp
 4236 01d4 584B     		ldr	r3, .L362+12
 4237 01d6 03EB4429 		add	r9, r3, r4, lsl #9
 4238 01da 0133     		adds	r3, r3, #1
 4239 01dc 03EB442A 		add	r10, r3, r4, lsl #9
 4240              	.LVL470:
 4241              	.L311:
1290:../../Middlewares/AI_Runtime/Npu/ll_aton/ll_aton.c ****       ATON_DECUN_MEM_LOW_SET(id, k, temp);
 4242              		.loc 1 1290 7 is_stmt 1 view .LVU1430
1290:../../Middlewares/AI_Runtime/Npu/ll_aton/ll_aton.c ****       ATON_DECUN_MEM_LOW_SET(id, k, temp);
ARM GAS  C:\Users\Antonio\AppData\Local\Temp\ccynTwLp.s 			page 152


 4243              		.loc 1 1290 56 is_stmt 0 view .LVU1431
 4244 01e0 BB78     		ldrb	r3, [r7, #2]	@ zero_extendqisi2
1290:../../Middlewares/AI_Runtime/Npu/ll_aton/ll_aton.c ****       ATON_DECUN_MEM_LOW_SET(id, k, temp);
 4245              		.loc 1 1290 36 view .LVU1432
 4246 01e2 7878     		ldrb	r0, [r7, #1]	@ zero_extendqisi2
1290:../../Middlewares/AI_Runtime/Npu/ll_aton/ll_aton.c ****       ATON_DECUN_MEM_LOW_SET(id, k, temp);
 4247              		.loc 1 1290 64 view .LVU1433
 4248 01e4 1B04     		lsls	r3, r3, #16
1290:../../Middlewares/AI_Runtime/Npu/ll_aton/ll_aton.c ****       ATON_DECUN_MEM_LOW_SET(id, k, temp);
 4249              		.loc 1 1290 50 view .LVU1434
 4250 01e6 43EA0023 		orr	r3, r3, r0, lsl #8
1290:../../Middlewares/AI_Runtime/Npu/ll_aton/ll_aton.c ****       ATON_DECUN_MEM_LOW_SET(id, k, temp);
 4251              		.loc 1 1290 26 view .LVU1435
 4252 01ea 3878     		ldrb	r0, [r7]	@ zero_extendqisi2
1290:../../Middlewares/AI_Runtime/Npu/ll_aton/ll_aton.c ****       ATON_DECUN_MEM_LOW_SET(id, k, temp);
 4253              		.loc 1 1290 50 view .LVU1436
 4254 01ec 0343     		orrs	r3, r3, r0
1290:../../Middlewares/AI_Runtime/Npu/ll_aton/ll_aton.c ****       ATON_DECUN_MEM_LOW_SET(id, k, temp);
 4255              		.loc 1 1290 77 view .LVU1437
 4256 01ee F878     		ldrb	r0, [r7, #3]	@ zero_extendqisi2
1290:../../Middlewares/AI_Runtime/Npu/ll_aton/ll_aton.c ****       ATON_DECUN_MEM_LOW_SET(id, k, temp);
 4257              		.loc 1 1290 71 view .LVU1438
 4258 01f0 43EA0063 		orr	r3, r3, r0, lsl #24
 4259              	.LVL471:
1291:../../Middlewares/AI_Runtime/Npu/ll_aton/ll_aton.c ****       k++;
 4260              		.loc 1 1291 7 is_stmt 1 view .LVU1439
1291:../../Middlewares/AI_Runtime/Npu/ll_aton/ll_aton.c ****       k++;
 4261              		.loc 1 1291 7 view .LVU1440
 4262 01f4 09EB0200 		add	r0, r9, r2
 4263 01f8 C000     		lsls	r0, r0, #3
 4264 01fa 0360     		str	r3, [r0]
1291:../../Middlewares/AI_Runtime/Npu/ll_aton/ll_aton.c ****       k++;
 4265              		.loc 1 1291 7 view .LVU1441
1292:../../Middlewares/AI_Runtime/Npu/ll_aton/ll_aton.c ****       temp = CBp[i + 4];
 4266              		.loc 1 1292 7 view .LVU1442
 4267              	.LVL472:
1293:../../Middlewares/AI_Runtime/Npu/ll_aton/ll_aton.c ****       ATON_DECUN_MEM_LOW_SET(id, k, temp);
 4268              		.loc 1 1293 7 view .LVU1443
1293:../../Middlewares/AI_Runtime/Npu/ll_aton/ll_aton.c ****       ATON_DECUN_MEM_LOW_SET(id, k, temp);
 4269              		.loc 1 1293 12 is_stmt 0 view .LVU1444
 4270 01fc 3879     		ldrb	r0, [r7, #4]	@ zero_extendqisi2
 4271              	.LVL473:
1294:../../Middlewares/AI_Runtime/Npu/ll_aton/ll_aton.c ****       k++;
 4272              		.loc 1 1294 7 is_stmt 1 view .LVU1445
1294:../../Middlewares/AI_Runtime/Npu/ll_aton/ll_aton.c ****       k++;
 4273              		.loc 1 1294 7 view .LVU1446
 4274 01fe 0AEB0203 		add	r3, r10, r2
1295:../../Middlewares/AI_Runtime/Npu/ll_aton/ll_aton.c ****       if (k == mem_idx_num)
 4275              		.loc 1 1295 8 is_stmt 0 view .LVU1447
 4276 0202 0232     		adds	r2, r2, #2
 4277              	.LVL474:
1294:../../Middlewares/AI_Runtime/Npu/ll_aton/ll_aton.c ****       k++;
 4278              		.loc 1 1294 7 view .LVU1448
 4279 0204 DB00     		lsls	r3, r3, #3
1296:../../Middlewares/AI_Runtime/Npu/ll_aton/ll_aton.c ****       {
 4280              		.loc 1 1296 10 view .LVU1449
 4281 0206 B2F5807F 		cmp	r2, #256
ARM GAS  C:\Users\Antonio\AppData\Local\Temp\ccynTwLp.s 			page 153


1294:../../Middlewares/AI_Runtime/Npu/ll_aton/ll_aton.c ****       k++;
 4282              		.loc 1 1294 7 view .LVU1450
 4283 020a 1860     		str	r0, [r3]
1294:../../Middlewares/AI_Runtime/Npu/ll_aton/ll_aton.c ****       k++;
 4284              		.loc 1 1294 7 is_stmt 1 view .LVU1451
1295:../../Middlewares/AI_Runtime/Npu/ll_aton/ll_aton.c ****       if (k == mem_idx_num)
 4285              		.loc 1 1295 7 view .LVU1452
 4286              	.LVL475:
1296:../../Middlewares/AI_Runtime/Npu/ll_aton/ll_aton.c ****       {
 4287              		.loc 1 1296 7 view .LVU1453
1296:../../Middlewares/AI_Runtime/Npu/ll_aton/ll_aton.c ****       {
 4288              		.loc 1 1296 10 is_stmt 0 view .LVU1454
 4289 020c 04D1     		bne	.L310
1298:../../Middlewares/AI_Runtime/Npu/ll_aton/ll_aton.c ****         k = 0;
 4290              		.loc 1 1298 9 is_stmt 1 view .LVU1455
1298:../../Middlewares/AI_Runtime/Npu/ll_aton/ll_aton.c ****         k = 0;
 4291              		.loc 1 1298 20 is_stmt 0 view .LVU1456
 4292 020e 2046     		mov	r0, r4
 4293              	.LVL476:
1298:../../Middlewares/AI_Runtime/Npu/ll_aton/ll_aton.c ****         k = 0;
 4294              		.loc 1 1298 20 view .LVU1457
 4295 0210 FFF7FEFF 		bl	decun_inc_page_addr
 4296              	.LVL477:
1299:../../Middlewares/AI_Runtime/Npu/ll_aton/ll_aton.c ****       }
 4297              		.loc 1 1299 11 view .LVU1458
 4298 0214 0022     		movs	r2, #0
1298:../../Middlewares/AI_Runtime/Npu/ll_aton/ll_aton.c ****         k = 0;
 4299              		.loc 1 1298 20 view .LVU1459
 4300 0216 0146     		mov	r1, r0
 4301              	.LVL478:
1299:../../Middlewares/AI_Runtime/Npu/ll_aton/ll_aton.c ****       }
 4302              		.loc 1 1299 9 is_stmt 1 view .LVU1460
 4303              	.L310:
1299:../../Middlewares/AI_Runtime/Npu/ll_aton/ll_aton.c ****       }
 4304              		.loc 1 1299 9 is_stmt 0 view .LVU1461
 4305              	.LBE93:
1288:../../Middlewares/AI_Runtime/Npu/ll_aton/ll_aton.c ****     {
 4306              		.loc 1 1288 38 is_stmt 1 discriminator 2 view .LVU1462
1288:../../Middlewares/AI_Runtime/Npu/ll_aton/ll_aton.c ****     {
 4307              		.loc 1 1288 26 discriminator 1 view .LVU1463
 4308 0218 0537     		adds	r7, r7, #5
 4309              	.LVL479:
1288:../../Middlewares/AI_Runtime/Npu/ll_aton/ll_aton.c ****     {
 4310              		.loc 1 1288 26 is_stmt 0 discriminator 1 view .LVU1464
 4311 021a A7EB0B03 		sub	r3, r7, fp
 4312 021e 9D42     		cmp	r5, r3
 4313 0220 DED8     		bhi	.L311
1288:../../Middlewares/AI_Runtime/Npu/ll_aton/ll_aton.c ****     {
 4314              		.loc 1 1288 26 discriminator 1 view .LVU1465
 4315 0222 05E7     		b	.L312
 4316              	.LVL480:
 4317              	.L303:
1288:../../Middlewares/AI_Runtime/Npu/ll_aton/ll_aton.c ****     {
 4318              		.loc 1 1288 26 discriminator 1 view .LVU1466
 4319              	.LBE92:
1303:../../Middlewares/AI_Runtime/Npu/ll_aton/ll_aton.c ****   {
 4320              		.loc 1 1303 3 is_stmt 1 view .LVU1467
ARM GAS  C:\Users\Antonio\AppData\Local\Temp\ccynTwLp.s 			page 154


1303:../../Middlewares/AI_Runtime/Npu/ll_aton/ll_aton.c ****   {
 4321              		.loc 1 1303 6 is_stmt 0 view .LVU1468
 4322 0224 062F     		cmp	r7, #6
 4323 0226 8BD1     		bne	.L309
 4324              	.LBB94:
1322:../../Middlewares/AI_Runtime/Npu/ll_aton/ll_aton.c ****     for (i = 0, k = 0; i < CBsize / 2; i += 3)
 4325              		.loc 1 1322 5 is_stmt 1 view .LVU1469
 4326              	.LVL481:
1323:../../Middlewares/AI_Runtime/Npu/ll_aton/ll_aton.c ****     {
 4327              		.loc 1 1323 5 view .LVU1470
1323:../../Middlewares/AI_Runtime/Npu/ll_aton/ll_aton.c ****     {
 4328              		.loc 1 1323 5 is_stmt 0 view .LVU1471
 4329 0228 434B     		ldr	r3, .L362+12
 4330 022a F768     		ldr	r7, [r6, #12]
 4331 022c 03EB442A 		add	r10, r3, r4, lsl #9
 4332 0230 0133     		adds	r3, r3, #1
 4333 0232 03EB442B 		add	fp, r3, r4, lsl #9
1323:../../Middlewares/AI_Runtime/Npu/ll_aton/ll_aton.c ****     {
 4334              		.loc 1 1323 19 view .LVU1472
 4335 0236 0023     		movs	r3, #0
1323:../../Middlewares/AI_Runtime/Npu/ll_aton/ll_aton.c ****     {
 4336              		.loc 1 1323 12 view .LVU1473
 4337 0238 9946     		mov	r9, r3
1323:../../Middlewares/AI_Runtime/Npu/ll_aton/ll_aton.c ****     {
 4338              		.loc 1 1323 35 discriminator 1 view .LVU1474
 4339 023a 6D08     		lsrs	r5, r5, #1
 4340              	.LVL482:
 4341              	.L313:
1323:../../Middlewares/AI_Runtime/Npu/ll_aton/ll_aton.c ****     {
 4342              		.loc 1 1323 26 is_stmt 1 discriminator 1 view .LVU1475
 4343 023c A945     		cmp	r9, r5
 4344 023e BFF4F7AE 		bcs	.L312
 4345              	.LBB95:
1325:../../Middlewares/AI_Runtime/Npu/ll_aton/ll_aton.c ****       ATON_DECUN_MEM_LOW_SET(id, k, temp);
 4346              		.loc 1 1325 7 view .LVU1476
1325:../../Middlewares/AI_Runtime/Npu/ll_aton/ll_aton.c ****       ATON_DECUN_MEM_LOW_SET(id, k, temp);
 4347              		.loc 1 1325 36 is_stmt 0 view .LVU1477
 4348 0242 7A88     		ldrh	r2, [r7, #2]
1325:../../Middlewares/AI_Runtime/Npu/ll_aton/ll_aton.c ****       ATON_DECUN_MEM_LOW_SET(id, k, temp);
 4349              		.loc 1 1325 26 view .LVU1478
 4350 0244 3888     		ldrh	r0, [r7]
1325:../../Middlewares/AI_Runtime/Npu/ll_aton/ll_aton.c ****       ATON_DECUN_MEM_LOW_SET(id, k, temp);
 4351              		.loc 1 1325 30 view .LVU1479
 4352 0246 40EA0240 		orr	r0, r0, r2, lsl #16
 4353              	.LVL483:
1326:../../Middlewares/AI_Runtime/Npu/ll_aton/ll_aton.c ****       k++;
 4354              		.loc 1 1326 7 is_stmt 1 view .LVU1480
1326:../../Middlewares/AI_Runtime/Npu/ll_aton/ll_aton.c ****       k++;
 4355              		.loc 1 1326 7 view .LVU1481
 4356 024a 0AEB0302 		add	r2, r10, r3
 4357 024e D200     		lsls	r2, r2, #3
 4358 0250 1060     		str	r0, [r2]
1326:../../Middlewares/AI_Runtime/Npu/ll_aton/ll_aton.c ****       k++;
 4359              		.loc 1 1326 7 view .LVU1482
1327:../../Middlewares/AI_Runtime/Npu/ll_aton/ll_aton.c ****       temp = CBp[i + 2];
 4360              		.loc 1 1327 7 view .LVU1483
 4361              	.LVL484:
ARM GAS  C:\Users\Antonio\AppData\Local\Temp\ccynTwLp.s 			page 155


1328:../../Middlewares/AI_Runtime/Npu/ll_aton/ll_aton.c ****       ATON_DECUN_MEM_LOW_SET(id, k, temp);
 4362              		.loc 1 1328 7 view .LVU1484
1329:../../Middlewares/AI_Runtime/Npu/ll_aton/ll_aton.c ****       k++;
 4363              		.loc 1 1329 7 is_stmt 0 view .LVU1485
 4364 0252 03EB0B02 		add	r2, r3, fp
1328:../../Middlewares/AI_Runtime/Npu/ll_aton/ll_aton.c ****       ATON_DECUN_MEM_LOW_SET(id, k, temp);
 4365              		.loc 1 1328 12 view .LVU1486
 4366 0256 B888     		ldrh	r0, [r7, #4]
 4367              	.LVL485:
1329:../../Middlewares/AI_Runtime/Npu/ll_aton/ll_aton.c ****       k++;
 4368              		.loc 1 1329 7 is_stmt 1 view .LVU1487
1329:../../Middlewares/AI_Runtime/Npu/ll_aton/ll_aton.c ****       k++;
 4369              		.loc 1 1329 7 view .LVU1488
1330:../../Middlewares/AI_Runtime/Npu/ll_aton/ll_aton.c ****       if (k == mem_idx_num)
 4370              		.loc 1 1330 8 is_stmt 0 view .LVU1489
 4371 0258 0233     		adds	r3, r3, #2
 4372              	.LVL486:
1329:../../Middlewares/AI_Runtime/Npu/ll_aton/ll_aton.c ****       k++;
 4373              		.loc 1 1329 7 view .LVU1490
 4374 025a D200     		lsls	r2, r2, #3
1331:../../Middlewares/AI_Runtime/Npu/ll_aton/ll_aton.c ****       {
 4375              		.loc 1 1331 10 view .LVU1491
 4376 025c B3F5807F 		cmp	r3, #256
1329:../../Middlewares/AI_Runtime/Npu/ll_aton/ll_aton.c ****       k++;
 4377              		.loc 1 1329 7 view .LVU1492
 4378 0260 1060     		str	r0, [r2]
1329:../../Middlewares/AI_Runtime/Npu/ll_aton/ll_aton.c ****       k++;
 4379              		.loc 1 1329 7 is_stmt 1 view .LVU1493
1330:../../Middlewares/AI_Runtime/Npu/ll_aton/ll_aton.c ****       if (k == mem_idx_num)
 4380              		.loc 1 1330 7 view .LVU1494
 4381              	.LVL487:
1331:../../Middlewares/AI_Runtime/Npu/ll_aton/ll_aton.c ****       {
 4382              		.loc 1 1331 7 view .LVU1495
1331:../../Middlewares/AI_Runtime/Npu/ll_aton/ll_aton.c ****       {
 4383              		.loc 1 1331 10 is_stmt 0 view .LVU1496
 4384 0262 04D1     		bne	.L314
1333:../../Middlewares/AI_Runtime/Npu/ll_aton/ll_aton.c ****         k = 0;
 4385              		.loc 1 1333 9 is_stmt 1 view .LVU1497
1333:../../Middlewares/AI_Runtime/Npu/ll_aton/ll_aton.c ****         k = 0;
 4386              		.loc 1 1333 20 is_stmt 0 view .LVU1498
 4387 0264 2046     		mov	r0, r4
 4388              	.LVL488:
1333:../../Middlewares/AI_Runtime/Npu/ll_aton/ll_aton.c ****         k = 0;
 4389              		.loc 1 1333 20 view .LVU1499
 4390 0266 FFF7FEFF 		bl	decun_inc_page_addr
 4391              	.LVL489:
1334:../../Middlewares/AI_Runtime/Npu/ll_aton/ll_aton.c ****       }
 4392              		.loc 1 1334 11 view .LVU1500
 4393 026a 0023     		movs	r3, #0
1333:../../Middlewares/AI_Runtime/Npu/ll_aton/ll_aton.c ****         k = 0;
 4394              		.loc 1 1333 20 view .LVU1501
 4395 026c 0146     		mov	r1, r0
 4396              	.LVL490:
1334:../../Middlewares/AI_Runtime/Npu/ll_aton/ll_aton.c ****       }
 4397              		.loc 1 1334 9 is_stmt 1 view .LVU1502
 4398              	.L314:
1334:../../Middlewares/AI_Runtime/Npu/ll_aton/ll_aton.c ****       }
ARM GAS  C:\Users\Antonio\AppData\Local\Temp\ccynTwLp.s 			page 156


 4399              		.loc 1 1334 9 is_stmt 0 view .LVU1503
 4400              	.LBE95:
1323:../../Middlewares/AI_Runtime/Npu/ll_aton/ll_aton.c ****     {
 4401              		.loc 1 1323 42 is_stmt 1 discriminator 2 view .LVU1504
 4402 026e 09F10309 		add	r9, r9, #3
 4403              	.LVL491:
1323:../../Middlewares/AI_Runtime/Npu/ll_aton/ll_aton.c ****     {
 4404              		.loc 1 1323 42 is_stmt 0 discriminator 2 view .LVU1505
 4405 0272 0637     		adds	r7, r7, #6
 4406 0274 E2E7     		b	.L313
 4407              	.LVL492:
 4408              	.L291:
1323:../../Middlewares/AI_Runtime/Npu/ll_aton/ll_aton.c ****     {
 4409              		.loc 1 1323 42 discriminator 2 view .LVU1506
 4410              	.LBE94:
 4411              	.LBE96:
 4412              	.LBE97:
1579:../../Middlewares/AI_Runtime/Npu/ll_aton/ll_aton.c ****     }
 4413              		.loc 1 1579 7 is_stmt 1 view .LVU1507
 4414              	.LBB98:
 4415              	.LBI98:
1359:../../Middlewares/AI_Runtime/Npu/ll_aton/ll_aton.c **** {
 4416              		.loc 1 1359 13 view .LVU1508
 4417              	.LBB99:
1361:../../Middlewares/AI_Runtime/Npu/ll_aton/ll_aton.c ****   unsigned i, k;
 4418              		.loc 1 1361 3 view .LVU1509
1365:../../Middlewares/AI_Runtime/Npu/ll_aton/ll_aton.c ****   {
 4419              		.loc 1 1365 6 is_stmt 0 view .LVU1510
 4420 0276 012F     		cmp	r7, #1
1361:../../Middlewares/AI_Runtime/Npu/ll_aton/ll_aton.c ****   unsigned i, k;
 4421              		.loc 1 1361 12 view .LVU1511
 4422 0278 4FEA5509 		lsr	r9, r5, #1
 4423              	.LVL493:
1362:../../Middlewares/AI_Runtime/Npu/ll_aton/ll_aton.c ****   unsigned mem_idx_num = ATON_DECUN_MEM_LOW_IDX_MAX - ATON_DECUN_MEM_LOW_IDX_MIN + 1;
 4424              		.loc 1 1362 3 is_stmt 1 view .LVU1512
1363:../../Middlewares/AI_Runtime/Npu/ll_aton/ll_aton.c **** 
 4425              		.loc 1 1363 3 view .LVU1513
1365:../../Middlewares/AI_Runtime/Npu/ll_aton/ll_aton.c ****   {
 4426              		.loc 1 1365 3 view .LVU1514
1365:../../Middlewares/AI_Runtime/Npu/ll_aton/ll_aton.c ****   {
 4427              		.loc 1 1365 6 is_stmt 0 view .LVU1515
 4428 027c 17D1     		bne	.L318
 4429              	.LBB100:
1367:../../Middlewares/AI_Runtime/Npu/ll_aton/ll_aton.c ****     for (i = 0, k = 0; i < CBsize; i++)
 4430              		.loc 1 1367 5 is_stmt 1 view .LVU1516
 4431              	.LVL494:
1368:../../Middlewares/AI_Runtime/Npu/ll_aton/ll_aton.c ****     {
 4432              		.loc 1 1368 5 view .LVU1517
1368:../../Middlewares/AI_Runtime/Npu/ll_aton/ll_aton.c ****     {
 4433              		.loc 1 1368 5 is_stmt 0 view .LVU1518
 4434 027e 2E4F     		ldr	r7, .L362+12
 4435 0280 F568     		ldr	r5, [r6, #12]
 4436 0282 07EB4427 		add	r7, r7, r4, lsl #9
 4437 0286 05EB4909 		add	r9, r5, r9, lsl #1
 4438              	.LVL495:
 4439              	.L360:
 4440              	.LBB101:
ARM GAS  C:\Users\Antonio\AppData\Local\Temp\ccynTwLp.s 			page 157


1376:../../Middlewares/AI_Runtime/Npu/ll_aton/ll_aton.c ****       }
 4441              		.loc 1 1376 9 is_stmt 1 view .LVU1519
1376:../../Middlewares/AI_Runtime/Npu/ll_aton/ll_aton.c ****       }
 4442              		.loc 1 1376 11 is_stmt 0 view .LVU1520
 4443 028a 0023     		movs	r3, #0
 4444              	.LVL496:
1376:../../Middlewares/AI_Runtime/Npu/ll_aton/ll_aton.c ****       }
 4445              		.loc 1 1376 11 view .LVU1521
 4446              	.LBE101:
1368:../../Middlewares/AI_Runtime/Npu/ll_aton/ll_aton.c ****     {
 4447              		.loc 1 1368 37 is_stmt 1 discriminator 2 view .LVU1522
 4448              	.L319:
1368:../../Middlewares/AI_Runtime/Npu/ll_aton/ll_aton.c ****     {
 4449              		.loc 1 1368 26 discriminator 1 view .LVU1523
 4450 028c A945     		cmp	r9, r5
 4451 028e 3FF4CFAE 		beq	.L312
 4452              	.LBB102:
1370:../../Middlewares/AI_Runtime/Npu/ll_aton/ll_aton.c ****       ATON_DECUN_MEM_LOW_SET(id, k, temp);
 4453              		.loc 1 1370 7 view .LVU1524
1371:../../Middlewares/AI_Runtime/Npu/ll_aton/ll_aton.c ****       k++;
 4454              		.loc 1 1371 7 is_stmt 0 view .LVU1525
 4455 0292 DA19     		adds	r2, r3, r7
1370:../../Middlewares/AI_Runtime/Npu/ll_aton/ll_aton.c ****       ATON_DECUN_MEM_LOW_SET(id, k, temp);
 4456              		.loc 1 1370 26 view .LVU1526
 4457 0294 35F8020B 		ldrh	r0, [r5], #2
 4458              	.LVL497:
1371:../../Middlewares/AI_Runtime/Npu/ll_aton/ll_aton.c ****       k++;
 4459              		.loc 1 1371 7 is_stmt 1 view .LVU1527
1371:../../Middlewares/AI_Runtime/Npu/ll_aton/ll_aton.c ****       k++;
 4460              		.loc 1 1371 7 view .LVU1528
1372:../../Middlewares/AI_Runtime/Npu/ll_aton/ll_aton.c ****       if (k == mem_idx_num)
 4461              		.loc 1 1372 8 is_stmt 0 view .LVU1529
 4462 0298 0133     		adds	r3, r3, #1
 4463              	.LVL498:
1371:../../Middlewares/AI_Runtime/Npu/ll_aton/ll_aton.c ****       k++;
 4464              		.loc 1 1371 7 view .LVU1530
 4465 029a D200     		lsls	r2, r2, #3
1373:../../Middlewares/AI_Runtime/Npu/ll_aton/ll_aton.c ****       {
 4466              		.loc 1 1373 10 view .LVU1531
 4467 029c B3F5807F 		cmp	r3, #256
1371:../../Middlewares/AI_Runtime/Npu/ll_aton/ll_aton.c ****       k++;
 4468              		.loc 1 1371 7 view .LVU1532
 4469 02a0 1060     		str	r0, [r2]
1371:../../Middlewares/AI_Runtime/Npu/ll_aton/ll_aton.c ****       k++;
 4470              		.loc 1 1371 7 is_stmt 1 view .LVU1533
1372:../../Middlewares/AI_Runtime/Npu/ll_aton/ll_aton.c ****       if (k == mem_idx_num)
 4471              		.loc 1 1372 7 view .LVU1534
 4472              	.LVL499:
1373:../../Middlewares/AI_Runtime/Npu/ll_aton/ll_aton.c ****       {
 4473              		.loc 1 1373 7 view .LVU1535
1373:../../Middlewares/AI_Runtime/Npu/ll_aton/ll_aton.c ****       {
 4474              		.loc 1 1373 10 is_stmt 0 view .LVU1536
 4475 02a2 F3D1     		bne	.L319
1375:../../Middlewares/AI_Runtime/Npu/ll_aton/ll_aton.c ****         k = 0;
 4476              		.loc 1 1375 9 is_stmt 1 view .LVU1537
1375:../../Middlewares/AI_Runtime/Npu/ll_aton/ll_aton.c ****         k = 0;
 4477              		.loc 1 1375 20 is_stmt 0 view .LVU1538
ARM GAS  C:\Users\Antonio\AppData\Local\Temp\ccynTwLp.s 			page 158


 4478 02a4 2046     		mov	r0, r4
 4479              	.LVL500:
1375:../../Middlewares/AI_Runtime/Npu/ll_aton/ll_aton.c ****         k = 0;
 4480              		.loc 1 1375 20 view .LVU1539
 4481 02a6 FFF7FEFF 		bl	decun_inc_page_addr
 4482              	.LVL501:
1375:../../Middlewares/AI_Runtime/Npu/ll_aton/ll_aton.c ****         k = 0;
 4483              		.loc 1 1375 20 view .LVU1540
 4484 02aa 0146     		mov	r1, r0
 4485              	.LVL502:
1375:../../Middlewares/AI_Runtime/Npu/ll_aton/ll_aton.c ****         k = 0;
 4486              		.loc 1 1375 20 view .LVU1541
 4487 02ac EDE7     		b	.L360
 4488              	.LVL503:
 4489              	.L318:
1375:../../Middlewares/AI_Runtime/Npu/ll_aton/ll_aton.c ****         k = 0;
 4490              		.loc 1 1375 20 view .LVU1542
 4491              	.LBE102:
 4492              	.LBE100:
1380:../../Middlewares/AI_Runtime/Npu/ll_aton/ll_aton.c ****   {
 4493              		.loc 1 1380 3 is_stmt 1 view .LVU1543
1380:../../Middlewares/AI_Runtime/Npu/ll_aton/ll_aton.c ****   {
 4494              		.loc 1 1380 6 is_stmt 0 view .LVU1544
 4495 02ae 022F     		cmp	r7, #2
 4496 02b0 19D1     		bne	.L323
 4497              	.LBB103:
1396:../../Middlewares/AI_Runtime/Npu/ll_aton/ll_aton.c ****     for (i = 0, k = 0; i < CBsize / 2; i++)
 4498              		.loc 1 1396 5 is_stmt 1 view .LVU1545
 4499              	.LVL504:
1397:../../Middlewares/AI_Runtime/Npu/ll_aton/ll_aton.c ****     {
 4500              		.loc 1 1397 5 view .LVU1546
1397:../../Middlewares/AI_Runtime/Npu/ll_aton/ll_aton.c ****     {
 4501              		.loc 1 1397 5 is_stmt 0 view .LVU1547
 4502 02b2 214B     		ldr	r3, .L362+12
 4503 02b4 F768     		ldr	r7, [r6, #12]
 4504 02b6 25F00305 		bic	r5, r5, #3
 4505 02ba 03EB4429 		add	r9, r3, r4, lsl #9
 4506              	.LVL505:
1397:../../Middlewares/AI_Runtime/Npu/ll_aton/ll_aton.c ****     {
 4507              		.loc 1 1397 5 view .LVU1548
 4508 02be 3D44     		add	r5, r5, r7
 4509              	.LVL506:
 4510              	.L361:
 4511              	.LBB104:
1405:../../Middlewares/AI_Runtime/Npu/ll_aton/ll_aton.c ****       }
 4512              		.loc 1 1405 9 is_stmt 1 view .LVU1549
1405:../../Middlewares/AI_Runtime/Npu/ll_aton/ll_aton.c ****       }
 4513              		.loc 1 1405 11 is_stmt 0 view .LVU1550
 4514 02c0 0023     		movs	r3, #0
 4515              	.LVL507:
1405:../../Middlewares/AI_Runtime/Npu/ll_aton/ll_aton.c ****       }
 4516              		.loc 1 1405 11 view .LVU1551
 4517              	.LBE104:
1397:../../Middlewares/AI_Runtime/Npu/ll_aton/ll_aton.c ****     {
 4518              		.loc 1 1397 41 is_stmt 1 discriminator 2 view .LVU1552
 4519              	.L324:
1397:../../Middlewares/AI_Runtime/Npu/ll_aton/ll_aton.c ****     {
ARM GAS  C:\Users\Antonio\AppData\Local\Temp\ccynTwLp.s 			page 159


 4520              		.loc 1 1397 26 discriminator 1 view .LVU1553
 4521 02c2 BD42     		cmp	r5, r7
 4522 02c4 3FF4B4AE 		beq	.L312
 4523              	.LBB105:
1399:../../Middlewares/AI_Runtime/Npu/ll_aton/ll_aton.c ****       ATON_DECUN_MEM_LOW_SET(id, k, temp);
 4524              		.loc 1 1399 7 view .LVU1554
1400:../../Middlewares/AI_Runtime/Npu/ll_aton/ll_aton.c ****       k++;
 4525              		.loc 1 1400 7 is_stmt 0 view .LVU1555
 4526 02c8 09EB0302 		add	r2, r9, r3
1399:../../Middlewares/AI_Runtime/Npu/ll_aton/ll_aton.c ****       ATON_DECUN_MEM_LOW_SET(id, k, temp);
 4527              		.loc 1 1399 16 view .LVU1556
 4528 02cc 57F8040B 		ldr	r0, [r7], #4
 4529              	.LVL508:
1400:../../Middlewares/AI_Runtime/Npu/ll_aton/ll_aton.c ****       k++;
 4530              		.loc 1 1400 7 is_stmt 1 view .LVU1557
1400:../../Middlewares/AI_Runtime/Npu/ll_aton/ll_aton.c ****       k++;
 4531              		.loc 1 1400 7 view .LVU1558
1401:../../Middlewares/AI_Runtime/Npu/ll_aton/ll_aton.c ****       if (k == mem_idx_num)
 4532              		.loc 1 1401 8 is_stmt 0 view .LVU1559
 4533 02d0 0133     		adds	r3, r3, #1
 4534              	.LVL509:
1400:../../Middlewares/AI_Runtime/Npu/ll_aton/ll_aton.c ****       k++;
 4535              		.loc 1 1400 7 view .LVU1560
 4536 02d2 D200     		lsls	r2, r2, #3
1402:../../Middlewares/AI_Runtime/Npu/ll_aton/ll_aton.c ****       {
 4537              		.loc 1 1402 10 view .LVU1561
 4538 02d4 B3F5807F 		cmp	r3, #256
1400:../../Middlewares/AI_Runtime/Npu/ll_aton/ll_aton.c ****       k++;
 4539              		.loc 1 1400 7 view .LVU1562
 4540 02d8 1060     		str	r0, [r2]
1400:../../Middlewares/AI_Runtime/Npu/ll_aton/ll_aton.c ****       k++;
 4541              		.loc 1 1400 7 is_stmt 1 view .LVU1563
1401:../../Middlewares/AI_Runtime/Npu/ll_aton/ll_aton.c ****       if (k == mem_idx_num)
 4542              		.loc 1 1401 7 view .LVU1564
 4543              	.LVL510:
1402:../../Middlewares/AI_Runtime/Npu/ll_aton/ll_aton.c ****       {
 4544              		.loc 1 1402 7 view .LVU1565
1402:../../Middlewares/AI_Runtime/Npu/ll_aton/ll_aton.c ****       {
 4545              		.loc 1 1402 10 is_stmt 0 view .LVU1566
 4546 02da F2D1     		bne	.L324
1404:../../Middlewares/AI_Runtime/Npu/ll_aton/ll_aton.c ****         k = 0;
 4547              		.loc 1 1404 9 is_stmt 1 view .LVU1567
1404:../../Middlewares/AI_Runtime/Npu/ll_aton/ll_aton.c ****         k = 0;
 4548              		.loc 1 1404 20 is_stmt 0 view .LVU1568
 4549 02dc 2046     		mov	r0, r4
 4550              	.LVL511:
1404:../../Middlewares/AI_Runtime/Npu/ll_aton/ll_aton.c ****         k = 0;
 4551              		.loc 1 1404 20 view .LVU1569
 4552 02de FFF7FEFF 		bl	decun_inc_page_addr
 4553              	.LVL512:
1404:../../Middlewares/AI_Runtime/Npu/ll_aton/ll_aton.c ****         k = 0;
 4554              		.loc 1 1404 20 view .LVU1570
 4555 02e2 0146     		mov	r1, r0
 4556              	.LVL513:
1404:../../Middlewares/AI_Runtime/Npu/ll_aton/ll_aton.c ****         k = 0;
 4557              		.loc 1 1404 20 view .LVU1571
 4558 02e4 ECE7     		b	.L361
ARM GAS  C:\Users\Antonio\AppData\Local\Temp\ccynTwLp.s 			page 160


 4559              	.LVL514:
 4560              	.L323:
1404:../../Middlewares/AI_Runtime/Npu/ll_aton/ll_aton.c ****         k = 0;
 4561              		.loc 1 1404 20 view .LVU1572
 4562              	.LBE105:
 4563              	.LBE103:
1410:../../Middlewares/AI_Runtime/Npu/ll_aton/ll_aton.c ****   {
 4564              		.loc 1 1410 3 is_stmt 1 view .LVU1573
1410:../../Middlewares/AI_Runtime/Npu/ll_aton/ll_aton.c ****   {
 4565              		.loc 1 1410 6 is_stmt 0 view .LVU1574
 4566 02e6 032F     		cmp	r7, #3
 4567 02e8 28D1     		bne	.L322
 4568              	.LBB106:
1412:../../Middlewares/AI_Runtime/Npu/ll_aton/ll_aton.c ****     for (i = 0, k = 0; i < CBsize; i += 3)
 4569              		.loc 1 1412 5 is_stmt 1 view .LVU1575
 4570              	.LVL515:
1413:../../Middlewares/AI_Runtime/Npu/ll_aton/ll_aton.c ****     {
 4571              		.loc 1 1413 5 view .LVU1576
1413:../../Middlewares/AI_Runtime/Npu/ll_aton/ll_aton.c ****     {
 4572              		.loc 1 1413 19 is_stmt 0 view .LVU1577
 4573 02ea 0023     		movs	r3, #0
1413:../../Middlewares/AI_Runtime/Npu/ll_aton/ll_aton.c ****     {
 4574              		.loc 1 1413 12 view .LVU1578
 4575 02ec 1F46     		mov	r7, r3
 4576 02ee F568     		ldr	r5, [r6, #12]
 4577              	.LBB107:
1416:../../Middlewares/AI_Runtime/Npu/ll_aton/ll_aton.c ****       temp = CBp[i + 2];
 4578              		.loc 1 1416 7 view .LVU1579
 4579 02f0 DFF844B0 		ldr	fp, .L362+12
 4580 02f4 4FEA442A 		lsl	r10, r4, #9
 4581              	.LVL516:
 4582              	.L328:
1416:../../Middlewares/AI_Runtime/Npu/ll_aton/ll_aton.c ****       temp = CBp[i + 2];
 4583              		.loc 1 1416 7 view .LVU1580
 4584              	.LBE107:
1413:../../Middlewares/AI_Runtime/Npu/ll_aton/ll_aton.c ****     {
 4585              		.loc 1 1413 26 is_stmt 1 discriminator 1 view .LVU1581
 4586 02f8 B945     		cmp	r9, r7
 4587 02fa 7FF699AE 		bls	.L312
 4588              	.LBB108:
1415:../../Middlewares/AI_Runtime/Npu/ll_aton/ll_aton.c ****       ATON_DECUN_MEM_LOW_SET(id, k, temp);
 4589              		.loc 1 1415 7 view .LVU1582
1415:../../Middlewares/AI_Runtime/Npu/ll_aton/ll_aton.c ****       ATON_DECUN_MEM_LOW_SET(id, k, temp);
 4590              		.loc 1 1415 36 is_stmt 0 view .LVU1583
 4591 02fe 6A88     		ldrh	r2, [r5, #2]
1415:../../Middlewares/AI_Runtime/Npu/ll_aton/ll_aton.c ****       ATON_DECUN_MEM_LOW_SET(id, k, temp);
 4592              		.loc 1 1415 26 view .LVU1584
 4593 0300 2888     		ldrh	r0, [r5]
1415:../../Middlewares/AI_Runtime/Npu/ll_aton/ll_aton.c ****       ATON_DECUN_MEM_LOW_SET(id, k, temp);
 4594              		.loc 1 1415 30 view .LVU1585
 4595 0302 40EA0240 		orr	r0, r0, r2, lsl #16
 4596              	.LVL517:
1416:../../Middlewares/AI_Runtime/Npu/ll_aton/ll_aton.c ****       temp = CBp[i + 2];
 4597              		.loc 1 1416 7 is_stmt 1 view .LVU1586
1416:../../Middlewares/AI_Runtime/Npu/ll_aton/ll_aton.c ****       temp = CBp[i + 2];
 4598              		.loc 1 1416 7 view .LVU1587
 4599 0306 0AEB0302 		add	r2, r10, r3
ARM GAS  C:\Users\Antonio\AppData\Local\Temp\ccynTwLp.s 			page 161


 4600 030a 5A44     		add	r2, r2, fp
 4601 030c D200     		lsls	r2, r2, #3
 4602 030e 1060     		str	r0, [r2]
1416:../../Middlewares/AI_Runtime/Npu/ll_aton/ll_aton.c ****       temp = CBp[i + 2];
 4603              		.loc 1 1416 7 view .LVU1588
1417:../../Middlewares/AI_Runtime/Npu/ll_aton/ll_aton.c ****       ATON_DECUN_MEM_HIGH_SET(id, k, temp);
 4604              		.loc 1 1417 7 view .LVU1589
1419:../../Middlewares/AI_Runtime/Npu/ll_aton/ll_aton.c ****       if (k == mem_idx_num)
 4605              		.loc 1 1419 8 is_stmt 0 view .LVU1590
 4606 0310 0133     		adds	r3, r3, #1
 4607              	.LVL518:
1417:../../Middlewares/AI_Runtime/Npu/ll_aton/ll_aton.c ****       ATON_DECUN_MEM_HIGH_SET(id, k, temp);
 4608              		.loc 1 1417 12 view .LVU1591
 4609 0312 A888     		ldrh	r0, [r5, #4]
 4610              	.LVL519:
1418:../../Middlewares/AI_Runtime/Npu/ll_aton/ll_aton.c ****       k++;
 4611              		.loc 1 1418 7 is_stmt 1 view .LVU1592
1418:../../Middlewares/AI_Runtime/Npu/ll_aton/ll_aton.c ****       k++;
 4612              		.loc 1 1418 7 view .LVU1593
1420:../../Middlewares/AI_Runtime/Npu/ll_aton/ll_aton.c ****       {
 4613              		.loc 1 1420 10 is_stmt 0 view .LVU1594
 4614 0314 B3F5807F 		cmp	r3, #256
1418:../../Middlewares/AI_Runtime/Npu/ll_aton/ll_aton.c ****       k++;
 4615              		.loc 1 1418 7 view .LVU1595
 4616 0318 5060     		str	r0, [r2, #4]
1418:../../Middlewares/AI_Runtime/Npu/ll_aton/ll_aton.c ****       k++;
 4617              		.loc 1 1418 7 is_stmt 1 view .LVU1596
1419:../../Middlewares/AI_Runtime/Npu/ll_aton/ll_aton.c ****       if (k == mem_idx_num)
 4618              		.loc 1 1419 7 view .LVU1597
 4619              	.LVL520:
1420:../../Middlewares/AI_Runtime/Npu/ll_aton/ll_aton.c ****       {
 4620              		.loc 1 1420 7 view .LVU1598
1420:../../Middlewares/AI_Runtime/Npu/ll_aton/ll_aton.c ****       {
 4621              		.loc 1 1420 10 is_stmt 0 view .LVU1599
 4622 031a 04D1     		bne	.L329
1422:../../Middlewares/AI_Runtime/Npu/ll_aton/ll_aton.c ****         k = 0;
 4623              		.loc 1 1422 9 is_stmt 1 view .LVU1600
1422:../../Middlewares/AI_Runtime/Npu/ll_aton/ll_aton.c ****         k = 0;
 4624              		.loc 1 1422 20 is_stmt 0 view .LVU1601
 4625 031c 2046     		mov	r0, r4
 4626              	.LVL521:
1422:../../Middlewares/AI_Runtime/Npu/ll_aton/ll_aton.c ****         k = 0;
 4627              		.loc 1 1422 20 view .LVU1602
 4628 031e FFF7FEFF 		bl	decun_inc_page_addr
 4629              	.LVL522:
1423:../../Middlewares/AI_Runtime/Npu/ll_aton/ll_aton.c ****       }
 4630              		.loc 1 1423 11 view .LVU1603
 4631 0322 0023     		movs	r3, #0
1422:../../Middlewares/AI_Runtime/Npu/ll_aton/ll_aton.c ****         k = 0;
 4632              		.loc 1 1422 20 view .LVU1604
 4633 0324 0146     		mov	r1, r0
 4634              	.LVL523:
1423:../../Middlewares/AI_Runtime/Npu/ll_aton/ll_aton.c ****       }
 4635              		.loc 1 1423 9 is_stmt 1 view .LVU1605
 4636              	.L329:
1423:../../Middlewares/AI_Runtime/Npu/ll_aton/ll_aton.c ****       }
 4637              		.loc 1 1423 9 is_stmt 0 view .LVU1606
ARM GAS  C:\Users\Antonio\AppData\Local\Temp\ccynTwLp.s 			page 162


 4638              	.LBE108:
1413:../../Middlewares/AI_Runtime/Npu/ll_aton/ll_aton.c ****     {
 4639              		.loc 1 1413 38 is_stmt 1 discriminator 2 view .LVU1607
 4640 0326 0337     		adds	r7, r7, #3
 4641              	.LVL524:
1413:../../Middlewares/AI_Runtime/Npu/ll_aton/ll_aton.c ****     {
 4642              		.loc 1 1413 38 is_stmt 0 discriminator 2 view .LVU1608
 4643 0328 0635     		adds	r5, r5, #6
 4644 032a E5E7     		b	.L328
 4645              	.L363:
 4646              		.align	2
 4647              	.L362:
 4648 032c 00000000 		.word	.LC27
 4649 0330 00000000 		.word	__func__.4
 4650 0334 05000000 		.word	.LC4
 4651 0338 00E7010B 		.word	184674048
 4652              	.LVL525:
 4653              	.L322:
1413:../../Middlewares/AI_Runtime/Npu/ll_aton/ll_aton.c ****     {
 4654              		.loc 1 1413 38 discriminator 2 view .LVU1609
 4655              	.LBE106:
1427:../../Middlewares/AI_Runtime/Npu/ll_aton/ll_aton.c ****   {
 4656              		.loc 1 1427 3 is_stmt 1 view .LVU1610
1427:../../Middlewares/AI_Runtime/Npu/ll_aton/ll_aton.c ****   {
 4657              		.loc 1 1427 6 is_stmt 0 view .LVU1611
 4658 033c 042F     		cmp	r7, #4
 4659 033e 21D1     		bne	.L327
 4660              	.LBB109:
1429:../../Middlewares/AI_Runtime/Npu/ll_aton/ll_aton.c ****     for (i = 0, k = 0; i < CBsize / 2; i += 2)
 4661              		.loc 1 1429 5 is_stmt 1 view .LVU1612
 4662              	.LVL526:
1430:../../Middlewares/AI_Runtime/Npu/ll_aton/ll_aton.c ****     {
 4663              		.loc 1 1430 5 view .LVU1613
1430:../../Middlewares/AI_Runtime/Npu/ll_aton/ll_aton.c ****     {
 4664              		.loc 1 1430 19 is_stmt 0 view .LVU1614
 4665 0340 0022     		movs	r2, #0
1430:../../Middlewares/AI_Runtime/Npu/ll_aton/ll_aton.c ****     {
 4666              		.loc 1 1430 12 view .LVU1615
 4667 0342 9146     		mov	r9, r2
 4668              	.LVL527:
1430:../../Middlewares/AI_Runtime/Npu/ll_aton/ll_aton.c ****     {
 4669              		.loc 1 1430 12 view .LVU1616
 4670 0344 F768     		ldr	r7, [r6, #12]
 4671              	.LBB110:
1433:../../Middlewares/AI_Runtime/Npu/ll_aton/ll_aton.c ****       temp = CBp[i + 1];
 4672              		.loc 1 1433 7 view .LVU1617
 4673 0346 DFF8E0B1 		ldr	fp, .L364+4
 4674              	.LBE110:
1430:../../Middlewares/AI_Runtime/Npu/ll_aton/ll_aton.c ****     {
 4675              		.loc 1 1430 35 discriminator 1 view .LVU1618
 4676 034a AD08     		lsrs	r5, r5, #2
 4677              	.LVL528:
 4678              	.LBB111:
1433:../../Middlewares/AI_Runtime/Npu/ll_aton/ll_aton.c ****       temp = CBp[i + 1];
 4679              		.loc 1 1433 7 view .LVU1619
 4680 034c 4FEA442A 		lsl	r10, r4, #9
 4681 0350 0437     		adds	r7, r7, #4
ARM GAS  C:\Users\Antonio\AppData\Local\Temp\ccynTwLp.s 			page 163


 4682              	.LVL529:
 4683              	.L332:
1433:../../Middlewares/AI_Runtime/Npu/ll_aton/ll_aton.c ****       temp = CBp[i + 1];
 4684              		.loc 1 1433 7 view .LVU1620
 4685              	.LBE111:
1430:../../Middlewares/AI_Runtime/Npu/ll_aton/ll_aton.c ****     {
 4686              		.loc 1 1430 26 is_stmt 1 discriminator 1 view .LVU1621
 4687 0352 A945     		cmp	r9, r5
 4688 0354 BFF46CAE 		bcs	.L312
 4689              	.LBB112:
1432:../../Middlewares/AI_Runtime/Npu/ll_aton/ll_aton.c ****       ATON_DECUN_MEM_LOW_SET(id, k, temp);
 4690              		.loc 1 1432 7 view .LVU1622
1433:../../Middlewares/AI_Runtime/Npu/ll_aton/ll_aton.c ****       temp = CBp[i + 1];
 4691              		.loc 1 1433 7 is_stmt 0 view .LVU1623
 4692 0358 0AEB0200 		add	r0, r10, r2
1432:../../Middlewares/AI_Runtime/Npu/ll_aton/ll_aton.c ****       ATON_DECUN_MEM_LOW_SET(id, k, temp);
 4693              		.loc 1 1432 16 view .LVU1624
 4694 035c 57F8043C 		ldr	r3, [r7, #-4]
 4695              	.LVL530:
1433:../../Middlewares/AI_Runtime/Npu/ll_aton/ll_aton.c ****       temp = CBp[i + 1];
 4696              		.loc 1 1433 7 is_stmt 1 view .LVU1625
1433:../../Middlewares/AI_Runtime/Npu/ll_aton/ll_aton.c ****       temp = CBp[i + 1];
 4697              		.loc 1 1433 7 view .LVU1626
 4698 0360 5844     		add	r0, r0, fp
 4699 0362 C000     		lsls	r0, r0, #3
 4700 0364 0360     		str	r3, [r0]
1433:../../Middlewares/AI_Runtime/Npu/ll_aton/ll_aton.c ****       temp = CBp[i + 1];
 4701              		.loc 1 1433 7 view .LVU1627
1434:../../Middlewares/AI_Runtime/Npu/ll_aton/ll_aton.c ****       ATON_DECUN_MEM_HIGH_SET(id, k, temp);
 4702              		.loc 1 1434 7 view .LVU1628
1434:../../Middlewares/AI_Runtime/Npu/ll_aton/ll_aton.c ****       ATON_DECUN_MEM_HIGH_SET(id, k, temp);
 4703              		.loc 1 1434 12 is_stmt 0 view .LVU1629
 4704 0366 3B68     		ldr	r3, [r7]
 4705              	.LVL531:
1435:../../Middlewares/AI_Runtime/Npu/ll_aton/ll_aton.c ****       k++;
 4706              		.loc 1 1435 7 is_stmt 1 view .LVU1630
1435:../../Middlewares/AI_Runtime/Npu/ll_aton/ll_aton.c ****       k++;
 4707              		.loc 1 1435 7 view .LVU1631
1436:../../Middlewares/AI_Runtime/Npu/ll_aton/ll_aton.c ****       if (k == mem_idx_num)
 4708              		.loc 1 1436 8 is_stmt 0 view .LVU1632
 4709 0368 0132     		adds	r2, r2, #1
 4710              	.LVL532:
1437:../../Middlewares/AI_Runtime/Npu/ll_aton/ll_aton.c ****       {
 4711              		.loc 1 1437 10 view .LVU1633
 4712 036a B2F5807F 		cmp	r2, #256
1435:../../Middlewares/AI_Runtime/Npu/ll_aton/ll_aton.c ****       k++;
 4713              		.loc 1 1435 7 view .LVU1634
 4714 036e 4360     		str	r3, [r0, #4]
1435:../../Middlewares/AI_Runtime/Npu/ll_aton/ll_aton.c ****       k++;
 4715              		.loc 1 1435 7 is_stmt 1 view .LVU1635
1436:../../Middlewares/AI_Runtime/Npu/ll_aton/ll_aton.c ****       if (k == mem_idx_num)
 4716              		.loc 1 1436 7 view .LVU1636
 4717              	.LVL533:
1437:../../Middlewares/AI_Runtime/Npu/ll_aton/ll_aton.c ****       {
 4718              		.loc 1 1437 7 view .LVU1637
1437:../../Middlewares/AI_Runtime/Npu/ll_aton/ll_aton.c ****       {
 4719              		.loc 1 1437 10 is_stmt 0 view .LVU1638
ARM GAS  C:\Users\Antonio\AppData\Local\Temp\ccynTwLp.s 			page 164


 4720 0370 04D1     		bne	.L333
1439:../../Middlewares/AI_Runtime/Npu/ll_aton/ll_aton.c ****         k = 0;
 4721              		.loc 1 1439 9 is_stmt 1 view .LVU1639
1439:../../Middlewares/AI_Runtime/Npu/ll_aton/ll_aton.c ****         k = 0;
 4722              		.loc 1 1439 20 is_stmt 0 view .LVU1640
 4723 0372 2046     		mov	r0, r4
 4724 0374 FFF7FEFF 		bl	decun_inc_page_addr
 4725              	.LVL534:
1440:../../Middlewares/AI_Runtime/Npu/ll_aton/ll_aton.c ****       }
 4726              		.loc 1 1440 11 view .LVU1641
 4727 0378 0022     		movs	r2, #0
1439:../../Middlewares/AI_Runtime/Npu/ll_aton/ll_aton.c ****         k = 0;
 4728              		.loc 1 1439 20 view .LVU1642
 4729 037a 0146     		mov	r1, r0
 4730              	.LVL535:
1440:../../Middlewares/AI_Runtime/Npu/ll_aton/ll_aton.c ****       }
 4731              		.loc 1 1440 9 is_stmt 1 view .LVU1643
 4732              	.L333:
1440:../../Middlewares/AI_Runtime/Npu/ll_aton/ll_aton.c ****       }
 4733              		.loc 1 1440 9 is_stmt 0 view .LVU1644
 4734              	.LBE112:
1430:../../Middlewares/AI_Runtime/Npu/ll_aton/ll_aton.c ****     {
 4735              		.loc 1 1430 42 is_stmt 1 discriminator 2 view .LVU1645
 4736 037c 09F10209 		add	r9, r9, #2
 4737              	.LVL536:
1430:../../Middlewares/AI_Runtime/Npu/ll_aton/ll_aton.c ****     {
 4738              		.loc 1 1430 42 is_stmt 0 discriminator 2 view .LVU1646
 4739 0380 0837     		adds	r7, r7, #8
 4740 0382 E6E7     		b	.L332
 4741              	.LVL537:
 4742              	.L327:
1430:../../Middlewares/AI_Runtime/Npu/ll_aton/ll_aton.c ****     {
 4743              		.loc 1 1430 42 discriminator 2 view .LVU1647
 4744              	.LBE109:
1444:../../Middlewares/AI_Runtime/Npu/ll_aton/ll_aton.c ****   {
 4745              		.loc 1 1444 3 is_stmt 1 view .LVU1648
1444:../../Middlewares/AI_Runtime/Npu/ll_aton/ll_aton.c ****   {
 4746              		.loc 1 1444 6 is_stmt 0 view .LVU1649
 4747 0384 052F     		cmp	r7, #5
 4748 0386 31D1     		bne	.L331
 4749              	.LBB113:
1446:../../Middlewares/AI_Runtime/Npu/ll_aton/ll_aton.c ****     for (i = 0, k = 0; i < CBsize; i += 5)
 4750              		.loc 1 1446 5 is_stmt 1 view .LVU1650
 4751              	.LVL538:
1447:../../Middlewares/AI_Runtime/Npu/ll_aton/ll_aton.c ****     {
 4752              		.loc 1 1447 5 view .LVU1651
1447:../../Middlewares/AI_Runtime/Npu/ll_aton/ll_aton.c ****     {
 4753              		.loc 1 1447 19 is_stmt 0 view .LVU1652
 4754 0388 0022     		movs	r2, #0
1447:../../Middlewares/AI_Runtime/Npu/ll_aton/ll_aton.c ****     {
 4755              		.loc 1 1447 12 view .LVU1653
 4756 038a 1746     		mov	r7, r2
 4757 038c 654B     		ldr	r3, .L364
 4758 038e F568     		ldr	r5, [r6, #12]
 4759              	.LBB114:
1450:../../Middlewares/AI_Runtime/Npu/ll_aton/ll_aton.c ****       temp = CBp[i + 2] | (CBp[i + 3] << 16);
 4760              		.loc 1 1450 7 view .LVU1654
ARM GAS  C:\Users\Antonio\AppData\Local\Temp\ccynTwLp.s 			page 165


 4761 0390 4FEA442B 		lsl	fp, r4, #9
 4762 0394 03EB442A 		add	r10, r3, r4, lsl #9
 4763              	.LVL539:
 4764              	.L336:
1450:../../Middlewares/AI_Runtime/Npu/ll_aton/ll_aton.c ****       temp = CBp[i + 2] | (CBp[i + 3] << 16);
 4765              		.loc 1 1450 7 view .LVU1655
 4766              	.LBE114:
1447:../../Middlewares/AI_Runtime/Npu/ll_aton/ll_aton.c ****     {
 4767              		.loc 1 1447 26 is_stmt 1 discriminator 1 view .LVU1656
 4768 0398 B945     		cmp	r9, r7
 4769 039a 7FF649AE 		bls	.L312
 4770              	.LBB115:
1449:../../Middlewares/AI_Runtime/Npu/ll_aton/ll_aton.c ****       ATON_DECUN_MEM_LOW_SET(id, k, temp);
 4771              		.loc 1 1449 7 view .LVU1657
1449:../../Middlewares/AI_Runtime/Npu/ll_aton/ll_aton.c ****       ATON_DECUN_MEM_LOW_SET(id, k, temp);
 4772              		.loc 1 1449 36 is_stmt 0 view .LVU1658
 4773 039e 6888     		ldrh	r0, [r5, #2]
1449:../../Middlewares/AI_Runtime/Npu/ll_aton/ll_aton.c ****       ATON_DECUN_MEM_LOW_SET(id, k, temp);
 4774              		.loc 1 1449 26 view .LVU1659
 4775 03a0 B5F800C0 		ldrh	ip, [r5]
1451:../../Middlewares/AI_Runtime/Npu/ll_aton/ll_aton.c ****       ATON_DECUN_MEM_HIGH_SET(id, k, temp);
 4776              		.loc 1 1451 31 view .LVU1660
 4777 03a4 B5F806E0 		ldrh	lr, [r5, #6]
1449:../../Middlewares/AI_Runtime/Npu/ll_aton/ll_aton.c ****       ATON_DECUN_MEM_LOW_SET(id, k, temp);
 4778              		.loc 1 1449 30 view .LVU1661
 4779 03a8 4CEA0043 		orr	r3, ip, r0, lsl #16
 4780              	.LVL540:
1450:../../Middlewares/AI_Runtime/Npu/ll_aton/ll_aton.c ****       temp = CBp[i + 2] | (CBp[i + 3] << 16);
 4781              		.loc 1 1450 7 is_stmt 1 view .LVU1662
1450:../../Middlewares/AI_Runtime/Npu/ll_aton/ll_aton.c ****       temp = CBp[i + 2] | (CBp[i + 3] << 16);
 4782              		.loc 1 1450 7 view .LVU1663
 4783 03ac 0BEB0200 		add	r0, fp, r2
 4784 03b0 00F13060 		add	r0, r0, #184549376
 4785 03b4 00F5F330 		add	r0, r0, #124416
1451:../../Middlewares/AI_Runtime/Npu/ll_aton/ll_aton.c ****       ATON_DECUN_MEM_HIGH_SET(id, k, temp);
 4786              		.loc 1 1451 17 is_stmt 0 view .LVU1664
 4787 03b8 B5F804C0 		ldrh	ip, [r5, #4]
1450:../../Middlewares/AI_Runtime/Npu/ll_aton/ll_aton.c ****       temp = CBp[i + 2] | (CBp[i + 3] << 16);
 4788              		.loc 1 1450 7 view .LVU1665
 4789 03bc 00F58070 		add	r0, r0, #256
 4790 03c0 C000     		lsls	r0, r0, #3
 4791 03c2 0360     		str	r3, [r0]
1450:../../Middlewares/AI_Runtime/Npu/ll_aton/ll_aton.c ****       temp = CBp[i + 2] | (CBp[i + 3] << 16);
 4792              		.loc 1 1450 7 is_stmt 1 view .LVU1666
1451:../../Middlewares/AI_Runtime/Npu/ll_aton/ll_aton.c ****       ATON_DECUN_MEM_HIGH_SET(id, k, temp);
 4793              		.loc 1 1451 7 view .LVU1667
1451:../../Middlewares/AI_Runtime/Npu/ll_aton/ll_aton.c ****       ATON_DECUN_MEM_HIGH_SET(id, k, temp);
 4794              		.loc 1 1451 25 is_stmt 0 view .LVU1668
 4795 03c4 4CEA0E43 		orr	r3, ip, lr, lsl #16
 4796              	.LVL541:
1452:../../Middlewares/AI_Runtime/Npu/ll_aton/ll_aton.c ****       k++;
 4797              		.loc 1 1452 7 is_stmt 1 view .LVU1669
1452:../../Middlewares/AI_Runtime/Npu/ll_aton/ll_aton.c ****       k++;
 4798              		.loc 1 1452 7 view .LVU1670
 4799 03c8 4360     		str	r3, [r0, #4]
1452:../../Middlewares/AI_Runtime/Npu/ll_aton/ll_aton.c ****       k++;
 4800              		.loc 1 1452 7 view .LVU1671
ARM GAS  C:\Users\Antonio\AppData\Local\Temp\ccynTwLp.s 			page 166


1453:../../Middlewares/AI_Runtime/Npu/ll_aton/ll_aton.c ****       temp = CBp[i + 4];
 4801              		.loc 1 1453 7 view .LVU1672
 4802              	.LVL542:
1454:../../Middlewares/AI_Runtime/Npu/ll_aton/ll_aton.c ****       ATON_DECUN_MEM_LOW_SET(id, k, temp);
 4803              		.loc 1 1454 7 view .LVU1673
1455:../../Middlewares/AI_Runtime/Npu/ll_aton/ll_aton.c ****       k++;
 4804              		.loc 1 1455 7 is_stmt 0 view .LVU1674
 4805 03ca 0AEB0200 		add	r0, r10, r2
1454:../../Middlewares/AI_Runtime/Npu/ll_aton/ll_aton.c ****       ATON_DECUN_MEM_LOW_SET(id, k, temp);
 4806              		.loc 1 1454 12 view .LVU1675
 4807 03ce 2B89     		ldrh	r3, [r5, #8]
 4808              	.LVL543:
1455:../../Middlewares/AI_Runtime/Npu/ll_aton/ll_aton.c ****       k++;
 4809              		.loc 1 1455 7 is_stmt 1 view .LVU1676
1455:../../Middlewares/AI_Runtime/Npu/ll_aton/ll_aton.c ****       k++;
 4810              		.loc 1 1455 7 view .LVU1677
1456:../../Middlewares/AI_Runtime/Npu/ll_aton/ll_aton.c ****       if (k == mem_idx_num)
 4811              		.loc 1 1456 8 is_stmt 0 view .LVU1678
 4812 03d0 0232     		adds	r2, r2, #2
 4813              	.LVL544:
1455:../../Middlewares/AI_Runtime/Npu/ll_aton/ll_aton.c ****       k++;
 4814              		.loc 1 1455 7 view .LVU1679
 4815 03d2 C000     		lsls	r0, r0, #3
1457:../../Middlewares/AI_Runtime/Npu/ll_aton/ll_aton.c ****       {
 4816              		.loc 1 1457 10 view .LVU1680
 4817 03d4 B2F5807F 		cmp	r2, #256
1455:../../Middlewares/AI_Runtime/Npu/ll_aton/ll_aton.c ****       k++;
 4818              		.loc 1 1455 7 view .LVU1681
 4819 03d8 0360     		str	r3, [r0]
1455:../../Middlewares/AI_Runtime/Npu/ll_aton/ll_aton.c ****       k++;
 4820              		.loc 1 1455 7 is_stmt 1 view .LVU1682
1456:../../Middlewares/AI_Runtime/Npu/ll_aton/ll_aton.c ****       if (k == mem_idx_num)
 4821              		.loc 1 1456 7 view .LVU1683
 4822              	.LVL545:
1457:../../Middlewares/AI_Runtime/Npu/ll_aton/ll_aton.c ****       {
 4823              		.loc 1 1457 7 view .LVU1684
1457:../../Middlewares/AI_Runtime/Npu/ll_aton/ll_aton.c ****       {
 4824              		.loc 1 1457 10 is_stmt 0 view .LVU1685
 4825 03da 04D1     		bne	.L337
1459:../../Middlewares/AI_Runtime/Npu/ll_aton/ll_aton.c ****         k = 0;
 4826              		.loc 1 1459 9 is_stmt 1 view .LVU1686
1459:../../Middlewares/AI_Runtime/Npu/ll_aton/ll_aton.c ****         k = 0;
 4827              		.loc 1 1459 20 is_stmt 0 view .LVU1687
 4828 03dc 2046     		mov	r0, r4
 4829 03de FFF7FEFF 		bl	decun_inc_page_addr
 4830              	.LVL546:
1460:../../Middlewares/AI_Runtime/Npu/ll_aton/ll_aton.c ****       }
 4831              		.loc 1 1460 11 view .LVU1688
 4832 03e2 0022     		movs	r2, #0
1459:../../Middlewares/AI_Runtime/Npu/ll_aton/ll_aton.c ****         k = 0;
 4833              		.loc 1 1459 20 view .LVU1689
 4834 03e4 0146     		mov	r1, r0
 4835              	.LVL547:
1460:../../Middlewares/AI_Runtime/Npu/ll_aton/ll_aton.c ****       }
 4836              		.loc 1 1460 9 is_stmt 1 view .LVU1690
 4837              	.L337:
1460:../../Middlewares/AI_Runtime/Npu/ll_aton/ll_aton.c ****       }
ARM GAS  C:\Users\Antonio\AppData\Local\Temp\ccynTwLp.s 			page 167


 4838              		.loc 1 1460 9 is_stmt 0 view .LVU1691
 4839              	.LBE115:
1447:../../Middlewares/AI_Runtime/Npu/ll_aton/ll_aton.c ****     {
 4840              		.loc 1 1447 38 is_stmt 1 discriminator 2 view .LVU1692
 4841 03e6 0537     		adds	r7, r7, #5
 4842              	.LVL548:
1447:../../Middlewares/AI_Runtime/Npu/ll_aton/ll_aton.c ****     {
 4843              		.loc 1 1447 38 is_stmt 0 discriminator 2 view .LVU1693
 4844 03e8 0A35     		adds	r5, r5, #10
 4845 03ea D5E7     		b	.L336
 4846              	.LVL549:
 4847              	.L331:
1447:../../Middlewares/AI_Runtime/Npu/ll_aton/ll_aton.c ****     {
 4848              		.loc 1 1447 38 discriminator 2 view .LVU1694
 4849              	.LBE113:
1464:../../Middlewares/AI_Runtime/Npu/ll_aton/ll_aton.c ****   {
 4850              		.loc 1 1464 3 is_stmt 1 view .LVU1695
1464:../../Middlewares/AI_Runtime/Npu/ll_aton/ll_aton.c ****   {
 4851              		.loc 1 1464 6 is_stmt 0 view .LVU1696
 4852 03ec 062F     		cmp	r7, #6
 4853 03ee 2CD1     		bne	.L335
 4854              	.LBB116:
1490:../../Middlewares/AI_Runtime/Npu/ll_aton/ll_aton.c ****     for (i = 0, k = 0; i < CBsize / 2; i += 3)
 4855              		.loc 1 1490 5 is_stmt 1 view .LVU1697
 4856              	.LVL550:
1491:../../Middlewares/AI_Runtime/Npu/ll_aton/ll_aton.c ****     {
 4857              		.loc 1 1491 5 view .LVU1698
1491:../../Middlewares/AI_Runtime/Npu/ll_aton/ll_aton.c ****     {
 4858              		.loc 1 1491 19 is_stmt 0 view .LVU1699
 4859 03f0 0020     		movs	r0, #0
1491:../../Middlewares/AI_Runtime/Npu/ll_aton/ll_aton.c ****     {
 4860              		.loc 1 1491 12 view .LVU1700
 4861 03f2 8146     		mov	r9, r0
 4862              	.LVL551:
1491:../../Middlewares/AI_Runtime/Npu/ll_aton/ll_aton.c ****     {
 4863              		.loc 1 1491 12 view .LVU1701
 4864 03f4 4B4B     		ldr	r3, .L364
 4865 03f6 F768     		ldr	r7, [r6, #12]
 4866 03f8 03EB442A 		add	r10, r3, r4, lsl #9
1491:../../Middlewares/AI_Runtime/Npu/ll_aton/ll_aton.c ****     {
 4867              		.loc 1 1491 35 discriminator 1 view .LVU1702
 4868 03fc AD08     		lsrs	r5, r5, #2
 4869              	.LVL552:
 4870              	.LBB117:
1494:../../Middlewares/AI_Runtime/Npu/ll_aton/ll_aton.c ****       temp = CBp[i + 1];
 4871              		.loc 1 1494 7 view .LVU1703
 4872 03fe 4FEA442B 		lsl	fp, r4, #9
 4873 0402 013B     		subs	r3, r3, #1
 4874              	.LVL553:
 4875              	.L340:
1494:../../Middlewares/AI_Runtime/Npu/ll_aton/ll_aton.c ****       temp = CBp[i + 1];
 4876              		.loc 1 1494 7 view .LVU1704
 4877              	.LBE117:
1491:../../Middlewares/AI_Runtime/Npu/ll_aton/ll_aton.c ****     {
 4878              		.loc 1 1491 26 is_stmt 1 discriminator 1 view .LVU1705
 4879 0404 A945     		cmp	r9, r5
 4880 0406 BFF413AE 		bcs	.L312
ARM GAS  C:\Users\Antonio\AppData\Local\Temp\ccynTwLp.s 			page 168


 4881              	.LBB118:
1493:../../Middlewares/AI_Runtime/Npu/ll_aton/ll_aton.c ****       ATON_DECUN_MEM_LOW_SET(id, k, temp);
 4882              		.loc 1 1493 7 view .LVU1706
1494:../../Middlewares/AI_Runtime/Npu/ll_aton/ll_aton.c ****       temp = CBp[i + 1];
 4883              		.loc 1 1494 7 is_stmt 0 view .LVU1707
 4884 040a 0BEB000C 		add	ip, fp, r0
1493:../../Middlewares/AI_Runtime/Npu/ll_aton/ll_aton.c ****       ATON_DECUN_MEM_LOW_SET(id, k, temp);
 4885              		.loc 1 1493 16 view .LVU1708
 4886 040e 3A68     		ldr	r2, [r7]
 4887              	.LVL554:
1494:../../Middlewares/AI_Runtime/Npu/ll_aton/ll_aton.c ****       temp = CBp[i + 1];
 4888              		.loc 1 1494 7 is_stmt 1 view .LVU1709
1494:../../Middlewares/AI_Runtime/Npu/ll_aton/ll_aton.c ****       temp = CBp[i + 1];
 4889              		.loc 1 1494 7 view .LVU1710
 4890 0410 9C44     		add	ip, ip, r3
 4891 0412 4FEACC0C 		lsl	ip, ip, #3
 4892 0416 CCF80020 		str	r2, [ip]
1494:../../Middlewares/AI_Runtime/Npu/ll_aton/ll_aton.c ****       temp = CBp[i + 1];
 4893              		.loc 1 1494 7 view .LVU1711
1495:../../Middlewares/AI_Runtime/Npu/ll_aton/ll_aton.c ****       ATON_DECUN_MEM_HIGH_SET(id, k, temp);
 4894              		.loc 1 1495 7 view .LVU1712
1495:../../Middlewares/AI_Runtime/Npu/ll_aton/ll_aton.c ****       ATON_DECUN_MEM_HIGH_SET(id, k, temp);
 4895              		.loc 1 1495 12 is_stmt 0 view .LVU1713
 4896 041a 7A68     		ldr	r2, [r7, #4]
 4897              	.LVL555:
1496:../../Middlewares/AI_Runtime/Npu/ll_aton/ll_aton.c ****       k++;
 4898              		.loc 1 1496 7 is_stmt 1 view .LVU1714
1496:../../Middlewares/AI_Runtime/Npu/ll_aton/ll_aton.c ****       k++;
 4899              		.loc 1 1496 7 view .LVU1715
 4900 041c CCF80420 		str	r2, [ip, #4]
1496:../../Middlewares/AI_Runtime/Npu/ll_aton/ll_aton.c ****       k++;
 4901              		.loc 1 1496 7 view .LVU1716
1497:../../Middlewares/AI_Runtime/Npu/ll_aton/ll_aton.c ****       temp = CBp[i + 2];
 4902              		.loc 1 1497 7 view .LVU1717
 4903              	.LVL556:
1498:../../Middlewares/AI_Runtime/Npu/ll_aton/ll_aton.c ****       ATON_DECUN_MEM_LOW_SET(id, k, temp);
 4904              		.loc 1 1498 7 view .LVU1718
1498:../../Middlewares/AI_Runtime/Npu/ll_aton/ll_aton.c ****       ATON_DECUN_MEM_LOW_SET(id, k, temp);
 4905              		.loc 1 1498 12 is_stmt 0 view .LVU1719
 4906 0420 BA68     		ldr	r2, [r7, #8]
 4907              	.LVL557:
1499:../../Middlewares/AI_Runtime/Npu/ll_aton/ll_aton.c ****       k++;
 4908              		.loc 1 1499 7 is_stmt 1 view .LVU1720
1499:../../Middlewares/AI_Runtime/Npu/ll_aton/ll_aton.c ****       k++;
 4909              		.loc 1 1499 7 view .LVU1721
 4910 0422 0AEB000C 		add	ip, r10, r0
1500:../../Middlewares/AI_Runtime/Npu/ll_aton/ll_aton.c ****       if (k == mem_idx_num)
 4911              		.loc 1 1500 8 is_stmt 0 view .LVU1722
 4912 0426 0230     		adds	r0, r0, #2
 4913              	.LVL558:
1499:../../Middlewares/AI_Runtime/Npu/ll_aton/ll_aton.c ****       k++;
 4914              		.loc 1 1499 7 view .LVU1723
 4915 0428 4FEACC0C 		lsl	ip, ip, #3
1501:../../Middlewares/AI_Runtime/Npu/ll_aton/ll_aton.c ****       {
 4916              		.loc 1 1501 10 view .LVU1724
 4917 042c B0F5807F 		cmp	r0, #256
1499:../../Middlewares/AI_Runtime/Npu/ll_aton/ll_aton.c ****       k++;
ARM GAS  C:\Users\Antonio\AppData\Local\Temp\ccynTwLp.s 			page 169


 4918              		.loc 1 1499 7 view .LVU1725
 4919 0430 CCF80020 		str	r2, [ip]
1499:../../Middlewares/AI_Runtime/Npu/ll_aton/ll_aton.c ****       k++;
 4920              		.loc 1 1499 7 is_stmt 1 view .LVU1726
1500:../../Middlewares/AI_Runtime/Npu/ll_aton/ll_aton.c ****       if (k == mem_idx_num)
 4921              		.loc 1 1500 7 view .LVU1727
 4922              	.LVL559:
1501:../../Middlewares/AI_Runtime/Npu/ll_aton/ll_aton.c ****       {
 4923              		.loc 1 1501 7 view .LVU1728
1501:../../Middlewares/AI_Runtime/Npu/ll_aton/ll_aton.c ****       {
 4924              		.loc 1 1501 10 is_stmt 0 view .LVU1729
 4925 0434 05D1     		bne	.L341
1503:../../Middlewares/AI_Runtime/Npu/ll_aton/ll_aton.c ****         k = 0;
 4926              		.loc 1 1503 9 is_stmt 1 view .LVU1730
1503:../../Middlewares/AI_Runtime/Npu/ll_aton/ll_aton.c ****         k = 0;
 4927              		.loc 1 1503 20 is_stmt 0 view .LVU1731
 4928 0436 2046     		mov	r0, r4
 4929              	.LVL560:
1503:../../Middlewares/AI_Runtime/Npu/ll_aton/ll_aton.c ****         k = 0;
 4930              		.loc 1 1503 20 view .LVU1732
 4931 0438 FFF7FEFF 		bl	decun_inc_page_addr
 4932              	.LVL561:
1503:../../Middlewares/AI_Runtime/Npu/ll_aton/ll_aton.c ****         k = 0;
 4933              		.loc 1 1503 20 view .LVU1733
 4934 043c 0146     		mov	r1, r0
 4935              	.LVL562:
1504:../../Middlewares/AI_Runtime/Npu/ll_aton/ll_aton.c ****       }
 4936              		.loc 1 1504 9 is_stmt 1 view .LVU1734
1504:../../Middlewares/AI_Runtime/Npu/ll_aton/ll_aton.c ****       }
 4937              		.loc 1 1504 11 is_stmt 0 view .LVU1735
 4938 043e 0020     		movs	r0, #0
 4939              	.LVL563:
1504:../../Middlewares/AI_Runtime/Npu/ll_aton/ll_aton.c ****       }
 4940              		.loc 1 1504 11 view .LVU1736
 4941 0440 394B     		ldr	r3, .L364+4
 4942              	.LVL564:
 4943              	.L341:
1504:../../Middlewares/AI_Runtime/Npu/ll_aton/ll_aton.c ****       }
 4944              		.loc 1 1504 11 view .LVU1737
 4945              	.LBE118:
1491:../../Middlewares/AI_Runtime/Npu/ll_aton/ll_aton.c ****     {
 4946              		.loc 1 1491 42 is_stmt 1 discriminator 2 view .LVU1738
 4947 0442 09F10309 		add	r9, r9, #3
 4948              	.LVL565:
1491:../../Middlewares/AI_Runtime/Npu/ll_aton/ll_aton.c ****     {
 4949              		.loc 1 1491 42 is_stmt 0 discriminator 2 view .LVU1739
 4950 0446 0C37     		adds	r7, r7, #12
 4951 0448 DCE7     		b	.L340
 4952              	.LVL566:
 4953              	.L335:
1491:../../Middlewares/AI_Runtime/Npu/ll_aton/ll_aton.c ****     {
 4954              		.loc 1 1491 42 discriminator 2 view .LVU1740
 4955              	.LBE116:
1509:../../Middlewares/AI_Runtime/Npu/ll_aton/ll_aton.c ****   {
 4956              		.loc 1 1509 3 is_stmt 1 view .LVU1741
1509:../../Middlewares/AI_Runtime/Npu/ll_aton/ll_aton.c ****   {
 4957              		.loc 1 1509 6 is_stmt 0 view .LVU1742
ARM GAS  C:\Users\Antonio\AppData\Local\Temp\ccynTwLp.s 			page 170


 4958 044a 072F     		cmp	r7, #7
 4959 044c 35D1     		bne	.L339
 4960              	.LBB119:
1511:../../Middlewares/AI_Runtime/Npu/ll_aton/ll_aton.c ****     for (i = 0, k = 0; i < CBsize; i += 7)
 4961              		.loc 1 1511 5 is_stmt 1 view .LVU1743
 4962              	.LVL567:
1512:../../Middlewares/AI_Runtime/Npu/ll_aton/ll_aton.c ****     {
 4963              		.loc 1 1512 5 view .LVU1744
1512:../../Middlewares/AI_Runtime/Npu/ll_aton/ll_aton.c ****     {
 4964              		.loc 1 1512 19 is_stmt 0 view .LVU1745
 4965 044e 0022     		movs	r2, #0
1512:../../Middlewares/AI_Runtime/Npu/ll_aton/ll_aton.c ****     {
 4966              		.loc 1 1512 12 view .LVU1746
 4967 0450 1746     		mov	r7, r2
 4968              	.LBB120:
1515:../../Middlewares/AI_Runtime/Npu/ll_aton/ll_aton.c ****       temp = CBp[i + 2] | (CBp[i + 3] << 16);
 4969              		.loc 1 1515 7 view .LVU1747
 4970 0452 4FEA442A 		lsl	r10, r4, #9
 4971 0456 0AF10103 		add	r3, r10, #1
 4972 045a F568     		ldr	r5, [r6, #12]
 4973 045c DFF8C8B0 		ldr	fp, .L364+4
 4974 0460 0193     		str	r3, [sp, #4]
 4975              	.LVL568:
 4976              	.L343:
1515:../../Middlewares/AI_Runtime/Npu/ll_aton/ll_aton.c ****       temp = CBp[i + 2] | (CBp[i + 3] << 16);
 4977              		.loc 1 1515 7 view .LVU1748
 4978              	.LBE120:
1512:../../Middlewares/AI_Runtime/Npu/ll_aton/ll_aton.c ****     {
 4979              		.loc 1 1512 26 is_stmt 1 discriminator 1 view .LVU1749
 4980 0462 B945     		cmp	r9, r7
 4981 0464 7FF6E4AD 		bls	.L312
 4982              	.LBB121:
1514:../../Middlewares/AI_Runtime/Npu/ll_aton/ll_aton.c ****       ATON_DECUN_MEM_LOW_SET(id, k, temp);
 4983              		.loc 1 1514 7 view .LVU1750
1514:../../Middlewares/AI_Runtime/Npu/ll_aton/ll_aton.c ****       ATON_DECUN_MEM_LOW_SET(id, k, temp);
 4984              		.loc 1 1514 36 is_stmt 0 view .LVU1751
 4985 0468 6888     		ldrh	r0, [r5, #2]
1514:../../Middlewares/AI_Runtime/Npu/ll_aton/ll_aton.c ****       ATON_DECUN_MEM_LOW_SET(id, k, temp);
 4986              		.loc 1 1514 26 view .LVU1752
 4987 046a B5F800C0 		ldrh	ip, [r5]
1516:../../Middlewares/AI_Runtime/Npu/ll_aton/ll_aton.c ****       ATON_DECUN_MEM_HIGH_SET(id, k, temp);
 4988              		.loc 1 1516 31 view .LVU1753
 4989 046e B5F806E0 		ldrh	lr, [r5, #6]
1514:../../Middlewares/AI_Runtime/Npu/ll_aton/ll_aton.c ****       ATON_DECUN_MEM_LOW_SET(id, k, temp);
 4990              		.loc 1 1514 30 view .LVU1754
 4991 0472 4CEA0043 		orr	r3, ip, r0, lsl #16
 4992              	.LVL569:
1515:../../Middlewares/AI_Runtime/Npu/ll_aton/ll_aton.c ****       temp = CBp[i + 2] | (CBp[i + 3] << 16);
 4993              		.loc 1 1515 7 is_stmt 1 view .LVU1755
1515:../../Middlewares/AI_Runtime/Npu/ll_aton/ll_aton.c ****       temp = CBp[i + 2] | (CBp[i + 3] << 16);
 4994              		.loc 1 1515 7 view .LVU1756
 4995 0476 0AEB0200 		add	r0, r10, r2
1516:../../Middlewares/AI_Runtime/Npu/ll_aton/ll_aton.c ****       ATON_DECUN_MEM_HIGH_SET(id, k, temp);
 4996              		.loc 1 1516 17 is_stmt 0 view .LVU1757
 4997 047a B5F804C0 		ldrh	ip, [r5, #4]
1515:../../Middlewares/AI_Runtime/Npu/ll_aton/ll_aton.c ****       temp = CBp[i + 2] | (CBp[i + 3] << 16);
 4998              		.loc 1 1515 7 view .LVU1758
ARM GAS  C:\Users\Antonio\AppData\Local\Temp\ccynTwLp.s 			page 171


 4999 047e 5844     		add	r0, r0, fp
 5000 0480 C000     		lsls	r0, r0, #3
 5001 0482 0360     		str	r3, [r0]
1515:../../Middlewares/AI_Runtime/Npu/ll_aton/ll_aton.c ****       temp = CBp[i + 2] | (CBp[i + 3] << 16);
 5002              		.loc 1 1515 7 is_stmt 1 view .LVU1759
1516:../../Middlewares/AI_Runtime/Npu/ll_aton/ll_aton.c ****       ATON_DECUN_MEM_HIGH_SET(id, k, temp);
 5003              		.loc 1 1516 7 view .LVU1760
1516:../../Middlewares/AI_Runtime/Npu/ll_aton/ll_aton.c ****       ATON_DECUN_MEM_HIGH_SET(id, k, temp);
 5004              		.loc 1 1516 25 is_stmt 0 view .LVU1761
 5005 0484 4CEA0E43 		orr	r3, ip, lr, lsl #16
 5006              	.LVL570:
1517:../../Middlewares/AI_Runtime/Npu/ll_aton/ll_aton.c ****       k++;
 5007              		.loc 1 1517 7 is_stmt 1 view .LVU1762
1517:../../Middlewares/AI_Runtime/Npu/ll_aton/ll_aton.c ****       k++;
 5008              		.loc 1 1517 7 view .LVU1763
 5009 0488 4360     		str	r3, [r0, #4]
1517:../../Middlewares/AI_Runtime/Npu/ll_aton/ll_aton.c ****       k++;
 5010              		.loc 1 1517 7 view .LVU1764
1518:../../Middlewares/AI_Runtime/Npu/ll_aton/ll_aton.c ****       temp = CBp[i + 4] | (CBp[i + 5] << 16);
 5011              		.loc 1 1518 7 view .LVU1765
 5012              	.LVL571:
1519:../../Middlewares/AI_Runtime/Npu/ll_aton/ll_aton.c ****       ATON_DECUN_MEM_LOW_SET(id, k, temp);
 5013              		.loc 1 1519 7 view .LVU1766
1519:../../Middlewares/AI_Runtime/Npu/ll_aton/ll_aton.c ****       ATON_DECUN_MEM_LOW_SET(id, k, temp);
 5014              		.loc 1 1519 17 is_stmt 0 view .LVU1767
 5015 048a B5F808C0 		ldrh	ip, [r5, #8]
1519:../../Middlewares/AI_Runtime/Npu/ll_aton/ll_aton.c ****       ATON_DECUN_MEM_LOW_SET(id, k, temp);
 5016              		.loc 1 1519 31 view .LVU1768
 5017 048e 6889     		ldrh	r0, [r5, #10]
1519:../../Middlewares/AI_Runtime/Npu/ll_aton/ll_aton.c ****       ATON_DECUN_MEM_LOW_SET(id, k, temp);
 5018              		.loc 1 1519 25 view .LVU1769
 5019 0490 4CEA0043 		orr	r3, ip, r0, lsl #16
 5020              	.LVL572:
1520:../../Middlewares/AI_Runtime/Npu/ll_aton/ll_aton.c ****       temp = CBp[i + 6];
 5021              		.loc 1 1520 7 is_stmt 1 view .LVU1770
1520:../../Middlewares/AI_Runtime/Npu/ll_aton/ll_aton.c ****       temp = CBp[i + 6];
 5022              		.loc 1 1520 7 view .LVU1771
 5023 0494 0198     		ldr	r0, [sp, #4]
 5024 0496 1044     		add	r0, r0, r2
 5025 0498 5844     		add	r0, r0, fp
 5026 049a C000     		lsls	r0, r0, #3
 5027 049c 0360     		str	r3, [r0]
1520:../../Middlewares/AI_Runtime/Npu/ll_aton/ll_aton.c ****       temp = CBp[i + 6];
 5028              		.loc 1 1520 7 view .LVU1772
1521:../../Middlewares/AI_Runtime/Npu/ll_aton/ll_aton.c ****       ATON_DECUN_MEM_HIGH_SET(id, k, temp);
 5029              		.loc 1 1521 7 view .LVU1773
1523:../../Middlewares/AI_Runtime/Npu/ll_aton/ll_aton.c ****       if (k == mem_idx_num)
 5030              		.loc 1 1523 8 is_stmt 0 view .LVU1774
 5031 049e 0232     		adds	r2, r2, #2
 5032              	.LVL573:
1521:../../Middlewares/AI_Runtime/Npu/ll_aton/ll_aton.c ****       ATON_DECUN_MEM_HIGH_SET(id, k, temp);
 5033              		.loc 1 1521 12 view .LVU1775
 5034 04a0 AB89     		ldrh	r3, [r5, #12]
 5035              	.LVL574:
1522:../../Middlewares/AI_Runtime/Npu/ll_aton/ll_aton.c ****       k++;
 5036              		.loc 1 1522 7 is_stmt 1 view .LVU1776
1522:../../Middlewares/AI_Runtime/Npu/ll_aton/ll_aton.c ****       k++;
ARM GAS  C:\Users\Antonio\AppData\Local\Temp\ccynTwLp.s 			page 172


 5037              		.loc 1 1522 7 view .LVU1777
1524:../../Middlewares/AI_Runtime/Npu/ll_aton/ll_aton.c ****       {
 5038              		.loc 1 1524 10 is_stmt 0 view .LVU1778
 5039 04a2 B2F5807F 		cmp	r2, #256
1522:../../Middlewares/AI_Runtime/Npu/ll_aton/ll_aton.c ****       k++;
 5040              		.loc 1 1522 7 view .LVU1779
 5041 04a6 4360     		str	r3, [r0, #4]
1522:../../Middlewares/AI_Runtime/Npu/ll_aton/ll_aton.c ****       k++;
 5042              		.loc 1 1522 7 is_stmt 1 view .LVU1780
1523:../../Middlewares/AI_Runtime/Npu/ll_aton/ll_aton.c ****       if (k == mem_idx_num)
 5043              		.loc 1 1523 7 view .LVU1781
 5044              	.LVL575:
1524:../../Middlewares/AI_Runtime/Npu/ll_aton/ll_aton.c ****       {
 5045              		.loc 1 1524 7 view .LVU1782
1524:../../Middlewares/AI_Runtime/Npu/ll_aton/ll_aton.c ****       {
 5046              		.loc 1 1524 10 is_stmt 0 view .LVU1783
 5047 04a8 04D1     		bne	.L344
1526:../../Middlewares/AI_Runtime/Npu/ll_aton/ll_aton.c ****         k = 0;
 5048              		.loc 1 1526 9 is_stmt 1 view .LVU1784
1526:../../Middlewares/AI_Runtime/Npu/ll_aton/ll_aton.c ****         k = 0;
 5049              		.loc 1 1526 20 is_stmt 0 view .LVU1785
 5050 04aa 2046     		mov	r0, r4
 5051 04ac FFF7FEFF 		bl	decun_inc_page_addr
 5052              	.LVL576:
1527:../../Middlewares/AI_Runtime/Npu/ll_aton/ll_aton.c ****       }
 5053              		.loc 1 1527 11 view .LVU1786
 5054 04b0 0022     		movs	r2, #0
1526:../../Middlewares/AI_Runtime/Npu/ll_aton/ll_aton.c ****         k = 0;
 5055              		.loc 1 1526 20 view .LVU1787
 5056 04b2 0146     		mov	r1, r0
 5057              	.LVL577:
1527:../../Middlewares/AI_Runtime/Npu/ll_aton/ll_aton.c ****       }
 5058              		.loc 1 1527 9 is_stmt 1 view .LVU1788
 5059              	.L344:
1527:../../Middlewares/AI_Runtime/Npu/ll_aton/ll_aton.c ****       }
 5060              		.loc 1 1527 9 is_stmt 0 view .LVU1789
 5061              	.LBE121:
1512:../../Middlewares/AI_Runtime/Npu/ll_aton/ll_aton.c ****     {
 5062              		.loc 1 1512 38 is_stmt 1 discriminator 2 view .LVU1790
 5063 04b4 0737     		adds	r7, r7, #7
 5064              	.LVL578:
1512:../../Middlewares/AI_Runtime/Npu/ll_aton/ll_aton.c ****     {
 5065              		.loc 1 1512 38 is_stmt 0 discriminator 2 view .LVU1791
 5066 04b6 0E35     		adds	r5, r5, #14
 5067 04b8 D3E7     		b	.L343
 5068              	.LVL579:
 5069              	.L339:
1512:../../Middlewares/AI_Runtime/Npu/ll_aton/ll_aton.c ****     {
 5070              		.loc 1 1512 38 discriminator 2 view .LVU1792
 5071              	.LBE119:
1531:../../Middlewares/AI_Runtime/Npu/ll_aton/ll_aton.c ****   {
 5072              		.loc 1 1531 3 is_stmt 1 view .LVU1793
1531:../../Middlewares/AI_Runtime/Npu/ll_aton/ll_aton.c ****   {
 5073              		.loc 1 1531 6 is_stmt 0 view .LVU1794
 5074 04ba 082F     		cmp	r7, #8
 5075 04bc 7FF4B8AD 		bne	.L312
 5076              	.LBB122:
ARM GAS  C:\Users\Antonio\AppData\Local\Temp\ccynTwLp.s 			page 173


1533:../../Middlewares/AI_Runtime/Npu/ll_aton/ll_aton.c ****     for (i = 0, k = 0; i < CBsize / 2; i += 2)
 5077              		.loc 1 1533 5 is_stmt 1 view .LVU1795
 5078              	.LVL580:
1534:../../Middlewares/AI_Runtime/Npu/ll_aton/ll_aton.c ****     {
 5079              		.loc 1 1534 5 view .LVU1796
1534:../../Middlewares/AI_Runtime/Npu/ll_aton/ll_aton.c ****     {
 5080              		.loc 1 1534 19 is_stmt 0 view .LVU1797
 5081 04c0 0022     		movs	r2, #0
1534:../../Middlewares/AI_Runtime/Npu/ll_aton/ll_aton.c ****     {
 5082              		.loc 1 1534 12 view .LVU1798
 5083 04c2 9146     		mov	r9, r2
 5084              	.LVL581:
1534:../../Middlewares/AI_Runtime/Npu/ll_aton/ll_aton.c ****     {
 5085              		.loc 1 1534 12 view .LVU1799
 5086 04c4 F768     		ldr	r7, [r6, #12]
 5087              	.LBB123:
1537:../../Middlewares/AI_Runtime/Npu/ll_aton/ll_aton.c ****       temp = CBp[i + 1];
 5088              		.loc 1 1537 7 view .LVU1800
 5089 04c6 DFF860B0 		ldr	fp, .L364+4
 5090              	.LBE123:
1534:../../Middlewares/AI_Runtime/Npu/ll_aton/ll_aton.c ****     {
 5091              		.loc 1 1534 35 discriminator 1 view .LVU1801
 5092 04ca AD08     		lsrs	r5, r5, #2
 5093              	.LVL582:
 5094              	.LBB124:
1537:../../Middlewares/AI_Runtime/Npu/ll_aton/ll_aton.c ****       temp = CBp[i + 1];
 5095              		.loc 1 1537 7 view .LVU1802
 5096 04cc 4FEA442A 		lsl	r10, r4, #9
 5097 04d0 0437     		adds	r7, r7, #4
 5098              	.LVL583:
 5099              	.L346:
1537:../../Middlewares/AI_Runtime/Npu/ll_aton/ll_aton.c ****       temp = CBp[i + 1];
 5100              		.loc 1 1537 7 view .LVU1803
 5101              	.LBE124:
1534:../../Middlewares/AI_Runtime/Npu/ll_aton/ll_aton.c ****     {
 5102              		.loc 1 1534 26 is_stmt 1 discriminator 1 view .LVU1804
 5103 04d2 A945     		cmp	r9, r5
 5104 04d4 BFF4ACAD 		bcs	.L312
 5105              	.LBB125:
1536:../../Middlewares/AI_Runtime/Npu/ll_aton/ll_aton.c ****       ATON_DECUN_MEM_LOW_SET(id, k, temp);
 5106              		.loc 1 1536 7 view .LVU1805
1537:../../Middlewares/AI_Runtime/Npu/ll_aton/ll_aton.c ****       temp = CBp[i + 1];
 5107              		.loc 1 1537 7 is_stmt 0 view .LVU1806
 5108 04d8 0AEB0200 		add	r0, r10, r2
1536:../../Middlewares/AI_Runtime/Npu/ll_aton/ll_aton.c ****       ATON_DECUN_MEM_LOW_SET(id, k, temp);
 5109              		.loc 1 1536 16 view .LVU1807
 5110 04dc 57F8043C 		ldr	r3, [r7, #-4]
 5111              	.LVL584:
1537:../../Middlewares/AI_Runtime/Npu/ll_aton/ll_aton.c ****       temp = CBp[i + 1];
 5112              		.loc 1 1537 7 is_stmt 1 view .LVU1808
1537:../../Middlewares/AI_Runtime/Npu/ll_aton/ll_aton.c ****       temp = CBp[i + 1];
 5113              		.loc 1 1537 7 view .LVU1809
 5114 04e0 5844     		add	r0, r0, fp
 5115 04e2 C000     		lsls	r0, r0, #3
 5116 04e4 0360     		str	r3, [r0]
1537:../../Middlewares/AI_Runtime/Npu/ll_aton/ll_aton.c ****       temp = CBp[i + 1];
 5117              		.loc 1 1537 7 view .LVU1810
ARM GAS  C:\Users\Antonio\AppData\Local\Temp\ccynTwLp.s 			page 174


1538:../../Middlewares/AI_Runtime/Npu/ll_aton/ll_aton.c ****       ATON_DECUN_MEM_HIGH_SET(id, k, temp);
 5118              		.loc 1 1538 7 view .LVU1811
1538:../../Middlewares/AI_Runtime/Npu/ll_aton/ll_aton.c ****       ATON_DECUN_MEM_HIGH_SET(id, k, temp);
 5119              		.loc 1 1538 12 is_stmt 0 view .LVU1812
 5120 04e6 3B68     		ldr	r3, [r7]
 5121              	.LVL585:
1539:../../Middlewares/AI_Runtime/Npu/ll_aton/ll_aton.c ****       k++;
 5122              		.loc 1 1539 7 is_stmt 1 view .LVU1813
1539:../../Middlewares/AI_Runtime/Npu/ll_aton/ll_aton.c ****       k++;
 5123              		.loc 1 1539 7 view .LVU1814
1540:../../Middlewares/AI_Runtime/Npu/ll_aton/ll_aton.c ****       if (k == mem_idx_num)
 5124              		.loc 1 1540 8 is_stmt 0 view .LVU1815
 5125 04e8 0132     		adds	r2, r2, #1
 5126              	.LVL586:
1541:../../Middlewares/AI_Runtime/Npu/ll_aton/ll_aton.c ****       {
 5127              		.loc 1 1541 10 view .LVU1816
 5128 04ea B2F5807F 		cmp	r2, #256
1539:../../Middlewares/AI_Runtime/Npu/ll_aton/ll_aton.c ****       k++;
 5129              		.loc 1 1539 7 view .LVU1817
 5130 04ee 4360     		str	r3, [r0, #4]
1539:../../Middlewares/AI_Runtime/Npu/ll_aton/ll_aton.c ****       k++;
 5131              		.loc 1 1539 7 is_stmt 1 view .LVU1818
1540:../../Middlewares/AI_Runtime/Npu/ll_aton/ll_aton.c ****       if (k == mem_idx_num)
 5132              		.loc 1 1540 7 view .LVU1819
 5133              	.LVL587:
1541:../../Middlewares/AI_Runtime/Npu/ll_aton/ll_aton.c ****       {
 5134              		.loc 1 1541 7 view .LVU1820
1541:../../Middlewares/AI_Runtime/Npu/ll_aton/ll_aton.c ****       {
 5135              		.loc 1 1541 10 is_stmt 0 view .LVU1821
 5136 04f0 04D1     		bne	.L347
1543:../../Middlewares/AI_Runtime/Npu/ll_aton/ll_aton.c ****         k = 0;
 5137              		.loc 1 1543 9 is_stmt 1 view .LVU1822
1543:../../Middlewares/AI_Runtime/Npu/ll_aton/ll_aton.c ****         k = 0;
 5138              		.loc 1 1543 20 is_stmt 0 view .LVU1823
 5139 04f2 2046     		mov	r0, r4
 5140 04f4 FFF7FEFF 		bl	decun_inc_page_addr
 5141              	.LVL588:
1544:../../Middlewares/AI_Runtime/Npu/ll_aton/ll_aton.c ****       }
 5142              		.loc 1 1544 11 view .LVU1824
 5143 04f8 0022     		movs	r2, #0
1543:../../Middlewares/AI_Runtime/Npu/ll_aton/ll_aton.c ****         k = 0;
 5144              		.loc 1 1543 20 view .LVU1825
 5145 04fa 0146     		mov	r1, r0
 5146              	.LVL589:
1544:../../Middlewares/AI_Runtime/Npu/ll_aton/ll_aton.c ****       }
 5147              		.loc 1 1544 9 is_stmt 1 view .LVU1826
 5148              	.L347:
1544:../../Middlewares/AI_Runtime/Npu/ll_aton/ll_aton.c ****       }
 5149              		.loc 1 1544 9 is_stmt 0 view .LVU1827
 5150              	.LBE125:
1534:../../Middlewares/AI_Runtime/Npu/ll_aton/ll_aton.c ****     {
 5151              		.loc 1 1534 42 is_stmt 1 discriminator 2 view .LVU1828
 5152 04fc 09F10209 		add	r9, r9, #2
 5153              	.LVL590:
1534:../../Middlewares/AI_Runtime/Npu/ll_aton/ll_aton.c ****     {
 5154              		.loc 1 1534 42 is_stmt 0 discriminator 2 view .LVU1829
 5155 0500 0837     		adds	r7, r7, #8
ARM GAS  C:\Users\Antonio\AppData\Local\Temp\ccynTwLp.s 			page 175


 5156 0502 E6E7     		b	.L346
 5157              	.LVL591:
 5158              	.L357:
1534:../../Middlewares/AI_Runtime/Npu/ll_aton/ll_aton.c ****     {
 5159              		.loc 1 1534 42 discriminator 2 view .LVU1830
 5160              	.LBE122:
 5161              	.LBE99:
 5162              	.LBE98:
1591:../../Middlewares/AI_Runtime/Npu/ll_aton/ll_aton.c ****   t = ATON_DECUN_DFORMAT_SET_CV8(t, conf->nFormatBytes & 0x1);
 5163              		.loc 1 1591 3 is_stmt 1 view .LVU1831
1592:../../Middlewares/AI_Runtime/Npu/ll_aton/ll_aton.c ****   ATON_DECUN_DFORMAT_SET(id, t);
 5164              		.loc 1 1592 3 view .LVU1832
1599:../../Middlewares/AI_Runtime/Npu/ll_aton/ll_aton.c **** }
 5165              		.loc 1 1599 10 is_stmt 0 view .LVU1833
 5166 0504 0020     		movs	r0, #0
1592:../../Middlewares/AI_Runtime/Npu/ll_aton/ll_aton.c ****   ATON_DECUN_DFORMAT_SET(id, t);
 5167              		.loc 1 1592 7 view .LVU1834
 5168 0506 03F00103 		and	r3, r3, #1
 5169              	.LVL592:
1593:../../Middlewares/AI_Runtime/Npu/ll_aton/ll_aton.c **** 
 5170              		.loc 1 1593 3 is_stmt 1 view .LVU1835
1593:../../Middlewares/AI_Runtime/Npu/ll_aton/ll_aton.c **** 
 5171              		.loc 1 1593 3 view .LVU1836
 5172 050a C8F80C30 		str	r3, [r8, #12]
1593:../../Middlewares/AI_Runtime/Npu/ll_aton/ll_aton.c **** 
 5173              		.loc 1 1593 3 view .LVU1837
1593:../../Middlewares/AI_Runtime/Npu/ll_aton/ll_aton.c **** 
 5174              		.loc 1 1593 32 view .LVU1838
1595:../../Middlewares/AI_Runtime/Npu/ll_aton/ll_aton.c ****   t = ATON_DECUN_FFORMAT_SET_BN(t, conf->nBatches);
 5175              		.loc 1 1595 3 view .LVU1839
 5176              	.LVL593:
1596:../../Middlewares/AI_Runtime/Npu/ll_aton/ll_aton.c ****   ATON_DECUN_FFORMAT_SET(id, t);
 5177              		.loc 1 1596 3 view .LVU1840
1596:../../Middlewares/AI_Runtime/Npu/ll_aton/ll_aton.c ****   ATON_DECUN_FFORMAT_SET(id, t);
 5178              		.loc 1 1596 7 is_stmt 0 view .LVU1841
 5179 050e F388     		ldrh	r3, [r6, #6]
 5180 0510 C3F30903 		ubfx	r3, r3, #0, #10
 5181              	.LVL594:
1597:../../Middlewares/AI_Runtime/Npu/ll_aton/ll_aton.c **** 
 5182              		.loc 1 1597 3 is_stmt 1 view .LVU1842
1597:../../Middlewares/AI_Runtime/Npu/ll_aton/ll_aton.c **** 
 5183              		.loc 1 1597 3 view .LVU1843
 5184 0514 C8F81030 		str	r3, [r8, #16]
1597:../../Middlewares/AI_Runtime/Npu/ll_aton/ll_aton.c **** 
 5185              		.loc 1 1597 3 view .LVU1844
1597:../../Middlewares/AI_Runtime/Npu/ll_aton/ll_aton.c **** 
 5186              		.loc 1 1597 32 view .LVU1845
1599:../../Middlewares/AI_Runtime/Npu/ll_aton/ll_aton.c **** }
 5187              		.loc 1 1599 3 view .LVU1846
 5188              	.LVL595:
 5189              	.L286:
1600:../../Middlewares/AI_Runtime/Npu/ll_aton/ll_aton.c **** #endif // ATON_DECUN_NUM
 5190              		.loc 1 1600 1 is_stmt 0 view .LVU1847
 5191 0518 03B0     		add	sp, sp, #12
 5192              		.cfi_remember_state
 5193              		.cfi_def_cfa_offset 36
 5194              		@ sp needed
ARM GAS  C:\Users\Antonio\AppData\Local\Temp\ccynTwLp.s 			page 176


 5195 051a BDE8F08F 		pop	{r4, r5, r6, r7, r8, r9, r10, fp, pc}
 5196              	.LVL596:
 5197              	.L349:
 5198              		.cfi_restore_state
1561:../../Middlewares/AI_Runtime/Npu/ll_aton/ll_aton.c **** 
 5199              		.loc 1 1561 12 view .LVU1848
 5200 051e 4FF0FF30 		mov	r0, #-1
 5201              	.LVL597:
1561:../../Middlewares/AI_Runtime/Npu/ll_aton/ll_aton.c **** 
 5202              		.loc 1 1561 12 view .LVU1849
 5203 0522 F9E7     		b	.L286
 5204              	.L365:
 5205              		.align	2
 5206              	.L364:
 5207 0524 01E7010B 		.word	184674049
 5208 0528 00E7010B 		.word	184674048
 5209              		.cfi_endproc
 5210              	.LFE4840:
 5212              		.section	.text.LL_Convacc_Init,"ax",%progbits
 5213              		.align	1
 5214              		.global	LL_Convacc_Init
 5215              		.syntax unified
 5216              		.thumb
 5217              		.thumb_func
 5219              	LL_Convacc_Init:
 5220              	.LVL598:
 5221              	.LFB4841:
1611:../../Middlewares/AI_Runtime/Npu/ll_aton/ll_aton.c ****   uint32_t t;
 5222              		.loc 1 1611 1 is_stmt 1 view -0
 5223              		.cfi_startproc
 5224              		@ args = 0, pretend = 0, frame = 0
 5225              		@ frame_needed = 0, uses_anonymous_args = 0
1612:../../Middlewares/AI_Runtime/Npu/ll_aton/ll_aton.c **** 
 5226              		.loc 1 1612 3 view .LVU1851
1614:../../Middlewares/AI_Runtime/Npu/ll_aton/ll_aton.c ****     return LL_ATON_INVALID_ID;
 5227              		.loc 1 1614 3 view .LVU1852
1614:../../Middlewares/AI_Runtime/Npu/ll_aton/ll_aton.c ****     return LL_ATON_INVALID_ID;
 5228              		.loc 1 1614 6 is_stmt 0 view .LVU1853
 5229 0000 0328     		cmp	r0, #3
1611:../../Middlewares/AI_Runtime/Npu/ll_aton/ll_aton.c ****   uint32_t t;
 5230              		.loc 1 1611 1 view .LVU1854
 5231 0002 2DE9F047 		push	{r4, r5, r6, r7, r8, r9, r10, lr}
 5232              		.cfi_def_cfa_offset 32
 5233              		.cfi_offset 4, -32
 5234              		.cfi_offset 5, -28
 5235              		.cfi_offset 6, -24
 5236              		.cfi_offset 7, -20
 5237              		.cfi_offset 8, -16
 5238              		.cfi_offset 9, -12
 5239              		.cfi_offset 10, -8
 5240              		.cfi_offset 14, -4
1611:../../Middlewares/AI_Runtime/Npu/ll_aton/ll_aton.c ****   uint32_t t;
 5241              		.loc 1 1611 1 view .LVU1855
 5242 0006 0646     		mov	r6, r0
 5243 0008 0C46     		mov	r4, r1
1614:../../Middlewares/AI_Runtime/Npu/ll_aton/ll_aton.c ****     return LL_ATON_INVALID_ID;
 5244              		.loc 1 1614 6 view .LVU1856
ARM GAS  C:\Users\Antonio\AppData\Local\Temp\ccynTwLp.s 			page 177


 5245 000a 00F34E81 		bgt	.L382
1617:../../Middlewares/AI_Runtime/Npu/ll_aton/ll_aton.c **** 
 5246              		.loc 1 1617 3 is_stmt 1 view .LVU1857
 5247 000e 0A30     		adds	r0, r0, #10
 5248              	.LVL599:
1617:../../Middlewares/AI_Runtime/Npu/ll_aton/ll_aton.c **** 
 5249              		.loc 1 1617 3 is_stmt 0 view .LVU1858
 5250 0010 FFF7FEFF 		bl	LL_ATON_EnableClock
 5251              	.LVL600:
1619:../../Middlewares/AI_Runtime/Npu/ll_aton/ll_aton.c ****   t = ATON_CONVACC_CTRL_SET_NOSUM(t, (conf->accumulate == 0));
 5252              		.loc 1 1619 3 is_stmt 1 view .LVU1859
1620:../../Middlewares/AI_Runtime/Npu/ll_aton/ll_aton.c ****   t = ATON_CONVACC_CTRL_SET_NO1SUM(t, (conf->accumulate_first == 0));
 5253              		.loc 1 1620 3 view .LVU1860
1621:../../Middlewares/AI_Runtime/Npu/ll_aton/ll_aton.c ****   t = ATON_CONVACC_CTRL_SET_GEN1SUM(t, (conf->accumulate_gen_first != 0));
 5254              		.loc 1 1621 3 view .LVU1861
1622:../../Middlewares/AI_Runtime/Npu/ll_aton/ll_aton.c ****   t = ATON_CONVACC_CTRL_SET_AFILTMODE(t, conf->afilt_mode);
 5255              		.loc 1 1622 3 view .LVU1862
1622:../../Middlewares/AI_Runtime/Npu/ll_aton/ll_aton.c ****   t = ATON_CONVACC_CTRL_SET_AFILTMODE(t, conf->afilt_mode);
 5256              		.loc 1 1622 7 is_stmt 0 view .LVU1863
 5257 0014 A578     		ldrb	r5, [r4, #2]	@ zero_extendqisi2
 5258              	.LVL601:
1623:../../Middlewares/AI_Runtime/Npu/ll_aton/ll_aton.c ****   t = ATON_CONVACC_CTRL_SET_SIMD(t, (conf->simd));
 5259              		.loc 1 1623 3 is_stmt 1 view .LVU1864
1624:../../Middlewares/AI_Runtime/Npu/ll_aton/ll_aton.c ****   t = ATON_CONVACC_CTRL_SET_KT1(t, (conf->kt1_mode != 0));
 5260              		.loc 1 1624 7 is_stmt 0 view .LVU1865
 5261 0016 6278     		ldrb	r2, [r4, #1]	@ zero_extendqisi2
1625:../../Middlewares/AI_Runtime/Npu/ll_aton/ll_aton.c ****   t = ATON_CONVACC_CTRL_SET_KSETEN(t, conf->kseten);
 5262              		.loc 1 1625 7 view .LVU1866
 5263 0018 05F00803 		and	r3, r5, #8
1624:../../Middlewares/AI_Runtime/Npu/ll_aton/ll_aton.c ****   t = ATON_CONVACC_CTRL_SET_KT1(t, (conf->kt1_mode != 0));
 5264              		.loc 1 1624 7 view .LVU1867
 5265 001c C2F30111 		ubfx	r1, r2, #4, #2
1628:../../Middlewares/AI_Runtime/Npu/ll_aton/ll_aton.c **** #if defined(ATON_CONVACC_CTRL_SET_FSTAT)
 5266              		.loc 1 1628 5 view .LVU1868
 5267 0020 43EA4113 		orr	r3, r3, r1, lsl #5
1626:../../Middlewares/AI_Runtime/Npu/ll_aton/ll_aton.c ****   t = ATON_CONVACC_CTRL_SET_FUNSIGNED(t, conf->f_unsigned);
 5268              		.loc 1 1626 7 view .LVU1869
 5269 0024 E178     		ldrb	r1, [r4, #3]	@ zero_extendqisi2
1623:../../Middlewares/AI_Runtime/Npu/ll_aton/ll_aton.c ****   t = ATON_CONVACC_CTRL_SET_SIMD(t, (conf->simd));
 5270              		.loc 1 1623 7 view .LVU1870
 5271 0026 94F82A00 		ldrb	r0, [r4, #42]	@ zero_extendqisi2
 5272              	.LVL602:
1624:../../Middlewares/AI_Runtime/Npu/ll_aton/ll_aton.c ****   t = ATON_CONVACC_CTRL_SET_KT1(t, (conf->kt1_mode != 0));
 5273              		.loc 1 1624 3 is_stmt 1 view .LVU1871
1625:../../Middlewares/AI_Runtime/Npu/ll_aton/ll_aton.c ****   t = ATON_CONVACC_CTRL_SET_KSETEN(t, conf->kseten);
 5274              		.loc 1 1625 3 view .LVU1872
1626:../../Middlewares/AI_Runtime/Npu/ll_aton/ll_aton.c ****   t = ATON_CONVACC_CTRL_SET_FUNSIGNED(t, conf->f_unsigned);
 5275              		.loc 1 1626 3 view .LVU1873
1627:../../Middlewares/AI_Runtime/Npu/ll_aton/ll_aton.c ****   t = ATON_CONVACC_CTRL_SET_KUNSIGNED(t, conf->k_unsigned);
 5276              		.loc 1 1627 3 view .LVU1874
1628:../../Middlewares/AI_Runtime/Npu/ll_aton/ll_aton.c **** #if defined(ATON_CONVACC_CTRL_SET_FSTAT)
 5277              		.loc 1 1628 3 view .LVU1875
1626:../../Middlewares/AI_Runtime/Npu/ll_aton/ll_aton.c ****   t = ATON_CONVACC_CTRL_SET_FUNSIGNED(t, conf->f_unsigned);
 5278              		.loc 1 1626 7 is_stmt 0 view .LVU1876
 5279 002a 01F00301 		and	r1, r1, #3
1628:../../Middlewares/AI_Runtime/Npu/ll_aton/ll_aton.c **** #if defined(ATON_CONVACC_CTRL_SET_FSTAT)
 5280              		.loc 1 1628 5 view .LVU1877
ARM GAS  C:\Users\Antonio\AppData\Local\Temp\ccynTwLp.s 			page 178


 5281 002e 43EA8153 		orr	r3, r3, r1, lsl #22
1627:../../Middlewares/AI_Runtime/Npu/ll_aton/ll_aton.c ****   t = ATON_CONVACC_CTRL_SET_KUNSIGNED(t, conf->k_unsigned);
 5282              		.loc 1 1627 7 view .LVU1878
 5283 0032 C5F38011 		ubfx	r1, r5, #6, #1
1628:../../Middlewares/AI_Runtime/Npu/ll_aton/ll_aton.c **** #if defined(ATON_CONVACC_CTRL_SET_FSTAT)
 5284              		.loc 1 1628 5 view .LVU1879
 5285 0036 43EA0153 		orr	r3, r3, r1, lsl #20
1628:../../Middlewares/AI_Runtime/Npu/ll_aton/ll_aton.c **** #if defined(ATON_CONVACC_CTRL_SET_FSTAT)
 5286              		.loc 1 1628 7 view .LVU1880
 5287 003a E909     		lsrs	r1, r5, #7
1628:../../Middlewares/AI_Runtime/Npu/ll_aton/ll_aton.c **** #if defined(ATON_CONVACC_CTRL_SET_FSTAT)
 5288              		.loc 1 1628 5 view .LVU1881
 5289 003c 43EA4153 		orr	r3, r3, r1, lsl #21
1620:../../Middlewares/AI_Runtime/Npu/ll_aton/ll_aton.c ****   t = ATON_CONVACC_CTRL_SET_NO1SUM(t, (conf->accumulate_first == 0));
 5290              		.loc 1 1620 7 view .LVU1882
 5291 0040 C2F38011 		ubfx	r1, r2, #6, #1
 5292 0044 81F00101 		eor	r1, r1, #1
 5293 0048 C9B2     		uxtb	r1, r1
1628:../../Middlewares/AI_Runtime/Npu/ll_aton/ll_aton.c **** #if defined(ATON_CONVACC_CTRL_SET_FSTAT)
 5294              		.loc 1 1628 5 view .LVU1883
 5295 004a 43EA8103 		orr	r3, r3, r1, lsl #2
1621:../../Middlewares/AI_Runtime/Npu/ll_aton/ll_aton.c ****   t = ATON_CONVACC_CTRL_SET_GEN1SUM(t, (conf->accumulate_gen_first != 0));
 5296              		.loc 1 1621 7 view .LVU1884
 5297 004e 82F08001 		eor	r1, r2, #128
 5298 0052 C909     		lsrs	r1, r1, #7
1628:../../Middlewares/AI_Runtime/Npu/ll_aton/ll_aton.c **** #if defined(ATON_CONVACC_CTRL_SET_FSTAT)
 5299              		.loc 1 1628 5 view .LVU1885
 5300 0054 43EA0113 		orr	r3, r3, r1, lsl #4
1622:../../Middlewares/AI_Runtime/Npu/ll_aton/ll_aton.c ****   t = ATON_CONVACC_CTRL_SET_AFILTMODE(t, conf->afilt_mode);
 5301              		.loc 1 1622 7 view .LVU1886
 5302 0058 A902     		lsls	r1, r5, #10
 5303 005a 01F48061 		and	r1, r1, #1024
1628:../../Middlewares/AI_Runtime/Npu/ll_aton/ll_aton.c **** #if defined(ATON_CONVACC_CTRL_SET_FSTAT)
 5304              		.loc 1 1628 5 view .LVU1887
 5305 005e 0B43     		orrs	r3, r3, r1
1623:../../Middlewares/AI_Runtime/Npu/ll_aton/ll_aton.c ****   t = ATON_CONVACC_CTRL_SET_SIMD(t, (conf->simd));
 5306              		.loc 1 1623 7 view .LVU1888
 5307 0060 0102     		lsls	r1, r0, #8
 5308 0062 01F44071 		and	r1, r1, #768
1628:../../Middlewares/AI_Runtime/Npu/ll_aton/ll_aton.c **** #if defined(ATON_CONVACC_CTRL_SET_FSTAT)
 5309              		.loc 1 1628 5 view .LVU1889
 5310 0066 0B43     		orrs	r3, r3, r1
 5311              	.LVL603:
1630:../../Middlewares/AI_Runtime/Npu/ll_aton/ll_aton.c **** #endif
 5312              		.loc 1 1630 3 is_stmt 1 view .LVU1890
1630:../../Middlewares/AI_Runtime/Npu/ll_aton/ll_aton.c **** #endif
 5313              		.loc 1 1630 7 is_stmt 0 view .LVU1891
 5314 0068 E905     		lsls	r1, r5, #23
 5315 006a 01F08071 		and	r1, r1, #16777216
1630:../../Middlewares/AI_Runtime/Npu/ll_aton/ll_aton.c **** #endif
 5316              		.loc 1 1630 5 view .LVU1892
 5317 006e 1943     		orrs	r1, r1, r3
 5318              	.LVL604:
1634:../../Middlewares/AI_Runtime/Npu/ll_aton/ll_aton.c **** #if defined(ATON_CONVACC_CTRL_SET_FSTAT)
 5319              		.loc 1 1634 3 is_stmt 1 view .LVU1893
1634:../../Middlewares/AI_Runtime/Npu/ll_aton/ll_aton.c **** #if defined(ATON_CONVACC_CTRL_SET_FSTAT)
 5320              		.loc 1 1634 7 is_stmt 0 view .LVU1894
ARM GAS  C:\Users\Antonio\AppData\Local\Temp\ccynTwLp.s 			page 179


 5321 0070 2B06     		lsls	r3, r5, #24
 5322 0072 03F08057 		and	r7, r3, #268435456
1634:../../Middlewares/AI_Runtime/Npu/ll_aton/ll_aton.c **** #if defined(ATON_CONVACC_CTRL_SET_FSTAT)
 5323              		.loc 1 1634 5 view .LVU1895
 5324 0076 3943     		orrs	r1, r1, r7
 5325              	.LVL605:
1637:../../Middlewares/AI_Runtime/Npu/ll_aton/ll_aton.c ****   {
 5326              		.loc 1 1637 3 is_stmt 1 view .LVU1896
1637:../../Middlewares/AI_Runtime/Npu/ll_aton/ll_aton.c ****   {
 5327              		.loc 1 1637 6 is_stmt 0 view .LVU1897
 5328 0078 05F01207 		and	r7, r5, #18
 5329 007c 122F     		cmp	r7, #18
 5330 007e 00F01781 		beq	.L385
1645:../../Middlewares/AI_Runtime/Npu/ll_aton/ll_aton.c **** #if defined(ATON_CONVACC_CTRL_SET_FSTAT)
 5331              		.loc 1 1645 3 is_stmt 1 view .LVU1898
1645:../../Middlewares/AI_Runtime/Npu/ll_aton/ll_aton.c **** #if defined(ATON_CONVACC_CTRL_SET_FSTAT)
 5332              		.loc 1 1645 7 is_stmt 0 view .LVU1899
 5333 0082 03F00053 		and	r3, r3, #536870912
1645:../../Middlewares/AI_Runtime/Npu/ll_aton/ll_aton.c **** #if defined(ATON_CONVACC_CTRL_SET_FSTAT)
 5334              		.loc 1 1645 5 view .LVU1900
 5335 0086 0B43     		orrs	r3, r3, r1
 5336              	.LVL606:
1648:../../Middlewares/AI_Runtime/Npu/ll_aton/ll_aton.c ****   {
 5337              		.loc 1 1648 3 is_stmt 1 view .LVU1901
1648:../../Middlewares/AI_Runtime/Npu/ll_aton/ll_aton.c ****   {
 5338              		.loc 1 1648 6 is_stmt 0 view .LVU1902
 5339 0088 05F02201 		and	r1, r5, #34
 5340 008c 2229     		cmp	r1, #34
 5341 008e 00F00F81 		beq	.L385
1657:../../Middlewares/AI_Runtime/Npu/ll_aton/ll_aton.c ****   {
 5342              		.loc 1 1657 3 is_stmt 1 view .LVU1903
1657:../../Middlewares/AI_Runtime/Npu/ll_aton/ll_aton.c ****   {
 5343              		.loc 1 1657 6 is_stmt 0 view .LVU1904
 5344 0092 05F03001 		and	r1, r5, #48
 5345 0096 3029     		cmp	r1, #48
 5346 0098 00F00A81 		beq	.L385
1663:../../Middlewares/AI_Runtime/Npu/ll_aton/ll_aton.c ****   Conv_ctrl_bits[id] = t;
 5347              		.loc 1 1663 3 is_stmt 1 view .LVU1905
1663:../../Middlewares/AI_Runtime/Npu/ll_aton/ll_aton.c ****   Conv_ctrl_bits[id] = t;
 5348              		.loc 1 1663 3 view .LVU1906
 5349 009c 06F5B021 		add	r1, r6, #360448
1664:../../Middlewares/AI_Runtime/Npu/ll_aton/ll_aton.c **** 
 5350              		.loc 1 1664 22 is_stmt 0 view .LVU1907
 5351 00a0 854F     		ldr	r7, .L408
1663:../../Middlewares/AI_Runtime/Npu/ll_aton/ll_aton.c ****   Conv_ctrl_bits[id] = t;
 5352              		.loc 1 1663 3 view .LVU1908
 5353 00a2 EF31     		adds	r1, r1, #239
 5354 00a4 0903     		lsls	r1, r1, #12
 5355 00a6 0B60     		str	r3, [r1]
1663:../../Middlewares/AI_Runtime/Npu/ll_aton/ll_aton.c ****   Conv_ctrl_bits[id] = t;
 5356              		.loc 1 1663 3 is_stmt 1 view .LVU1909
1663:../../Middlewares/AI_Runtime/Npu/ll_aton/ll_aton.c ****   Conv_ctrl_bits[id] = t;
 5357              		.loc 1 1663 31 view .LVU1910
1664:../../Middlewares/AI_Runtime/Npu/ll_aton/ll_aton.c **** 
 5358              		.loc 1 1664 3 view .LVU1911
1664:../../Middlewares/AI_Runtime/Npu/ll_aton/ll_aton.c **** 
 5359              		.loc 1 1664 22 is_stmt 0 view .LVU1912
ARM GAS  C:\Users\Antonio\AppData\Local\Temp\ccynTwLp.s 			page 180


 5360 00a8 47F82630 		str	r3, [r7, r6, lsl #2]
1666:../../Middlewares/AI_Runtime/Npu/ll_aton/ll_aton.c ****   {
 5361              		.loc 1 1666 3 is_stmt 1 view .LVU1913
1666:../../Middlewares/AI_Runtime/Npu/ll_aton/ll_aton.c ****   {
 5362              		.loc 1 1666 6 is_stmt 0 view .LVU1914
 5363 00ac 50B1     		cbz	r0, .L368
1668:../../Middlewares/AI_Runtime/Npu/ll_aton/ll_aton.c ****     t = ATON_CONVACC_AFILT_SET_TOT(t, conf->afilt_tot);
 5364              		.loc 1 1668 5 is_stmt 1 view .LVU1915
 5365              	.LVL607:
1669:../../Middlewares/AI_Runtime/Npu/ll_aton/ll_aton.c ****     t = ATON_CONVACC_AFILT_SET_FIRST(t, conf->afilt_first);
 5366              		.loc 1 1669 5 view .LVU1916
1670:../../Middlewares/AI_Runtime/Npu/ll_aton/ll_aton.c ****     t = ATON_CONVACC_AFILT_SET_LAST(t, conf->afilt_last);
 5367              		.loc 1 1670 5 view .LVU1917
1671:../../Middlewares/AI_Runtime/Npu/ll_aton/ll_aton.c ****     ATON_CONVACC_AFILT_SET(id, t);
 5368              		.loc 1 1671 5 view .LVU1918
1671:../../Middlewares/AI_Runtime/Npu/ll_aton/ll_aton.c ****     ATON_CONVACC_AFILT_SET(id, t);
 5369              		.loc 1 1671 9 is_stmt 0 view .LVU1919
 5370 00ae 94F82D30 		ldrb	r3, [r4, #45]	@ zero_extendqisi2
1670:../../Middlewares/AI_Runtime/Npu/ll_aton/ll_aton.c ****     t = ATON_CONVACC_AFILT_SET_LAST(t, conf->afilt_last);
 5371              		.loc 1 1670 9 view .LVU1920
 5372 00b2 94F82C00 		ldrb	r0, [r4, #44]	@ zero_extendqisi2
1671:../../Middlewares/AI_Runtime/Npu/ll_aton/ll_aton.c ****     ATON_CONVACC_AFILT_SET(id, t);
 5373              		.loc 1 1671 9 view .LVU1921
 5374 00b6 1B04     		lsls	r3, r3, #16
1671:../../Middlewares/AI_Runtime/Npu/ll_aton/ll_aton.c ****     ATON_CONVACC_AFILT_SET(id, t);
 5375              		.loc 1 1671 7 view .LVU1922
 5376 00b8 43EA0023 		orr	r3, r3, r0, lsl #8
1669:../../Middlewares/AI_Runtime/Npu/ll_aton/ll_aton.c ****     t = ATON_CONVACC_AFILT_SET_FIRST(t, conf->afilt_first);
 5377              		.loc 1 1669 9 view .LVU1923
 5378 00bc 94F82B00 		ldrb	r0, [r4, #43]	@ zero_extendqisi2
1671:../../Middlewares/AI_Runtime/Npu/ll_aton/ll_aton.c ****     ATON_CONVACC_AFILT_SET(id, t);
 5379              		.loc 1 1671 7 view .LVU1924
 5380 00c0 0343     		orrs	r3, r3, r0
 5381              	.LVL608:
1672:../../Middlewares/AI_Runtime/Npu/ll_aton/ll_aton.c ****   }
 5382              		.loc 1 1672 5 is_stmt 1 view .LVU1925
1672:../../Middlewares/AI_Runtime/Npu/ll_aton/ll_aton.c ****   }
 5383              		.loc 1 1672 5 view .LVU1926
 5384 00c2 4B62     		str	r3, [r1, #36]
 5385              	.L368:
1672:../../Middlewares/AI_Runtime/Npu/ll_aton/ll_aton.c ****   }
 5386              		.loc 1 1672 5 discriminator 1 view .LVU1927
1672:../../Middlewares/AI_Runtime/Npu/ll_aton/ll_aton.c ****   }
 5387              		.loc 1 1672 34 discriminator 1 view .LVU1928
1675:../../Middlewares/AI_Runtime/Npu/ll_aton/ll_aton.c ****   {
 5388              		.loc 1 1675 3 view .LVU1929
1675:../../Middlewares/AI_Runtime/Npu/ll_aton/ll_aton.c ****   {
 5389              		.loc 1 1675 11 is_stmt 0 view .LVU1930
 5390 00c4 94F82E00 		ldrb	r0, [r4, #46]	@ zero_extendqisi2
1675:../../Middlewares/AI_Runtime/Npu/ll_aton/ll_aton.c ****   {
 5391              		.loc 1 1675 6 view .LVU1931
 5392 00c8 40B1     		cbz	r0, .L369
1677:../../Middlewares/AI_Runtime/Npu/ll_aton/ll_aton.c ****     t = ATON_CONVACC_KFILT_SET_TOT(t, conf->kfilt_tot);
 5393              		.loc 1 1677 5 is_stmt 1 view .LVU1932
 5394              	.LVL609:
1678:../../Middlewares/AI_Runtime/Npu/ll_aton/ll_aton.c ****     t = ATON_CONVACC_KFILT_SET_FIRST(t, conf->kfilt_first);
 5395              		.loc 1 1678 5 view .LVU1933
ARM GAS  C:\Users\Antonio\AppData\Local\Temp\ccynTwLp.s 			page 181


1679:../../Middlewares/AI_Runtime/Npu/ll_aton/ll_aton.c ****     t = ATON_CONVACC_KFILT_SET_LAST(t, conf->kfilt_last);
 5396              		.loc 1 1679 5 view .LVU1934
1680:../../Middlewares/AI_Runtime/Npu/ll_aton/ll_aton.c ****     ATON_CONVACC_KFILT_SET(id, t);
 5397              		.loc 1 1680 5 view .LVU1935
1680:../../Middlewares/AI_Runtime/Npu/ll_aton/ll_aton.c ****     ATON_CONVACC_KFILT_SET(id, t);
 5398              		.loc 1 1680 9 is_stmt 0 view .LVU1936
 5399 00ca 94F83030 		ldrb	r3, [r4, #48]	@ zero_extendqisi2
1679:../../Middlewares/AI_Runtime/Npu/ll_aton/ll_aton.c ****     t = ATON_CONVACC_KFILT_SET_LAST(t, conf->kfilt_last);
 5400              		.loc 1 1679 9 view .LVU1937
 5401 00ce 94F82F60 		ldrb	r6, [r4, #47]	@ zero_extendqisi2
 5402              	.LVL610:
1680:../../Middlewares/AI_Runtime/Npu/ll_aton/ll_aton.c ****     ATON_CONVACC_KFILT_SET(id, t);
 5403              		.loc 1 1680 9 view .LVU1938
 5404 00d2 1B04     		lsls	r3, r3, #16
1680:../../Middlewares/AI_Runtime/Npu/ll_aton/ll_aton.c ****     ATON_CONVACC_KFILT_SET(id, t);
 5405              		.loc 1 1680 7 view .LVU1939
 5406 00d4 43EA0623 		orr	r3, r3, r6, lsl #8
 5407 00d8 0343     		orrs	r3, r3, r0
 5408              	.LVL611:
1681:../../Middlewares/AI_Runtime/Npu/ll_aton/ll_aton.c ****   }
 5409              		.loc 1 1681 5 is_stmt 1 view .LVU1940
1681:../../Middlewares/AI_Runtime/Npu/ll_aton/ll_aton.c ****   }
 5410              		.loc 1 1681 5 view .LVU1941
 5411 00da 0B62     		str	r3, [r1, #32]
 5412              	.L369:
1681:../../Middlewares/AI_Runtime/Npu/ll_aton/ll_aton.c ****   }
 5413              		.loc 1 1681 5 discriminator 1 view .LVU1942
1681:../../Middlewares/AI_Runtime/Npu/ll_aton/ll_aton.c ****   }
 5414              		.loc 1 1681 34 discriminator 1 view .LVU1943
1684:../../Middlewares/AI_Runtime/Npu/ll_aton/ll_aton.c ****   t = ATON_CONVACC_DFORMAT_SET_FROUND(t, conf->rounding_f);
 5415              		.loc 1 1684 3 view .LVU1944
 5416              	.LVL612:
1685:../../Middlewares/AI_Runtime/Npu/ll_aton/ll_aton.c ****   t = ATON_CONVACC_DFORMAT_SET_FSAT(t, conf->saturation_f);
 5417              		.loc 1 1685 3 view .LVU1945
1686:../../Middlewares/AI_Runtime/Npu/ll_aton/ll_aton.c ****   t = ATON_CONVACC_DFORMAT_SET_FRNDMODE(t, conf->round_mode_f);
 5418              		.loc 1 1686 3 view .LVU1946
1687:../../Middlewares/AI_Runtime/Npu/ll_aton/ll_aton.c ****   t = ATON_CONVACC_DFORMAT_SET_FBYTES(t, conf->inbytes_f);
 5419              		.loc 1 1687 3 view .LVU1947
1688:../../Middlewares/AI_Runtime/Npu/ll_aton/ll_aton.c ****   t = ATON_CONVACC_DFORMAT_SET_FSHIFT(t, ATON_SHIFT(conf->shift_f));
 5420              		.loc 1 1688 3 view .LVU1948
1689:../../Middlewares/AI_Runtime/Npu/ll_aton/ll_aton.c **** 
 5421              		.loc 1 1689 3 view .LVU1949
1691:../../Middlewares/AI_Runtime/Npu/ll_aton/ll_aton.c ****   t = ATON_CONVACC_DFORMAT_SET_SAT(t, conf->saturation_o);
 5422              		.loc 1 1691 3 view .LVU1950
1692:../../Middlewares/AI_Runtime/Npu/ll_aton/ll_aton.c ****   t = ATON_CONVACC_DFORMAT_SET_ORNDMODE(t, (conf->relu_mode_o << 1) | conf->round_mode_o);
 5423              		.loc 1 1692 3 view .LVU1951
1693:../../Middlewares/AI_Runtime/Npu/ll_aton/ll_aton.c ****   t = ATON_CONVACC_DFORMAT_SET_OBYTES(t, conf->outbytes_o);
 5424              		.loc 1 1693 3 view .LVU1952
1694:../../Middlewares/AI_Runtime/Npu/ll_aton/ll_aton.c ****   t = ATON_CONVACC_DFORMAT_SET_OUTSHIFT(t, conf->shift_o); // shift right only
 5425              		.loc 1 1694 3 view .LVU1953
1689:../../Middlewares/AI_Runtime/Npu/ll_aton/ll_aton.c **** 
 5426              		.loc 1 1689 7 is_stmt 0 view .LVU1954
 5427 00dc 2379     		ldrb	r3, [r4, #4]	@ zero_extendqisi2
 5428              	.LVL613:
1691:../../Middlewares/AI_Runtime/Npu/ll_aton/ll_aton.c ****   t = ATON_CONVACC_DFORMAT_SET_SAT(t, conf->saturation_o);
 5429              		.loc 1 1691 7 view .LVU1955
 5430 00de 2678     		ldrb	r6, [r4]	@ zero_extendqisi2
ARM GAS  C:\Users\Antonio\AppData\Local\Temp\ccynTwLp.s 			page 182


1689:../../Middlewares/AI_Runtime/Npu/ll_aton/ll_aton.c **** 
 5431              		.loc 1 1689 7 view .LVU1956
 5432 00e0 1033     		adds	r3, r3, #16
 5433              	.LVL614:
1692:../../Middlewares/AI_Runtime/Npu/ll_aton/ll_aton.c ****   t = ATON_CONVACC_DFORMAT_SET_ORNDMODE(t, (conf->relu_mode_o << 1) | conf->round_mode_o);
 5434              		.loc 1 1692 7 view .LVU1957
 5435 00e2 B002     		lsls	r0, r6, #10
1689:../../Middlewares/AI_Runtime/Npu/ll_aton/ll_aton.c **** 
 5436              		.loc 1 1689 7 view .LVU1958
 5437 00e4 1B06     		lsls	r3, r3, #24
 5438              	.LVL615:
1689:../../Middlewares/AI_Runtime/Npu/ll_aton/ll_aton.c **** 
 5439              		.loc 1 1689 7 view .LVU1959
 5440 00e6 03F07C53 		and	r3, r3, #1056964608
1693:../../Middlewares/AI_Runtime/Npu/ll_aton/ll_aton.c ****   t = ATON_CONVACC_DFORMAT_SET_OBYTES(t, conf->outbytes_o);
 5441              		.loc 1 1693 5 view .LVU1960
 5442 00ea 00F44030 		and	r0, r0, #196608
 5443 00ee 1843     		orrs	r0, r0, r3
1693:../../Middlewares/AI_Runtime/Npu/ll_aton/ll_aton.c ****   t = ATON_CONVACC_DFORMAT_SET_OBYTES(t, conf->outbytes_o);
 5444              		.loc 1 1693 7 view .LVU1961
 5445 00f0 02F00303 		and	r3, r2, #3
1693:../../Middlewares/AI_Runtime/Npu/ll_aton/ll_aton.c ****   t = ATON_CONVACC_DFORMAT_SET_OBYTES(t, conf->outbytes_o);
 5446              		.loc 1 1693 5 view .LVU1962
 5447 00f4 40EA8330 		orr	r0, r0, r3, lsl #14
1688:../../Middlewares/AI_Runtime/Npu/ll_aton/ll_aton.c ****   t = ATON_CONVACC_DFORMAT_SET_FSHIFT(t, ATON_SHIFT(conf->shift_f));
 5448              		.loc 1 1688 7 view .LVU1963
 5449 00f8 C6F30113 		ubfx	r3, r6, #4, #2
1685:../../Middlewares/AI_Runtime/Npu/ll_aton/ll_aton.c ****   t = ATON_CONVACC_DFORMAT_SET_FSAT(t, conf->saturation_f);
 5450              		.loc 1 1685 7 view .LVU1964
 5451 00fc 06F00107 		and	r7, r6, #1
1688:../../Middlewares/AI_Runtime/Npu/ll_aton/ll_aton.c ****   t = ATON_CONVACC_DFORMAT_SET_FSHIFT(t, ATON_SHIFT(conf->shift_f));
 5452              		.loc 1 1688 7 view .LVU1965
 5453 0100 9B05     		lsls	r3, r3, #22
1689:../../Middlewares/AI_Runtime/Npu/ll_aton/ll_aton.c **** 
 5454              		.loc 1 1689 7 view .LVU1966
 5455 0102 43EA8773 		orr	r3, r3, r7, lsl #30
1686:../../Middlewares/AI_Runtime/Npu/ll_aton/ll_aton.c ****   t = ATON_CONVACC_DFORMAT_SET_FRNDMODE(t, conf->round_mode_f);
 5456              		.loc 1 1686 7 view .LVU1967
 5457 0106 C6F34007 		ubfx	r7, r6, #1, #1
1689:../../Middlewares/AI_Runtime/Npu/ll_aton/ll_aton.c **** 
 5458              		.loc 1 1689 7 view .LVU1968
 5459 010a 43EAC773 		orr	r3, r3, r7, lsl #31
1687:../../Middlewares/AI_Runtime/Npu/ll_aton/ll_aton.c ****   t = ATON_CONVACC_DFORMAT_SET_FBYTES(t, conf->inbytes_f);
 5460              		.loc 1 1687 7 view .LVU1969
 5461 010e C6F38106 		ubfx	r6, r6, #2, #2
1689:../../Middlewares/AI_Runtime/Npu/ll_aton/ll_aton.c **** 
 5462              		.loc 1 1689 7 view .LVU1970
 5463 0112 43EA8613 		orr	r3, r3, r6, lsl #6
1693:../../Middlewares/AI_Runtime/Npu/ll_aton/ll_aton.c ****   t = ATON_CONVACC_DFORMAT_SET_OBYTES(t, conf->outbytes_o);
 5464              		.loc 1 1693 5 view .LVU1971
 5465 0116 0343     		orrs	r3, r3, r0
 5466              	.LVL616:
1695:../../Middlewares/AI_Runtime/Npu/ll_aton/ll_aton.c ****   t = ATON_CONVACC_DFORMAT_SET_RAW(t, conf->raw_o);
 5467              		.loc 1 1695 3 is_stmt 1 view .LVU1972
1694:../../Middlewares/AI_Runtime/Npu/ll_aton/ll_aton.c ****   t = ATON_CONVACC_DFORMAT_SET_OUTSHIFT(t, conf->shift_o); // shift right only
 5468              		.loc 1 1694 7 is_stmt 0 view .LVU1973
 5469 0118 C2F38102 		ubfx	r2, r2, #2, #2
ARM GAS  C:\Users\Antonio\AppData\Local\Temp\ccynTwLp.s 			page 183


1694:../../Middlewares/AI_Runtime/Npu/ll_aton/ll_aton.c ****   t = ATON_CONVACC_DFORMAT_SET_OUTSHIFT(t, conf->shift_o); // shift right only
 5470              		.loc 1 1694 5 view .LVU1974
 5471 011c 43EA0253 		orr	r3, r3, r2, lsl #20
 5472              	.LVL617:
1696:../../Middlewares/AI_Runtime/Npu/ll_aton/ll_aton.c **** 
 5473              		.loc 1 1696 3 is_stmt 1 view .LVU1975
1698:../../Middlewares/AI_Runtime/Npu/ll_aton/ll_aton.c ****   ATON_CONVACC_DFORMAT_SET(id, t);
 5474              		.loc 1 1698 3 view .LVU1976
1695:../../Middlewares/AI_Runtime/Npu/ll_aton/ll_aton.c ****   t = ATON_CONVACC_DFORMAT_SET_RAW(t, conf->raw_o);
 5475              		.loc 1 1695 7 is_stmt 0 view .LVU1977
 5476 0120 A279     		ldrb	r2, [r4, #6]	@ zero_extendqisi2
 5477              	.LVL618:
1696:../../Middlewares/AI_Runtime/Npu/ll_aton/ll_aton.c **** 
 5478              		.loc 1 1696 7 view .LVU1978
 5479 0122 C5F38000 		ubfx	r0, r5, #2, #1
1695:../../Middlewares/AI_Runtime/Npu/ll_aton/ll_aton.c ****   t = ATON_CONVACC_DFORMAT_SET_RAW(t, conf->raw_o);
 5480              		.loc 1 1695 7 view .LVU1979
 5481 0126 1202     		lsls	r2, r2, #8
 5482              	.LVL619:
1695:../../Middlewares/AI_Runtime/Npu/ll_aton/ll_aton.c ****   t = ATON_CONVACC_DFORMAT_SET_RAW(t, conf->raw_o);
 5483              		.loc 1 1695 7 view .LVU1980
 5484 0128 02F47C52 		and	r2, r2, #16128
1696:../../Middlewares/AI_Runtime/Npu/ll_aton/ll_aton.c **** 
 5485              		.loc 1 1696 5 view .LVU1981
 5486 012c 42EA8042 		orr	r2, r2, r0, lsl #18
1698:../../Middlewares/AI_Runtime/Npu/ll_aton/ll_aton.c ****   ATON_CONVACC_DFORMAT_SET(id, t);
 5487              		.loc 1 1698 7 view .LVU1982
 5488 0130 1343     		orrs	r3, r3, r2
 5489              	.LVL620:
1698:../../Middlewares/AI_Runtime/Npu/ll_aton/ll_aton.c ****   ATON_CONVACC_DFORMAT_SET(id, t);
 5490              		.loc 1 1698 7 view .LVU1983
 5491 0132 6279     		ldrb	r2, [r4, #5]	@ zero_extendqisi2
1702:../../Middlewares/AI_Runtime/Npu/ll_aton/ll_aton.c ****   t = ATON_CONVACC_FFORMAT_SET_HEIGHT(t, conf->fHeight);
 5492              		.loc 1 1702 7 view .LVU1984
 5493 0134 A08A     		ldrh	r0, [r4, #20]
1698:../../Middlewares/AI_Runtime/Npu/ll_aton/ll_aton.c ****   ATON_CONVACC_DFORMAT_SET(id, t);
 5494              		.loc 1 1698 7 view .LVU1985
 5495 0136 02F03F02 		and	r2, r2, #63
1698:../../Middlewares/AI_Runtime/Npu/ll_aton/ll_aton.c ****   ATON_CONVACC_DFORMAT_SET(id, t);
 5496              		.loc 1 1698 5 view .LVU1986
 5497 013a 1343     		orrs	r3, r3, r2
 5498              	.LVL621:
1699:../../Middlewares/AI_Runtime/Npu/ll_aton/ll_aton.c **** 
 5499              		.loc 1 1699 3 is_stmt 1 view .LVU1987
1699:../../Middlewares/AI_Runtime/Npu/ll_aton/ll_aton.c **** 
 5500              		.loc 1 1699 3 view .LVU1988
 5501 013c 0B61     		str	r3, [r1, #16]
1699:../../Middlewares/AI_Runtime/Npu/ll_aton/ll_aton.c **** 
 5502              		.loc 1 1699 3 view .LVU1989
1699:../../Middlewares/AI_Runtime/Npu/ll_aton/ll_aton.c **** 
 5503              		.loc 1 1699 34 view .LVU1990
1701:../../Middlewares/AI_Runtime/Npu/ll_aton/ll_aton.c ****   t = ATON_CONVACC_FFORMAT_SET_WIDTH(t, conf->fWidth * conf->batchDepth);
 5504              		.loc 1 1701 3 view .LVU1991
 5505              	.LVL622:
1702:../../Middlewares/AI_Runtime/Npu/ll_aton/ll_aton.c ****   t = ATON_CONVACC_FFORMAT_SET_HEIGHT(t, conf->fHeight);
 5506              		.loc 1 1702 3 view .LVU1992
1703:../../Middlewares/AI_Runtime/Npu/ll_aton/ll_aton.c ****   ATON_CONVACC_FFORMAT_SET(id, t);
ARM GAS  C:\Users\Antonio\AppData\Local\Temp\ccynTwLp.s 			page 184


 5507              		.loc 1 1703 3 view .LVU1993
1702:../../Middlewares/AI_Runtime/Npu/ll_aton/ll_aton.c ****   t = ATON_CONVACC_FFORMAT_SET_HEIGHT(t, conf->fHeight);
 5508              		.loc 1 1702 7 is_stmt 0 view .LVU1994
 5509 013e A368     		ldr	r3, [r4, #8]
1703:../../Middlewares/AI_Runtime/Npu/ll_aton/ll_aton.c ****   ATON_CONVACC_FFORMAT_SET(id, t);
 5510              		.loc 1 1703 7 view .LVU1995
 5511 0140 E268     		ldr	r2, [r4, #12]
1702:../../Middlewares/AI_Runtime/Npu/ll_aton/ll_aton.c ****   t = ATON_CONVACC_FFORMAT_SET_HEIGHT(t, conf->fHeight);
 5512              		.loc 1 1702 7 view .LVU1996
 5513 0142 4343     		muls	r3, r0, r3
 5514 0144 9BB2     		uxth	r3, r3
1703:../../Middlewares/AI_Runtime/Npu/ll_aton/ll_aton.c ****   ATON_CONVACC_FFORMAT_SET(id, t);
 5515              		.loc 1 1703 5 view .LVU1997
 5516 0146 43EA0243 		orr	r3, r3, r2, lsl #16
 5517              	.LVL623:
1704:../../Middlewares/AI_Runtime/Npu/ll_aton/ll_aton.c **** 
 5518              		.loc 1 1704 3 is_stmt 1 view .LVU1998
1704:../../Middlewares/AI_Runtime/Npu/ll_aton/ll_aton.c **** 
 5519              		.loc 1 1704 3 view .LVU1999
 5520 014a 4B61     		str	r3, [r1, #20]
1704:../../Middlewares/AI_Runtime/Npu/ll_aton/ll_aton.c **** 
 5521              		.loc 1 1704 3 view .LVU2000
1704:../../Middlewares/AI_Runtime/Npu/ll_aton/ll_aton.c **** 
 5522              		.loc 1 1704 34 view .LVU2001
1706:../../Middlewares/AI_Runtime/Npu/ll_aton/ll_aton.c ****   t = ATON_CONVACC_KFORMAT_SET_WIDTH(t, conf->kernelWidth);
 5523              		.loc 1 1706 3 view .LVU2002
 5524              	.LVL624:
1707:../../Middlewares/AI_Runtime/Npu/ll_aton/ll_aton.c ****   t = ATON_CONVACC_KFORMAT_SET_HEIGHT(t, conf->kernelHeight);
 5525              		.loc 1 1707 3 view .LVU2003
1710:../../Middlewares/AI_Runtime/Npu/ll_aton/ll_aton.c ****   ATON_CONVACC_KFORMAT_SET(id, t);
 5526              		.loc 1 1710 5 is_stmt 0 view .LVU2004
 5527 014c 278A     		ldrh	r7, [r4, #16]
1709:../../Middlewares/AI_Runtime/Npu/ll_aton/ll_aton.c ****   t = ATON_CONVACC_KFORMAT_SET_NR(t, conf->nKernels);
 5528              		.loc 1 1709 7 view .LVU2005
 5529 014e 0304     		lsls	r3, r0, #16
 5530 0150 03F47F03 		and	r3, r3, #16711680
1708:../../Middlewares/AI_Runtime/Npu/ll_aton/ll_aton.c ****   t = ATON_CONVACC_KFORMAT_SET_BTCDEPTH(t, conf->batchDepth);
 5531              		.loc 1 1708 7 view .LVU2006
 5532 0154 627C     		ldrb	r2, [r4, #17]	@ zero_extendqisi2
1717:../../Middlewares/AI_Runtime/Npu/ll_aton/ll_aton.c ****   int p_bot = (conf->bot_padding < conf->kernelHeight ? conf->bot_padding : conf->kernelHeight - 1)
 5533              		.loc 1 1717 20 view .LVU2007
 5534 0156 B4F81C80 		ldrh	r8, [r4, #28]
1710:../../Middlewares/AI_Runtime/Npu/ll_aton/ll_aton.c ****   ATON_CONVACC_KFORMAT_SET(id, t);
 5535              		.loc 1 1710 5 view .LVU2008
 5536 015a 3B43     		orrs	r3, r3, r7
1710:../../Middlewares/AI_Runtime/Npu/ll_aton/ll_aton.c ****   ATON_CONVACC_KFORMAT_SET(id, t);
 5537              		.loc 1 1710 7 view .LVU2009
 5538 015c A77C     		ldrb	r7, [r4, #18]	@ zero_extendqisi2
1718:../../Middlewares/AI_Runtime/Npu/ll_aton/ll_aton.c ****   int p_left = (conf->left_padding < conf->kernelWidth ? conf->left_padding : conf->kernelWidth - 1
 5539              		.loc 1 1718 20 view .LVU2010
 5540 015e B4F81EA0 		ldrh	r10, [r4, #30]
1707:../../Middlewares/AI_Runtime/Npu/ll_aton/ll_aton.c ****   t = ATON_CONVACC_KFORMAT_SET_HEIGHT(t, conf->kernelHeight);
 5541              		.loc 1 1707 7 view .LVU2011
 5542 0162 267C     		ldrb	r6, [r4, #16]	@ zero_extendqisi2
 5543              	.LVL625:
1708:../../Middlewares/AI_Runtime/Npu/ll_aton/ll_aton.c ****   t = ATON_CONVACC_KFORMAT_SET_BTCDEPTH(t, conf->batchDepth);
 5544              		.loc 1 1708 3 is_stmt 1 view .LVU2012
ARM GAS  C:\Users\Antonio\AppData\Local\Temp\ccynTwLp.s 			page 185


1709:../../Middlewares/AI_Runtime/Npu/ll_aton/ll_aton.c ****   t = ATON_CONVACC_KFORMAT_SET_NR(t, conf->nKernels);
 5545              		.loc 1 1709 3 view .LVU2013
1710:../../Middlewares/AI_Runtime/Npu/ll_aton/ll_aton.c ****   ATON_CONVACC_KFORMAT_SET(id, t);
 5546              		.loc 1 1710 3 view .LVU2014
1717:../../Middlewares/AI_Runtime/Npu/ll_aton/ll_aton.c ****   int p_bot = (conf->bot_padding < conf->kernelHeight ? conf->bot_padding : conf->kernelHeight - 1)
 5547              		.loc 1 1717 75 is_stmt 0 discriminator 2 view .LVU2015
 5548 0164 9045     		cmp	r8, r2
1710:../../Middlewares/AI_Runtime/Npu/ll_aton/ll_aton.c ****   ATON_CONVACC_KFORMAT_SET(id, t);
 5549              		.loc 1 1710 5 view .LVU2016
 5550 0166 43EA0763 		orr	r3, r3, r7, lsl #24
 5551              	.LVL626:
1711:../../Middlewares/AI_Runtime/Npu/ll_aton/ll_aton.c **** 
 5552              		.loc 1 1711 3 is_stmt 1 view .LVU2017
1711:../../Middlewares/AI_Runtime/Npu/ll_aton/ll_aton.c **** 
 5553              		.loc 1 1711 3 view .LVU2018
1719:../../Middlewares/AI_Runtime/Npu/ll_aton/ll_aton.c ****   int p_right = (conf->right_padding < conf->kernelWidth ? conf->right_padding : conf->kernelWidth 
 5554              		.loc 1 1719 21 is_stmt 0 view .LVU2019
 5555 016a B4F81890 		ldrh	r9, [r4, #24]
1717:../../Middlewares/AI_Runtime/Npu/ll_aton/ll_aton.c ****   int p_bot = (conf->bot_padding < conf->kernelHeight ? conf->bot_padding : conf->kernelHeight - 1)
 5556              		.loc 1 1717 75 discriminator 2 view .LVU2020
 5557 016e 02F1FF37 		add	r7, r2, #-1
 5558 0172 2CBF     		ite	cs
 5559 0174 BC46     		movcs	ip, r7
 5560 0176 C446     		movcc	ip, r8
1718:../../Middlewares/AI_Runtime/Npu/ll_aton/ll_aton.c ****   int p_left = (conf->left_padding < conf->kernelWidth ? conf->left_padding : conf->kernelWidth - 1
 5561              		.loc 1 1718 75 discriminator 2 view .LVU2021
 5562 0178 5245     		cmp	r2, r10
1720:../../Middlewares/AI_Runtime/Npu/ll_aton/ll_aton.c **** 
 5563              		.loc 1 1720 22 view .LVU2022
 5564 017a 628B     		ldrh	r2, [r4, #26]
1718:../../Middlewares/AI_Runtime/Npu/ll_aton/ll_aton.c ****   int p_left = (conf->left_padding < conf->kernelWidth ? conf->left_padding : conf->kernelWidth - 1
 5565              		.loc 1 1718 75 discriminator 2 view .LVU2023
 5566 017c 88BF     		it	hi
 5567 017e 5746     		movhi	r7, r10
1711:../../Middlewares/AI_Runtime/Npu/ll_aton/ll_aton.c **** 
 5568              		.loc 1 1711 3 view .LVU2024
 5569 0180 8B60     		str	r3, [r1, #8]
1711:../../Middlewares/AI_Runtime/Npu/ll_aton/ll_aton.c **** 
 5570              		.loc 1 1711 3 is_stmt 1 view .LVU2025
1711:../../Middlewares/AI_Runtime/Npu/ll_aton/ll_aton.c **** 
 5571              		.loc 1 1711 34 view .LVU2026
1717:../../Middlewares/AI_Runtime/Npu/ll_aton/ll_aton.c ****   int p_bot = (conf->bot_padding < conf->kernelHeight ? conf->bot_padding : conf->kernelHeight - 1)
 5572              		.loc 1 1717 3 view .LVU2027
 5573              	.LVL627:
1718:../../Middlewares/AI_Runtime/Npu/ll_aton/ll_aton.c ****   int p_left = (conf->left_padding < conf->kernelWidth ? conf->left_padding : conf->kernelWidth - 1
 5574              		.loc 1 1718 3 view .LVU2028
1719:../../Middlewares/AI_Runtime/Npu/ll_aton/ll_aton.c ****   int p_right = (conf->right_padding < conf->kernelWidth ? conf->right_padding : conf->kernelWidth 
 5575              		.loc 1 1719 3 view .LVU2029
1719:../../Middlewares/AI_Runtime/Npu/ll_aton/ll_aton.c ****   int p_right = (conf->right_padding < conf->kernelWidth ? conf->right_padding : conf->kernelWidth 
 5576              		.loc 1 1719 77 is_stmt 0 discriminator 2 view .LVU2030
 5577 0182 B145     		cmp	r9, r6
 5578 0184 06F1FF33 		add	r3, r6, #-1
 5579              	.LVL628:
1719:../../Middlewares/AI_Runtime/Npu/ll_aton/ll_aton.c ****   int p_right = (conf->right_padding < conf->kernelWidth ? conf->right_padding : conf->kernelWidth 
 5580              		.loc 1 1719 77 discriminator 2 view .LVU2031
 5581 0188 2CBF     		ite	cs
 5582 018a 9E46     		movcs	lr, r3
ARM GAS  C:\Users\Antonio\AppData\Local\Temp\ccynTwLp.s 			page 186


 5583 018c CE46     		movcc	lr, r9
 5584              	.LVL629:
1720:../../Middlewares/AI_Runtime/Npu/ll_aton/ll_aton.c **** 
 5585              		.loc 1 1720 3 is_stmt 1 view .LVU2032
1720:../../Middlewares/AI_Runtime/Npu/ll_aton/ll_aton.c **** 
 5586              		.loc 1 1720 80 is_stmt 0 discriminator 2 view .LVU2033
 5587 018e 9642     		cmp	r6, r2
 5588 0190 88BF     		it	hi
 5589 0192 1346     		movhi	r3, r2
 5590              	.LVL630:
1722:../../Middlewares/AI_Runtime/Npu/ll_aton/ll_aton.c ****   p_bot = (p_bot <= 2 ? p_bot : 2);
 5591              		.loc 1 1722 3 is_stmt 1 view .LVU2034
1723:../../Middlewares/AI_Runtime/Npu/ll_aton/ll_aton.c ****   p_left = (p_left <= 2 ? p_left : 2);
 5592              		.loc 1 1723 3 view .LVU2035
1724:../../Middlewares/AI_Runtime/Npu/ll_aton/ll_aton.c ****   p_right = (p_right <= 2 ? p_right : 2);
 5593              		.loc 1 1724 3 view .LVU2036
1725:../../Middlewares/AI_Runtime/Npu/ll_aton/ll_aton.c ****   // LL_ATON_PRINTF("p_t=%d p_b=%d p_l=%d p_r=%d\n",p_top,p_bot,p_left,p_right);
 5594              		.loc 1 1725 3 view .LVU2037
1731:../../Middlewares/AI_Runtime/Npu/ll_aton/ll_aton.c ****     p_top = p_bot = p_left = p_right = 0;
 5595              		.loc 1 1731 3 view .LVU2038
1731:../../Middlewares/AI_Runtime/Npu/ll_aton/ll_aton.c ****     p_top = p_bot = p_left = p_right = 0;
 5596              		.loc 1 1731 6 is_stmt 0 view .LVU2039
 5597 0194 EE06     		lsls	r6, r5, #27
 5598 0196 00F18380 		bmi	.L390
1722:../../Middlewares/AI_Runtime/Npu/ll_aton/ll_aton.c ****   p_bot = (p_bot <= 2 ? p_bot : 2);
 5599              		.loc 1 1722 9 view .LVU2040
 5600 019a BCF1020F 		cmp	ip, #2
 5601 019e A8BF     		it	ge
 5602 01a0 4FF0020C 		movge	ip, #2
 5603              	.LVL631:
1723:../../Middlewares/AI_Runtime/Npu/ll_aton/ll_aton.c ****   p_left = (p_left <= 2 ? p_left : 2);
 5604              		.loc 1 1723 9 view .LVU2041
 5605 01a4 022F     		cmp	r7, #2
 5606 01a6 A8BF     		it	ge
 5607 01a8 0227     		movge	r7, #2
 5608              	.LVL632:
1724:../../Middlewares/AI_Runtime/Npu/ll_aton/ll_aton.c ****   p_right = (p_right <= 2 ? p_right : 2);
 5609              		.loc 1 1724 10 view .LVU2042
 5610 01aa BEF1020F 		cmp	lr, #2
 5611 01ae A8BF     		it	ge
 5612 01b0 4FF0020E 		movge	lr, #2
 5613              	.LVL633:
1725:../../Middlewares/AI_Runtime/Npu/ll_aton/ll_aton.c ****   // LL_ATON_PRINTF("p_t=%d p_b=%d p_l=%d p_r=%d\n",p_top,p_bot,p_left,p_right);
 5614              		.loc 1 1725 11 view .LVU2043
 5615 01b4 022B     		cmp	r3, #2
 5616 01b6 A8BF     		it	ge
 5617 01b8 0223     		movge	r3, #2
 5618              	.LVL634:
 5619              	.L374:
1737:../../Middlewares/AI_Runtime/Npu/ll_aton/ll_aton.c ****     p_top = p_bot = p_left = p_right = 0;
 5620              		.loc 1 1737 3 is_stmt 1 view .LVU2044
1737:../../Middlewares/AI_Runtime/Npu/ll_aton/ll_aton.c ****     p_top = p_bot = p_left = p_right = 0;
 5621              		.loc 1 1737 6 is_stmt 0 view .LVU2045
 5622 01ba AE06     		lsls	r6, r5, #26
1738:../../Middlewares/AI_Runtime/Npu/ll_aton/ll_aton.c **** #endif
 5623              		.loc 1 1738 38 view .LVU2046
 5624 01bc 48BF     		it	mi
ARM GAS  C:\Users\Antonio\AppData\Local\Temp\ccynTwLp.s 			page 187


 5625 01be 0023     		movmi	r3, #0
 5626              	.LVL635:
1743:../../Middlewares/AI_Runtime/Npu/ll_aton/ll_aton.c ****     p_top = p_bot = p_left = p_right = 0;
 5627              		.loc 1 1743 11 view .LVU2047
 5628 01c0 B4F93860 		ldrsh	r6, [r4, #56]
1738:../../Middlewares/AI_Runtime/Npu/ll_aton/ll_aton.c **** #endif
 5629              		.loc 1 1738 28 view .LVU2048
 5630 01c4 42BF     		ittt	mi
 5631 01c6 9E46     		movmi	lr, r3
 5632              	.LVL636:
1738:../../Middlewares/AI_Runtime/Npu/ll_aton/ll_aton.c **** #endif
 5633              		.loc 1 1738 19 view .LVU2049
 5634 01c8 1F46     		movmi	r7, r3
 5635              	.LVL637:
1738:../../Middlewares/AI_Runtime/Npu/ll_aton/ll_aton.c **** #endif
 5636              		.loc 1 1738 11 view .LVU2050
 5637 01ca 9C46     		movmi	ip, r3
 5638              	.LVL638:
1743:../../Middlewares/AI_Runtime/Npu/ll_aton/ll_aton.c ****     p_top = p_bot = p_left = p_right = 0;
 5639              		.loc 1 1743 3 is_stmt 1 view .LVU2051
1743:../../Middlewares/AI_Runtime/Npu/ll_aton/ll_aton.c ****     p_top = p_bot = p_left = p_right = 0;
 5640              		.loc 1 1743 6 is_stmt 0 view .LVU2052
 5641 01cc 1EB1     		cbz	r6, .L376
1744:../../Middlewares/AI_Runtime/Npu/ll_aton/ll_aton.c **** #endif
 5642              		.loc 1 1744 38 view .LVU2053
 5643 01ce 0023     		movs	r3, #0
 5644              	.LVL639:
1744:../../Middlewares/AI_Runtime/Npu/ll_aton/ll_aton.c **** #endif
 5645              		.loc 1 1744 28 view .LVU2054
 5646 01d0 9E46     		mov	lr, r3
 5647              	.LVL640:
1744:../../Middlewares/AI_Runtime/Npu/ll_aton/ll_aton.c **** #endif
 5648              		.loc 1 1744 19 view .LVU2055
 5649 01d2 1F46     		mov	r7, r3
 5650              	.LVL641:
1744:../../Middlewares/AI_Runtime/Npu/ll_aton/ll_aton.c **** #endif
 5651              		.loc 1 1744 11 view .LVU2056
 5652 01d4 9C46     		mov	ip, r3
 5653              	.LVL642:
 5654              	.L376:
1747:../../Middlewares/AI_Runtime/Npu/ll_aton/ll_aton.c ****   int z_bot = (conf->bot_padding - p_bot);
 5655              		.loc 1 1747 3 is_stmt 1 view .LVU2057
1748:../../Middlewares/AI_Runtime/Npu/ll_aton/ll_aton.c ****   int z_left = (conf->left_padding - p_left);
 5656              		.loc 1 1748 3 view .LVU2058
1749:../../Middlewares/AI_Runtime/Npu/ll_aton/ll_aton.c ****   int z_right = (conf->right_padding - p_right);
 5657              		.loc 1 1749 3 view .LVU2059
1750:../../Middlewares/AI_Runtime/Npu/ll_aton/ll_aton.c ****   // LL_ATON_PRINTF("z_t=%d z_b=%d z_l=%d z_r=%d\n",z_top,z_bot,z_left*conf->batchDepth,z_right*con
 5658              		.loc 1 1750 3 view .LVU2060
1753:../../Middlewares/AI_Runtime/Npu/ll_aton/ll_aton.c ****   t = ATON_CONVACC_ZFRAME_SET_TOP(t, z_top);
 5659              		.loc 1 1753 3 view .LVU2061
1754:../../Middlewares/AI_Runtime/Npu/ll_aton/ll_aton.c ****   t = ATON_CONVACC_ZFRAME_SET_BOTTOM(t, z_bot);
 5660              		.loc 1 1754 3 view .LVU2062
1755:../../Middlewares/AI_Runtime/Npu/ll_aton/ll_aton.c ****   t = ATON_CONVACC_ZFRAME_SET_LEFT(t, z_left * conf->batchDepth);
 5661              		.loc 1 1755 3 view .LVU2063
1756:../../Middlewares/AI_Runtime/Npu/ll_aton/ll_aton.c ****   t = ATON_CONVACC_ZFRAME_SET_RIGHT(t, z_right * conf->batchDepth);
 5662              		.loc 1 1756 3 view .LVU2064
1749:../../Middlewares/AI_Runtime/Npu/ll_aton/ll_aton.c ****   int z_right = (conf->right_padding - p_right);
ARM GAS  C:\Users\Antonio\AppData\Local\Temp\ccynTwLp.s 			page 188


 5663              		.loc 1 1749 7 is_stmt 0 view .LVU2065
 5664 01d6 A9EB0E09 		sub	r9, r9, lr
 5665              	.LVL643:
1756:../../Middlewares/AI_Runtime/Npu/ll_aton/ll_aton.c ****   t = ATON_CONVACC_ZFRAME_SET_RIGHT(t, z_right * conf->batchDepth);
 5666              		.loc 1 1756 7 view .LVU2066
 5667 01da 00FB09F9 		mul	r9, r0, r9
 5668              	.LVL644:
1750:../../Middlewares/AI_Runtime/Npu/ll_aton/ll_aton.c ****   // LL_ATON_PRINTF("z_t=%d z_b=%d z_l=%d z_r=%d\n",z_top,z_bot,z_left*conf->batchDepth,z_right*con
 5669              		.loc 1 1750 7 view .LVU2067
 5670 01de D21A     		subs	r2, r2, r3
 5671              	.LVL645:
1757:../../Middlewares/AI_Runtime/Npu/ll_aton/ll_aton.c ****   ATON_CONVACC_ZFRAME_SET(id, t);
 5672              		.loc 1 1757 7 view .LVU2068
 5673 01e0 4243     		muls	r2, r0, r2
 5674              	.LVL646:
1747:../../Middlewares/AI_Runtime/Npu/ll_aton/ll_aton.c ****   int z_bot = (conf->bot_padding - p_bot);
 5675              		.loc 1 1747 7 view .LVU2069
 5676 01e2 A8EB0C08 		sub	r8, r8, ip
 5677              	.LVL647:
1754:../../Middlewares/AI_Runtime/Npu/ll_aton/ll_aton.c ****   t = ATON_CONVACC_ZFRAME_SET_BOTTOM(t, z_bot);
 5678              		.loc 1 1754 7 view .LVU2070
 5679 01e6 4FEA0848 		lsl	r8, r8, #16
 5680              	.LVL648:
1754:../../Middlewares/AI_Runtime/Npu/ll_aton/ll_aton.c ****   t = ATON_CONVACC_ZFRAME_SET_BOTTOM(t, z_bot);
 5681              		.loc 1 1754 7 view .LVU2071
 5682 01ea 08F47F08 		and	r8, r8, #16711680
1756:../../Middlewares/AI_Runtime/Npu/ll_aton/ll_aton.c ****   t = ATON_CONVACC_ZFRAME_SET_RIGHT(t, z_right * conf->batchDepth);
 5683              		.loc 1 1756 7 view .LVU2072
 5684 01ee 5FFA89F9 		uxtb	r9, r9
1748:../../Middlewares/AI_Runtime/Npu/ll_aton/ll_aton.c ****   int z_left = (conf->left_padding - p_left);
 5685              		.loc 1 1748 7 view .LVU2073
 5686 01f2 AAEB070A 		sub	r10, r10, r7
 5687              	.LVL649:
1756:../../Middlewares/AI_Runtime/Npu/ll_aton/ll_aton.c ****   t = ATON_CONVACC_ZFRAME_SET_RIGHT(t, z_right * conf->batchDepth);
 5688              		.loc 1 1756 5 view .LVU2074
 5689 01f6 48EA0908 		orr	r8, r8, r9
1757:../../Middlewares/AI_Runtime/Npu/ll_aton/ll_aton.c ****   ATON_CONVACC_ZFRAME_SET(id, t);
 5690              		.loc 1 1757 7 view .LVU2075
 5691 01fa 1202     		lsls	r2, r2, #8
1756:../../Middlewares/AI_Runtime/Npu/ll_aton/ll_aton.c ****   t = ATON_CONVACC_ZFRAME_SET_RIGHT(t, z_right * conf->batchDepth);
 5692              		.loc 1 1756 5 view .LVU2076
 5693 01fc 48EA0A68 		orr	r8, r8, r10, lsl #24
 5694              	.LVL650:
1757:../../Middlewares/AI_Runtime/Npu/ll_aton/ll_aton.c ****   ATON_CONVACC_ZFRAME_SET(id, t);
 5695              		.loc 1 1757 3 is_stmt 1 view .LVU2077
1757:../../Middlewares/AI_Runtime/Npu/ll_aton/ll_aton.c ****   ATON_CONVACC_ZFRAME_SET(id, t);
 5696              		.loc 1 1757 7 is_stmt 0 view .LVU2078
 5697 0200 92B2     		uxth	r2, r2
1757:../../Middlewares/AI_Runtime/Npu/ll_aton/ll_aton.c ****   ATON_CONVACC_ZFRAME_SET(id, t);
 5698              		.loc 1 1757 5 view .LVU2079
 5699 0202 42EA0802 		orr	r2, r2, r8
 5700              	.LVL651:
1758:../../Middlewares/AI_Runtime/Npu/ll_aton/ll_aton.c **** 
 5701              		.loc 1 1758 3 is_stmt 1 view .LVU2080
1758:../../Middlewares/AI_Runtime/Npu/ll_aton/ll_aton.c **** 
 5702              		.loc 1 1758 3 view .LVU2081
 5703 0206 8A62     		str	r2, [r1, #40]
ARM GAS  C:\Users\Antonio\AppData\Local\Temp\ccynTwLp.s 			page 189


1758:../../Middlewares/AI_Runtime/Npu/ll_aton/ll_aton.c **** 
 5704              		.loc 1 1758 3 view .LVU2082
1758:../../Middlewares/AI_Runtime/Npu/ll_aton/ll_aton.c **** 
 5705              		.loc 1 1758 33 view .LVU2083
1760:../../Middlewares/AI_Runtime/Npu/ll_aton/ll_aton.c ****   t = ATON_CONVACC_SAMPLE_SET_TPAD(t, p_top);
 5706              		.loc 1 1760 3 view .LVU2084
 5707              	.LVL652:
1761:../../Middlewares/AI_Runtime/Npu/ll_aton/ll_aton.c ****   t = ATON_CONVACC_SAMPLE_SET_BPAD(t, p_bot);
 5708              		.loc 1 1761 3 view .LVU2085
1762:../../Middlewares/AI_Runtime/Npu/ll_aton/ll_aton.c ****   t = ATON_CONVACC_SAMPLE_SET_LPAD(t, p_left);
 5709              		.loc 1 1762 3 view .LVU2086
1763:../../Middlewares/AI_Runtime/Npu/ll_aton/ll_aton.c ****   t = ATON_CONVACC_SAMPLE_SET_RPAD(t, p_right);
 5710              		.loc 1 1763 3 view .LVU2087
1764:../../Middlewares/AI_Runtime/Npu/ll_aton/ll_aton.c ****   t = ATON_CONVACC_SAMPLE_SET_HSTRD(t, conf->hstride);
 5711              		.loc 1 1764 3 view .LVU2088
1765:../../Middlewares/AI_Runtime/Npu/ll_aton/ll_aton.c ****   t = ATON_CONVACC_SAMPLE_SET_VSTRD(t, conf->vstride);
 5712              		.loc 1 1765 3 view .LVU2089
1766:../../Middlewares/AI_Runtime/Npu/ll_aton/ll_aton.c **** #if defined(ATON_CONVACC_SAMPLE_SET_FSTATCNT)
 5713              		.loc 1 1766 3 view .LVU2090
1765:../../Middlewares/AI_Runtime/Npu/ll_aton/ll_aton.c ****   t = ATON_CONVACC_SAMPLE_SET_VSTRD(t, conf->vstride);
 5714              		.loc 1 1765 7 is_stmt 0 view .LVU2091
 5715 0208 A27D     		ldrb	r2, [r4, #22]	@ zero_extendqisi2
1764:../../Middlewares/AI_Runtime/Npu/ll_aton/ll_aton.c ****   t = ATON_CONVACC_SAMPLE_SET_HSTRD(t, conf->hstride);
 5716              		.loc 1 1764 7 view .LVU2092
 5717 020a 9B00     		lsls	r3, r3, #2
 5718              	.LVL653:
1765:../../Middlewares/AI_Runtime/Npu/ll_aton/ll_aton.c ****   t = ATON_CONVACC_SAMPLE_SET_VSTRD(t, conf->vstride);
 5719              		.loc 1 1765 7 view .LVU2093
 5720 020c 1202     		lsls	r2, r2, #8
 5721 020e 02F4E062 		and	r2, r2, #1792
1764:../../Middlewares/AI_Runtime/Npu/ll_aton/ll_aton.c ****   t = ATON_CONVACC_SAMPLE_SET_HSTRD(t, conf->hstride);
 5722              		.loc 1 1764 7 view .LVU2094
 5723 0212 03F00C03 		and	r3, r3, #12
1766:../../Middlewares/AI_Runtime/Npu/ll_aton/ll_aton.c **** #if defined(ATON_CONVACC_SAMPLE_SET_FSTATCNT)
 5724              		.loc 1 1766 5 view .LVU2095
 5725 0216 1343     		orrs	r3, r3, r2
1763:../../Middlewares/AI_Runtime/Npu/ll_aton/ll_aton.c ****   t = ATON_CONVACC_SAMPLE_SET_RPAD(t, p_right);
 5726              		.loc 1 1763 7 view .LVU2096
 5727 0218 0EF0030E 		and	lr, lr, #3
 5728              	.LVL654:
1766:../../Middlewares/AI_Runtime/Npu/ll_aton/ll_aton.c **** #if defined(ATON_CONVACC_SAMPLE_SET_FSTATCNT)
 5729              		.loc 1 1766 7 view .LVU2097
 5730 021c E27D     		ldrb	r2, [r4, #23]	@ zero_extendqisi2
1761:../../Middlewares/AI_Runtime/Npu/ll_aton/ll_aton.c ****   t = ATON_CONVACC_SAMPLE_SET_BPAD(t, p_bot);
 5731              		.loc 1 1761 7 view .LVU2098
 5732 021e 4FEA0C1C 		lsl	ip, ip, #4
 5733              	.LVL655:
1761:../../Middlewares/AI_Runtime/Npu/ll_aton/ll_aton.c ****   t = ATON_CONVACC_SAMPLE_SET_BPAD(t, p_bot);
 5734              		.loc 1 1761 7 view .LVU2099
 5735 0222 0CF0300C 		and	ip, ip, #48
1766:../../Middlewares/AI_Runtime/Npu/ll_aton/ll_aton.c **** #if defined(ATON_CONVACC_SAMPLE_SET_FSTATCNT)
 5736              		.loc 1 1766 5 view .LVU2100
 5737 0226 43EA0E03 		orr	r3, r3, lr
1762:../../Middlewares/AI_Runtime/Npu/ll_aton/ll_aton.c ****   t = ATON_CONVACC_SAMPLE_SET_LPAD(t, p_left);
 5738              		.loc 1 1762 7 view .LVU2101
 5739 022a BF01     		lsls	r7, r7, #6
 5740              	.LVL656:
ARM GAS  C:\Users\Antonio\AppData\Local\Temp\ccynTwLp.s 			page 190


1766:../../Middlewares/AI_Runtime/Npu/ll_aton/ll_aton.c **** #if defined(ATON_CONVACC_SAMPLE_SET_FSTATCNT)
 5741              		.loc 1 1766 5 view .LVU2102
 5742 022c 43EA0C03 		orr	r3, r3, ip
1762:../../Middlewares/AI_Runtime/Npu/ll_aton/ll_aton.c ****   t = ATON_CONVACC_SAMPLE_SET_LPAD(t, p_left);
 5743              		.loc 1 1762 7 view .LVU2103
 5744 0230 FFB2     		uxtb	r7, r7
1766:../../Middlewares/AI_Runtime/Npu/ll_aton/ll_aton.c **** #if defined(ATON_CONVACC_SAMPLE_SET_FSTATCNT)
 5745              		.loc 1 1766 7 view .LVU2104
 5746 0232 1203     		lsls	r2, r2, #12
 5747 0234 02F4E042 		and	r2, r2, #28672
1766:../../Middlewares/AI_Runtime/Npu/ll_aton/ll_aton.c **** #if defined(ATON_CONVACC_SAMPLE_SET_FSTATCNT)
 5748              		.loc 1 1766 5 view .LVU2105
 5749 0238 3B43     		orrs	r3, r3, r7
 5750 023a 1343     		orrs	r3, r3, r2
 5751              	.LVL657:
1768:../../Middlewares/AI_Runtime/Npu/ll_aton/ll_aton.c ****     t = ATON_CONVACC_SAMPLE_SET_FSTATCNT(t, conf->fstatcnt);
 5752              		.loc 1 1768 3 is_stmt 1 view .LVU2106
1768:../../Middlewares/AI_Runtime/Npu/ll_aton/ll_aton.c ****     t = ATON_CONVACC_SAMPLE_SET_FSTATCNT(t, conf->fstatcnt);
 5753              		.loc 1 1768 6 is_stmt 0 view .LVU2107
 5754 023c AA07     		lsls	r2, r5, #30
1769:../../Middlewares/AI_Runtime/Npu/ll_aton/ll_aton.c **** #endif
 5755              		.loc 1 1769 5 is_stmt 1 view .LVU2108
1769:../../Middlewares/AI_Runtime/Npu/ll_aton/ll_aton.c **** #endif
 5756              		.loc 1 1769 9 is_stmt 0 view .LVU2109
 5757 023e 48BF     		it	mi
 5758 0240 228D     		ldrhmi	r2, [r4, #40]
1776:../../Middlewares/AI_Runtime/Npu/ll_aton/ll_aton.c ****   if (conf->right_crop > 0)
 5759              		.loc 1 1776 7 view .LVU2110
 5760 0242 1E4F     		ldr	r7, .L408+4
1769:../../Middlewares/AI_Runtime/Npu/ll_aton/ll_aton.c **** #endif
 5761              		.loc 1 1769 7 view .LVU2111
 5762 0244 48BF     		it	mi
 5763 0246 43EA0243 		orrmi	r3, r3, r2, lsl #16
 5764              	.LVL658:
1771:../../Middlewares/AI_Runtime/Npu/ll_aton/ll_aton.c **** 
 5765              		.loc 1 1771 3 is_stmt 1 view .LVU2112
1771:../../Middlewares/AI_Runtime/Npu/ll_aton/ll_aton.c **** 
 5766              		.loc 1 1771 3 view .LVU2113
1775:../../Middlewares/AI_Runtime/Npu/ll_aton/ll_aton.c ****     t = ATON_CONVACC_FHCROP_SET_LEFT(t, conf->left_crop * conf->batchDepth);
 5767              		.loc 1 1775 11 is_stmt 0 view .LVU2114
 5768 024a 228C     		ldrh	r2, [r4, #32]
1771:../../Middlewares/AI_Runtime/Npu/ll_aton/ll_aton.c **** 
 5769              		.loc 1 1771 3 view .LVU2115
 5770 024c CB60     		str	r3, [r1, #12]
1771:../../Middlewares/AI_Runtime/Npu/ll_aton/ll_aton.c **** 
 5771              		.loc 1 1771 3 is_stmt 1 view .LVU2116
1771:../../Middlewares/AI_Runtime/Npu/ll_aton/ll_aton.c **** 
 5772              		.loc 1 1771 33 view .LVU2117
1774:../../Middlewares/AI_Runtime/Npu/ll_aton/ll_aton.c ****   if (conf->left_crop > 0)
 5773              		.loc 1 1774 3 view .LVU2118
 5774              	.LVL659:
1775:../../Middlewares/AI_Runtime/Npu/ll_aton/ll_aton.c ****     t = ATON_CONVACC_FHCROP_SET_LEFT(t, conf->left_crop * conf->batchDepth);
 5775              		.loc 1 1775 3 view .LVU2119
1776:../../Middlewares/AI_Runtime/Npu/ll_aton/ll_aton.c ****   if (conf->right_crop > 0)
 5776              		.loc 1 1776 7 is_stmt 0 view .LVU2120
 5777 024e 00FB02F3 		mul	r3, r0, r2
 5778 0252 6FEA0343 		mvn	r3, r3, lsl #16
ARM GAS  C:\Users\Antonio\AppData\Local\Temp\ccynTwLp.s 			page 191


 5779 0256 002A     		cmp	r2, #0
 5780 0258 6FEA1343 		mvn	r3, r3, lsr #16
 5781 025c 08BF     		it	eq
 5782 025e 3B46     		moveq	r3, r7
 5783              	.LVL660:
1777:../../Middlewares/AI_Runtime/Npu/ll_aton/ll_aton.c ****     t = ATON_CONVACC_FHCROP_SET_RIGHT(t, conf->right_crop * conf->batchDepth + (conf->batchDepth - 
 5784              		.loc 1 1777 3 is_stmt 1 view .LVU2121
1777:../../Middlewares/AI_Runtime/Npu/ll_aton/ll_aton.c ****     t = ATON_CONVACC_FHCROP_SET_RIGHT(t, conf->right_crop * conf->batchDepth + (conf->batchDepth - 
 5785              		.loc 1 1777 11 is_stmt 0 view .LVU2122
 5786 0260 B4F822C0 		ldrh	ip, [r4, #34]
1778:../../Middlewares/AI_Runtime/Npu/ll_aton/ll_aton.c ****   ATON_CONVACC_FHCROP_SET(id, t);
 5787              		.loc 1 1778 7 view .LVU2123
 5788 0264 451E     		subs	r5, r0, #1
 5789 0266 00FB0C50 		mla	r0, r0, ip, r5
 5790 026a 9AB2     		uxth	r2, r3
 5791 026c 42EA0042 		orr	r2, r2, r0, lsl #16
 5792 0270 BCF1000F 		cmp	ip, #0
 5793 0274 18BF     		it	ne
 5794 0276 1346     		movne	r3, r2
 5795              	.LVL661:
1779:../../Middlewares/AI_Runtime/Npu/ll_aton/ll_aton.c **** 
 5796              		.loc 1 1779 3 is_stmt 1 view .LVU2124
1779:../../Middlewares/AI_Runtime/Npu/ll_aton/ll_aton.c **** 
 5797              		.loc 1 1779 3 view .LVU2125
1784:../../Middlewares/AI_Runtime/Npu/ll_aton/ll_aton.c ****     t = ATON_CONVACC_FVCROP_SET_BOTTOM(t, conf->bot_crop);
 5798              		.loc 1 1784 6 is_stmt 0 view .LVU2126
 5799 0278 E08C     		ldrh	r0, [r4, #38]
1782:../../Middlewares/AI_Runtime/Npu/ll_aton/ll_aton.c ****     t = ATON_CONVACC_FVCROP_SET_TOP(t, conf->top_crop);
 5800              		.loc 1 1782 11 view .LVU2127
 5801 027a A28C     		ldrh	r2, [r4, #36]
1783:../../Middlewares/AI_Runtime/Npu/ll_aton/ll_aton.c ****   if (conf->bot_crop > 0)
 5802              		.loc 1 1783 7 view .LVU2128
 5803 027c 0028     		cmp	r0, #0
 5804 027e 42EA0702 		orr	r2, r2, r7
1779:../../Middlewares/AI_Runtime/Npu/ll_aton/ll_aton.c **** 
 5805              		.loc 1 1779 3 view .LVU2129
 5806 0282 8B61     		str	r3, [r1, #24]
1779:../../Middlewares/AI_Runtime/Npu/ll_aton/ll_aton.c **** 
 5807              		.loc 1 1779 3 is_stmt 1 view .LVU2130
1779:../../Middlewares/AI_Runtime/Npu/ll_aton/ll_aton.c **** 
 5808              		.loc 1 1779 33 view .LVU2131
1781:../../Middlewares/AI_Runtime/Npu/ll_aton/ll_aton.c ****   if (conf->top_crop > 0)
 5809              		.loc 1 1781 3 view .LVU2132
 5810              	.LVL662:
1782:../../Middlewares/AI_Runtime/Npu/ll_aton/ll_aton.c ****     t = ATON_CONVACC_FVCROP_SET_TOP(t, conf->top_crop);
 5811              		.loc 1 1782 3 view .LVU2133
1784:../../Middlewares/AI_Runtime/Npu/ll_aton/ll_aton.c ****     t = ATON_CONVACC_FVCROP_SET_BOTTOM(t, conf->bot_crop);
 5812              		.loc 1 1784 3 view .LVU2134
1785:../../Middlewares/AI_Runtime/Npu/ll_aton/ll_aton.c ****   ATON_CONVACC_FVCROP_SET(id, t);
 5813              		.loc 1 1785 7 is_stmt 0 view .LVU2135
 5814 0284 636A     		ldr	r3, [r4, #36]
1783:../../Middlewares/AI_Runtime/Npu/ll_aton/ll_aton.c ****   if (conf->bot_crop > 0)
 5815              		.loc 1 1783 7 view .LVU2136
 5816 0286 08BF     		it	eq
 5817 0288 1346     		moveq	r3, r2
 5818              	.LVL663:
1786:../../Middlewares/AI_Runtime/Npu/ll_aton/ll_aton.c ****   // LL_ATON_PRINTF("c_t=%d c_b=%d c_l=%d c_r=%d\n",conf->top_crop,conf->bot_crop,conf->left_crop  
ARM GAS  C:\Users\Antonio\AppData\Local\Temp\ccynTwLp.s 			page 192


 5819              		.loc 1 1786 3 is_stmt 1 view .LVU2137
1786:../../Middlewares/AI_Runtime/Npu/ll_aton/ll_aton.c ****   // LL_ATON_PRINTF("c_t=%d c_b=%d c_l=%d c_r=%d\n",conf->top_crop,conf->bot_crop,conf->left_crop  
 5820              		.loc 1 1786 3 view .LVU2138
 5821 028a CB61     		str	r3, [r1, #28]
1786:../../Middlewares/AI_Runtime/Npu/ll_aton/ll_aton.c ****   // LL_ATON_PRINTF("c_t=%d c_b=%d c_l=%d c_r=%d\n",conf->top_crop,conf->bot_crop,conf->left_crop  
 5822              		.loc 1 1786 3 view .LVU2139
1786:../../Middlewares/AI_Runtime/Npu/ll_aton/ll_aton.c ****   // LL_ATON_PRINTF("c_t=%d c_b=%d c_l=%d c_r=%d\n",conf->top_crop,conf->bot_crop,conf->left_crop  
 5823              		.loc 1 1786 33 view .LVU2140
1791:../../Middlewares/AI_Runtime/Npu/ll_aton/ll_aton.c ****   {
 5824              		.loc 1 1791 3 view .LVU2141
1791:../../Middlewares/AI_Runtime/Npu/ll_aton/ll_aton.c ****   {
 5825              		.loc 1 1791 11 is_stmt 0 view .LVU2142
 5826 028c 636B     		ldr	r3, [r4, #52]
 5827              	.LVL664:
1791:../../Middlewares/AI_Runtime/Npu/ll_aton/ll_aton.c ****   {
 5828              		.loc 1 1791 6 view .LVU2143
 5829 028e 13B1     		cbz	r3, .L381
1793:../../Middlewares/AI_Runtime/Npu/ll_aton/ll_aton.c ****     t = ATON_CONVACC_FSUB_SET_FSUB(t, conf->fsub);
 5830              		.loc 1 1793 5 is_stmt 1 view .LVU2144
 5831              	.LVL665:
1794:../../Middlewares/AI_Runtime/Npu/ll_aton/ll_aton.c ****     ATON_CONVACC_FSUB_SET(id, t);
 5832              		.loc 1 1794 5 view .LVU2145
1794:../../Middlewares/AI_Runtime/Npu/ll_aton/ll_aton.c ****     ATON_CONVACC_FSUB_SET(id, t);
 5833              		.loc 1 1794 9 is_stmt 0 view .LVU2146
 5834 0290 23F07F43 		bic	r3, r3, #-16777216
 5835              	.LVL666:
1795:../../Middlewares/AI_Runtime/Npu/ll_aton/ll_aton.c ****   }
 5836              		.loc 1 1795 5 is_stmt 1 view .LVU2147
1795:../../Middlewares/AI_Runtime/Npu/ll_aton/ll_aton.c ****   }
 5837              		.loc 1 1795 5 view .LVU2148
 5838 0294 0B63     		str	r3, [r1, #48]
 5839              	.LVL667:
 5840              	.L381:
1795:../../Middlewares/AI_Runtime/Npu/ll_aton/ll_aton.c ****   }
 5841              		.loc 1 1795 5 discriminator 1 view .LVU2149
1795:../../Middlewares/AI_Runtime/Npu/ll_aton/ll_aton.c ****   }
 5842              		.loc 1 1795 33 discriminator 1 view .LVU2150
1799:../../Middlewares/AI_Runtime/Npu/ll_aton/ll_aton.c ****   if (conf->zfbias != 0)
 5843              		.loc 1 1799 3 view .LVU2151
1800:../../Middlewares/AI_Runtime/Npu/ll_aton/ll_aton.c ****   {
 5844              		.loc 1 1800 3 view .LVU2152
1814:../../Middlewares/AI_Runtime/Npu/ll_aton/ll_aton.c **** }
 5845              		.loc 1 1814 10 is_stmt 0 view .LVU2153
 5846 0296 0020     		movs	r0, #0
1802:../../Middlewares/AI_Runtime/Npu/ll_aton/ll_aton.c ****   }
 5847              		.loc 1 1802 9 view .LVU2154
 5848 0298 B6B2     		uxth	r6, r6
 5849              	.LVL668:
1811:../../Middlewares/AI_Runtime/Npu/ll_aton/ll_aton.c **** #endif
 5850              		.loc 1 1811 3 is_stmt 1 view .LVU2155
1811:../../Middlewares/AI_Runtime/Npu/ll_aton/ll_aton.c **** #endif
 5851              		.loc 1 1811 3 view .LVU2156
 5852 029a 4E63     		str	r6, [r1, #52]
1811:../../Middlewares/AI_Runtime/Npu/ll_aton/ll_aton.c **** #endif
 5853              		.loc 1 1811 3 view .LVU2157
1811:../../Middlewares/AI_Runtime/Npu/ll_aton/ll_aton.c **** #endif
 5854              		.loc 1 1811 33 view .LVU2158
ARM GAS  C:\Users\Antonio\AppData\Local\Temp\ccynTwLp.s 			page 193


1814:../../Middlewares/AI_Runtime/Npu/ll_aton/ll_aton.c **** }
 5855              		.loc 1 1814 3 view .LVU2159
 5856              	.LVL669:
 5857              	.L366:
1815:../../Middlewares/AI_Runtime/Npu/ll_aton/ll_aton.c **** #endif // ATON_CONVACC_NUM
 5858              		.loc 1 1815 1 is_stmt 0 view .LVU2160
 5859 029c BDE8F087 		pop	{r4, r5, r6, r7, r8, r9, r10, pc}
 5860              	.LVL670:
 5861              	.L390:
1732:../../Middlewares/AI_Runtime/Npu/ll_aton/ll_aton.c **** #endif
 5862              		.loc 1 1732 38 view .LVU2161
 5863 02a0 0023     		movs	r3, #0
 5864              	.LVL671:
1732:../../Middlewares/AI_Runtime/Npu/ll_aton/ll_aton.c **** #endif
 5865              		.loc 1 1732 28 view .LVU2162
 5866 02a2 9E46     		mov	lr, r3
 5867              	.LVL672:
1732:../../Middlewares/AI_Runtime/Npu/ll_aton/ll_aton.c **** #endif
 5868              		.loc 1 1732 19 view .LVU2163
 5869 02a4 1F46     		mov	r7, r3
 5870              	.LVL673:
1732:../../Middlewares/AI_Runtime/Npu/ll_aton/ll_aton.c **** #endif
 5871              		.loc 1 1732 11 view .LVU2164
 5872 02a6 9C46     		mov	ip, r3
 5873              	.LVL674:
1732:../../Middlewares/AI_Runtime/Npu/ll_aton/ll_aton.c **** #endif
 5874              		.loc 1 1732 11 view .LVU2165
 5875 02a8 87E7     		b	.L374
 5876              	.LVL675:
 5877              	.L382:
1615:../../Middlewares/AI_Runtime/Npu/ll_aton/ll_aton.c **** 
 5878              		.loc 1 1615 12 view .LVU2166
 5879 02aa 4FF0FF30 		mov	r0, #-1
 5880              	.LVL676:
1615:../../Middlewares/AI_Runtime/Npu/ll_aton/ll_aton.c **** 
 5881              		.loc 1 1615 12 view .LVU2167
 5882 02ae F5E7     		b	.L366
 5883              	.LVL677:
 5884              	.L385:
1639:../../Middlewares/AI_Runtime/Npu/ll_aton/ll_aton.c ****   }
 5885              		.loc 1 1639 12 view .LVU2168
 5886 02b0 6FF00100 		mvn	r0, #1
 5887 02b4 F2E7     		b	.L366
 5888              	.L409:
 5889 02b6 00BF     		.align	2
 5890              	.L408:
 5891 02b8 00000000 		.word	Conv_ctrl_bits
 5892 02bc 0000FFFF 		.word	-65536
 5893              		.cfi_endproc
 5894              	.LFE4841:
 5896              		.section	.text.LL_Activacc_Init,"ax",%progbits
 5897              		.align	1
 5898              		.global	LL_Activacc_Init
 5899              		.syntax unified
 5900              		.thumb
 5901              		.thumb_func
 5903              	LL_Activacc_Init:
ARM GAS  C:\Users\Antonio\AppData\Local\Temp\ccynTwLp.s 			page 194


 5904              	.LVL678:
 5905              	.LFB4843:
1850:../../Middlewares/AI_Runtime/Npu/ll_aton/ll_aton.c ****   uint32_t t;
 5906              		.loc 1 1850 1 is_stmt 1 view -0
 5907              		.cfi_startproc
 5908              		@ args = 0, pretend = 0, frame = 0
 5909              		@ frame_needed = 0, uses_anonymous_args = 0
1851:../../Middlewares/AI_Runtime/Npu/ll_aton/ll_aton.c **** 
 5910              		.loc 1 1851 3 view .LVU2170
1853:../../Middlewares/AI_Runtime/Npu/ll_aton/ll_aton.c ****     return LL_ATON_INVALID_ID;
 5911              		.loc 1 1853 3 view .LVU2171
1853:../../Middlewares/AI_Runtime/Npu/ll_aton/ll_aton.c ****     return LL_ATON_INVALID_ID;
 5912              		.loc 1 1853 6 is_stmt 0 view .LVU2172
 5913 0000 0128     		cmp	r0, #1
1850:../../Middlewares/AI_Runtime/Npu/ll_aton/ll_aton.c ****   uint32_t t;
 5914              		.loc 1 1850 1 view .LVU2173
 5915 0002 F8B5     		push	{r3, r4, r5, r6, r7, lr}
 5916              		.cfi_def_cfa_offset 24
 5917              		.cfi_offset 3, -24
 5918              		.cfi_offset 4, -20
 5919              		.cfi_offset 5, -16
 5920              		.cfi_offset 6, -12
 5921              		.cfi_offset 7, -8
 5922              		.cfi_offset 14, -4
1850:../../Middlewares/AI_Runtime/Npu/ll_aton/ll_aton.c ****   uint32_t t;
 5923              		.loc 1 1850 1 view .LVU2174
 5924 0004 0446     		mov	r4, r0
 5925 0006 0D46     		mov	r5, r1
1853:../../Middlewares/AI_Runtime/Npu/ll_aton/ll_aton.c ****     return LL_ATON_INVALID_ID;
 5926              		.loc 1 1853 6 view .LVU2175
 5927 0008 00F39E80 		bgt	.L421
1856:../../Middlewares/AI_Runtime/Npu/ll_aton/ll_aton.c **** 
 5928              		.loc 1 1856 3 is_stmt 1 view .LVU2176
 5929 000c 1030     		adds	r0, r0, #16
 5930              	.LVL679:
1856:../../Middlewares/AI_Runtime/Npu/ll_aton/ll_aton.c **** 
 5931              		.loc 1 1856 3 is_stmt 0 view .LVU2177
 5932 000e FFF7FEFF 		bl	LL_ATON_EnableClock
 5933              	.LVL680:
1858:../../Middlewares/AI_Runtime/Npu/ll_aton/ll_aton.c ****   t = ATON_ACTIV_CTRL_SET_TYPE(t, get_Activacc_type(conf->operation));
 5934              		.loc 1 1858 3 is_stmt 1 view .LVU2178
1859:../../Middlewares/AI_Runtime/Npu/ll_aton/ll_aton.c ****   t = ATON_ACTIV_CTRL_SET_FBYTES(t, conf->inbytes_f);
 5935              		.loc 1 1859 3 view .LVU2179
1859:../../Middlewares/AI_Runtime/Npu/ll_aton/ll_aton.c ****   t = ATON_ACTIV_CTRL_SET_FBYTES(t, conf->inbytes_f);
 5936              		.loc 1 1859 7 is_stmt 0 view .LVU2180
 5937 0012 95F82C10 		ldrb	r1, [r5, #44]	@ zero_extendqisi2
 5938              	.LVL681:
 5939              	.LBB132:
 5940              	.LBI132:
1820:../../Middlewares/AI_Runtime/Npu/ll_aton/ll_aton.c **** {
 5941              		.loc 1 1820 16 is_stmt 1 view .LVU2181
 5942              	.LBB133:
1822:../../Middlewares/AI_Runtime/Npu/ll_aton/ll_aton.c ****   {
 5943              		.loc 1 1822 3 view .LVU2182
 5944 0016 4F1E     		subs	r7, r1, #1
 5945 0018 FBB2     		uxtb	r3, r7
 5946 001a 032B     		cmp	r3, #3
ARM GAS  C:\Users\Antonio\AppData\Local\Temp\ccynTwLp.s 			page 195


 5947 001c 42D8     		bhi	.L412
 5948              	.LVL682:
1822:../../Middlewares/AI_Runtime/Npu/ll_aton/ll_aton.c ****   {
 5949              		.loc 1 1822 3 is_stmt 0 view .LVU2183
 5950              	.LBE133:
 5951              	.LBE132:
1860:../../Middlewares/AI_Runtime/Npu/ll_aton/ll_aton.c ****   t = ATON_ACTIV_CTRL_SET_FSHIFT(t, ATON_SHIFT(conf->shift_f));
 5952              		.loc 1 1860 3 is_stmt 1 view .LVU2184
1861:../../Middlewares/AI_Runtime/Npu/ll_aton/ll_aton.c ****   t = ATON_ACTIV_CTRL_SET_FROUND(t, conf->rounding_f);
 5953              		.loc 1 1861 3 view .LVU2185
1862:../../Middlewares/AI_Runtime/Npu/ll_aton/ll_aton.c ****   t = ATON_ACTIV_CTRL_SET_FSAT(t, (conf->saturation_f != 0));
 5954              		.loc 1 1862 3 view .LVU2186
1863:../../Middlewares/AI_Runtime/Npu/ll_aton/ll_aton.c ****   t = ATON_ACTIV_CTRL_SET_FRNDMODE(t, conf->round_mode_f);
 5955              		.loc 1 1863 3 view .LVU2187
1864:../../Middlewares/AI_Runtime/Npu/ll_aton/ll_aton.c ****   t = ATON_ACTIV_CTRL_SET_FOBYTES(t, conf->outbytes_f);
 5956              		.loc 1 1864 3 view .LVU2188
1865:../../Middlewares/AI_Runtime/Npu/ll_aton/ll_aton.c **** 
 5957              		.loc 1 1865 3 view .LVU2189
1867:../../Middlewares/AI_Runtime/Npu/ll_aton/ll_aton.c ****   t = ATON_ACTIV_CTRL_SET_SAT(t, (conf->saturation_o != 0));
 5958              		.loc 1 1867 3 view .LVU2190
1860:../../Middlewares/AI_Runtime/Npu/ll_aton/ll_aton.c ****   t = ATON_ACTIV_CTRL_SET_FSHIFT(t, ATON_SHIFT(conf->shift_f));
 5959              		.loc 1 1860 7 is_stmt 0 view .LVU2191
 5960 001e 2878     		ldrb	r0, [r5]	@ zero_extendqisi2
1867:../../Middlewares/AI_Runtime/Npu/ll_aton/ll_aton.c ****   t = ATON_ACTIV_CTRL_SET_SAT(t, (conf->saturation_o != 0));
 5961              		.loc 1 1867 7 view .LVU2192
 5962 0020 6A78     		ldrb	r2, [r5, #1]	@ zero_extendqisi2
 5963              	.LVL683:
1868:../../Middlewares/AI_Runtime/Npu/ll_aton/ll_aton.c ****   t = ATON_ACTIV_CTRL_SET_OBYTES(t, conf->outbytes_o);
 5964              		.loc 1 1868 3 is_stmt 1 view .LVU2193
1869:../../Middlewares/AI_Runtime/Npu/ll_aton/ll_aton.c ****   t = ATON_ACTIV_CTRL_SET_ORNDMODE(t, (conf->relu_mode_o << 1) | conf->round_mode_o);
 5965              		.loc 1 1869 3 view .LVU2194
1862:../../Middlewares/AI_Runtime/Npu/ll_aton/ll_aton.c ****   t = ATON_ACTIV_CTRL_SET_FSAT(t, (conf->saturation_f != 0));
 5966              		.loc 1 1862 7 is_stmt 0 view .LVU2195
 5967 0022 00F00103 		and	r3, r0, #1
1860:../../Middlewares/AI_Runtime/Npu/ll_aton/ll_aton.c ****   t = ATON_ACTIV_CTRL_SET_FSHIFT(t, ATON_SHIFT(conf->shift_f));
 5968              		.loc 1 1860 7 view .LVU2196
 5969 0026 C0F30116 		ubfx	r6, r0, #4, #2
1862:../../Middlewares/AI_Runtime/Npu/ll_aton/ll_aton.c ****   t = ATON_ACTIV_CTRL_SET_FSAT(t, (conf->saturation_f != 0));
 5970              		.loc 1 1862 7 view .LVU2197
 5971 002a 9B03     		lsls	r3, r3, #14
1865:../../Middlewares/AI_Runtime/Npu/ll_aton/ll_aton.c **** 
 5972              		.loc 1 1865 7 view .LVU2198
 5973 002c 43EA8613 		orr	r3, r3, r6, lsl #6
1861:../../Middlewares/AI_Runtime/Npu/ll_aton/ll_aton.c ****   t = ATON_ACTIV_CTRL_SET_FROUND(t, conf->rounding_f);
 5974              		.loc 1 1861 7 view .LVU2199
 5975 0030 AE78     		ldrb	r6, [r5, #2]	@ zero_extendqisi2
 5976 0032 1036     		adds	r6, r6, #16
 5977              	.LVL684:
1861:../../Middlewares/AI_Runtime/Npu/ll_aton/ll_aton.c ****   t = ATON_ACTIV_CTRL_SET_FROUND(t, conf->rounding_f);
 5978              		.loc 1 1861 7 view .LVU2200
 5979 0034 3602     		lsls	r6, r6, #8
 5980              	.LVL685:
1861:../../Middlewares/AI_Runtime/Npu/ll_aton/ll_aton.c ****   t = ATON_ACTIV_CTRL_SET_FROUND(t, conf->rounding_f);
 5981              		.loc 1 1861 7 view .LVU2201
 5982 0036 06F47C56 		and	r6, r6, #16128
1865:../../Middlewares/AI_Runtime/Npu/ll_aton/ll_aton.c **** 
 5983              		.loc 1 1865 7 view .LVU2202
ARM GAS  C:\Users\Antonio\AppData\Local\Temp\ccynTwLp.s 			page 196


 5984 003a 3343     		orrs	r3, r3, r6
1864:../../Middlewares/AI_Runtime/Npu/ll_aton/ll_aton.c ****   t = ATON_ACTIV_CTRL_SET_FOBYTES(t, conf->outbytes_f);
 5985              		.loc 1 1864 7 view .LVU2203
 5986 003c C0F38106 		ubfx	r6, r0, #2, #2
1865:../../Middlewares/AI_Runtime/Npu/ll_aton/ll_aton.c **** 
 5987              		.loc 1 1865 7 view .LVU2204
 5988 0040 43EA0643 		orr	r3, r3, r6, lsl #16
1863:../../Middlewares/AI_Runtime/Npu/ll_aton/ll_aton.c ****   t = ATON_ACTIV_CTRL_SET_FRNDMODE(t, conf->round_mode_f);
 5989              		.loc 1 1863 7 view .LVU2205
 5990 0044 8603     		lsls	r6, r0, #14
 5991 0046 06F40046 		and	r6, r6, #32768
 5992              	.LVL686:
1865:../../Middlewares/AI_Runtime/Npu/ll_aton/ll_aton.c **** 
 5993              		.loc 1 1865 7 view .LVU2206
 5994 004a 43EA8703 		orr	r3, r3, r7, lsl #2
 5995 004e 3343     		orrs	r3, r3, r6
1867:../../Middlewares/AI_Runtime/Npu/ll_aton/ll_aton.c ****   t = ATON_ACTIV_CTRL_SET_SAT(t, (conf->saturation_o != 0));
 5996              		.loc 1 1867 7 view .LVU2207
 5997 0050 1605     		lsls	r6, r2, #20
 5998              	.LVL687:
1868:../../Middlewares/AI_Runtime/Npu/ll_aton/ll_aton.c ****   t = ATON_ACTIV_CTRL_SET_OBYTES(t, conf->outbytes_o);
 5999              		.loc 1 1868 5 view .LVU2208
 6000 0052 06F44016 		and	r6, r6, #3145728
1865:../../Middlewares/AI_Runtime/Npu/ll_aton/ll_aton.c **** 
 6001              		.loc 1 1865 7 view .LVU2209
 6002 0056 8009     		lsrs	r0, r0, #6
1868:../../Middlewares/AI_Runtime/Npu/ll_aton/ll_aton.c ****   t = ATON_ACTIV_CTRL_SET_OBYTES(t, conf->outbytes_o);
 6003              		.loc 1 1868 5 view .LVU2210
 6004 0058 23F44003 		bic	r3, r3, #12582912
 6005 005c 46EA8040 		orr	r0, r6, r0, lsl #18
 6006 0060 23F00303 		bic	r3, r3, #3
1869:../../Middlewares/AI_Runtime/Npu/ll_aton/ll_aton.c ****   t = ATON_ACTIV_CTRL_SET_ORNDMODE(t, (conf->relu_mode_o << 1) | conf->round_mode_o);
 6007              		.loc 1 1869 7 view .LVU2211
 6008 0064 0343     		orrs	r3, r3, r0
 6009              	.LVL688:
1870:../../Middlewares/AI_Runtime/Npu/ll_aton/ll_aton.c ****   ATON_ACTIV_CTRL_SET(id, t);
 6010              		.loc 1 1870 3 is_stmt 1 view .LVU2212
1869:../../Middlewares/AI_Runtime/Npu/ll_aton/ll_aton.c ****   t = ATON_ACTIV_CTRL_SET_ORNDMODE(t, (conf->relu_mode_o << 1) | conf->round_mode_o);
 6011              		.loc 1 1869 7 is_stmt 0 view .LVU2213
 6012 0066 C2F30110 		ubfx	r0, r2, #4, #2
1870:../../Middlewares/AI_Runtime/Npu/ll_aton/ll_aton.c ****   ATON_ACTIV_CTRL_SET(id, t);
 6013              		.loc 1 1870 7 view .LVU2214
 6014 006a C2F38106 		ubfx	r6, r2, #2, #2
1869:../../Middlewares/AI_Runtime/Npu/ll_aton/ll_aton.c ****   t = ATON_ACTIV_CTRL_SET_ORNDMODE(t, (conf->relu_mode_o << 1) | conf->round_mode_o);
 6015              		.loc 1 1869 7 view .LVU2215
 6016 006e 8005     		lsls	r0, r0, #22
1870:../../Middlewares/AI_Runtime/Npu/ll_aton/ll_aton.c ****   ATON_ACTIV_CTRL_SET(id, t);
 6017              		.loc 1 1870 5 view .LVU2216
 6018 0070 40EA0660 		orr	r0, r0, r6, lsl #24
 6019 0074 1843     		orrs	r0, r0, r3
 6020              	.LVL689:
1871:../../Middlewares/AI_Runtime/Npu/ll_aton/ll_aton.c **** 
 6021              		.loc 1 1871 3 is_stmt 1 view .LVU2217
1871:../../Middlewares/AI_Runtime/Npu/ll_aton/ll_aton.c **** 
 6022              		.loc 1 1871 3 view .LVU2218
 6023 0076 04F5B023 		add	r3, r4, #360448
 6024 007a F533     		adds	r3, r3, #245
ARM GAS  C:\Users\Antonio\AppData\Local\Temp\ccynTwLp.s 			page 197


 6025 007c 1B03     		lsls	r3, r3, #12
 6026 007e 1860     		str	r0, [r3]
1871:../../Middlewares/AI_Runtime/Npu/ll_aton/ll_aton.c **** 
 6027              		.loc 1 1871 3 view .LVU2219
1871:../../Middlewares/AI_Runtime/Npu/ll_aton/ll_aton.c **** 
 6028              		.loc 1 1871 29 view .LVU2220
1874:../../Middlewares/AI_Runtime/Npu/ll_aton/ll_aton.c ****   {
 6029              		.loc 1 1874 3 view .LVU2221
1874:../../Middlewares/AI_Runtime/Npu/ll_aton/ll_aton.c ****   {
 6030              		.loc 1 1874 11 is_stmt 0 view .LVU2222
 6031 0080 A86A     		ldr	r0, [r5, #40]
 6032              	.LVL690:
1874:../../Middlewares/AI_Runtime/Npu/ll_aton/ll_aton.c ****   {
 6033              		.loc 1 1874 6 view .LVU2223
 6034 0082 B0B9     		cbnz	r0, .L413
 6035              	.LVL691:
 6036              	.L414:
1878:../../Middlewares/AI_Runtime/Npu/ll_aton/ll_aton.c ****   }
 6037              		.loc 1 1878 5 is_stmt 1 discriminator 1 view .LVU2224
1878:../../Middlewares/AI_Runtime/Npu/ll_aton/ll_aton.c ****   }
 6038              		.loc 1 1878 31 discriminator 1 view .LVU2225
1882:../../Middlewares/AI_Runtime/Npu/ll_aton/ll_aton.c ****   {
 6039              		.loc 1 1882 3 view .LVU2226
1897:../../Middlewares/AI_Runtime/Npu/ll_aton/ll_aton.c ****     ATON_ACTIV_FUNC_SET(id, t);
 6040              		.loc 1 1897 9 is_stmt 0 view .LVU2227
 6041 0084 EE78     		ldrb	r6, [r5, #3]	@ zero_extendqisi2
1896:../../Middlewares/AI_Runtime/Npu/ll_aton/ll_aton.c ****     t = ATON_ACTIV_FUNC_SET_OUTSHIFT(t, conf->shift_o);
 6042              		.loc 1 1896 9 view .LVU2228
 6043 0086 9203     		lsls	r2, r2, #14
1882:../../Middlewares/AI_Runtime/Npu/ll_aton/ll_aton.c ****   {
 6044              		.loc 1 1882 3 view .LVU2229
 6045 0088 0429     		cmp	r1, #4
1888:../../Middlewares/AI_Runtime/Npu/ll_aton/ll_aton.c ****     ATON_ACTIV_ACTIVPARAM_SET(id, t);
 6046              		.loc 1 1888 9 view .LVU2230
 6047 008a A888     		ldrh	r0, [r5, #4]
1896:../../Middlewares/AI_Runtime/Npu/ll_aton/ll_aton.c ****     t = ATON_ACTIV_FUNC_SET_OUTSHIFT(t, conf->shift_o);
 6048              		.loc 1 1896 9 view .LVU2231
 6049 008c 02F48012 		and	r2, r2, #1048576
1897:../../Middlewares/AI_Runtime/Npu/ll_aton/ll_aton.c ****     ATON_ACTIV_FUNC_SET(id, t);
 6050              		.loc 1 1897 9 view .LVU2232
 6051 0090 06F03F06 		and	r6, r6, #63
1882:../../Middlewares/AI_Runtime/Npu/ll_aton/ll_aton.c ****   {
 6052              		.loc 1 1882 3 view .LVU2233
 6053 0094 11D0     		beq	.L415
1887:../../Middlewares/AI_Runtime/Npu/ll_aton/ll_aton.c ****     t = ATON_ACTIV_ACTIVPARAM_SET_PARAM(t, conf->parameter);
 6054              		.loc 1 1887 5 is_stmt 1 view .LVU2234
 6055              	.LVL692:
1888:../../Middlewares/AI_Runtime/Npu/ll_aton/ll_aton.c ****     ATON_ACTIV_ACTIVPARAM_SET(id, t);
 6056              		.loc 1 1888 5 view .LVU2235
1889:../../Middlewares/AI_Runtime/Npu/ll_aton/ll_aton.c **** 
 6057              		.loc 1 1889 5 view .LVU2236
1889:../../Middlewares/AI_Runtime/Npu/ll_aton/ll_aton.c **** 
 6058              		.loc 1 1889 5 view .LVU2237
1892:../../Middlewares/AI_Runtime/Npu/ll_aton/ll_aton.c ****     ATON_ACTIV_ACTIVPARAM2_SET(id, t);
 6059              		.loc 1 1892 9 is_stmt 0 view .LVU2238
 6060 0096 2989     		ldrh	r1, [r5, #8]
1897:../../Middlewares/AI_Runtime/Npu/ll_aton/ll_aton.c ****     ATON_ACTIV_FUNC_SET(id, t);
ARM GAS  C:\Users\Antonio\AppData\Local\Temp\ccynTwLp.s 			page 198


 6061              		.loc 1 1897 7 view .LVU2239
 6062 0098 3243     		orrs	r2, r2, r6
1889:../../Middlewares/AI_Runtime/Npu/ll_aton/ll_aton.c **** 
 6063              		.loc 1 1889 5 view .LVU2240
 6064 009a 9860     		str	r0, [r3, #8]
1889:../../Middlewares/AI_Runtime/Npu/ll_aton/ll_aton.c **** 
 6065              		.loc 1 1889 5 is_stmt 1 view .LVU2241
1889:../../Middlewares/AI_Runtime/Npu/ll_aton/ll_aton.c **** 
 6066              		.loc 1 1889 37 view .LVU2242
1891:../../Middlewares/AI_Runtime/Npu/ll_aton/ll_aton.c ****     t = ATON_ACTIV_ACTIVPARAM2_SET_PARAM2(t, conf->parameter_2);
 6067              		.loc 1 1891 5 view .LVU2243
 6068              	.LVL693:
1892:../../Middlewares/AI_Runtime/Npu/ll_aton/ll_aton.c ****     ATON_ACTIV_ACTIVPARAM2_SET(id, t);
 6069              		.loc 1 1892 5 view .LVU2244
1893:../../Middlewares/AI_Runtime/Npu/ll_aton/ll_aton.c **** 
 6070              		.loc 1 1893 5 view .LVU2245
1893:../../Middlewares/AI_Runtime/Npu/ll_aton/ll_aton.c **** 
 6071              		.loc 1 1893 5 view .LVU2246
 6072 009c 1961     		str	r1, [r3, #16]
1893:../../Middlewares/AI_Runtime/Npu/ll_aton/ll_aton.c **** 
 6073              		.loc 1 1893 5 view .LVU2247
1893:../../Middlewares/AI_Runtime/Npu/ll_aton/ll_aton.c **** 
 6074              		.loc 1 1893 38 view .LVU2248
1895:../../Middlewares/AI_Runtime/Npu/ll_aton/ll_aton.c ****     t = ATON_ACTIV_FUNC_SET_SIGNEDOP(t, (conf->signedop != 0));
 6075              		.loc 1 1895 5 view .LVU2249
 6076              	.LVL694:
1896:../../Middlewares/AI_Runtime/Npu/ll_aton/ll_aton.c ****     t = ATON_ACTIV_FUNC_SET_OUTSHIFT(t, conf->shift_o);
 6077              		.loc 1 1896 5 view .LVU2250
1897:../../Middlewares/AI_Runtime/Npu/ll_aton/ll_aton.c ****     ATON_ACTIV_FUNC_SET(id, t);
 6078              		.loc 1 1897 5 view .LVU2251
1898:../../Middlewares/AI_Runtime/Npu/ll_aton/ll_aton.c ****     break;
 6079              		.loc 1 1898 5 view .LVU2252
1898:../../Middlewares/AI_Runtime/Npu/ll_aton/ll_aton.c ****     break;
 6080              		.loc 1 1898 5 view .LVU2253
 6081 009e DA60     		str	r2, [r3, #12]
1898:../../Middlewares/AI_Runtime/Npu/ll_aton/ll_aton.c ****     break;
 6082              		.loc 1 1898 5 view .LVU2254
1898:../../Middlewares/AI_Runtime/Npu/ll_aton/ll_aton.c ****     break;
 6083              		.loc 1 1898 31 view .LVU2255
1899:../../Middlewares/AI_Runtime/Npu/ll_aton/ll_aton.c ****   case ACTIV_FUNC:
 6084              		.loc 1 1899 5 view .LVU2256
 6085              	.LVL695:
 6086              	.L420:
1963:../../Middlewares/AI_Runtime/Npu/ll_aton/ll_aton.c **** }
 6087              		.loc 1 1963 10 is_stmt 0 view .LVU2257
 6088 00a0 0020     		movs	r0, #0
 6089              	.L410:
1964:../../Middlewares/AI_Runtime/Npu/ll_aton/ll_aton.c **** #endif // ATON_ACTIV_NUM
 6090              		.loc 1 1964 1 view .LVU2258
 6091 00a2 F8BD     		pop	{r3, r4, r5, r6, r7, pc}
 6092              	.LVL696:
 6093              	.L412:
 6094              	.LBB135:
 6095              	.LBB134:
1837:../../Middlewares/AI_Runtime/Npu/ll_aton/ll_aton.c ****   }
 6096              		.loc 1 1837 5 is_stmt 1 view .LVU2259
1839:../../Middlewares/AI_Runtime/Npu/ll_aton/ll_aton.c ****   return 0;
ARM GAS  C:\Users\Antonio\AppData\Local\Temp\ccynTwLp.s 			page 199


 6097              		.loc 1 1839 3 view .LVU2260
 6098 00a4 40F22F71 		movw	r1, #1839
 6099              	.LVL697:
1839:../../Middlewares/AI_Runtime/Npu/ll_aton/ll_aton.c ****   return 0;
 6100              		.loc 1 1839 3 is_stmt 0 view .LVU2261
 6101 00a8 294B     		ldr	r3, .L422
 6102 00aa 2A4A     		ldr	r2, .L422+4
 6103 00ac 2A48     		ldr	r0, .L422+8
 6104 00ae FFF7FEFF 		bl	__assert_func
 6105              	.LVL698:
 6106              	.L413:
1839:../../Middlewares/AI_Runtime/Npu/ll_aton/ll_aton.c ****   return 0;
 6107              		.loc 1 1839 3 view .LVU2262
 6108              	.LBE134:
 6109              	.LBE135:
1876:../../Middlewares/AI_Runtime/Npu/ll_aton/ll_aton.c ****     t = ATON_ACTIV_FSUB_SET_FSUB(t, conf->fsub);
 6110              		.loc 1 1876 5 is_stmt 1 view .LVU2263
1877:../../Middlewares/AI_Runtime/Npu/ll_aton/ll_aton.c ****     ATON_ACTIV_FSUB_SET(id, t);
 6111              		.loc 1 1877 5 view .LVU2264
1877:../../Middlewares/AI_Runtime/Npu/ll_aton/ll_aton.c ****     ATON_ACTIV_FSUB_SET(id, t);
 6112              		.loc 1 1877 9 is_stmt 0 view .LVU2265
 6113 00b2 20F07F40 		bic	r0, r0, #-16777216
 6114              	.LVL699:
1878:../../Middlewares/AI_Runtime/Npu/ll_aton/ll_aton.c ****   }
 6115              		.loc 1 1878 5 is_stmt 1 view .LVU2266
1878:../../Middlewares/AI_Runtime/Npu/ll_aton/ll_aton.c ****   }
 6116              		.loc 1 1878 5 view .LVU2267
 6117 00b6 5861     		str	r0, [r3, #20]
 6118 00b8 E4E7     		b	.L414
 6119              	.LVL700:
 6120              	.L415:
1902:../../Middlewares/AI_Runtime/Npu/ll_aton/ll_aton.c ****     t = ATON_ACTIV_FUNC_SET_SIGNEDOP(t, (conf->signedop != 0));
 6121              		.loc 1 1902 5 view .LVU2268
1903:../../Middlewares/AI_Runtime/Npu/ll_aton/ll_aton.c ****     t = ATON_ACTIV_FUNC_SET_OUTSHIFT(t, conf->shift_o);
 6122              		.loc 1 1903 5 view .LVU2269
1904:../../Middlewares/AI_Runtime/Npu/ll_aton/ll_aton.c ****     t = ATON_ACTIV_FUNC_SET_BSHIFT(t, conf->shift_b);
 6123              		.loc 1 1904 5 view .LVU2270
1905:../../Middlewares/AI_Runtime/Npu/ll_aton/ll_aton.c ****     t = ATON_ACTIV_FUNC_SET_CSHIFT(t, conf->shift_c);
 6124              		.loc 1 1905 5 view .LVU2271
1905:../../Middlewares/AI_Runtime/Npu/ll_aton/ll_aton.c ****     t = ATON_ACTIV_FUNC_SET_CSHIFT(t, conf->shift_c);
 6125              		.loc 1 1905 9 is_stmt 0 view .LVU2272
 6126 00ba 95F82410 		ldrb	r1, [r5, #36]	@ zero_extendqisi2
 6127 00be 0903     		lsls	r1, r1, #12
 6128 00c0 01F4F831 		and	r1, r1, #126976
1905:../../Middlewares/AI_Runtime/Npu/ll_aton/ll_aton.c ****     t = ATON_ACTIV_FUNC_SET_CSHIFT(t, conf->shift_c);
 6129              		.loc 1 1905 7 view .LVU2273
 6130 00c4 0A43     		orrs	r2, r2, r1
1906:../../Middlewares/AI_Runtime/Npu/ll_aton/ll_aton.c ****     t = ATON_ACTIV_FUNC_SET_BWIDTH(t, conf->bwidth);
 6131              		.loc 1 1906 9 view .LVU2274
 6132 00c6 95F82510 		ldrb	r1, [r5, #37]	@ zero_extendqisi2
1905:../../Middlewares/AI_Runtime/Npu/ll_aton/ll_aton.c ****     t = ATON_ACTIV_FUNC_SET_CSHIFT(t, conf->shift_c);
 6133              		.loc 1 1905 7 view .LVU2275
 6134 00ca 3243     		orrs	r2, r2, r6
 6135              	.LVL701:
1906:../../Middlewares/AI_Runtime/Npu/ll_aton/ll_aton.c ****     t = ATON_ACTIV_FUNC_SET_BWIDTH(t, conf->bwidth);
 6136              		.loc 1 1906 5 is_stmt 1 view .LVU2276
1906:../../Middlewares/AI_Runtime/Npu/ll_aton/ll_aton.c ****     t = ATON_ACTIV_FUNC_SET_BWIDTH(t, conf->bwidth);
ARM GAS  C:\Users\Antonio\AppData\Local\Temp\ccynTwLp.s 			page 200


 6137              		.loc 1 1906 9 is_stmt 0 view .LVU2277
 6138 00cc 8901     		lsls	r1, r1, #6
 6139 00ce 01F47C61 		and	r1, r1, #4032
1906:../../Middlewares/AI_Runtime/Npu/ll_aton/ll_aton.c ****     t = ATON_ACTIV_FUNC_SET_BWIDTH(t, conf->bwidth);
 6140              		.loc 1 1906 7 view .LVU2278
 6141 00d2 1143     		orrs	r1, r1, r2
 6142              	.LVL702:
1907:../../Middlewares/AI_Runtime/Npu/ll_aton/ll_aton.c ****     ATON_ACTIV_FUNC_SET(id, t);
 6143              		.loc 1 1907 5 is_stmt 1 view .LVU2279
1907:../../Middlewares/AI_Runtime/Npu/ll_aton/ll_aton.c ****     ATON_ACTIV_FUNC_SET(id, t);
 6144              		.loc 1 1907 9 is_stmt 0 view .LVU2280
 6145 00d4 95F82720 		ldrb	r2, [r5, #39]	@ zero_extendqisi2
 6146 00d8 D205     		lsls	r2, r2, #23
 6147 00da 02F06072 		and	r2, r2, #58720256
1907:../../Middlewares/AI_Runtime/Npu/ll_aton/ll_aton.c ****     ATON_ACTIV_FUNC_SET(id, t);
 6148              		.loc 1 1907 7 view .LVU2281
 6149 00de 0A43     		orrs	r2, r2, r1
 6150              	.LVL703:
1908:../../Middlewares/AI_Runtime/Npu/ll_aton/ll_aton.c **** 
 6151              		.loc 1 1908 5 is_stmt 1 view .LVU2282
1908:../../Middlewares/AI_Runtime/Npu/ll_aton/ll_aton.c **** 
 6152              		.loc 1 1908 5 view .LVU2283
 6153 00e0 DA60     		str	r2, [r3, #12]
1908:../../Middlewares/AI_Runtime/Npu/ll_aton/ll_aton.c **** 
 6154              		.loc 1 1908 5 view .LVU2284
1908:../../Middlewares/AI_Runtime/Npu/ll_aton/ll_aton.c **** 
 6155              		.loc 1 1908 31 view .LVU2285
1910:../../Middlewares/AI_Runtime/Npu/ll_aton/ll_aton.c ****     t = ATON_ACTIV_ACTIVPARAM_SET_PARAM(t, conf->parameter);
 6156              		.loc 1 1910 5 view .LVU2286
 6157              	.LVL704:
1911:../../Middlewares/AI_Runtime/Npu/ll_aton/ll_aton.c ****     t = ATON_ACTIV_ACTIVPARAM_SET_FUNC(t, conf->shift_norm);
 6158              		.loc 1 1911 5 view .LVU2287
1912:../../Middlewares/AI_Runtime/Npu/ll_aton/ll_aton.c ****     ATON_ACTIV_ACTIVPARAM_SET(id, t);
 6159              		.loc 1 1912 5 view .LVU2288
1912:../../Middlewares/AI_Runtime/Npu/ll_aton/ll_aton.c ****     ATON_ACTIV_ACTIVPARAM_SET(id, t);
 6160              		.loc 1 1912 9 is_stmt 0 view .LVU2289
 6161 00e2 95F82620 		ldrb	r2, [r5, #38]	@ zero_extendqisi2
 6162 00e6 2969     		ldr	r1, [r5, #16]
 6163 00e8 1204     		lsls	r2, r2, #16
 6164 00ea 02F47022 		and	r2, r2, #983040
1912:../../Middlewares/AI_Runtime/Npu/ll_aton/ll_aton.c ****     ATON_ACTIV_ACTIVPARAM_SET(id, t);
 6165              		.loc 1 1912 7 view .LVU2290
 6166 00ee 0243     		orrs	r2, r2, r0
 6167              	.LVL705:
1913:../../Middlewares/AI_Runtime/Npu/ll_aton/ll_aton.c **** 
 6168              		.loc 1 1913 5 is_stmt 1 view .LVU2291
1913:../../Middlewares/AI_Runtime/Npu/ll_aton/ll_aton.c **** 
 6169              		.loc 1 1913 5 view .LVU2292
 6170 00f0 9A60     		str	r2, [r3, #8]
1913:../../Middlewares/AI_Runtime/Npu/ll_aton/ll_aton.c **** 
 6171              		.loc 1 1913 5 view .LVU2293
1913:../../Middlewares/AI_Runtime/Npu/ll_aton/ll_aton.c **** 
 6172              		.loc 1 1913 37 view .LVU2294
 6173              	.LBB136:
1916:../../Middlewares/AI_Runtime/Npu/ll_aton/ll_aton.c ****       unsigned ROM0_rows = conf->ROM0_nbytes / (1 * 1);
 6174              		.loc 1 1916 7 view .LVU2295
 6175              	.LVL706:
ARM GAS  C:\Users\Antonio\AppData\Local\Temp\ccynTwLp.s 			page 201


1917:../../Middlewares/AI_Runtime/Npu/ll_aton/ll_aton.c ****       for (int i = 0; i < ROM0_rows; i++)
 6176              		.loc 1 1917 7 view .LVU2296
1918:../../Middlewares/AI_Runtime/Npu/ll_aton/ll_aton.c ****       {
 6177              		.loc 1 1918 7 view .LVU2297
 6178              	.LBB137:
1918:../../Middlewares/AI_Runtime/Npu/ll_aton/ll_aton.c ****       {
 6179              		.loc 1 1918 12 view .LVU2298
1918:../../Middlewares/AI_Runtime/Npu/ll_aton/ll_aton.c ****       {
 6180              		.loc 1 1918 12 is_stmt 0 view .LVU2299
 6181 00f2 EA69     		ldr	r2, [r5, #28]
 6182              	.LVL707:
1918:../../Middlewares/AI_Runtime/Npu/ll_aton/ll_aton.c ****       {
 6183              		.loc 1 1918 12 view .LVU2300
 6184 00f4 03F58060 		add	r0, r3, #1024
 6185 00f8 0132     		adds	r2, r2, #1
 6186              	.LVL708:
 6187              	.L416:
1918:../../Middlewares/AI_Runtime/Npu/ll_aton/ll_aton.c ****       {
 6188              		.loc 1 1918 25 is_stmt 1 discriminator 1 view .LVU2301
 6189 00fa 013A     		subs	r2, r2, #1
 6190 00fc 1FD1     		bne	.L417
 6191              	.LBE137:
 6192              	.LBE136:
 6193              	.LBB139:
1926:../../Middlewares/AI_Runtime/Npu/ll_aton/ll_aton.c ****       unsigned ROM1_rows = conf->ROM1_nbytes / (3 * 2);
 6194              		.loc 1 1926 7 view .LVU2302
 6195              	.LVL709:
1927:../../Middlewares/AI_Runtime/Npu/ll_aton/ll_aton.c ****       for (int i = 0; i < ROM1_rows; i++)
 6196              		.loc 1 1927 7 view .LVU2303
1928:../../Middlewares/AI_Runtime/Npu/ll_aton/ll_aton.c ****       {
 6197              		.loc 1 1928 7 view .LVU2304
 6198              	.LBB140:
1928:../../Middlewares/AI_Runtime/Npu/ll_aton/ll_aton.c ****       {
 6199              		.loc 1 1928 12 view .LVU2305
1928:../../Middlewares/AI_Runtime/Npu/ll_aton/ll_aton.c ****       {
 6200              		.loc 1 1928 12 is_stmt 0 view .LVU2306
 6201              	.LBE140:
1927:../../Middlewares/AI_Runtime/Npu/ll_aton/ll_aton.c ****       for (int i = 0; i < ROM1_rows; i++)
 6202              		.loc 1 1927 16 view .LVU2307
 6203 00fe 0622     		movs	r2, #6
 6204 0100 296A     		ldr	r1, [r5, #32]
 6205              	.LVL710:
1927:../../Middlewares/AI_Runtime/Npu/ll_aton/ll_aton.c ****       for (int i = 0; i < ROM1_rows; i++)
 6206              		.loc 1 1927 16 view .LVU2308
 6207 0102 03F60403 		addw	r3, r3, #2052
 6208 0106 B1FBF2F1 		udiv	r1, r1, r2
 6209              	.LVL711:
1927:../../Middlewares/AI_Runtime/Npu/ll_aton/ll_aton.c ****       for (int i = 0; i < ROM1_rows; i++)
 6210              		.loc 1 1927 16 view .LVU2309
 6211 010a 144A     		ldr	r2, .L422+12
 6212 010c 01EB4421 		add	r1, r1, r4, lsl #9
 6213              	.LVL712:
1927:../../Middlewares/AI_Runtime/Npu/ll_aton/ll_aton.c ****       for (int i = 0; i < ROM1_rows; i++)
 6214              		.loc 1 1927 16 view .LVU2310
 6215 0110 C3EBC101 		rsb	r1, r3, r1, lsl #3
 6216 0114 0A44     		add	r2, r2, r1
 6217 0116 D208     		lsrs	r2, r2, #3
ARM GAS  C:\Users\Antonio\AppData\Local\Temp\ccynTwLp.s 			page 202


 6218 0118 6869     		ldr	r0, [r5, #20]
 6219 011a 0132     		adds	r2, r2, #1
 6220              	.LVL713:
 6221              	.L418:
 6222              	.LBB141:
1928:../../Middlewares/AI_Runtime/Npu/ll_aton/ll_aton.c ****       {
 6223              		.loc 1 1928 25 is_stmt 1 discriminator 1 view .LVU2311
 6224 011c 013A     		subs	r2, r2, #1
 6225 011e 00F10600 		add	r0, r0, #6
 6226 0122 BDD0     		beq	.L420
1930:../../Middlewares/AI_Runtime/Npu/ll_aton/ll_aton.c ****         t = ATON_ACTIV_ROM1_AB_SET_A(t, R1p[3 * i + 0]);
 6227              		.loc 1 1930 9 view .LVU2312
 6228              	.LVL714:
1931:../../Middlewares/AI_Runtime/Npu/ll_aton/ll_aton.c ****         t = ATON_ACTIV_ROM1_AB_SET_B(t, R1p[3 * i + 1]);
 6229              		.loc 1 1931 9 view .LVU2313
1932:../../Middlewares/AI_Runtime/Npu/ll_aton/ll_aton.c ****         ATON_ACTIV_ROM1_AB_SET(id, i, t);
 6230              		.loc 1 1932 9 view .LVU2314
1932:../../Middlewares/AI_Runtime/Npu/ll_aton/ll_aton.c ****         ATON_ACTIV_ROM1_AB_SET(id, i, t);
 6231              		.loc 1 1932 13 is_stmt 0 view .LVU2315
 6232 0124 30F8044C 		ldrh	r4, [r0, #-4]
1931:../../Middlewares/AI_Runtime/Npu/ll_aton/ll_aton.c ****         t = ATON_ACTIV_ROM1_AB_SET_B(t, R1p[3 * i + 1]);
 6233              		.loc 1 1931 13 view .LVU2316
 6234 0128 30F8061C 		ldrh	r1, [r0, #-6]
 6235              	.LVL715:
1932:../../Middlewares/AI_Runtime/Npu/ll_aton/ll_aton.c ****         ATON_ACTIV_ROM1_AB_SET(id, i, t);
 6236              		.loc 1 1932 11 view .LVU2317
 6237 012c 41EA0441 		orr	r1, r1, r4, lsl #16
 6238              	.LVL716:
1933:../../Middlewares/AI_Runtime/Npu/ll_aton/ll_aton.c ****         t = ATON_ACTIV_ROM1_C_DT;
 6239              		.loc 1 1933 9 is_stmt 1 view .LVU2318
1933:../../Middlewares/AI_Runtime/Npu/ll_aton/ll_aton.c ****         t = ATON_ACTIV_ROM1_C_DT;
 6240              		.loc 1 1933 9 view .LVU2319
 6241 0130 43F8041C 		str	r1, [r3, #-4]
1933:../../Middlewares/AI_Runtime/Npu/ll_aton/ll_aton.c ****         t = ATON_ACTIV_ROM1_C_DT;
 6242              		.loc 1 1933 9 view .LVU2320
1934:../../Middlewares/AI_Runtime/Npu/ll_aton/ll_aton.c ****         t = ATON_ACTIV_ROM1_C_SET_C(t, R1p[3 * i + 2]);
 6243              		.loc 1 1934 9 view .LVU2321
 6244              	.LVL717:
1935:../../Middlewares/AI_Runtime/Npu/ll_aton/ll_aton.c ****         ATON_ACTIV_ROM1_C_SET(id, i, t);
 6245              		.loc 1 1935 9 view .LVU2322
1935:../../Middlewares/AI_Runtime/Npu/ll_aton/ll_aton.c ****         ATON_ACTIV_ROM1_C_SET(id, i, t);
 6246              		.loc 1 1935 13 is_stmt 0 view .LVU2323
 6247 0134 30F8021C 		ldrh	r1, [r0, #-2]
 6248              	.LVL718:
1936:../../Middlewares/AI_Runtime/Npu/ll_aton/ll_aton.c ****       }
 6249              		.loc 1 1936 9 is_stmt 1 view .LVU2324
1936:../../Middlewares/AI_Runtime/Npu/ll_aton/ll_aton.c ****       }
 6250              		.loc 1 1936 9 view .LVU2325
 6251 0138 43F8081B 		str	r1, [r3], #8
1936:../../Middlewares/AI_Runtime/Npu/ll_aton/ll_aton.c ****       }
 6252              		.loc 1 1936 9 view .LVU2326
1928:../../Middlewares/AI_Runtime/Npu/ll_aton/ll_aton.c ****       {
 6253              		.loc 1 1928 39 discriminator 3 view .LVU2327
 6254 013c EEE7     		b	.L418
 6255              	.LVL719:
 6256              	.L417:
1928:../../Middlewares/AI_Runtime/Npu/ll_aton/ll_aton.c ****       {
ARM GAS  C:\Users\Antonio\AppData\Local\Temp\ccynTwLp.s 			page 203


 6257              		.loc 1 1928 39 is_stmt 0 discriminator 3 view .LVU2328
 6258              	.LBE141:
 6259              	.LBE139:
 6260              	.LBB142:
 6261              	.LBB138:
1920:../../Middlewares/AI_Runtime/Npu/ll_aton/ll_aton.c ****         t = ATON_ACTIV_ROM0_SET_ENTRY(t, R0p[i]);
 6262              		.loc 1 1920 9 is_stmt 1 view .LVU2329
1921:../../Middlewares/AI_Runtime/Npu/ll_aton/ll_aton.c ****         ATON_ACTIV_ROM0_SET(id, i, t);
 6263              		.loc 1 1921 9 view .LVU2330
1921:../../Middlewares/AI_Runtime/Npu/ll_aton/ll_aton.c ****         ATON_ACTIV_ROM0_SET(id, i, t);
 6264              		.loc 1 1921 13 is_stmt 0 view .LVU2331
 6265 013e 11F8016B 		ldrb	r6, [r1], #1	@ zero_extendqisi2
 6266              	.LVL720:
1922:../../Middlewares/AI_Runtime/Npu/ll_aton/ll_aton.c ****       }
 6267              		.loc 1 1922 9 is_stmt 1 view .LVU2332
1922:../../Middlewares/AI_Runtime/Npu/ll_aton/ll_aton.c ****       }
 6268              		.loc 1 1922 9 view .LVU2333
 6269 0142 40F8046B 		str	r6, [r0], #4
1922:../../Middlewares/AI_Runtime/Npu/ll_aton/ll_aton.c ****       }
 6270              		.loc 1 1922 9 view .LVU2334
1918:../../Middlewares/AI_Runtime/Npu/ll_aton/ll_aton.c ****       {
 6271              		.loc 1 1918 39 discriminator 3 view .LVU2335
 6272              	.LVL721:
1918:../../Middlewares/AI_Runtime/Npu/ll_aton/ll_aton.c ****       {
 6273              		.loc 1 1918 39 is_stmt 0 discriminator 3 view .LVU2336
 6274 0146 D8E7     		b	.L416
 6275              	.LVL722:
 6276              	.L421:
1918:../../Middlewares/AI_Runtime/Npu/ll_aton/ll_aton.c ****       {
 6277              		.loc 1 1918 39 discriminator 3 view .LVU2337
 6278              	.LBE138:
 6279              	.LBE142:
1854:../../Middlewares/AI_Runtime/Npu/ll_aton/ll_aton.c **** 
 6280              		.loc 1 1854 12 view .LVU2338
 6281 0148 4FF0FF30 		mov	r0, #-1
 6282              	.LVL723:
1854:../../Middlewares/AI_Runtime/Npu/ll_aton/ll_aton.c **** 
 6283              		.loc 1 1854 12 view .LVU2339
 6284 014c A9E7     		b	.L410
 6285              	.L423:
 6286 014e 00BF     		.align	2
 6287              	.L422:
 6288 0150 A3000000 		.word	.LC7
 6289 0154 00000000 		.word	__func__.3
 6290 0158 05000000 		.word	.LC4
 6291 015c 04580F58 		.word	1477400580
 6292              		.cfi_endproc
 6293              	.LFE4843:
 6295              		.section	.text.LL_Arithacc_Init,"ax",%progbits
 6296              		.align	1
 6297              		.global	LL_Arithacc_Init
 6298              		.syntax unified
 6299              		.thumb
 6300              		.thumb_func
 6302              	LL_Arithacc_Init:
 6303              	.LVL724:
 6304              	.LFB4845:
ARM GAS  C:\Users\Antonio\AppData\Local\Temp\ccynTwLp.s 			page 204


2019:../../Middlewares/AI_Runtime/Npu/ll_aton/ll_aton.c ****   uint32_t t;
 6305              		.loc 1 2019 1 is_stmt 1 view -0
 6306              		.cfi_startproc
 6307              		@ args = 0, pretend = 0, frame = 40
 6308              		@ frame_needed = 0, uses_anonymous_args = 0
2020:../../Middlewares/AI_Runtime/Npu/ll_aton/ll_aton.c ****   char sshift;
 6309              		.loc 1 2020 3 view .LVU2341
2021:../../Middlewares/AI_Runtime/Npu/ll_aton/ll_aton.c **** 
 6310              		.loc 1 2021 3 view .LVU2342
2023:../../Middlewares/AI_Runtime/Npu/ll_aton/ll_aton.c ****     return LL_ATON_INVALID_ID;
 6311              		.loc 1 2023 3 view .LVU2343
2019:../../Middlewares/AI_Runtime/Npu/ll_aton/ll_aton.c ****   uint32_t t;
 6312              		.loc 1 2019 1 is_stmt 0 view .LVU2344
 6313 0000 2DE9F04F 		push	{r4, r5, r6, r7, r8, r9, r10, fp, lr}
 6314              		.cfi_def_cfa_offset 36
 6315              		.cfi_offset 4, -36
 6316              		.cfi_offset 5, -32
 6317              		.cfi_offset 6, -28
 6318              		.cfi_offset 7, -24
 6319              		.cfi_offset 8, -20
 6320              		.cfi_offset 9, -16
 6321              		.cfi_offset 10, -12
 6322              		.cfi_offset 11, -8
 6323              		.cfi_offset 14, -4
2023:../../Middlewares/AI_Runtime/Npu/ll_aton/ll_aton.c ****     return LL_ATON_INVALID_ID;
 6324              		.loc 1 2023 6 view .LVU2345
 6325 0004 0328     		cmp	r0, #3
2019:../../Middlewares/AI_Runtime/Npu/ll_aton/ll_aton.c ****   uint32_t t;
 6326              		.loc 1 2019 1 view .LVU2346
 6327 0006 0546     		mov	r5, r0
 6328 0008 0C46     		mov	r4, r1
 6329 000a 8BB0     		sub	sp, sp, #44
 6330              		.cfi_def_cfa_offset 80
2023:../../Middlewares/AI_Runtime/Npu/ll_aton/ll_aton.c ****     return LL_ATON_INVALID_ID;
 6331              		.loc 1 2023 6 view .LVU2347
 6332 000c 00F38681 		bgt	.L452
2027:../../Middlewares/AI_Runtime/Npu/ll_aton/ll_aton.c ****     sshift = 16;
 6333              		.loc 1 2027 3 is_stmt 1 view .LVU2348
2030:../../Middlewares/AI_Runtime/Npu/ll_aton/ll_aton.c **** 
 6334              		.loc 1 2030 5 view .LVU2349
 6335              	.LVL725:
2032:../../Middlewares/AI_Runtime/Npu/ll_aton/ll_aton.c **** 
 6336              		.loc 1 2032 3 view .LVU2350
 6337 0010 1230     		adds	r0, r0, #18
 6338              	.LVL726:
2032:../../Middlewares/AI_Runtime/Npu/ll_aton/ll_aton.c **** 
 6339              		.loc 1 2032 3 is_stmt 0 view .LVU2351
 6340 0012 FFF7FEFF 		bl	LL_ATON_EnableClock
 6341              	.LVL727:
2034:../../Middlewares/AI_Runtime/Npu/ll_aton/ll_aton.c ****   ATON_ARITH_CTRL_SET(id, t);
 6342              		.loc 1 2034 3 is_stmt 1 view .LVU2352
2035:../../Middlewares/AI_Runtime/Npu/ll_aton/ll_aton.c **** 
 6343              		.loc 1 2035 3 view .LVU2353
2035:../../Middlewares/AI_Runtime/Npu/ll_aton/ll_aton.c **** 
 6344              		.loc 1 2035 3 view .LVU2354
 6345 0016 4FF00063 		mov	r3, #134217728
2038:../../Middlewares/AI_Runtime/Npu/ll_aton/ll_aton.c ****   t = ATON_ARITH_CTRL_SET_CNT2(t, (conf->scalar == 0) && (conf->bcast == ARITH_BCAST_CHAN));
ARM GAS  C:\Users\Antonio\AppData\Local\Temp\ccynTwLp.s 			page 205


 6346              		.loc 1 2038 7 is_stmt 0 view .LVU2355
 6347 001a E279     		ldrb	r2, [r4, #7]	@ zero_extendqisi2
2035:../../Middlewares/AI_Runtime/Npu/ll_aton/ll_aton.c **** 
 6348              		.loc 1 2035 3 view .LVU2356
 6349 001c 05F5B025 		add	r5, r5, #360448
 6350              	.LVL728:
2035:../../Middlewares/AI_Runtime/Npu/ll_aton/ll_aton.c **** 
 6351              		.loc 1 2035 3 view .LVU2357
 6352 0020 F735     		adds	r5, r5, #247
 6353              	.LVL729:
2038:../../Middlewares/AI_Runtime/Npu/ll_aton/ll_aton.c ****   t = ATON_ARITH_CTRL_SET_CNT2(t, (conf->scalar == 0) && (conf->bcast == ARITH_BCAST_CHAN));
 6354              		.loc 1 2038 7 view .LVU2358
 6355 0022 02F00107 		and	r7, r2, #1
2035:../../Middlewares/AI_Runtime/Npu/ll_aton/ll_aton.c **** 
 6356              		.loc 1 2035 3 view .LVU2359
 6357 0026 2D03     		lsls	r5, r5, #12
 6358              	.LVL730:
2038:../../Middlewares/AI_Runtime/Npu/ll_aton/ll_aton.c ****   t = ATON_ARITH_CTRL_SET_CNT2(t, (conf->scalar == 0) && (conf->bcast == ARITH_BCAST_CHAN));
 6359              		.loc 1 2038 7 view .LVU2360
 6360 0028 87F0010E 		eor	lr, r7, #1
2039:../../Middlewares/AI_Runtime/Npu/ll_aton/ll_aton.c ****   t = ATON_ARITH_CTRL_SET_CNT3(t, (conf->scalar == 0) && (conf->bcast == ARITH_BCAST_CHAN));
 6361              		.loc 1 2039 7 view .LVU2361
 6362 002c 12F00100 		ands	r0, r2, #1
 6363              	.LVL731:
2035:../../Middlewares/AI_Runtime/Npu/ll_aton/ll_aton.c **** 
 6364              		.loc 1 2035 3 view .LVU2362
 6365 0030 2B60     		str	r3, [r5]
2035:../../Middlewares/AI_Runtime/Npu/ll_aton/ll_aton.c **** 
 6366              		.loc 1 2035 3 is_stmt 1 view .LVU2363
2035:../../Middlewares/AI_Runtime/Npu/ll_aton/ll_aton.c **** 
 6367              		.loc 1 2035 29 view .LVU2364
2037:../../Middlewares/AI_Runtime/Npu/ll_aton/ll_aton.c ****   t = ATON_ARITH_CTRL_SET_CNT1(t, (conf->scalar == 0)); // these must be handled yet FIXME !!!
 6368              		.loc 1 2037 3 view .LVU2365
2038:../../Middlewares/AI_Runtime/Npu/ll_aton/ll_aton.c ****   t = ATON_ARITH_CTRL_SET_CNT2(t, (conf->scalar == 0) && (conf->bcast == ARITH_BCAST_CHAN));
 6369              		.loc 1 2038 3 view .LVU2366
2038:../../Middlewares/AI_Runtime/Npu/ll_aton/ll_aton.c ****   t = ATON_ARITH_CTRL_SET_CNT2(t, (conf->scalar == 0) && (conf->bcast == ARITH_BCAST_CHAN));
 6370              		.loc 1 2038 7 is_stmt 0 view .LVU2367
 6371 0032 4FEA8E0E 		lsl	lr, lr, #2
 6372              	.LVL732:
2039:../../Middlewares/AI_Runtime/Npu/ll_aton/ll_aton.c ****   t = ATON_ARITH_CTRL_SET_CNT3(t, (conf->scalar == 0) && (conf->bcast == ARITH_BCAST_CHAN));
 6373              		.loc 1 2039 3 is_stmt 1 view .LVU2368
2039:../../Middlewares/AI_Runtime/Npu/ll_aton/ll_aton.c ****   t = ATON_ARITH_CTRL_SET_CNT3(t, (conf->scalar == 0) && (conf->bcast == ARITH_BCAST_CHAN));
 6374              		.loc 1 2039 7 is_stmt 0 view .LVU2369
 6375 0036 40F09D80 		bne	.L453
2039:../../Middlewares/AI_Runtime/Npu/ll_aton/ll_aton.c ****   t = ATON_ARITH_CTRL_SET_CNT3(t, (conf->scalar == 0) && (conf->bcast == ARITH_BCAST_CHAN));
 6376              		.loc 1 2039 7 discriminator 1 view .LVU2370
 6377 003a 617A     		ldrb	r1, [r4, #9]	@ zero_extendqisi2
 6378 003c 4E1E     		subs	r6, r1, #1
 6379 003e 7142     		rsbs	r1, r6, #0
 6380 0040 7141     		adcs	r1, r1, r6
 6381              	.L426:
 6382              	.LVL733:
2040:../../Middlewares/AI_Runtime/Npu/ll_aton/ll_aton.c ****   t = ATON_ARITH_CTRL_SET_ROUND(t, (conf->rounding_o != 0));
 6383              		.loc 1 2040 3 is_stmt 1 view .LVU2371
2041:../../Middlewares/AI_Runtime/Npu/ll_aton/ll_aton.c ****   t = ATON_ARITH_CTRL_SET_ORNDMODE(t, (conf->relu_mode_o << 1) | conf->round_mode_o);
 6384              		.loc 1 2041 3 view .LVU2372
2041:../../Middlewares/AI_Runtime/Npu/ll_aton/ll_aton.c ****   t = ATON_ARITH_CTRL_SET_ORNDMODE(t, (conf->relu_mode_o << 1) | conf->round_mode_o);
ARM GAS  C:\Users\Antonio\AppData\Local\Temp\ccynTwLp.s 			page 206


 6385              		.loc 1 2041 7 is_stmt 0 view .LVU2373
 6386 0042 6679     		ldrb	r6, [r4, #5]	@ zero_extendqisi2
 6387 0044 4FEA461C 		lsl	ip, r6, #5
 6388              	.LVL734:
2042:../../Middlewares/AI_Runtime/Npu/ll_aton/ll_aton.c ****   // t = ATON_ARITH_CTRL_SET_OBYTES(t,((conf->dataw_o + 7) >> 3));
 6389              		.loc 1 2042 3 is_stmt 1 view .LVU2374
2044:../../Middlewares/AI_Runtime/Npu/ll_aton/ll_aton.c ****   t = ATON_ARITH_CTRL_SET_SAT(t, (conf->saturation_o != 0));
 6390              		.loc 1 2044 3 view .LVU2375
2045:../../Middlewares/AI_Runtime/Npu/ll_aton/ll_aton.c ****   t = ATON_ARITH_CTRL_SET_COEFFA(t, (conf->scalar == 0));
 6391              		.loc 1 2045 3 view .LVU2376
2041:../../Middlewares/AI_Runtime/Npu/ll_aton/ll_aton.c ****   t = ATON_ARITH_CTRL_SET_ORNDMODE(t, (conf->relu_mode_o << 1) | conf->round_mode_o);
 6392              		.loc 1 2041 7 is_stmt 0 view .LVU2377
 6393 0048 0CF02003 		and	r3, ip, #32
 6394              	.LVL735:
2044:../../Middlewares/AI_Runtime/Npu/ll_aton/ll_aton.c ****   t = ATON_ARITH_CTRL_SET_SAT(t, (conf->saturation_o != 0));
 6395              		.loc 1 2044 7 view .LVU2378
 6396 004c C6F30118 		ubfx	r8, r6, #4, #2
2045:../../Middlewares/AI_Runtime/Npu/ll_aton/ll_aton.c ****   t = ATON_ARITH_CTRL_SET_COEFFA(t, (conf->scalar == 0));
 6397              		.loc 1 2045 5 view .LVU2379
 6398 0050 43EA0E03 		orr	r3, r3, lr
 6399              	.LVL736:
2045:../../Middlewares/AI_Runtime/Npu/ll_aton/ll_aton.c ****   t = ATON_ARITH_CTRL_SET_COEFFA(t, (conf->scalar == 0));
 6400              		.loc 1 2045 5 view .LVU2380
 6401 0054 43EA8863 		orr	r3, r3, r8, lsl #26
2045:../../Middlewares/AI_Runtime/Npu/ll_aton/ll_aton.c ****   t = ATON_ARITH_CTRL_SET_COEFFA(t, (conf->scalar == 0));
 6402              		.loc 1 2045 7 view .LVU2381
 6403 0058 0CF0400C 		and	ip, ip, #64
 6404              	.LVL737:
2045:../../Middlewares/AI_Runtime/Npu/ll_aton/ll_aton.c ****   t = ATON_ARITH_CTRL_SET_COEFFA(t, (conf->scalar == 0));
 6405              		.loc 1 2045 5 view .LVU2382
 6406 005c 43EA0C03 		orr	r3, r3, ip
2042:../../Middlewares/AI_Runtime/Npu/ll_aton/ll_aton.c ****   // t = ATON_ARITH_CTRL_SET_OBYTES(t,((conf->dataw_o + 7) >> 3));
 6407              		.loc 1 2042 7 view .LVU2383
 6408 0060 C6F38106 		ubfx	r6, r6, #2, #2
 6409              	.LVL738:
2045:../../Middlewares/AI_Runtime/Npu/ll_aton/ll_aton.c ****   t = ATON_ARITH_CTRL_SET_COEFFA(t, (conf->scalar == 0));
 6410              		.loc 1 2045 5 view .LVU2384
 6411 0064 43EA0663 		orr	r3, r3, r6, lsl #24
 6412 0068 43EAC103 		orr	r3, r3, r1, lsl #3
 6413 006c 43EA0113 		orr	r3, r3, r1, lsl #4
 6414              	.LVL739:
2046:../../Middlewares/AI_Runtime/Npu/ll_aton/ll_aton.c ****   t = ATON_ARITH_CTRL_SET_COEFFB(t, (conf->scalar == 0));
 6415              		.loc 1 2046 3 is_stmt 1 view .LVU2385
2046:../../Middlewares/AI_Runtime/Npu/ll_aton/ll_aton.c ****   t = ATON_ARITH_CTRL_SET_COEFFB(t, (conf->scalar == 0));
 6416              		.loc 1 2046 7 is_stmt 0 view .LVU2386
 6417 0070 002F     		cmp	r7, #0
 6418 0072 40F08180 		bne	.L454
 6419              	.LVL740:
2047:../../Middlewares/AI_Runtime/Npu/ll_aton/ll_aton.c ****   t = ATON_ARITH_CTRL_SET_COEFFC(t, (conf->scalar == 0));
 6420              		.loc 1 2047 3 is_stmt 1 view .LVU2387
2048:../../Middlewares/AI_Runtime/Npu/ll_aton/ll_aton.c ****   t = ATON_ARITH_CTRL_SET_DUALIN(t, (conf->dualinput != 0));
 6421              		.loc 1 2048 7 is_stmt 0 discriminator 2 view .LVU2388
 6422 0076 4FF48007 		mov	r7, #4194304
2047:../../Middlewares/AI_Runtime/Npu/ll_aton/ll_aton.c ****   t = ATON_ARITH_CTRL_SET_COEFFC(t, (conf->scalar == 0));
 6423              		.loc 1 2047 5 discriminator 4 view .LVU2389
 6424 007a 43F40013 		orr	r3, r3, #2097152
 6425              	.LVL741:
ARM GAS  C:\Users\Antonio\AppData\Local\Temp\ccynTwLp.s 			page 207


2047:../../Middlewares/AI_Runtime/Npu/ll_aton/ll_aton.c ****   t = ATON_ARITH_CTRL_SET_COEFFC(t, (conf->scalar == 0));
 6426              		.loc 1 2047 5 discriminator 4 view .LVU2390
 6427 007e 43F08003 		orr	r3, r3, #128
 6428              	.LVL742:
2048:../../Middlewares/AI_Runtime/Npu/ll_aton/ll_aton.c ****   t = ATON_ARITH_CTRL_SET_DUALIN(t, (conf->dualinput != 0));
 6429              		.loc 1 2048 3 is_stmt 1 view .LVU2391
 6430              	.L427:
2049:../../Middlewares/AI_Runtime/Npu/ll_aton/ll_aton.c ****   t = ATON_ARITH_CTRL_SET_COMBINEBC(t, (conf->combinebc != 0));
 6431              		.loc 1 2049 3 view .LVU2392
2050:../../Middlewares/AI_Runtime/Npu/ll_aton/ll_aton.c **** #ifdef ATON_ARITH_CTRL_SET_CLIPOUT
 6432              		.loc 1 2050 3 view .LVU2393
2050:../../Middlewares/AI_Runtime/Npu/ll_aton/ll_aton.c **** #ifdef ATON_ARITH_CTRL_SET_CLIPOUT
 6433              		.loc 1 2050 7 is_stmt 0 view .LVU2394
 6434 0082 E178     		ldrb	r1, [r4, #3]	@ zero_extendqisi2
2054:../../Middlewares/AI_Runtime/Npu/ll_aton/ll_aton.c ****   if (conf->operation == ARITH_NOT_X)
 6435              		.loc 1 2054 7 view .LVU2395
 6436 0084 94F808C0 		ldrb	ip, [r4, #8]	@ zero_extendqisi2
2050:../../Middlewares/AI_Runtime/Npu/ll_aton/ll_aton.c **** #ifdef ATON_ARITH_CTRL_SET_CLIPOUT
 6437              		.loc 1 2050 7 view .LVU2396
 6438 0088 0E07     		lsls	r6, r1, #28
 6439              	.LVL743:
2052:../../Middlewares/AI_Runtime/Npu/ll_aton/ll_aton.c **** #endif
 6440              		.loc 1 2052 3 is_stmt 1 view .LVU2397
2049:../../Middlewares/AI_Runtime/Npu/ll_aton/ll_aton.c ****   t = ATON_ARITH_CTRL_SET_COMBINEBC(t, (conf->combinebc != 0));
 6441              		.loc 1 2049 7 is_stmt 0 view .LVU2398
 6442 008a D201     		lsls	r2, r2, #7
 6443              	.LVL744:
2049:../../Middlewares/AI_Runtime/Npu/ll_aton/ll_aton.c ****   t = ATON_ARITH_CTRL_SET_COMBINEBC(t, (conf->combinebc != 0));
 6444              		.loc 1 2049 7 view .LVU2399
 6445 008c 02F48072 		and	r2, r2, #256
2052:../../Middlewares/AI_Runtime/Npu/ll_aton/ll_aton.c **** #endif
 6446              		.loc 1 2052 7 view .LVU2400
 6447 0090 06F04056 		and	r6, r6, #805306368
 6448              	.LVL745:
2052:../../Middlewares/AI_Runtime/Npu/ll_aton/ll_aton.c **** #endif
 6449              		.loc 1 2052 7 view .LVU2401
 6450 0094 1643     		orrs	r6, r6, r2
 6451              	.LVL746:
2054:../../Middlewares/AI_Runtime/Npu/ll_aton/ll_aton.c ****   if (conf->operation == ARITH_NOT_X)
 6452              		.loc 1 2054 3 is_stmt 1 view .LVU2402
 6453              	.LBB147:
 6454              	.LBI147:
1969:../../Middlewares/AI_Runtime/Npu/ll_aton/ll_aton.c **** {
 6455              		.loc 1 1969 16 view .LVU2403
 6456              	.LBB148:
1971:../../Middlewares/AI_Runtime/Npu/ll_aton/ll_aton.c ****   {
 6457              		.loc 1 1971 3 view .LVU2404
 6458 0096 0CF1FF32 		add	r2, ip, #-1
 6459 009a D2B2     		uxtb	r2, r2
 6460 009c 0F2A     		cmp	r2, #15
 6461 009e 6DD8     		bhi	.L428
 6462              	.LVL747:
1971:../../Middlewares/AI_Runtime/Npu/ll_aton/ll_aton.c ****   {
 6463              		.loc 1 1971 3 is_stmt 0 view .LVU2405
 6464              	.LBE148:
 6465              	.LBE147:
2054:../../Middlewares/AI_Runtime/Npu/ll_aton/ll_aton.c ****   if (conf->operation == ARITH_NOT_X)
ARM GAS  C:\Users\Antonio\AppData\Local\Temp\ccynTwLp.s 			page 208


 6466              		.loc 1 2054 7 discriminator 1 view .LVU2406
 6467 00a0 DFF894E2 		ldr	lr, .L467+16
2057:../../Middlewares/AI_Runtime/Npu/ll_aton/ll_aton.c ****   }
 6468              		.loc 1 2057 7 view .LVU2407
 6469 00a4 BCF1070F 		cmp	ip, #7
2054:../../Middlewares/AI_Runtime/Npu/ll_aton/ll_aton.c ****   if (conf->operation == ARITH_NOT_X)
 6470              		.loc 1 2054 7 discriminator 1 view .LVU2408
 6471 00a8 1EF90220 		ldrsb	r2, [lr, r2]
 6472 00ac 4FEA4222 		lsl	r2, r2, #9
 6473 00b0 02F4FC42 		and	r2, r2, #32256
2054:../../Middlewares/AI_Runtime/Npu/ll_aton/ll_aton.c ****   if (conf->operation == ARITH_NOT_X)
 6474              		.loc 1 2054 5 discriminator 1 view .LVU2409
 6475 00b4 42EA0602 		orr	r2, r2, r6
 6476 00b8 42EA0702 		orr	r2, r2, r7
 6477 00bc 43EA0203 		orr	r3, r3, r2
 6478              	.LVL748:
2055:../../Middlewares/AI_Runtime/Npu/ll_aton/ll_aton.c ****   { // WORKAROUND
 6479              		.loc 1 2055 3 is_stmt 1 view .LVU2410
2057:../../Middlewares/AI_Runtime/Npu/ll_aton/ll_aton.c ****   }
 6480              		.loc 1 2057 7 is_stmt 0 view .LVU2411
 6481 00c0 43F40002 		orr	r2, r3, #8388608
 6482 00c4 08BF     		it	eq
 6483 00c6 1346     		moveq	r3, r2
 6484              	.LVL749:
2059:../../Middlewares/AI_Runtime/Npu/ll_aton/ll_aton.c **** 
 6485              		.loc 1 2059 3 is_stmt 1 view .LVU2412
2059:../../Middlewares/AI_Runtime/Npu/ll_aton/ll_aton.c **** 
 6486              		.loc 1 2059 3 view .LVU2413
 6487 00c8 2B60     		str	r3, [r5]
2059:../../Middlewares/AI_Runtime/Npu/ll_aton/ll_aton.c **** 
 6488              		.loc 1 2059 3 view .LVU2414
2059:../../Middlewares/AI_Runtime/Npu/ll_aton/ll_aton.c **** 
 6489              		.loc 1 2059 29 view .LVU2415
2061:../../Middlewares/AI_Runtime/Npu/ll_aton/ll_aton.c ****   t = ATON_ARITH_INSHIFTER_SET_FBYTESX(t, conf->inbytes_x);
 6490              		.loc 1 2061 3 view .LVU2416
 6491              	.LVL750:
2062:../../Middlewares/AI_Runtime/Npu/ll_aton/ll_aton.c ****   t = ATON_ARITH_INSHIFTER_SET_FSHIFTX(t, ATON_SHIFT(conf->shift_x));
 6492              		.loc 1 2062 3 view .LVU2417
2063:../../Middlewares/AI_Runtime/Npu/ll_aton/ll_aton.c ****   t = ATON_ARITH_INSHIFTER_SET_FROUNDX(t, (conf->rounding_x != 0));
 6493              		.loc 1 2063 3 view .LVU2418
2064:../../Middlewares/AI_Runtime/Npu/ll_aton/ll_aton.c ****   t = ATON_ARITH_INSHIFTER_SET_FSATX(t, (conf->saturation_x != 0));
 6494              		.loc 1 2064 3 view .LVU2419
2063:../../Middlewares/AI_Runtime/Npu/ll_aton/ll_aton.c ****   t = ATON_ARITH_INSHIFTER_SET_FROUNDX(t, (conf->rounding_x != 0));
 6495              		.loc 1 2063 7 is_stmt 0 view .LVU2420
 6496 00ca 94F90130 		ldrsb	r3, [r4, #1]
2064:../../Middlewares/AI_Runtime/Npu/ll_aton/ll_aton.c ****   t = ATON_ARITH_INSHIFTER_SET_FSATX(t, (conf->saturation_x != 0));
 6497              		.loc 1 2064 7 view .LVU2421
 6498 00ce 2678     		ldrb	r6, [r4]	@ zero_extendqisi2
2063:../../Middlewares/AI_Runtime/Npu/ll_aton/ll_aton.c ****   t = ATON_ARITH_INSHIFTER_SET_FROUNDX(t, (conf->rounding_x != 0));
 6499              		.loc 1 2063 7 view .LVU2422
 6500 00d0 1033     		adds	r3, r3, #16
 6501 00d2 9B00     		lsls	r3, r3, #2
2062:../../Middlewares/AI_Runtime/Npu/ll_aton/ll_aton.c ****   t = ATON_ARITH_INSHIFTER_SET_FSHIFTX(t, ATON_SHIFT(conf->shift_x));
 6502              		.loc 1 2062 7 view .LVU2423
 6503 00d4 C6F30117 		ubfx	r7, r6, #4, #2
2063:../../Middlewares/AI_Runtime/Npu/ll_aton/ll_aton.c ****   t = ATON_ARITH_INSHIFTER_SET_FROUNDX(t, (conf->rounding_x != 0));
 6504              		.loc 1 2063 7 view .LVU2424
ARM GAS  C:\Users\Antonio\AppData\Local\Temp\ccynTwLp.s 			page 209


 6505 00d8 DBB2     		uxtb	r3, r3
2069:../../Middlewares/AI_Runtime/Npu/ll_aton/ll_aton.c ****   t = ATON_ARITH_INSHIFTER_SET_FSHIFTY(t, ATON_SHIFT(conf->shift_y));
 6506              		.loc 1 2069 7 view .LVU2425
 6507 00da 3B43     		orrs	r3, r3, r7
2066:../../Middlewares/AI_Runtime/Npu/ll_aton/ll_aton.c ****   t = ATON_ARITH_INSHIFTER_SET_FOBYTESX(t, conf->outbytes_x);
 6508              		.loc 1 2066 7 view .LVU2426
 6509 00dc C6F38107 		ubfx	r7, r6, #2, #2
2064:../../Middlewares/AI_Runtime/Npu/ll_aton/ll_aton.c ****   t = ATON_ARITH_INSHIFTER_SET_FSATX(t, (conf->saturation_x != 0));
 6510              		.loc 1 2064 7 view .LVU2427
 6511 00e0 3202     		lsls	r2, r6, #8
 6512              	.LVL751:
2065:../../Middlewares/AI_Runtime/Npu/ll_aton/ll_aton.c ****   t = ATON_ARITH_INSHIFTER_SET_FRNDMODEX(t, conf->round_mode_x);
 6513              		.loc 1 2065 3 is_stmt 1 view .LVU2428
2066:../../Middlewares/AI_Runtime/Npu/ll_aton/ll_aton.c ****   t = ATON_ARITH_INSHIFTER_SET_FOBYTESX(t, conf->outbytes_x);
 6514              		.loc 1 2066 3 view .LVU2429
2067:../../Middlewares/AI_Runtime/Npu/ll_aton/ll_aton.c **** 
 6515              		.loc 1 2067 3 view .LVU2430
2069:../../Middlewares/AI_Runtime/Npu/ll_aton/ll_aton.c ****   t = ATON_ARITH_INSHIFTER_SET_FSHIFTY(t, ATON_SHIFT(conf->shift_y));
 6516              		.loc 1 2069 3 view .LVU2431
2070:../../Middlewares/AI_Runtime/Npu/ll_aton/ll_aton.c ****   t = ATON_ARITH_INSHIFTER_SET_FROUNDY(t, (conf->rounding_y != 0));
 6517              		.loc 1 2070 3 view .LVU2432
2069:../../Middlewares/AI_Runtime/Npu/ll_aton/ll_aton.c ****   t = ATON_ARITH_INSHIFTER_SET_FSHIFTY(t, ATON_SHIFT(conf->shift_y));
 6518              		.loc 1 2069 7 is_stmt 0 view .LVU2433
 6519 00e2 43EA8723 		orr	r3, r3, r7, lsl #10
2067:../../Middlewares/AI_Runtime/Npu/ll_aton/ll_aton.c **** 
 6520              		.loc 1 2067 7 view .LVU2434
 6521 00e6 B609     		lsrs	r6, r6, #6
2069:../../Middlewares/AI_Runtime/Npu/ll_aton/ll_aton.c ****   t = ATON_ARITH_INSHIFTER_SET_FSHIFTY(t, ATON_SHIFT(conf->shift_y));
 6522              		.loc 1 2069 7 view .LVU2435
 6523 00e8 43EA0633 		orr	r3, r3, r6, lsl #12
 6524 00ec A678     		ldrb	r6, [r4, #2]	@ zero_extendqisi2
2065:../../Middlewares/AI_Runtime/Npu/ll_aton/ll_aton.c ****   t = ATON_ARITH_INSHIFTER_SET_FRNDMODEX(t, conf->round_mode_x);
 6525              		.loc 1 2065 7 view .LVU2436
 6526 00ee 02F44072 		and	r2, r2, #768
 6527              	.LVL752:
2069:../../Middlewares/AI_Runtime/Npu/ll_aton/ll_aton.c ****   t = ATON_ARITH_INSHIFTER_SET_FSHIFTY(t, ATON_SHIFT(conf->shift_y));
 6528              		.loc 1 2069 7 view .LVU2437
 6529 00f2 1343     		orrs	r3, r3, r2
 6530 00f4 C6F30112 		ubfx	r2, r6, #4, #2
2069:../../Middlewares/AI_Runtime/Npu/ll_aton/ll_aton.c ****   t = ATON_ARITH_INSHIFTER_SET_FSHIFTY(t, ATON_SHIFT(conf->shift_y));
 6531              		.loc 1 2069 5 view .LVU2438
 6532 00f8 43EA0243 		orr	r3, r3, r2, lsl #16
 6533              	.LVL753:
2071:../../Middlewares/AI_Runtime/Npu/ll_aton/ll_aton.c ****   t = ATON_ARITH_INSHIFTER_SET_FSATY(t, (conf->saturation_y != 0));
 6534              		.loc 1 2071 3 is_stmt 1 view .LVU2439
2072:../../Middlewares/AI_Runtime/Npu/ll_aton/ll_aton.c ****   t = ATON_ARITH_INSHIFTER_SET_FRNDMODEY(t, conf->round_mode_y);
 6535              		.loc 1 2072 3 view .LVU2440
2073:../../Middlewares/AI_Runtime/Npu/ll_aton/ll_aton.c ****   t = ATON_ARITH_INSHIFTER_SET_FOBYTESY(t, conf->outbytes_y);
 6536              		.loc 1 2073 3 view .LVU2441
2074:../../Middlewares/AI_Runtime/Npu/ll_aton/ll_aton.c ****   ATON_ARITH_INSHIFTER_SET(id, t);
 6537              		.loc 1 2074 3 view .LVU2442
2073:../../Middlewares/AI_Runtime/Npu/ll_aton/ll_aton.c ****   t = ATON_ARITH_INSHIFTER_SET_FOBYTESY(t, conf->outbytes_y);
 6538              		.loc 1 2073 7 is_stmt 0 view .LVU2443
 6539 00fc 3206     		lsls	r2, r6, #24
 6540              	.LVL754:
2073:../../Middlewares/AI_Runtime/Npu/ll_aton/ll_aton.c ****   t = ATON_ARITH_INSHIFTER_SET_FOBYTESY(t, conf->outbytes_y);
 6541              		.loc 1 2073 5 view .LVU2444
ARM GAS  C:\Users\Antonio\AppData\Local\Temp\ccynTwLp.s 			page 210


 6542 00fe 02F07067 		and	r7, r2, #251658240
2070:../../Middlewares/AI_Runtime/Npu/ll_aton/ll_aton.c ****   t = ATON_ARITH_INSHIFTER_SET_FROUNDY(t, (conf->rounding_y != 0));
 6543              		.loc 1 2070 7 view .LVU2445
 6544 0102 94F90420 		ldrsb	r2, [r4, #4]
 6545              	.LVL755:
2074:../../Middlewares/AI_Runtime/Npu/ll_aton/ll_aton.c ****   ATON_ARITH_INSHIFTER_SET(id, t);
 6546              		.loc 1 2074 7 view .LVU2446
 6547 0106 B609     		lsrs	r6, r6, #6
2070:../../Middlewares/AI_Runtime/Npu/ll_aton/ll_aton.c ****   t = ATON_ARITH_INSHIFTER_SET_FROUNDY(t, (conf->rounding_y != 0));
 6548              		.loc 1 2070 7 view .LVU2447
 6549 0108 1032     		adds	r2, r2, #16
 6550 010a 9204     		lsls	r2, r2, #18
 6551 010c 02F47C02 		and	r2, r2, #16515072
2073:../../Middlewares/AI_Runtime/Npu/ll_aton/ll_aton.c ****   t = ATON_ARITH_INSHIFTER_SET_FOBYTESY(t, conf->outbytes_y);
 6552              		.loc 1 2073 5 view .LVU2448
 6553 0110 3A43     		orrs	r2, r2, r7
2074:../../Middlewares/AI_Runtime/Npu/ll_aton/ll_aton.c ****   ATON_ARITH_INSHIFTER_SET(id, t);
 6554              		.loc 1 2074 7 view .LVU2449
 6555 0112 1343     		orrs	r3, r3, r2
 6556              	.LVL756:
2074:../../Middlewares/AI_Runtime/Npu/ll_aton/ll_aton.c ****   ATON_ARITH_INSHIFTER_SET(id, t);
 6557              		.loc 1 2074 5 view .LVU2450
 6558 0114 43EA0673 		orr	r3, r3, r6, lsl #28
 6559              	.LVL757:
2075:../../Middlewares/AI_Runtime/Npu/ll_aton/ll_aton.c **** 
 6560              		.loc 1 2075 3 is_stmt 1 view .LVU2451
2075:../../Middlewares/AI_Runtime/Npu/ll_aton/ll_aton.c **** 
 6561              		.loc 1 2075 3 view .LVU2452
 6562 0118 6B63     		str	r3, [r5, #52]
2075:../../Middlewares/AI_Runtime/Npu/ll_aton/ll_aton.c **** 
 6563              		.loc 1 2075 3 view .LVU2453
2075:../../Middlewares/AI_Runtime/Npu/ll_aton/ll_aton.c **** 
 6564              		.loc 1 2075 34 view .LVU2454
2077:../../Middlewares/AI_Runtime/Npu/ll_aton/ll_aton.c ****   t = ATON_ARITH_SHIFT_SET_AX(t, conf->Ax_shift + sshift);
 6565              		.loc 1 2077 3 view .LVU2455
 6566              	.LVL758:
2078:../../Middlewares/AI_Runtime/Npu/ll_aton/ll_aton.c ****   t = ATON_ARITH_SHIFT_SET_BY(t, conf->By_shift + sshift);
 6567              		.loc 1 2078 3 view .LVU2456
2079:../../Middlewares/AI_Runtime/Npu/ll_aton/ll_aton.c ****   t = ATON_ARITH_SHIFT_SET_C(t, conf->C_shift + sshift);
 6568              		.loc 1 2079 3 view .LVU2457
2080:../../Middlewares/AI_Runtime/Npu/ll_aton/ll_aton.c ****   t = ATON_ARITH_SHIFT_SET_RES(t, conf->shift_o); // right shift only
 6569              		.loc 1 2080 3 view .LVU2458
2079:../../Middlewares/AI_Runtime/Npu/ll_aton/ll_aton.c ****   t = ATON_ARITH_SHIFT_SET_C(t, conf->C_shift + sshift);
 6570              		.loc 1 2079 7 is_stmt 0 view .LVU2459
 6571 011a E37A     		ldrb	r3, [r4, #11]	@ zero_extendqisi2
2080:../../Middlewares/AI_Runtime/Npu/ll_aton/ll_aton.c ****   t = ATON_ARITH_SHIFT_SET_RES(t, conf->shift_o); // right shift only
 6572              		.loc 1 2080 7 view .LVU2460
 6573 011c 227B     		ldrb	r2, [r4, #12]	@ zero_extendqisi2
2079:../../Middlewares/AI_Runtime/Npu/ll_aton/ll_aton.c ****   t = ATON_ARITH_SHIFT_SET_C(t, conf->C_shift + sshift);
 6574              		.loc 1 2079 7 view .LVU2461
 6575 011e 5B01     		lsls	r3, r3, #5
2080:../../Middlewares/AI_Runtime/Npu/ll_aton/ll_aton.c ****   t = ATON_ARITH_SHIFT_SET_RES(t, conf->shift_o); // right shift only
 6576              		.loc 1 2080 7 view .LVU2462
 6577 0120 9202     		lsls	r2, r2, #10
 6578 0122 02F4F842 		and	r2, r2, #31744
2079:../../Middlewares/AI_Runtime/Npu/ll_aton/ll_aton.c ****   t = ATON_ARITH_SHIFT_SET_C(t, conf->C_shift + sshift);
 6579              		.loc 1 2079 7 view .LVU2463
ARM GAS  C:\Users\Antonio\AppData\Local\Temp\ccynTwLp.s 			page 211


 6580 0126 03F47873 		and	r3, r3, #992
2080:../../Middlewares/AI_Runtime/Npu/ll_aton/ll_aton.c ****   t = ATON_ARITH_SHIFT_SET_RES(t, conf->shift_o); // right shift only
 6581              		.loc 1 2080 5 view .LVU2464
 6582 012a 1343     		orrs	r3, r3, r2
2078:../../Middlewares/AI_Runtime/Npu/ll_aton/ll_aton.c ****   t = ATON_ARITH_SHIFT_SET_BY(t, conf->By_shift + sshift);
 6583              		.loc 1 2078 7 view .LVU2465
 6584 012c A27A     		ldrb	r2, [r4, #10]	@ zero_extendqisi2
2094:../../Middlewares/AI_Runtime/Npu/ll_aton/ll_aton.c ****   {
 6585              		.loc 1 2094 6 view .LVU2466
 6586 012e 8907     		lsls	r1, r1, #30
2078:../../Middlewares/AI_Runtime/Npu/ll_aton/ll_aton.c ****   t = ATON_ARITH_SHIFT_SET_BY(t, conf->By_shift + sshift);
 6587              		.loc 1 2078 7 view .LVU2467
 6588 0130 02F01F02 		and	r2, r2, #31
2080:../../Middlewares/AI_Runtime/Npu/ll_aton/ll_aton.c ****   t = ATON_ARITH_SHIFT_SET_RES(t, conf->shift_o); // right shift only
 6589              		.loc 1 2080 5 view .LVU2468
 6590 0134 43EA0203 		orr	r3, r3, r2
 6591              	.LVL759:
2081:../../Middlewares/AI_Runtime/Npu/ll_aton/ll_aton.c ****   ATON_ARITH_SHIFT_SET(id, t);
 6592              		.loc 1 2081 3 is_stmt 1 view .LVU2469
2081:../../Middlewares/AI_Runtime/Npu/ll_aton/ll_aton.c ****   ATON_ARITH_SHIFT_SET(id, t);
 6593              		.loc 1 2081 7 is_stmt 0 view .LVU2470
 6594 0138 A279     		ldrb	r2, [r4, #6]	@ zero_extendqisi2
 6595 013a 4FEAC232 		lsl	r2, r2, #15
 6596 013e 02F4FC12 		and	r2, r2, #2064384
2081:../../Middlewares/AI_Runtime/Npu/ll_aton/ll_aton.c ****   ATON_ARITH_SHIFT_SET(id, t);
 6597              		.loc 1 2081 5 view .LVU2471
 6598 0142 43EA0203 		orr	r3, r3, r2
 6599              	.LVL760:
2082:../../Middlewares/AI_Runtime/Npu/ll_aton/ll_aton.c **** 
 6600              		.loc 1 2082 3 is_stmt 1 view .LVU2472
2082:../../Middlewares/AI_Runtime/Npu/ll_aton/ll_aton.c **** 
 6601              		.loc 1 2082 3 view .LVU2473
 6602 0146 AB60     		str	r3, [r5, #8]
2082:../../Middlewares/AI_Runtime/Npu/ll_aton/ll_aton.c **** 
 6603              		.loc 1 2082 3 view .LVU2474
2082:../../Middlewares/AI_Runtime/Npu/ll_aton/ll_aton.c **** 
 6604              		.loc 1 2082 30 view .LVU2475
2084:../../Middlewares/AI_Runtime/Npu/ll_aton/ll_aton.c ****   t = ATON_ARITH_COEFFAC_SET_A(t, conf->A_scalar);
 6605              		.loc 1 2084 3 view .LVU2476
 6606              	.LVL761:
2085:../../Middlewares/AI_Runtime/Npu/ll_aton/ll_aton.c ****   t = ATON_ARITH_COEFFAC_SET_C(t, conf->C_scalar);
 6607              		.loc 1 2085 3 view .LVU2477
2086:../../Middlewares/AI_Runtime/Npu/ll_aton/ll_aton.c ****   ATON_ARITH_COEFFAC_SET(id, t);
 6608              		.loc 1 2086 3 view .LVU2478
2086:../../Middlewares/AI_Runtime/Npu/ll_aton/ll_aton.c ****   ATON_ARITH_COEFFAC_SET(id, t);
 6609              		.loc 1 2086 7 is_stmt 0 view .LVU2479
 6610 0148 B4F92420 		ldrsh	r2, [r4, #36]
2085:../../Middlewares/AI_Runtime/Npu/ll_aton/ll_aton.c ****   t = ATON_ARITH_COEFFAC_SET_C(t, conf->C_scalar);
 6611              		.loc 1 2085 7 view .LVU2480
 6612 014c 238C     		ldrh	r3, [r4, #32]
 6613              	.LVL762:
2086:../../Middlewares/AI_Runtime/Npu/ll_aton/ll_aton.c ****   ATON_ARITH_COEFFAC_SET(id, t);
 6614              		.loc 1 2086 5 view .LVU2481
 6615 014e 43EA0243 		orr	r3, r3, r2, lsl #16
 6616              	.LVL763:
2087:../../Middlewares/AI_Runtime/Npu/ll_aton/ll_aton.c **** 
 6617              		.loc 1 2087 3 is_stmt 1 view .LVU2482
ARM GAS  C:\Users\Antonio\AppData\Local\Temp\ccynTwLp.s 			page 212


2087:../../Middlewares/AI_Runtime/Npu/ll_aton/ll_aton.c **** 
 6618              		.loc 1 2087 3 view .LVU2483
 6619 0152 EB61     		str	r3, [r5, #28]
2087:../../Middlewares/AI_Runtime/Npu/ll_aton/ll_aton.c **** 
 6620              		.loc 1 2087 3 view .LVU2484
2087:../../Middlewares/AI_Runtime/Npu/ll_aton/ll_aton.c **** 
 6621              		.loc 1 2087 32 view .LVU2485
2089:../../Middlewares/AI_Runtime/Npu/ll_aton/ll_aton.c ****   t = ATON_ARITH_COEFFB_SET_B(t, conf->B_scalar);
 6622              		.loc 1 2089 3 view .LVU2486
 6623              	.LVL764:
2090:../../Middlewares/AI_Runtime/Npu/ll_aton/ll_aton.c ****   ATON_ARITH_COEFFB_SET(id, t);
 6624              		.loc 1 2090 3 view .LVU2487
2090:../../Middlewares/AI_Runtime/Npu/ll_aton/ll_aton.c ****   ATON_ARITH_COEFFB_SET(id, t);
 6625              		.loc 1 2090 7 is_stmt 0 view .LVU2488
 6626 0154 638C     		ldrh	r3, [r4, #34]
 6627              	.LVL765:
2091:../../Middlewares/AI_Runtime/Npu/ll_aton/ll_aton.c **** 
 6628              		.loc 1 2091 3 is_stmt 1 view .LVU2489
2091:../../Middlewares/AI_Runtime/Npu/ll_aton/ll_aton.c **** 
 6629              		.loc 1 2091 3 view .LVU2490
 6630 0156 2B62     		str	r3, [r5, #32]
2091:../../Middlewares/AI_Runtime/Npu/ll_aton/ll_aton.c **** 
 6631              		.loc 1 2091 3 view .LVU2491
2091:../../Middlewares/AI_Runtime/Npu/ll_aton/ll_aton.c **** 
 6632              		.loc 1 2091 31 view .LVU2492
2094:../../Middlewares/AI_Runtime/Npu/ll_aton/ll_aton.c ****   {
 6633              		.loc 1 2094 3 view .LVU2493
2094:../../Middlewares/AI_Runtime/Npu/ll_aton/ll_aton.c ****   {
 6634              		.loc 1 2094 6 is_stmt 0 view .LVU2494
 6635 0158 05D5     		bpl	.L431
2096:../../Middlewares/AI_Runtime/Npu/ll_aton/ll_aton.c ****     t = ATON_ARITH_CLIPRANGE_SET_CLIPMAX(t, (conf->clipmax & 0xFFFFU));
 6636              		.loc 1 2096 5 is_stmt 1 view .LVU2495
 6637              	.LVL766:
2097:../../Middlewares/AI_Runtime/Npu/ll_aton/ll_aton.c ****     t = ATON_ARITH_CLIPRANGE_SET_CLIPMIN(t, (conf->clipmin & 0xFFFFU));
 6638              		.loc 1 2097 5 view .LVU2496
2098:../../Middlewares/AI_Runtime/Npu/ll_aton/ll_aton.c ****     ATON_ARITH_CLIPRANGE_SET(id, t);
 6639              		.loc 1 2098 5 view .LVU2497
2097:../../Middlewares/AI_Runtime/Npu/ll_aton/ll_aton.c ****     t = ATON_ARITH_CLIPRANGE_SET_CLIPMIN(t, (conf->clipmin & 0xFFFFU));
 6640              		.loc 1 2097 9 is_stmt 0 view .LVU2498
 6641 015a E38B     		ldrh	r3, [r4, #30]
 6642              	.LVL767:
2098:../../Middlewares/AI_Runtime/Npu/ll_aton/ll_aton.c ****     ATON_ARITH_CLIPRANGE_SET(id, t);
 6643              		.loc 1 2098 9 view .LVU2499
 6644 015c B4F91C10 		ldrsh	r1, [r4, #28]
2098:../../Middlewares/AI_Runtime/Npu/ll_aton/ll_aton.c ****     ATON_ARITH_CLIPRANGE_SET(id, t);
 6645              		.loc 1 2098 7 view .LVU2500
 6646 0160 43EA0143 		orr	r3, r3, r1, lsl #16
 6647              	.LVL768:
2099:../../Middlewares/AI_Runtime/Npu/ll_aton/ll_aton.c **** 
 6648              		.loc 1 2099 5 is_stmt 1 view .LVU2501
2099:../../Middlewares/AI_Runtime/Npu/ll_aton/ll_aton.c **** 
 6649              		.loc 1 2099 5 view .LVU2502
 6650 0164 AB63     		str	r3, [r5, #56]
 6651              	.L431:
2099:../../Middlewares/AI_Runtime/Npu/ll_aton/ll_aton.c **** 
 6652              		.loc 1 2099 5 discriminator 1 view .LVU2503
2099:../../Middlewares/AI_Runtime/Npu/ll_aton/ll_aton.c **** 
ARM GAS  C:\Users\Antonio\AppData\Local\Temp\ccynTwLp.s 			page 213


 6653              		.loc 1 2099 36 discriminator 1 view .LVU2504
2110:../../Middlewares/AI_Runtime/Npu/ll_aton/ll_aton.c **** 
 6654              		.loc 1 2110 3 view .LVU2505
2110:../../Middlewares/AI_Runtime/Npu/ll_aton/ll_aton.c **** 
 6655              		.loc 1 2110 3 view .LVU2506
 6656 0166 0023     		movs	r3, #0
 6657              	.LVL769:
2110:../../Middlewares/AI_Runtime/Npu/ll_aton/ll_aton.c **** 
 6658              		.loc 1 2110 3 is_stmt 0 view .LVU2507
 6659 0168 2B63     		str	r3, [r5, #48]
2110:../../Middlewares/AI_Runtime/Npu/ll_aton/ll_aton.c **** 
 6660              		.loc 1 2110 3 is_stmt 1 view .LVU2508
2110:../../Middlewares/AI_Runtime/Npu/ll_aton/ll_aton.c **** 
 6661              		.loc 1 2110 34 view .LVU2509
2112:../../Middlewares/AI_Runtime/Npu/ll_aton/ll_aton.c ****   if (conf->scalar == 0)
 6662              		.loc 1 2112 3 view .LVU2510
 6663              	.LVL770:
2113:../../Middlewares/AI_Runtime/Npu/ll_aton/ll_aton.c ****   { // vector mode
 6664              		.loc 1 2113 3 view .LVU2511
2113:../../Middlewares/AI_Runtime/Npu/ll_aton/ll_aton.c ****   { // vector mode
 6665              		.loc 1 2113 6 is_stmt 0 view .LVU2512
 6666 016a 70B1     		cbz	r0, .L432
 6667              	.LVL771:
 6668              	.L451:
2246:../../Middlewares/AI_Runtime/Npu/ll_aton/ll_aton.c **** }
 6669              		.loc 1 2246 10 view .LVU2513
 6670 016c 0020     		movs	r0, #0
 6671              	.LVL772:
 6672              	.L424:
2247:../../Middlewares/AI_Runtime/Npu/ll_aton/ll_aton.c **** #endif // ATON_ARITH_NUM
 6673              		.loc 1 2247 1 view .LVU2514
 6674 016e 0BB0     		add	sp, sp, #44
 6675              		.cfi_remember_state
 6676              		.cfi_def_cfa_offset 36
 6677              		@ sp needed
 6678 0170 BDE8F08F 		pop	{r4, r5, r6, r7, r8, r9, r10, fp, pc}
 6679              	.LVL773:
 6680              	.L453:
 6681              		.cfi_restore_state
2039:../../Middlewares/AI_Runtime/Npu/ll_aton/ll_aton.c ****   t = ATON_ARITH_CTRL_SET_CNT3(t, (conf->scalar == 0) && (conf->bcast == ARITH_BCAST_CHAN));
 6682              		.loc 1 2039 7 discriminator 4 view .LVU2515
 6683 0174 0021     		movs	r1, #0
 6684 0176 64E7     		b	.L426
 6685              	.LVL774:
 6686              	.L454:
2048:../../Middlewares/AI_Runtime/Npu/ll_aton/ll_aton.c ****   t = ATON_ARITH_CTRL_SET_DUALIN(t, (conf->dualinput != 0));
 6687              		.loc 1 2048 7 discriminator 1 view .LVU2516
 6688 0178 0027     		movs	r7, #0
 6689 017a 82E7     		b	.L427
 6690              	.LVL775:
 6691              	.L428:
 6692              	.LBB150:
 6693              	.LBB149:
2006:../../Middlewares/AI_Runtime/Npu/ll_aton/ll_aton.c ****   }
 6694              		.loc 1 2006 5 is_stmt 1 view .LVU2517
2008:../../Middlewares/AI_Runtime/Npu/ll_aton/ll_aton.c ****   return 0;
 6695              		.loc 1 2008 3 view .LVU2518
ARM GAS  C:\Users\Antonio\AppData\Local\Temp\ccynTwLp.s 			page 214


 6696 017c 4FF4FB61 		mov	r1, #2008
 6697              	.LVL776:
2008:../../Middlewares/AI_Runtime/Npu/ll_aton/ll_aton.c ****   return 0;
 6698              		.loc 1 2008 3 is_stmt 0 view .LVU2519
 6699 0180 694B     		ldr	r3, .L467
 6700              	.LVL777:
2008:../../Middlewares/AI_Runtime/Npu/ll_aton/ll_aton.c ****   return 0;
 6701              		.loc 1 2008 3 view .LVU2520
 6702 0182 6A4A     		ldr	r2, .L467+4
 6703 0184 6A48     		ldr	r0, .L467+8
 6704 0186 FFF7FEFF 		bl	__assert_func
 6705              	.LVL778:
 6706              	.L432:
2008:../../Middlewares/AI_Runtime/Npu/ll_aton/ll_aton.c ****   return 0;
 6707              		.loc 1 2008 3 view .LVU2521
 6708              	.LBE149:
 6709              	.LBE150:
 6710              	.LBB151:
2115:../../Middlewares/AI_Runtime/Npu/ll_aton/ll_aton.c ****     {
 6711              		.loc 1 2115 5 is_stmt 1 view .LVU2522
 6712 018a 617A     		ldrb	r1, [r4, #9]	@ zero_extendqisi2
 6713 018c 0139     		subs	r1, r1, #1
 6714 018e 0429     		cmp	r1, #4
 6715 0190 00F2C780 		bhi	.L455
 6716 0194 DFE801F0 		tbb	[pc, r1]
 6717              	.L434:
 6718 0198 03       		.byte	(.L438-.L434)/2
 6719 0199 8F       		.byte	(.L437-.L434)/2
 6720 019a A4       		.byte	(.L436-.L434)/2
 6721 019b AC       		.byte	(.L435-.L434)/2
 6722 019c B5       		.byte	(.L433-.L434)/2
 6723 019d 00       		.p2align 1
 6724              	.L438:
2118:../../Middlewares/AI_Runtime/Npu/ll_aton/ll_aton.c ****       ATON_ARITH_INCCNT_SET(id, t);
 6725              		.loc 1 2118 7 view .LVU2523
 6726              	.LVL779:
2119:../../Middlewares/AI_Runtime/Npu/ll_aton/ll_aton.c **** 
 6727              		.loc 1 2119 7 view .LVU2524
2119:../../Middlewares/AI_Runtime/Npu/ll_aton/ll_aton.c **** 
 6728              		.loc 1 2119 7 view .LVU2525
2121:../../Middlewares/AI_Runtime/Npu/ll_aton/ll_aton.c ****       ATON_ARITH_RSTCNT1_SET(id, t);
 6729              		.loc 1 2121 11 is_stmt 0 view .LVU2526
 6730 019e 608B     		ldrh	r0, [r4, #26]
2119:../../Middlewares/AI_Runtime/Npu/ll_aton/ll_aton.c **** 
 6731              		.loc 1 2119 7 view .LVU2527
 6732 01a0 EB60     		str	r3, [r5, #12]
2119:../../Middlewares/AI_Runtime/Npu/ll_aton/ll_aton.c **** 
 6733              		.loc 1 2119 7 is_stmt 1 view .LVU2528
2119:../../Middlewares/AI_Runtime/Npu/ll_aton/ll_aton.c **** 
 6734              		.loc 1 2119 35 view .LVU2529
2121:../../Middlewares/AI_Runtime/Npu/ll_aton/ll_aton.c ****       ATON_ARITH_RSTCNT1_SET(id, t);
 6735              		.loc 1 2121 7 view .LVU2530
2121:../../Middlewares/AI_Runtime/Npu/ll_aton/ll_aton.c ****       ATON_ARITH_RSTCNT1_SET(id, t);
 6736              		.loc 1 2121 11 is_stmt 0 view .LVU2531
 6737 01a2 431E     		subs	r3, r0, #1
2121:../../Middlewares/AI_Runtime/Npu/ll_aton/ll_aton.c ****       ATON_ARITH_RSTCNT1_SET(id, t);
 6738              		.loc 1 2121 9 view .LVU2532
ARM GAS  C:\Users\Antonio\AppData\Local\Temp\ccynTwLp.s 			page 215


 6739 01a4 23F07843 		bic	r3, r3, #-134217728
 6740              	.LVL780:
2122:../../Middlewares/AI_Runtime/Npu/ll_aton/ll_aton.c **** 
 6741              		.loc 1 2122 7 is_stmt 1 view .LVU2533
2122:../../Middlewares/AI_Runtime/Npu/ll_aton/ll_aton.c **** 
 6742              		.loc 1 2122 7 view .LVU2534
 6743 01a8 2B61     		str	r3, [r5, #16]
2122:../../Middlewares/AI_Runtime/Npu/ll_aton/ll_aton.c **** 
 6744              		.loc 1 2122 7 view .LVU2535
2122:../../Middlewares/AI_Runtime/Npu/ll_aton/ll_aton.c **** 
 6745              		.loc 1 2122 36 view .LVU2536
2124:../../Middlewares/AI_Runtime/Npu/ll_aton/ll_aton.c ****           0, (conf->fWidth * conf->fHeight * conf->batchDepth - 1)); // must check this fits into 2
 6746              		.loc 1 2124 7 view .LVU2537
2124:../../Middlewares/AI_Runtime/Npu/ll_aton/ll_aton.c ****           0, (conf->fWidth * conf->fHeight * conf->batchDepth - 1)); // must check this fits into 2
 6747              		.loc 1 2124 11 is_stmt 0 view .LVU2538
 6748 01aa D4E90413 		ldrd	r1, r3, [r4, #16]
 6749              	.LVL781:
2124:../../Middlewares/AI_Runtime/Npu/ll_aton/ll_aton.c ****           0, (conf->fWidth * conf->fHeight * conf->batchDepth - 1)); // must check this fits into 2
 6750              		.loc 1 2124 11 view .LVU2539
 6751 01ae 5943     		muls	r1, r3, r1
 6752 01b0 01FB00F3 		mul	r3, r1, r0
 6753 01b4 013B     		subs	r3, r3, #1
2124:../../Middlewares/AI_Runtime/Npu/ll_aton/ll_aton.c ****           0, (conf->fWidth * conf->fHeight * conf->batchDepth - 1)); // must check this fits into 2
 6754              		.loc 1 2124 9 view .LVU2540
 6755 01b6 23F07843 		bic	r3, r3, #-134217728
 6756              	.LVL782:
2126:../../Middlewares/AI_Runtime/Npu/ll_aton/ll_aton.c **** 
 6757              		.loc 1 2126 7 is_stmt 1 view .LVU2541
2126:../../Middlewares/AI_Runtime/Npu/ll_aton/ll_aton.c **** 
 6758              		.loc 1 2126 7 view .LVU2542
 6759 01ba 6B61     		str	r3, [r5, #20]
2126:../../Middlewares/AI_Runtime/Npu/ll_aton/ll_aton.c **** 
 6760              		.loc 1 2126 7 view .LVU2543
2126:../../Middlewares/AI_Runtime/Npu/ll_aton/ll_aton.c **** 
 6761              		.loc 1 2126 36 view .LVU2544
2128:../../Middlewares/AI_Runtime/Npu/ll_aton/ll_aton.c ****           0, (conf->fWidth * conf->fHeight * conf->fChannels - 1)); // must check this fits into 27
 6762              		.loc 1 2128 7 view .LVU2545
2128:../../Middlewares/AI_Runtime/Npu/ll_aton/ll_aton.c ****           0, (conf->fWidth * conf->fHeight * conf->fChannels - 1)); // must check this fits into 27
 6763              		.loc 1 2128 11 is_stmt 0 view .LVU2546
 6764 01bc 238B     		ldrh	r3, [r4, #24]
 6765              	.LVL783:
2128:../../Middlewares/AI_Runtime/Npu/ll_aton/ll_aton.c ****           0, (conf->fWidth * conf->fHeight * conf->fChannels - 1)); // must check this fits into 27
 6766              		.loc 1 2128 11 view .LVU2547
 6767 01be 5943     		muls	r1, r3, r1
 6768 01c0 0139     		subs	r1, r1, #1
2128:../../Middlewares/AI_Runtime/Npu/ll_aton/ll_aton.c ****           0, (conf->fWidth * conf->fHeight * conf->fChannels - 1)); // must check this fits into 27
 6769              		.loc 1 2128 9 view .LVU2548
 6770 01c2 21F07841 		bic	r1, r1, #-134217728
 6771              	.LVL784:
2130:../../Middlewares/AI_Runtime/Npu/ll_aton/ll_aton.c **** 
 6772              		.loc 1 2130 7 is_stmt 1 view .LVU2549
2130:../../Middlewares/AI_Runtime/Npu/ll_aton/ll_aton.c **** 
 6773              		.loc 1 2130 7 view .LVU2550
 6774 01c6 A961     		str	r1, [r5, #24]
2130:../../Middlewares/AI_Runtime/Npu/ll_aton/ll_aton.c **** 
 6775              		.loc 1 2130 7 view .LVU2551
2130:../../Middlewares/AI_Runtime/Npu/ll_aton/ll_aton.c **** 
ARM GAS  C:\Users\Antonio\AppData\Local\Temp\ccynTwLp.s 			page 216


 6776              		.loc 1 2130 36 view .LVU2552
2132:../../Middlewares/AI_Runtime/Npu/ll_aton/ll_aton.c ****       ATON_ARITH_INCOFFSET_SET(id, t);
 6777              		.loc 1 2132 7 view .LVU2553
 6778              	.LVL785:
2133:../../Middlewares/AI_Runtime/Npu/ll_aton/ll_aton.c **** 
 6779              		.loc 1 2133 7 view .LVU2554
2133:../../Middlewares/AI_Runtime/Npu/ll_aton/ll_aton.c **** 
 6780              		.loc 1 2133 7 view .LVU2555
 6781 01c8 0121     		movs	r1, #1
2135:../../Middlewares/AI_Runtime/Npu/ll_aton/ll_aton.c ****       t = ATON_ARITH_ADDROFFSET_SET_OFFSET2(t, 1);
 6782              		.loc 1 2135 11 is_stmt 0 view .LVU2556
 6783 01ca 081A     		subs	r0, r1, r0
2137:../../Middlewares/AI_Runtime/Npu/ll_aton/ll_aton.c ****       ATON_ARITH_ADDROFFSET_SET(id, t);
 6784              		.loc 1 2137 11 view .LVU2557
 6785 01cc CE1A     		subs	r6, r1, r3
2133:../../Middlewares/AI_Runtime/Npu/ll_aton/ll_aton.c **** 
 6786              		.loc 1 2133 7 view .LVU2558
 6787 01ce A962     		str	r1, [r5, #40]
2133:../../Middlewares/AI_Runtime/Npu/ll_aton/ll_aton.c **** 
 6788              		.loc 1 2133 7 is_stmt 1 view .LVU2559
2133:../../Middlewares/AI_Runtime/Npu/ll_aton/ll_aton.c **** 
 6789              		.loc 1 2133 38 view .LVU2560
2135:../../Middlewares/AI_Runtime/Npu/ll_aton/ll_aton.c ****       t = ATON_ARITH_ADDROFFSET_SET_OFFSET2(t, 1);
 6790              		.loc 1 2135 7 view .LVU2561
 6791              	.LVL786:
2136:../../Middlewares/AI_Runtime/Npu/ll_aton/ll_aton.c ****       t = ATON_ARITH_ADDROFFSET_SET_OFFSET3(t, -(conf->fChannels - 1));
 6792              		.loc 1 2136 7 view .LVU2562
2137:../../Middlewares/AI_Runtime/Npu/ll_aton/ll_aton.c ****       ATON_ARITH_ADDROFFSET_SET(id, t);
 6793              		.loc 1 2137 11 is_stmt 0 view .LVU2563
 6794 01d0 5849     		ldr	r1, .L467+12
2136:../../Middlewares/AI_Runtime/Npu/ll_aton/ll_aton.c ****       t = ATON_ARITH_ADDROFFSET_SET_OFFSET3(t, -(conf->fChannels - 1));
 6795              		.loc 1 2136 9 view .LVU2564
 6796 01d2 C0F30800 		ubfx	r0, r0, #0, #9
 6797 01d6 40F40070 		orr	r0, r0, #512
 6798              	.LVL787:
2137:../../Middlewares/AI_Runtime/Npu/ll_aton/ll_aton.c ****       ATON_ARITH_ADDROFFSET_SET(id, t);
 6799              		.loc 1 2137 7 is_stmt 1 view .LVU2565
2137:../../Middlewares/AI_Runtime/Npu/ll_aton/ll_aton.c ****       ATON_ARITH_ADDROFFSET_SET(id, t);
 6800              		.loc 1 2137 11 is_stmt 0 view .LVU2566
 6801 01da 01EA8641 		and	r1, r1, r6, lsl #18
2137:../../Middlewares/AI_Runtime/Npu/ll_aton/ll_aton.c ****       ATON_ARITH_ADDROFFSET_SET(id, t);
 6802              		.loc 1 2137 9 view .LVU2567
 6803 01de 0143     		orrs	r1, r1, r0
 6804              	.LVL788:
2138:../../Middlewares/AI_Runtime/Npu/ll_aton/ll_aton.c ****       maxc = conf->fChannels;
 6805              		.loc 1 2138 7 is_stmt 1 view .LVU2568
2138:../../Middlewares/AI_Runtime/Npu/ll_aton/ll_aton.c ****       maxc = conf->fChannels;
 6806              		.loc 1 2138 7 view .LVU2569
 6807              	.L464:
2152:../../Middlewares/AI_Runtime/Npu/ll_aton/ll_aton.c ****       maxc = conf->fHeight;
 6808              		.loc 1 2152 7 view .LVU2570
2152:../../Middlewares/AI_Runtime/Npu/ll_aton/ll_aton.c ****       maxc = conf->fHeight;
 6809              		.loc 1 2152 7 view .LVU2571
 6810 01e0 6962     		str	r1, [r5, #36]
2152:../../Middlewares/AI_Runtime/Npu/ll_aton/ll_aton.c ****       maxc = conf->fHeight;
 6811              		.loc 1 2152 7 view .LVU2572
2152:../../Middlewares/AI_Runtime/Npu/ll_aton/ll_aton.c ****       maxc = conf->fHeight;
ARM GAS  C:\Users\Antonio\AppData\Local\Temp\ccynTwLp.s 			page 217


 6812              		.loc 1 2152 39 view .LVU2573
2153:../../Middlewares/AI_Runtime/Npu/ll_aton/ll_aton.c ****       break;
 6813              		.loc 1 2153 7 view .LVU2574
 6814              	.LVL789:
2154:../../Middlewares/AI_Runtime/Npu/ll_aton/ll_aton.c ****     case ARITH_BCAST_WIDTH:
 6815              		.loc 1 2154 7 view .LVU2575
 6816              	.L439:
2196:../../Middlewares/AI_Runtime/Npu/ll_aton/ll_aton.c ****     int i, k;
 6817              		.loc 1 2196 5 view .LVU2576
2196:../../Middlewares/AI_Runtime/Npu/ll_aton/ll_aton.c ****     int i, k;
 6818              		.loc 1 2196 10 is_stmt 0 view .LVU2577
 6819 01e2 B3F5007F 		cmp	r3, #512
 6820 01e6 A8BF     		it	ge
 6821 01e8 4FF40073 		movge	r3, #512
 6822              	.LVL790:
2196:../../Middlewares/AI_Runtime/Npu/ll_aton/ll_aton.c ****     int i, k;
 6823              		.loc 1 2196 10 view .LVU2578
 6824 01ec 0893     		str	r3, [sp, #32]
 6825              	.LVL791:
2197:../../Middlewares/AI_Runtime/Npu/ll_aton/ll_aton.c ****     uint32_t *Ap = (uint32_t *)conf->A_vector.p;
 6826              		.loc 1 2197 5 is_stmt 1 view .LVU2579
2198:../../Middlewares/AI_Runtime/Npu/ll_aton/ll_aton.c ****     uint32_t *Bp = (uint32_t *)conf->B_vector.p;
 6827              		.loc 1 2198 5 view .LVU2580
2198:../../Middlewares/AI_Runtime/Npu/ll_aton/ll_aton.c ****     uint32_t *Bp = (uint32_t *)conf->B_vector.p;
 6828              		.loc 1 2198 15 is_stmt 0 view .LVU2581
 6829 01ee A36A     		ldr	r3, [r4, #40]
 6830              	.LVL792:
2209:../../Middlewares/AI_Runtime/Npu/ll_aton/ll_aton.c **** #if (LL_ATON_PLATFORM == LL_ATON_PLAT_EC_TRACE)
 6831              		.loc 1 2209 49 discriminator 1 view .LVU2582
 6832 01f0 0132     		adds	r2, r2, #1
2198:../../Middlewares/AI_Runtime/Npu/ll_aton/ll_aton.c ****     uint32_t *Bp = (uint32_t *)conf->B_vector.p;
 6833              		.loc 1 2198 15 view .LVU2583
 6834 01f2 0093     		str	r3, [sp]
 6835              	.LVL793:
2199:../../Middlewares/AI_Runtime/Npu/ll_aton/ll_aton.c ****     uint32_t *Cp = (uint32_t *)conf->C_vector.p;
 6836              		.loc 1 2199 5 is_stmt 1 view .LVU2584
2199:../../Middlewares/AI_Runtime/Npu/ll_aton/ll_aton.c ****     uint32_t *Cp = (uint32_t *)conf->C_vector.p;
 6837              		.loc 1 2199 15 is_stmt 0 view .LVU2585
 6838 01f4 E36A     		ldr	r3, [r4, #44]
 6839              	.LVL794:
2206:../../Middlewares/AI_Runtime/Npu/ll_aton/ll_aton.c ****     int mem_idx_num = ATON_ARITH_COEFF_AB_IDX_MAX - ATON_ARITH_COEFF_AB_IDX_MIN + 1;
 6840              		.loc 1 2206 9 view .LVU2586
 6841 01f6 4FF00006 		mov	r6, #0
2199:../../Middlewares/AI_Runtime/Npu/ll_aton/ll_aton.c ****     uint32_t *Cp = (uint32_t *)conf->C_vector.p;
 6842              		.loc 1 2199 15 view .LVU2587
 6843 01fa 0193     		str	r3, [sp, #4]
 6844              	.LVL795:
2200:../../Middlewares/AI_Runtime/Npu/ll_aton/ll_aton.c ****     int nbits_A = conf->vec_precision[0];
 6845              		.loc 1 2200 5 is_stmt 1 view .LVU2588
2200:../../Middlewares/AI_Runtime/Npu/ll_aton/ll_aton.c ****     int nbits_A = conf->vec_precision[0];
 6846              		.loc 1 2200 15 is_stmt 0 view .LVU2589
 6847 01fc 236B     		ldr	r3, [r4, #48]
 6848              	.LVL796:
2205:../../Middlewares/AI_Runtime/Npu/ll_aton/ll_aton.c ****     int bitcnt_C = 0;
 6849              		.loc 1 2205 9 view .LVU2590
 6850 01fe B346     		mov	fp, r6
2200:../../Middlewares/AI_Runtime/Npu/ll_aton/ll_aton.c ****     int nbits_A = conf->vec_precision[0];
ARM GAS  C:\Users\Antonio\AppData\Local\Temp\ccynTwLp.s 			page 218


 6851              		.loc 1 2200 15 view .LVU2591
 6852 0200 0293     		str	r3, [sp, #8]
 6853              	.LVL797:
2201:../../Middlewares/AI_Runtime/Npu/ll_aton/ll_aton.c ****     int nbits_B = conf->vec_precision[1];
 6854              		.loc 1 2201 5 is_stmt 1 view .LVU2592
2201:../../Middlewares/AI_Runtime/Npu/ll_aton/ll_aton.c ****     int nbits_B = conf->vec_precision[1];
 6855              		.loc 1 2201 9 is_stmt 0 view .LVU2593
 6856 0202 94F83430 		ldrb	r3, [r4, #52]	@ zero_extendqisi2
 6857              	.LVL798:
2204:../../Middlewares/AI_Runtime/Npu/ll_aton/ll_aton.c ****     int bitcnt_B = 0;
 6858              		.loc 1 2204 9 view .LVU2594
 6859 0206 B246     		mov	r10, r6
2201:../../Middlewares/AI_Runtime/Npu/ll_aton/ll_aton.c ****     int nbits_B = conf->vec_precision[1];
 6860              		.loc 1 2201 9 view .LVU2595
 6861 0208 0393     		str	r3, [sp, #12]
 6862              	.LVL799:
2202:../../Middlewares/AI_Runtime/Npu/ll_aton/ll_aton.c ****     int nbits_C = conf->vec_precision[2];
 6863              		.loc 1 2202 5 is_stmt 1 view .LVU2596
2202:../../Middlewares/AI_Runtime/Npu/ll_aton/ll_aton.c ****     int nbits_C = conf->vec_precision[2];
 6864              		.loc 1 2202 9 is_stmt 0 view .LVU2597
 6865 020a 94F83530 		ldrb	r3, [r4, #53]	@ zero_extendqisi2
 6866              	.LVL800:
2214:../../Middlewares/AI_Runtime/Npu/ll_aton/ll_aton.c ****     {
 6867              		.loc 1 2214 19 view .LVU2598
 6868 020e B046     		mov	r8, r6
2202:../../Middlewares/AI_Runtime/Npu/ll_aton/ll_aton.c ****     int nbits_C = conf->vec_precision[2];
 6869              		.loc 1 2202 9 view .LVU2599
 6870 0210 0493     		str	r3, [sp, #16]
 6871              	.LVL801:
2203:../../Middlewares/AI_Runtime/Npu/ll_aton/ll_aton.c ****     int bitcnt_A = 0;
 6872              		.loc 1 2203 5 is_stmt 1 view .LVU2600
2203:../../Middlewares/AI_Runtime/Npu/ll_aton/ll_aton.c ****     int bitcnt_A = 0;
 6873              		.loc 1 2203 9 is_stmt 0 view .LVU2601
 6874 0212 94F83630 		ldrb	r3, [r4, #54]	@ zero_extendqisi2
 6875              	.LVL802:
2214:../../Middlewares/AI_Runtime/Npu/ll_aton/ll_aton.c ****     {
 6876              		.loc 1 2214 12 view .LVU2602
 6877 0216 B146     		mov	r9, r6
2203:../../Middlewares/AI_Runtime/Npu/ll_aton/ll_aton.c ****     int bitcnt_A = 0;
 6878              		.loc 1 2203 9 view .LVU2603
 6879 0218 0593     		str	r3, [sp, #20]
 6880              	.LVL803:
2204:../../Middlewares/AI_Runtime/Npu/ll_aton/ll_aton.c ****     int bitcnt_B = 0;
 6881              		.loc 1 2204 5 is_stmt 1 view .LVU2604
2205:../../Middlewares/AI_Runtime/Npu/ll_aton/ll_aton.c ****     int bitcnt_C = 0;
 6882              		.loc 1 2205 5 view .LVU2605
2206:../../Middlewares/AI_Runtime/Npu/ll_aton/ll_aton.c ****     int mem_idx_num = ATON_ARITH_COEFF_AB_IDX_MAX - ATON_ARITH_COEFF_AB_IDX_MIN + 1;
 6883              		.loc 1 2206 5 view .LVU2606
2207:../../Middlewares/AI_Runtime/Npu/ll_aton/ll_aton.c **** 
 6884              		.loc 1 2207 5 view .LVU2607
2209:../../Middlewares/AI_Runtime/Npu/ll_aton/ll_aton.c **** #if (LL_ATON_PLATFORM == LL_ATON_PLAT_EC_TRACE)
 6885              		.loc 1 2209 5 view .LVU2608
2209:../../Middlewares/AI_Runtime/Npu/ll_aton/ll_aton.c **** #if (LL_ATON_PLATFORM == LL_ATON_PLAT_EC_TRACE)
 6886              		.loc 1 2209 49 is_stmt 0 discriminator 1 view .LVU2609
 6887 021a 14BF     		ite	ne
 6888 021c 0123     		movne	r3, #1
 6889              	.LVL804:
ARM GAS  C:\Users\Antonio\AppData\Local\Temp\ccynTwLp.s 			page 219


2209:../../Middlewares/AI_Runtime/Npu/ll_aton/ll_aton.c **** #if (LL_ATON_PLATFORM == LL_ATON_PLAT_EC_TRACE)
 6890              		.loc 1 2209 49 discriminator 1 view .LVU2610
 6891 021e 4FF0FF33 		moveq	r3, #-1
 6892 0222 0793     		str	r3, [sp, #28]
 6893              	.LVL805:
2213:../../Middlewares/AI_Runtime/Npu/ll_aton/ll_aton.c ****     for (i = 0, k = 0; i < maxc; i++, k++)
 6894              		.loc 1 2213 5 is_stmt 1 view .LVU2611
2213:../../Middlewares/AI_Runtime/Npu/ll_aton/ll_aton.c ****     for (i = 0, k = 0; i < maxc; i++, k++)
 6895              		.loc 1 2213 5 view .LVU2612
 6896 0224 05F12C03 		add	r3, r5, #44
 6897              	.LVL806:
2213:../../Middlewares/AI_Runtime/Npu/ll_aton/ll_aton.c ****     for (i = 0, k = 0; i < maxc; i++, k++)
 6898              		.loc 1 2213 5 is_stmt 0 view .LVU2613
 6899 0228 0693     		str	r3, [sp, #24]
 6900 022a 0123     		movs	r3, #1
 6901 022c EB62     		str	r3, [r5, #44]
2213:../../Middlewares/AI_Runtime/Npu/ll_aton/ll_aton.c ****     for (i = 0, k = 0; i < maxc; i++, k++)
 6902              		.loc 1 2213 5 is_stmt 1 view .LVU2614
2213:../../Middlewares/AI_Runtime/Npu/ll_aton/ll_aton.c ****     for (i = 0, k = 0; i < maxc; i++, k++)
 6903              		.loc 1 2213 40 view .LVU2615
2214:../../Middlewares/AI_Runtime/Npu/ll_aton/ll_aton.c ****     {
 6904              		.loc 1 2214 5 view .LVU2616
 6905              	.LVL807:
 6906              	.L441:
2214:../../Middlewares/AI_Runtime/Npu/ll_aton/ll_aton.c ****     {
 6907              		.loc 1 2214 26 discriminator 1 view .LVU2617
 6908 022e 089B     		ldr	r3, [sp, #32]
 6909 0230 9945     		cmp	r9, r3
 6910 0232 9BDA     		bge	.L451
 6911              	.LBB152:
2216:../../Middlewares/AI_Runtime/Npu/ll_aton/ll_aton.c ****       uint32_t A = Ap != NULL ? LL_ATON_getbits(Ap, bitcnt_A, nbits_A) : (uint32_t)conf->A_scalar;
 6912              		.loc 1 2216 7 view .LVU2618
2217:../../Middlewares/AI_Runtime/Npu/ll_aton/ll_aton.c ****       uint32_t B = Bp != NULL ? LL_ATON_getbits(Bp, bitcnt_B, nbits_B) : (uint32_t)conf->B_scalar;
 6913              		.loc 1 2217 7 view .LVU2619
2217:../../Middlewares/AI_Runtime/Npu/ll_aton/ll_aton.c ****       uint32_t B = Bp != NULL ? LL_ATON_getbits(Bp, bitcnt_B, nbits_B) : (uint32_t)conf->B_scalar;
 6914              		.loc 1 2217 72 is_stmt 0 view .LVU2620
 6915 0234 009B     		ldr	r3, [sp]
 6916 0236 002B     		cmp	r3, #0
 6917 0238 67D0     		beq	.L442
2217:../../Middlewares/AI_Runtime/Npu/ll_aton/ll_aton.c ****       uint32_t B = Bp != NULL ? LL_ATON_getbits(Bp, bitcnt_B, nbits_B) : (uint32_t)conf->B_scalar;
 6918              		.loc 1 2217 33 discriminator 1 view .LVU2621
 6919 023a 5146     		mov	r1, r10
 6920 023c 1846     		mov	r0, r3
 6921 023e 039A     		ldr	r2, [sp, #12]
 6922 0240 FFF7FEFF 		bl	LL_ATON_getbits
 6923              	.LVL808:
 6924 0244 0746     		mov	r7, r0
 6925              	.L443:
 6926              	.LVL809:
2218:../../Middlewares/AI_Runtime/Npu/ll_aton/ll_aton.c ****       uint32_t C = Cp != NULL ? (c_sign * LL_ATON_getbits(Cp, bitcnt_C, nbits_C)) : (uint32_t)conf-
 6927              		.loc 1 2218 7 is_stmt 1 view .LVU2622
2218:../../Middlewares/AI_Runtime/Npu/ll_aton/ll_aton.c ****       uint32_t C = Cp != NULL ? (c_sign * LL_ATON_getbits(Cp, bitcnt_C, nbits_C)) : (uint32_t)conf-
 6928              		.loc 1 2218 72 is_stmt 0 view .LVU2623
 6929 0246 019B     		ldr	r3, [sp, #4]
 6930 0248 002B     		cmp	r3, #0
 6931 024a 61D0     		beq	.L444
2218:../../Middlewares/AI_Runtime/Npu/ll_aton/ll_aton.c ****       uint32_t C = Cp != NULL ? (c_sign * LL_ATON_getbits(Cp, bitcnt_C, nbits_C)) : (uint32_t)conf-
ARM GAS  C:\Users\Antonio\AppData\Local\Temp\ccynTwLp.s 			page 220


 6932              		.loc 1 2218 33 discriminator 1 view .LVU2624
 6933 024c 1846     		mov	r0, r3
 6934 024e 5946     		mov	r1, fp
 6935 0250 049A     		ldr	r2, [sp, #16]
 6936 0252 FFF7FEFF 		bl	LL_ATON_getbits
 6937              	.LVL810:
 6938 0256 0346     		mov	r3, r0
 6939              	.L445:
 6940              	.LVL811:
2219:../../Middlewares/AI_Runtime/Npu/ll_aton/ll_aton.c ****       if (conf->combinebc)
 6941              		.loc 1 2219 7 is_stmt 1 view .LVU2625
2219:../../Middlewares/AI_Runtime/Npu/ll_aton/ll_aton.c ****       if (conf->combinebc)
 6942              		.loc 1 2219 83 is_stmt 0 view .LVU2626
 6943 0258 029A     		ldr	r2, [sp, #8]
 6944 025a 002A     		cmp	r2, #0
 6945 025c 5BD0     		beq	.L446
2219:../../Middlewares/AI_Runtime/Npu/ll_aton/ll_aton.c ****       if (conf->combinebc)
 6946              		.loc 1 2219 43 discriminator 1 view .LVU2627
 6947 025e 3146     		mov	r1, r6
 6948 0260 059A     		ldr	r2, [sp, #20]
 6949 0262 0298     		ldr	r0, [sp, #8]
 6950 0264 0993     		str	r3, [sp, #36]
 6951 0266 FFF7FEFF 		bl	LL_ATON_getbits
 6952              	.LVL812:
2219:../../Middlewares/AI_Runtime/Npu/ll_aton/ll_aton.c ****       if (conf->combinebc)
 6953              		.loc 1 2219 83 discriminator 1 view .LVU2628
 6954 026a 079B     		ldr	r3, [sp, #28]
 6955 026c 5843     		muls	r0, r3, r0
 6956 026e 099B     		ldr	r3, [sp, #36]
 6957              	.LVL813:
 6958              	.L447:
2220:../../Middlewares/AI_Runtime/Npu/ll_aton/ll_aton.c ****       {
 6959              		.loc 1 2220 7 is_stmt 1 view .LVU2629
2222:../../Middlewares/AI_Runtime/Npu/ll_aton/ll_aton.c ****         C = (C & 0xFFFF);
 6960              		.loc 1 2222 9 view .LVU2630
2220:../../Middlewares/AI_Runtime/Npu/ll_aton/ll_aton.c ****       {
 6961              		.loc 1 2220 11 is_stmt 0 view .LVU2631
 6962 0270 E278     		ldrb	r2, [r4, #3]	@ zero_extendqisi2
2234:../../Middlewares/AI_Runtime/Npu/ll_aton/ll_aton.c ****       t = ATON_ARITH_COEFF_AB_SET_B(t, B);
 6963              		.loc 1 2234 11 view .LVU2632
 6964 0272 BFB2     		uxth	r7, r7
 6965              	.LVL814:
2220:../../Middlewares/AI_Runtime/Npu/ll_aton/ll_aton.c ****       {
 6966              		.loc 1 2220 10 view .LVU2633
 6967 0274 D207     		lsls	r2, r2, #31
2222:../../Middlewares/AI_Runtime/Npu/ll_aton/ll_aton.c ****         C = (C & 0xFFFF);
 6968              		.loc 1 2222 11 view .LVU2634
 6969 0276 44BF     		itt	mi
 6970 0278 030C     		lsrmi	r3, r0, #16
 6971              	.LVL815:
2223:../../Middlewares/AI_Runtime/Npu/ll_aton/ll_aton.c ****       }
 6972              		.loc 1 2223 9 is_stmt 1 view .LVU2635
2223:../../Middlewares/AI_Runtime/Npu/ll_aton/ll_aton.c ****       }
 6973              		.loc 1 2223 11 is_stmt 0 view .LVU2636
 6974 027a 80B2     		uxthmi	r0, r0
 6975              	.LVL816:
2225:../../Middlewares/AI_Runtime/Npu/ll_aton/ll_aton.c ****       {
ARM GAS  C:\Users\Antonio\AppData\Local\Temp\ccynTwLp.s 			page 221


 6976              		.loc 1 2225 7 is_stmt 1 view .LVU2637
2225:../../Middlewares/AI_Runtime/Npu/ll_aton/ll_aton.c ****       {
 6977              		.loc 1 2225 10 is_stmt 0 view .LVU2638
 6978 027c B8F5C07F 		cmp	r8, #384
2230:../../Middlewares/AI_Runtime/Npu/ll_aton/ll_aton.c ****         k -= (256 / 2);
 6979              		.loc 1 2230 9 is_stmt 1 view .LVU2639
2230:../../Middlewares/AI_Runtime/Npu/ll_aton/ll_aton.c ****         k -= (256 / 2);
 6980              		.loc 1 2230 9 view .LVU2640
2231:../../Middlewares/AI_Runtime/Npu/ll_aton/ll_aton.c ****       }
 6981              		.loc 1 2231 11 is_stmt 0 view .LVU2641
 6982 0280 02BF     		ittt	eq
 6983 0282 4FF48078 		moveq	r8, #256
 6984              	.LVL817:
2230:../../Middlewares/AI_Runtime/Npu/ll_aton/ll_aton.c ****         k -= (256 / 2);
 6985              		.loc 1 2230 9 view .LVU2642
 6986 0286 0021     		moveq	r1, #0
 6987 0288 069A     		ldreq	r2, [sp, #24]
2235:../../Middlewares/AI_Runtime/Npu/ll_aton/ll_aton.c ****       ATON_ARITH_COEFF_AB_SET(id, k, t);
 6988              		.loc 1 2235 9 view .LVU2643
 6989 028a 47EA0347 		orr	r7, r7, r3, lsl #16
2238:../../Middlewares/AI_Runtime/Npu/ll_aton/ll_aton.c ****       ATON_ARITH_COEFF_C_SET(id, k, t);
 6990              		.loc 1 2238 11 view .LVU2644
 6991 028e 80B2     		uxth	r0, r0
2236:../../Middlewares/AI_Runtime/Npu/ll_aton/ll_aton.c ****       t = ATON_ARITH_COEFF_C_DT;
 6992              		.loc 1 2236 7 view .LVU2645
 6993 0290 05EBC803 		add	r3, r5, r8, lsl #3
 6994              	.LVL818:
2230:../../Middlewares/AI_Runtime/Npu/ll_aton/ll_aton.c ****         k -= (256 / 2);
 6995              		.loc 1 2230 9 view .LVU2646
 6996 0294 08BF     		it	eq
 6997 0296 1160     		streq	r1, [r2]
2230:../../Middlewares/AI_Runtime/Npu/ll_aton/ll_aton.c ****         k -= (256 / 2);
 6998              		.loc 1 2230 9 is_stmt 1 view .LVU2647
2230:../../Middlewares/AI_Runtime/Npu/ll_aton/ll_aton.c ****         k -= (256 / 2);
 6999              		.loc 1 2230 44 view .LVU2648
2231:../../Middlewares/AI_Runtime/Npu/ll_aton/ll_aton.c ****       }
 7000              		.loc 1 2231 9 view .LVU2649
 7001              	.LVL819:
2233:../../Middlewares/AI_Runtime/Npu/ll_aton/ll_aton.c ****       t = ATON_ARITH_COEFF_AB_SET_A(t, A);
 7002              		.loc 1 2233 7 view .LVU2650
2234:../../Middlewares/AI_Runtime/Npu/ll_aton/ll_aton.c ****       t = ATON_ARITH_COEFF_AB_SET_B(t, B);
 7003              		.loc 1 2234 7 view .LVU2651
2235:../../Middlewares/AI_Runtime/Npu/ll_aton/ll_aton.c ****       ATON_ARITH_COEFF_AB_SET(id, k, t);
 7004              		.loc 1 2235 7 view .LVU2652
2236:../../Middlewares/AI_Runtime/Npu/ll_aton/ll_aton.c ****       t = ATON_ARITH_COEFF_C_DT;
 7005              		.loc 1 2236 7 view .LVU2653
2236:../../Middlewares/AI_Runtime/Npu/ll_aton/ll_aton.c ****       t = ATON_ARITH_COEFF_C_DT;
 7006              		.loc 1 2236 7 view .LVU2654
 7007 0298 C3F80074 		str	r7, [r3, #1024]
2236:../../Middlewares/AI_Runtime/Npu/ll_aton/ll_aton.c ****       t = ATON_ARITH_COEFF_C_DT;
 7008              		.loc 1 2236 7 view .LVU2655
2237:../../Middlewares/AI_Runtime/Npu/ll_aton/ll_aton.c ****       t = ATON_ARITH_COEFF_C_SET_C(t, C);
 7009              		.loc 1 2237 7 view .LVU2656
 7010              	.LVL820:
2238:../../Middlewares/AI_Runtime/Npu/ll_aton/ll_aton.c ****       ATON_ARITH_COEFF_C_SET(id, k, t);
 7011              		.loc 1 2238 7 view .LVU2657
2239:../../Middlewares/AI_Runtime/Npu/ll_aton/ll_aton.c **** 
ARM GAS  C:\Users\Antonio\AppData\Local\Temp\ccynTwLp.s 			page 222


 7012              		.loc 1 2239 7 view .LVU2658
2239:../../Middlewares/AI_Runtime/Npu/ll_aton/ll_aton.c **** 
 7013              		.loc 1 2239 7 view .LVU2659
 7014 029c C3F80404 		str	r0, [r3, #1028]
2239:../../Middlewares/AI_Runtime/Npu/ll_aton/ll_aton.c **** 
 7015              		.loc 1 2239 7 view .LVU2660
2241:../../Middlewares/AI_Runtime/Npu/ll_aton/ll_aton.c ****       bitcnt_B += nbits_B;
 7016              		.loc 1 2241 7 view .LVU2661
2241:../../Middlewares/AI_Runtime/Npu/ll_aton/ll_aton.c ****       bitcnt_B += nbits_B;
 7017              		.loc 1 2241 16 is_stmt 0 view .LVU2662
 7018 02a0 039B     		ldr	r3, [sp, #12]
 7019              	.LBE152:
2214:../../Middlewares/AI_Runtime/Npu/ll_aton/ll_aton.c ****     {
 7020              		.loc 1 2214 35 discriminator 2 view .LVU2663
 7021 02a2 09F10109 		add	r9, r9, #1
 7022              	.LVL821:
 7023              	.LBB153:
2241:../../Middlewares/AI_Runtime/Npu/ll_aton/ll_aton.c ****       bitcnt_B += nbits_B;
 7024              		.loc 1 2241 16 view .LVU2664
 7025 02a6 9A44     		add	r10, r10, r3
 7026              	.LVL822:
2242:../../Middlewares/AI_Runtime/Npu/ll_aton/ll_aton.c ****       bitcnt_C += nbits_C;
 7027              		.loc 1 2242 7 is_stmt 1 view .LVU2665
2242:../../Middlewares/AI_Runtime/Npu/ll_aton/ll_aton.c ****       bitcnt_C += nbits_C;
 7028              		.loc 1 2242 16 is_stmt 0 view .LVU2666
 7029 02a8 049B     		ldr	r3, [sp, #16]
 7030              	.LBE153:
2214:../../Middlewares/AI_Runtime/Npu/ll_aton/ll_aton.c ****     {
 7031              		.loc 1 2214 40 discriminator 2 view .LVU2667
 7032 02aa 08F10108 		add	r8, r8, #1
 7033              	.LVL823:
 7034              	.LBB154:
2242:../../Middlewares/AI_Runtime/Npu/ll_aton/ll_aton.c ****       bitcnt_C += nbits_C;
 7035              		.loc 1 2242 16 view .LVU2668
 7036 02ae 9B44     		add	fp, fp, r3
 7037              	.LVL824:
2243:../../Middlewares/AI_Runtime/Npu/ll_aton/ll_aton.c ****     }
 7038              		.loc 1 2243 7 is_stmt 1 view .LVU2669
2243:../../Middlewares/AI_Runtime/Npu/ll_aton/ll_aton.c ****     }
 7039              		.loc 1 2243 16 is_stmt 0 view .LVU2670
 7040 02b0 059B     		ldr	r3, [sp, #20]
 7041 02b2 1E44     		add	r6, r6, r3
 7042              	.LVL825:
2243:../../Middlewares/AI_Runtime/Npu/ll_aton/ll_aton.c ****     }
 7043              		.loc 1 2243 16 view .LVU2671
 7044              	.LBE154:
2214:../../Middlewares/AI_Runtime/Npu/ll_aton/ll_aton.c ****     {
 7045              		.loc 1 2214 37 is_stmt 1 discriminator 2 view .LVU2672
2214:../../Middlewares/AI_Runtime/Npu/ll_aton/ll_aton.c ****     {
 7046              		.loc 1 2214 37 is_stmt 0 discriminator 2 view .LVU2673
 7047 02b4 BBE7     		b	.L441
 7048              	.LVL826:
 7049              	.L437:
2142:../../Middlewares/AI_Runtime/Npu/ll_aton/ll_aton.c ****       ATON_ARITH_INCCNT_SET(id, t);
 7050              		.loc 1 2142 7 is_stmt 1 view .LVU2674
2142:../../Middlewares/AI_Runtime/Npu/ll_aton/ll_aton.c ****       ATON_ARITH_INCCNT_SET(id, t);
 7051              		.loc 1 2142 11 is_stmt 0 view .LVU2675
ARM GAS  C:\Users\Antonio\AppData\Local\Temp\ccynTwLp.s 			page 223


 7052 02b6 2169     		ldr	r1, [r4, #16]
 7053 02b8 608B     		ldrh	r0, [r4, #26]
 7054 02ba 00FB01F3 		mul	r3, r0, r1
 7055 02be 013B     		subs	r3, r3, #1
2142:../../Middlewares/AI_Runtime/Npu/ll_aton/ll_aton.c ****       ATON_ARITH_INCCNT_SET(id, t);
 7056              		.loc 1 2142 9 view .LVU2676
 7057 02c0 23F07843 		bic	r3, r3, #-134217728
 7058              	.LVL827:
2143:../../Middlewares/AI_Runtime/Npu/ll_aton/ll_aton.c **** 
 7059              		.loc 1 2143 7 is_stmt 1 view .LVU2677
2143:../../Middlewares/AI_Runtime/Npu/ll_aton/ll_aton.c **** 
 7060              		.loc 1 2143 7 view .LVU2678
 7061 02c4 EB60     		str	r3, [r5, #12]
2143:../../Middlewares/AI_Runtime/Npu/ll_aton/ll_aton.c **** 
 7062              		.loc 1 2143 7 view .LVU2679
2143:../../Middlewares/AI_Runtime/Npu/ll_aton/ll_aton.c **** 
 7063              		.loc 1 2143 35 view .LVU2680
2145:../../Middlewares/AI_Runtime/Npu/ll_aton/ll_aton.c ****       ATON_ARITH_RSTCNT1_SET(id, t);
 7064              		.loc 1 2145 7 view .LVU2681
2145:../../Middlewares/AI_Runtime/Npu/ll_aton/ll_aton.c ****       ATON_ARITH_RSTCNT1_SET(id, t);
 7065              		.loc 1 2145 11 is_stmt 0 view .LVU2682
 7066 02c6 6369     		ldr	r3, [r4, #20]
 7067              	.LVL828:
2145:../../Middlewares/AI_Runtime/Npu/ll_aton/ll_aton.c ****       ATON_ARITH_RSTCNT1_SET(id, t);
 7068              		.loc 1 2145 11 view .LVU2683
 7069 02c8 5943     		muls	r1, r3, r1
 7070 02ca 4143     		muls	r1, r0, r1
 7071              	.LVL829:
 7072              	.L465:
2145:../../Middlewares/AI_Runtime/Npu/ll_aton/ll_aton.c ****       ATON_ARITH_RSTCNT1_SET(id, t);
 7073              		.loc 1 2145 11 view .LVU2684
 7074 02cc 0139     		subs	r1, r1, #1
2145:../../Middlewares/AI_Runtime/Npu/ll_aton/ll_aton.c ****       ATON_ARITH_RSTCNT1_SET(id, t);
 7075              		.loc 1 2145 9 view .LVU2685
 7076 02ce 21F07841 		bic	r1, r1, #-134217728
 7077              	.LVL830:
2146:../../Middlewares/AI_Runtime/Npu/ll_aton/ll_aton.c **** 
 7078              		.loc 1 2146 7 is_stmt 1 view .LVU2686
2146:../../Middlewares/AI_Runtime/Npu/ll_aton/ll_aton.c **** 
 7079              		.loc 1 2146 7 view .LVU2687
 7080 02d2 2961     		str	r1, [r5, #16]
2146:../../Middlewares/AI_Runtime/Npu/ll_aton/ll_aton.c **** 
 7081              		.loc 1 2146 7 view .LVU2688
2146:../../Middlewares/AI_Runtime/Npu/ll_aton/ll_aton.c **** 
 7082              		.loc 1 2146 36 view .LVU2689
2148:../../Middlewares/AI_Runtime/Npu/ll_aton/ll_aton.c ****       ATON_ARITH_INCOFFSET_SET(id, t);
 7083              		.loc 1 2148 7 view .LVU2690
 7084              	.LVL831:
2149:../../Middlewares/AI_Runtime/Npu/ll_aton/ll_aton.c **** 
 7085              		.loc 1 2149 7 view .LVU2691
2149:../../Middlewares/AI_Runtime/Npu/ll_aton/ll_aton.c **** 
 7086              		.loc 1 2149 7 view .LVU2692
 7087 02d4 0121     		movs	r1, #1
 7088 02d6 A962     		str	r1, [r5, #40]
2149:../../Middlewares/AI_Runtime/Npu/ll_aton/ll_aton.c **** 
 7089              		.loc 1 2149 7 view .LVU2693
2149:../../Middlewares/AI_Runtime/Npu/ll_aton/ll_aton.c **** 
ARM GAS  C:\Users\Antonio\AppData\Local\Temp\ccynTwLp.s 			page 224


 7090              		.loc 1 2149 38 view .LVU2694
2151:../../Middlewares/AI_Runtime/Npu/ll_aton/ll_aton.c ****       ATON_ARITH_ADDROFFSET_SET(id, t);
 7091              		.loc 1 2151 7 view .LVU2695
2151:../../Middlewares/AI_Runtime/Npu/ll_aton/ll_aton.c ****       ATON_ARITH_ADDROFFSET_SET(id, t);
 7092              		.loc 1 2151 11 is_stmt 0 view .LVU2696
 7093 02d8 C91A     		subs	r1, r1, r3
2151:../../Middlewares/AI_Runtime/Npu/ll_aton/ll_aton.c ****       ATON_ARITH_ADDROFFSET_SET(id, t);
 7094              		.loc 1 2151 9 view .LVU2697
 7095 02da C1F30801 		ubfx	r1, r1, #0, #9
 7096 02de 7FE7     		b	.L464
 7097              	.LVL832:
 7098              	.L436:
2156:../../Middlewares/AI_Runtime/Npu/ll_aton/ll_aton.c ****       ATON_ARITH_INCCNT_SET(id, t);
 7099              		.loc 1 2156 7 is_stmt 1 view .LVU2698
2156:../../Middlewares/AI_Runtime/Npu/ll_aton/ll_aton.c ****       ATON_ARITH_INCCNT_SET(id, t);
 7100              		.loc 1 2156 11 is_stmt 0 view .LVU2699
 7101 02e0 618B     		ldrh	r1, [r4, #26]
 7102 02e2 4B1E     		subs	r3, r1, #1
2156:../../Middlewares/AI_Runtime/Npu/ll_aton/ll_aton.c ****       ATON_ARITH_INCCNT_SET(id, t);
 7103              		.loc 1 2156 9 view .LVU2700
 7104 02e4 23F07843 		bic	r3, r3, #-134217728
 7105              	.LVL833:
2157:../../Middlewares/AI_Runtime/Npu/ll_aton/ll_aton.c **** 
 7106              		.loc 1 2157 7 is_stmt 1 view .LVU2701
2157:../../Middlewares/AI_Runtime/Npu/ll_aton/ll_aton.c **** 
 7107              		.loc 1 2157 7 view .LVU2702
 7108 02e8 EB60     		str	r3, [r5, #12]
2157:../../Middlewares/AI_Runtime/Npu/ll_aton/ll_aton.c **** 
 7109              		.loc 1 2157 7 view .LVU2703
2157:../../Middlewares/AI_Runtime/Npu/ll_aton/ll_aton.c **** 
 7110              		.loc 1 2157 35 view .LVU2704
2159:../../Middlewares/AI_Runtime/Npu/ll_aton/ll_aton.c ****       ATON_ARITH_RSTCNT1_SET(id, t);
 7111              		.loc 1 2159 7 view .LVU2705
2159:../../Middlewares/AI_Runtime/Npu/ll_aton/ll_aton.c ****       ATON_ARITH_RSTCNT1_SET(id, t);
 7112              		.loc 1 2159 11 is_stmt 0 view .LVU2706
 7113 02ea 2369     		ldr	r3, [r4, #16]
 7114              	.LVL834:
 7115              	.L466:
2173:../../Middlewares/AI_Runtime/Npu/ll_aton/ll_aton.c ****       ATON_ARITH_RSTCNT1_SET(id, t);
 7116              		.loc 1 2173 11 view .LVU2707
 7117 02ec 5943     		muls	r1, r3, r1
 7118 02ee EDE7     		b	.L465
 7119              	.LVL835:
 7120              	.L435:
2170:../../Middlewares/AI_Runtime/Npu/ll_aton/ll_aton.c ****       ATON_ARITH_INCCNT_SET(id, t);
 7121              		.loc 1 2170 7 is_stmt 1 view .LVU2708
2170:../../Middlewares/AI_Runtime/Npu/ll_aton/ll_aton.c ****       ATON_ARITH_INCCNT_SET(id, t);
 7122              		.loc 1 2170 11 is_stmt 0 view .LVU2709
 7123 02f0 618B     		ldrh	r1, [r4, #26]
 7124 02f2 4B1E     		subs	r3, r1, #1
2170:../../Middlewares/AI_Runtime/Npu/ll_aton/ll_aton.c ****       ATON_ARITH_INCCNT_SET(id, t);
 7125              		.loc 1 2170 9 view .LVU2710
 7126 02f4 23F07843 		bic	r3, r3, #-134217728
 7127              	.LVL836:
2171:../../Middlewares/AI_Runtime/Npu/ll_aton/ll_aton.c **** 
 7128              		.loc 1 2171 7 is_stmt 1 view .LVU2711
2171:../../Middlewares/AI_Runtime/Npu/ll_aton/ll_aton.c **** 
ARM GAS  C:\Users\Antonio\AppData\Local\Temp\ccynTwLp.s 			page 225


 7129              		.loc 1 2171 7 view .LVU2712
 7130 02f8 EB60     		str	r3, [r5, #12]
2171:../../Middlewares/AI_Runtime/Npu/ll_aton/ll_aton.c **** 
 7131              		.loc 1 2171 7 view .LVU2713
2171:../../Middlewares/AI_Runtime/Npu/ll_aton/ll_aton.c **** 
 7132              		.loc 1 2171 35 view .LVU2714
2173:../../Middlewares/AI_Runtime/Npu/ll_aton/ll_aton.c ****       ATON_ARITH_RSTCNT1_SET(id, t);
 7133              		.loc 1 2173 7 view .LVU2715
2173:../../Middlewares/AI_Runtime/Npu/ll_aton/ll_aton.c ****       ATON_ARITH_RSTCNT1_SET(id, t);
 7134              		.loc 1 2173 11 is_stmt 0 view .LVU2716
 7135 02fa D4E90403 		ldrd	r0, r3, [r4, #16]
 7136              	.LVL837:
2173:../../Middlewares/AI_Runtime/Npu/ll_aton/ll_aton.c ****       ATON_ARITH_RSTCNT1_SET(id, t);
 7137              		.loc 1 2173 11 view .LVU2717
 7138 02fe 4343     		muls	r3, r0, r3
 7139 0300 F4E7     		b	.L466
 7140              	.LVL838:
 7141              	.L433:
2184:../../Middlewares/AI_Runtime/Npu/ll_aton/ll_aton.c ****       ATON_ARITH_INCCNT_SET(id, t);
 7142              		.loc 1 2184 7 is_stmt 1 view .LVU2718
2185:../../Middlewares/AI_Runtime/Npu/ll_aton/ll_aton.c **** 
 7143              		.loc 1 2185 7 view .LVU2719
2185:../../Middlewares/AI_Runtime/Npu/ll_aton/ll_aton.c **** 
 7144              		.loc 1 2185 7 view .LVU2720
 7145 0302 EB60     		str	r3, [r5, #12]
2185:../../Middlewares/AI_Runtime/Npu/ll_aton/ll_aton.c **** 
 7146              		.loc 1 2185 7 view .LVU2721
2185:../../Middlewares/AI_Runtime/Npu/ll_aton/ll_aton.c **** 
 7147              		.loc 1 2185 35 view .LVU2722
2187:../../Middlewares/AI_Runtime/Npu/ll_aton/ll_aton.c ****       ATON_ARITH_INCOFFSET_SET(id, t);
 7148              		.loc 1 2187 7 view .LVU2723
2188:../../Middlewares/AI_Runtime/Npu/ll_aton/ll_aton.c **** 
 7149              		.loc 1 2188 7 view .LVU2724
2188:../../Middlewares/AI_Runtime/Npu/ll_aton/ll_aton.c **** 
 7150              		.loc 1 2188 7 view .LVU2725
 7151 0304 AB62     		str	r3, [r5, #40]
2188:../../Middlewares/AI_Runtime/Npu/ll_aton/ll_aton.c **** 
 7152              		.loc 1 2188 7 view .LVU2726
2188:../../Middlewares/AI_Runtime/Npu/ll_aton/ll_aton.c **** 
 7153              		.loc 1 2188 38 view .LVU2727
2190:../../Middlewares/AI_Runtime/Npu/ll_aton/ll_aton.c ****       break;
 7154              		.loc 1 2190 7 view .LVU2728
 7155              	.LVL839:
2191:../../Middlewares/AI_Runtime/Npu/ll_aton/ll_aton.c ****     default:
 7156              		.loc 1 2191 7 view .LVU2729
2190:../../Middlewares/AI_Runtime/Npu/ll_aton/ll_aton.c ****       break;
 7157              		.loc 1 2190 12 is_stmt 0 view .LVU2730
 7158 0306 0123     		movs	r3, #1
2191:../../Middlewares/AI_Runtime/Npu/ll_aton/ll_aton.c ****     default:
 7159              		.loc 1 2191 7 view .LVU2731
 7160 0308 6BE7     		b	.L439
 7161              	.LVL840:
 7162              	.L442:
 7163              	.LBB155:
2217:../../Middlewares/AI_Runtime/Npu/ll_aton/ll_aton.c ****       uint32_t B = Bp != NULL ? LL_ATON_getbits(Bp, bitcnt_B, nbits_B) : (uint32_t)conf->B_scalar;
 7164              		.loc 1 2217 72 discriminator 2 view .LVU2732
 7165 030a B4F92070 		ldrsh	r7, [r4, #32]
ARM GAS  C:\Users\Antonio\AppData\Local\Temp\ccynTwLp.s 			page 226


 7166 030e 9AE7     		b	.L443
 7167              	.LVL841:
 7168              	.L444:
2218:../../Middlewares/AI_Runtime/Npu/ll_aton/ll_aton.c ****       uint32_t C = Cp != NULL ? (c_sign * LL_ATON_getbits(Cp, bitcnt_C, nbits_C)) : (uint32_t)conf-
 7169              		.loc 1 2218 72 discriminator 2 view .LVU2733
 7170 0310 B4F92230 		ldrsh	r3, [r4, #34]
 7171 0314 A0E7     		b	.L445
 7172              	.LVL842:
 7173              	.L446:
2219:../../Middlewares/AI_Runtime/Npu/ll_aton/ll_aton.c ****       if (conf->combinebc)
 7174              		.loc 1 2219 83 discriminator 2 view .LVU2734
 7175 0316 B4F92400 		ldrsh	r0, [r4, #36]
 7176 031a A9E7     		b	.L447
 7177              	.LVL843:
 7178              	.L452:
2219:../../Middlewares/AI_Runtime/Npu/ll_aton/ll_aton.c ****       if (conf->combinebc)
 7179              		.loc 1 2219 83 discriminator 2 view .LVU2735
 7180              	.LBE155:
 7181              	.LBE151:
2024:../../Middlewares/AI_Runtime/Npu/ll_aton/ll_aton.c **** 
 7182              		.loc 1 2024 12 view .LVU2736
 7183 031c 4FF0FF30 		mov	r0, #-1
 7184              	.LVL844:
2024:../../Middlewares/AI_Runtime/Npu/ll_aton/ll_aton.c **** 
 7185              		.loc 1 2024 12 view .LVU2737
 7186 0320 25E7     		b	.L424
 7187              	.LVL845:
 7188              	.L455:
 7189              	.LBB156:
2115:../../Middlewares/AI_Runtime/Npu/ll_aton/ll_aton.c ****     {
 7190              		.loc 1 2115 5 view .LVU2738
 7191 0322 6FF00100 		mvn	r0, #1
 7192 0326 22E7     		b	.L424
 7193              	.L468:
 7194              		.align	2
 7195              	.L467:
 7196 0328 A3000000 		.word	.LC7
 7197 032c 00000000 		.word	__func__.2
 7198 0330 05000000 		.word	.LC4
 7199 0334 0000FC07 		.word	133955584
 7200 0338 00000000 		.word	CSWTCH.206
 7201              	.LBE156:
 7202              		.cfi_endproc
 7203              	.LFE4845:
 7205              		.section	.text.LL_Poolacc_Init,"ax",%progbits
 7206              		.align	1
 7207              		.global	LL_Poolacc_Init
 7208              		.syntax unified
 7209              		.thumb
 7210              		.thumb_func
 7212              	LL_Poolacc_Init:
 7213              	.LVL846:
 7214              	.LFB4847:
2282:../../Middlewares/AI_Runtime/Npu/ll_aton/ll_aton.c ****   uint32_t t;
 7215              		.loc 1 2282 1 is_stmt 1 view -0
 7216              		.cfi_startproc
 7217              		@ args = 0, pretend = 0, frame = 0
ARM GAS  C:\Users\Antonio\AppData\Local\Temp\ccynTwLp.s 			page 227


 7218              		@ frame_needed = 0, uses_anonymous_args = 0
2283:../../Middlewares/AI_Runtime/Npu/ll_aton/ll_aton.c **** 
 7219              		.loc 1 2283 3 view .LVU2740
2285:../../Middlewares/AI_Runtime/Npu/ll_aton/ll_aton.c ****     return LL_ATON_INVALID_ID;
 7220              		.loc 1 2285 3 view .LVU2741
2285:../../Middlewares/AI_Runtime/Npu/ll_aton/ll_aton.c ****     return LL_ATON_INVALID_ID;
 7221              		.loc 1 2285 6 is_stmt 0 view .LVU2742
 7222 0000 0128     		cmp	r0, #1
2282:../../Middlewares/AI_Runtime/Npu/ll_aton/ll_aton.c ****   uint32_t t;
 7223              		.loc 1 2282 1 view .LVU2743
 7224 0002 F8B5     		push	{r3, r4, r5, r6, r7, lr}
 7225              		.cfi_def_cfa_offset 24
 7226              		.cfi_offset 3, -24
 7227              		.cfi_offset 4, -20
 7228              		.cfi_offset 5, -16
 7229              		.cfi_offset 6, -12
 7230              		.cfi_offset 7, -8
 7231              		.cfi_offset 14, -4
2282:../../Middlewares/AI_Runtime/Npu/ll_aton/ll_aton.c ****   uint32_t t;
 7232              		.loc 1 2282 1 view .LVU2744
 7233 0004 0546     		mov	r5, r0
 7234 0006 0C46     		mov	r4, r1
2285:../../Middlewares/AI_Runtime/Npu/ll_aton/ll_aton.c ****     return LL_ATON_INVALID_ID;
 7235              		.loc 1 2285 6 view .LVU2745
 7236 0008 00F3B380 		bgt	.L476
2288:../../Middlewares/AI_Runtime/Npu/ll_aton/ll_aton.c **** 
 7237              		.loc 1 2288 3 is_stmt 1 view .LVU2746
 7238 000c 1630     		adds	r0, r0, #22
 7239              	.LVL847:
2288:../../Middlewares/AI_Runtime/Npu/ll_aton/ll_aton.c **** 
 7240              		.loc 1 2288 3 is_stmt 0 view .LVU2747
 7241 000e FFF7FEFF 		bl	LL_ATON_EnableClock
 7242              	.LVL848:
2300:../../Middlewares/AI_Runtime/Npu/ll_aton/ll_aton.c ****   t = ATON_POOL_CTRL_SET_TYPE(t, get_Poolacc_type(conf->operation));
 7243              		.loc 1 2300 3 is_stmt 1 view .LVU2748
2301:../../Middlewares/AI_Runtime/Npu/ll_aton/ll_aton.c ****   t = ATON_POOL_CTRL_SET_ROUND(t, (conf->rounding_o != 0));
 7244              		.loc 1 2301 3 view .LVU2749
 7245              	.LBB159:
 7246              	.LBI159:
2252:../../Middlewares/AI_Runtime/Npu/ll_aton/ll_aton.c **** {
 7247              		.loc 1 2252 16 view .LVU2750
 7248              	.LBB160:
2254:../../Middlewares/AI_Runtime/Npu/ll_aton/ll_aton.c ****   {
 7249              		.loc 1 2254 3 view .LVU2751
 7250 0012 2378     		ldrb	r3, [r4]	@ zero_extendqisi2
 7251 0014 013B     		subs	r3, r3, #1
 7252 0016 DBB2     		uxtb	r3, r3
 7253 0018 052B     		cmp	r3, #5
 7254 001a 00F2A380 		bhi	.L471
 7255              	.LVL849:
2254:../../Middlewares/AI_Runtime/Npu/ll_aton/ll_aton.c ****   {
 7256              		.loc 1 2254 3 is_stmt 0 view .LVU2752
 7257              	.LBE160:
 7258              	.LBE159:
2302:../../Middlewares/AI_Runtime/Npu/ll_aton/ll_aton.c ****   t = ATON_POOL_CTRL_SET_SAT(t, (conf->saturation_o != 0));
 7259              		.loc 1 2302 3 is_stmt 1 view .LVU2753
2303:../../Middlewares/AI_Runtime/Npu/ll_aton/ll_aton.c ****   t = ATON_POOL_CTRL_SET_OUTSHIFT(t, conf->shift_o);
ARM GAS  C:\Users\Antonio\AppData\Local\Temp\ccynTwLp.s 			page 228


 7260              		.loc 1 2303 3 view .LVU2754
2304:../../Middlewares/AI_Runtime/Npu/ll_aton/ll_aton.c ****   t = ATON_POOL_CTRL_SET_FBYTES(t, conf->inbytes_f);
 7261              		.loc 1 2304 3 view .LVU2755
2305:../../Middlewares/AI_Runtime/Npu/ll_aton/ll_aton.c ****   t = ATON_POOL_CTRL_SET_FSHIFT(t, ATON_SHIFT(conf->shift_f));
 7262              		.loc 1 2305 3 view .LVU2756
2306:../../Middlewares/AI_Runtime/Npu/ll_aton/ll_aton.c ****   t = ATON_POOL_CTRL_SET_FROUND(t, (conf->rounding_f != 0));
 7263              		.loc 1 2306 3 view .LVU2757
2307:../../Middlewares/AI_Runtime/Npu/ll_aton/ll_aton.c ****   t = ATON_POOL_CTRL_SET_FSAT(t, (conf->saturation_f != 0));
 7264              		.loc 1 2307 3 view .LVU2758
2301:../../Middlewares/AI_Runtime/Npu/ll_aton/ll_aton.c ****   t = ATON_POOL_CTRL_SET_ROUND(t, (conf->rounding_o != 0));
 7265              		.loc 1 2301 7 is_stmt 0 discriminator 1 view .LVU2759
 7266 001e 5649     		ldr	r1, .L479
2307:../../Middlewares/AI_Runtime/Npu/ll_aton/ll_aton.c ****   t = ATON_POOL_CTRL_SET_FSAT(t, (conf->saturation_f != 0));
 7267              		.loc 1 2307 7 view .LVU2760
 7268 0020 94F82200 		ldrb	r0, [r4, #34]	@ zero_extendqisi2
2301:../../Middlewares/AI_Runtime/Npu/ll_aton/ll_aton.c ****   t = ATON_POOL_CTRL_SET_ROUND(t, (conf->rounding_o != 0));
 7269              		.loc 1 2301 7 discriminator 1 view .LVU2761
 7270 0024 CB56     		ldrsb	r3, [r1, r3]
 7271              	.LVL850:
2305:../../Middlewares/AI_Runtime/Npu/ll_aton/ll_aton.c ****   t = ATON_POOL_CTRL_SET_FSHIFT(t, ATON_SHIFT(conf->shift_f));
 7272              		.loc 1 2305 7 view .LVU2762
 7273 0026 618C     		ldrh	r1, [r4, #34]
2301:../../Middlewares/AI_Runtime/Npu/ll_aton/ll_aton.c ****   t = ATON_POOL_CTRL_SET_ROUND(t, (conf->rounding_o != 0));
 7274              		.loc 1 2301 7 discriminator 1 view .LVU2763
 7275 0028 9B00     		lsls	r3, r3, #2
2305:../../Middlewares/AI_Runtime/Npu/ll_aton/ll_aton.c ****   t = ATON_POOL_CTRL_SET_FSHIFT(t, ATON_SHIFT(conf->shift_f));
 7276              		.loc 1 2305 7 view .LVU2764
 7277 002a C1F3C111 		ubfx	r1, r1, #7, #2
2301:../../Middlewares/AI_Runtime/Npu/ll_aton/ll_aton.c ****   t = ATON_POOL_CTRL_SET_ROUND(t, (conf->rounding_o != 0));
 7278              		.loc 1 2301 7 discriminator 1 view .LVU2765
 7279 002e 03F03C03 		and	r3, r3, #60
2312:../../Middlewares/AI_Runtime/Npu/ll_aton/ll_aton.c **** #if 0
 7280              		.loc 1 2312 5 view .LVU2766
 7281 0032 43EA0143 		orr	r3, r3, r1, lsl #16
2302:../../Middlewares/AI_Runtime/Npu/ll_aton/ll_aton.c ****   t = ATON_POOL_CTRL_SET_SAT(t, (conf->saturation_o != 0));
 7282              		.loc 1 2302 7 view .LVU2767
 7283 0036 94F82310 		ldrb	r1, [r4, #35]	@ zero_extendqisi2
2307:../../Middlewares/AI_Runtime/Npu/ll_aton/ll_aton.c ****   t = ATON_POOL_CTRL_SET_FSAT(t, (conf->saturation_f != 0));
 7284              		.loc 1 2307 7 view .LVU2768
 7285 003a 4205     		lsls	r2, r0, #21
 7286              	.LVL851:
2308:../../Middlewares/AI_Runtime/Npu/ll_aton/ll_aton.c **** #ifdef ATON_POOL_CTRL_SET_AVGNOPAD
 7287              		.loc 1 2308 3 is_stmt 1 view .LVU2769
2312:../../Middlewares/AI_Runtime/Npu/ll_aton/ll_aton.c **** #if 0
 7288              		.loc 1 2312 3 view .LVU2770
2302:../../Middlewares/AI_Runtime/Npu/ll_aton/ll_aton.c ****   t = ATON_POOL_CTRL_SET_SAT(t, (conf->saturation_o != 0));
 7289              		.loc 1 2302 7 is_stmt 0 view .LVU2771
 7290 003c C900     		lsls	r1, r1, #3
2312:../../Middlewares/AI_Runtime/Npu/ll_aton/ll_aton.c **** #if 0
 7291              		.loc 1 2312 5 view .LVU2772
 7292 003e 01F0C001 		and	r1, r1, #192
 7293 0042 0B43     		orrs	r3, r3, r1
2304:../../Middlewares/AI_Runtime/Npu/ll_aton/ll_aton.c ****   t = ATON_POOL_CTRL_SET_FBYTES(t, conf->inbytes_f);
 7294              		.loc 1 2304 7 view .LVU2773
 7295 0044 94F82110 		ldrb	r1, [r4, #33]	@ zero_extendqisi2
2312:../../Middlewares/AI_Runtime/Npu/ll_aton/ll_aton.c **** #if 0
 7296              		.loc 1 2312 7 view .LVU2774
ARM GAS  C:\Users\Antonio\AppData\Local\Temp\ccynTwLp.s 			page 229


 7297 0048 00F00100 		and	r0, r0, #1
2304:../../Middlewares/AI_Runtime/Npu/ll_aton/ll_aton.c ****   t = ATON_POOL_CTRL_SET_FBYTES(t, conf->inbytes_f);
 7298              		.loc 1 2304 7 view .LVU2775
 7299 004c 0902     		lsls	r1, r1, #8
 7300              	.LVL852:
2304:../../Middlewares/AI_Runtime/Npu/ll_aton/ll_aton.c ****   t = ATON_POOL_CTRL_SET_FBYTES(t, conf->inbytes_f);
 7301              		.loc 1 2304 7 view .LVU2776
 7302 004e 01F47C51 		and	r1, r1, #16128
 7303              	.LVL853:
2312:../../Middlewares/AI_Runtime/Npu/ll_aton/ll_aton.c **** #if 0
 7304              		.loc 1 2312 5 view .LVU2777
 7305 0052 0B43     		orrs	r3, r3, r1
 7306 0054 43EA8033 		orr	r3, r3, r0, lsl #14
2308:../../Middlewares/AI_Runtime/Npu/ll_aton/ll_aton.c **** #ifdef ATON_POOL_CTRL_SET_AVGNOPAD
 7307              		.loc 1 2308 7 view .LVU2778
 7308 0058 02F04072 		and	r2, r2, #50331648
 7309              	.LVL854:
2312:../../Middlewares/AI_Runtime/Npu/ll_aton/ll_aton.c **** #if 0
 7310              		.loc 1 2312 5 view .LVU2779
 7311 005c 1A43     		orrs	r2, r2, r3
2306:../../Middlewares/AI_Runtime/Npu/ll_aton/ll_aton.c ****   t = ATON_POOL_CTRL_SET_FROUND(t, (conf->rounding_f != 0));
 7312              		.loc 1 2306 7 view .LVU2780
 7313 005e 94F82030 		ldrb	r3, [r4, #32]	@ zero_extendqisi2
2324:../../Middlewares/AI_Runtime/Npu/ll_aton/ll_aton.c ****   t = ATON_POOL_RNDCTRL_SET_OBYTES(t, conf->outbytes_o);
 7314              		.loc 1 2324 7 view .LVU2781
 7315 0062 94F82210 		ldrb	r1, [r4, #34]	@ zero_extendqisi2
 7316              	.LVL855:
2306:../../Middlewares/AI_Runtime/Npu/ll_aton/ll_aton.c ****   t = ATON_POOL_CTRL_SET_FROUND(t, (conf->rounding_f != 0));
 7317              		.loc 1 2306 7 view .LVU2782
 7318 0066 1033     		adds	r3, r3, #16
 7319              	.LVL856:
2306:../../Middlewares/AI_Runtime/Npu/ll_aton/ll_aton.c ****   t = ATON_POOL_CTRL_SET_FROUND(t, (conf->rounding_f != 0));
 7320              		.loc 1 2306 7 view .LVU2783
 7321 0068 9B04     		lsls	r3, r3, #18
 7322              	.LVL857:
2306:../../Middlewares/AI_Runtime/Npu/ll_aton/ll_aton.c ****   t = ATON_POOL_CTRL_SET_FROUND(t, (conf->rounding_f != 0));
 7323              		.loc 1 2306 7 view .LVU2784
 7324 006a 03F47C03 		and	r3, r3, #16515072
2312:../../Middlewares/AI_Runtime/Npu/ll_aton/ll_aton.c **** #if 0
 7325              		.loc 1 2312 5 view .LVU2785
 7326 006e 1A43     		orrs	r2, r2, r3
 7327              	.LVL858:
2316:../../Middlewares/AI_Runtime/Npu/ll_aton/ll_aton.c **** #endif
 7328              		.loc 1 2316 3 is_stmt 1 view .LVU2786
2318:../../Middlewares/AI_Runtime/Npu/ll_aton/ll_aton.c ****   ATON_POOL_CTRL_SET(id, t);
 7329              		.loc 1 2318 3 view .LVU2787
2319:../../Middlewares/AI_Runtime/Npu/ll_aton/ll_aton.c **** 
 7330              		.loc 1 2319 3 is_stmt 0 view .LVU2788
 7331 0070 05F5B023 		add	r3, r5, #360448
 7332 0074 FB33     		adds	r3, r3, #251
 7333 0076 1B03     		lsls	r3, r3, #12
2318:../../Middlewares/AI_Runtime/Npu/ll_aton/ll_aton.c ****   ATON_POOL_CTRL_SET(id, t);
 7334              		.loc 1 2318 5 view .LVU2789
 7335 0078 42F40042 		orr	r2, r2, #32768
 7336              	.LVL859:
2319:../../Middlewares/AI_Runtime/Npu/ll_aton/ll_aton.c **** 
 7337              		.loc 1 2319 3 is_stmt 1 view .LVU2790
ARM GAS  C:\Users\Antonio\AppData\Local\Temp\ccynTwLp.s 			page 230


2319:../../Middlewares/AI_Runtime/Npu/ll_aton/ll_aton.c **** 
 7338              		.loc 1 2319 3 view .LVU2791
 7339 007c 1A60     		str	r2, [r3]
2319:../../Middlewares/AI_Runtime/Npu/ll_aton/ll_aton.c **** 
 7340              		.loc 1 2319 3 view .LVU2792
2319:../../Middlewares/AI_Runtime/Npu/ll_aton/ll_aton.c **** 
 7341              		.loc 1 2319 28 view .LVU2793
2322:../../Middlewares/AI_Runtime/Npu/ll_aton/ll_aton.c ****   t = ATON_POOL_RNDCTRL_SET_FOBYTES(t, conf->outbytes_f);
 7342              		.loc 1 2322 3 view .LVU2794
 7343              	.LVL860:
2323:../../Middlewares/AI_Runtime/Npu/ll_aton/ll_aton.c ****   t = ATON_POOL_RNDCTRL_SET_FRNDMODE(t, conf->round_mode_f);
 7344              		.loc 1 2323 3 view .LVU2795
2324:../../Middlewares/AI_Runtime/Npu/ll_aton/ll_aton.c ****   t = ATON_POOL_RNDCTRL_SET_OBYTES(t, conf->outbytes_o);
 7345              		.loc 1 2324 3 view .LVU2796
2325:../../Middlewares/AI_Runtime/Npu/ll_aton/ll_aton.c ****   t = ATON_POOL_RNDCTRL_SET_ORNDMODE(t, (conf->relu_mode_o << 1) | conf->round_mode_o);
 7346              		.loc 1 2325 3 view .LVU2797
2325:../../Middlewares/AI_Runtime/Npu/ll_aton/ll_aton.c ****   t = ATON_POOL_RNDCTRL_SET_ORNDMODE(t, (conf->relu_mode_o << 1) | conf->round_mode_o);
 7347              		.loc 1 2325 7 is_stmt 0 view .LVU2798
 7348 007e 94F82420 		ldrb	r2, [r4, #36]	@ zero_extendqisi2
2324:../../Middlewares/AI_Runtime/Npu/ll_aton/ll_aton.c ****   t = ATON_POOL_RNDCTRL_SET_OBYTES(t, conf->outbytes_o);
 7349              		.loc 1 2324 7 view .LVU2799
 7350 0082 C1F34111 		ubfx	r1, r1, #5, #2
2325:../../Middlewares/AI_Runtime/Npu/ll_aton/ll_aton.c ****   t = ATON_POOL_RNDCTRL_SET_ORNDMODE(t, (conf->relu_mode_o << 1) | conf->round_mode_o);
 7351              		.loc 1 2325 7 view .LVU2800
 7352 0086 02F00302 		and	r2, r2, #3
 7353 008a 1204     		lsls	r2, r2, #16
2325:../../Middlewares/AI_Runtime/Npu/ll_aton/ll_aton.c ****   t = ATON_POOL_RNDCTRL_SET_ORNDMODE(t, (conf->relu_mode_o << 1) | conf->round_mode_o);
 7354              		.loc 1 2325 5 view .LVU2801
 7355 008c 42EA8102 		orr	r2, r2, r1, lsl #2
2323:../../Middlewares/AI_Runtime/Npu/ll_aton/ll_aton.c ****   t = ATON_POOL_RNDCTRL_SET_FRNDMODE(t, conf->round_mode_f);
 7356              		.loc 1 2323 7 view .LVU2802
 7357 0090 94F82310 		ldrb	r1, [r4, #35]	@ zero_extendqisi2
2339:../../Middlewares/AI_Runtime/Npu/ll_aton/ll_aton.c ****   ATON_POOL_PDIMS_SET(id, t);
 7358              		.loc 1 2339 7 view .LVU2803
 7359 0094 E58B     		ldrh	r5, [r4, #30]
 7360              	.LVL861:
2323:../../Middlewares/AI_Runtime/Npu/ll_aton/ll_aton.c ****   t = ATON_POOL_RNDCTRL_SET_FRNDMODE(t, conf->round_mode_f);
 7361              		.loc 1 2323 7 view .LVU2804
 7362 0096 C1F34100 		ubfx	r0, r1, #1, #2
2325:../../Middlewares/AI_Runtime/Npu/ll_aton/ll_aton.c ****   t = ATON_POOL_RNDCTRL_SET_ORNDMODE(t, (conf->relu_mode_o << 1) | conf->round_mode_o);
 7363              		.loc 1 2325 5 view .LVU2805
 7364 009a 0243     		orrs	r2, r2, r0
 7365              	.LVL862:
2326:../../Middlewares/AI_Runtime/Npu/ll_aton/ll_aton.c ****   ATON_POOL_RNDCTRL_SET(id, t);
 7366              		.loc 1 2326 3 is_stmt 1 view .LVU2806
2326:../../Middlewares/AI_Runtime/Npu/ll_aton/ll_aton.c ****   ATON_POOL_RNDCTRL_SET(id, t);
 7367              		.loc 1 2326 7 is_stmt 0 view .LVU2807
 7368 009c C1F34111 		ubfx	r1, r1, #5, #2
2326:../../Middlewares/AI_Runtime/Npu/ll_aton/ll_aton.c ****   ATON_POOL_RNDCTRL_SET(id, t);
 7369              		.loc 1 2326 5 view .LVU2808
 7370 00a0 42EA8142 		orr	r2, r2, r1, lsl #18
 7371              	.LVL863:
2327:../../Middlewares/AI_Runtime/Npu/ll_aton/ll_aton.c **** 
 7372              		.loc 1 2327 3 is_stmt 1 view .LVU2809
2327:../../Middlewares/AI_Runtime/Npu/ll_aton/ll_aton.c **** 
 7373              		.loc 1 2327 3 view .LVU2810
 7374 00a4 1A62     		str	r2, [r3, #32]
ARM GAS  C:\Users\Antonio\AppData\Local\Temp\ccynTwLp.s 			page 231


2327:../../Middlewares/AI_Runtime/Npu/ll_aton/ll_aton.c **** 
 7375              		.loc 1 2327 3 view .LVU2811
2327:../../Middlewares/AI_Runtime/Npu/ll_aton/ll_aton.c **** 
 7376              		.loc 1 2327 31 view .LVU2812
2330:../../Middlewares/AI_Runtime/Npu/ll_aton/ll_aton.c ****   t = ATON_POOL_PDIMS_SET_WINX(t, conf->poolWinX);
 7377              		.loc 1 2330 3 view .LVU2813
 7378              	.LVL864:
2331:../../Middlewares/AI_Runtime/Npu/ll_aton/ll_aton.c ****   t = ATON_POOL_PDIMS_SET_WINY(t, conf->poolWinY);
 7379              		.loc 1 2331 3 view .LVU2814
2332:../../Middlewares/AI_Runtime/Npu/ll_aton/ll_aton.c ****   t = ATON_POOL_PDIMS_SET_STRDX(t, conf->strideX);
 7380              		.loc 1 2332 3 view .LVU2815
2333:../../Middlewares/AI_Runtime/Npu/ll_aton/ll_aton.c ****   t = ATON_POOL_PDIMS_SET_STRDY(t, conf->strideY);
 7381              		.loc 1 2333 3 view .LVU2816
2332:../../Middlewares/AI_Runtime/Npu/ll_aton/ll_aton.c ****   t = ATON_POOL_PDIMS_SET_STRDX(t, conf->strideX);
 7382              		.loc 1 2332 7 is_stmt 0 view .LVU2817
 7383 00a6 E27A     		ldrb	r2, [r4, #11]	@ zero_extendqisi2
2333:../../Middlewares/AI_Runtime/Npu/ll_aton/ll_aton.c ****   t = ATON_POOL_PDIMS_SET_STRDY(t, conf->strideY);
 7384              		.loc 1 2333 7 view .LVU2818
 7385 00a8 217B     		ldrb	r1, [r4, #12]	@ zero_extendqisi2
2332:../../Middlewares/AI_Runtime/Npu/ll_aton/ll_aton.c ****   t = ATON_POOL_PDIMS_SET_STRDX(t, conf->strideX);
 7386              		.loc 1 2332 7 view .LVU2819
 7387 00aa D200     		lsls	r2, r2, #3
2333:../../Middlewares/AI_Runtime/Npu/ll_aton/ll_aton.c ****   t = ATON_POOL_PDIMS_SET_STRDY(t, conf->strideY);
 7388              		.loc 1 2333 7 view .LVU2820
 7389 00ac 8901     		lsls	r1, r1, #6
 7390 00ae 01F47071 		and	r1, r1, #960
2332:../../Middlewares/AI_Runtime/Npu/ll_aton/ll_aton.c ****   t = ATON_POOL_PDIMS_SET_STRDX(t, conf->strideX);
 7391              		.loc 1 2332 7 view .LVU2821
 7392 00b2 02F03802 		and	r2, r2, #56
2333:../../Middlewares/AI_Runtime/Npu/ll_aton/ll_aton.c ****   t = ATON_POOL_PDIMS_SET_STRDY(t, conf->strideY);
 7393              		.loc 1 2333 5 view .LVU2822
 7394 00b6 0A43     		orrs	r2, r2, r1
2331:../../Middlewares/AI_Runtime/Npu/ll_aton/ll_aton.c ****   t = ATON_POOL_PDIMS_SET_WINY(t, conf->poolWinY);
 7395              		.loc 1 2331 7 view .LVU2823
 7396 00b8 A17A     		ldrb	r1, [r4, #10]	@ zero_extendqisi2
2345:../../Middlewares/AI_Runtime/Npu/ll_aton/ll_aton.c ****   ATON_POOL_FDIMS_SET(id, t);
 7397              		.loc 1 2345 7 view .LVU2824
 7398 00ba A088     		ldrh	r0, [r4, #4]
2331:../../Middlewares/AI_Runtime/Npu/ll_aton/ll_aton.c ****   t = ATON_POOL_PDIMS_SET_WINY(t, conf->poolWinY);
 7399              		.loc 1 2331 7 view .LVU2825
 7400 00bc 01F00701 		and	r1, r1, #7
2333:../../Middlewares/AI_Runtime/Npu/ll_aton/ll_aton.c ****   t = ATON_POOL_PDIMS_SET_STRDY(t, conf->strideY);
 7401              		.loc 1 2333 5 view .LVU2826
 7402 00c0 0A43     		orrs	r2, r2, r1
 7403              	.LVL865:
2334:../../Middlewares/AI_Runtime/Npu/ll_aton/ll_aton.c ****   t = ATON_POOL_PDIMS_SET_TPAD(t, conf->topPad);
 7404              		.loc 1 2334 3 is_stmt 1 view .LVU2827
2334:../../Middlewares/AI_Runtime/Npu/ll_aton/ll_aton.c ****   t = ATON_POOL_PDIMS_SET_TPAD(t, conf->topPad);
 7405              		.loc 1 2334 7 is_stmt 0 view .LVU2828
 7406 00c2 617B     		ldrb	r1, [r4, #13]	@ zero_extendqisi2
2376:../../Middlewares/AI_Runtime/Npu/ll_aton/ll_aton.c ****     t = ATON_POOL_XCROP_SET_LCROP(t, conf->leftCrop * conf->batchSize);
 7407              		.loc 1 2376 11 view .LVU2829
 7408 00c4 668A     		ldrh	r6, [r4, #18]
2334:../../Middlewares/AI_Runtime/Npu/ll_aton/ll_aton.c ****   t = ATON_POOL_PDIMS_SET_TPAD(t, conf->topPad);
 7409              		.loc 1 2334 7 view .LVU2830
 7410 00c6 8902     		lsls	r1, r1, #10
 7411 00c8 01F47051 		and	r1, r1, #15360
ARM GAS  C:\Users\Antonio\AppData\Local\Temp\ccynTwLp.s 			page 232


2334:../../Middlewares/AI_Runtime/Npu/ll_aton/ll_aton.c ****   t = ATON_POOL_PDIMS_SET_TPAD(t, conf->topPad);
 7412              		.loc 1 2334 5 view .LVU2831
 7413 00cc 0A43     		orrs	r2, r2, r1
 7414              	.LVL866:
2335:../../Middlewares/AI_Runtime/Npu/ll_aton/ll_aton.c ****   t = ATON_POOL_PDIMS_SET_BPAD(t, conf->bottomPad);
 7415              		.loc 1 2335 3 is_stmt 1 view .LVU2832
2335:../../Middlewares/AI_Runtime/Npu/ll_aton/ll_aton.c ****   t = ATON_POOL_PDIMS_SET_BPAD(t, conf->bottomPad);
 7416              		.loc 1 2335 7 is_stmt 0 view .LVU2833
 7417 00ce E18A     		ldrh	r1, [r4, #22]
2378:../../Middlewares/AI_Runtime/Npu/ll_aton/ll_aton.c ****   if (r_crop > 0)
 7418              		.loc 1 2378 20 view .LVU2834
 7419 00d0 A78A     		ldrh	r7, [r4, #20]
2335:../../Middlewares/AI_Runtime/Npu/ll_aton/ll_aton.c ****   t = ATON_POOL_PDIMS_SET_BPAD(t, conf->bottomPad);
 7420              		.loc 1 2335 7 view .LVU2835
 7421 00d2 8903     		lsls	r1, r1, #14
 7422 00d4 01F4E031 		and	r1, r1, #114688
2335:../../Middlewares/AI_Runtime/Npu/ll_aton/ll_aton.c ****   t = ATON_POOL_PDIMS_SET_BPAD(t, conf->bottomPad);
 7423              		.loc 1 2335 5 view .LVU2836
 7424 00d8 1143     		orrs	r1, r1, r2
 7425              	.LVL867:
2336:../../Middlewares/AI_Runtime/Npu/ll_aton/ll_aton.c ****   t = ATON_POOL_PDIMS_SET_LPAD(t, conf->leftPad);
 7426              		.loc 1 2336 3 is_stmt 1 view .LVU2837
2336:../../Middlewares/AI_Runtime/Npu/ll_aton/ll_aton.c ****   t = ATON_POOL_PDIMS_SET_LPAD(t, conf->leftPad);
 7427              		.loc 1 2336 7 is_stmt 0 view .LVU2838
 7428 00da 228B     		ldrh	r2, [r4, #24]
 7429 00dc 5204     		lsls	r2, r2, #17
 7430 00de 02F46022 		and	r2, r2, #917504
2336:../../Middlewares/AI_Runtime/Npu/ll_aton/ll_aton.c ****   t = ATON_POOL_PDIMS_SET_LPAD(t, conf->leftPad);
 7431              		.loc 1 2336 5 view .LVU2839
 7432 00e2 0A43     		orrs	r2, r2, r1
 7433              	.LVL868:
2337:../../Middlewares/AI_Runtime/Npu/ll_aton/ll_aton.c ****   t = ATON_POOL_PDIMS_SET_RPAD(t, conf->rightPad);
 7434              		.loc 1 2337 3 is_stmt 1 view .LVU2840
2337:../../Middlewares/AI_Runtime/Npu/ll_aton/ll_aton.c ****   t = ATON_POOL_PDIMS_SET_RPAD(t, conf->rightPad);
 7435              		.loc 1 2337 7 is_stmt 0 view .LVU2841
 7436 00e4 618B     		ldrh	r1, [r4, #26]
 7437 00e6 0905     		lsls	r1, r1, #20
 7438 00e8 01F4E001 		and	r1, r1, #7340032
2337:../../Middlewares/AI_Runtime/Npu/ll_aton/ll_aton.c ****   t = ATON_POOL_PDIMS_SET_RPAD(t, conf->rightPad);
 7439              		.loc 1 2337 5 view .LVU2842
 7440 00ec 1143     		orrs	r1, r1, r2
 7441              	.LVL869:
2338:../../Middlewares/AI_Runtime/Npu/ll_aton/ll_aton.c ****   t = ATON_POOL_PDIMS_SET_BSIZE(t, conf->batchSize);
 7442              		.loc 1 2338 3 is_stmt 1 view .LVU2843
2338:../../Middlewares/AI_Runtime/Npu/ll_aton/ll_aton.c ****   t = ATON_POOL_PDIMS_SET_BSIZE(t, conf->batchSize);
 7443              		.loc 1 2338 7 is_stmt 0 view .LVU2844
 7444 00ee A28B     		ldrh	r2, [r4, #28]
 7445 00f0 D205     		lsls	r2, r2, #23
 7446 00f2 02F06072 		and	r2, r2, #58720256
2338:../../Middlewares/AI_Runtime/Npu/ll_aton/ll_aton.c ****   t = ATON_POOL_PDIMS_SET_BSIZE(t, conf->batchSize);
 7447              		.loc 1 2338 5 view .LVU2845
 7448 00f6 0A43     		orrs	r2, r2, r1
 7449              	.LVL870:
2339:../../Middlewares/AI_Runtime/Npu/ll_aton/ll_aton.c ****   ATON_POOL_PDIMS_SET(id, t);
 7450              		.loc 1 2339 3 is_stmt 1 view .LVU2846
2339:../../Middlewares/AI_Runtime/Npu/ll_aton/ll_aton.c ****   ATON_POOL_PDIMS_SET(id, t);
 7451              		.loc 1 2339 7 is_stmt 0 view .LVU2847
ARM GAS  C:\Users\Antonio\AppData\Local\Temp\ccynTwLp.s 			page 233


 7452 00f8 A906     		lsls	r1, r5, #26
 7453 00fa 01F07051 		and	r1, r1, #1006632960
2339:../../Middlewares/AI_Runtime/Npu/ll_aton/ll_aton.c ****   ATON_POOL_PDIMS_SET(id, t);
 7454              		.loc 1 2339 5 view .LVU2848
 7455 00fe 0A43     		orrs	r2, r2, r1
 7456              	.LVL871:
2340:../../Middlewares/AI_Runtime/Npu/ll_aton/ll_aton.c **** 
 7457              		.loc 1 2340 3 is_stmt 1 view .LVU2849
2340:../../Middlewares/AI_Runtime/Npu/ll_aton/ll_aton.c **** 
 7458              		.loc 1 2340 3 view .LVU2850
2344:../../Middlewares/AI_Runtime/Npu/ll_aton/ll_aton.c ****   t = ATON_POOL_FDIMS_SET_FEATY(t, conf->inputY);
 7459              		.loc 1 2344 7 is_stmt 0 view .LVU2851
 7460 0100 6188     		ldrh	r1, [r4, #2]
2340:../../Middlewares/AI_Runtime/Npu/ll_aton/ll_aton.c **** 
 7461              		.loc 1 2340 3 view .LVU2852
 7462 0102 9A60     		str	r2, [r3, #8]
2340:../../Middlewares/AI_Runtime/Npu/ll_aton/ll_aton.c **** 
 7463              		.loc 1 2340 3 is_stmt 1 view .LVU2853
2340:../../Middlewares/AI_Runtime/Npu/ll_aton/ll_aton.c **** 
 7464              		.loc 1 2340 29 view .LVU2854
2343:../../Middlewares/AI_Runtime/Npu/ll_aton/ll_aton.c ****   t = ATON_POOL_FDIMS_SET_FEATX(t, conf->inputX * conf->batchSize);
 7465              		.loc 1 2343 3 view .LVU2855
 7466              	.LVL872:
2344:../../Middlewares/AI_Runtime/Npu/ll_aton/ll_aton.c ****   t = ATON_POOL_FDIMS_SET_FEATY(t, conf->inputY);
 7467              		.loc 1 2344 3 view .LVU2856
2345:../../Middlewares/AI_Runtime/Npu/ll_aton/ll_aton.c ****   ATON_POOL_FDIMS_SET(id, t);
 7468              		.loc 1 2345 3 view .LVU2857
2344:../../Middlewares/AI_Runtime/Npu/ll_aton/ll_aton.c ****   t = ATON_POOL_FDIMS_SET_FEATY(t, conf->inputY);
 7469              		.loc 1 2344 7 is_stmt 0 view .LVU2858
 7470 0104 6943     		muls	r1, r5, r1
2345:../../Middlewares/AI_Runtime/Npu/ll_aton/ll_aton.c ****   ATON_POOL_FDIMS_SET(id, t);
 7471              		.loc 1 2345 7 view .LVU2859
 7472 0106 1D4A     		ldr	r2, .L479+4
2344:../../Middlewares/AI_Runtime/Npu/ll_aton/ll_aton.c ****   t = ATON_POOL_FDIMS_SET_FEATY(t, conf->inputY);
 7473              		.loc 1 2344 7 view .LVU2860
 7474 0108 C1F30B01 		ubfx	r1, r1, #0, #12
2345:../../Middlewares/AI_Runtime/Npu/ll_aton/ll_aton.c ****   ATON_POOL_FDIMS_SET(id, t);
 7475              		.loc 1 2345 7 view .LVU2861
 7476 010c 02EA0040 		and	r0, r2, r0, lsl #16
2345:../../Middlewares/AI_Runtime/Npu/ll_aton/ll_aton.c ****   ATON_POOL_FDIMS_SET(id, t);
 7477              		.loc 1 2345 5 view .LVU2862
 7478 0110 0143     		orrs	r1, r1, r0
 7479              	.LVL873:
2346:../../Middlewares/AI_Runtime/Npu/ll_aton/ll_aton.c **** 
 7480              		.loc 1 2346 3 is_stmt 1 view .LVU2863
2346:../../Middlewares/AI_Runtime/Npu/ll_aton/ll_aton.c **** 
 7481              		.loc 1 2346 3 view .LVU2864
 7482 0112 D960     		str	r1, [r3, #12]
2346:../../Middlewares/AI_Runtime/Npu/ll_aton/ll_aton.c **** 
 7483              		.loc 1 2346 3 view .LVU2865
2346:../../Middlewares/AI_Runtime/Npu/ll_aton/ll_aton.c **** 
 7484              		.loc 1 2346 29 view .LVU2866
2349:../../Middlewares/AI_Runtime/Npu/ll_aton/ll_aton.c ****   t = ATON_POOL_OUTDIMS_SET_FEATX(t, conf->outputX);
 7485              		.loc 1 2349 3 view .LVU2867
 7486              	.LVL874:
2350:../../Middlewares/AI_Runtime/Npu/ll_aton/ll_aton.c ****   t = ATON_POOL_OUTDIMS_SET_FEATY(t, conf->outputY);
 7487              		.loc 1 2350 3 view .LVU2868
ARM GAS  C:\Users\Antonio\AppData\Local\Temp\ccynTwLp.s 			page 234


2351:../../Middlewares/AI_Runtime/Npu/ll_aton/ll_aton.c ****   ATON_POOL_OUTDIMS_SET(id, t);
 7488              		.loc 1 2351 3 view .LVU2869
2350:../../Middlewares/AI_Runtime/Npu/ll_aton/ll_aton.c ****   t = ATON_POOL_OUTDIMS_SET_FEATY(t, conf->outputY);
 7489              		.loc 1 2350 7 is_stmt 0 view .LVU2870
 7490 0114 E088     		ldrh	r0, [r4, #6]
2351:../../Middlewares/AI_Runtime/Npu/ll_aton/ll_aton.c ****   ATON_POOL_OUTDIMS_SET(id, t);
 7491              		.loc 1 2351 7 view .LVU2871
 7492 0116 2189     		ldrh	r1, [r4, #8]
2350:../../Middlewares/AI_Runtime/Npu/ll_aton/ll_aton.c ****   t = ATON_POOL_OUTDIMS_SET_FEATY(t, conf->outputY);
 7493              		.loc 1 2350 7 view .LVU2872
 7494 0118 C0F30B00 		ubfx	r0, r0, #0, #12
2351:../../Middlewares/AI_Runtime/Npu/ll_aton/ll_aton.c ****   ATON_POOL_OUTDIMS_SET(id, t);
 7495              		.loc 1 2351 7 view .LVU2873
 7496 011c 02EA0141 		and	r1, r2, r1, lsl #16
2351:../../Middlewares/AI_Runtime/Npu/ll_aton/ll_aton.c ****   ATON_POOL_OUTDIMS_SET(id, t);
 7497              		.loc 1 2351 5 view .LVU2874
 7498 0120 0143     		orrs	r1, r1, r0
 7499              	.LVL875:
2352:../../Middlewares/AI_Runtime/Npu/ll_aton/ll_aton.c **** 
 7500              		.loc 1 2352 3 is_stmt 1 view .LVU2875
2352:../../Middlewares/AI_Runtime/Npu/ll_aton/ll_aton.c **** 
 7501              		.loc 1 2352 3 view .LVU2876
2375:../../Middlewares/AI_Runtime/Npu/ll_aton/ll_aton.c ****   if (conf->leftCrop > 0)
 7502              		.loc 1 2375 5 is_stmt 0 view .LVU2877
 7503 0122 0020     		movs	r0, #0
2352:../../Middlewares/AI_Runtime/Npu/ll_aton/ll_aton.c **** 
 7504              		.loc 1 2352 3 view .LVU2878
 7505 0124 1961     		str	r1, [r3, #16]
2352:../../Middlewares/AI_Runtime/Npu/ll_aton/ll_aton.c **** 
 7506              		.loc 1 2352 3 is_stmt 1 view .LVU2879
2352:../../Middlewares/AI_Runtime/Npu/ll_aton/ll_aton.c **** 
 7507              		.loc 1 2352 31 view .LVU2880
2355:../../Middlewares/AI_Runtime/Npu/ll_aton/ll_aton.c ****   t = ATON_POOL_MULVAL_SET_MULVAL(t, conf->mulval);
 7508              		.loc 1 2355 3 view .LVU2881
 7509              	.LVL876:
2356:../../Middlewares/AI_Runtime/Npu/ll_aton/ll_aton.c ****   ATON_POOL_MULVAL_SET(id, t);
 7510              		.loc 1 2356 3 view .LVU2882
2356:../../Middlewares/AI_Runtime/Npu/ll_aton/ll_aton.c ****   ATON_POOL_MULVAL_SET(id, t);
 7511              		.loc 1 2356 7 is_stmt 0 view .LVU2883
 7512 0126 E18C     		ldrh	r1, [r4, #38]
 7513              	.LVL877:
2357:../../Middlewares/AI_Runtime/Npu/ll_aton/ll_aton.c **** 
 7514              		.loc 1 2357 3 is_stmt 1 view .LVU2884
2357:../../Middlewares/AI_Runtime/Npu/ll_aton/ll_aton.c **** 
 7515              		.loc 1 2357 3 view .LVU2885
2375:../../Middlewares/AI_Runtime/Npu/ll_aton/ll_aton.c ****   if (conf->leftCrop > 0)
 7516              		.loc 1 2375 5 is_stmt 0 view .LVU2886
 7517 0128 8642     		cmp	r6, r0
2357:../../Middlewares/AI_Runtime/Npu/ll_aton/ll_aton.c **** 
 7518              		.loc 1 2357 3 view .LVU2887
 7519 012a 5961     		str	r1, [r3, #20]
2357:../../Middlewares/AI_Runtime/Npu/ll_aton/ll_aton.c **** 
 7520              		.loc 1 2357 3 is_stmt 1 view .LVU2888
2357:../../Middlewares/AI_Runtime/Npu/ll_aton/ll_aton.c **** 
 7521              		.loc 1 2357 30 view .LVU2889
2375:../../Middlewares/AI_Runtime/Npu/ll_aton/ll_aton.c ****   if (conf->leftCrop > 0)
 7522              		.loc 1 2375 3 view .LVU2890
ARM GAS  C:\Users\Antonio\AppData\Local\Temp\ccynTwLp.s 			page 235


 7523              	.LVL878:
2376:../../Middlewares/AI_Runtime/Npu/ll_aton/ll_aton.c ****     t = ATON_POOL_XCROP_SET_LCROP(t, conf->leftCrop * conf->batchSize);
 7524              		.loc 1 2376 3 view .LVU2891
2375:../../Middlewares/AI_Runtime/Npu/ll_aton/ll_aton.c ****   if (conf->leftCrop > 0)
 7525              		.loc 1 2375 5 is_stmt 0 view .LVU2892
 7526 012c 05FB06F1 		mul	r1, r5, r6
 7527 0130 C1F30B01 		ubfx	r1, r1, #0, #12
 7528 0134 08BF     		it	eq
 7529 0136 0146     		moveq	r1, r0
 7530              	.LVL879:
2378:../../Middlewares/AI_Runtime/Npu/ll_aton/ll_aton.c ****   if (r_crop > 0)
 7531              		.loc 1 2378 3 is_stmt 1 view .LVU2893
2378:../../Middlewares/AI_Runtime/Npu/ll_aton/ll_aton.c ****   if (r_crop > 0)
 7532              		.loc 1 2378 69 is_stmt 0 view .LVU2894
 7533 0138 6E1E     		subs	r6, r5, #1
2378:../../Middlewares/AI_Runtime/Npu/ll_aton/ll_aton.c ****   if (r_crop > 0)
 7534              		.loc 1 2378 7 view .LVU2895
 7535 013a 05FB0765 		mla	r5, r5, r7, r6
 7536              	.LVL880:
2379:../../Middlewares/AI_Runtime/Npu/ll_aton/ll_aton.c ****     t = ATON_POOL_XCROP_SET_RCROP(t, conf->rightCrop * conf->batchSize + (conf->batchSize - 1));
 7537              		.loc 1 2379 3 is_stmt 1 view .LVU2896
2380:../../Middlewares/AI_Runtime/Npu/ll_aton/ll_aton.c ****   ATON_POOL_XCROP_SET(id, t);
 7538              		.loc 1 2380 7 is_stmt 0 view .LVU2897
 7539 013e 02EA0546 		and	r6, r2, r5, lsl #16
 7540 0142 0E43     		orrs	r6, r6, r1
 7541 0144 8542     		cmp	r5, r0
 7542 0146 C8BF     		it	gt
 7543 0148 3146     		movgt	r1, r6
 7544              	.LVL881:
2381:../../Middlewares/AI_Runtime/Npu/ll_aton/ll_aton.c **** 
 7545              		.loc 1 2381 3 is_stmt 1 view .LVU2898
2381:../../Middlewares/AI_Runtime/Npu/ll_aton/ll_aton.c **** 
 7546              		.loc 1 2381 3 view .LVU2899
 7547 014a 9961     		str	r1, [r3, #24]
2381:../../Middlewares/AI_Runtime/Npu/ll_aton/ll_aton.c **** 
 7548              		.loc 1 2381 3 view .LVU2900
2381:../../Middlewares/AI_Runtime/Npu/ll_aton/ll_aton.c **** 
 7549              		.loc 1 2381 29 view .LVU2901
2383:../../Middlewares/AI_Runtime/Npu/ll_aton/ll_aton.c ****   if (conf->topCrop > 0)
 7550              		.loc 1 2383 3 view .LVU2902
 7551              	.LVL882:
2384:../../Middlewares/AI_Runtime/Npu/ll_aton/ll_aton.c ****     t = ATON_POOL_YCROP_SET_TCROP(t, conf->topCrop);
 7552              		.loc 1 2384 3 view .LVU2903
2385:../../Middlewares/AI_Runtime/Npu/ll_aton/ll_aton.c ****   if (conf->bottomCrop > 0)
 7553              		.loc 1 2385 9 is_stmt 0 view .LVU2904
 7554 014c E189     		ldrh	r1, [r4, #14]
2386:../../Middlewares/AI_Runtime/Npu/ll_aton/ll_aton.c ****     t = ATON_POOL_YCROP_SET_BCROP(t, conf->bottomCrop);
 7555              		.loc 1 2386 11 view .LVU2905
 7556 014e 248A     		ldrh	r4, [r4, #16]
 7557              	.LVL883:
2385:../../Middlewares/AI_Runtime/Npu/ll_aton/ll_aton.c ****   if (conf->bottomCrop > 0)
 7558              		.loc 1 2385 9 view .LVU2906
 7559 0150 C1F30B01 		ubfx	r1, r1, #0, #12
 7560              	.LVL884:
2386:../../Middlewares/AI_Runtime/Npu/ll_aton/ll_aton.c ****     t = ATON_POOL_YCROP_SET_BCROP(t, conf->bottomCrop);
 7561              		.loc 1 2386 3 is_stmt 1 view .LVU2907
2387:../../Middlewares/AI_Runtime/Npu/ll_aton/ll_aton.c ****   ATON_POOL_YCROP_SET(id, t);
ARM GAS  C:\Users\Antonio\AppData\Local\Temp\ccynTwLp.s 			page 236


 7562              		.loc 1 2387 7 is_stmt 0 view .LVU2908
 7563 0154 02EA0442 		and	r2, r2, r4, lsl #16
 7564 0158 0A43     		orrs	r2, r2, r1
 7565 015a 8442     		cmp	r4, r0
 7566 015c 18BF     		it	ne
 7567 015e 1146     		movne	r1, r2
 7568              	.LVL885:
2388:../../Middlewares/AI_Runtime/Npu/ll_aton/ll_aton.c **** 
 7569              		.loc 1 2388 3 is_stmt 1 view .LVU2909
2388:../../Middlewares/AI_Runtime/Npu/ll_aton/ll_aton.c **** 
 7570              		.loc 1 2388 3 view .LVU2910
 7571 0160 D961     		str	r1, [r3, #28]
2388:../../Middlewares/AI_Runtime/Npu/ll_aton/ll_aton.c **** 
 7572              		.loc 1 2388 3 view .LVU2911
2388:../../Middlewares/AI_Runtime/Npu/ll_aton/ll_aton.c **** 
 7573              		.loc 1 2388 29 view .LVU2912
2400:../../Middlewares/AI_Runtime/Npu/ll_aton/ll_aton.c **** }
 7574              		.loc 1 2400 3 view .LVU2913
 7575              	.LVL886:
 7576              	.L469:
2401:../../Middlewares/AI_Runtime/Npu/ll_aton/ll_aton.c **** #endif // ATON_POOL_NUM
 7577              		.loc 1 2401 1 is_stmt 0 view .LVU2914
 7578 0162 F8BD     		pop	{r3, r4, r5, r6, r7, pc}
 7579              	.LVL887:
 7580              	.L471:
 7581              	.LBB162:
 7582              	.LBB161:
2269:../../Middlewares/AI_Runtime/Npu/ll_aton/ll_aton.c ****   }
 7583              		.loc 1 2269 5 is_stmt 1 view .LVU2915
2271:../../Middlewares/AI_Runtime/Npu/ll_aton/ll_aton.c ****   return 0;
 7584              		.loc 1 2271 3 view .LVU2916
 7585 0164 40F6DF01 		movw	r1, #2271
 7586 0168 054B     		ldr	r3, .L479+8
 7587 016a 064A     		ldr	r2, .L479+12
 7588 016c 0648     		ldr	r0, .L479+16
 7589 016e FFF7FEFF 		bl	__assert_func
 7590              	.LVL888:
 7591              	.L476:
2271:../../Middlewares/AI_Runtime/Npu/ll_aton/ll_aton.c ****   return 0;
 7592              		.loc 1 2271 3 is_stmt 0 view .LVU2917
 7593              	.LBE161:
 7594              	.LBE162:
2286:../../Middlewares/AI_Runtime/Npu/ll_aton/ll_aton.c **** 
 7595              		.loc 1 2286 12 view .LVU2918
 7596 0172 4FF0FF30 		mov	r0, #-1
 7597              	.LVL889:
2286:../../Middlewares/AI_Runtime/Npu/ll_aton/ll_aton.c **** 
 7598              		.loc 1 2286 12 view .LVU2919
 7599 0176 F4E7     		b	.L469
 7600              	.L480:
 7601              		.align	2
 7602              	.L479:
 7603 0178 00000000 		.word	CSWTCH.208
 7604 017c 0000FF0F 		.word	268369920
 7605 0180 A3000000 		.word	.LC7
 7606 0184 00000000 		.word	__func__.1
 7607 0188 05000000 		.word	.LC4
ARM GAS  C:\Users\Antonio\AppData\Local\Temp\ccynTwLp.s 			page 237


 7608              		.cfi_endproc
 7609              	.LFE4847:
 7611              		.section	.text.LL_EpochCtrl_Init,"ax",%progbits
 7612              		.align	1
 7613              		.global	LL_EpochCtrl_Init
 7614              		.syntax unified
 7615              		.thumb
 7616              		.thumb_func
 7618              	LL_EpochCtrl_Init:
 7619              	.LVL890:
 7620              	.LFB4848:
2412:../../Middlewares/AI_Runtime/Npu/ll_aton/ll_aton.c ****   uint32_t t;
 7621              		.loc 1 2412 1 is_stmt 1 view -0
 7622              		.cfi_startproc
 7623              		@ args = 0, pretend = 0, frame = 0
 7624              		@ frame_needed = 0, uses_anonymous_args = 0
2413:../../Middlewares/AI_Runtime/Npu/ll_aton/ll_aton.c **** 
 7625              		.loc 1 2413 3 view .LVU2921
2415:../../Middlewares/AI_Runtime/Npu/ll_aton/ll_aton.c ****     return LL_ATON_INVALID_ID;
 7626              		.loc 1 2415 3 view .LVU2922
2415:../../Middlewares/AI_Runtime/Npu/ll_aton/ll_aton.c ****     return LL_ATON_INVALID_ID;
 7627              		.loc 1 2415 6 is_stmt 0 view .LVU2923
 7628 0000 0028     		cmp	r0, #0
2412:../../Middlewares/AI_Runtime/Npu/ll_aton/ll_aton.c ****   uint32_t t;
 7629              		.loc 1 2412 1 view .LVU2924
 7630 0002 10B5     		push	{r4, lr}
 7631              		.cfi_def_cfa_offset 8
 7632              		.cfi_offset 4, -8
 7633              		.cfi_offset 14, -4
2412:../../Middlewares/AI_Runtime/Npu/ll_aton/ll_aton.c ****   uint32_t t;
 7634              		.loc 1 2412 1 view .LVU2925
 7635 0004 0C46     		mov	r4, r1
2415:../../Middlewares/AI_Runtime/Npu/ll_aton/ll_aton.c ****     return LL_ATON_INVALID_ID;
 7636              		.loc 1 2415 6 view .LVU2926
 7637 0006 0EDC     		bgt	.L483
2418:../../Middlewares/AI_Runtime/Npu/ll_aton/ll_aton.c **** 
 7638              		.loc 1 2418 3 is_stmt 1 view .LVU2927
 7639 0008 1930     		adds	r0, r0, #25
 7640              	.LVL891:
2418:../../Middlewares/AI_Runtime/Npu/ll_aton/ll_aton.c **** 
 7641              		.loc 1 2418 3 is_stmt 0 view .LVU2928
 7642 000a FFF7FEFF 		bl	LL_ATON_EnableClock
 7643              	.LVL892:
2421:../../Middlewares/AI_Runtime/Npu/ll_aton/ll_aton.c ****   t = ATON_EPOCHCTRL_CTRL_SET_SM(t, conf->stepmode);
 7644              		.loc 1 2421 3 is_stmt 1 view .LVU2929
2422:../../Middlewares/AI_Runtime/Npu/ll_aton/ll_aton.c ****   ATON_EPOCHCTRL_CTRL_SET(id, t);
 7645              		.loc 1 2422 3 view .LVU2930
2422:../../Middlewares/AI_Runtime/Npu/ll_aton/ll_aton.c ****   ATON_EPOCHCTRL_CTRL_SET(id, t);
 7646              		.loc 1 2422 7 is_stmt 0 view .LVU2931
 7647 000e 2379     		ldrb	r3, [r4, #4]	@ zero_extendqisi2
2423:../../Middlewares/AI_Runtime/Npu/ll_aton/ll_aton.c **** 
 7648              		.loc 1 2423 3 view .LVU2932
 7649 0010 084A     		ldr	r2, .L485
2422:../../Middlewares/AI_Runtime/Npu/ll_aton/ll_aton.c ****   ATON_EPOCHCTRL_CTRL_SET(id, t);
 7650              		.loc 1 2422 7 view .LVU2933
 7651 0012 03F00103 		and	r3, r3, #1
 7652 0016 DB00     		lsls	r3, r3, #3
ARM GAS  C:\Users\Antonio\AppData\Local\Temp\ccynTwLp.s 			page 238


 7653              	.LVL893:
2423:../../Middlewares/AI_Runtime/Npu/ll_aton/ll_aton.c **** 
 7654              		.loc 1 2423 3 is_stmt 1 view .LVU2934
2423:../../Middlewares/AI_Runtime/Npu/ll_aton/ll_aton.c **** 
 7655              		.loc 1 2423 3 view .LVU2935
 7656 0018 1360     		str	r3, [r2]
2423:../../Middlewares/AI_Runtime/Npu/ll_aton/ll_aton.c **** 
 7657              		.loc 1 2423 3 view .LVU2936
2423:../../Middlewares/AI_Runtime/Npu/ll_aton/ll_aton.c **** 
 7658              		.loc 1 2423 33 view .LVU2937
2426:../../Middlewares/AI_Runtime/Npu/ll_aton/ll_aton.c ****     return LL_ATON_INVALID_PARAM;
 7659              		.loc 1 2426 3 view .LVU2938
2426:../../Middlewares/AI_Runtime/Npu/ll_aton/ll_aton.c ****     return LL_ATON_INVALID_PARAM;
 7660              		.loc 1 2426 11 is_stmt 0 view .LVU2939
 7661 001a 2368     		ldr	r3, [r4]
 7662              	.LVL894:
2426:../../Middlewares/AI_Runtime/Npu/ll_aton/ll_aton.c ****     return LL_ATON_INVALID_PARAM;
 7663              		.loc 1 2426 6 view .LVU2940
 7664 001c 13F00700 		ands	r0, r3, #7
 7665              	.LVL895:
2426:../../Middlewares/AI_Runtime/Npu/ll_aton/ll_aton.c ****     return LL_ATON_INVALID_PARAM;
 7666              		.loc 1 2426 6 view .LVU2941
 7667 0020 04D1     		bne	.L484
2429:../../Middlewares/AI_Runtime/Npu/ll_aton/ll_aton.c **** 
 7668              		.loc 1 2429 3 is_stmt 1 view .LVU2942
2429:../../Middlewares/AI_Runtime/Npu/ll_aton/ll_aton.c **** 
 7669              		.loc 1 2429 3 view .LVU2943
 7670 0022 9360     		str	r3, [r2, #8]
 7671              	.LVL896:
2429:../../Middlewares/AI_Runtime/Npu/ll_aton/ll_aton.c **** 
 7672              		.loc 1 2429 3 view .LVU2944
2429:../../Middlewares/AI_Runtime/Npu/ll_aton/ll_aton.c **** 
 7673              		.loc 1 2429 46 view .LVU2945
2431:../../Middlewares/AI_Runtime/Npu/ll_aton/ll_aton.c **** }
 7674              		.loc 1 2431 3 view .LVU2946
 7675              	.L481:
2432:../../Middlewares/AI_Runtime/Npu/ll_aton/ll_aton.c **** 
 7676              		.loc 1 2432 1 is_stmt 0 view .LVU2947
 7677 0024 10BD     		pop	{r4, pc}
 7678              	.LVL897:
 7679              	.L483:
2416:../../Middlewares/AI_Runtime/Npu/ll_aton/ll_aton.c **** 
 7680              		.loc 1 2416 12 view .LVU2948
 7681 0026 4FF0FF30 		mov	r0, #-1
 7682              	.LVL898:
2416:../../Middlewares/AI_Runtime/Npu/ll_aton/ll_aton.c **** 
 7683              		.loc 1 2416 12 view .LVU2949
 7684 002a FBE7     		b	.L481
 7685              	.LVL899:
 7686              	.L484:
2427:../../Middlewares/AI_Runtime/Npu/ll_aton/ll_aton.c **** 
 7687              		.loc 1 2427 12 view .LVU2950
 7688 002c 6FF00100 		mvn	r0, #1
 7689 0030 F8E7     		b	.L481
 7690              	.L486:
 7691 0032 00BF     		.align	2
 7692              	.L485:
ARM GAS  C:\Users\Antonio\AppData\Local\Temp\ccynTwLp.s 			page 239


 7693 0034 00E00F58 		.word	1477435392
 7694              		.cfi_endproc
 7695              	.LFE4848:
 7697              		.section	.text.LL_ATON_DisableClock,"ax",%progbits
 7698              		.align	1
 7699              		.global	LL_ATON_DisableClock
 7700              		.syntax unified
 7701              		.thumb
 7702              		.thumb_func
 7704              	LL_ATON_DisableClock:
 7705              	.LVL900:
 7706              	.LFB4853:
2498:../../Middlewares/AI_Runtime/Npu/ll_aton/ll_aton.c **** 
2499:../../Middlewares/AI_Runtime/Npu/ll_aton/ll_aton.c **** void LL_ATON_DisableClock(unsigned int clock)
2500:../../Middlewares/AI_Runtime/Npu/ll_aton/ll_aton.c **** {
 7707              		.loc 1 2500 1 is_stmt 1 view -0
 7708              		.cfi_startproc
 7709              		@ args = 0, pretend = 0, frame = 0
 7710              		@ frame_needed = 0, uses_anonymous_args = 0
2501:../../Middlewares/AI_Runtime/Npu/ll_aton/ll_aton.c **** #if (LL_ATON_ENABLE_CLOCK_GATING == 1)
2502:../../Middlewares/AI_Runtime/Npu/ll_aton/ll_aton.c ****   ATON_REG_WRITE_FIELD_RANGE(CLKCTRL, 0, BGATES, clock, 1, 0);
 7711              		.loc 1 2502 3 view .LVU2952
 7712              	.LBB163:
 7713              		.loc 1 2502 3 view .LVU2953
 7714              	.LBE163:
2500:../../Middlewares/AI_Runtime/Npu/ll_aton/ll_aton.c **** #if (LL_ATON_ENABLE_CLOCK_GATING == 1)
 7715              		.loc 1 2500 1 is_stmt 0 view .LVU2954
 7716 0000 30B5     		push	{r4, r5, lr}
 7717              		.cfi_def_cfa_offset 12
 7718              		.cfi_offset 4, -12
 7719              		.cfi_offset 5, -8
 7720              		.cfi_offset 14, -4
 7721              	.LBB164:
 7722              		.loc 1 2502 3 view .LVU2955
 7723 0002 0124     		movs	r4, #1
 7724 0004 0025     		movs	r5, #0
 7725 0006 54EA0D05 		lsll	r4, r5, r0
 7726 000a 034A     		ldr	r2, .L488
 7727 000c 1369     		ldr	r3, [r2, #16]
 7728              	.LVL901:
 7729              		.loc 1 2502 3 is_stmt 1 view .LVU2956
 7730 000e 23EA0403 		bic	r3, r3, r4
 7731              	.LVL902:
 7732              		.loc 1 2502 3 view .LVU2957
 7733              		.loc 1 2502 3 view .LVU2958
 7734 0012 1361     		str	r3, [r2, #16]
 7735              		.loc 1 2502 3 view .LVU2959
 7736              		.loc 1 2502 3 view .LVU2960
 7737              	.LBE164:
 7738              		.loc 1 2502 3 view .LVU2961
2503:../../Middlewares/AI_Runtime/Npu/ll_aton/ll_aton.c **** #endif
2504:../../Middlewares/AI_Runtime/Npu/ll_aton/ll_aton.c **** }
 7739              		.loc 1 2504 1 is_stmt 0 view .LVU2962
 7740 0014 30BD     		pop	{r4, r5, pc}
 7741              	.L489:
 7742 0016 00BF     		.align	2
 7743              	.L488:
ARM GAS  C:\Users\Antonio\AppData\Local\Temp\ccynTwLp.s 			page 240


 7744 0018 00000E58 		.word	1477312512
 7745              		.cfi_endproc
 7746              	.LFE4853:
 7748              		.section	.text.LL_ATON_DisableUnits_Init,"ax",%progbits
 7749              		.align	1
 7750              		.global	LL_ATON_DisableUnits_Init
 7751              		.syntax unified
 7752              		.thumb
 7753              		.thumb_func
 7755              	LL_ATON_DisableUnits_Init:
 7756              	.LVL903:
 7757              	.LFB4825:
 382:../../Middlewares/AI_Runtime/Npu/ll_aton/ll_aton.c ****   int i;
 7758              		.loc 1 382 1 is_stmt 1 view -0
 7759              		.cfi_startproc
 7760              		@ args = 0, pretend = 0, frame = 0
 7761              		@ frame_needed = 0, uses_anonymous_args = 0
 383:../../Middlewares/AI_Runtime/Npu/ll_aton/ll_aton.c ****   enum AccelUnitsType unitType;
 7762              		.loc 1 383 3 view .LVU2964
 384:../../Middlewares/AI_Runtime/Npu/ll_aton/ll_aton.c ****   uint32_t unitId;
 7763              		.loc 1 384 3 view .LVU2965
 385:../../Middlewares/AI_Runtime/Npu/ll_aton/ll_aton.c ****   uint32_t t;
 7764              		.loc 1 385 3 view .LVU2966
 386:../../Middlewares/AI_Runtime/Npu/ll_aton/ll_aton.c **** 
 7765              		.loc 1 386 3 view .LVU2967
 388:../../Middlewares/AI_Runtime/Npu/ll_aton/ll_aton.c ****   {
 7766              		.loc 1 388 3 view .LVU2968
 382:../../Middlewares/AI_Runtime/Npu/ll_aton/ll_aton.c ****   int i;
 7767              		.loc 1 382 1 is_stmt 0 view .LVU2969
 7768 0000 70B5     		push	{r4, r5, r6, lr}
 7769              		.cfi_def_cfa_offset 16
 7770              		.cfi_offset 4, -16
 7771              		.cfi_offset 5, -12
 7772              		.cfi_offset 6, -8
 7773              		.cfi_offset 14, -4
 382:../../Middlewares/AI_Runtime/Npu/ll_aton/ll_aton.c ****   int i;
 7774              		.loc 1 382 1 view .LVU2970
 7775 0002 0546     		mov	r5, r0
 388:../../Middlewares/AI_Runtime/Npu/ll_aton/ll_aton.c ****   {
 7776              		.loc 1 388 10 view .LVU2971
 7777 0004 0024     		movs	r4, #0
 391:../../Middlewares/AI_Runtime/Npu/ll_aton/ll_aton.c **** 
 7778              		.loc 1 391 53 view .LVU2972
 7779 0006 861C     		adds	r6, r0, #2
 7780              	.LVL904:
 7781              	.L491:
 388:../../Middlewares/AI_Runtime/Npu/ll_aton/ll_aton.c ****   {
 7782              		.loc 1 388 17 is_stmt 1 discriminator 1 view .LVU2973
 7783 0008 8C42     		cmp	r4, r1
 7784 000a 01DB     		blt	.L516
 454:../../Middlewares/AI_Runtime/Npu/ll_aton/ll_aton.c **** }
 7785              		.loc 1 454 10 is_stmt 0 view .LVU2974
 7786 000c 0020     		movs	r0, #0
 7787              	.L490:
 455:../../Middlewares/AI_Runtime/Npu/ll_aton/ll_aton.c **** 
 7788              		.loc 1 455 1 view .LVU2975
 7789 000e 70BD     		pop	{r4, r5, r6, pc}
ARM GAS  C:\Users\Antonio\AppData\Local\Temp\ccynTwLp.s 			page 241


 7790              	.LVL905:
 7791              	.L516:
 390:../../Middlewares/AI_Runtime/Npu/ll_aton/ll_aton.c ****     unitId = LL_ATON_DisableUnits_InitStruct[i].unit.unit_num;
 7792              		.loc 1 390 5 is_stmt 1 view .LVU2976
 391:../../Middlewares/AI_Runtime/Npu/ll_aton/ll_aton.c **** 
 7793              		.loc 1 391 5 view .LVU2977
 393:../../Middlewares/AI_Runtime/Npu/ll_aton/ll_aton.c ****     {
 7794              		.loc 1 393 5 is_stmt 0 view .LVU2978
 7795 0010 15F82430 		ldrb	r3, [r5, r4, lsl #2]	@ zero_extendqisi2
 391:../../Middlewares/AI_Runtime/Npu/ll_aton/ll_aton.c **** 
 7796              		.loc 1 391 12 view .LVU2979
 7797 0014 36F82400 		ldrh	r0, [r6, r4, lsl #2]
 7798              	.LVL906:
 393:../../Middlewares/AI_Runtime/Npu/ll_aton/ll_aton.c ****     {
 7799              		.loc 1 393 5 is_stmt 1 view .LVU2980
 7800 0018 082B     		cmp	r3, #8
 7801 001a 7AD8     		bhi	.L517
 7802 001c DFE803F0 		tbb	[pc, r3]
 7803              	.L494:
 7804 0020 05       		.byte	(.L500-.L494)/2
 7805 0021 79       		.byte	(.L517-.L494)/2
 7806 0022 18       		.byte	(.L499-.L494)/2
 7807 0023 29       		.byte	(.L498-.L494)/2
 7808 0024 3A       		.byte	(.L497-.L494)/2
 7809 0025 4A       		.byte	(.L496-.L494)/2
 7810 0026 5B       		.byte	(.L495-.L494)/2
 7811 0027 79       		.byte	(.L517-.L494)/2
 7812 0028 6B       		.byte	(.L493-.L494)/2
 7813 0029 00       		.p2align 1
 7814              	.L500:
 397:../../Middlewares/AI_Runtime/Npu/ll_aton/ll_aton.c ****       LL_ATON_DisableClock(ATON_STRENG_CLKB_CLK(unitId));
 7815              		.loc 1 397 7 view .LVU2981
 397:../../Middlewares/AI_Runtime/Npu/ll_aton/ll_aton.c ****       LL_ATON_DisableClock(ATON_STRENG_CLKB_CLK(unitId));
 7816              		.loc 1 397 7 view .LVU2982
 7817              	.LVL907:
 397:../../Middlewares/AI_Runtime/Npu/ll_aton/ll_aton.c ****       LL_ATON_DisableClock(ATON_STRENG_CLKB_CLK(unitId));
 7818              		.loc 1 397 7 view .LVU2983
 397:../../Middlewares/AI_Runtime/Npu/ll_aton/ll_aton.c ****       LL_ATON_DisableClock(ATON_STRENG_CLKB_CLK(unitId));
 7819              		.loc 1 397 7 view .LVU2984
 397:../../Middlewares/AI_Runtime/Npu/ll_aton/ll_aton.c ****       LL_ATON_DisableClock(ATON_STRENG_CLKB_CLK(unitId));
 7820              		.loc 1 397 7 view .LVU2985
 397:../../Middlewares/AI_Runtime/Npu/ll_aton/ll_aton.c ****       LL_ATON_DisableClock(ATON_STRENG_CLKB_CLK(unitId));
 7821              		.loc 1 397 7 view .LVU2986
 7822 002a 0222     		movs	r2, #2
 7823 002c 00F5B023 		add	r3, r0, #360448
 7824 0030 E533     		adds	r3, r3, #229
 7825 0032 1B03     		lsls	r3, r3, #12
 7826 0034 1A60     		str	r2, [r3]
 7827              	.LVL908:
 397:../../Middlewares/AI_Runtime/Npu/ll_aton/ll_aton.c ****       LL_ATON_DisableClock(ATON_STRENG_CLKB_CLK(unitId));
 7828              		.loc 1 397 7 view .LVU2987
 397:../../Middlewares/AI_Runtime/Npu/ll_aton/ll_aton.c ****       LL_ATON_DisableClock(ATON_STRENG_CLKB_CLK(unitId));
 7829              		.loc 1 397 7 view .LVU2988
 397:../../Middlewares/AI_Runtime/Npu/ll_aton/ll_aton.c ****       LL_ATON_DisableClock(ATON_STRENG_CLKB_CLK(unitId));
 7830              		.loc 1 397 7 view .LVU2989
 397:../../Middlewares/AI_Runtime/Npu/ll_aton/ll_aton.c ****       LL_ATON_DisableClock(ATON_STRENG_CLKB_CLK(unitId));
 7831              		.loc 1 397 7 view .LVU2990
ARM GAS  C:\Users\Antonio\AppData\Local\Temp\ccynTwLp.s 			page 242


 7832              	.L501:
 397:../../Middlewares/AI_Runtime/Npu/ll_aton/ll_aton.c ****       LL_ATON_DisableClock(ATON_STRENG_CLKB_CLK(unitId));
 7833              		.loc 1 397 7 discriminator 2 view .LVU2991
 397:../../Middlewares/AI_Runtime/Npu/ll_aton/ll_aton.c ****       LL_ATON_DisableClock(ATON_STRENG_CLKB_CLK(unitId));
 7834              		.loc 1 397 7 discriminator 2 view .LVU2992
 7835 0036 1A68     		ldr	r2, [r3]
 7836 0038 9207     		lsls	r2, r2, #30
 7837 003a FCD4     		bmi	.L501
 397:../../Middlewares/AI_Runtime/Npu/ll_aton/ll_aton.c ****       LL_ATON_DisableClock(ATON_STRENG_CLKB_CLK(unitId));
 7838              		.loc 1 397 7 discriminator 3 view .LVU2993
 397:../../Middlewares/AI_Runtime/Npu/ll_aton/ll_aton.c ****       LL_ATON_DisableClock(ATON_STRENG_CLKB_CLK(unitId));
 7839              		.loc 1 397 7 discriminator 3 view .LVU2994
 7840              	.LVL909:
 397:../../Middlewares/AI_Runtime/Npu/ll_aton/ll_aton.c ****       LL_ATON_DisableClock(ATON_STRENG_CLKB_CLK(unitId));
 7841              		.loc 1 397 7 discriminator 3 view .LVU2995
 397:../../Middlewares/AI_Runtime/Npu/ll_aton/ll_aton.c ****       LL_ATON_DisableClock(ATON_STRENG_CLKB_CLK(unitId));
 7842              		.loc 1 397 7 discriminator 3 view .LVU2996
 397:../../Middlewares/AI_Runtime/Npu/ll_aton/ll_aton.c ****       LL_ATON_DisableClock(ATON_STRENG_CLKB_CLK(unitId));
 7843              		.loc 1 397 7 discriminator 3 view .LVU2997
 7844 003c 4FF08042 		mov	r2, #1073741824
 7845 0040 1A60     		str	r2, [r3]
 397:../../Middlewares/AI_Runtime/Npu/ll_aton/ll_aton.c ****       LL_ATON_DisableClock(ATON_STRENG_CLKB_CLK(unitId));
 7846              		.loc 1 397 7 discriminator 3 view .LVU2998
 397:../../Middlewares/AI_Runtime/Npu/ll_aton/ll_aton.c ****       LL_ATON_DisableClock(ATON_STRENG_CLKB_CLK(unitId));
 7847              		.loc 1 397 7 discriminator 3 view .LVU2999
 397:../../Middlewares/AI_Runtime/Npu/ll_aton/ll_aton.c ****       LL_ATON_DisableClock(ATON_STRENG_CLKB_CLK(unitId));
 7848              		.loc 1 397 7 discriminator 3 view .LVU3000
 397:../../Middlewares/AI_Runtime/Npu/ll_aton/ll_aton.c ****       LL_ATON_DisableClock(ATON_STRENG_CLKB_CLK(unitId));
 7849              		.loc 1 397 7 discriminator 3 view .LVU3001
 7850              	.L502:
 397:../../Middlewares/AI_Runtime/Npu/ll_aton/ll_aton.c ****       LL_ATON_DisableClock(ATON_STRENG_CLKB_CLK(unitId));
 7851              		.loc 1 397 7 discriminator 5 view .LVU3002
 397:../../Middlewares/AI_Runtime/Npu/ll_aton/ll_aton.c ****       LL_ATON_DisableClock(ATON_STRENG_CLKB_CLK(unitId));
 7852              		.loc 1 397 7 discriminator 5 view .LVU3003
 7853 0042 1A68     		ldr	r2, [r3]
 7854 0044 5200     		lsls	r2, r2, #1
 7855 0046 FCD4     		bmi	.L502
 7856              	.LVL910:
 7857              	.L532:
 445:../../Middlewares/AI_Runtime/Npu/ll_aton/ll_aton.c ****       break;
 7858              		.loc 1 445 7 is_stmt 0 view .LVU3004
 7859 0048 FFF7FEFF 		bl	LL_ATON_DisableClock
 7860              	.LVL911:
 446:../../Middlewares/AI_Runtime/Npu/ll_aton/ll_aton.c **** #endif
 7861              		.loc 1 446 7 is_stmt 1 view .LVU3005
 388:../../Middlewares/AI_Runtime/Npu/ll_aton/ll_aton.c ****   {
 7862              		.loc 1 388 23 discriminator 2 view .LVU3006
 7863 004c 0134     		adds	r4, r4, #1
 7864              	.LVL912:
 388:../../Middlewares/AI_Runtime/Npu/ll_aton/ll_aton.c ****   {
 7865              		.loc 1 388 23 is_stmt 0 discriminator 2 view .LVU3007
 7866 004e DBE7     		b	.L491
 7867              	.LVL913:
 7868              	.L499:
 404:../../Middlewares/AI_Runtime/Npu/ll_aton/ll_aton.c ****       LL_ATON_DisableClock(ATON_CONVACC_CLKB_CLK(unitId));
 7869              		.loc 1 404 7 is_stmt 1 view .LVU3008
 404:../../Middlewares/AI_Runtime/Npu/ll_aton/ll_aton.c ****       LL_ATON_DisableClock(ATON_CONVACC_CLKB_CLK(unitId));
ARM GAS  C:\Users\Antonio\AppData\Local\Temp\ccynTwLp.s 			page 243


 7870              		.loc 1 404 7 view .LVU3009
 404:../../Middlewares/AI_Runtime/Npu/ll_aton/ll_aton.c ****       LL_ATON_DisableClock(ATON_CONVACC_CLKB_CLK(unitId));
 7871              		.loc 1 404 7 view .LVU3010
 404:../../Middlewares/AI_Runtime/Npu/ll_aton/ll_aton.c ****       LL_ATON_DisableClock(ATON_CONVACC_CLKB_CLK(unitId));
 7872              		.loc 1 404 7 view .LVU3011
 404:../../Middlewares/AI_Runtime/Npu/ll_aton/ll_aton.c ****       LL_ATON_DisableClock(ATON_CONVACC_CLKB_CLK(unitId));
 7873              		.loc 1 404 7 view .LVU3012
 404:../../Middlewares/AI_Runtime/Npu/ll_aton/ll_aton.c ****       LL_ATON_DisableClock(ATON_CONVACC_CLKB_CLK(unitId));
 7874              		.loc 1 404 7 view .LVU3013
 7875 0050 0222     		movs	r2, #2
 7876 0052 00F5B023 		add	r3, r0, #360448
 7877 0056 EF33     		adds	r3, r3, #239
 7878 0058 1B03     		lsls	r3, r3, #12
 7879 005a 1A60     		str	r2, [r3]
 7880              	.LVL914:
 404:../../Middlewares/AI_Runtime/Npu/ll_aton/ll_aton.c ****       LL_ATON_DisableClock(ATON_CONVACC_CLKB_CLK(unitId));
 7881              		.loc 1 404 7 view .LVU3014
 404:../../Middlewares/AI_Runtime/Npu/ll_aton/ll_aton.c ****       LL_ATON_DisableClock(ATON_CONVACC_CLKB_CLK(unitId));
 7882              		.loc 1 404 7 view .LVU3015
 404:../../Middlewares/AI_Runtime/Npu/ll_aton/ll_aton.c ****       LL_ATON_DisableClock(ATON_CONVACC_CLKB_CLK(unitId));
 7883              		.loc 1 404 7 view .LVU3016
 404:../../Middlewares/AI_Runtime/Npu/ll_aton/ll_aton.c ****       LL_ATON_DisableClock(ATON_CONVACC_CLKB_CLK(unitId));
 7884              		.loc 1 404 7 view .LVU3017
 7885              	.L504:
 404:../../Middlewares/AI_Runtime/Npu/ll_aton/ll_aton.c ****       LL_ATON_DisableClock(ATON_CONVACC_CLKB_CLK(unitId));
 7886              		.loc 1 404 7 discriminator 2 view .LVU3018
 404:../../Middlewares/AI_Runtime/Npu/ll_aton/ll_aton.c ****       LL_ATON_DisableClock(ATON_CONVACC_CLKB_CLK(unitId));
 7887              		.loc 1 404 7 discriminator 2 view .LVU3019
 7888 005c 1A68     		ldr	r2, [r3]
 7889 005e 9207     		lsls	r2, r2, #30
 7890 0060 FCD4     		bmi	.L504
 404:../../Middlewares/AI_Runtime/Npu/ll_aton/ll_aton.c ****       LL_ATON_DisableClock(ATON_CONVACC_CLKB_CLK(unitId));
 7891              		.loc 1 404 7 discriminator 3 view .LVU3020
 404:../../Middlewares/AI_Runtime/Npu/ll_aton/ll_aton.c ****       LL_ATON_DisableClock(ATON_CONVACC_CLKB_CLK(unitId));
 7892              		.loc 1 404 7 discriminator 3 view .LVU3021
 7893              	.LVL915:
 404:../../Middlewares/AI_Runtime/Npu/ll_aton/ll_aton.c ****       LL_ATON_DisableClock(ATON_CONVACC_CLKB_CLK(unitId));
 7894              		.loc 1 404 7 discriminator 3 view .LVU3022
 404:../../Middlewares/AI_Runtime/Npu/ll_aton/ll_aton.c ****       LL_ATON_DisableClock(ATON_CONVACC_CLKB_CLK(unitId));
 7895              		.loc 1 404 7 discriminator 3 view .LVU3023
 404:../../Middlewares/AI_Runtime/Npu/ll_aton/ll_aton.c ****       LL_ATON_DisableClock(ATON_CONVACC_CLKB_CLK(unitId));
 7896              		.loc 1 404 7 discriminator 3 view .LVU3024
 7897 0062 4FF08042 		mov	r2, #1073741824
 7898 0066 1A60     		str	r2, [r3]
 404:../../Middlewares/AI_Runtime/Npu/ll_aton/ll_aton.c ****       LL_ATON_DisableClock(ATON_CONVACC_CLKB_CLK(unitId));
 7899              		.loc 1 404 7 discriminator 3 view .LVU3025
 404:../../Middlewares/AI_Runtime/Npu/ll_aton/ll_aton.c ****       LL_ATON_DisableClock(ATON_CONVACC_CLKB_CLK(unitId));
 7900              		.loc 1 404 7 discriminator 3 view .LVU3026
 404:../../Middlewares/AI_Runtime/Npu/ll_aton/ll_aton.c ****       LL_ATON_DisableClock(ATON_CONVACC_CLKB_CLK(unitId));
 7901              		.loc 1 404 7 discriminator 3 view .LVU3027
 404:../../Middlewares/AI_Runtime/Npu/ll_aton/ll_aton.c ****       LL_ATON_DisableClock(ATON_CONVACC_CLKB_CLK(unitId));
 7902              		.loc 1 404 7 discriminator 3 view .LVU3028
 7903              	.L505:
 404:../../Middlewares/AI_Runtime/Npu/ll_aton/ll_aton.c ****       LL_ATON_DisableClock(ATON_CONVACC_CLKB_CLK(unitId));
 7904              		.loc 1 404 7 discriminator 5 view .LVU3029
 404:../../Middlewares/AI_Runtime/Npu/ll_aton/ll_aton.c ****       LL_ATON_DisableClock(ATON_CONVACC_CLKB_CLK(unitId));
 7905              		.loc 1 404 7 discriminator 5 view .LVU3030
ARM GAS  C:\Users\Antonio\AppData\Local\Temp\ccynTwLp.s 			page 244


 7906 0068 1A68     		ldr	r2, [r3]
 7907 006a 5200     		lsls	r2, r2, #1
 7908 006c FCD4     		bmi	.L505
 404:../../Middlewares/AI_Runtime/Npu/ll_aton/ll_aton.c ****       LL_ATON_DisableClock(ATON_CONVACC_CLKB_CLK(unitId));
 7909              		.loc 1 404 7 discriminator 6 view .LVU3031
 404:../../Middlewares/AI_Runtime/Npu/ll_aton/ll_aton.c ****       LL_ATON_DisableClock(ATON_CONVACC_CLKB_CLK(unitId));
 7910              		.loc 1 404 7 discriminator 6 view .LVU3032
 405:../../Middlewares/AI_Runtime/Npu/ll_aton/ll_aton.c ****       break;
 7911              		.loc 1 405 7 view .LVU3033
 7912 006e 0A30     		adds	r0, r0, #10
 7913              	.LVL916:
 405:../../Middlewares/AI_Runtime/Npu/ll_aton/ll_aton.c ****       break;
 7914              		.loc 1 405 7 is_stmt 0 view .LVU3034
 7915 0070 EAE7     		b	.L532
 7916              	.LVL917:
 7917              	.L498:
 411:../../Middlewares/AI_Runtime/Npu/ll_aton/ll_aton.c ****       LL_ATON_DisableClock(ATON_DECUN_CLKB_CLK(unitId));
 7918              		.loc 1 411 7 is_stmt 1 view .LVU3035
 411:../../Middlewares/AI_Runtime/Npu/ll_aton/ll_aton.c ****       LL_ATON_DisableClock(ATON_DECUN_CLKB_CLK(unitId));
 7919              		.loc 1 411 7 view .LVU3036
 411:../../Middlewares/AI_Runtime/Npu/ll_aton/ll_aton.c ****       LL_ATON_DisableClock(ATON_DECUN_CLKB_CLK(unitId));
 7920              		.loc 1 411 7 view .LVU3037
 411:../../Middlewares/AI_Runtime/Npu/ll_aton/ll_aton.c ****       LL_ATON_DisableClock(ATON_DECUN_CLKB_CLK(unitId));
 7921              		.loc 1 411 7 view .LVU3038
 411:../../Middlewares/AI_Runtime/Npu/ll_aton/ll_aton.c ****       LL_ATON_DisableClock(ATON_DECUN_CLKB_CLK(unitId));
 7922              		.loc 1 411 7 view .LVU3039
 411:../../Middlewares/AI_Runtime/Npu/ll_aton/ll_aton.c ****       LL_ATON_DisableClock(ATON_DECUN_CLKB_CLK(unitId));
 7923              		.loc 1 411 7 view .LVU3040
 7924 0072 0222     		movs	r2, #2
 7925 0074 00F5B023 		add	r3, r0, #360448
 7926 0078 F333     		adds	r3, r3, #243
 7927 007a 1B03     		lsls	r3, r3, #12
 7928 007c 1A60     		str	r2, [r3]
 7929              	.LVL918:
 411:../../Middlewares/AI_Runtime/Npu/ll_aton/ll_aton.c ****       LL_ATON_DisableClock(ATON_DECUN_CLKB_CLK(unitId));
 7930              		.loc 1 411 7 view .LVU3041
 411:../../Middlewares/AI_Runtime/Npu/ll_aton/ll_aton.c ****       LL_ATON_DisableClock(ATON_DECUN_CLKB_CLK(unitId));
 7931              		.loc 1 411 7 view .LVU3042
 411:../../Middlewares/AI_Runtime/Npu/ll_aton/ll_aton.c ****       LL_ATON_DisableClock(ATON_DECUN_CLKB_CLK(unitId));
 7932              		.loc 1 411 7 view .LVU3043
 411:../../Middlewares/AI_Runtime/Npu/ll_aton/ll_aton.c ****       LL_ATON_DisableClock(ATON_DECUN_CLKB_CLK(unitId));
 7933              		.loc 1 411 7 view .LVU3044
 7934              	.L506:
 411:../../Middlewares/AI_Runtime/Npu/ll_aton/ll_aton.c ****       LL_ATON_DisableClock(ATON_DECUN_CLKB_CLK(unitId));
 7935              		.loc 1 411 7 discriminator 2 view .LVU3045
 411:../../Middlewares/AI_Runtime/Npu/ll_aton/ll_aton.c ****       LL_ATON_DisableClock(ATON_DECUN_CLKB_CLK(unitId));
 7936              		.loc 1 411 7 discriminator 2 view .LVU3046
 7937 007e 1A68     		ldr	r2, [r3]
 7938 0080 9207     		lsls	r2, r2, #30
 7939 0082 FCD4     		bmi	.L506
 411:../../Middlewares/AI_Runtime/Npu/ll_aton/ll_aton.c ****       LL_ATON_DisableClock(ATON_DECUN_CLKB_CLK(unitId));
 7940              		.loc 1 411 7 discriminator 3 view .LVU3047
 411:../../Middlewares/AI_Runtime/Npu/ll_aton/ll_aton.c ****       LL_ATON_DisableClock(ATON_DECUN_CLKB_CLK(unitId));
 7941              		.loc 1 411 7 discriminator 3 view .LVU3048
 7942              	.LVL919:
 411:../../Middlewares/AI_Runtime/Npu/ll_aton/ll_aton.c ****       LL_ATON_DisableClock(ATON_DECUN_CLKB_CLK(unitId));
 7943              		.loc 1 411 7 discriminator 3 view .LVU3049
ARM GAS  C:\Users\Antonio\AppData\Local\Temp\ccynTwLp.s 			page 245


 411:../../Middlewares/AI_Runtime/Npu/ll_aton/ll_aton.c ****       LL_ATON_DisableClock(ATON_DECUN_CLKB_CLK(unitId));
 7944              		.loc 1 411 7 discriminator 3 view .LVU3050
 411:../../Middlewares/AI_Runtime/Npu/ll_aton/ll_aton.c ****       LL_ATON_DisableClock(ATON_DECUN_CLKB_CLK(unitId));
 7945              		.loc 1 411 7 discriminator 3 view .LVU3051
 7946 0084 4FF08042 		mov	r2, #1073741824
 7947 0088 1A60     		str	r2, [r3]
 411:../../Middlewares/AI_Runtime/Npu/ll_aton/ll_aton.c ****       LL_ATON_DisableClock(ATON_DECUN_CLKB_CLK(unitId));
 7948              		.loc 1 411 7 discriminator 3 view .LVU3052
 411:../../Middlewares/AI_Runtime/Npu/ll_aton/ll_aton.c ****       LL_ATON_DisableClock(ATON_DECUN_CLKB_CLK(unitId));
 7949              		.loc 1 411 7 discriminator 3 view .LVU3053
 411:../../Middlewares/AI_Runtime/Npu/ll_aton/ll_aton.c ****       LL_ATON_DisableClock(ATON_DECUN_CLKB_CLK(unitId));
 7950              		.loc 1 411 7 discriminator 3 view .LVU3054
 411:../../Middlewares/AI_Runtime/Npu/ll_aton/ll_aton.c ****       LL_ATON_DisableClock(ATON_DECUN_CLKB_CLK(unitId));
 7951              		.loc 1 411 7 discriminator 3 view .LVU3055
 7952              	.L507:
 411:../../Middlewares/AI_Runtime/Npu/ll_aton/ll_aton.c ****       LL_ATON_DisableClock(ATON_DECUN_CLKB_CLK(unitId));
 7953              		.loc 1 411 7 discriminator 5 view .LVU3056
 411:../../Middlewares/AI_Runtime/Npu/ll_aton/ll_aton.c ****       LL_ATON_DisableClock(ATON_DECUN_CLKB_CLK(unitId));
 7954              		.loc 1 411 7 discriminator 5 view .LVU3057
 7955 008a 1A68     		ldr	r2, [r3]
 7956 008c 5200     		lsls	r2, r2, #1
 7957 008e FCD4     		bmi	.L507
 411:../../Middlewares/AI_Runtime/Npu/ll_aton/ll_aton.c ****       LL_ATON_DisableClock(ATON_DECUN_CLKB_CLK(unitId));
 7958              		.loc 1 411 7 discriminator 6 view .LVU3058
 411:../../Middlewares/AI_Runtime/Npu/ll_aton/ll_aton.c ****       LL_ATON_DisableClock(ATON_DECUN_CLKB_CLK(unitId));
 7959              		.loc 1 411 7 discriminator 6 view .LVU3059
 412:../../Middlewares/AI_Runtime/Npu/ll_aton/ll_aton.c ****       break;
 7960              		.loc 1 412 7 view .LVU3060
 7961 0090 0E30     		adds	r0, r0, #14
 7962              	.LVL920:
 412:../../Middlewares/AI_Runtime/Npu/ll_aton/ll_aton.c ****       break;
 7963              		.loc 1 412 7 is_stmt 0 view .LVU3061
 7964 0092 D9E7     		b	.L532
 7965              	.LVL921:
 7966              	.L497:
 418:../../Middlewares/AI_Runtime/Npu/ll_aton/ll_aton.c ****       LL_ATON_DisableClock(ATON_ACTIV_CLKB_CLK(unitId));
 7967              		.loc 1 418 7 is_stmt 1 view .LVU3062
 418:../../Middlewares/AI_Runtime/Npu/ll_aton/ll_aton.c ****       LL_ATON_DisableClock(ATON_ACTIV_CLKB_CLK(unitId));
 7968              		.loc 1 418 7 view .LVU3063
 418:../../Middlewares/AI_Runtime/Npu/ll_aton/ll_aton.c ****       LL_ATON_DisableClock(ATON_ACTIV_CLKB_CLK(unitId));
 7969              		.loc 1 418 7 view .LVU3064
 418:../../Middlewares/AI_Runtime/Npu/ll_aton/ll_aton.c ****       LL_ATON_DisableClock(ATON_ACTIV_CLKB_CLK(unitId));
 7970              		.loc 1 418 7 view .LVU3065
 418:../../Middlewares/AI_Runtime/Npu/ll_aton/ll_aton.c ****       LL_ATON_DisableClock(ATON_ACTIV_CLKB_CLK(unitId));
 7971              		.loc 1 418 7 view .LVU3066
 418:../../Middlewares/AI_Runtime/Npu/ll_aton/ll_aton.c ****       LL_ATON_DisableClock(ATON_ACTIV_CLKB_CLK(unitId));
 7972              		.loc 1 418 7 view .LVU3067
 7973 0094 00F5B023 		add	r3, r0, #360448
 7974 0098 1F4A     		ldr	r2, .L533
 7975 009a F533     		adds	r3, r3, #245
 7976 009c 1B03     		lsls	r3, r3, #12
 7977 009e 1A60     		str	r2, [r3]
 7978              	.LVL922:
 418:../../Middlewares/AI_Runtime/Npu/ll_aton/ll_aton.c ****       LL_ATON_DisableClock(ATON_ACTIV_CLKB_CLK(unitId));
 7979              		.loc 1 418 7 view .LVU3068
 418:../../Middlewares/AI_Runtime/Npu/ll_aton/ll_aton.c ****       LL_ATON_DisableClock(ATON_ACTIV_CLKB_CLK(unitId));
 7980              		.loc 1 418 7 view .LVU3069
ARM GAS  C:\Users\Antonio\AppData\Local\Temp\ccynTwLp.s 			page 246


 418:../../Middlewares/AI_Runtime/Npu/ll_aton/ll_aton.c ****       LL_ATON_DisableClock(ATON_ACTIV_CLKB_CLK(unitId));
 7981              		.loc 1 418 7 view .LVU3070
 418:../../Middlewares/AI_Runtime/Npu/ll_aton/ll_aton.c ****       LL_ATON_DisableClock(ATON_ACTIV_CLKB_CLK(unitId));
 7982              		.loc 1 418 7 view .LVU3071
 7983              	.L508:
 418:../../Middlewares/AI_Runtime/Npu/ll_aton/ll_aton.c ****       LL_ATON_DisableClock(ATON_ACTIV_CLKB_CLK(unitId));
 7984              		.loc 1 418 7 discriminator 2 view .LVU3072
 418:../../Middlewares/AI_Runtime/Npu/ll_aton/ll_aton.c ****       LL_ATON_DisableClock(ATON_ACTIV_CLKB_CLK(unitId));
 7985              		.loc 1 418 7 discriminator 2 view .LVU3073
 7986 00a0 1A68     		ldr	r2, [r3]
 7987 00a2 9207     		lsls	r2, r2, #30
 7988 00a4 FCD4     		bmi	.L508
 418:../../Middlewares/AI_Runtime/Npu/ll_aton/ll_aton.c ****       LL_ATON_DisableClock(ATON_ACTIV_CLKB_CLK(unitId));
 7989              		.loc 1 418 7 discriminator 3 view .LVU3074
 418:../../Middlewares/AI_Runtime/Npu/ll_aton/ll_aton.c ****       LL_ATON_DisableClock(ATON_ACTIV_CLKB_CLK(unitId));
 7990              		.loc 1 418 7 discriminator 3 view .LVU3075
 7991              	.LVL923:
 418:../../Middlewares/AI_Runtime/Npu/ll_aton/ll_aton.c ****       LL_ATON_DisableClock(ATON_ACTIV_CLKB_CLK(unitId));
 7992              		.loc 1 418 7 discriminator 3 view .LVU3076
 418:../../Middlewares/AI_Runtime/Npu/ll_aton/ll_aton.c ****       LL_ATON_DisableClock(ATON_ACTIV_CLKB_CLK(unitId));
 7993              		.loc 1 418 7 discriminator 3 view .LVU3077
 418:../../Middlewares/AI_Runtime/Npu/ll_aton/ll_aton.c ****       LL_ATON_DisableClock(ATON_ACTIV_CLKB_CLK(unitId));
 7994              		.loc 1 418 7 discriminator 3 view .LVU3078
 7995 00a6 1D4A     		ldr	r2, .L533+4
 7996 00a8 1A60     		str	r2, [r3]
 418:../../Middlewares/AI_Runtime/Npu/ll_aton/ll_aton.c ****       LL_ATON_DisableClock(ATON_ACTIV_CLKB_CLK(unitId));
 7997              		.loc 1 418 7 discriminator 3 view .LVU3079
 418:../../Middlewares/AI_Runtime/Npu/ll_aton/ll_aton.c ****       LL_ATON_DisableClock(ATON_ACTIV_CLKB_CLK(unitId));
 7998              		.loc 1 418 7 discriminator 3 view .LVU3080
 418:../../Middlewares/AI_Runtime/Npu/ll_aton/ll_aton.c ****       LL_ATON_DisableClock(ATON_ACTIV_CLKB_CLK(unitId));
 7999              		.loc 1 418 7 discriminator 3 view .LVU3081
 418:../../Middlewares/AI_Runtime/Npu/ll_aton/ll_aton.c ****       LL_ATON_DisableClock(ATON_ACTIV_CLKB_CLK(unitId));
 8000              		.loc 1 418 7 discriminator 3 view .LVU3082
 8001              	.L509:
 418:../../Middlewares/AI_Runtime/Npu/ll_aton/ll_aton.c ****       LL_ATON_DisableClock(ATON_ACTIV_CLKB_CLK(unitId));
 8002              		.loc 1 418 7 discriminator 5 view .LVU3083
 418:../../Middlewares/AI_Runtime/Npu/ll_aton/ll_aton.c ****       LL_ATON_DisableClock(ATON_ACTIV_CLKB_CLK(unitId));
 8003              		.loc 1 418 7 discriminator 5 view .LVU3084
 8004 00aa 1A68     		ldr	r2, [r3]
 8005 00ac 5200     		lsls	r2, r2, #1
 8006 00ae FCD4     		bmi	.L509
 418:../../Middlewares/AI_Runtime/Npu/ll_aton/ll_aton.c ****       LL_ATON_DisableClock(ATON_ACTIV_CLKB_CLK(unitId));
 8007              		.loc 1 418 7 discriminator 6 view .LVU3085
 418:../../Middlewares/AI_Runtime/Npu/ll_aton/ll_aton.c ****       LL_ATON_DisableClock(ATON_ACTIV_CLKB_CLK(unitId));
 8008              		.loc 1 418 7 discriminator 6 view .LVU3086
 419:../../Middlewares/AI_Runtime/Npu/ll_aton/ll_aton.c ****       break;
 8009              		.loc 1 419 7 view .LVU3087
 8010 00b0 1030     		adds	r0, r0, #16
 8011              	.LVL924:
 419:../../Middlewares/AI_Runtime/Npu/ll_aton/ll_aton.c ****       break;
 8012              		.loc 1 419 7 is_stmt 0 view .LVU3088
 8013 00b2 C9E7     		b	.L532
 8014              	.LVL925:
 8015              	.L496:
 425:../../Middlewares/AI_Runtime/Npu/ll_aton/ll_aton.c ****       LL_ATON_DisableClock(ATON_ARITH_CLKB_CLK(unitId));
 8016              		.loc 1 425 7 is_stmt 1 view .LVU3089
 425:../../Middlewares/AI_Runtime/Npu/ll_aton/ll_aton.c ****       LL_ATON_DisableClock(ATON_ARITH_CLKB_CLK(unitId));
ARM GAS  C:\Users\Antonio\AppData\Local\Temp\ccynTwLp.s 			page 247


 8017              		.loc 1 425 7 view .LVU3090
 425:../../Middlewares/AI_Runtime/Npu/ll_aton/ll_aton.c ****       LL_ATON_DisableClock(ATON_ARITH_CLKB_CLK(unitId));
 8018              		.loc 1 425 7 view .LVU3091
 425:../../Middlewares/AI_Runtime/Npu/ll_aton/ll_aton.c ****       LL_ATON_DisableClock(ATON_ARITH_CLKB_CLK(unitId));
 8019              		.loc 1 425 7 view .LVU3092
 425:../../Middlewares/AI_Runtime/Npu/ll_aton/ll_aton.c ****       LL_ATON_DisableClock(ATON_ARITH_CLKB_CLK(unitId));
 8020              		.loc 1 425 7 view .LVU3093
 425:../../Middlewares/AI_Runtime/Npu/ll_aton/ll_aton.c ****       LL_ATON_DisableClock(ATON_ARITH_CLKB_CLK(unitId));
 8021              		.loc 1 425 7 view .LVU3094
 8022 00b4 00F5B023 		add	r3, r0, #360448
 8023 00b8 194A     		ldr	r2, .L533+8
 8024 00ba F733     		adds	r3, r3, #247
 8025 00bc 1B03     		lsls	r3, r3, #12
 8026 00be 1A60     		str	r2, [r3]
 8027              	.LVL926:
 425:../../Middlewares/AI_Runtime/Npu/ll_aton/ll_aton.c ****       LL_ATON_DisableClock(ATON_ARITH_CLKB_CLK(unitId));
 8028              		.loc 1 425 7 view .LVU3095
 425:../../Middlewares/AI_Runtime/Npu/ll_aton/ll_aton.c ****       LL_ATON_DisableClock(ATON_ARITH_CLKB_CLK(unitId));
 8029              		.loc 1 425 7 view .LVU3096
 425:../../Middlewares/AI_Runtime/Npu/ll_aton/ll_aton.c ****       LL_ATON_DisableClock(ATON_ARITH_CLKB_CLK(unitId));
 8030              		.loc 1 425 7 view .LVU3097
 425:../../Middlewares/AI_Runtime/Npu/ll_aton/ll_aton.c ****       LL_ATON_DisableClock(ATON_ARITH_CLKB_CLK(unitId));
 8031              		.loc 1 425 7 view .LVU3098
 8032              	.L510:
 425:../../Middlewares/AI_Runtime/Npu/ll_aton/ll_aton.c ****       LL_ATON_DisableClock(ATON_ARITH_CLKB_CLK(unitId));
 8033              		.loc 1 425 7 discriminator 2 view .LVU3099
 425:../../Middlewares/AI_Runtime/Npu/ll_aton/ll_aton.c ****       LL_ATON_DisableClock(ATON_ARITH_CLKB_CLK(unitId));
 8034              		.loc 1 425 7 discriminator 2 view .LVU3100
 8035 00c0 1A68     		ldr	r2, [r3]
 8036 00c2 9207     		lsls	r2, r2, #30
 8037 00c4 FCD4     		bmi	.L510
 425:../../Middlewares/AI_Runtime/Npu/ll_aton/ll_aton.c ****       LL_ATON_DisableClock(ATON_ARITH_CLKB_CLK(unitId));
 8038              		.loc 1 425 7 discriminator 3 view .LVU3101
 425:../../Middlewares/AI_Runtime/Npu/ll_aton/ll_aton.c ****       LL_ATON_DisableClock(ATON_ARITH_CLKB_CLK(unitId));
 8039              		.loc 1 425 7 discriminator 3 view .LVU3102
 8040              	.LVL927:
 425:../../Middlewares/AI_Runtime/Npu/ll_aton/ll_aton.c ****       LL_ATON_DisableClock(ATON_ARITH_CLKB_CLK(unitId));
 8041              		.loc 1 425 7 discriminator 3 view .LVU3103
 425:../../Middlewares/AI_Runtime/Npu/ll_aton/ll_aton.c ****       LL_ATON_DisableClock(ATON_ARITH_CLKB_CLK(unitId));
 8042              		.loc 1 425 7 discriminator 3 view .LVU3104
 425:../../Middlewares/AI_Runtime/Npu/ll_aton/ll_aton.c ****       LL_ATON_DisableClock(ATON_ARITH_CLKB_CLK(unitId));
 8043              		.loc 1 425 7 discriminator 3 view .LVU3105
 8044 00c6 4FF09042 		mov	r2, #1207959552
 8045 00ca 1A60     		str	r2, [r3]
 425:../../Middlewares/AI_Runtime/Npu/ll_aton/ll_aton.c ****       LL_ATON_DisableClock(ATON_ARITH_CLKB_CLK(unitId));
 8046              		.loc 1 425 7 discriminator 3 view .LVU3106
 425:../../Middlewares/AI_Runtime/Npu/ll_aton/ll_aton.c ****       LL_ATON_DisableClock(ATON_ARITH_CLKB_CLK(unitId));
 8047              		.loc 1 425 7 discriminator 3 view .LVU3107
 425:../../Middlewares/AI_Runtime/Npu/ll_aton/ll_aton.c ****       LL_ATON_DisableClock(ATON_ARITH_CLKB_CLK(unitId));
 8048              		.loc 1 425 7 discriminator 3 view .LVU3108
 425:../../Middlewares/AI_Runtime/Npu/ll_aton/ll_aton.c ****       LL_ATON_DisableClock(ATON_ARITH_CLKB_CLK(unitId));
 8049              		.loc 1 425 7 discriminator 3 view .LVU3109
 8050              	.L511:
 425:../../Middlewares/AI_Runtime/Npu/ll_aton/ll_aton.c ****       LL_ATON_DisableClock(ATON_ARITH_CLKB_CLK(unitId));
 8051              		.loc 1 425 7 discriminator 5 view .LVU3110
 425:../../Middlewares/AI_Runtime/Npu/ll_aton/ll_aton.c ****       LL_ATON_DisableClock(ATON_ARITH_CLKB_CLK(unitId));
 8052              		.loc 1 425 7 discriminator 5 view .LVU3111
ARM GAS  C:\Users\Antonio\AppData\Local\Temp\ccynTwLp.s 			page 248


 8053 00cc 1A68     		ldr	r2, [r3]
 8054 00ce 5200     		lsls	r2, r2, #1
 8055 00d0 FCD4     		bmi	.L511
 425:../../Middlewares/AI_Runtime/Npu/ll_aton/ll_aton.c ****       LL_ATON_DisableClock(ATON_ARITH_CLKB_CLK(unitId));
 8056              		.loc 1 425 7 discriminator 6 view .LVU3112
 425:../../Middlewares/AI_Runtime/Npu/ll_aton/ll_aton.c ****       LL_ATON_DisableClock(ATON_ARITH_CLKB_CLK(unitId));
 8057              		.loc 1 425 7 discriminator 6 view .LVU3113
 426:../../Middlewares/AI_Runtime/Npu/ll_aton/ll_aton.c ****       break;
 8058              		.loc 1 426 7 view .LVU3114
 8059 00d2 1230     		adds	r0, r0, #18
 8060              	.LVL928:
 426:../../Middlewares/AI_Runtime/Npu/ll_aton/ll_aton.c ****       break;
 8061              		.loc 1 426 7 is_stmt 0 view .LVU3115
 8062 00d4 B8E7     		b	.L532
 8063              	.LVL929:
 8064              	.L495:
 435:../../Middlewares/AI_Runtime/Npu/ll_aton/ll_aton.c **** #endif // !POOL_RC14
 8065              		.loc 1 435 7 is_stmt 1 view .LVU3116
 435:../../Middlewares/AI_Runtime/Npu/ll_aton/ll_aton.c **** #endif // !POOL_RC14
 8066              		.loc 1 435 7 view .LVU3117
 435:../../Middlewares/AI_Runtime/Npu/ll_aton/ll_aton.c **** #endif // !POOL_RC14
 8067              		.loc 1 435 7 view .LVU3118
 435:../../Middlewares/AI_Runtime/Npu/ll_aton/ll_aton.c **** #endif // !POOL_RC14
 8068              		.loc 1 435 7 view .LVU3119
 435:../../Middlewares/AI_Runtime/Npu/ll_aton/ll_aton.c **** #endif // !POOL_RC14
 8069              		.loc 1 435 7 view .LVU3120
 435:../../Middlewares/AI_Runtime/Npu/ll_aton/ll_aton.c **** #endif // !POOL_RC14
 8070              		.loc 1 435 7 view .LVU3121
 8071 00d6 00F5B023 		add	r3, r0, #360448
 8072 00da 124A     		ldr	r2, .L533+12
 8073 00dc FB33     		adds	r3, r3, #251
 8074 00de 1B03     		lsls	r3, r3, #12
 8075 00e0 1A60     		str	r2, [r3]
 8076              	.LVL930:
 435:../../Middlewares/AI_Runtime/Npu/ll_aton/ll_aton.c **** #endif // !POOL_RC14
 8077              		.loc 1 435 7 view .LVU3122
 435:../../Middlewares/AI_Runtime/Npu/ll_aton/ll_aton.c **** #endif // !POOL_RC14
 8078              		.loc 1 435 7 view .LVU3123
 435:../../Middlewares/AI_Runtime/Npu/ll_aton/ll_aton.c **** #endif // !POOL_RC14
 8079              		.loc 1 435 7 view .LVU3124
 435:../../Middlewares/AI_Runtime/Npu/ll_aton/ll_aton.c **** #endif // !POOL_RC14
 8080              		.loc 1 435 7 view .LVU3125
 8081              	.L512:
 435:../../Middlewares/AI_Runtime/Npu/ll_aton/ll_aton.c **** #endif // !POOL_RC14
 8082              		.loc 1 435 7 discriminator 2 view .LVU3126
 435:../../Middlewares/AI_Runtime/Npu/ll_aton/ll_aton.c **** #endif // !POOL_RC14
 8083              		.loc 1 435 7 discriminator 2 view .LVU3127
 8084 00e2 1A68     		ldr	r2, [r3]
 8085 00e4 9207     		lsls	r2, r2, #30
 8086 00e6 FCD4     		bmi	.L512
 435:../../Middlewares/AI_Runtime/Npu/ll_aton/ll_aton.c **** #endif // !POOL_RC14
 8087              		.loc 1 435 7 discriminator 3 view .LVU3128
 435:../../Middlewares/AI_Runtime/Npu/ll_aton/ll_aton.c **** #endif // !POOL_RC14
 8088              		.loc 1 435 7 discriminator 3 view .LVU3129
 8089              	.LVL931:
 435:../../Middlewares/AI_Runtime/Npu/ll_aton/ll_aton.c **** #endif // !POOL_RC14
 8090              		.loc 1 435 7 discriminator 3 view .LVU3130
ARM GAS  C:\Users\Antonio\AppData\Local\Temp\ccynTwLp.s 			page 249


 435:../../Middlewares/AI_Runtime/Npu/ll_aton/ll_aton.c **** #endif // !POOL_RC14
 8091              		.loc 1 435 7 discriminator 3 view .LVU3131
 435:../../Middlewares/AI_Runtime/Npu/ll_aton/ll_aton.c **** #endif // !POOL_RC14
 8092              		.loc 1 435 7 discriminator 3 view .LVU3132
 8093 00e8 0F4A     		ldr	r2, .L533+16
 8094 00ea 1A60     		str	r2, [r3]
 435:../../Middlewares/AI_Runtime/Npu/ll_aton/ll_aton.c **** #endif // !POOL_RC14
 8095              		.loc 1 435 7 discriminator 3 view .LVU3133
 435:../../Middlewares/AI_Runtime/Npu/ll_aton/ll_aton.c **** #endif // !POOL_RC14
 8096              		.loc 1 435 7 discriminator 3 view .LVU3134
 435:../../Middlewares/AI_Runtime/Npu/ll_aton/ll_aton.c **** #endif // !POOL_RC14
 8097              		.loc 1 435 7 discriminator 3 view .LVU3135
 435:../../Middlewares/AI_Runtime/Npu/ll_aton/ll_aton.c **** #endif // !POOL_RC14
 8098              		.loc 1 435 7 discriminator 3 view .LVU3136
 8099              	.L513:
 435:../../Middlewares/AI_Runtime/Npu/ll_aton/ll_aton.c **** #endif // !POOL_RC14
 8100              		.loc 1 435 7 discriminator 5 view .LVU3137
 435:../../Middlewares/AI_Runtime/Npu/ll_aton/ll_aton.c **** #endif // !POOL_RC14
 8101              		.loc 1 435 7 discriminator 5 view .LVU3138
 8102 00ec 1A68     		ldr	r2, [r3]
 8103 00ee 5200     		lsls	r2, r2, #1
 8104 00f0 FCD4     		bmi	.L513
 435:../../Middlewares/AI_Runtime/Npu/ll_aton/ll_aton.c **** #endif // !POOL_RC14
 8105              		.loc 1 435 7 discriminator 6 view .LVU3139
 435:../../Middlewares/AI_Runtime/Npu/ll_aton/ll_aton.c **** #endif // !POOL_RC14
 8106              		.loc 1 435 7 discriminator 6 view .LVU3140
 438:../../Middlewares/AI_Runtime/Npu/ll_aton/ll_aton.c ****       break;
 8107              		.loc 1 438 7 view .LVU3141
 8108 00f2 1630     		adds	r0, r0, #22
 8109              	.LVL932:
 438:../../Middlewares/AI_Runtime/Npu/ll_aton/ll_aton.c ****       break;
 8110              		.loc 1 438 7 is_stmt 0 view .LVU3142
 8111 00f4 A8E7     		b	.L532
 8112              	.LVL933:
 8113              	.L493:
 444:../../Middlewares/AI_Runtime/Npu/ll_aton/ll_aton.c ****       LL_ATON_DisableClock(ATON_RECBUF_CLKB_CLK(unitId));
 8114              		.loc 1 444 7 is_stmt 1 view .LVU3143
 444:../../Middlewares/AI_Runtime/Npu/ll_aton/ll_aton.c ****       LL_ATON_DisableClock(ATON_RECBUF_CLKB_CLK(unitId));
 8115              		.loc 1 444 7 view .LVU3144
 444:../../Middlewares/AI_Runtime/Npu/ll_aton/ll_aton.c ****       LL_ATON_DisableClock(ATON_RECBUF_CLKB_CLK(unitId));
 8116              		.loc 1 444 7 view .LVU3145
 444:../../Middlewares/AI_Runtime/Npu/ll_aton/ll_aton.c ****       LL_ATON_DisableClock(ATON_RECBUF_CLKB_CLK(unitId));
 8117              		.loc 1 444 7 view .LVU3146
 444:../../Middlewares/AI_Runtime/Npu/ll_aton/ll_aton.c ****       LL_ATON_DisableClock(ATON_RECBUF_CLKB_CLK(unitId));
 8118              		.loc 1 444 7 view .LVU3147
 444:../../Middlewares/AI_Runtime/Npu/ll_aton/ll_aton.c ****       LL_ATON_DisableClock(ATON_RECBUF_CLKB_CLK(unitId));
 8119              		.loc 1 444 7 view .LVU3148
 8120 00f6 0222     		movs	r2, #2
 8121 00f8 0C4B     		ldr	r3, .L533+20
 8122 00fa 1A60     		str	r2, [r3]
 8123              	.LVL934:
 444:../../Middlewares/AI_Runtime/Npu/ll_aton/ll_aton.c ****       LL_ATON_DisableClock(ATON_RECBUF_CLKB_CLK(unitId));
 8124              		.loc 1 444 7 view .LVU3149
 444:../../Middlewares/AI_Runtime/Npu/ll_aton/ll_aton.c ****       LL_ATON_DisableClock(ATON_RECBUF_CLKB_CLK(unitId));
 8125              		.loc 1 444 7 view .LVU3150
 444:../../Middlewares/AI_Runtime/Npu/ll_aton/ll_aton.c ****       LL_ATON_DisableClock(ATON_RECBUF_CLKB_CLK(unitId));
 8126              		.loc 1 444 7 view .LVU3151
ARM GAS  C:\Users\Antonio\AppData\Local\Temp\ccynTwLp.s 			page 250


 444:../../Middlewares/AI_Runtime/Npu/ll_aton/ll_aton.c ****       LL_ATON_DisableClock(ATON_RECBUF_CLKB_CLK(unitId));
 8127              		.loc 1 444 7 view .LVU3152
 8128              	.L514:
 444:../../Middlewares/AI_Runtime/Npu/ll_aton/ll_aton.c ****       LL_ATON_DisableClock(ATON_RECBUF_CLKB_CLK(unitId));
 8129              		.loc 1 444 7 discriminator 2 view .LVU3153
 444:../../Middlewares/AI_Runtime/Npu/ll_aton/ll_aton.c ****       LL_ATON_DisableClock(ATON_RECBUF_CLKB_CLK(unitId));
 8130              		.loc 1 444 7 discriminator 2 view .LVU3154
 8131 00fc 1A68     		ldr	r2, [r3]
 8132 00fe 9207     		lsls	r2, r2, #30
 8133 0100 FCD4     		bmi	.L514
 444:../../Middlewares/AI_Runtime/Npu/ll_aton/ll_aton.c ****       LL_ATON_DisableClock(ATON_RECBUF_CLKB_CLK(unitId));
 8134              		.loc 1 444 7 discriminator 3 view .LVU3155
 444:../../Middlewares/AI_Runtime/Npu/ll_aton/ll_aton.c ****       LL_ATON_DisableClock(ATON_RECBUF_CLKB_CLK(unitId));
 8135              		.loc 1 444 7 discriminator 3 view .LVU3156
 8136              	.LVL935:
 444:../../Middlewares/AI_Runtime/Npu/ll_aton/ll_aton.c ****       LL_ATON_DisableClock(ATON_RECBUF_CLKB_CLK(unitId));
 8137              		.loc 1 444 7 discriminator 3 view .LVU3157
 444:../../Middlewares/AI_Runtime/Npu/ll_aton/ll_aton.c ****       LL_ATON_DisableClock(ATON_RECBUF_CLKB_CLK(unitId));
 8138              		.loc 1 444 7 discriminator 3 view .LVU3158
 444:../../Middlewares/AI_Runtime/Npu/ll_aton/ll_aton.c ****       LL_ATON_DisableClock(ATON_RECBUF_CLKB_CLK(unitId));
 8139              		.loc 1 444 7 discriminator 3 view .LVU3159
 8140 0102 4FF08042 		mov	r2, #1073741824
 8141 0106 1A60     		str	r2, [r3]
 444:../../Middlewares/AI_Runtime/Npu/ll_aton/ll_aton.c ****       LL_ATON_DisableClock(ATON_RECBUF_CLKB_CLK(unitId));
 8142              		.loc 1 444 7 discriminator 3 view .LVU3160
 444:../../Middlewares/AI_Runtime/Npu/ll_aton/ll_aton.c ****       LL_ATON_DisableClock(ATON_RECBUF_CLKB_CLK(unitId));
 8143              		.loc 1 444 7 discriminator 3 view .LVU3161
 444:../../Middlewares/AI_Runtime/Npu/ll_aton/ll_aton.c ****       LL_ATON_DisableClock(ATON_RECBUF_CLKB_CLK(unitId));
 8144              		.loc 1 444 7 discriminator 3 view .LVU3162
 444:../../Middlewares/AI_Runtime/Npu/ll_aton/ll_aton.c ****       LL_ATON_DisableClock(ATON_RECBUF_CLKB_CLK(unitId));
 8145              		.loc 1 444 7 discriminator 3 view .LVU3163
 8146              	.L515:
 444:../../Middlewares/AI_Runtime/Npu/ll_aton/ll_aton.c ****       LL_ATON_DisableClock(ATON_RECBUF_CLKB_CLK(unitId));
 8147              		.loc 1 444 7 discriminator 5 view .LVU3164
 444:../../Middlewares/AI_Runtime/Npu/ll_aton/ll_aton.c ****       LL_ATON_DisableClock(ATON_RECBUF_CLKB_CLK(unitId));
 8148              		.loc 1 444 7 discriminator 5 view .LVU3165
 8149 0108 1A68     		ldr	r2, [r3]
 8150 010a 5200     		lsls	r2, r2, #1
 8151 010c FCD4     		bmi	.L515
 444:../../Middlewares/AI_Runtime/Npu/ll_aton/ll_aton.c ****       LL_ATON_DisableClock(ATON_RECBUF_CLKB_CLK(unitId));
 8152              		.loc 1 444 7 discriminator 6 view .LVU3166
 444:../../Middlewares/AI_Runtime/Npu/ll_aton/ll_aton.c ****       LL_ATON_DisableClock(ATON_RECBUF_CLKB_CLK(unitId));
 8153              		.loc 1 444 7 discriminator 6 view .LVU3167
 445:../../Middlewares/AI_Runtime/Npu/ll_aton/ll_aton.c ****       break;
 8154              		.loc 1 445 7 view .LVU3168
 8155 010e 1830     		adds	r0, r0, #24
 8156              	.LVL936:
 445:../../Middlewares/AI_Runtime/Npu/ll_aton/ll_aton.c ****       break;
 8157              		.loc 1 445 7 is_stmt 0 view .LVU3169
 8158 0110 9AE7     		b	.L532
 8159              	.LVL937:
 8160              	.L517:
 393:../../Middlewares/AI_Runtime/Npu/ll_aton/ll_aton.c ****     {
 8161              		.loc 1 393 5 view .LVU3170
 8162 0112 6FF00100 		mvn	r0, #1
 8163              	.LVL938:
 393:../../Middlewares/AI_Runtime/Npu/ll_aton/ll_aton.c ****     {
ARM GAS  C:\Users\Antonio\AppData\Local\Temp\ccynTwLp.s 			page 251


 8164              		.loc 1 393 5 view .LVU3171
 8165 0116 7AE7     		b	.L490
 8166              	.L534:
 8167              		.align	2
 8168              	.L533:
 8169 0118 82108800 		.word	8917122
 8170 011c 80108840 		.word	1082658944
 8171 0120 02000008 		.word	134217730
 8172 0124 02004200 		.word	4325378
 8173 0128 00004240 		.word	1078067200
 8174 012c 00D00F58 		.word	1477431296
 8175              		.cfi_endproc
 8176              	.LFE4825:
 8178              		.section	.text.LL_ATON_Dma_memcpy,"ax",%progbits
 8179              		.align	1
 8180              		.weak	LL_ATON_Dma_memcpy
 8181              		.syntax unified
 8182              		.thumb
 8183              		.thumb_func
 8185              	LL_ATON_Dma_memcpy:
 8186              	.LVL939:
 8187              	.LFB4854:
2505:../../Middlewares/AI_Runtime/Npu/ll_aton/ll_aton.c **** 
2506:../../Middlewares/AI_Runtime/Npu/ll_aton/ll_aton.c **** /**
2507:../../Middlewares/AI_Runtime/Npu/ll_aton/ll_aton.c ****  * @brief  DMA version of a memcpy functionality, this function could be overloaded if a system DMA
2508:../../Middlewares/AI_Runtime/Npu/ll_aton/ll_aton.c ****  * @param  dst destination memory address
2509:../../Middlewares/AI_Runtime/Npu/ll_aton/ll_aton.c ****  * @param  src source memory address
2510:../../Middlewares/AI_Runtime/Npu/ll_aton/ll_aton.c ****  * @param  src_limit memory pool end address of `src`
2511:../../Middlewares/AI_Runtime/Npu/ll_aton/ll_aton.c ****  * @param  n number of bytes to be transferred
2512:../../Middlewares/AI_Runtime/Npu/ll_aton/ll_aton.c ****  * @param dst_cached Destination under cache flag
2513:../../Middlewares/AI_Runtime/Npu/ll_aton/ll_aton.c ****  * @param dst_cached Source under cache flag
2514:../../Middlewares/AI_Runtime/Npu/ll_aton/ll_aton.c ****  * @retval Error code E.g.: Invalid ID, invalid parameters, not idle,..
2515:../../Middlewares/AI_Runtime/Npu/ll_aton/ll_aton.c ****  *
2516:../../Middlewares/AI_Runtime/Npu/ll_aton/ll_aton.c ****  * @note:  This function completely undermines any possibility for integrating correctly
2517:../../Middlewares/AI_Runtime/Npu/ll_aton/ll_aton.c ****  *         SW operators (or any other functionality which calls this function) in any of the three 
2518:../../Middlewares/AI_Runtime/Npu/ll_aton/ll_aton.c ****  * scheduling modes. In other words, function `LL_ATON_Dma_memcpy()` and its usage are incompatible
2519:../../Middlewares/AI_Runtime/Npu/ll_aton/ll_aton.c ****  * runtime. Therefore either `memcpy()` should be used in its place or calls to `LL_ATON_Dma_memcpy
2520:../../Middlewares/AI_Runtime/Npu/ll_aton/ll_aton.c ****  * transformed in a sequence of "epoch blocks" which can be integrated with the ATON runtime (as an
2521:../../Middlewares/AI_Runtime/Npu/ll_aton/ll_aton.c ****  * ATON-accelerated implementation of operator `Concat`)!
2522:../../Middlewares/AI_Runtime/Npu/ll_aton/ll_aton.c ****  */
2523:../../Middlewares/AI_Runtime/Npu/ll_aton/ll_aton.c **** /* N.B. assumes DMA0 and 1 are free to use */
2524:../../Middlewares/AI_Runtime/Npu/ll_aton/ll_aton.c **** #define MIN_BUFF_LEN 40
2525:../../Middlewares/AI_Runtime/Npu/ll_aton/ll_aton.c **** LL_ATON_WEAK void *LL_ATON_Dma_memcpy(void *dst, void *src, void *src_limit, size_t n, int dst_cach
2526:../../Middlewares/AI_Runtime/Npu/ll_aton/ll_aton.c **** {
 8188              		.loc 1 2526 1 is_stmt 1 view -0
 8189              		.cfi_startproc
 8190              		@ args = 8, pretend = 0, frame = 152
 8191              		@ frame_needed = 0, uses_anonymous_args = 0
2527:../../Middlewares/AI_Runtime/Npu/ll_aton/ll_aton.c ****   uint8_t *_dst_orig = dst;
 8192              		.loc 1 2527 3 view .LVU3173
2528:../../Middlewares/AI_Runtime/Npu/ll_aton/ll_aton.c **** 
2529:../../Middlewares/AI_Runtime/Npu/ll_aton/ll_aton.c ****   int prolog_len = (n % 3);
2530:../../Middlewares/AI_Runtime/Npu/ll_aton/ll_aton.c ****   int i;
2531:../../Middlewares/AI_Runtime/Npu/ll_aton/ll_aton.c ****   uint8_t *_dst = (uint8_t *)dst;
2532:../../Middlewares/AI_Runtime/Npu/ll_aton/ll_aton.c ****   uint8_t *_src = (uint8_t *)src;
2533:../../Middlewares/AI_Runtime/Npu/ll_aton/ll_aton.c **** 
2534:../../Middlewares/AI_Runtime/Npu/ll_aton/ll_aton.c ****   if (n < MIN_BUFF_LEN)
ARM GAS  C:\Users\Antonio\AppData\Local\Temp\ccynTwLp.s 			page 252


 8193              		.loc 1 2534 6 is_stmt 0 view .LVU3174
 8194 0000 272B     		cmp	r3, #39
2526:../../Middlewares/AI_Runtime/Npu/ll_aton/ll_aton.c ****   uint8_t *_dst_orig = dst;
 8195              		.loc 1 2526 1 view .LVU3175
 8196 0002 2DE9F047 		push	{r4, r5, r6, r7, r8, r9, r10, lr}
 8197              		.cfi_def_cfa_offset 32
 8198              		.cfi_offset 4, -32
 8199              		.cfi_offset 5, -28
 8200              		.cfi_offset 6, -24
 8201              		.cfi_offset 7, -20
 8202              		.cfi_offset 8, -16
 8203              		.cfi_offset 9, -12
 8204              		.cfi_offset 10, -8
 8205              		.cfi_offset 14, -4
 8206 0006 1C46     		mov	r4, r3
2529:../../Middlewares/AI_Runtime/Npu/ll_aton/ll_aton.c ****   int i;
 8207              		.loc 1 2529 23 view .LVU3176
 8208 0008 84BF     		itt	hi
 8209 000a 0324     		movhi	r4, #3
 8210 000c B3FBF4F4 		udivhi	r4, r3, r4
2526:../../Middlewares/AI_Runtime/Npu/ll_aton/ll_aton.c ****   uint8_t *_dst_orig = dst;
 8211              		.loc 1 2526 1 view .LVU3177
 8212 0010 9146     		mov	r9, r2
2535:../../Middlewares/AI_Runtime/Npu/ll_aton/ll_aton.c ****     prolog_len = n; // not worth it ...
2536:../../Middlewares/AI_Runtime/Npu/ll_aton/ll_aton.c ****   // LL_ATON_PRINTF("n=%d prolog=%d\n",n,prolog_len);
2537:../../Middlewares/AI_Runtime/Npu/ll_aton/ll_aton.c **** 
2538:../../Middlewares/AI_Runtime/Npu/ll_aton/ll_aton.c ****   for (i = 0; i < prolog_len; i++)
 8213              		.loc 1 2538 10 view .LVU3178
 8214 0012 4FF00002 		mov	r2, #0
 8215              	.LVL940:
2529:../../Middlewares/AI_Runtime/Npu/ll_aton/ll_aton.c ****   int i;
 8216              		.loc 1 2529 23 view .LVU3179
 8217 0016 84BF     		itt	hi
 8218 0018 04EB4404 		addhi	r4, r4, r4, lsl #1
 8219 001c 1C1B     		subhi	r4, r3, r4
 8220 001e 9442     		cmp	r4, r2
 8221 0020 04F1010C 		add	ip, r4, #1
2526:../../Middlewares/AI_Runtime/Npu/ll_aton/ll_aton.c ****   uint8_t *_dst_orig = dst;
 8222              		.loc 1 2526 1 view .LVU3180
 8223 0024 8046     		mov	r8, r0
 8224              	.LVL941:
2529:../../Middlewares/AI_Runtime/Npu/ll_aton/ll_aton.c ****   int i;
 8225              		.loc 1 2529 3 is_stmt 1 view .LVU3181
2530:../../Middlewares/AI_Runtime/Npu/ll_aton/ll_aton.c ****   uint8_t *_dst = (uint8_t *)dst;
 8226              		.loc 1 2530 3 view .LVU3182
2531:../../Middlewares/AI_Runtime/Npu/ll_aton/ll_aton.c ****   uint8_t *_src = (uint8_t *)src;
 8227              		.loc 1 2531 3 view .LVU3183
2532:../../Middlewares/AI_Runtime/Npu/ll_aton/ll_aton.c **** 
 8228              		.loc 1 2532 3 view .LVU3184
2526:../../Middlewares/AI_Runtime/Npu/ll_aton/ll_aton.c ****   uint8_t *_dst_orig = dst;
 8229              		.loc 1 2526 1 is_stmt 0 view .LVU3185
 8230 0026 8A46     		mov	r10, r1
 8231              	.LVL942:
2534:../../Middlewares/AI_Runtime/Npu/ll_aton/ll_aton.c ****     prolog_len = n; // not worth it ...
 8232              		.loc 1 2534 3 is_stmt 1 view .LVU3186
 8233              		.loc 1 2538 3 view .LVU3187
 8234              		.loc 1 2538 3 is_stmt 0 view .LVU3188
ARM GAS  C:\Users\Antonio\AppData\Local\Temp\ccynTwLp.s 			page 253


 8235 0028 B8BF     		it	lt
 8236 002a 4FF0010C 		movlt	ip, #1
2526:../../Middlewares/AI_Runtime/Npu/ll_aton/ll_aton.c ****   uint8_t *_dst_orig = dst;
 8237              		.loc 1 2526 1 view .LVU3189
 8238 002e A6B0     		sub	sp, sp, #152
 8239              		.cfi_def_cfa_offset 184
2526:../../Middlewares/AI_Runtime/Npu/ll_aton/ll_aton.c ****   uint8_t *_dst_orig = dst;
 8240              		.loc 1 2526 1 view .LVU3190
 8241 0030 2F9F     		ldr	r7, [sp, #188]
 8242              	.LVL943:
 8243              	.L537:
 8244              		.loc 1 2538 17 is_stmt 1 discriminator 1 view .LVU3191
 8245 0032 BCF1010C 		subs	ip, ip, #1
 8246 0036 73D1     		bne	.L538
2539:../../Middlewares/AI_Runtime/Npu/ll_aton/ll_aton.c ****     *_dst++ = *_src++;
2540:../../Middlewares/AI_Runtime/Npu/ll_aton/ll_aton.c ****   n -= prolog_len;
 8247              		.loc 1 2540 3 view .LVU3192
 8248              		.loc 1 2540 5 is_stmt 0 view .LVU3193
 8249 0038 1D1B     		subs	r5, r3, r4
 8250              	.LVL944:
2541:../../Middlewares/AI_Runtime/Npu/ll_aton/ll_aton.c **** 
2542:../../Middlewares/AI_Runtime/Npu/ll_aton/ll_aton.c ****   if (prolog_len > 0)
 8251              		.loc 1 2542 3 is_stmt 1 view .LVU3194
 8252              		.loc 1 2542 6 is_stmt 0 view .LVU3195
 8253 003a 24B1     		cbz	r4, .L539
2543:../../Middlewares/AI_Runtime/Npu/ll_aton/ll_aton.c ****   {
2544:../../Middlewares/AI_Runtime/Npu/ll_aton/ll_aton.c ****     /* *** MCU cache clean & invalidate operation (SW) *** */
2545:../../Middlewares/AI_Runtime/Npu/ll_aton/ll_aton.c ****     LL_ATON_Cache_MCU_Clean_Invalidate_Range(ATON_LIB_PHYSICAL_TO_VIRTUAL_ADDR((uintptr_t)_dst_orig
 8254              		.loc 1 2545 5 is_stmt 1 view .LVU3196
 8255              	.LVL945:
 8256              	.LBB168:
 8257              	.LBI168:
 8258              		.file 3 "../../Middlewares/AI_Runtime/Npu/ll_aton/ll_aton_caches_interface.h"
   1:../../Middlewares/AI_Runtime/Npu/ll_aton/ll_aton_caches_interface.h **** /**
   2:../../Middlewares/AI_Runtime/Npu/ll_aton/ll_aton_caches_interface.h ****  ******************************************************************************
   3:../../Middlewares/AI_Runtime/Npu/ll_aton/ll_aton_caches_interface.h ****  * @file    ll_aton_caches_interface.h
   4:../../Middlewares/AI_Runtime/Npu/ll_aton/ll_aton_caches_interface.h ****  * @author  SRA Artificial Intelligence & Embedded Architectures
   5:../../Middlewares/AI_Runtime/Npu/ll_aton/ll_aton_caches_interface.h ****  * @brief   Header file for defining an implementing generic cache handling
   6:../../Middlewares/AI_Runtime/Npu/ll_aton/ll_aton_caches_interface.h ****  *          functions for the application writer
   7:../../Middlewares/AI_Runtime/Npu/ll_aton/ll_aton_caches_interface.h ****  ******************************************************************************
   8:../../Middlewares/AI_Runtime/Npu/ll_aton/ll_aton_caches_interface.h ****  * @attention
   9:../../Middlewares/AI_Runtime/Npu/ll_aton/ll_aton_caches_interface.h ****  *
  10:../../Middlewares/AI_Runtime/Npu/ll_aton/ll_aton_caches_interface.h ****  * Copyright (c) 2024 STMicroelectronics.
  11:../../Middlewares/AI_Runtime/Npu/ll_aton/ll_aton_caches_interface.h ****  * All rights reserved.
  12:../../Middlewares/AI_Runtime/Npu/ll_aton/ll_aton_caches_interface.h ****  *
  13:../../Middlewares/AI_Runtime/Npu/ll_aton/ll_aton_caches_interface.h ****  * This software is licensed under terms that can be found in the LICENSE file
  14:../../Middlewares/AI_Runtime/Npu/ll_aton/ll_aton_caches_interface.h ****  * in the root directory of this software component.
  15:../../Middlewares/AI_Runtime/Npu/ll_aton/ll_aton_caches_interface.h ****  * If no LICENSE file comes with this software, it is provided AS-IS.
  16:../../Middlewares/AI_Runtime/Npu/ll_aton/ll_aton_caches_interface.h ****  *
  17:../../Middlewares/AI_Runtime/Npu/ll_aton/ll_aton_caches_interface.h ****  ******************************************************************************
  18:../../Middlewares/AI_Runtime/Npu/ll_aton/ll_aton_caches_interface.h ****  */
  19:../../Middlewares/AI_Runtime/Npu/ll_aton/ll_aton_caches_interface.h **** 
  20:../../Middlewares/AI_Runtime/Npu/ll_aton/ll_aton_caches_interface.h **** #ifndef __LL_ATON_CACHES_H
  21:../../Middlewares/AI_Runtime/Npu/ll_aton/ll_aton_caches_interface.h **** #define __LL_ATON_CACHES_H
  22:../../Middlewares/AI_Runtime/Npu/ll_aton/ll_aton_caches_interface.h **** 
  23:../../Middlewares/AI_Runtime/Npu/ll_aton/ll_aton_caches_interface.h **** #include <stdint.h>
  24:../../Middlewares/AI_Runtime/Npu/ll_aton/ll_aton_caches_interface.h **** 
ARM GAS  C:\Users\Antonio\AppData\Local\Temp\ccynTwLp.s 			page 254


  25:../../Middlewares/AI_Runtime/Npu/ll_aton/ll_aton_caches_interface.h **** #include "ll_aton_osal.h"
  26:../../Middlewares/AI_Runtime/Npu/ll_aton/ll_aton_caches_interface.h **** #include "ll_aton_platform.h"
  27:../../Middlewares/AI_Runtime/Npu/ll_aton/ll_aton_caches_interface.h **** 
  28:../../Middlewares/AI_Runtime/Npu/ll_aton/ll_aton_caches_interface.h **** #ifdef __cplusplus
  29:../../Middlewares/AI_Runtime/Npu/ll_aton/ll_aton_caches_interface.h **** extern "C"
  30:../../Middlewares/AI_Runtime/Npu/ll_aton/ll_aton_caches_interface.h **** {
  31:../../Middlewares/AI_Runtime/Npu/ll_aton/ll_aton_caches_interface.h **** #endif
  32:../../Middlewares/AI_Runtime/Npu/ll_aton/ll_aton_caches_interface.h **** 
  33:../../Middlewares/AI_Runtime/Npu/ll_aton/ll_aton_caches_interface.h **** #if (LL_ATON_PLATFORM == LL_ATON_PLAT_STM32N6)
  34:../../Middlewares/AI_Runtime/Npu/ll_aton/ll_aton_caches_interface.h **** 
  35:../../Middlewares/AI_Runtime/Npu/ll_aton/ll_aton_caches_interface.h ****   /*
  36:../../Middlewares/AI_Runtime/Npu/ll_aton/ll_aton_caches_interface.h ****    * Note: For relocatable mode, the fcts are implemented in the ll_aton_reloc_callbacks.c.
  37:../../Middlewares/AI_Runtime/Npu/ll_aton/ll_aton_caches_interface.h ****    *       Only the declaration is requested here, to avoid to inline them the relocatable binary m
  38:../../Middlewares/AI_Runtime/Npu/ll_aton/ll_aton_caches_interface.h ****    */
  39:../../Middlewares/AI_Runtime/Npu/ll_aton/ll_aton_caches_interface.h **** 
  40:../../Middlewares/AI_Runtime/Npu/ll_aton/ll_aton_caches_interface.h **** /*** MCU cache maintenance functions ***/
  41:../../Middlewares/AI_Runtime/Npu/ll_aton/ll_aton_caches_interface.h **** 
  42:../../Middlewares/AI_Runtime/Npu/ll_aton/ll_aton_caches_interface.h **** /**
  43:../../Middlewares/AI_Runtime/Npu/ll_aton/ll_aton_caches_interface.h ****  * @brief perform MCU cache clean maintenance operation on an address range
  44:../../Middlewares/AI_Runtime/Npu/ll_aton/ll_aton_caches_interface.h ****  * @details whenever the content of a buffer is changed by the application (which is especially the
  45:../../Middlewares/AI_Runtime/Npu/ll_aton/ll_aton_caches_interface.h ****  *          buffers) cache maintenance MUST be taken into account before being able to run the netw
  46:../../Middlewares/AI_Runtime/Npu/ll_aton/ll_aton_caches_interface.h ****  * @param[in] virtual_addr start address (host-side/virtual) of address range
  47:../../Middlewares/AI_Runtime/Npu/ll_aton/ll_aton_caches_interface.h ****  * @param[in] size size of address range
  48:../../Middlewares/AI_Runtime/Npu/ll_aton/ll_aton_caches_interface.h ****  *
  49:../../Middlewares/AI_Runtime/Npu/ll_aton/ll_aton_caches_interface.h ****  * @note the address range should fulfill alignment constraints with respect to the MCU cache line 
  50:../../Middlewares/AI_Runtime/Npu/ll_aton/ll_aton_caches_interface.h ****  *       for both its `address` & `size` (to better correspond to what this operation will actually
  51:../../Middlewares/AI_Runtime/Npu/ll_aton/ll_aton_caches_interface.h ****  * @note this function is intended to handle the case where a buffer has been filled by the MCU/pro
  52:../../Middlewares/AI_Runtime/Npu/ll_aton/ll_aton_caches_interface.h ****  *       passing thru the MCU cache) and should be called AFTER that the buffer has been filled
  53:../../Middlewares/AI_Runtime/Npu/ll_aton/ll_aton_caches_interface.h ****  */
  54:../../Middlewares/AI_Runtime/Npu/ll_aton/ll_aton_caches_interface.h **** #if defined(LL_ATON_RT_RELOC) && defined(BUILD_AI_NETWORK_RELOC)
  55:../../Middlewares/AI_Runtime/Npu/ll_aton/ll_aton_caches_interface.h ****   void LL_ATON_Cache_MCU_Clean_Range(uintptr_t virtual_addr, uint32_t size);
  56:../../Middlewares/AI_Runtime/Npu/ll_aton/ll_aton_caches_interface.h **** #else
  57:../../Middlewares/AI_Runtime/Npu/ll_aton/ll_aton_caches_interface.h ****   static inline void LL_ATON_Cache_MCU_Clean_Range(uintptr_t virtual_addr, uint32_t size)
  58:../../Middlewares/AI_Runtime/Npu/ll_aton/ll_aton_caches_interface.h ****   {
  59:../../Middlewares/AI_Runtime/Npu/ll_aton/ll_aton_caches_interface.h ****     LL_ATON_OSAL_LOCK_MCU_CACHE();
  60:../../Middlewares/AI_Runtime/Npu/ll_aton/ll_aton_caches_interface.h ****     mcu_cache_clean_range(virtual_addr, virtual_addr + size);
  61:../../Middlewares/AI_Runtime/Npu/ll_aton/ll_aton_caches_interface.h ****     LL_ATON_OSAL_UNLOCK_MCU_CACHE();
  62:../../Middlewares/AI_Runtime/Npu/ll_aton/ll_aton_caches_interface.h ****   }
  63:../../Middlewares/AI_Runtime/Npu/ll_aton/ll_aton_caches_interface.h **** #endif
  64:../../Middlewares/AI_Runtime/Npu/ll_aton/ll_aton_caches_interface.h **** 
  65:../../Middlewares/AI_Runtime/Npu/ll_aton/ll_aton_caches_interface.h **** /**
  66:../../Middlewares/AI_Runtime/Npu/ll_aton/ll_aton_caches_interface.h ****  * @brief perform MCU cache invalidate maintenance operation on an address range
  67:../../Middlewares/AI_Runtime/Npu/ll_aton/ll_aton_caches_interface.h ****  * @details whenever the content of a buffer is changed by the application (which is especially the
  68:../../Middlewares/AI_Runtime/Npu/ll_aton/ll_aton_caches_interface.h ****  *          buffers) cache maintenance MUST be taken into account before being able to run the netw
  69:../../Middlewares/AI_Runtime/Npu/ll_aton/ll_aton_caches_interface.h ****  * @param[in] virtual_addr start address (host-side/virtual) of address range
  70:../../Middlewares/AI_Runtime/Npu/ll_aton/ll_aton_caches_interface.h ****  * @param[in] size size of address range
  71:../../Middlewares/AI_Runtime/Npu/ll_aton/ll_aton_caches_interface.h ****  *
  72:../../Middlewares/AI_Runtime/Npu/ll_aton/ll_aton_caches_interface.h ****  * @note the address range should fulfill alignment constraints with respect to the MCU cache line 
  73:../../Middlewares/AI_Runtime/Npu/ll_aton/ll_aton_caches_interface.h ****  *       for both its `address` & `size` (to better correspond to what this operation will actually
  74:../../Middlewares/AI_Runtime/Npu/ll_aton/ll_aton_caches_interface.h ****  * @note this function is intended to handle the case where a buffer has been filled by-passing the
  75:../../Middlewares/AI_Runtime/Npu/ll_aton/ll_aton_caches_interface.h ****  *       cache (e.g. using a DMA) and should be called BEFORE the buffer gets filled
  76:../../Middlewares/AI_Runtime/Npu/ll_aton/ll_aton_caches_interface.h ****  */
  77:../../Middlewares/AI_Runtime/Npu/ll_aton/ll_aton_caches_interface.h **** #if defined(LL_ATON_RT_RELOC) && defined(BUILD_AI_NETWORK_RELOC)
  78:../../Middlewares/AI_Runtime/Npu/ll_aton/ll_aton_caches_interface.h ****   void LL_ATON_Cache_MCU_Invalidate_Range(uintptr_t virtual_addr, uint32_t size);
  79:../../Middlewares/AI_Runtime/Npu/ll_aton/ll_aton_caches_interface.h **** #else
  80:../../Middlewares/AI_Runtime/Npu/ll_aton/ll_aton_caches_interface.h ****   static inline void LL_ATON_Cache_MCU_Invalidate_Range(uintptr_t virtual_addr, uint32_t size)
  81:../../Middlewares/AI_Runtime/Npu/ll_aton/ll_aton_caches_interface.h ****   {
ARM GAS  C:\Users\Antonio\AppData\Local\Temp\ccynTwLp.s 			page 255


  82:../../Middlewares/AI_Runtime/Npu/ll_aton/ll_aton_caches_interface.h ****     LL_ATON_OSAL_LOCK_MCU_CACHE();
  83:../../Middlewares/AI_Runtime/Npu/ll_aton/ll_aton_caches_interface.h ****     mcu_cache_invalidate_range(virtual_addr, virtual_addr + size);
  84:../../Middlewares/AI_Runtime/Npu/ll_aton/ll_aton_caches_interface.h ****     LL_ATON_OSAL_UNLOCK_MCU_CACHE();
  85:../../Middlewares/AI_Runtime/Npu/ll_aton/ll_aton_caches_interface.h ****   }
  86:../../Middlewares/AI_Runtime/Npu/ll_aton/ll_aton_caches_interface.h **** #endif
  87:../../Middlewares/AI_Runtime/Npu/ll_aton/ll_aton_caches_interface.h **** 
  88:../../Middlewares/AI_Runtime/Npu/ll_aton/ll_aton_caches_interface.h **** /**
  89:../../Middlewares/AI_Runtime/Npu/ll_aton/ll_aton_caches_interface.h ****  * @brief perform MCU cache clean & invalidate maintenance operation on an address range
  90:../../Middlewares/AI_Runtime/Npu/ll_aton/ll_aton_caches_interface.h ****  * @details whenever the content of a buffer is changed by the application (which is especially the
  91:../../Middlewares/AI_Runtime/Npu/ll_aton/ll_aton_caches_interface.h ****  *          buffers) cache maintenance MUST be taken into account before being able to run the netw
  92:../../Middlewares/AI_Runtime/Npu/ll_aton/ll_aton_caches_interface.h ****  * @param[in] virtual_addr start address (host-side/virtual) of address range
  93:../../Middlewares/AI_Runtime/Npu/ll_aton/ll_aton_caches_interface.h ****  * @param[in] size size of address range
  94:../../Middlewares/AI_Runtime/Npu/ll_aton/ll_aton_caches_interface.h ****  *
  95:../../Middlewares/AI_Runtime/Npu/ll_aton/ll_aton_caches_interface.h ****  * @note the address range should fulfill alignment constraints with respect to the MCU cache line 
  96:../../Middlewares/AI_Runtime/Npu/ll_aton/ll_aton_caches_interface.h ****  *       for both its `address` & `size` (to better correspond to what this operation will actually
  97:../../Middlewares/AI_Runtime/Npu/ll_aton/ll_aton_caches_interface.h ****  * @note this function is intended to handle the case where a buffer has been filled by the MCU/pro
  98:../../Middlewares/AI_Runtime/Npu/ll_aton/ll_aton_caches_interface.h ****  *       (such passing thru the MCU cache) and is gonna to be modified immediately afterwards by-pa
  99:../../Middlewares/AI_Runtime/Npu/ll_aton/ll_aton_caches_interface.h ****  *       the MCU/processor cache (e.g. using a DMA). It should be called AFTER that the buffer has 
 100:../../Middlewares/AI_Runtime/Npu/ll_aton/ll_aton_caches_interface.h ****  *       filled
 101:../../Middlewares/AI_Runtime/Npu/ll_aton/ll_aton_caches_interface.h ****  */
 102:../../Middlewares/AI_Runtime/Npu/ll_aton/ll_aton_caches_interface.h **** #if defined(LL_ATON_RT_RELOC) && defined(BUILD_AI_NETWORK_RELOC)
 103:../../Middlewares/AI_Runtime/Npu/ll_aton/ll_aton_caches_interface.h ****   void LL_ATON_Cache_MCU_Clean_Invalidate_Range(uintptr_t virtual_addr, uint32_t size);
 104:../../Middlewares/AI_Runtime/Npu/ll_aton/ll_aton_caches_interface.h **** #else
 105:../../Middlewares/AI_Runtime/Npu/ll_aton/ll_aton_caches_interface.h ****   static inline void LL_ATON_Cache_MCU_Clean_Invalidate_Range(uintptr_t virtual_addr, uint32_t size
 8259              		.loc 3 105 22 view .LVU3197
 8260              	.LBB169:
 106:../../Middlewares/AI_Runtime/Npu/ll_aton/ll_aton_caches_interface.h ****   {
 107:../../Middlewares/AI_Runtime/Npu/ll_aton/ll_aton_caches_interface.h ****     LL_ATON_OSAL_LOCK_MCU_CACHE();
 8261              		.loc 3 107 34 view .LVU3198
 108:../../Middlewares/AI_Runtime/Npu/ll_aton/ll_aton_caches_interface.h ****     mcu_cache_clean_invalidate_range(virtual_addr, virtual_addr + size);
 8262              		.loc 3 108 5 view .LVU3199
 8263 003c 4046     		mov	r0, r8
 8264              	.LVL946:
 8265              		.loc 3 108 5 is_stmt 0 view .LVU3200
 8266 003e 08EB0401 		add	r1, r8, r4
 8267 0042 FFF7FEFF 		bl	mcu_cache_clean_invalidate_range
 8268              	.LVL947:
 109:../../Middlewares/AI_Runtime/Npu/ll_aton/ll_aton_caches_interface.h ****     LL_ATON_OSAL_UNLOCK_MCU_CACHE();
 8269              		.loc 3 109 36 is_stmt 1 view .LVU3201
 8270              	.L539:
 8271              		.loc 3 109 36 is_stmt 0 view .LVU3202
 8272              	.LBE169:
 8273              	.LBE168:
2546:../../Middlewares/AI_Runtime/Npu/ll_aton/ll_aton.c ****   }
2547:../../Middlewares/AI_Runtime/Npu/ll_aton/ll_aton.c **** 
2548:../../Middlewares/AI_Runtime/Npu/ll_aton/ll_aton.c ****   if (n > 0)
 8274              		.loc 1 2548 3 is_stmt 1 view .LVU3203
 8275              		.loc 1 2548 6 is_stmt 0 view .LVU3204
 8276 0046 002D     		cmp	r5, #0
 8277 0048 66D0     		beq	.L540
 8278              	.LBB170:
2549:../../Middlewares/AI_Runtime/Npu/ll_aton/ll_aton.c ****   {
2550:../../Middlewares/AI_Runtime/Npu/ll_aton/ll_aton.c ****     LL_Streng_TensorInitTypeDef dma_in = {
 8279              		.loc 1 2550 5 is_stmt 1 view .LVU3205
 8280              		.loc 1 2550 33 is_stmt 0 view .LVU3206
 8281 004a 4022     		movs	r2, #64
 8282 004c 0021     		movs	r1, #0
ARM GAS  C:\Users\Antonio\AppData\Local\Temp\ccynTwLp.s 			page 256


 8283 004e 06A8     		add	r0, sp, #24
 8284 0050 FFF7FEFF 		bl	memset
 8285              	.LVL948:
 8286 0054 0223     		movs	r3, #2
 8287 0056 8DF81830 		strb	r3, [sp, #24]
 8288 005a 0AEB0403 		add	r3, r10, r4
 8289 005e 0126     		movs	r6, #1
 8290 0060 0793     		str	r3, [sp, #28]
2551:../../Middlewares/AI_Runtime/Npu/ll_aton/ll_aton.c ****         .dir = 0,
2552:../../Middlewares/AI_Runtime/Npu/ll_aton/ll_aton.c ****         .addr_base = {_src},
2553:../../Middlewares/AI_Runtime/Npu/ll_aton/ll_aton.c ****         .offset_start = 0,
2554:../../Middlewares/AI_Runtime/Npu/ll_aton/ll_aton.c ****         .offset_end = n,
2555:../../Middlewares/AI_Runtime/Npu/ll_aton/ll_aton.c ****         .offset_limit = ((uintptr_t)src_limit - (uintptr_t)src), // awful FIXME Francesco
 8291              		.loc 1 2555 47 view .LVU3207
 8292 0062 A9EB0A03 		sub	r3, r9, r10
2550:../../Middlewares/AI_Runtime/Npu/ll_aton/ll_aton.c ****         .dir = 0,
 8293              		.loc 1 2550 33 view .LVU3208
 8294 0066 41F61809 		movw	r9, #6168
 8295              	.LVL949:
2556:../../Middlewares/AI_Runtime/Npu/ll_aton/ll_aton.c ****         .raw = 1,
2557:../../Middlewares/AI_Runtime/Npu/ll_aton/ll_aton.c ****         .frame_count = 0,
2558:../../Middlewares/AI_Runtime/Npu/ll_aton/ll_aton.c ****         .fwidth = 0,
2559:../../Middlewares/AI_Runtime/Npu/ll_aton/ll_aton.c ****         .fheight = 0,
2560:../../Middlewares/AI_Runtime/Npu/ll_aton/ll_aton.c ****         .batch_depth = 0,
2561:../../Middlewares/AI_Runtime/Npu/ll_aton/ll_aton.c ****         .batch_offset = 0,
2562:../../Middlewares/AI_Runtime/Npu/ll_aton/ll_aton.c ****         .frame_offset = n,
2563:../../Middlewares/AI_Runtime/Npu/ll_aton/ll_aton.c ****         .line_offset = 0,
2564:../../Middlewares/AI_Runtime/Npu/ll_aton/ll_aton.c ****         .loop_offset = 0,
2565:../../Middlewares/AI_Runtime/Npu/ll_aton/ll_aton.c ****         .frame_loop_cnt = 0,
2566:../../Middlewares/AI_Runtime/Npu/ll_aton/ll_aton.c ****         .frame_tot_cnt = 1,
2567:../../Middlewares/AI_Runtime/Npu/ll_aton/ll_aton.c ****         .nbits_in = 24,
2568:../../Middlewares/AI_Runtime/Npu/ll_aton/ll_aton.c ****         .nbits_out = 24,
2569:../../Middlewares/AI_Runtime/Npu/ll_aton/ll_aton.c ****         .nbits_unsigned = 0,
2570:../../Middlewares/AI_Runtime/Npu/ll_aton/ll_aton.c ****         .align_right = 0,
2571:../../Middlewares/AI_Runtime/Npu/ll_aton/ll_aton.c ****         .noblk = 0,
2572:../../Middlewares/AI_Runtime/Npu/ll_aton/ll_aton.c ****     };
2573:../../Middlewares/AI_Runtime/Npu/ll_aton/ll_aton.c **** 
2574:../../Middlewares/AI_Runtime/Npu/ll_aton/ll_aton.c ****     LL_Streng_TensorInitTypeDef dma_out = {
 8296              		.loc 1 2574 33 view .LVU3209
 8297 006a 4022     		movs	r2, #64
 8298 006c 0021     		movs	r1, #0
 8299 006e 16A8     		add	r0, sp, #88
2550:../../Middlewares/AI_Runtime/Npu/ll_aton/ll_aton.c ****         .dir = 0,
 8300              		.loc 1 2550 33 view .LVU3210
 8301 0070 0A93     		str	r3, [sp, #40]
 8302 0072 0995     		str	r5, [sp, #36]
 8303 0074 1095     		str	r5, [sp, #64]
 8304 0076 1496     		str	r6, [sp, #80]
 8305 0078 ADF85490 		strh	r9, [sp, #84]	@ movhi
 8306              		.loc 1 2574 5 is_stmt 1 view .LVU3211
 8307              		.loc 1 2574 33 is_stmt 0 view .LVU3212
 8308 007c FFF7FEFF 		bl	memset
 8309              	.LVL950:
 8310 0080 0323     		movs	r3, #3
 8311 0082 4444     		add	r4, r4, r8
 8312              	.LVL951:
 8313              		.loc 1 2574 33 view .LVU3213
ARM GAS  C:\Users\Antonio\AppData\Local\Temp\ccynTwLp.s 			page 257


 8314 0084 8DF85830 		strb	r3, [sp, #88]
 8315 0088 1794     		str	r4, [sp, #92]
 8316 008a 1995     		str	r5, [sp, #100]
 8317 008c 2095     		str	r5, [sp, #128]
 8318 008e 2496     		str	r6, [sp, #144]
 8319 0090 ADF89490 		strh	r9, [sp, #148]	@ movhi
2575:../../Middlewares/AI_Runtime/Npu/ll_aton/ll_aton.c ****         .dir = 1,
2576:../../Middlewares/AI_Runtime/Npu/ll_aton/ll_aton.c ****         .addr_base = {_dst},
2577:../../Middlewares/AI_Runtime/Npu/ll_aton/ll_aton.c ****         .offset_start = 0,
2578:../../Middlewares/AI_Runtime/Npu/ll_aton/ll_aton.c ****         .offset_end = n,
2579:../../Middlewares/AI_Runtime/Npu/ll_aton/ll_aton.c ****         .raw = 1,
2580:../../Middlewares/AI_Runtime/Npu/ll_aton/ll_aton.c ****         .frame_count = 0,
2581:../../Middlewares/AI_Runtime/Npu/ll_aton/ll_aton.c ****         .fwidth = 0,
2582:../../Middlewares/AI_Runtime/Npu/ll_aton/ll_aton.c ****         .fheight = 0,
2583:../../Middlewares/AI_Runtime/Npu/ll_aton/ll_aton.c ****         .batch_depth = 0,
2584:../../Middlewares/AI_Runtime/Npu/ll_aton/ll_aton.c ****         .batch_offset = 0,
2585:../../Middlewares/AI_Runtime/Npu/ll_aton/ll_aton.c ****         .frame_offset = n,
2586:../../Middlewares/AI_Runtime/Npu/ll_aton/ll_aton.c ****         .line_offset = 0,
2587:../../Middlewares/AI_Runtime/Npu/ll_aton/ll_aton.c ****         .loop_offset = 0,
2588:../../Middlewares/AI_Runtime/Npu/ll_aton/ll_aton.c ****         .frame_loop_cnt = 0,
2589:../../Middlewares/AI_Runtime/Npu/ll_aton/ll_aton.c ****         .frame_tot_cnt = 1,
2590:../../Middlewares/AI_Runtime/Npu/ll_aton/ll_aton.c ****         .nbits_in = 24,
2591:../../Middlewares/AI_Runtime/Npu/ll_aton/ll_aton.c ****         .nbits_out = 24,
2592:../../Middlewares/AI_Runtime/Npu/ll_aton/ll_aton.c ****         .nbits_unsigned = 0,
2593:../../Middlewares/AI_Runtime/Npu/ll_aton/ll_aton.c ****         .align_right = 0,
2594:../../Middlewares/AI_Runtime/Npu/ll_aton/ll_aton.c ****         .noblk = 0,
2595:../../Middlewares/AI_Runtime/Npu/ll_aton/ll_aton.c ****     };
2596:../../Middlewares/AI_Runtime/Npu/ll_aton/ll_aton.c **** 
2597:../../Middlewares/AI_Runtime/Npu/ll_aton/ll_aton.c ****     if (src_cached)
 8320              		.loc 1 2597 5 is_stmt 1 view .LVU3214
 8321              		.loc 1 2597 8 is_stmt 0 view .LVU3215
 8322 0094 3FB1     		cbz	r7, .L541
2598:../../Middlewares/AI_Runtime/Npu/ll_aton/ll_aton.c ****     {
2599:../../Middlewares/AI_Runtime/Npu/ll_aton/ll_aton.c ****       dma_in.cacheable = 1;
 8323              		.loc 1 2599 7 is_stmt 1 view .LVU3216
2600:../../Middlewares/AI_Runtime/Npu/ll_aton/ll_aton.c ****       dma_in.cache_allocate = 1;
 8324              		.loc 1 2600 7 view .LVU3217
2599:../../Middlewares/AI_Runtime/Npu/ll_aton/ll_aton.c ****       dma_in.cache_allocate = 1;
 8325              		.loc 1 2599 24 is_stmt 0 view .LVU3218
 8326 0096 9DF81930 		ldrb	r3, [sp, #25]	@ zero_extendqisi2
 8327 009a 23F06003 		bic	r3, r3, #96
 8328 009e 43F06003 		orr	r3, r3, #96
 8329 00a2 8DF81930 		strb	r3, [sp, #25]
 8330              	.L541:
2601:../../Middlewares/AI_Runtime/Npu/ll_aton/ll_aton.c ****     }
2602:../../Middlewares/AI_Runtime/Npu/ll_aton/ll_aton.c **** 
2603:../../Middlewares/AI_Runtime/Npu/ll_aton/ll_aton.c ****     if (dst_cached)
 8331              		.loc 1 2603 5 is_stmt 1 view .LVU3219
 8332              		.loc 1 2603 8 is_stmt 0 view .LVU3220
 8333 00a6 2E9B     		ldr	r3, [sp, #184]
 8334 00a8 3BB1     		cbz	r3, .L542
2604:../../Middlewares/AI_Runtime/Npu/ll_aton/ll_aton.c ****     {
2605:../../Middlewares/AI_Runtime/Npu/ll_aton/ll_aton.c ****       dma_out.cacheable = 1;
 8335              		.loc 1 2605 7 is_stmt 1 view .LVU3221
2606:../../Middlewares/AI_Runtime/Npu/ll_aton/ll_aton.c ****       dma_out.cache_allocate = 1;
 8336              		.loc 1 2606 7 view .LVU3222
2605:../../Middlewares/AI_Runtime/Npu/ll_aton/ll_aton.c ****       dma_out.cache_allocate = 1;
ARM GAS  C:\Users\Antonio\AppData\Local\Temp\ccynTwLp.s 			page 258


 8337              		.loc 1 2605 25 is_stmt 0 view .LVU3223
 8338 00aa 9DF85930 		ldrb	r3, [sp, #89]	@ zero_extendqisi2
 8339 00ae 23F06003 		bic	r3, r3, #96
 8340 00b2 43F06003 		orr	r3, r3, #96
 8341 00b6 8DF85930 		strb	r3, [sp, #89]
 8342              	.L542:
2607:../../Middlewares/AI_Runtime/Npu/ll_aton/ll_aton.c ****     }
2608:../../Middlewares/AI_Runtime/Npu/ll_aton/ll_aton.c **** 
2609:../../Middlewares/AI_Runtime/Npu/ll_aton/ll_aton.c ****     const LL_Switch_InitTypeDef switch_init = {LL_Switch_Init_Dest() = ATONN_DSTPORT(STRSWITCH, 0, 
 8343              		.loc 1 2609 5 is_stmt 1 view .LVU3224
 8344              		.loc 1 2609 33 is_stmt 0 view .LVU3225
 8345 00ba 1022     		movs	r2, #16
 8346 00bc 0021     		movs	r1, #0
 8347 00be 02A8     		add	r0, sp, #8
 8348 00c0 FFF7FEFF 		bl	memset
 8349              	.LVL952:
 8350 00c4 0C23     		movs	r3, #12
 8351 00c6 0493     		str	r3, [sp, #16]
 8352 00c8 0123     		movs	r3, #1
2610:../../Middlewares/AI_Runtime/Npu/ll_aton/ll_aton.c ****                                                LL_Switch_Init_Source(0) = ATONN_SRCPORT(STRSWITCH, 
2611:../../Middlewares/AI_Runtime/Npu/ll_aton/ll_aton.c ****                                                LL_Switch_Init_Context(0) = 1, LL_Switch_Init_Frames
2612:../../Middlewares/AI_Runtime/Npu/ll_aton/ll_aton.c ****     const LL_ATON_EnableUnits_InitTypeDef dma_units[] = {{{STRENG, 1}}, {{STRENG, 0}}};
 8353              		.loc 1 2612 43 view .LVU3226
 8354 00ca 0020     		movs	r0, #0
 8355 00cc 1C46     		mov	r4, r3
2613:../../Middlewares/AI_Runtime/Npu/ll_aton/ll_aton.c ****     const uint32_t dma_wait_mask = 0x2;
2614:../../Middlewares/AI_Runtime/Npu/ll_aton/ll_aton.c **** 
2615:../../Middlewares/AI_Runtime/Npu/ll_aton/ll_aton.c ****     LL_Streng_TensorInit(0, &dma_in, 1);
 8356              		.loc 1 2615 5 view .LVU3227
 8357 00ce 1A46     		mov	r2, r3
 8358 00d0 06A9     		add	r1, sp, #24
2609:../../Middlewares/AI_Runtime/Npu/ll_aton/ll_aton.c ****                                                LL_Switch_Init_Source(0) = ATONN_SRCPORT(STRSWITCH, 
 8359              		.loc 1 2609 33 view .LVU3228
 8360 00d2 8DF81630 		strb	r3, [sp, #22]
2612:../../Middlewares/AI_Runtime/Npu/ll_aton/ll_aton.c ****     const uint32_t dma_wait_mask = 0x2;
 8361              		.loc 1 2612 5 is_stmt 1 view .LVU3229
2612:../../Middlewares/AI_Runtime/Npu/ll_aton/ll_aton.c ****     const uint32_t dma_wait_mask = 0x2;
 8362              		.loc 1 2612 43 is_stmt 0 view .LVU3230
 8363 00d6 ADF80230 		strh	r3, [sp, #2]	@ movhi
 8364 00da 8DF80000 		strb	r0, [sp]
 8365 00de 8DF80400 		strb	r0, [sp, #4]
 8366 00e2 ADF80600 		strh	r0, [sp, #6]	@ movhi
2613:../../Middlewares/AI_Runtime/Npu/ll_aton/ll_aton.c ****     const uint32_t dma_wait_mask = 0x2;
 8367              		.loc 1 2613 5 is_stmt 1 view .LVU3231
 8368              	.LVL953:
 8369              		.loc 1 2615 5 view .LVU3232
 8370 00e6 FFF7FEFF 		bl	LL_Streng_TensorInit
 8371              	.LVL954:
2616:../../Middlewares/AI_Runtime/Npu/ll_aton/ll_aton.c ****     LL_Streng_TensorInit(1, &dma_out, 1);
 8372              		.loc 1 2616 5 view .LVU3233
 8373 00ea 2246     		mov	r2, r4
 8374 00ec 16A9     		add	r1, sp, #88
 8375 00ee 2046     		mov	r0, r4
 8376 00f0 FFF7FEFF 		bl	LL_Streng_TensorInit
 8377              	.LVL955:
2617:../../Middlewares/AI_Runtime/Npu/ll_aton/ll_aton.c ****     LL_Switch_Init(&switch_init, 1);
 8378              		.loc 1 2617 5 view .LVU3234
ARM GAS  C:\Users\Antonio\AppData\Local\Temp\ccynTwLp.s 			page 259


 8379 00f4 2146     		mov	r1, r4
 8380 00f6 02A8     		add	r0, sp, #8
 8381 00f8 FFF7FEFF 		bl	LL_Switch_Init
 8382              	.LVL956:
2618:../../Middlewares/AI_Runtime/Npu/ll_aton/ll_aton.c ****     LL_ATON_EnableUnits_Init(dma_units, 2);
 8383              		.loc 1 2618 5 view .LVU3235
 8384 00fc 0221     		movs	r1, #2
 8385 00fe 6846     		mov	r0, sp
 8386 0100 FFF7FEFF 		bl	LL_ATON_EnableUnits_Init
 8387              	.LVL957:
2619:../../Middlewares/AI_Runtime/Npu/ll_aton/ll_aton.c ****     LL_Streng_Wait(dma_wait_mask);
 8388              		.loc 1 2619 5 view .LVU3236
 8389 0104 0220     		movs	r0, #2
 8390 0106 FFF7FEFF 		bl	LL_Streng_Wait
 8391              	.LVL958:
2620:../../Middlewares/AI_Runtime/Npu/ll_aton/ll_aton.c ****     LL_ATON_DisableUnits_Init(dma_units, 1);
 8392              		.loc 1 2620 5 view .LVU3237
 8393 010a 2146     		mov	r1, r4
 8394 010c 6846     		mov	r0, sp
 8395 010e FFF7FEFF 		bl	LL_ATON_DisableUnits_Init
 8396              	.LVL959:
2621:../../Middlewares/AI_Runtime/Npu/ll_aton/ll_aton.c ****     LL_Switch_Deinit(&switch_init, 1);
 8397              		.loc 1 2621 5 view .LVU3238
 8398 0112 02A8     		add	r0, sp, #8
 8399 0114 FFF7FEFF 		bl	LL_Switch_Deinit
 8400              	.LVL960:
 8401              	.L540:
 8402              		.loc 1 2621 5 is_stmt 0 view .LVU3239
 8403              	.LBE170:
2622:../../Middlewares/AI_Runtime/Npu/ll_aton/ll_aton.c ****   }
2623:../../Middlewares/AI_Runtime/Npu/ll_aton/ll_aton.c **** 
2624:../../Middlewares/AI_Runtime/Npu/ll_aton/ll_aton.c ****   return dst;
 8404              		.loc 1 2624 3 is_stmt 1 view .LVU3240
2625:../../Middlewares/AI_Runtime/Npu/ll_aton/ll_aton.c **** }
 8405              		.loc 1 2625 1 is_stmt 0 view .LVU3241
 8406 0118 4046     		mov	r0, r8
 8407 011a 26B0     		add	sp, sp, #152
 8408              		.cfi_remember_state
 8409              		.cfi_def_cfa_offset 32
 8410              		@ sp needed
 8411 011c BDE8F087 		pop	{r4, r5, r6, r7, r8, r9, r10, pc}
 8412              	.LVL961:
 8413              	.L538:
 8414              		.cfi_restore_state
2539:../../Middlewares/AI_Runtime/Npu/ll_aton/ll_aton.c ****   n -= prolog_len;
 8415              		.loc 1 2539 5 is_stmt 1 view .LVU3242
2539:../../Middlewares/AI_Runtime/Npu/ll_aton/ll_aton.c ****   n -= prolog_len;
 8416              		.loc 1 2539 15 is_stmt 0 view .LVU3243
 8417 0120 1AF80210 		ldrb	r1, [r10, r2]	@ zero_extendqisi2
2539:../../Middlewares/AI_Runtime/Npu/ll_aton/ll_aton.c ****   n -= prolog_len;
 8418              		.loc 1 2539 13 view .LVU3244
 8419 0124 08F80210 		strb	r1, [r8, r2]
2538:../../Middlewares/AI_Runtime/Npu/ll_aton/ll_aton.c ****     *_dst++ = *_src++;
 8420              		.loc 1 2538 32 is_stmt 1 discriminator 3 view .LVU3245
 8421 0128 0132     		adds	r2, r2, #1
 8422              	.LVL962:
2538:../../Middlewares/AI_Runtime/Npu/ll_aton/ll_aton.c ****     *_dst++ = *_src++;
ARM GAS  C:\Users\Antonio\AppData\Local\Temp\ccynTwLp.s 			page 260


 8423              		.loc 1 2538 32 is_stmt 0 discriminator 3 view .LVU3246
 8424 012a 82E7     		b	.L537
 8425              		.cfi_endproc
 8426              	.LFE4854:
 8428              		.section	.rodata.CSWTCH.208,"a"
 8431              	CSWTCH.208:
 8432 0000 00       		.byte	0
 8433 0001 01       		.byte	1
 8434 0002 02       		.byte	2
 8435 0003 08       		.byte	8
 8436 0004 09       		.byte	9
 8437 0005 0A       		.byte	10
 8438              		.section	.rodata.CSWTCH.206,"a"
 8441              	CSWTCH.206:
 8442 0000 00       		.byte	0
 8443 0001 01       		.byte	1
 8444 0002 02       		.byte	2
 8445 0003 07       		.byte	7
 8446 0004 0B       		.byte	11
 8447 0005 0F       		.byte	15
 8448 0006 13       		.byte	19
 8449 0007 17       		.byte	23
 8450 0008 1B       		.byte	27
 8451 0009 1F       		.byte	31
 8452 000a 23       		.byte	35
 8453 000b 27       		.byte	39
 8454 000c 2B       		.byte	43
 8455 000d 2F       		.byte	47
 8456 000e 33       		.byte	51
 8457 000f 37       		.byte	55
 8458              		.section	.rodata.__func__.0,"a"
 8461              	__func__.0:
 8462 0000 4C4C5F45 		.ascii	"LL_EpochCtrl_Wait\000"
 8462      706F6368 
 8462      4374726C 
 8462      5F576169 
 8462      7400
 8463              		.section	.rodata.__func__.1,"a"
 8466              	__func__.1:
 8467 0000 6765745F 		.ascii	"get_Poolacc_type\000"
 8467      506F6F6C 
 8467      6163635F 
 8467      74797065 
 8467      00
 8468              		.section	.rodata.__func__.2,"a"
 8471              	__func__.2:
 8472 0000 6765745F 		.ascii	"get_Arithacc_type\000"
 8472      41726974 
 8472      68616363 
 8472      5F747970 
 8472      6500
 8473              		.section	.rodata.__func__.3,"a"
 8476              	__func__.3:
 8477 0000 6765745F 		.ascii	"get_Activacc_type\000"
 8477      41637469 
 8477      76616363 
 8477      5F747970 
ARM GAS  C:\Users\Antonio\AppData\Local\Temp\ccynTwLp.s 			page 261


 8477      6500
 8478              		.section	.rodata.__func__.4,"a"
 8481              	__func__.4:
 8482 0000 4C4C5F44 		.ascii	"LL_Decun_Init\000"
 8482      6563756E 
 8482      5F496E69 
 8482      7400
 8483              		.section	.rodata.__func__.5,"a"
 8486              	__func__.5:
 8487 0000 5F5F6174 		.ascii	"__atonn_getDstPortID\000"
 8487      6F6E6E5F 
 8487      67657444 
 8487      7374506F 
 8487      72744944 
 8488              		.section	.rodata.__func__.6,"a"
 8491              	__func__.6:
 8492 0000 5F5F6174 		.ascii	"__atonn_getSrcPortID\000"
 8492      6F6E6E5F 
 8492      67657453 
 8492      7263506F 
 8492      72744944 
 8493              		.section	.rodata.__func__.7,"a"
 8496              	__func__.7:
 8497 0000 4C4C5F53 		.ascii	"LL_Streng_Wait\000"
 8497      7472656E 
 8497      675F5761 
 8497      697400
 8498              		.section	.bss.done.9,"aw",%nobits
 8501              	done.9:
 8502 0000 00       		.space	1
 8503              		.section	.rodata.__func__.10,"a"
 8506              	__func__.10:
 8507 0000 4C4C5F41 		.ascii	"LL_ATON_Init\000"
 8507      544F4E5F 
 8507      496E6974 
 8507      00
 8508              		.section	.bss.Conv_ctrl_bits,"aw",%nobits
 8509              		.align	2
 8512              	Conv_ctrl_bits:
 8513 0000 00000000 		.space	16
 8513      00000000 
 8513      00000000 
 8513      00000000 
 8514              		.text
 8515              	.Letext0:
 8516              		.file 4 "C:\\ST\\STM32CubeIDE_1.19.0\\STM32CubeIDE\\plugins\\com.st.stm32cube.ide.mcu.externaltool
 8517              		.file 5 "C:\\ST\\STM32CubeIDE_1.19.0\\STM32CubeIDE\\plugins\\com.st.stm32cube.ide.mcu.externaltool
 8518              		.file 6 "C:\\ST\\STM32CubeIDE_1.19.0\\STM32CubeIDE\\plugins\\com.st.stm32cube.ide.mcu.externaltool
 8519              		.file 7 "../../Middlewares/AI_Runtime/Npu/Devices/STM32N6XX/mcu_cache.h"
 8520              		.file 8 "../../Middlewares/AI_Runtime/Npu/ll_aton/ll_aton_util.h"
 8521              		.file 9 "C:\\ST\\STM32CubeIDE_1.19.0\\STM32CubeIDE\\plugins\\com.st.stm32cube.ide.mcu.externaltool
 8522              		.file 10 "C:\\ST\\STM32CubeIDE_1.19.0\\STM32CubeIDE\\plugins\\com.st.stm32cube.ide.mcu.externaltoo
 8523              		.file 11 "C:\\ST\\STM32CubeIDE_1.19.0\\STM32CubeIDE\\plugins\\com.st.stm32cube.ide.mcu.externaltoo
 8524              		.file 12 "C:\\ST\\STM32CubeIDE_1.19.0\\STM32CubeIDE\\plugins\\com.st.stm32cube.ide.mcu.externaltoo
 8525              		.file 13 "<built-in>"
ARM GAS  C:\Users\Antonio\AppData\Local\Temp\ccynTwLp.s 			page 262


DEFINED SYMBOLS
                            *ABS*:00000000 ll_aton.c
C:\Users\Antonio\AppData\Local\Temp\ccynTwLp.s:26     .text.decun_inc_page_addr:00000000 $t
C:\Users\Antonio\AppData\Local\Temp\ccynTwLp.s:31     .text.decun_inc_page_addr:00000000 decun_inc_page_addr
C:\Users\Antonio\AppData\Local\Temp\ccynTwLp.s:74     .text.LL_Address_Physical2Virtual:00000000 $t
C:\Users\Antonio\AppData\Local\Temp\ccynTwLp.s:80     .text.LL_Address_Physical2Virtual:00000000 LL_Address_Physical2Virtual
C:\Users\Antonio\AppData\Local\Temp\ccynTwLp.s:95     .text.LL_Address_Virtual2Physical:00000000 $t
C:\Users\Antonio\AppData\Local\Temp\ccynTwLp.s:101    .text.LL_Address_Virtual2Physical:00000000 LL_Address_Virtual2Physical
C:\Users\Antonio\AppData\Local\Temp\ccynTwLp.s:113    .text.startWatchdog:00000000 $t
C:\Users\Antonio\AppData\Local\Temp\ccynTwLp.s:119    .text.startWatchdog:00000000 startWatchdog
C:\Users\Antonio\AppData\Local\Temp\ccynTwLp.s:138    .text.checkWatchdog:00000000 $t
C:\Users\Antonio\AppData\Local\Temp\ccynTwLp.s:144    .text.checkWatchdog:00000000 checkWatchdog
C:\Users\Antonio\AppData\Local\Temp\ccynTwLp.s:194    .text.LL_ATON_Init:00000000 $t
C:\Users\Antonio\AppData\Local\Temp\ccynTwLp.s:200    .text.LL_ATON_Init:00000000 LL_ATON_Init
C:\Users\Antonio\AppData\Local\Temp\ccynTwLp.s:720    .text.LL_ATON_Init:00000290 $d
C:\Users\Antonio\AppData\Local\Temp\ccynTwLp.s:8501   .bss.done.9:00000000 done.9
C:\Users\Antonio\AppData\Local\Temp\ccynTwLp.s:8506   .rodata.__func__.10:00000000 __func__.10
C:\Users\Antonio\AppData\Local\Temp\ccynTwLp.s:744    .text.LL_ATON_Init:000002e8 $t
C:\Users\Antonio\AppData\Local\Temp\ccynTwLp.s:1120   .text.LL_ATON_Init:00000504 $d
C:\Users\Antonio\AppData\Local\Temp\ccynTwLp.s:1137   .text.LL_ATON_DeInit:00000000 $t
C:\Users\Antonio\AppData\Local\Temp\ccynTwLp.s:1143   .text.LL_ATON_DeInit:00000000 LL_ATON_DeInit
C:\Users\Antonio\AppData\Local\Temp\ccynTwLp.s:1206   .text.LL_ATON_DeInit:00000020 $d
C:\Users\Antonio\AppData\Local\Temp\ccynTwLp.s:1211   .text.LL_ATON_EnableUnits_Init:00000000 $t
C:\Users\Antonio\AppData\Local\Temp\ccynTwLp.s:1217   .text.LL_ATON_EnableUnits_Init:00000000 LL_ATON_EnableUnits_Init
C:\Users\Antonio\AppData\Local\Temp\ccynTwLp.s:1275   .text.LL_ATON_EnableUnits_Init:0000002c $d
C:\Users\Antonio\AppData\Local\Temp\ccynTwLp.s:1420   .text.LL_ATON_EnableUnits_Init:00000088 $d
C:\Users\Antonio\AppData\Local\Temp\ccynTwLp.s:8512   .bss.Conv_ctrl_bits:00000000 Conv_ctrl_bits
C:\Users\Antonio\AppData\Local\Temp\ccynTwLp.s:1429   .text.LL_Streng_Wait:00000000 $t
C:\Users\Antonio\AppData\Local\Temp\ccynTwLp.s:1435   .text.LL_Streng_Wait:00000000 LL_Streng_Wait
C:\Users\Antonio\AppData\Local\Temp\ccynTwLp.s:1533   .text.LL_Streng_Wait:00000050 $d
C:\Users\Antonio\AppData\Local\Temp\ccynTwLp.s:8496   .rodata.__func__.7:00000000 __func__.7
C:\Users\Antonio\AppData\Local\Temp\ccynTwLp.s:1541   .text.LL_TriggerHigh:00000000 $t
C:\Users\Antonio\AppData\Local\Temp\ccynTwLp.s:1547   .text.LL_TriggerHigh:00000000 LL_TriggerHigh
C:\Users\Antonio\AppData\Local\Temp\ccynTwLp.s:1600   .text.LL_TriggerHigh:00000028 $d
C:\Users\Antonio\AppData\Local\Temp\ccynTwLp.s:1606   .text.LL_TriggerLow:00000000 $t
C:\Users\Antonio\AppData\Local\Temp\ccynTwLp.s:1612   .text.LL_TriggerLow:00000000 LL_TriggerLow
C:\Users\Antonio\AppData\Local\Temp\ccynTwLp.s:1644   .text.LL_TriggerLow:00000018 $d
C:\Users\Antonio\AppData\Local\Temp\ccynTwLp.s:1660   .text.__atonn_getSrcPortID:00000000 $t
C:\Users\Antonio\AppData\Local\Temp\ccynTwLp.s:1666   .text.__atonn_getSrcPortID:00000000 __atonn_getSrcPortID
C:\Users\Antonio\AppData\Local\Temp\ccynTwLp.s:1722   .text.__atonn_getSrcPortID:0000002e $d
C:\Users\Antonio\AppData\Local\Temp\ccynTwLp.s:1957   .text.__atonn_getSrcPortID:00000108 $d
C:\Users\Antonio\AppData\Local\Temp\ccynTwLp.s:8491   .rodata.__func__.6:00000000 __func__.6
C:\Users\Antonio\AppData\Local\Temp\ccynTwLp.s:1974   .text.__atonn_getDstPortID:00000000 $t
C:\Users\Antonio\AppData\Local\Temp\ccynTwLp.s:1980   .text.__atonn_getDstPortID:00000000 __atonn_getDstPortID
C:\Users\Antonio\AppData\Local\Temp\ccynTwLp.s:2038   .text.__atonn_getDstPortID:0000002e $d
C:\Users\Antonio\AppData\Local\Temp\ccynTwLp.s:2304   .text.__atonn_getDstPortID:0000012c $d
C:\Users\Antonio\AppData\Local\Temp\ccynTwLp.s:8486   .rodata.__func__.5:00000000 __func__.5
C:\Users\Antonio\AppData\Local\Temp\ccynTwLp.s:2318   .text.LL_Switch_Init_NoReset:00000000 $t
C:\Users\Antonio\AppData\Local\Temp\ccynTwLp.s:2324   .text.LL_Switch_Init_NoReset:00000000 LL_Switch_Init_NoReset
C:\Users\Antonio\AppData\Local\Temp\ccynTwLp.s:2422   .text.LL_Switch_Init_NoReset:00000050 $d
C:\Users\Antonio\AppData\Local\Temp\ccynTwLp.s:2427   .text.LL_Switch_Init:00000000 $t
C:\Users\Antonio\AppData\Local\Temp\ccynTwLp.s:2433   .text.LL_Switch_Init:00000000 LL_Switch_Init
C:\Users\Antonio\AppData\Local\Temp\ccynTwLp.s:2489   .text.LL_Switch_Init:0000001c $d
C:\Users\Antonio\AppData\Local\Temp\ccynTwLp.s:2494   .text.LL_Switch_Deinit:00000000 $t
C:\Users\Antonio\AppData\Local\Temp\ccynTwLp.s:2500   .text.LL_Switch_Deinit:00000000 LL_Switch_Deinit
C:\Users\Antonio\AppData\Local\Temp\ccynTwLp.s:2563   .text.LL_Switch_Deinit_Fine_Grained:00000000 $t
C:\Users\Antonio\AppData\Local\Temp\ccynTwLp.s:2569   .text.LL_Switch_Deinit_Fine_Grained:00000000 LL_Switch_Deinit_Fine_Grained
ARM GAS  C:\Users\Antonio\AppData\Local\Temp\ccynTwLp.s 			page 263


C:\Users\Antonio\AppData\Local\Temp\ccynTwLp.s:2639   .text.LL_EpochCtrl_Step:00000000 $t
C:\Users\Antonio\AppData\Local\Temp\ccynTwLp.s:2645   .text.LL_EpochCtrl_Step:00000000 LL_EpochCtrl_Step
C:\Users\Antonio\AppData\Local\Temp\ccynTwLp.s:2678   .text.LL_EpochCtrl_Step:00000010 $d
C:\Users\Antonio\AppData\Local\Temp\ccynTwLp.s:2683   .text.LL_EpochCtrl_Wait:00000000 $t
C:\Users\Antonio\AppData\Local\Temp\ccynTwLp.s:2689   .text.LL_EpochCtrl_Wait:00000000 LL_EpochCtrl_Wait
C:\Users\Antonio\AppData\Local\Temp\ccynTwLp.s:2758   .text.LL_EpochCtrl_Wait:00000034 $d
C:\Users\Antonio\AppData\Local\Temp\ccynTwLp.s:8461   .rodata.__func__.0:00000000 __func__.0
C:\Users\Antonio\AppData\Local\Temp\ccynTwLp.s:2767   .text.LL_EpochCtrl_GetBlobSize:00000000 $t
C:\Users\Antonio\AppData\Local\Temp\ccynTwLp.s:2773   .text.LL_EpochCtrl_GetBlobSize:00000000 LL_EpochCtrl_GetBlobSize
C:\Users\Antonio\AppData\Local\Temp\ccynTwLp.s:2798   .text.LL_ATON_EnableClock:00000000 $t
C:\Users\Antonio\AppData\Local\Temp\ccynTwLp.s:2804   .text.LL_ATON_EnableClock:00000000 LL_ATON_EnableClock
C:\Users\Antonio\AppData\Local\Temp\ccynTwLp.s:2848   .text.LL_ATON_EnableClock:0000001c $d
C:\Users\Antonio\AppData\Local\Temp\ccynTwLp.s:2853   .text.LL_Streng_TensorInit:00000000 $t
C:\Users\Antonio\AppData\Local\Temp\ccynTwLp.s:2859   .text.LL_Streng_TensorInit:00000000 LL_Streng_TensorInit
C:\Users\Antonio\AppData\Local\Temp\ccynTwLp.s:3576   .text.LL_Streng_ExtSyncInit:00000000 $t
C:\Users\Antonio\AppData\Local\Temp\ccynTwLp.s:3582   .text.LL_Streng_ExtSyncInit:00000000 LL_Streng_ExtSyncInit
C:\Users\Antonio\AppData\Local\Temp\ccynTwLp.s:3667   .text.LL_Streng_ExtSyncInit:0000003c $d
C:\Users\Antonio\AppData\Local\Temp\ccynTwLp.s:3677   .text.LL_Decun_Init:00000000 $t
C:\Users\Antonio\AppData\Local\Temp\ccynTwLp.s:3683   .text.LL_Decun_Init:00000000 LL_Decun_Init
C:\Users\Antonio\AppData\Local\Temp\ccynTwLp.s:4648   .text.LL_Decun_Init:0000032c $d
C:\Users\Antonio\AppData\Local\Temp\ccynTwLp.s:8481   .rodata.__func__.4:00000000 __func__.4
C:\Users\Antonio\AppData\Local\Temp\ccynTwLp.s:4658   .text.LL_Decun_Init:0000033c $t
C:\Users\Antonio\AppData\Local\Temp\ccynTwLp.s:5207   .text.LL_Decun_Init:00000524 $d
C:\Users\Antonio\AppData\Local\Temp\ccynTwLp.s:5213   .text.LL_Convacc_Init:00000000 $t
C:\Users\Antonio\AppData\Local\Temp\ccynTwLp.s:5219   .text.LL_Convacc_Init:00000000 LL_Convacc_Init
C:\Users\Antonio\AppData\Local\Temp\ccynTwLp.s:5891   .text.LL_Convacc_Init:000002b8 $d
C:\Users\Antonio\AppData\Local\Temp\ccynTwLp.s:5897   .text.LL_Activacc_Init:00000000 $t
C:\Users\Antonio\AppData\Local\Temp\ccynTwLp.s:5903   .text.LL_Activacc_Init:00000000 LL_Activacc_Init
C:\Users\Antonio\AppData\Local\Temp\ccynTwLp.s:6288   .text.LL_Activacc_Init:00000150 $d
C:\Users\Antonio\AppData\Local\Temp\ccynTwLp.s:8476   .rodata.__func__.3:00000000 __func__.3
C:\Users\Antonio\AppData\Local\Temp\ccynTwLp.s:6296   .text.LL_Arithacc_Init:00000000 $t
C:\Users\Antonio\AppData\Local\Temp\ccynTwLp.s:6302   .text.LL_Arithacc_Init:00000000 LL_Arithacc_Init
C:\Users\Antonio\AppData\Local\Temp\ccynTwLp.s:6718   .text.LL_Arithacc_Init:00000198 $d
C:\Users\Antonio\AppData\Local\Temp\ccynTwLp.s:7196   .text.LL_Arithacc_Init:00000328 $d
C:\Users\Antonio\AppData\Local\Temp\ccynTwLp.s:8471   .rodata.__func__.2:00000000 __func__.2
C:\Users\Antonio\AppData\Local\Temp\ccynTwLp.s:8441   .rodata.CSWTCH.206:00000000 CSWTCH.206
C:\Users\Antonio\AppData\Local\Temp\ccynTwLp.s:7206   .text.LL_Poolacc_Init:00000000 $t
C:\Users\Antonio\AppData\Local\Temp\ccynTwLp.s:7212   .text.LL_Poolacc_Init:00000000 LL_Poolacc_Init
C:\Users\Antonio\AppData\Local\Temp\ccynTwLp.s:7603   .text.LL_Poolacc_Init:00000178 $d
C:\Users\Antonio\AppData\Local\Temp\ccynTwLp.s:8431   .rodata.CSWTCH.208:00000000 CSWTCH.208
C:\Users\Antonio\AppData\Local\Temp\ccynTwLp.s:8466   .rodata.__func__.1:00000000 __func__.1
C:\Users\Antonio\AppData\Local\Temp\ccynTwLp.s:7612   .text.LL_EpochCtrl_Init:00000000 $t
C:\Users\Antonio\AppData\Local\Temp\ccynTwLp.s:7618   .text.LL_EpochCtrl_Init:00000000 LL_EpochCtrl_Init
C:\Users\Antonio\AppData\Local\Temp\ccynTwLp.s:7693   .text.LL_EpochCtrl_Init:00000034 $d
C:\Users\Antonio\AppData\Local\Temp\ccynTwLp.s:7698   .text.LL_ATON_DisableClock:00000000 $t
C:\Users\Antonio\AppData\Local\Temp\ccynTwLp.s:7704   .text.LL_ATON_DisableClock:00000000 LL_ATON_DisableClock
C:\Users\Antonio\AppData\Local\Temp\ccynTwLp.s:7744   .text.LL_ATON_DisableClock:00000018 $d
C:\Users\Antonio\AppData\Local\Temp\ccynTwLp.s:7749   .text.LL_ATON_DisableUnits_Init:00000000 $t
C:\Users\Antonio\AppData\Local\Temp\ccynTwLp.s:7755   .text.LL_ATON_DisableUnits_Init:00000000 LL_ATON_DisableUnits_Init
C:\Users\Antonio\AppData\Local\Temp\ccynTwLp.s:7804   .text.LL_ATON_DisableUnits_Init:00000020 $d
C:\Users\Antonio\AppData\Local\Temp\ccynTwLp.s:8169   .text.LL_ATON_DisableUnits_Init:00000118 $d
C:\Users\Antonio\AppData\Local\Temp\ccynTwLp.s:8179   .text.LL_ATON_Dma_memcpy:00000000 $t
C:\Users\Antonio\AppData\Local\Temp\ccynTwLp.s:8185   .text.LL_ATON_Dma_memcpy:00000000 LL_ATON_Dma_memcpy
C:\Users\Antonio\AppData\Local\Temp\ccynTwLp.s:8502   .bss.done.9:00000000 $d
C:\Users\Antonio\AppData\Local\Temp\ccynTwLp.s:8509   .bss.Conv_ctrl_bits:00000000 $d
C:\Users\Antonio\AppData\Local\Temp\ccynTwLp.s:1284   .text.LL_ATON_EnableUnits_Init:00000035 $d
C:\Users\Antonio\AppData\Local\Temp\ccynTwLp.s:1284   .text.LL_ATON_EnableUnits_Init:00000036 $t
ARM GAS  C:\Users\Antonio\AppData\Local\Temp\ccynTwLp.s 			page 264


C:\Users\Antonio\AppData\Local\Temp\ccynTwLp.s:1729   .text.__atonn_getSrcPortID:00000035 $d
C:\Users\Antonio\AppData\Local\Temp\ccynTwLp.s:1729   .text.__atonn_getSrcPortID:00000036 $t
C:\Users\Antonio\AppData\Local\Temp\ccynTwLp.s:2045   .text.__atonn_getDstPortID:00000035 $d
C:\Users\Antonio\AppData\Local\Temp\ccynTwLp.s:2045   .text.__atonn_getDstPortID:00000036 $t
C:\Users\Antonio\AppData\Local\Temp\ccynTwLp.s:6723   .text.LL_Arithacc_Init:0000019d $d
C:\Users\Antonio\AppData\Local\Temp\ccynTwLp.s:6723   .text.LL_Arithacc_Init:0000019e $t
C:\Users\Antonio\AppData\Local\Temp\ccynTwLp.s:7813   .text.LL_ATON_DisableUnits_Init:00000029 $d
C:\Users\Antonio\AppData\Local\Temp\ccynTwLp.s:7813   .text.LL_ATON_DisableUnits_Init:0000002a $t
                           .group:00000000 wm4.0.edffc6ad2f5eb1e671bbefdf8c481eb3
                           .group:00000000 wm4._newlib_version.h.4.411db44ea2338a62eca2f0777f81481b
                           .group:00000000 wm4.newlib.h.27.a82728f74da661df333d09507bfef510
                           .group:00000000 wm4.ieeefp.h.77.bd5feb87d9990dd328793ced294f6a87
                           .group:00000000 wm4.features.h.22.9dfb1293666eb4caf24cccb81c86a551
                           .group:00000000 wm4.config.h.224.10ee1ad185d877c6e334e6581faab44d
                           .group:00000000 wm4._ansi.h.31.de524f58584151836e90d8620a16f8e8
                           .group:00000000 wm4.assert.h.11.db24e541f16414db224bf986d21017e2
                           .group:00000000 wm4._intsup.h.10.48bafbb683905c4daa4565a85aeeb264
                           .group:00000000 wm4._default_types.h.6.959254cf5f09734ea7516c89e8bb21bd
                           .group:00000000 wm4._stdint.h.10.c24fa3af3bc1706662bb5593a907e841
                           .group:00000000 wm4.stdint.h.23.d53047a68f4a85177f80b422d52785ed
                           .group:00000000 wm4.stddef.h.267.6dda48f8b0edf141523347999dd9ec79
                           .group:00000000 wm4.inttypes.h.28.684aa7736e7ecc9a6ffc44acc61c7a90
                           .group:00000000 wm4.stddef.h.39.9af043fe601e315768567300ad642a8e
                           .group:00000000 wm4.stdlib.h.13.4ed386f5c1a80d71e72172885d946ef2
                           .group:00000000 wm4.stddef.h.158.eec8bf00b5213f43d095cb984c5f22e3
                           .group:00000000 wm4.cdefs.h.49.70fc7af612f78ddcace70fdd90b5623b
                           .group:00000000 wm4._types.h.20.dd0d04dca3800a0d2a6129b87f3adbb2
                           .group:00000000 wm4.stddef.h.158.6f8e08a347b1cff664332fa350bfceb3
                           .group:00000000 wm4._types.h.127.3bdfe3ff8ea2d0985b03d9cbe93480e3
                           .group:00000000 wm4.reent.h.18.25503cdc8b7e55dd0d6ea7b3e5af7a03
                           .group:00000000 wm4.lock.h.2.1461d1fff82dffe8bfddc23307f6484f
                           .group:00000000 wm4.reent.h.78.6b87466b04591b1f1cb88c14fdf2ba9e
                           .group:00000000 wm4.alloca.h.8.dfc0c703c47ec3e69746825b17d9e66d
                           .group:00000000 wm4.stdlib.h.56.f4862cfbf4363a1db01842d5bdf72c18
                           .group:00000000 wm4.assert.h.11.d99a111e320bc5106fc4046225782672
                           .group:00000000 wm4.ll_aton_attributes.h.20.26d469460cb32db5740effdc8cc403f3
                           .group:00000000 wm4.ll_aton_config.h.20.79eb8be0291ee9086e6be08969d61846
                           .group:00000000 wm4.ll_aton_osal.h.20.db6912f3379b6bd6fb65d7a2b7fdbb53
                           .group:00000000 wm4.ll_aton_platform.h.20.06ded592ee586a6abb6019a90ebd54df
                           .group:00000000 wm4.stm32n6xx_hal_conf.h.21.e6f895f5dec93fd886896ef3aa220611
                           .group:00000000 wm4.arm_cmse.h.103.a0d15a79c4c9a67da8d5831704d7248e
                           .group:00000000 wm4.stm32n6xx.h.34.80585dd08aa426c932f6311fdb7386da
                           .group:00000000 wm4.stm32n657xx.h.26.acd272cb67318cc1a4791ce2f0720ca6
                           .group:00000000 wm4.cmsis_version.h.32.0ac195c83bb4537824e6ad1c47474b79
                           .group:00000000 wm4.core_cm55.h.68.832d5cf835639cc0d28219c3d2867330
                           .group:00000000 wm4.cmsis_gcc.h.26.7a5fd1a99dbedde687044a4433ab3e15
                           .group:00000000 wm4.core_cm55.h.196.52e437a270752da561676e507b35baeb
                           .group:00000000 wm4.mpu_armv8.h.32.9d72426c8e2b47753456dcb84802c5b3
                           .group:00000000 wm4.pmu_armv8.h.32.eaa95f88a71b29390b135fd81c071b6b
                           .group:00000000 wm4.core_cm55.h.4411.860dad8650880893dd57b815844f7186
                           .group:00000000 wm4.cachel1_armv7.h.32.abd77761a989e008b0c60891114a33c7
                           .group:00000000 wm4.stm32n657xx.h.575.1c2a5e6bedffc6f9083dcc857bc6d09d
                           .group:00000000 wm4.stm32n6xx.h.114.5cf793d8af485e14f110e3e24bde1aa5
                           .group:00000000 wm4.stm32_hal_legacy.h.22.87fb12bf5a1a1e00fc134f22bc9aa8c4
                           .group:00000000 wm4.math.h.13.47cfc34cae8a1153323939c4d32cf7c2
                           .group:00000000 wm4.stm32n6xx_hal_def.h.63.2cbbf1954826c09c874c4e06e42e8b71
                           .group:00000000 wm4.stm32n6xx_ll_bus.h.38.2366a295ee4cdb04833997d3787fcd2d
ARM GAS  C:\Users\Antonio\AppData\Local\Temp\ccynTwLp.s 			page 265


                           .group:00000000 wm4.stm32n6xx_ll_rcc.h.21.002e22a16fd7f67dde6dce41e8ba9620
                           .group:00000000 wm4.stm32n6xx_hal_rcc.h.194.1cb1283e40f9bebcd3fba2a9a961838e
                           .group:00000000 wm4.stm32n6xx_hal_rcc_ex.h.21.79aa32178dfef625fbd20d362449acfa
                           .group:00000000 wm4.stm32n6xx_hal_rcc.h.4359.3f0b7ad33826d95438602c9aebc08af9
                           .group:00000000 wm4.stm32n6xx_hal_gpio.h.21.89d54af663b98eb8fc098192053f7eeb
                           .group:00000000 wm4.stm32n6xx_hal_gpio_ex.h.22.4acb2e3511a98bb48b81cfc8e09fd59e
                           .group:00000000 wm4.stm32n6xx_hal_rif.h.21.424d0bafb874a777dee3742a22e13037
                           .group:00000000 wm4.stm32n6xx_hal_dma.h.21.61e48c5c2e8d25d22177834b232fe45c
                           .group:00000000 wm4.stm32n6xx_hal_dma_ex.h.21.66e597beb090a165329d6ccf665e41bc
                           .group:00000000 wm4.stm32n6xx_hal_dma.h.1020.87e2180c009560b617c1f8208140c950
                           .group:00000000 wm4.stm32n6xx_hal_cortex.h.21.f493623cc58f9454ab4eae41e395c5cc
                           .group:00000000 wm4.stm32n6xx_hal_bsec.h.21.61b309e67dd810e28897a01b1b21a97f
                           .group:00000000 wm4.stm32n6xx_hal_dcmipp.h.21.f538bfd785c6469670251ac9bc7af55d
                           .group:00000000 wm4.stm32n6xx_hal_dma2d.h.21.75c8d46cdbb72970123b3f34ae2043d7
                           .group:00000000 wm4.stm32n6xx_hal_exti.h.21.fda87e715ea6b98239ec30171d1df594
                           .group:00000000 wm4.stm32n6xx_hal_i2c.h.21.3f483626ff64c5bf027265bb2e1d1331
                           .group:00000000 wm4.stm32n6xx_hal_i2c_ex.h.21.79e9196c22282cdaf6b4047893638c45
                           .group:00000000 wm4.stm32n6xx_hal_i2c.h.741.1084702632703acc669e4282b3043372
                           .group:00000000 wm4.stm32n6xx_hal_ltdc.h.21.ae1eb09930e7e550e48e418ac5849e4d
                           .group:00000000 wm4.stm32n6xx_hal_ltdc.h.1002.b13ede7fc94ed5ad1c6768a157d2149a
                           .group:00000000 wm4.stm32n6xx_hal_pwr.h.21.cdb73e4869c3fed3fc84f901ec0e5f0a
                           .group:00000000 wm4.stm32n6xx_hal_pwr_ex.h.21.1a673224a58b0c1e5fad8eeda6514208
                           .group:00000000 wm4.stm32n6xx_hal_ramcfg.h.21.a62dfbb4d2c14e9a8c634a215e37bd3d
                           .group:00000000 wm4.stm32n6xx_hal_uart.h.21.230f549bfa0d5ebfd77bfb311b2aca15
                           .group:00000000 wm4.stm32n6xx_hal_uart_ex.h.21.a0d5511e1d0703b7b5278c8f5472b96d
                           .group:00000000 wm4.stm32n6xx_hal_xspi.h.21.e17898be2073b6b6b19faf30b4e304e9
                           .group:00000000 wm4.stm32n6xx_hal_cacheaxi.h.21.7c3375b7903ec42376e4883320997f74
                           .group:00000000 wm4.stm32n6xx_hal.h.81.5e59143eba07faca3e9aeaa5470826c8
                           .group:00000000 wm4.ll_aton_platform.h.288.664a74b8c5792a861b3d52bd39f4a693
                           .group:00000000 wm4.stdbool.h.29.c08aa3eec75cf5b9b5003883f43253f0
                           .group:00000000 wm4.string.h.8.c4b8571ce60dff2817f43fec8b86aecd
                           .group:00000000 wm4.string.h.177.59a005921fa78485abc80a0267de5752
                           .group:00000000 wm4.ATON.h.37.dcee5f05b79f32d0e17b499095b5b6b7
                           .group:00000000 wm4.ll_aton_rcompat.h.22.1535a015a52fd365f115f7d75d780d81
                           .group:00000000 wm4.ll_aton_platform.h.383.f09ccd502bb682b863f991d963ee7462
                           .group:00000000 wm4.ll_aton.h.44.eedaff3efc70e89778af3d61d988d6f8
                           .group:00000000 wm4.errno.h.2.ba016d646105af6cad23be83630b6a3f
                           .group:00000000 wm4.errno.h.9.ae5ea2b0ff9ea6e39e585807e35200d3
                           .group:00000000 wm4.stdio.h.27.3fc80220048df77954e38daec3bb9670
                           .group:00000000 wm4.stdarg.h.34.3a23a216c0c293b3d2ea2e89281481e6
                           .group:00000000 wm4.stdio.h.47.dc31ec4674d7bcb103c9f08809549f45
                           .group:00000000 wm4.stdio.h.2.4aa87247282eca6c8f36f9de33d8df1a
                           .group:00000000 wm4.stdio.h.87.a1e20d2651f9bfb66e51bfbe849db00a
                           .group:00000000 wm4.ll_aton_util.h.34.a290753adbb2447ca7ee3415db495399

UNDEFINED SYMBOLS
__errno
strerror
printf
__assert_func
LL_ATON_getbits
mcu_cache_clean_invalidate_range
memset
