ARM GAS  C:\Users\Antonio\AppData\Local\Temp\cc6EBOZH.s 			page 1


   1              		.arch armv8.1-m.main
   2              		.fpu fpv5-d16
   3              		.arch_extension dsp
   4              		.arch_extension fp
   5              		.arch_extension fp.dp
   6              		.arch_extension mve
   7              		.arch_extension mve.fp
   8              		.eabi_attribute 5, "cortex-m55"
   9              		.eabi_attribute 28, 1
  10              		.eabi_attribute 20, 1
  11              		.eabi_attribute 21, 1
  12              		.eabi_attribute 23, 3
  13              		.eabi_attribute 24, 1
  14              		.eabi_attribute 25, 1
  15              		.eabi_attribute 26, 1
  16              		.eabi_attribute 30, 4
  17              		.eabi_attribute 34, 1
  18              		.eabi_attribute 38, 1
  19              		.eabi_attribute 18, 4
  20              		.file	"ll_sw_float.c"
  21              		.text
  22              	.Ltext0:
  23              		.cfi_sections	.debug_frame
  24              		.file 1 "../../Middlewares/AI_Runtime/Npu/ll_aton/ll_sw_float.c"
  25              		.section	.text.ll_sw_forward_conv,"ax",%progbits
  26              		.align	1
  27              		.global	ll_sw_forward_conv
  28              		.syntax unified
  29              		.thumb
  30              		.thumb_func
  32              	ll_sw_forward_conv:
  33              	.LVL0:
  34              	.LFB15:
   1:../../Middlewares/AI_Runtime/Npu/ll_aton/ll_sw_float.c **** /**
   2:../../Middlewares/AI_Runtime/Npu/ll_aton/ll_sw_float.c ****  ******************************************************************************
   3:../../Middlewares/AI_Runtime/Npu/ll_aton/ll_sw_float.c ****  * @file    ll_sw_float.c
   4:../../Middlewares/AI_Runtime/Npu/ll_aton/ll_sw_float.c ****  * @author  SRA Artificial Intelligence & Embedded Architectures
   5:../../Middlewares/AI_Runtime/Npu/ll_aton/ll_sw_float.c ****  * @brief   Low Level Software library for Floating Point inference interfacing with EmbedNets(c)
   6:../../Middlewares/AI_Runtime/Npu/ll_aton/ll_sw_float.c ****  ******************************************************************************
   7:../../Middlewares/AI_Runtime/Npu/ll_aton/ll_sw_float.c ****  * @attention
   8:../../Middlewares/AI_Runtime/Npu/ll_aton/ll_sw_float.c ****  *
   9:../../Middlewares/AI_Runtime/Npu/ll_aton/ll_sw_float.c ****  * Copyright (c) 2024 STMicroelectronics.
  10:../../Middlewares/AI_Runtime/Npu/ll_aton/ll_sw_float.c ****  * All rights reserved.
  11:../../Middlewares/AI_Runtime/Npu/ll_aton/ll_sw_float.c ****  *
  12:../../Middlewares/AI_Runtime/Npu/ll_aton/ll_sw_float.c ****  * This software is licensed under terms that can be found in the LICENSE file
  13:../../Middlewares/AI_Runtime/Npu/ll_aton/ll_sw_float.c ****  * in the root directory of this software component.
  14:../../Middlewares/AI_Runtime/Npu/ll_aton/ll_sw_float.c ****  * If no LICENSE file comes with this software, it is provided AS-IS.
  15:../../Middlewares/AI_Runtime/Npu/ll_aton/ll_sw_float.c ****  *
  16:../../Middlewares/AI_Runtime/Npu/ll_aton/ll_sw_float.c ****  ******************************************************************************
  17:../../Middlewares/AI_Runtime/Npu/ll_aton/ll_sw_float.c ****  */
  18:../../Middlewares/AI_Runtime/Npu/ll_aton/ll_sw_float.c **** 
  19:../../Middlewares/AI_Runtime/Npu/ll_aton/ll_sw_float.c **** #include "ll_aton_config.h"
  20:../../Middlewares/AI_Runtime/Npu/ll_aton/ll_sw_float.c **** 
  21:../../Middlewares/AI_Runtime/Npu/ll_aton/ll_sw_float.c **** #if LL_ATON_SW_FALLBACK == 1
  22:../../Middlewares/AI_Runtime/Npu/ll_aton/ll_sw_float.c **** 
  23:../../Middlewares/AI_Runtime/Npu/ll_aton/ll_sw_float.c **** #include <assert.h>
  24:../../Middlewares/AI_Runtime/Npu/ll_aton/ll_sw_float.c **** #include <stdint.h>
ARM GAS  C:\Users\Antonio\AppData\Local\Temp\cc6EBOZH.s 			page 2


  25:../../Middlewares/AI_Runtime/Npu/ll_aton/ll_sw_float.c **** #include <stdio.h>
  26:../../Middlewares/AI_Runtime/Npu/ll_aton/ll_sw_float.c **** 
  27:../../Middlewares/AI_Runtime/Npu/ll_aton/ll_sw_float.c **** #include "ll_sw.h"
  28:../../Middlewares/AI_Runtime/Npu/ll_aton/ll_sw_float.c **** #include "ll_sw_float.h"
  29:../../Middlewares/AI_Runtime/Npu/ll_aton/ll_sw_float.c **** 
  30:../../Middlewares/AI_Runtime/Npu/ll_aton/ll_sw_float.c **** #include "ai_datatypes_internal.h"
  31:../../Middlewares/AI_Runtime/Npu/ll_aton/ll_sw_float.c **** #include "ai_math_helpers.h"
  32:../../Middlewares/AI_Runtime/Npu/ll_aton/ll_sw_float.c **** #include "core_private.h"
  33:../../Middlewares/AI_Runtime/Npu/ll_aton/ll_sw_float.c **** #include "layers.h"
  34:../../Middlewares/AI_Runtime/Npu/ll_aton/ll_sw_float.c **** #include "ll_aton_util.h"
  35:../../Middlewares/AI_Runtime/Npu/ll_aton/ll_sw_float.c **** 
  36:../../Middlewares/AI_Runtime/Npu/ll_aton/ll_sw_float.c **** #define FORMAT AI_ARRAY_FORMAT_FLOAT
  37:../../Middlewares/AI_Runtime/Npu/ll_aton/ll_sw_float.c **** 
  38:../../Middlewares/AI_Runtime/Npu/ll_aton/ll_sw_float.c **** #define SHAPE_INIT(a_, b_, c_, d_) AI_SHAPE_INIT(4, (d_), (c_), (b_), (a_))
  39:../../Middlewares/AI_Runtime/Npu/ll_aton/ll_sw_float.c **** 
  40:../../Middlewares/AI_Runtime/Npu/ll_aton/ll_sw_float.c **** #define SHAPE_2D_INIT(h_, w_) AI_SHAPE_2D_INIT((w_), (h_))
  41:../../Middlewares/AI_Runtime/Npu/ll_aton/ll_sw_float.c **** 
  42:../../Middlewares/AI_Runtime/Npu/ll_aton/ll_sw_float.c **** #define STRIDE_INIT(a_, b_, c_, d_) AI_STRIDE_INIT(4, (d_), (c_), (b_), (a_))
  43:../../Middlewares/AI_Runtime/Npu/ll_aton/ll_sw_float.c **** 
  44:../../Middlewares/AI_Runtime/Npu/ll_aton/ll_sw_float.c **** #define TENSORS(...) __VA_ARGS__
  45:../../Middlewares/AI_Runtime/Npu/ll_aton/ll_sw_float.c **** 
  46:../../Middlewares/AI_Runtime/Npu/ll_aton/ll_sw_float.c **** /* Managing shape index to be consistent with the enum in embednets ai_platform.h */
  47:../../Middlewares/AI_Runtime/Npu/ll_aton/ll_sw_float.c **** static int helper_emit_shape_index_axis(int onnx_axis)
  48:../../Middlewares/AI_Runtime/Npu/ll_aton/ll_sw_float.c **** {
  49:../../Middlewares/AI_Runtime/Npu/ll_aton/ll_sw_float.c ****   switch (onnx_axis)
  50:../../Middlewares/AI_Runtime/Npu/ll_aton/ll_sw_float.c ****   {
  51:../../Middlewares/AI_Runtime/Npu/ll_aton/ll_sw_float.c ****   case 0:
  52:../../Middlewares/AI_Runtime/Npu/ll_aton/ll_sw_float.c ****     return AI_SHAPE_IN_CHANNEL;
  53:../../Middlewares/AI_Runtime/Npu/ll_aton/ll_sw_float.c ****   case 1:
  54:../../Middlewares/AI_Runtime/Npu/ll_aton/ll_sw_float.c ****     return AI_SHAPE_CHANNEL;
  55:../../Middlewares/AI_Runtime/Npu/ll_aton/ll_sw_float.c ****   case 2:
  56:../../Middlewares/AI_Runtime/Npu/ll_aton/ll_sw_float.c ****     return AI_SHAPE_HEIGHT; // note the switch required with case 3
  57:../../Middlewares/AI_Runtime/Npu/ll_aton/ll_sw_float.c ****   case 3:
  58:../../Middlewares/AI_Runtime/Npu/ll_aton/ll_sw_float.c ****     return AI_SHAPE_WIDTH; // note the switch required with case 2
  59:../../Middlewares/AI_Runtime/Npu/ll_aton/ll_sw_float.c ****   default:
  60:../../Middlewares/AI_Runtime/Npu/ll_aton/ll_sw_float.c **** #ifdef LL_SW_ENABLE_ASSERTS
  61:../../Middlewares/AI_Runtime/Npu/ll_aton/ll_sw_float.c ****     LL_ATON_ASSERT(0 && "axis index not supported");
  62:../../Middlewares/AI_Runtime/Npu/ll_aton/ll_sw_float.c **** #endif
  63:../../Middlewares/AI_Runtime/Npu/ll_aton/ll_sw_float.c ****     return -1;
  64:../../Middlewares/AI_Runtime/Npu/ll_aton/ll_sw_float.c ****   }
  65:../../Middlewares/AI_Runtime/Npu/ll_aton/ll_sw_float.c **** }
  66:../../Middlewares/AI_Runtime/Npu/ll_aton/ll_sw_float.c **** 
  67:../../Middlewares/AI_Runtime/Npu/ll_aton/ll_sw_float.c **** //##########################################################################################
  68:../../Middlewares/AI_Runtime/Npu/ll_aton/ll_sw_float.c **** /** Conv forward function */
  69:../../Middlewares/AI_Runtime/Npu/ll_aton/ll_sw_float.c **** void ll_sw_forward_conv(/* int processor, */ void *sw_info_struct)
  70:../../Middlewares/AI_Runtime/Npu/ll_aton/ll_sw_float.c **** {
  35              		.loc 1 70 1 view -0
  36              		.cfi_startproc
  37              		@ args = 0, pretend = 0, frame = 488
  38              		@ frame_needed = 0, uses_anonymous_args = 0
  71:../../Middlewares/AI_Runtime/Npu/ll_aton/ll_sw_float.c ****   Conv_sw_info *sw_info = (Conv_sw_info *)sw_info_struct;
  39              		.loc 1 71 3 view .LVU1
  72:../../Middlewares/AI_Runtime/Npu/ll_aton/ll_sw_float.c ****   // array init
  73:../../Middlewares/AI_Runtime/Npu/ll_aton/ll_sw_float.c ****   AI_ARRAY_OBJ_DECLARE(input_output_array, FORMAT, sw_info->general.input.mem.start_offset,
  40              		.loc 1 73 3 view .LVU2
  70:../../Middlewares/AI_Runtime/Npu/ll_aton/ll_sw_float.c ****   Conv_sw_info *sw_info = (Conv_sw_info *)sw_info_struct;
  41              		.loc 1 70 1 is_stmt 0 view .LVU3
ARM GAS  C:\Users\Antonio\AppData\Local\Temp\cc6EBOZH.s 			page 3


  42 0000 2DE9F04F 		push	{r4, r5, r6, r7, r8, r9, r10, fp, lr}
  43              		.cfi_def_cfa_offset 36
  44              		.cfi_offset 4, -36
  45              		.cfi_offset 5, -32
  46              		.cfi_offset 6, -28
  47              		.cfi_offset 7, -24
  48              		.cfi_offset 8, -20
  49              		.cfi_offset 9, -16
  50              		.cfi_offset 10, -12
  51              		.cfi_offset 11, -8
  52              		.cfi_offset 14, -4
  74:../../Middlewares/AI_Runtime/Npu/ll_aton/ll_sw_float.c ****                        sw_info->general.input.mem.start_offset, sw_info->general.input.dim.num_elem
  75:../../Middlewares/AI_Runtime/Npu/ll_aton/ll_sw_float.c ****   AI_ARRAY_OBJ_DECLARE(conv_weights_array, FORMAT, sw_info->weights.mem.start_offset, sw_info->weig
  76:../../Middlewares/AI_Runtime/Npu/ll_aton/ll_sw_float.c ****                        sw_info->weights.dim.num_elem, )
  77:../../Middlewares/AI_Runtime/Npu/ll_aton/ll_sw_float.c ****   AI_ARRAY_OBJ_DECLARE(conv_output_array, FORMAT, sw_info->general.output.mem.start_offset,
  78:../../Middlewares/AI_Runtime/Npu/ll_aton/ll_sw_float.c ****                        sw_info->general.output.mem.start_offset, sw_info->general.output.dim.num_el
  79:../../Middlewares/AI_Runtime/Npu/ll_aton/ll_sw_float.c **** 
  80:../../Middlewares/AI_Runtime/Npu/ll_aton/ll_sw_float.c ****   AI_TENSOR_OBJ_DECLARE(conv_weights, , 0x0, 4,
  53              		.loc 1 80 3 view .LVU4
  54 0004 0021     		movs	r1, #0
  55 0006 4FF0827E 		mov	lr, #17039360
  56 000a 40F2014A 		movw	r10, #1025
  77:../../Middlewares/AI_Runtime/Npu/ll_aton/ll_sw_float.c ****                        sw_info->general.output.mem.start_offset, sw_info->general.output.dim.num_el
  57              		.loc 1 77 3 view .LVU5
  58 000e 026C     		ldr	r2, [r0, #64]
  70:../../Middlewares/AI_Runtime/Npu/ll_aton/ll_sw_float.c ****   Conv_sw_info *sw_info = (Conv_sw_info *)sw_info_struct;
  59              		.loc 1 70 1 view .LVU6
  60 0010 FBB0     		sub	sp, sp, #492
  61              		.cfi_def_cfa_offset 528
  62              		.loc 1 80 3 view .LVU7
  63 0012 40F2024C 		movw	ip, #1026
  77:../../Middlewares/AI_Runtime/Npu/ll_aton/ll_sw_float.c ****                        sw_info->general.output.mem.start_offset, sw_info->general.output.dim.num_el
  64              		.loc 1 77 3 view .LVU8
  65 0016 1692     		str	r2, [sp, #88]
  66 0018 426D     		ldr	r2, [r0, #84]
  73:../../Middlewares/AI_Runtime/Npu/ll_aton/ll_sw_float.c ****                        sw_info->general.input.mem.start_offset, sw_info->general.input.dim.num_elem
  67              		.loc 1 73 3 view .LVU9
  68 001a 4369     		ldr	r3, [r0, #20]
  77:../../Middlewares/AI_Runtime/Npu/ll_aton/ll_sw_float.c ****                        sw_info->general.output.mem.start_offset, sw_info->general.output.dim.num_el
  69              		.loc 1 77 3 view .LVU10
  70 001c CDE91722 		strd	r2, r2, [sp, #92]
  71              		.loc 1 80 3 view .LVU11
  72 0020 426E     		ldr	r2, [r0, #100]
  73:../../Middlewares/AI_Runtime/Npu/ll_aton/ll_sw_float.c ****                        sw_info->general.input.mem.start_offset, sw_info->general.input.dim.num_elem
  73              		.loc 1 73 3 view .LVU12
  74 0022 0E93     		str	r3, [sp, #56]
  75              		.loc 1 80 3 view .LVU13
  76 0024 1992     		str	r2, [sp, #100]
  73:../../Middlewares/AI_Runtime/Npu/ll_aton/ll_sw_float.c ****                        sw_info->general.input.mem.start_offset, sw_info->general.input.dim.num_elem
  77              		.loc 1 73 3 view .LVU14
  78 0026 836A     		ldr	r3, [r0, #40]
  79              		.loc 1 80 3 view .LVU15
  80 0028 026E     		ldr	r2, [r0, #96]
  73:../../Middlewares/AI_Runtime/Npu/ll_aton/ll_sw_float.c ****                        sw_info->general.input.mem.start_offset, sw_info->general.input.dim.num_elem
  81              		.loc 1 73 3 view .LVU16
  82 002a CDE90F33 		strd	r3, r3, [sp, #60]
  75:../../Middlewares/AI_Runtime/Npu/ll_aton/ll_sw_float.c ****                        sw_info->weights.dim.num_elem, )
ARM GAS  C:\Users\Antonio\AppData\Local\Temp\cc6EBOZH.s 			page 4


  83              		.loc 1 75 3 is_stmt 1 view .LVU17
  84              		.loc 1 80 3 is_stmt 0 view .LVU18
  85 002e 1A92     		str	r2, [sp, #104]
  75:../../Middlewares/AI_Runtime/Npu/ll_aton/ll_sw_float.c ****                        sw_info->weights.dim.num_elem, )
  86              		.loc 1 75 3 view .LVU19
  87 0030 C36E     		ldr	r3, [r0, #108]
  88              		.loc 1 80 3 view .LVU20
  89 0032 C26D     		ldr	r2, [r0, #92]
  73:../../Middlewares/AI_Runtime/Npu/ll_aton/ll_sw_float.c ****                        sw_info->general.input.mem.start_offset, sw_info->general.input.dim.num_elem
  90              		.loc 1 73 3 view .LVU21
  91 0034 DFF840B2 		ldr	fp, .L5+8
  75:../../Middlewares/AI_Runtime/Npu/ll_aton/ll_sw_float.c ****                        sw_info->weights.dim.num_elem, )
  92              		.loc 1 75 3 view .LVU22
  93 0038 1293     		str	r3, [sp, #72]
  94              		.loc 1 80 3 view .LVU23
  95 003a 1B92     		str	r2, [sp, #108]
  75:../../Middlewares/AI_Runtime/Npu/ll_aton/ll_sw_float.c ****                        sw_info->weights.dim.num_elem, )
  96              		.loc 1 75 3 view .LVU24
  97 003c D0F88030 		ldr	r3, [r0, #128]
  98              		.loc 1 80 3 view .LVU25
  99 0040 826E     		ldr	r2, [r0, #104]
 100 0042 19AE     		add	r6, sp, #100
  75:../../Middlewares/AI_Runtime/Npu/ll_aton/ll_sw_float.c ****                        sw_info->weights.dim.num_elem, )
 101              		.loc 1 75 3 view .LVU26
 102 0044 CDE91333 		strd	r3, r3, [sp, #76]
  77:../../Middlewares/AI_Runtime/Npu/ll_aton/ll_sw_float.c ****                        sw_info->general.output.mem.start_offset, sw_info->general.output.dim.num_el
 103              		.loc 1 77 3 is_stmt 1 view .LVU27
 104              		.loc 1 80 3 view .LVU28
 105 0048 1C92     		str	r2, [sp, #112]
 106 004a CDE9411E 		strd	r1, lr, [sp, #260]
  73:../../Middlewares/AI_Runtime/Npu/ll_aton/ll_sw_float.c ****                        sw_info->general.input.mem.start_offset, sw_info->general.input.dim.num_elem
 107              		.loc 1 73 3 is_stmt 0 view .LVU29
 108 004e CDF834B0 		str	fp, [sp, #52]
  75:../../Middlewares/AI_Runtime/Npu/ll_aton/ll_sw_float.c ****                        sw_info->weights.dim.num_elem, )
 109              		.loc 1 75 3 view .LVU30
 110 0052 CDF844B0 		str	fp, [sp, #68]
  77:../../Middlewares/AI_Runtime/Npu/ll_aton/ll_sw_float.c ****                        sw_info->general.output.mem.start_offset, sw_info->general.output.dim.num_el
 111              		.loc 1 77 3 view .LVU31
 112 0056 CDF854B0 		str	fp, [sp, #84]
 113              		.loc 1 80 3 view .LVU32
 114 005a CDF80CA1 		str	r10, [sp, #268]
 115 005e 4496     		str	r6, [sp, #272]
 116 0060 C26F     		ldr	r2, [r0, #124]
  75:../../Middlewares/AI_Runtime/Npu/ll_aton/ll_sw_float.c ****                        sw_info->weights.dim.num_elem, )
 117              		.loc 1 75 3 view .LVU33
 118 0062 11AD     		add	r5, sp, #68
 119              		.loc 1 80 3 view .LVU34
 120 0064 CDE91D22 		strd	r2, r2, [sp, #116]
 121 0068 426F     		ldr	r2, [r0, #116]
 122 006a 1DAE     		add	r6, sp, #116
 123 006c 1F92     		str	r2, [sp, #124]
 124 006e 026F     		ldr	r2, [r0, #112]
 125 0070 CDE94665 		strd	r6, r5, [sp, #280]
  81:../../Middlewares/AI_Runtime/Npu/ll_aton/ll_sw_float.c ****                         SHAPE_INIT(sw_info->weights.dim.tensor_b, sw_info->weights.dim.tensor_h,
  82:../../Middlewares/AI_Runtime/Npu/ll_aton/ll_sw_float.c ****                                    sw_info->weights.dim.tensor_w, sw_info->weights.dim.tensor_c),
  83:../../Middlewares/AI_Runtime/Npu/ll_aton/ll_sw_float.c ****                         STRIDE_INIT(sw_info->weights.stride.h, sw_info->weights.stride.w, sw_info->
  84:../../Middlewares/AI_Runtime/Npu/ll_aton/ll_sw_float.c ****                                     sw_info->weights.stride.b),
ARM GAS  C:\Users\Antonio\AppData\Local\Temp\cc6EBOZH.s 			page 5


  85:../../Middlewares/AI_Runtime/Npu/ll_aton/ll_sw_float.c ****                         1, &conv_weights_array, NULL);
 126              		.loc 1 85 54 is_stmt 1 view .LVU35
  86:../../Middlewares/AI_Runtime/Npu/ll_aton/ll_sw_float.c ****   AI_TENSOR_OBJ_DECLARE(input_output, , 0x0, 4,
 127              		.loc 1 86 3 view .LVU36
  80:../../Middlewares/AI_Runtime/Npu/ll_aton/ll_sw_float.c ****                         SHAPE_INIT(sw_info->weights.dim.tensor_b, sw_info->weights.dim.tensor_h,
 128              		.loc 1 80 3 is_stmt 0 view .LVU37
 129 0074 2092     		str	r2, [sp, #128]
 130              		.loc 1 86 3 view .LVU38
 131 0076 0269     		ldr	r2, [r0, #16]
 132 0078 21AD     		add	r5, sp, #132
 133 007a 2192     		str	r2, [sp, #132]
 134 007c C268     		ldr	r2, [r0, #12]
 135 007e CDE94B5C 		strd	r5, ip, [sp, #300]
 136 0082 2292     		str	r2, [sp, #136]
 137 0084 8268     		ldr	r2, [r0, #8]
  73:../../Middlewares/AI_Runtime/Npu/ll_aton/ll_sw_float.c ****                        sw_info->general.input.mem.start_offset, sw_info->general.input.dim.num_elem
 138              		.loc 1 73 3 view .LVU39
 139 0086 0DAC     		add	r4, sp, #52
 140              		.loc 1 86 3 view .LVU40
 141 0088 2392     		str	r2, [sp, #140]
 142 008a 4268     		ldr	r2, [r0, #4]
 143 008c 25AD     		add	r5, sp, #148
 144 008e 2492     		str	r2, [sp, #144]
 145 0090 426A     		ldr	r2, [r0, #36]
 146 0092 CDE9481E 		strd	r1, lr, [sp, #288]
 147 0096 2592     		str	r2, [sp, #148]
 148 0098 026A     		ldr	r2, [r0, #32]
  80:../../Middlewares/AI_Runtime/Npu/ll_aton/ll_sw_float.c ****                         SHAPE_INIT(sw_info->weights.dim.tensor_b, sw_info->weights.dim.tensor_h,
 149              		.loc 1 80 3 view .LVU41
 150 009a CDF814C1 		str	ip, [sp, #276]
 151              		.loc 1 86 3 view .LVU42
 152 009e 2692     		str	r2, [sp, #152]
 153 00a0 C269     		ldr	r2, [r0, #28]
 154 00a2 CDF828A1 		str	r10, [sp, #296]
 155 00a6 2792     		str	r2, [sp, #156]
 156 00a8 8269     		ldr	r2, [r0, #24]
  77:../../Middlewares/AI_Runtime/Npu/ll_aton/ll_sw_float.c ****                        sw_info->general.output.mem.start_offset, sw_info->general.output.dim.num_el
 157              		.loc 1 77 3 view .LVU43
 158 00aa 15AB     		add	r3, sp, #84
 159              		.loc 1 86 3 view .LVU44
 160 00ac 2892     		str	r2, [sp, #160]
 161 00ae CDE94D54 		strd	r5, r4, [sp, #308]
  87:../../Middlewares/AI_Runtime/Npu/ll_aton/ll_sw_float.c ****                         SHAPE_INIT(sw_info->general.input.dim.tensor_h, sw_info->general.input.dim.
  88:../../Middlewares/AI_Runtime/Npu/ll_aton/ll_sw_float.c ****                                    sw_info->general.input.dim.tensor_c, sw_info->general.input.dim.
  89:../../Middlewares/AI_Runtime/Npu/ll_aton/ll_sw_float.c ****                         STRIDE_INIT(sw_info->general.input.stride.h, sw_info->general.input.stride.
  90:../../Middlewares/AI_Runtime/Npu/ll_aton/ll_sw_float.c ****                                     sw_info->general.input.stride.c, sw_info->general.input.stride.
  91:../../Middlewares/AI_Runtime/Npu/ll_aton/ll_sw_float.c ****                         1, &input_output_array, NULL);
 162              		.loc 1 91 54 is_stmt 1 view .LVU45
  92:../../Middlewares/AI_Runtime/Npu/ll_aton/ll_sw_float.c ****   AI_TENSOR_OBJ_DECLARE(conv_output, , 0x0, 4,
 163              		.loc 1 92 3 view .LVU46
 164              	.LBB2:
  93:../../Middlewares/AI_Runtime/Npu/ll_aton/ll_sw_float.c ****                         SHAPE_INIT(sw_info->general.output.dim.tensor_h, sw_info->general.output.di
  94:../../Middlewares/AI_Runtime/Npu/ll_aton/ll_sw_float.c ****                                    sw_info->general.output.dim.tensor_c, sw_info->general.output.di
  95:../../Middlewares/AI_Runtime/Npu/ll_aton/ll_sw_float.c ****                         STRIDE_INIT(sw_info->general.output.stride.h, sw_info->general.output.strid
  96:../../Middlewares/AI_Runtime/Npu/ll_aton/ll_sw_float.c ****                                     sw_info->general.output.stride.c, sw_info->general.output.strid
  97:../../Middlewares/AI_Runtime/Npu/ll_aton/ll_sw_float.c ****                         1, &conv_output_array, NULL);
  98:../../Middlewares/AI_Runtime/Npu/ll_aton/ll_sw_float.c **** 
ARM GAS  C:\Users\Antonio\AppData\Local\Temp\cc6EBOZH.s 			page 6


  99:../../Middlewares/AI_Runtime/Npu/ll_aton/ll_sw_float.c ****   if (sw_info->bias.mem.start_offset != NULL)
 100:../../Middlewares/AI_Runtime/Npu/ll_aton/ll_sw_float.c ****   {
 101:../../Middlewares/AI_Runtime/Npu/ll_aton/ll_sw_float.c ****     AI_ARRAY_OBJ_DECLARE(conv_bias_array, FORMAT, sw_info->bias.mem.start_offset, sw_info->bias.mem
 102:../../Middlewares/AI_Runtime/Npu/ll_aton/ll_sw_float.c ****                          sw_info->bias.dim.num_elem, )
 103:../../Middlewares/AI_Runtime/Npu/ll_aton/ll_sw_float.c ****     AI_TENSOR_OBJ_DECLARE(
 104:../../Middlewares/AI_Runtime/Npu/ll_aton/ll_sw_float.c ****         conv_bias, , 0x0, 4,
 105:../../Middlewares/AI_Runtime/Npu/ll_aton/ll_sw_float.c ****         SHAPE_INIT(sw_info->bias.dim.tensor_h, sw_info->bias.dim.tensor_w, sw_info->bias.dim.tensor
 106:../../Middlewares/AI_Runtime/Npu/ll_aton/ll_sw_float.c ****                    sw_info->bias.dim.tensor_b),
 107:../../Middlewares/AI_Runtime/Npu/ll_aton/ll_sw_float.c ****         STRIDE_INIT(sw_info->bias.stride.h, sw_info->bias.stride.w, sw_info->bias.stride.c, sw_info
 108:../../Middlewares/AI_Runtime/Npu/ll_aton/ll_sw_float.c ****         &conv_bias_array, NULL);
 109:../../Middlewares/AI_Runtime/Npu/ll_aton/ll_sw_float.c **** 
 110:../../Middlewares/AI_Runtime/Npu/ll_aton/ll_sw_float.c ****     // tensor chain initialization
 111:../../Middlewares/AI_Runtime/Npu/ll_aton/ll_sw_float.c ****     AI_TENSOR_CHAIN_OBJ_DECLARE(conv_chain, , 4, AI_TENSOR_LIST_OBJ_INIT(AI_FLAG_NONE, 1, TENSORS(&
 112:../../Middlewares/AI_Runtime/Npu/ll_aton/ll_sw_float.c ****                                 AI_TENSOR_LIST_OBJ_INIT(AI_FLAG_NONE, 1, TENSORS(&conv_output)),
 113:../../Middlewares/AI_Runtime/Npu/ll_aton/ll_sw_float.c ****                                 AI_TENSOR_LIST_OBJ_INIT(AI_FLAG_NONE, 3, TENSORS(&conv_weights, &co
 114:../../Middlewares/AI_Runtime/Npu/ll_aton/ll_sw_float.c ****                                 AI_TENSOR_LIST_OBJ_INIT(AI_FLAG_NONE, 2, TENSORS(NULL, NULL)))
 115:../../Middlewares/AI_Runtime/Npu/ll_aton/ll_sw_float.c ****     // layer initialization
 116:../../Middlewares/AI_Runtime/Npu/ll_aton/ll_sw_float.c ****     AI_LAYER_OBJ_DECLARE(conv_layer, 1, CONV2D_TYPE, 0x0, NULL, conv2d, forward_conv2d_if32of32wf32
 165              		.loc 1 116 5 is_stmt 0 view .LVU47
 166 00b2 D0E94878 		ldrd	r7, r8, [r0, #288]
 167 00b6 D0E94C56 		ldrd	r5, r6, [r0, #304]
 168              	.LBE2:
  92:../../Middlewares/AI_Runtime/Npu/ll_aton/ll_sw_float.c ****   AI_TENSOR_OBJ_DECLARE(conv_output, , 0x0, 4,
 169              		.loc 1 92 3 view .LVU48
 170 00ba C26B     		ldr	r2, [r0, #60]
 171 00bc 29AC     		add	r4, sp, #164
 172 00be 2992     		str	r2, [sp, #164]
 173 00c0 826B     		ldr	r2, [r0, #56]
 174 00c2 CDE9524C 		strd	r4, ip, [sp, #328]
 175 00c6 2A92     		str	r2, [sp, #168]
 176 00c8 426B     		ldr	r2, [r0, #52]
 177 00ca 2DAC     		add	r4, sp, #180
 178 00cc 2B92     		str	r2, [sp, #172]
 179 00ce 026B     		ldr	r2, [r0, #48]
 180 00d0 CDE95443 		strd	r4, r3, [sp, #336]
  97:../../Middlewares/AI_Runtime/Npu/ll_aton/ll_sw_float.c **** 
 181              		.loc 1 97 53 is_stmt 1 view .LVU49
  99:../../Middlewares/AI_Runtime/Npu/ll_aton/ll_sw_float.c ****   {
 182              		.loc 1 99 3 view .LVU50
  92:../../Middlewares/AI_Runtime/Npu/ll_aton/ll_sw_float.c ****                         SHAPE_INIT(sw_info->general.output.dim.tensor_h, sw_info->general.output.di
 183              		.loc 1 92 3 is_stmt 0 view .LVU51
 184 00d4 2C92     		str	r2, [sp, #176]
 185 00d6 026D     		ldr	r2, [r0, #80]
 186 00d8 CDE94F1E 		strd	r1, lr, [sp, #316]
 187 00dc 2D92     		str	r2, [sp, #180]
 188 00de C26C     		ldr	r2, [r0, #76]
  99:../../Middlewares/AI_Runtime/Npu/ll_aton/ll_sw_float.c ****   {
 189              		.loc 1 99 24 view .LVU52
 190 00e0 D0F8D830 		ldr	r3, [r0, #216]
  92:../../Middlewares/AI_Runtime/Npu/ll_aton/ll_sw_float.c ****                         SHAPE_INIT(sw_info->general.output.dim.tensor_h, sw_info->general.output.di
 191              		.loc 1 92 3 view .LVU53
 192 00e4 2E92     		str	r2, [sp, #184]
 193 00e6 826C     		ldr	r2, [r0, #72]
 194              	.LBB3:
 195              		.loc 1 116 5 view .LVU54
 196 00e8 D0F80C91 		ldr	r9, [r0, #268]
 197              	.LBE3:
ARM GAS  C:\Users\Antonio\AppData\Local\Temp\cc6EBOZH.s 			page 7


  92:../../Middlewares/AI_Runtime/Npu/ll_aton/ll_sw_float.c ****                         SHAPE_INIT(sw_info->general.output.dim.tensor_h, sw_info->general.output.di
 198              		.loc 1 92 3 view .LVU55
 199 00ec 2F92     		str	r2, [sp, #188]
 200 00ee 426C     		ldr	r2, [r0, #68]
 201 00f0 CDF844A1 		str	r10, [sp, #324]
 202 00f4 3092     		str	r2, [sp, #192]
 203              	.LBB4:
 204              		.loc 1 116 5 view .LVU56
 205 00f6 D0F81021 		ldr	r2, [r0, #272]
 206 00fa 0092     		str	r2, [sp]
 207 00fc D0F81421 		ldr	r2, [r0, #276]
 208 0100 0192     		str	r2, [sp, #4]
 209 0102 D0F81821 		ldr	r2, [r0, #280]
 210 0106 0292     		str	r2, [sp, #8]
 211 0108 D0F81C21 		ldr	r2, [r0, #284]
 212 010c 0392     		str	r2, [sp, #12]
 213              	.LBE4:
  99:../../Middlewares/AI_Runtime/Npu/ll_aton/ll_sw_float.c ****   {
 214              		.loc 1 99 6 view .LVU57
 215 010e 002B     		cmp	r3, #0
 216 0110 6ED0     		beq	.L2
 217              	.LBB5:
 101:../../Middlewares/AI_Runtime/Npu/ll_aton/ll_sw_float.c ****                          sw_info->bias.dim.num_elem, )
 218              		.loc 1 101 5 is_stmt 1 view .LVU58
 219 0112 D0F8C440 		ldr	r4, [r0, #196]
 220 0116 3493     		str	r3, [sp, #208]
 103:../../Middlewares/AI_Runtime/Npu/ll_aton/ll_sw_float.c ****         conv_bias, , 0x0, 4,
 221              		.loc 1 103 5 view .LVU59
 101:../../Middlewares/AI_Runtime/Npu/ll_aton/ll_sw_float.c ****                          sw_info->bias.dim.num_elem, )
 222              		.loc 1 101 5 is_stmt 0 view .LVU60
 223 0118 CDE93243 		strd	r4, r3, [sp, #200]
 103:../../Middlewares/AI_Runtime/Npu/ll_aton/ll_sw_float.c ****         conv_bias, , 0x0, 4,
 224              		.loc 1 103 5 view .LVU61
 225 011c 35AB     		add	r3, sp, #212
 226 011e CDE9593C 		strd	r3, ip, [sp, #356]
 101:../../Middlewares/AI_Runtime/Npu/ll_aton/ll_sw_float.c ****                          sw_info->bias.dim.num_elem, )
 227              		.loc 1 101 5 view .LVU62
 228 0122 31AA     		add	r2, sp, #196
 103:../../Middlewares/AI_Runtime/Npu/ll_aton/ll_sw_float.c ****         conv_bias, , 0x0, 4,
 229              		.loc 1 103 5 view .LVU63
 230 0124 39AB     		add	r3, sp, #228
 231 0126 CDE95B32 		strd	r3, r2, [sp, #364]
 108:../../Middlewares/AI_Runtime/Npu/ll_aton/ll_sw_float.c **** 
 232              		.loc 1 108 32 is_stmt 1 view .LVU64
 111:../../Middlewares/AI_Runtime/Npu/ll_aton/ll_sw_float.c ****                                 AI_TENSOR_LIST_OBJ_INIT(AI_FLAG_NONE, 1, TENSORS(&conv_output)),
 233              		.loc 1 111 5 view .LVU65
 234 012a 0423     		movs	r3, #4
 235 012c 0693     		str	r3, [sp, #24]
 236 012e 0123     		movs	r3, #1
 103:../../Middlewares/AI_Runtime/Npu/ll_aton/ll_sw_float.c ****         conv_bias, , 0x0, 4,
 237              		.loc 1 103 5 is_stmt 0 view .LVU66
 238 0130 D0F8C040 		ldr	r4, [r0, #192]
 111:../../Middlewares/AI_Runtime/Npu/ll_aton/ll_sw_float.c ****                                 AI_TENSOR_LIST_OBJ_INIT(AI_FLAG_NONE, 1, TENSORS(&conv_output)),
 239              		.loc 1 111 5 view .LVU67
 240 0134 48AA     		add	r2, sp, #288
 103:../../Middlewares/AI_Runtime/Npu/ll_aton/ll_sw_float.c ****         conv_bias, , 0x0, 4,
 241              		.loc 1 103 5 view .LVU68
ARM GAS  C:\Users\Antonio\AppData\Local\Temp\cc6EBOZH.s 			page 8


 242 0136 3594     		str	r4, [sp, #212]
 243 0138 D0F8BC40 		ldr	r4, [r0, #188]
 111:../../Middlewares/AI_Runtime/Npu/ll_aton/ll_sw_float.c ****                                 AI_TENSOR_LIST_OBJ_INIT(AI_FLAG_NONE, 1, TENSORS(&conv_output)),
 244              		.loc 1 111 5 view .LVU69
 245 013c 0492     		str	r2, [sp, #16]
 103:../../Middlewares/AI_Runtime/Npu/ll_aton/ll_sw_float.c ****         conv_bias, , 0x0, 4,
 246              		.loc 1 103 5 view .LVU70
 247 013e 3694     		str	r4, [sp, #216]
 248 0140 D0F8B840 		ldr	r4, [r0, #184]
 111:../../Middlewares/AI_Runtime/Npu/ll_aton/ll_sw_float.c ****                                 AI_TENSOR_LIST_OBJ_INIT(AI_FLAG_NONE, 1, TENSORS(&conv_output)),
 249              		.loc 1 111 5 view .LVU71
 250 0144 04AA     		add	r2, sp, #16
 103:../../Middlewares/AI_Runtime/Npu/ll_aton/ll_sw_float.c ****         conv_bias, , 0x0, 4,
 251              		.loc 1 103 5 view .LVU72
 252 0146 3794     		str	r4, [sp, #220]
 253 0148 D0F8B440 		ldr	r4, [r0, #180]
 254 014c CDE9561E 		strd	r1, lr, [sp, #344]
 255 0150 3894     		str	r4, [sp, #224]
 256 0152 D0F8D440 		ldr	r4, [r0, #212]
 101:../../Middlewares/AI_Runtime/Npu/ll_aton/ll_sw_float.c ****                          sw_info->bias.dim.num_elem, )
 257              		.loc 1 101 5 view .LVU73
 258 0156 CDF8C4B0 		str	fp, [sp, #196]
 103:../../Middlewares/AI_Runtime/Npu/ll_aton/ll_sw_float.c ****         conv_bias, , 0x0, 4,
 259              		.loc 1 103 5 view .LVU74
 260 015a 3994     		str	r4, [sp, #228]
 261 015c D0F8D040 		ldr	r4, [r0, #208]
 111:../../Middlewares/AI_Runtime/Npu/ll_aton/ll_sw_float.c ****                                 AI_TENSOR_LIST_OBJ_INIT(AI_FLAG_NONE, 1, TENSORS(&conv_output)),
 262              		.loc 1 111 5 view .LVU75
 263 0160 5D93     		str	r3, [sp, #372]
 103:../../Middlewares/AI_Runtime/Npu/ll_aton/ll_sw_float.c ****         conv_bias, , 0x0, 4,
 264              		.loc 1 103 5 view .LVU76
 265 0162 3A94     		str	r4, [sp, #232]
 266 0164 D0F8CC40 		ldr	r4, [r0, #204]
 267 0168 D0F8C800 		ldr	r0, [r0, #200]
 268              	.LVL1:
 103:../../Middlewares/AI_Runtime/Npu/ll_aton/ll_sw_float.c ****         conv_bias, , 0x0, 4,
 269              		.loc 1 103 5 view .LVU77
 270 016c CDF860A1 		str	r10, [sp, #352]
 271 0170 3C90     		str	r0, [sp, #240]
 272 0172 3B94     		str	r4, [sp, #236]
 111:../../Middlewares/AI_Runtime/Npu/ll_aton/ll_sw_float.c ****                                 AI_TENSOR_LIST_OBJ_INIT(AI_FLAG_NONE, 1, TENSORS(&conv_output)),
 273              		.loc 1 111 5 view .LVU78
 274 0174 CDE95E21 		strd	r2, r1, [sp, #376]
 275 0178 6093     		str	r3, [sp, #384]
 276 017a 05AB     		add	r3, sp, #20
 277 017c CDE96131 		strd	r3, r1, [sp, #388]
 278 0180 0323     		movs	r3, #3
 279 0182 6393     		str	r3, [sp, #396]
 280 0184 0AAB     		add	r3, sp, #40
 281 0186 CDE96431 		strd	r3, r1, [sp, #400]
 282 018a 0223     		movs	r3, #2
 283 018c 4FAA     		add	r2, sp, #316
 284 018e 6693     		str	r3, [sp, #408]
 285 0190 08AB     		add	r3, sp, #32
 286 0192 CDE96731 		strd	r3, r1, [sp, #412]
 287 0196 0592     		str	r2, [sp, #20]
 288 0198 5DAB     		add	r3, sp, #372
ARM GAS  C:\Users\Antonio\AppData\Local\Temp\cc6EBOZH.s 			page 9


 289 019a 41AA     		add	r2, sp, #260
 290 019c 0A92     		str	r2, [sp, #40]
 291 019e 0793     		str	r3, [sp, #28]
 292              		.loc 1 116 5 is_stmt 1 view .LVU79
 111:../../Middlewares/AI_Runtime/Npu/ll_aton/ll_sw_float.c ****                                 AI_TENSOR_LIST_OBJ_INIT(AI_FLAG_NONE, 1, TENSORS(&conv_output)),
 293              		.loc 1 111 5 is_stmt 0 view .LVU80
 294 01a0 56AA     		add	r2, sp, #344
 295              		.loc 1 116 5 view .LVU81
 296 01a2 334B     		ldr	r3, .L5
 111:../../Middlewares/AI_Runtime/Npu/ll_aton/ll_sw_float.c ****                                 AI_TENSOR_LIST_OBJ_INIT(AI_FLAG_NONE, 1, TENSORS(&conv_output)),
 297              		.loc 1 111 5 view .LVU82
 298 01a4 CDE90B21 		strd	r2, r1, [sp, #44]
 299              		.loc 1 116 5 view .LVU83
 300 01a8 6AA8     		add	r0, sp, #424
 301 01aa 4022     		movs	r2, #64
 302 01ac 6993     		str	r3, [sp, #420]
 111:../../Middlewares/AI_Runtime/Npu/ll_aton/ll_sw_float.c ****                                 AI_TENSOR_LIST_OBJ_INIT(AI_FLAG_NONE, 1, TENSORS(&conv_output)),
 303              		.loc 1 111 5 view .LVU84
 304 01ae CDE90811 		strd	r1, r1, [sp, #32]
 305              		.loc 1 116 5 view .LVU85
 306 01b2 FFF7FEFF 		bl	memset
 307              	.LVL2:
 308 01b6 2F4B     		ldr	r3, .L5+4
 111:../../Middlewares/AI_Runtime/Npu/ll_aton/ll_sw_float.c ****                                 AI_TENSOR_LIST_OBJ_INIT(AI_FLAG_NONE, 1, TENSORS(&conv_output)),
 309              		.loc 1 111 5 view .LVU86
 310 01b8 0DF1180B 		add	fp, sp, #24
 311              		.loc 1 116 5 view .LVU87
 312 01bc CDE96E3B 		strd	r3, fp, [sp, #440]
 313 01c0 009B     		ldr	r3, [sp]
 314 01c2 CDE97387 		strd	r8, r7, [sp, #460]
 315 01c6 3D93     		str	r3, [sp, #244]
 316 01c8 019B     		ldr	r3, [sp, #4]
 317 01ca CDE97565 		strd	r6, r5, [sp, #468]
 318 01ce 3E93     		str	r3, [sp, #248]
 319 01d0 029B     		ldr	r3, [sp, #8]
 320 01d2 CDF8C091 		str	r9, [sp, #448]
 321 01d6 3F93     		str	r3, [sp, #252]
 322 01d8 039B     		ldr	r3, [sp, #12]
 323 01da CDF8DCA1 		str	r10, [sp, #476]
 324 01de 4093     		str	r3, [sp, #256]
 325 01e0 3DAB     		add	r3, sp, #244
 326              	.L4:
 327              	.LBE5:
 328              	.LBB6:
 117:../../Middlewares/AI_Runtime/Npu/ll_aton/ll_sw_float.c ****                          NULL, NULL, , .groups = sw_info->ngroup, .nl_params = NULL, .nl_func = NUL
 118:../../Middlewares/AI_Runtime/Npu/ll_aton/ll_sw_float.c ****                          .filter_stride = SHAPE_2D_INIT(sw_info->strides[0],
 119:../../Middlewares/AI_Runtime/Npu/ll_aton/ll_sw_float.c ****                                                         sw_info->strides[1]), // controlla perche' 
 120:../../Middlewares/AI_Runtime/Npu/ll_aton/ll_sw_float.c ****                          .filter_pad =
 121:../../Middlewares/AI_Runtime/Npu/ll_aton/ll_sw_float.c ****                              SHAPE_INIT(sw_info->pads[3], sw_info->pads[2], sw_info->pads[1], sw_in
 122:../../Middlewares/AI_Runtime/Npu/ll_aton/ll_sw_float.c ****                          .dilation = SHAPE_2D_INIT(sw_info->dilations[0], sw_info->dilations[1]), )
 123:../../Middlewares/AI_Runtime/Npu/ll_aton/ll_sw_float.c ****     conv_layer.forward(AI_LAYER_OBJ(&conv_layer));
 124:../../Middlewares/AI_Runtime/Npu/ll_aton/ll_sw_float.c ****   }
 125:../../Middlewares/AI_Runtime/Npu/ll_aton/ll_sw_float.c ****   else
 126:../../Middlewares/AI_Runtime/Npu/ll_aton/ll_sw_float.c ****   {
 127:../../Middlewares/AI_Runtime/Npu/ll_aton/ll_sw_float.c ****     // tensor chain initialization
 128:../../Middlewares/AI_Runtime/Npu/ll_aton/ll_sw_float.c ****     AI_TENSOR_CHAIN_OBJ_DECLARE(conv_chain, , 4, AI_TENSOR_LIST_OBJ_INIT(AI_FLAG_NONE, 1, TENSORS(&
 129:../../Middlewares/AI_Runtime/Npu/ll_aton/ll_sw_float.c ****                                 AI_TENSOR_LIST_OBJ_INIT(AI_FLAG_NONE, 1, TENSORS(&conv_output)),
ARM GAS  C:\Users\Antonio\AppData\Local\Temp\cc6EBOZH.s 			page 10


 130:../../Middlewares/AI_Runtime/Npu/ll_aton/ll_sw_float.c ****                                 AI_TENSOR_LIST_OBJ_INIT(AI_FLAG_NONE, 3, TENSORS(&conv_weights, NUL
 131:../../Middlewares/AI_Runtime/Npu/ll_aton/ll_sw_float.c ****                                 AI_TENSOR_LIST_OBJ_INIT(AI_FLAG_NONE, 2, TENSORS(NULL, NULL)))
 132:../../Middlewares/AI_Runtime/Npu/ll_aton/ll_sw_float.c ****     // layer initialization
 133:../../Middlewares/AI_Runtime/Npu/ll_aton/ll_sw_float.c ****     AI_LAYER_OBJ_DECLARE(conv_layer, 1, CONV2D_TYPE, 0x0, NULL, conv2d, forward_conv2d_if32of32wf32
 134:../../Middlewares/AI_Runtime/Npu/ll_aton/ll_sw_float.c ****                          NULL, NULL, , .groups = sw_info->ngroup, .nl_params = NULL, .nl_func = NUL
 135:../../Middlewares/AI_Runtime/Npu/ll_aton/ll_sw_float.c ****                          .filter_stride = SHAPE_2D_INIT(sw_info->strides[0],
 136:../../Middlewares/AI_Runtime/Npu/ll_aton/ll_sw_float.c ****                                                         sw_info->strides[1]), // controlla perche' 
 137:../../Middlewares/AI_Runtime/Npu/ll_aton/ll_sw_float.c ****                          .filter_pad =
 138:../../Middlewares/AI_Runtime/Npu/ll_aton/ll_sw_float.c ****                              SHAPE_INIT(sw_info->pads[3], sw_info->pads[2], sw_info->pads[1], sw_in
 139:../../Middlewares/AI_Runtime/Npu/ll_aton/ll_sw_float.c ****                          .dilation = SHAPE_2D_INIT(sw_info->dilations[0], sw_info->dilations[1]), )
 140:../../Middlewares/AI_Runtime/Npu/ll_aton/ll_sw_float.c ****     conv_layer.forward(AI_LAYER_OBJ(&conv_layer));
 329              		.loc 1 140 5 view .LVU88
 330 01e2 69A8     		add	r0, sp, #420
 133:../../Middlewares/AI_Runtime/Npu/ll_aton/ll_sw_float.c ****                          NULL, NULL, , .groups = sw_info->ngroup, .nl_params = NULL, .nl_func = NUL
 331              		.loc 1 133 5 view .LVU89
 332 01e4 7893     		str	r3, [sp, #480]
 333              		.loc 1 140 5 is_stmt 1 view .LVU90
 334 01e6 FFF7FEFF 		bl	forward_conv2d_if32of32wf32_group
 335              	.LVL3:
 336              	.LBE6:
 141:../../Middlewares/AI_Runtime/Npu/ll_aton/ll_sw_float.c ****   }
 142:../../Middlewares/AI_Runtime/Npu/ll_aton/ll_sw_float.c **** }
 337              		.loc 1 142 1 is_stmt 0 view .LVU91
 338 01ea 7BB0     		add	sp, sp, #492
 339              		.cfi_remember_state
 340              		.cfi_def_cfa_offset 36
 341              		@ sp needed
 342 01ec BDE8F08F 		pop	{r4, r5, r6, r7, r8, r9, r10, fp, pc}
 343              	.LVL4:
 344              	.L2:
 345              		.cfi_restore_state
 346              	.LBB7:
 128:../../Middlewares/AI_Runtime/Npu/ll_aton/ll_sw_float.c ****                                 AI_TENSOR_LIST_OBJ_INIT(AI_FLAG_NONE, 1, TENSORS(&conv_output)),
 347              		.loc 1 128 5 is_stmt 1 view .LVU92
 348 01f0 0422     		movs	r2, #4
 349 01f2 3592     		str	r2, [sp, #212]
 350 01f4 0122     		movs	r2, #1
 351 01f6 5D92     		str	r2, [sp, #372]
 352 01f8 6092     		str	r2, [sp, #384]
 353 01fa 31AA     		add	r2, sp, #196
 354 01fc CDE96123 		strd	r2, r3, [sp, #388]
 355 0200 0322     		movs	r2, #3
 356 0202 6392     		str	r2, [sp, #396]
 357 0204 41AA     		add	r2, sp, #260
 358 0206 CDE93D23 		strd	r2, r3, [sp, #244]
 359 020a 3DAA     		add	r2, sp, #244
 360 020c CDE96423 		strd	r2, r3, [sp, #400]
 361 0210 0222     		movs	r2, #2
 362 0212 6692     		str	r2, [sp, #408]
 363 0214 39AA     		add	r2, sp, #228
 364 0216 CDE96723 		strd	r2, r3, [sp, #412]
 365 021a 5DAA     		add	r2, sp, #372
 366 021c 0AA9     		add	r1, sp, #40
 367 021e 3692     		str	r2, [sp, #216]
 133:../../Middlewares/AI_Runtime/Npu/ll_aton/ll_sw_float.c ****                          NULL, NULL, , .groups = sw_info->ngroup, .nl_params = NULL, .nl_func = NUL
 368              		.loc 1 133 5 view .LVU93
 369 0220 134A     		ldr	r2, .L5
ARM GAS  C:\Users\Antonio\AppData\Local\Temp\cc6EBOZH.s 			page 11


 128:../../Middlewares/AI_Runtime/Npu/ll_aton/ll_sw_float.c ****                                 AI_TENSOR_LIST_OBJ_INIT(AI_FLAG_NONE, 1, TENSORS(&conv_output)),
 370              		.loc 1 128 5 is_stmt 0 view .LVU94
 371 0222 CDE95E13 		strd	r1, r3, [sp, #376]
 372 0226 48A8     		add	r0, sp, #288
 373              	.LVL5:
 128:../../Middlewares/AI_Runtime/Npu/ll_aton/ll_sw_float.c ****                                 AI_TENSOR_LIST_OBJ_INIT(AI_FLAG_NONE, 1, TENSORS(&conv_output)),
 374              		.loc 1 128 5 view .LVU95
 375 0228 4FA9     		add	r1, sp, #316
 376 022a 0A90     		str	r0, [sp, #40]
 377 022c 3191     		str	r1, [sp, #196]
 133:../../Middlewares/AI_Runtime/Npu/ll_aton/ll_sw_float.c ****                          NULL, NULL, , .groups = sw_info->ngroup, .nl_params = NULL, .nl_func = NUL
 378              		.loc 1 133 5 view .LVU96
 379 022e 6992     		str	r2, [sp, #420]
 380 0230 1946     		mov	r1, r3
 381 0232 4022     		movs	r2, #64
 382 0234 6AA8     		add	r0, sp, #424
 128:../../Middlewares/AI_Runtime/Npu/ll_aton/ll_sw_float.c ****                                 AI_TENSOR_LIST_OBJ_INIT(AI_FLAG_NONE, 1, TENSORS(&conv_output)),
 383              		.loc 1 128 5 view .LVU97
 384 0236 CDE93933 		strd	r3, r3, [sp, #228]
 385 023a 3F93     		str	r3, [sp, #252]
 133:../../Middlewares/AI_Runtime/Npu/ll_aton/ll_sw_float.c ****                          NULL, NULL, , .groups = sw_info->ngroup, .nl_params = NULL, .nl_func = NUL
 386              		.loc 1 133 5 view .LVU98
 387 023c FFF7FEFF 		bl	memset
 388              	.LVL6:
 389 0240 0C4B     		ldr	r3, .L5+4
 128:../../Middlewares/AI_Runtime/Npu/ll_aton/ll_sw_float.c ****                                 AI_TENSOR_LIST_OBJ_INIT(AI_FLAG_NONE, 1, TENSORS(&conv_output)),
 390              		.loc 1 128 5 view .LVU99
 391 0242 0DF1D40B 		add	fp, sp, #212
 133:../../Middlewares/AI_Runtime/Npu/ll_aton/ll_sw_float.c ****                          NULL, NULL, , .groups = sw_info->ngroup, .nl_params = NULL, .nl_func = NUL
 392              		.loc 1 133 5 view .LVU100
 393 0246 CDE96E3B 		strd	r3, fp, [sp, #440]
 394 024a 009B     		ldr	r3, [sp]
 395 024c CDE97387 		strd	r8, r7, [sp, #460]
 396 0250 5693     		str	r3, [sp, #344]
 397 0252 019B     		ldr	r3, [sp, #4]
 398 0254 CDE97565 		strd	r6, r5, [sp, #468]
 399 0258 5793     		str	r3, [sp, #348]
 400 025a 029B     		ldr	r3, [sp, #8]
 401 025c CDF8C091 		str	r9, [sp, #448]
 402 0260 5893     		str	r3, [sp, #352]
 403 0262 039B     		ldr	r3, [sp, #12]
 404 0264 CDF8DCA1 		str	r10, [sp, #476]
 405 0268 5993     		str	r3, [sp, #356]
 406 026a 56AB     		add	r3, sp, #344
 407 026c B9E7     		b	.L4
 408              	.L6:
 409 026e 00BF     		.align	2
 410              	.L5:
 411 0270 03010100 		.word	65795
 412 0274 00000000 		.word	forward_conv2d_if32of32wf32_group
 413 0278 40108200 		.word	8523840
 414              	.LBE7:
 415              		.cfi_endproc
 416              	.LFE15:
 418              		.section	.text.ll_sw_forward_gemm,"ax",%progbits
 419              		.align	1
 420              		.global	ll_sw_forward_gemm
ARM GAS  C:\Users\Antonio\AppData\Local\Temp\cc6EBOZH.s 			page 12


 421              		.syntax unified
 422              		.thumb
 423              		.thumb_func
 425              	ll_sw_forward_gemm:
 426              	.LVL7:
 427              	.LFB16:
 143:../../Middlewares/AI_Runtime/Npu/ll_aton/ll_sw_float.c **** 
 144:../../Middlewares/AI_Runtime/Npu/ll_aton/ll_sw_float.c **** //##########################################################################################
 145:../../Middlewares/AI_Runtime/Npu/ll_aton/ll_sw_float.c **** /** GEMM forward function */
 146:../../Middlewares/AI_Runtime/Npu/ll_aton/ll_sw_float.c **** void ll_sw_forward_gemm(/* int processor, */ void *sw_info_struct)
 147:../../Middlewares/AI_Runtime/Npu/ll_aton/ll_sw_float.c **** {
 428              		.loc 1 147 1 is_stmt 1 view -0
 429              		.cfi_startproc
 430              		@ args = 0, pretend = 0, frame = 424
 431              		@ frame_needed = 0, uses_anonymous_args = 0
 148:../../Middlewares/AI_Runtime/Npu/ll_aton/ll_sw_float.c ****   Gemm_sw_info *sw_info = (Gemm_sw_info *)sw_info_struct;
 432              		.loc 1 148 3 view .LVU102
 149:../../Middlewares/AI_Runtime/Npu/ll_aton/ll_sw_float.c ****   // array init
 150:../../Middlewares/AI_Runtime/Npu/ll_aton/ll_sw_float.c ****   AI_ARRAY_OBJ_DECLARE(input_output_array, FORMAT, sw_info->general.input.mem.start_offset,
 433              		.loc 1 150 3 view .LVU103
 147:../../Middlewares/AI_Runtime/Npu/ll_aton/ll_sw_float.c ****   Gemm_sw_info *sw_info = (Gemm_sw_info *)sw_info_struct;
 434              		.loc 1 147 1 is_stmt 0 view .LVU104
 435 0000 2DE9F041 		push	{r4, r5, r6, r7, r8, lr}
 436              		.cfi_def_cfa_offset 24
 437              		.cfi_offset 4, -24
 438              		.cfi_offset 5, -20
 439              		.cfi_offset 6, -16
 440              		.cfi_offset 7, -12
 441              		.cfi_offset 8, -8
 442              		.cfi_offset 14, -4
 443              		.loc 1 150 3 view .LVU105
 444 0004 694B     		ldr	r3, .L8
 147:../../Middlewares/AI_Runtime/Npu/ll_aton/ll_sw_float.c ****   Gemm_sw_info *sw_info = (Gemm_sw_info *)sw_info_struct;
 445              		.loc 1 147 1 view .LVU106
 446 0006 EAB0     		sub	sp, sp, #424
 447              		.cfi_def_cfa_offset 448
 448              		.loc 1 150 3 view .LVU107
 449 0008 0893     		str	r3, [sp, #32]
 151:../../Middlewares/AI_Runtime/Npu/ll_aton/ll_sw_float.c ****                        sw_info->general.input.mem.start_offset, sw_info->general.input.dim.num_elem
 152:../../Middlewares/AI_Runtime/Npu/ll_aton/ll_sw_float.c **** 
 153:../../Middlewares/AI_Runtime/Npu/ll_aton/ll_sw_float.c ****   AI_ARRAY_OBJ_DECLARE(gemm_operand_b_array, FORMAT, sw_info->operand_b.mem.start_offset,
 450              		.loc 1 153 3 view .LVU108
 451 000a 0C93     		str	r3, [sp, #48]
 154:../../Middlewares/AI_Runtime/Npu/ll_aton/ll_sw_float.c ****                        sw_info->operand_b.mem.start_offset, sw_info->operand_b.dim.num_elem, )
 155:../../Middlewares/AI_Runtime/Npu/ll_aton/ll_sw_float.c **** 
 156:../../Middlewares/AI_Runtime/Npu/ll_aton/ll_sw_float.c ****   AI_ARRAY_OBJ_DECLARE(gemm_operand_c_array, FORMAT, sw_info->operand_c.mem.start_offset,
 452              		.loc 1 156 3 view .LVU109
 453 000c 1093     		str	r3, [sp, #64]
 157:../../Middlewares/AI_Runtime/Npu/ll_aton/ll_sw_float.c ****                        sw_info->operand_c.mem.start_offset, sw_info->operand_c.dim.num_elem, )
 158:../../Middlewares/AI_Runtime/Npu/ll_aton/ll_sw_float.c **** 
 159:../../Middlewares/AI_Runtime/Npu/ll_aton/ll_sw_float.c ****   AI_ARRAY_OBJ_DECLARE(gemm_output_array, FORMAT, sw_info->general.output.mem.start_offset,
 454              		.loc 1 159 3 view .LVU110
 455 000e 1493     		str	r3, [sp, #80]
 456 0010 036C     		ldr	r3, [r0, #64]
 160:../../Middlewares/AI_Runtime/Npu/ll_aton/ll_sw_float.c ****                        sw_info->general.output.mem.start_offset, sw_info->general.output.dim.num_el
 161:../../Middlewares/AI_Runtime/Npu/ll_aton/ll_sw_float.c **** 
 162:../../Middlewares/AI_Runtime/Npu/ll_aton/ll_sw_float.c ****   AI_TENSOR_OBJ_DECLARE(input_output, , 0x0, 4,
ARM GAS  C:\Users\Antonio\AppData\Local\Temp\cc6EBOZH.s 			page 13


 457              		.loc 1 162 3 view .LVU111
 458 0012 4FF0827C 		mov	ip, #17039360
 159:../../Middlewares/AI_Runtime/Npu/ll_aton/ll_sw_float.c ****                        sw_info->general.output.mem.start_offset, sw_info->general.output.dim.num_el
 459              		.loc 1 159 3 view .LVU112
 460 0016 1593     		str	r3, [sp, #84]
 461 0018 436D     		ldr	r3, [r0, #84]
 462              		.loc 1 162 3 view .LVU113
 463 001a 40F20148 		movw	r8, #1025
 159:../../Middlewares/AI_Runtime/Npu/ll_aton/ll_sw_float.c ****                        sw_info->general.output.mem.start_offset, sw_info->general.output.dim.num_el
 464              		.loc 1 159 3 view .LVU114
 465 001e CDE91633 		strd	r3, r3, [sp, #88]
 466              		.loc 1 162 3 view .LVU115
 467 0022 0023     		movs	r3, #0
 468 0024 40F2024E 		movw	lr, #1026
 150:../../Middlewares/AI_Runtime/Npu/ll_aton/ll_sw_float.c ****                        sw_info->general.input.mem.start_offset, sw_info->general.input.dim.num_elem
 469              		.loc 1 150 3 view .LVU116
 470 0028 4269     		ldr	r2, [r0, #20]
 471              		.loc 1 162 3 view .LVU117
 472 002a 0669     		ldr	r6, [r0, #16]
 150:../../Middlewares/AI_Runtime/Npu/ll_aton/ll_sw_float.c ****                        sw_info->general.input.mem.start_offset, sw_info->general.input.dim.num_elem
 473              		.loc 1 150 3 view .LVU118
 474 002c 0992     		str	r2, [sp, #36]
 475 002e 826A     		ldr	r2, [r0, #40]
 476              		.loc 1 162 3 view .LVU119
 477 0030 CDE9383C 		strd	r3, ip, [sp, #224]
 150:../../Middlewares/AI_Runtime/Npu/ll_aton/ll_sw_float.c ****                        sw_info->general.input.mem.start_offset, sw_info->general.input.dim.num_elem
 478              		.loc 1 150 3 view .LVU120
 479 0034 CDE90A22 		strd	r2, r2, [sp, #40]
 153:../../Middlewares/AI_Runtime/Npu/ll_aton/ll_sw_float.c ****                        sw_info->operand_b.mem.start_offset, sw_info->operand_b.dim.num_elem, )
 480              		.loc 1 153 3 is_stmt 1 view .LVU121
 481 0038 C26E     		ldr	r2, [r0, #108]
 482              		.loc 1 162 3 is_stmt 0 view .LVU122
 483 003a CDF8E880 		str	r8, [sp, #232]
 153:../../Middlewares/AI_Runtime/Npu/ll_aton/ll_sw_float.c ****                        sw_info->operand_b.mem.start_offset, sw_info->operand_b.dim.num_elem, )
 484              		.loc 1 153 3 view .LVU123
 485 003e 0D92     		str	r2, [sp, #52]
 486 0040 D0F88020 		ldr	r2, [r0, #128]
 487              		.loc 1 162 3 view .LVU124
 488 0044 1896     		str	r6, [sp, #96]
 153:../../Middlewares/AI_Runtime/Npu/ll_aton/ll_sw_float.c ****                        sw_info->operand_b.mem.start_offset, sw_info->operand_b.dim.num_elem, )
 489              		.loc 1 153 3 view .LVU125
 490 0046 CDE90E22 		strd	r2, r2, [sp, #56]
 156:../../Middlewares/AI_Runtime/Npu/ll_aton/ll_sw_float.c ****                        sw_info->operand_c.mem.start_offset, sw_info->operand_c.dim.num_elem, )
 491              		.loc 1 156 3 is_stmt 1 view .LVU126
 492 004a D0F89820 		ldr	r2, [r0, #152]
 493              		.loc 1 162 3 is_stmt 0 view .LVU127
 494 004e 18AF     		add	r7, sp, #96
 156:../../Middlewares/AI_Runtime/Npu/ll_aton/ll_sw_float.c ****                        sw_info->operand_c.mem.start_offset, sw_info->operand_c.dim.num_elem, )
 495              		.loc 1 156 3 view .LVU128
 496 0050 1192     		str	r2, [sp, #68]
 497 0052 D0F8AC20 		ldr	r2, [r0, #172]
 150:../../Middlewares/AI_Runtime/Npu/ll_aton/ll_sw_float.c ****                        sw_info->general.input.mem.start_offset, sw_info->general.input.dim.num_elem
 498              		.loc 1 150 3 view .LVU129
 499 0056 08AD     		add	r5, sp, #32
 156:../../Middlewares/AI_Runtime/Npu/ll_aton/ll_sw_float.c ****                        sw_info->operand_c.mem.start_offset, sw_info->operand_c.dim.num_elem, )
 500              		.loc 1 156 3 view .LVU130
 501 0058 CDE91222 		strd	r2, r2, [sp, #72]
ARM GAS  C:\Users\Antonio\AppData\Local\Temp\cc6EBOZH.s 			page 14


 159:../../Middlewares/AI_Runtime/Npu/ll_aton/ll_sw_float.c ****                        sw_info->general.output.mem.start_offset, sw_info->general.output.dim.num_el
 502              		.loc 1 159 3 is_stmt 1 view .LVU131
 503              		.loc 1 162 3 view .LVU132
 504 005c C668     		ldr	r6, [r0, #12]
 505 005e 3B97     		str	r7, [sp, #236]
 506 0060 1996     		str	r6, [sp, #100]
 507 0062 8668     		ldr	r6, [r0, #8]
 508 0064 1CAF     		add	r7, sp, #112
 509 0066 CDE93D75 		strd	r7, r5, [sp, #244]
 163:../../Middlewares/AI_Runtime/Npu/ll_aton/ll_sw_float.c ****                         SHAPE_INIT(sw_info->general.input.dim.tensor_h, sw_info->general.input.dim.
 164:../../Middlewares/AI_Runtime/Npu/ll_aton/ll_sw_float.c ****                                    sw_info->general.input.dim.tensor_c, sw_info->general.input.dim.
 165:../../Middlewares/AI_Runtime/Npu/ll_aton/ll_sw_float.c ****                         STRIDE_INIT(sw_info->general.input.stride.h, sw_info->general.input.stride.
 166:../../Middlewares/AI_Runtime/Npu/ll_aton/ll_sw_float.c ****                                     sw_info->general.input.stride.c, sw_info->general.input.stride.
 167:../../Middlewares/AI_Runtime/Npu/ll_aton/ll_sw_float.c ****                         1, &input_output_array, NULL);
 510              		.loc 1 167 54 view .LVU133
 168:../../Middlewares/AI_Runtime/Npu/ll_aton/ll_sw_float.c ****   AI_TENSOR_OBJ_DECLARE(gemm_operand_b, , 0x0, 4,
 511              		.loc 1 168 3 view .LVU134
 162:../../Middlewares/AI_Runtime/Npu/ll_aton/ll_sw_float.c ****                         SHAPE_INIT(sw_info->general.input.dim.tensor_h, sw_info->general.input.dim.
 512              		.loc 1 162 3 is_stmt 0 view .LVU135
 513 006a 1A96     		str	r6, [sp, #104]
 514              		.loc 1 168 3 view .LVU136
 515 006c 856E     		ldr	r5, [r0, #104]
 162:../../Middlewares/AI_Runtime/Npu/ll_aton/ll_sw_float.c ****                         SHAPE_INIT(sw_info->general.input.dim.tensor_h, sw_info->general.input.dim.
 516              		.loc 1 162 3 view .LVU137
 517 006e 4668     		ldr	r6, [r0, #4]
 518              		.loc 1 168 3 view .LVU138
 519 0070 2095     		str	r5, [sp, #128]
 162:../../Middlewares/AI_Runtime/Npu/ll_aton/ll_sw_float.c ****                         SHAPE_INIT(sw_info->general.input.dim.tensor_h, sw_info->general.input.dim.
 520              		.loc 1 162 3 view .LVU139
 521 0072 1B96     		str	r6, [sp, #108]
 522              		.loc 1 168 3 view .LVU140
 523 0074 456E     		ldr	r5, [r0, #100]
 162:../../Middlewares/AI_Runtime/Npu/ll_aton/ll_sw_float.c ****                         SHAPE_INIT(sw_info->general.input.dim.tensor_h, sw_info->general.input.dim.
 524              		.loc 1 162 3 view .LVU141
 525 0076 466A     		ldr	r6, [r0, #36]
 526              		.loc 1 168 3 view .LVU142
 527 0078 2195     		str	r5, [sp, #132]
 162:../../Middlewares/AI_Runtime/Npu/ll_aton/ll_sw_float.c ****                         SHAPE_INIT(sw_info->general.input.dim.tensor_h, sw_info->general.input.dim.
 528              		.loc 1 162 3 view .LVU143
 529 007a 1C96     		str	r6, [sp, #112]
 530              		.loc 1 168 3 view .LVU144
 531 007c 056E     		ldr	r5, [r0, #96]
 162:../../Middlewares/AI_Runtime/Npu/ll_aton/ll_sw_float.c ****                         SHAPE_INIT(sw_info->general.input.dim.tensor_h, sw_info->general.input.dim.
 532              		.loc 1 162 3 view .LVU145
 533 007e 066A     		ldr	r6, [r0, #32]
 534              		.loc 1 168 3 view .LVU146
 535 0080 2295     		str	r5, [sp, #136]
 162:../../Middlewares/AI_Runtime/Npu/ll_aton/ll_sw_float.c ****                         SHAPE_INIT(sw_info->general.input.dim.tensor_h, sw_info->general.input.dim.
 536              		.loc 1 162 3 view .LVU147
 537 0082 1D96     		str	r6, [sp, #116]
 538              		.loc 1 168 3 view .LVU148
 539 0084 C56D     		ldr	r5, [r0, #92]
 162:../../Middlewares/AI_Runtime/Npu/ll_aton/ll_sw_float.c ****                         SHAPE_INIT(sw_info->general.input.dim.tensor_h, sw_info->general.input.dim.
 540              		.loc 1 162 3 view .LVU149
 541 0086 C669     		ldr	r6, [r0, #28]
 542              		.loc 1 168 3 view .LVU150
 543 0088 20AF     		add	r7, sp, #128
ARM GAS  C:\Users\Antonio\AppData\Local\Temp\cc6EBOZH.s 			page 15


 162:../../Middlewares/AI_Runtime/Npu/ll_aton/ll_sw_float.c ****                         SHAPE_INIT(sw_info->general.input.dim.tensor_h, sw_info->general.input.dim.
 544              		.loc 1 162 3 view .LVU151
 545 008a 1E96     		str	r6, [sp, #120]
 546              		.loc 1 168 3 view .LVU152
 547 008c 2395     		str	r5, [sp, #140]
 162:../../Middlewares/AI_Runtime/Npu/ll_aton/ll_sw_float.c ****                         SHAPE_INIT(sw_info->general.input.dim.tensor_h, sw_info->general.input.dim.
 548              		.loc 1 162 3 view .LVU153
 549 008e 8669     		ldr	r6, [r0, #24]
 550              		.loc 1 168 3 view .LVU154
 551 0090 C56F     		ldr	r5, [r0, #124]
 552 0092 CDE9427E 		strd	r7, lr, [sp, #264]
 153:../../Middlewares/AI_Runtime/Npu/ll_aton/ll_sw_float.c ****                        sw_info->operand_b.mem.start_offset, sw_info->operand_b.dim.num_elem, )
 553              		.loc 1 153 3 view .LVU155
 554 0096 0CAC     		add	r4, sp, #48
 555              		.loc 1 168 3 view .LVU156
 556 0098 24AF     		add	r7, sp, #144
 557 009a CDE93F3C 		strd	r3, ip, [sp, #252]
 162:../../Middlewares/AI_Runtime/Npu/ll_aton/ll_sw_float.c ****                         SHAPE_INIT(sw_info->general.input.dim.tensor_h, sw_info->general.input.dim.
 558              		.loc 1 162 3 view .LVU157
 559 009e CDF8F0E0 		str	lr, [sp, #240]
 560 00a2 1F96     		str	r6, [sp, #124]
 561              		.loc 1 168 3 view .LVU158
 562 00a4 CDF80481 		str	r8, [sp, #260]
 563 00a8 2495     		str	r5, [sp, #144]
 564 00aa CDE94474 		strd	r7, r4, [sp, #272]
 169:../../Middlewares/AI_Runtime/Npu/ll_aton/ll_sw_float.c ****                         SHAPE_INIT(sw_info->operand_b.dim.tensor_h, sw_info->operand_b.dim.tensor_w
 170:../../Middlewares/AI_Runtime/Npu/ll_aton/ll_sw_float.c ****                                    sw_info->operand_b.dim.tensor_c, sw_info->operand_b.dim.tensor_b
 171:../../Middlewares/AI_Runtime/Npu/ll_aton/ll_sw_float.c ****                         STRIDE_INIT(sw_info->operand_b.stride.h, sw_info->operand_b.stride.w,
 172:../../Middlewares/AI_Runtime/Npu/ll_aton/ll_sw_float.c ****                                     sw_info->operand_b.stride.c, sw_info->operand_b.stride.b),
 173:../../Middlewares/AI_Runtime/Npu/ll_aton/ll_sw_float.c ****                         1, &gemm_operand_b_array, NULL);
 565              		.loc 1 173 56 is_stmt 1 view .LVU159
 174:../../Middlewares/AI_Runtime/Npu/ll_aton/ll_sw_float.c ****   AI_TENSOR_OBJ_DECLARE(gemm_operand_c, , 0x0, 4,
 566              		.loc 1 174 3 view .LVU160
 567 00ae D0F89440 		ldr	r4, [r0, #148]
 168:../../Middlewares/AI_Runtime/Npu/ll_aton/ll_sw_float.c ****                         SHAPE_INIT(sw_info->operand_b.dim.tensor_h, sw_info->operand_b.dim.tensor_w
 568              		.loc 1 168 3 is_stmt 0 view .LVU161
 569 00b2 856F     		ldr	r5, [r0, #120]
 570              		.loc 1 174 3 view .LVU162
 571 00b4 2894     		str	r4, [sp, #160]
 572 00b6 D0F89040 		ldr	r4, [r0, #144]
 168:../../Middlewares/AI_Runtime/Npu/ll_aton/ll_sw_float.c ****                         SHAPE_INIT(sw_info->operand_b.dim.tensor_h, sw_info->operand_b.dim.tensor_w
 573              		.loc 1 168 3 view .LVU163
 574 00ba 2595     		str	r5, [sp, #148]
 575              		.loc 1 174 3 view .LVU164
 576 00bc 2994     		str	r4, [sp, #164]
 577 00be D0F88C40 		ldr	r4, [r0, #140]
 168:../../Middlewares/AI_Runtime/Npu/ll_aton/ll_sw_float.c ****                         SHAPE_INIT(sw_info->operand_b.dim.tensor_h, sw_info->operand_b.dim.tensor_w
 578              		.loc 1 168 3 view .LVU165
 579 00c2 456F     		ldr	r5, [r0, #116]
 580              		.loc 1 174 3 view .LVU166
 581 00c4 2A94     		str	r4, [sp, #168]
 582 00c6 D0F88840 		ldr	r4, [r0, #136]
 168:../../Middlewares/AI_Runtime/Npu/ll_aton/ll_sw_float.c ****                         SHAPE_INIT(sw_info->operand_b.dim.tensor_h, sw_info->operand_b.dim.tensor_w
 583              		.loc 1 168 3 view .LVU167
 584 00ca 2695     		str	r5, [sp, #152]
 585              		.loc 1 174 3 view .LVU168
 586 00cc 2B94     		str	r4, [sp, #172]
ARM GAS  C:\Users\Antonio\AppData\Local\Temp\cc6EBOZH.s 			page 16


 587 00ce D0F8A840 		ldr	r4, [r0, #168]
 168:../../Middlewares/AI_Runtime/Npu/ll_aton/ll_sw_float.c ****                         SHAPE_INIT(sw_info->operand_b.dim.tensor_h, sw_info->operand_b.dim.tensor_w
 588              		.loc 1 168 3 view .LVU169
 589 00d2 056F     		ldr	r5, [r0, #112]
 590              		.loc 1 174 3 view .LVU170
 591 00d4 2C94     		str	r4, [sp, #176]
 592 00d6 D0F8A440 		ldr	r4, [r0, #164]
 156:../../Middlewares/AI_Runtime/Npu/ll_aton/ll_sw_float.c ****                        sw_info->operand_c.mem.start_offset, sw_info->operand_c.dim.num_elem, )
 593              		.loc 1 156 3 view .LVU171
 594 00da 10A9     		add	r1, sp, #64
 595              		.loc 1 174 3 view .LVU172
 596 00dc 2D94     		str	r4, [sp, #180]
 597 00de D0F8A040 		ldr	r4, [r0, #160]
 168:../../Middlewares/AI_Runtime/Npu/ll_aton/ll_sw_float.c ****                         SHAPE_INIT(sw_info->operand_b.dim.tensor_h, sw_info->operand_b.dim.tensor_w
 598              		.loc 1 168 3 view .LVU173
 599 00e2 2795     		str	r5, [sp, #156]
 600              		.loc 1 174 3 view .LVU174
 601 00e4 2E94     		str	r4, [sp, #184]
 602 00e6 D0F89C40 		ldr	r4, [r0, #156]
 603 00ea 28AD     		add	r5, sp, #160
 604 00ec 2F94     		str	r4, [sp, #188]
 605 00ee 2CAC     		add	r4, sp, #176
 606 00f0 CDE9463C 		strd	r3, ip, [sp, #280]
 607 00f4 CDE94B41 		strd	r4, r1, [sp, #300]
 175:../../Middlewares/AI_Runtime/Npu/ll_aton/ll_sw_float.c ****                         SHAPE_INIT(sw_info->operand_c.dim.tensor_h, sw_info->operand_c.dim.tensor_w
 176:../../Middlewares/AI_Runtime/Npu/ll_aton/ll_sw_float.c ****                                    sw_info->operand_c.dim.tensor_c, sw_info->operand_c.dim.tensor_b
 177:../../Middlewares/AI_Runtime/Npu/ll_aton/ll_sw_float.c ****                         STRIDE_INIT(sw_info->operand_c.stride.h, sw_info->operand_c.stride.w,
 178:../../Middlewares/AI_Runtime/Npu/ll_aton/ll_sw_float.c ****                                     sw_info->operand_c.stride.c, sw_info->operand_c.stride.b),
 179:../../Middlewares/AI_Runtime/Npu/ll_aton/ll_sw_float.c ****                         1, &gemm_operand_c_array, NULL);
 608              		.loc 1 179 56 is_stmt 1 view .LVU175
 180:../../Middlewares/AI_Runtime/Npu/ll_aton/ll_sw_float.c **** 
 181:../../Middlewares/AI_Runtime/Npu/ll_aton/ll_sw_float.c ****   AI_TENSOR_OBJ_DECLARE(gemm_output, , 0x0, 4,
 609              		.loc 1 181 3 view .LVU176
 174:../../Middlewares/AI_Runtime/Npu/ll_aton/ll_sw_float.c ****                         SHAPE_INIT(sw_info->operand_c.dim.tensor_h, sw_info->operand_c.dim.tensor_w
 610              		.loc 1 174 3 is_stmt 0 view .LVU177
 611 00f8 CDE9495E 		strd	r5, lr, [sp, #292]
 612 00fc CDF82081 		str	r8, [sp, #288]
 613              		.loc 1 181 3 view .LVU178
 614 0100 CDE94D3C 		strd	r3, ip, [sp, #308]
 615 0104 C16B     		ldr	r1, [r0, #60]
 159:../../Middlewares/AI_Runtime/Npu/ll_aton/ll_sw_float.c ****                        sw_info->general.output.mem.start_offset, sw_info->general.output.dim.num_el
 616              		.loc 1 159 3 view .LVU179
 617 0106 14AA     		add	r2, sp, #80
 618              		.loc 1 181 3 view .LVU180
 619 0108 3091     		str	r1, [sp, #192]
 620 010a 816B     		ldr	r1, [r0, #56]
 182:../../Middlewares/AI_Runtime/Npu/ll_aton/ll_sw_float.c ****                         SHAPE_INIT(sw_info->general.output.dim.tensor_h, sw_info->general.output.di
 183:../../Middlewares/AI_Runtime/Npu/ll_aton/ll_sw_float.c ****                                    sw_info->general.output.dim.tensor_c, sw_info->general.output.di
 184:../../Middlewares/AI_Runtime/Npu/ll_aton/ll_sw_float.c ****                         STRIDE_INIT(sw_info->general.output.stride.h, sw_info->general.output.strid
 185:../../Middlewares/AI_Runtime/Npu/ll_aton/ll_sw_float.c ****                                     sw_info->general.output.stride.c, sw_info->general.output.strid
 186:../../Middlewares/AI_Runtime/Npu/ll_aton/ll_sw_float.c ****                         1, &gemm_output_array, NULL);
 187:../../Middlewares/AI_Runtime/Npu/ll_aton/ll_sw_float.c ****   // tensor chain initialization
 188:../../Middlewares/AI_Runtime/Npu/ll_aton/ll_sw_float.c ****   AI_TENSOR_CHAIN_OBJ_DECLARE(
 621              		.loc 1 188 3 view .LVU181
 622 010c 38AC     		add	r4, sp, #224
 181:../../Middlewares/AI_Runtime/Npu/ll_aton/ll_sw_float.c ****                         SHAPE_INIT(sw_info->general.output.dim.tensor_h, sw_info->general.output.di
 623              		.loc 1 181 3 view .LVU182
ARM GAS  C:\Users\Antonio\AppData\Local\Temp\cc6EBOZH.s 			page 17


 624 010e 3191     		str	r1, [sp, #196]
 625 0110 416B     		ldr	r1, [r0, #52]
 626              		.loc 1 188 3 view .LVU183
 627 0112 0594     		str	r4, [sp, #20]
 181:../../Middlewares/AI_Runtime/Npu/ll_aton/ll_sw_float.c ****                         SHAPE_INIT(sw_info->general.output.dim.tensor_h, sw_info->general.output.di
 628              		.loc 1 181 3 view .LVU184
 629 0114 3291     		str	r1, [sp, #200]
 630 0116 016B     		ldr	r1, [r0, #48]
 631              		.loc 1 188 3 view .LVU185
 632 0118 3FAC     		add	r4, sp, #252
 181:../../Middlewares/AI_Runtime/Npu/ll_aton/ll_sw_float.c ****                         SHAPE_INIT(sw_info->general.output.dim.tensor_h, sw_info->general.output.di
 633              		.loc 1 181 3 view .LVU186
 634 011a 3391     		str	r1, [sp, #204]
 635 011c 30A9     		add	r1, sp, #192
 636 011e CDE9501E 		strd	r1, lr, [sp, #320]
 637 0122 016D     		ldr	r1, [r0, #80]
 638              		.loc 1 188 3 view .LVU187
 639 0124 0694     		str	r4, [sp, #24]
 181:../../Middlewares/AI_Runtime/Npu/ll_aton/ll_sw_float.c ****                         SHAPE_INIT(sw_info->general.output.dim.tensor_h, sw_info->general.output.di
 640              		.loc 1 181 3 view .LVU188
 641 0126 3491     		str	r1, [sp, #208]
 642 0128 C16C     		ldr	r1, [r0, #76]
 643              		.loc 1 188 3 view .LVU189
 644 012a 46AC     		add	r4, sp, #280
 181:../../Middlewares/AI_Runtime/Npu/ll_aton/ll_sw_float.c ****                         SHAPE_INIT(sw_info->general.output.dim.tensor_h, sw_info->general.output.di
 645              		.loc 1 181 3 view .LVU190
 646 012c 3591     		str	r1, [sp, #212]
 647 012e 816C     		ldr	r1, [r0, #72]
 648 0130 CDF83C81 		str	r8, [sp, #316]
 649 0134 3691     		str	r1, [sp, #216]
 650 0136 416C     		ldr	r1, [r0, #68]
 651              		.loc 1 188 3 view .LVU191
 652 0138 0794     		str	r4, [sp, #28]
 181:../../Middlewares/AI_Runtime/Npu/ll_aton/ll_sw_float.c ****                         SHAPE_INIT(sw_info->general.output.dim.tensor_h, sw_info->general.output.di
 653              		.loc 1 181 3 view .LVU192
 654 013a 3791     		str	r1, [sp, #220]
 655 013c 34A9     		add	r1, sp, #208
 656 013e CDE95212 		strd	r1, r2, [sp, #328]
 186:../../Middlewares/AI_Runtime/Npu/ll_aton/ll_sw_float.c ****   // tensor chain initialization
 657              		.loc 1 186 53 is_stmt 1 view .LVU193
 658              		.loc 1 188 3 view .LVU194
 659 0142 0422     		movs	r2, #4
 660 0144 0392     		str	r2, [sp, #12]
 661 0146 0322     		movs	r2, #3
 662 0148 5E92     		str	r2, [sp, #376]
 663 014a 05AA     		add	r2, sp, #20
 664 014c CDE95F23 		strd	r2, r3, [sp, #380]
 665 0150 0122     		movs	r2, #1
 666 0152 6192     		str	r2, [sp, #388]
 667 0154 4DAA     		add	r2, sp, #308
 668 0156 0092     		str	r2, [sp]
 669 0158 01AA     		add	r2, sp, #4
 670 015a CDF888D1 		str	sp, [sp, #392]
 671 015e CDE96333 		strd	r3, r3, [sp, #396]
 672 0162 CDE96523 		strd	r2, r3, [sp, #404]
 673 0166 02AA     		add	r2, sp, #8
 674 0168 CDE96823 		strd	r2, r3, [sp, #416]
ARM GAS  C:\Users\Antonio\AppData\Local\Temp\cc6EBOZH.s 			page 18


 675 016c 5EAA     		add	r2, sp, #376
 676 016e 0492     		str	r2, [sp, #16]
 189:../../Middlewares/AI_Runtime/Npu/ll_aton/ll_sw_float.c ****       gemm_chain, , 4,
 190:../../Middlewares/AI_Runtime/Npu/ll_aton/ll_sw_float.c ****       AI_TENSOR_LIST_OBJ_INIT(AI_FLAG_NONE, 3, TENSORS(&input_output, &gemm_operand_b, &gemm_operan
 191:../../Middlewares/AI_Runtime/Npu/ll_aton/ll_sw_float.c ****       AI_TENSOR_LIST_OBJ_INIT(AI_FLAG_NONE, 1, TENSORS(&gemm_output)), AI_TENSOR_LIST_OBJ_EMPTY,
 192:../../Middlewares/AI_Runtime/Npu/ll_aton/ll_sw_float.c ****       AI_TENSOR_LIST_OBJ_EMPTY)
 193:../../Middlewares/AI_Runtime/Npu/ll_aton/ll_sw_float.c ****   // layer initialization
 194:../../Middlewares/AI_Runtime/Npu/ll_aton/ll_sw_float.c ****   AI_LAYER_OBJ_DECLARE(gemm_layer, 1, GEMM_TYPE, 0x0, NULL, gemm, forward_gemm, &gemm_chain, NULL, 
 677              		.loc 1 194 3 view .LVU195
 678 0170 0F4A     		ldr	r2, .L8+4
 679 0172 CDE95633 		strd	r3, r3, [sp, #344]
 680 0176 CDE95423 		strd	r2, r3, [sp, #336]
 188:../../Middlewares/AI_Runtime/Npu/ll_aton/ll_sw_float.c ****       gemm_chain, , 4,
 681              		.loc 1 188 3 is_stmt 0 view .LVU196
 682 017a 0193     		str	r3, [sp, #4]
 683 017c 6793     		str	r3, [sp, #412]
 684 017e 0293     		str	r3, [sp, #8]
 685              		.loc 1 194 3 view .LVU197
 686 0180 5893     		str	r3, [sp, #352]
 687 0182 0C4B     		ldr	r3, .L8+8
 188:../../Middlewares/AI_Runtime/Npu/ll_aton/ll_sw_float.c ****       gemm_chain, , 4,
 688              		.loc 1 188 3 view .LVU198
 689 0184 03A9     		add	r1, sp, #12
 690              		.loc 1 194 3 view .LVU199
 691 0186 CDE95931 		strd	r3, r1, [sp, #356]
 692 018a D0F8B830 		ldr	r3, [r0, #184]	@ float
 693 018e D0F8B420 		ldr	r2, [r0, #180]	@ float
 694 0192 5C93     		str	r3, [sp, #368]	@ float
 695 0194 B0F8BC30 		ldrh	r3, [r0, #188]
 195:../../Middlewares/AI_Runtime/Npu/ll_aton/ll_sw_float.c ****                        .alpha = sw_info->alpha, .beta = sw_info->beta, .tA = sw_info->tA, .tB = sw_
 196:../../Middlewares/AI_Runtime/Npu/ll_aton/ll_sw_float.c ****   gemm_layer.forward(AI_LAYER_OBJ(&gemm_layer));
 696              		.loc 1 196 3 view .LVU200
 697 0198 54A8     		add	r0, sp, #336
 698              	.LVL8:
 194:../../Middlewares/AI_Runtime/Npu/ll_aton/ll_sw_float.c ****                        .alpha = sw_info->alpha, .beta = sw_info->beta, .tA = sw_info->tA, .tB = sw_
 699              		.loc 1 194 3 view .LVU201
 700 019a 5B92     		str	r2, [sp, #364]	@ float
 701 019c ADF87431 		strh	r3, [sp, #372]	@ movhi
 702              		.loc 1 196 3 is_stmt 1 view .LVU202
 703 01a0 FFF7FEFF 		bl	forward_gemm
 704              	.LVL9:
 197:../../Middlewares/AI_Runtime/Npu/ll_aton/ll_sw_float.c **** }
 705              		.loc 1 197 1 is_stmt 0 view .LVU203
 706 01a4 6AB0     		add	sp, sp, #424
 707              		.cfi_def_cfa_offset 24
 708              		@ sp needed
 709 01a6 BDE8F081 		pop	{r4, r5, r6, r7, r8, pc}
 710              	.L9:
 711 01aa 00BF     		.align	2
 712              	.L8:
 713 01ac 40108200 		.word	8523840
 714 01b0 11010100 		.word	65809
 715 01b4 00000000 		.word	forward_gemm
 716              		.cfi_endproc
 717              	.LFE16:
 719              		.section	.text.ll_sw_forward_matmul,"ax",%progbits
 720              		.align	1
ARM GAS  C:\Users\Antonio\AppData\Local\Temp\cc6EBOZH.s 			page 19


 721              		.global	ll_sw_forward_matmul
 722              		.syntax unified
 723              		.thumb
 724              		.thumb_func
 726              	ll_sw_forward_matmul:
 727              	.LVL10:
 728              	.LFB17:
 198:../../Middlewares/AI_Runtime/Npu/ll_aton/ll_sw_float.c **** 
 199:../../Middlewares/AI_Runtime/Npu/ll_aton/ll_sw_float.c **** //##########################################################################################
 200:../../Middlewares/AI_Runtime/Npu/ll_aton/ll_sw_float.c **** /** MatMul forward function */
 201:../../Middlewares/AI_Runtime/Npu/ll_aton/ll_sw_float.c **** void ll_sw_forward_matmul(/* int processor, */ void *sw_info_struct)
 202:../../Middlewares/AI_Runtime/Npu/ll_aton/ll_sw_float.c **** {
 729              		.loc 1 202 1 is_stmt 1 view -0
 730              		.cfi_startproc
 731              		@ args = 0, pretend = 0, frame = 336
 732              		@ frame_needed = 0, uses_anonymous_args = 0
 203:../../Middlewares/AI_Runtime/Npu/ll_aton/ll_sw_float.c ****   Matmul_sw_info *sw_info = (Matmul_sw_info *)sw_info_struct;
 733              		.loc 1 203 3 view .LVU205
 204:../../Middlewares/AI_Runtime/Npu/ll_aton/ll_sw_float.c ****   // array init
 205:../../Middlewares/AI_Runtime/Npu/ll_aton/ll_sw_float.c ****   AI_ARRAY_OBJ_DECLARE(input_output_array, FORMAT, sw_info->general.input.mem.start_offset,
 734              		.loc 1 205 3 view .LVU206
 202:../../Middlewares/AI_Runtime/Npu/ll_aton/ll_sw_float.c ****   Matmul_sw_info *sw_info = (Matmul_sw_info *)sw_info_struct;
 735              		.loc 1 202 1 is_stmt 0 view .LVU207
 736 0000 F0B5     		push	{r4, r5, r6, r7, lr}
 737              		.cfi_def_cfa_offset 20
 738              		.cfi_offset 4, -20
 739              		.cfi_offset 5, -16
 740              		.cfi_offset 6, -12
 741              		.cfi_offset 7, -8
 742              		.cfi_offset 14, -4
 743              		.loc 1 205 3 view .LVU208
 744 0002 4B49     		ldr	r1, .L11
 202:../../Middlewares/AI_Runtime/Npu/ll_aton/ll_sw_float.c ****   Matmul_sw_info *sw_info = (Matmul_sw_info *)sw_info_struct;
 745              		.loc 1 202 1 view .LVU209
 746 0004 D5B0     		sub	sp, sp, #340
 747              		.cfi_def_cfa_offset 360
 748              		.loc 1 205 3 view .LVU210
 749 0006 0791     		str	r1, [sp, #28]
 206:../../Middlewares/AI_Runtime/Npu/ll_aton/ll_sw_float.c ****                        sw_info->general.input.mem.start_offset, sw_info->general.input.dim.num_elem
 207:../../Middlewares/AI_Runtime/Npu/ll_aton/ll_sw_float.c **** 
 208:../../Middlewares/AI_Runtime/Npu/ll_aton/ll_sw_float.c ****   AI_ARRAY_OBJ_DECLARE(matmul_operand_b_array, FORMAT, sw_info->operand_b.mem.start_offset,
 750              		.loc 1 208 3 view .LVU211
 751 0008 0B91     		str	r1, [sp, #44]
 209:../../Middlewares/AI_Runtime/Npu/ll_aton/ll_sw_float.c ****                        sw_info->operand_b.mem.start_offset, sw_info->operand_b.dim.num_elem, )
 210:../../Middlewares/AI_Runtime/Npu/ll_aton/ll_sw_float.c **** 
 211:../../Middlewares/AI_Runtime/Npu/ll_aton/ll_sw_float.c ****   AI_ARRAY_OBJ_DECLARE(matmul_output_array, FORMAT, sw_info->general.output.mem.start_offset,
 752              		.loc 1 211 3 view .LVU212
 753 000a 0F91     		str	r1, [sp, #60]
 754 000c 016C     		ldr	r1, [r0, #64]
 212:../../Middlewares/AI_Runtime/Npu/ll_aton/ll_sw_float.c ****                        sw_info->general.output.mem.start_offset, sw_info->general.output.dim.num_el
 213:../../Middlewares/AI_Runtime/Npu/ll_aton/ll_sw_float.c **** 
 214:../../Middlewares/AI_Runtime/Npu/ll_aton/ll_sw_float.c ****   AI_TENSOR_OBJ_DECLARE(input_output, , 0x0, 4,
 755              		.loc 1 214 3 view .LVU213
 756 000e 4FF0827C 		mov	ip, #17039360
 211:../../Middlewares/AI_Runtime/Npu/ll_aton/ll_sw_float.c ****                        sw_info->general.output.mem.start_offset, sw_info->general.output.dim.num_el
 757              		.loc 1 211 3 view .LVU214
 758 0012 1091     		str	r1, [sp, #64]
ARM GAS  C:\Users\Antonio\AppData\Local\Temp\cc6EBOZH.s 			page 20


 759 0014 416D     		ldr	r1, [r0, #84]
 760              		.loc 1 214 3 view .LVU215
 761 0016 40F20146 		movw	r6, #1025
 211:../../Middlewares/AI_Runtime/Npu/ll_aton/ll_sw_float.c ****                        sw_info->general.output.mem.start_offset, sw_info->general.output.dim.num_el
 762              		.loc 1 211 3 view .LVU216
 763 001a CDE91111 		strd	r1, r1, [sp, #68]
 764              		.loc 1 214 3 view .LVU217
 765 001e 0021     		movs	r1, #0
 766 0020 0769     		ldr	r7, [r0, #16]
 205:../../Middlewares/AI_Runtime/Npu/ll_aton/ll_sw_float.c ****                        sw_info->general.input.mem.start_offset, sw_info->general.input.dim.num_elem
 767              		.loc 1 205 3 view .LVU218
 768 0022 4369     		ldr	r3, [r0, #20]
 769              		.loc 1 214 3 view .LVU219
 770 0024 1397     		str	r7, [sp, #76]
 771 0026 C768     		ldr	r7, [r0, #12]
 205:../../Middlewares/AI_Runtime/Npu/ll_aton/ll_sw_float.c ****                        sw_info->general.input.mem.start_offset, sw_info->general.input.dim.num_elem
 772              		.loc 1 205 3 view .LVU220
 773 0028 0893     		str	r3, [sp, #32]
 774              		.loc 1 214 3 view .LVU221
 775 002a 1497     		str	r7, [sp, #80]
 776 002c 8768     		ldr	r7, [r0, #8]
 205:../../Middlewares/AI_Runtime/Npu/ll_aton/ll_sw_float.c ****                        sw_info->general.input.mem.start_offset, sw_info->general.input.dim.num_elem
 777              		.loc 1 205 3 view .LVU222
 778 002e 836A     		ldr	r3, [r0, #40]
 779              		.loc 1 214 3 view .LVU223
 780 0030 1597     		str	r7, [sp, #84]
 781 0032 4768     		ldr	r7, [r0, #4]
 205:../../Middlewares/AI_Runtime/Npu/ll_aton/ll_sw_float.c ****                        sw_info->general.input.mem.start_offset, sw_info->general.input.dim.num_elem
 782              		.loc 1 205 3 view .LVU224
 783 0034 CDE90933 		strd	r3, r3, [sp, #36]
 208:../../Middlewares/AI_Runtime/Npu/ll_aton/ll_sw_float.c ****                        sw_info->operand_b.mem.start_offset, sw_info->operand_b.dim.num_elem, )
 784              		.loc 1 208 3 is_stmt 1 view .LVU225
 785              		.loc 1 214 3 is_stmt 0 view .LVU226
 786 0038 1697     		str	r7, [sp, #88]
 787 003a 40F20247 		movw	r7, #1026
 208:../../Middlewares/AI_Runtime/Npu/ll_aton/ll_sw_float.c ****                        sw_info->operand_b.mem.start_offset, sw_info->operand_b.dim.num_elem, )
 788              		.loc 1 208 3 view .LVU227
 789 003e C36E     		ldr	r3, [r0, #108]
 790              		.loc 1 214 3 view .LVU228
 791 0040 13AD     		add	r5, sp, #76
 208:../../Middlewares/AI_Runtime/Npu/ll_aton/ll_sw_float.c ****                        sw_info->operand_b.mem.start_offset, sw_info->operand_b.dim.num_elem, )
 792              		.loc 1 208 3 view .LVU229
 793 0042 0C93     		str	r3, [sp, #48]
 794 0044 D0F88030 		ldr	r3, [r0, #128]
 795              		.loc 1 214 3 view .LVU230
 796 0048 CDE92B1C 		strd	r1, ip, [sp, #172]
 208:../../Middlewares/AI_Runtime/Npu/ll_aton/ll_sw_float.c ****                        sw_info->operand_b.mem.start_offset, sw_info->operand_b.dim.num_elem, )
 797              		.loc 1 208 3 view .LVU231
 798 004c CDE90D33 		strd	r3, r3, [sp, #52]
 211:../../Middlewares/AI_Runtime/Npu/ll_aton/ll_sw_float.c ****                        sw_info->general.output.mem.start_offset, sw_info->general.output.dim.num_el
 799              		.loc 1 211 3 is_stmt 1 view .LVU232
 800              		.loc 1 214 3 view .LVU233
 801 0050 2D96     		str	r6, [sp, #180]
 802 0052 2E95     		str	r5, [sp, #184]
 803 0054 456A     		ldr	r5, [r0, #36]
 205:../../Middlewares/AI_Runtime/Npu/ll_aton/ll_sw_float.c ****                        sw_info->general.input.mem.start_offset, sw_info->general.input.dim.num_elem
 804              		.loc 1 205 3 is_stmt 0 view .LVU234
ARM GAS  C:\Users\Antonio\AppData\Local\Temp\cc6EBOZH.s 			page 21


 805 0056 07AC     		add	r4, sp, #28
 806              		.loc 1 214 3 view .LVU235
 807 0058 1795     		str	r5, [sp, #92]
 808 005a 056A     		ldr	r5, [r0, #32]
 208:../../Middlewares/AI_Runtime/Npu/ll_aton/ll_sw_float.c ****                        sw_info->operand_b.mem.start_offset, sw_info->operand_b.dim.num_elem, )
 809              		.loc 1 208 3 view .LVU236
 810 005c 0BAA     		add	r2, sp, #44
 811              		.loc 1 214 3 view .LVU237
 812 005e 1895     		str	r5, [sp, #96]
 813 0060 C569     		ldr	r5, [r0, #28]
 215:../../Middlewares/AI_Runtime/Npu/ll_aton/ll_sw_float.c ****                         SHAPE_INIT(sw_info->general.input.dim.tensor_h, sw_info->general.input.dim.
 216:../../Middlewares/AI_Runtime/Npu/ll_aton/ll_sw_float.c ****                                    sw_info->general.input.dim.tensor_c, sw_info->general.input.dim.
 217:../../Middlewares/AI_Runtime/Npu/ll_aton/ll_sw_float.c ****                         STRIDE_INIT(sw_info->general.input.stride.h, sw_info->general.input.stride.
 218:../../Middlewares/AI_Runtime/Npu/ll_aton/ll_sw_float.c ****                                     sw_info->general.input.stride.c, sw_info->general.input.stride.
 219:../../Middlewares/AI_Runtime/Npu/ll_aton/ll_sw_float.c ****                         1, &input_output_array, NULL);
 220:../../Middlewares/AI_Runtime/Npu/ll_aton/ll_sw_float.c ****   AI_TENSOR_OBJ_DECLARE(matmul_operand_b, , 0x0, 4,
 814              		.loc 1 220 3 view .LVU238
 815 0062 CDE9321C 		strd	r1, ip, [sp, #200]
 214:../../Middlewares/AI_Runtime/Npu/ll_aton/ll_sw_float.c ****                         SHAPE_INIT(sw_info->general.input.dim.tensor_h, sw_info->general.input.dim.
 816              		.loc 1 214 3 view .LVU239
 817 0066 1995     		str	r5, [sp, #100]
 818 0068 8569     		ldr	r5, [r0, #24]
 819 006a 2F97     		str	r7, [sp, #188]
 820 006c 1A95     		str	r5, [sp, #104]
 821 006e 17AD     		add	r5, sp, #92
 822 0070 CDE93054 		strd	r5, r4, [sp, #192]
 219:../../Middlewares/AI_Runtime/Npu/ll_aton/ll_sw_float.c ****   AI_TENSOR_OBJ_DECLARE(matmul_operand_b, , 0x0, 4,
 823              		.loc 1 219 54 is_stmt 1 view .LVU240
 824              		.loc 1 220 3 view .LVU241
 825 0074 846E     		ldr	r4, [r0, #104]
 826 0076 3496     		str	r6, [sp, #208]
 827 0078 1B94     		str	r4, [sp, #108]
 828 007a 446E     		ldr	r4, [r0, #100]
 211:../../Middlewares/AI_Runtime/Npu/ll_aton/ll_sw_float.c ****                        sw_info->general.output.mem.start_offset, sw_info->general.output.dim.num_el
 829              		.loc 1 211 3 is_stmt 0 view .LVU242
 830 007c 0FAB     		add	r3, sp, #60
 831              		.loc 1 220 3 view .LVU243
 832 007e 1C94     		str	r4, [sp, #112]
 833 0080 046E     		ldr	r4, [r0, #96]
 834 0082 1D94     		str	r4, [sp, #116]
 835 0084 C46D     		ldr	r4, [r0, #92]
 836 0086 1E94     		str	r4, [sp, #120]
 837 0088 1BAC     		add	r4, sp, #108
 838 008a CDE93547 		strd	r4, r7, [sp, #212]
 839 008e C46F     		ldr	r4, [r0, #124]
 840 0090 1F94     		str	r4, [sp, #124]
 841 0092 846F     		ldr	r4, [r0, #120]
 842 0094 2094     		str	r4, [sp, #128]
 843 0096 446F     		ldr	r4, [r0, #116]
 844 0098 2194     		str	r4, [sp, #132]
 845 009a 046F     		ldr	r4, [r0, #112]
 846 009c 2294     		str	r4, [sp, #136]
 847 009e 1FAC     		add	r4, sp, #124
 848 00a0 CDE93742 		strd	r4, r2, [sp, #220]
 221:../../Middlewares/AI_Runtime/Npu/ll_aton/ll_sw_float.c ****                         SHAPE_INIT(sw_info->operand_b.dim.tensor_h, sw_info->operand_b.dim.tensor_w
 222:../../Middlewares/AI_Runtime/Npu/ll_aton/ll_sw_float.c ****                                    sw_info->operand_b.dim.tensor_c, sw_info->operand_b.dim.tensor_b
 223:../../Middlewares/AI_Runtime/Npu/ll_aton/ll_sw_float.c ****                         STRIDE_INIT(sw_info->operand_b.stride.h, sw_info->operand_b.stride.w,
ARM GAS  C:\Users\Antonio\AppData\Local\Temp\cc6EBOZH.s 			page 22


 224:../../Middlewares/AI_Runtime/Npu/ll_aton/ll_sw_float.c ****                                     sw_info->operand_b.stride.c, sw_info->operand_b.stride.b),
 225:../../Middlewares/AI_Runtime/Npu/ll_aton/ll_sw_float.c ****                         1, &matmul_operand_b_array, NULL);
 849              		.loc 1 225 58 is_stmt 1 view .LVU244
 226:../../Middlewares/AI_Runtime/Npu/ll_aton/ll_sw_float.c **** 
 227:../../Middlewares/AI_Runtime/Npu/ll_aton/ll_sw_float.c ****   AI_TENSOR_OBJ_DECLARE(matmul_output, , 0x0, 4,
 850              		.loc 1 227 3 view .LVU245
 851 00a4 C26B     		ldr	r2, [r0, #60]
 852 00a6 CDE9391C 		strd	r1, ip, [sp, #228]
 853 00aa 2392     		str	r2, [sp, #140]
 854 00ac 826B     		ldr	r2, [r0, #56]
 855 00ae 3B96     		str	r6, [sp, #236]
 856 00b0 2492     		str	r2, [sp, #144]
 857 00b2 426B     		ldr	r2, [r0, #52]
 228:../../Middlewares/AI_Runtime/Npu/ll_aton/ll_sw_float.c ****                         SHAPE_INIT(sw_info->general.output.dim.tensor_h, sw_info->general.output.di
 229:../../Middlewares/AI_Runtime/Npu/ll_aton/ll_sw_float.c ****                                    sw_info->general.output.dim.tensor_c, sw_info->general.output.di
 230:../../Middlewares/AI_Runtime/Npu/ll_aton/ll_sw_float.c ****                         STRIDE_INIT(sw_info->general.output.stride.h, sw_info->general.output.strid
 231:../../Middlewares/AI_Runtime/Npu/ll_aton/ll_sw_float.c ****                                     sw_info->general.output.stride.c, sw_info->general.output.strid
 232:../../Middlewares/AI_Runtime/Npu/ll_aton/ll_sw_float.c ****                         1, &matmul_output_array, NULL);
 233:../../Middlewares/AI_Runtime/Npu/ll_aton/ll_sw_float.c ****   // tensor chain initialization
 234:../../Middlewares/AI_Runtime/Npu/ll_aton/ll_sw_float.c ****   AI_TENSOR_CHAIN_OBJ_DECLARE(matmul_chain, , 4,
 858              		.loc 1 234 3 is_stmt 0 view .LVU246
 859 00b4 03AC     		add	r4, sp, #12
 227:../../Middlewares/AI_Runtime/Npu/ll_aton/ll_sw_float.c ****                         SHAPE_INIT(sw_info->general.output.dim.tensor_h, sw_info->general.output.di
 860              		.loc 1 227 3 view .LVU247
 861 00b6 2592     		str	r2, [sp, #148]
 862 00b8 026B     		ldr	r2, [r0, #48]
 863 00ba 2692     		str	r2, [sp, #152]
 864 00bc 23AA     		add	r2, sp, #140
 865 00be CDE93C27 		strd	r2, r7, [sp, #240]
 866 00c2 026D     		ldr	r2, [r0, #80]
 867 00c4 2792     		str	r2, [sp, #156]
 868 00c6 C26C     		ldr	r2, [r0, #76]
 869 00c8 2892     		str	r2, [sp, #160]
 870 00ca 826C     		ldr	r2, [r0, #72]
 871 00cc 2992     		str	r2, [sp, #164]
 872 00ce 426C     		ldr	r2, [r0, #68]
 235:../../Middlewares/AI_Runtime/Npu/ll_aton/ll_sw_float.c ****                               AI_TENSOR_LIST_OBJ_INIT(AI_FLAG_NONE, 2, TENSORS(&input_output, &matm
 236:../../Middlewares/AI_Runtime/Npu/ll_aton/ll_sw_float.c ****                               AI_TENSOR_LIST_OBJ_INIT(AI_FLAG_NONE, 1, TENSORS(&matmul_output)),
 237:../../Middlewares/AI_Runtime/Npu/ll_aton/ll_sw_float.c ****                               AI_TENSOR_LIST_OBJ_EMPTY, AI_TENSOR_LIST_OBJ_EMPTY)
 238:../../Middlewares/AI_Runtime/Npu/ll_aton/ll_sw_float.c ****   // layer initialization
 239:../../Middlewares/AI_Runtime/Npu/ll_aton/ll_sw_float.c ****   AI_LAYER_OBJ_DECLARE(matmul_layer, 1, NL_TYPE, 0x0, NULL, nl, forward_matmul, &matmul_chain, NULL
 873              		.loc 1 239 3 view .LVU248
 874 00d0 41A8     		add	r0, sp, #260
 875              	.LVL11:
 227:../../Middlewares/AI_Runtime/Npu/ll_aton/ll_sw_float.c ****                         SHAPE_INIT(sw_info->general.output.dim.tensor_h, sw_info->general.output.di
 876              		.loc 1 227 3 view .LVU249
 877 00d2 2A92     		str	r2, [sp, #168]
 878 00d4 27AA     		add	r2, sp, #156
 879 00d6 CDE93E23 		strd	r2, r3, [sp, #248]
 232:../../Middlewares/AI_Runtime/Npu/ll_aton/ll_sw_float.c ****   // tensor chain initialization
 880              		.loc 1 232 55 is_stmt 1 view .LVU250
 234:../../Middlewares/AI_Runtime/Npu/ll_aton/ll_sw_float.c ****                               AI_TENSOR_LIST_OBJ_INIT(AI_FLAG_NONE, 2, TENSORS(&input_output, &matm
 881              		.loc 1 234 3 view .LVU251
 882 00da 0423     		movs	r3, #4
 883 00dc 0393     		str	r3, [sp, #12]
 884 00de 0223     		movs	r3, #2
 885 00e0 4893     		str	r3, [sp, #288]
ARM GAS  C:\Users\Antonio\AppData\Local\Temp\cc6EBOZH.s 			page 23


 886 00e2 05AB     		add	r3, sp, #20
 887 00e4 CDE94931 		strd	r3, r1, [sp, #292]
 888 00e8 0123     		movs	r3, #1
 889 00ea 2BAA     		add	r2, sp, #172
 890 00ec 4B93     		str	r3, [sp, #300]
 891 00ee 39AB     		add	r3, sp, #228
 892 00f0 0592     		str	r2, [sp, #20]
 893 00f2 0093     		str	r3, [sp]
 894 00f4 32AA     		add	r2, sp, #200
 895 00f6 01AB     		add	r3, sp, #4
 896 00f8 0692     		str	r2, [sp, #24]
 897 00fa CDF830D1 		str	sp, [sp, #304]
 898 00fe CDE94F31 		strd	r3, r1, [sp, #316]
 899 0102 02AB     		add	r3, sp, #8
 900 0104 CDE95231 		strd	r3, r1, [sp, #328]
 901 0108 48AB     		add	r3, sp, #288
 902 010a 0493     		str	r3, [sp, #16]
 903              		.loc 1 239 3 view .LVU252
 904 010c 094B     		ldr	r3, .L11+4
 905 010e 1C22     		movs	r2, #28
 234:../../Middlewares/AI_Runtime/Npu/ll_aton/ll_sw_float.c ****                               AI_TENSOR_LIST_OBJ_INIT(AI_FLAG_NONE, 2, TENSORS(&input_output, &matm
 906              		.loc 1 234 3 is_stmt 0 view .LVU253
 907 0110 CDE94D11 		strd	r1, r1, [sp, #308]
 908 0114 0191     		str	r1, [sp, #4]
 909 0116 5191     		str	r1, [sp, #324]
 910 0118 0291     		str	r1, [sp, #8]
 911              		.loc 1 239 3 view .LVU254
 912 011a 4093     		str	r3, [sp, #256]
 913 011c FFF7FEFF 		bl	memset
 914              	.LVL12:
 915 0120 054B     		ldr	r3, .L11+8
 240:../../Middlewares/AI_Runtime/Npu/ll_aton/ll_sw_float.c ****   matmul_layer.forward(AI_LAYER_OBJ(&matmul_layer));
 916              		.loc 1 240 3 view .LVU255
 917 0122 40A8     		add	r0, sp, #256
 239:../../Middlewares/AI_Runtime/Npu/ll_aton/ll_sw_float.c ****   matmul_layer.forward(AI_LAYER_OBJ(&matmul_layer));
 918              		.loc 1 239 3 view .LVU256
 919 0124 CDE94534 		strd	r3, r4, [sp, #276]
 920              		.loc 1 240 3 is_stmt 1 view .LVU257
 921 0128 FFF7FEFF 		bl	forward_matmul
 922              	.LVL13:
 241:../../Middlewares/AI_Runtime/Npu/ll_aton/ll_sw_float.c **** }
 923              		.loc 1 241 1 is_stmt 0 view .LVU258
 924 012c 55B0     		add	sp, sp, #340
 925              		.cfi_def_cfa_offset 20
 926              		@ sp needed
 927 012e F0BD     		pop	{r4, r5, r6, r7, pc}
 928              	.L12:
 929              		.align	2
 930              	.L11:
 931 0130 40108200 		.word	8523840
 932 0134 07010100 		.word	65799
 933 0138 00000000 		.word	forward_matmul
 934              		.cfi_endproc
 935              	.LFE17:
 937              		.section	.text.ll_sw_forward_resize,"ax",%progbits
 938              		.align	1
 939              		.global	ll_sw_forward_resize
ARM GAS  C:\Users\Antonio\AppData\Local\Temp\cc6EBOZH.s 			page 24


 940              		.syntax unified
 941              		.thumb
 942              		.thumb_func
 944              	ll_sw_forward_resize:
 945              	.LVL14:
 946              	.LFB18:
 242:../../Middlewares/AI_Runtime/Npu/ll_aton/ll_sw_float.c **** 
 243:../../Middlewares/AI_Runtime/Npu/ll_aton/ll_sw_float.c **** //##########################################################################################
 244:../../Middlewares/AI_Runtime/Npu/ll_aton/ll_sw_float.c **** /** Resize forward function */
 245:../../Middlewares/AI_Runtime/Npu/ll_aton/ll_sw_float.c **** void ll_sw_forward_resize(/* int processor, */ void *sw_info_struct)
 246:../../Middlewares/AI_Runtime/Npu/ll_aton/ll_sw_float.c **** {
 947              		.loc 1 246 1 is_stmt 1 view -0
 948              		.cfi_startproc
 949              		@ args = 0, pretend = 0, frame = 320
 950              		@ frame_needed = 0, uses_anonymous_args = 0
 247:../../Middlewares/AI_Runtime/Npu/ll_aton/ll_sw_float.c ****   Resize_sw_info *sw_info = (Resize_sw_info *)sw_info_struct;
 951              		.loc 1 247 3 view .LVU260
 248:../../Middlewares/AI_Runtime/Npu/ll_aton/ll_sw_float.c ****   // array init
 249:../../Middlewares/AI_Runtime/Npu/ll_aton/ll_sw_float.c ****   AI_ARRAY_OBJ_DECLARE(input_output_array, FORMAT, sw_info->general.input.mem.start_offset,
 952              		.loc 1 249 3 view .LVU261
 246:../../Middlewares/AI_Runtime/Npu/ll_aton/ll_sw_float.c ****   Resize_sw_info *sw_info = (Resize_sw_info *)sw_info_struct;
 953              		.loc 1 246 1 is_stmt 0 view .LVU262
 954 0000 2DE9F041 		push	{r4, r5, r6, r7, r8, lr}
 955              		.cfi_def_cfa_offset 24
 956              		.cfi_offset 4, -24
 957              		.cfi_offset 5, -20
 958              		.cfi_offset 6, -16
 959              		.cfi_offset 7, -12
 960              		.cfi_offset 8, -8
 961              		.cfi_offset 14, -4
 962              		.loc 1 249 3 view .LVU263
 963 0004 4269     		ldr	r2, [r0, #20]
 246:../../Middlewares/AI_Runtime/Npu/ll_aton/ll_sw_float.c ****   Resize_sw_info *sw_info = (Resize_sw_info *)sw_info_struct;
 964              		.loc 1 246 1 view .LVU264
 965 0006 D0B0     		sub	sp, sp, #320
 966              		.cfi_def_cfa_offset 344
 967              		.loc 1 249 3 view .LVU265
 968 0008 0992     		str	r2, [sp, #36]
 969 000a 826A     		ldr	r2, [r0, #40]
 970 000c 08AC     		add	r4, sp, #32
 971 000e C4E90222 		strd	r2, r2, [r4, #8]
 250:../../Middlewares/AI_Runtime/Npu/ll_aton/ll_sw_float.c ****                        sw_info->general.input.mem.start_offset, sw_info->general.input.dim.num_elem
 251:../../Middlewares/AI_Runtime/Npu/ll_aton/ll_sw_float.c **** 
 252:../../Middlewares/AI_Runtime/Npu/ll_aton/ll_sw_float.c ****   AI_ARRAY_OBJ_DECLARE(resize_scales_array, FORMAT, sw_info->scales.mem.start_offset, sw_info->scal
 972              		.loc 1 252 3 is_stmt 1 view .LVU266
 249:../../Middlewares/AI_Runtime/Npu/ll_aton/ll_sw_float.c ****                        sw_info->general.input.mem.start_offset, sw_info->general.input.dim.num_elem
 973              		.loc 1 249 3 is_stmt 0 view .LVU267
 974 0012 594B     		ldr	r3, .L20
 253:../../Middlewares/AI_Runtime/Npu/ll_aton/ll_sw_float.c ****                        sw_info->scales.dim.num_elem, )
 254:../../Middlewares/AI_Runtime/Npu/ll_aton/ll_sw_float.c **** 
 255:../../Middlewares/AI_Runtime/Npu/ll_aton/ll_sw_float.c ****   ai_array *resize_roi_array_ptr = NULL;
 256:../../Middlewares/AI_Runtime/Npu/ll_aton/ll_sw_float.c ****   ai_array resize_roi_array;
 257:../../Middlewares/AI_Runtime/Npu/ll_aton/ll_sw_float.c ****   if (sw_info->roi.mem.start_offset != NULL)
 975              		.loc 1 257 23 view .LVU268
 976 0014 D0F8AC20 		ldr	r2, [r0, #172]
 252:../../Middlewares/AI_Runtime/Npu/ll_aton/ll_sw_float.c ****                        sw_info->scales.dim.num_elem, )
 977              		.loc 1 252 3 view .LVU269
ARM GAS  C:\Users\Antonio\AppData\Local\Temp\cc6EBOZH.s 			page 25


 978 0018 D0F88050 		ldr	r5, [r0, #128]
 255:../../Middlewares/AI_Runtime/Npu/ll_aton/ll_sw_float.c ****   ai_array resize_roi_array;
 979              		.loc 1 255 3 is_stmt 1 view .LVU270
 980              	.LVL15:
 256:../../Middlewares/AI_Runtime/Npu/ll_aton/ll_sw_float.c ****   if (sw_info->roi.mem.start_offset != NULL)
 981              		.loc 1 256 3 view .LVU271
 982              		.loc 1 257 3 view .LVU272
 249:../../Middlewares/AI_Runtime/Npu/ll_aton/ll_sw_float.c ****                        sw_info->general.input.mem.start_offset, sw_info->general.input.dim.num_elem
 983              		.loc 1 249 3 is_stmt 0 view .LVU273
 984 001c 2360     		str	r3, [r4]
 985              		.loc 1 257 6 view .LVU274
 986 001e 32B1     		cbz	r2, .L14
 987              	.LBB8:
 258:../../Middlewares/AI_Runtime/Npu/ll_aton/ll_sw_float.c ****   {
 259:../../Middlewares/AI_Runtime/Npu/ll_aton/ll_sw_float.c ****     resize_roi_array = (ai_array)AI_ARRAY_OBJ_INIT(FORMAT, sw_info->roi.mem.start_offset, sw_info->
 988              		.loc 1 259 5 is_stmt 1 view .LVU275
 989              		.loc 1 259 34 is_stmt 0 view .LVU276
 990 0020 D0F89810 		ldr	r1, [r0, #152]
 991              		.loc 1 259 22 view .LVU277
 992 0024 CDE90E22 		strd	r2, r2, [sp, #56]
 260:../../Middlewares/AI_Runtime/Npu/ll_aton/ll_sw_float.c ****                                                    sw_info->roi.dim.num_elem);
 261:../../Middlewares/AI_Runtime/Npu/ll_aton/ll_sw_float.c ****     resize_roi_array_ptr = &resize_roi_array;
 993              		.loc 1 261 5 is_stmt 1 view .LVU278
 994              	.LVL16:
 259:../../Middlewares/AI_Runtime/Npu/ll_aton/ll_sw_float.c ****                                                    sw_info->roi.dim.num_elem);
 995              		.loc 1 259 22 is_stmt 0 view .LVU279
 996 0028 CDE90C31 		strd	r3, r1, [sp, #48]
 997              		.loc 1 261 26 view .LVU280
 998 002c 0CAA     		add	r2, sp, #48
 999              	.LVL17:
 1000              	.L14:
 1001              		.loc 1 261 26 view .LVU281
 1002              	.LBE8:
 262:../../Middlewares/AI_Runtime/Npu/ll_aton/ll_sw_float.c ****   }
 263:../../Middlewares/AI_Runtime/Npu/ll_aton/ll_sw_float.c **** 
 264:../../Middlewares/AI_Runtime/Npu/ll_aton/ll_sw_float.c ****   AI_ARRAY_OBJ_DECLARE(resize_output_array, FORMAT, sw_info->general.output.mem.start_offset,
 1003              		.loc 1 264 3 is_stmt 1 view .LVU282
 1004 002e 036C     		ldr	r3, [r0, #64]
 265:../../Middlewares/AI_Runtime/Npu/ll_aton/ll_sw_float.c ****                        sw_info->general.output.mem.start_offset, sw_info->general.output.dim.num_el
 266:../../Middlewares/AI_Runtime/Npu/ll_aton/ll_sw_float.c **** 
 267:../../Middlewares/AI_Runtime/Npu/ll_aton/ll_sw_float.c ****   AI_TENSOR_OBJ_DECLARE(input_output, , 0x0, 4,
 1005              		.loc 1 267 3 is_stmt 0 view .LVU283
 1006 0030 4FF0827E 		mov	lr, #17039360
 264:../../Middlewares/AI_Runtime/Npu/ll_aton/ll_sw_float.c ****                        sw_info->general.output.mem.start_offset, sw_info->general.output.dim.num_el
 1007              		.loc 1 264 3 view .LVU284
 1008 0034 1193     		str	r3, [sp, #68]
 1009 0036 436D     		ldr	r3, [r0, #84]
 1010              		.loc 1 267 3 view .LVU285
 1011 0038 40F2014C 		movw	ip, #1025
 1012 003c 40F20248 		movw	r8, #1026
 264:../../Middlewares/AI_Runtime/Npu/ll_aton/ll_sw_float.c ****                        sw_info->general.output.mem.start_offset, sw_info->general.output.dim.num_el
 1013              		.loc 1 264 3 view .LVU286
 1014 0040 CDE91233 		strd	r3, r3, [sp, #72]
 1015              		.loc 1 267 3 is_stmt 1 view .LVU287
 1016 0044 0023     		movs	r3, #0
 1017 0046 0769     		ldr	r7, [r0, #16]
 264:../../Middlewares/AI_Runtime/Npu/ll_aton/ll_sw_float.c ****                        sw_info->general.output.mem.start_offset, sw_info->general.output.dim.num_el
ARM GAS  C:\Users\Antonio\AppData\Local\Temp\cc6EBOZH.s 			page 26


 1018              		.loc 1 264 3 is_stmt 0 view .LVU288
 1019 0048 4B4E     		ldr	r6, .L20
 1020              		.loc 1 267 3 view .LVU289
 1021 004a 1497     		str	r7, [sp, #80]
 1022 004c C768     		ldr	r7, [r0, #12]
 264:../../Middlewares/AI_Runtime/Npu/ll_aton/ll_sw_float.c ****                        sw_info->general.output.mem.start_offset, sw_info->general.output.dim.num_el
 1023              		.loc 1 264 3 view .LVU290
 1024 004e 1096     		str	r6, [sp, #64]
 1025              		.loc 1 267 3 view .LVU291
 1026 0050 1597     		str	r7, [sp, #84]
 1027 0052 8768     		ldr	r7, [r0, #8]
 1028 0054 CDE9283E 		strd	r3, lr, [sp, #160]
 1029 0058 1697     		str	r7, [sp, #88]
 1030 005a 4768     		ldr	r7, [r0, #4]
 268:../../Middlewares/AI_Runtime/Npu/ll_aton/ll_sw_float.c ****                         SHAPE_INIT(sw_info->general.input.dim.tensor_h, sw_info->general.input.dim.
 269:../../Middlewares/AI_Runtime/Npu/ll_aton/ll_sw_float.c ****                                    sw_info->general.input.dim.tensor_c, sw_info->general.input.dim.
 270:../../Middlewares/AI_Runtime/Npu/ll_aton/ll_sw_float.c ****                         STRIDE_INIT(sw_info->general.input.stride.h, sw_info->general.input.stride.
 271:../../Middlewares/AI_Runtime/Npu/ll_aton/ll_sw_float.c ****                                     sw_info->general.input.stride.c, sw_info->general.input.stride.
 272:../../Middlewares/AI_Runtime/Npu/ll_aton/ll_sw_float.c ****                         1, &input_output_array, NULL);
 273:../../Middlewares/AI_Runtime/Npu/ll_aton/ll_sw_float.c ****   AI_TENSOR_OBJ_DECLARE(resize_scales, , 0x0, 4,
 274:../../Middlewares/AI_Runtime/Npu/ll_aton/ll_sw_float.c ****                         SHAPE_INIT(sw_info->scales.dim.tensor_h, sw_info->scales.dim.tensor_w,
 275:../../Middlewares/AI_Runtime/Npu/ll_aton/ll_sw_float.c ****                                    sw_info->scales.dim.tensor_c, sw_info->scales.dim.tensor_b),
 276:../../Middlewares/AI_Runtime/Npu/ll_aton/ll_sw_float.c ****                         STRIDE_INIT(sw_info->scales.stride.h, sw_info->scales.stride.w, sw_info->sc
 277:../../Middlewares/AI_Runtime/Npu/ll_aton/ll_sw_float.c ****                                     sw_info->scales.stride.b),
 278:../../Middlewares/AI_Runtime/Npu/ll_aton/ll_sw_float.c ****                         1, &resize_scales_array, NULL);
 279:../../Middlewares/AI_Runtime/Npu/ll_aton/ll_sw_float.c **** 
 280:../../Middlewares/AI_Runtime/Npu/ll_aton/ll_sw_float.c ****   AI_TENSOR_OBJ_DECLARE(resize_output, , 0x0, 4,
 1031              		.loc 1 280 3 view .LVU292
 1032 005c CDE92F3E 		strd	r3, lr, [sp, #188]
 267:../../Middlewares/AI_Runtime/Npu/ll_aton/ll_sw_float.c ****                         SHAPE_INIT(sw_info->general.input.dim.tensor_h, sw_info->general.input.dim.
 1033              		.loc 1 267 3 view .LVU293
 1034 0060 1797     		str	r7, [sp, #92]
 1035 0062 14AF     		add	r7, sp, #80
 1036 0064 2B97     		str	r7, [sp, #172]
 1037 0066 476A     		ldr	r7, [r0, #36]
 1038 0068 CDF8A8C0 		str	ip, [sp, #168]
 1039 006c 1897     		str	r7, [sp, #96]
 1040 006e 076A     		ldr	r7, [r0, #32]
 1041 0070 CDF8B080 		str	r8, [sp, #176]
 1042 0074 1997     		str	r7, [sp, #100]
 1043 0076 C769     		ldr	r7, [r0, #28]
 1044              		.loc 1 280 3 view .LVU294
 1045 0078 CDF8C4C0 		str	ip, [sp, #196]
 267:../../Middlewares/AI_Runtime/Npu/ll_aton/ll_sw_float.c ****                         SHAPE_INIT(sw_info->general.input.dim.tensor_h, sw_info->general.input.dim.
 1046              		.loc 1 267 3 view .LVU295
 1047 007c 1A97     		str	r7, [sp, #104]
 1048 007e 8769     		ldr	r7, [r0, #24]
 264:../../Middlewares/AI_Runtime/Npu/ll_aton/ll_sw_float.c ****                        sw_info->general.output.mem.start_offset, sw_info->general.output.dim.num_el
 1049              		.loc 1 264 3 view .LVU296
 1050 0080 10A9     		add	r1, sp, #64
 267:../../Middlewares/AI_Runtime/Npu/ll_aton/ll_sw_float.c ****                         SHAPE_INIT(sw_info->general.input.dim.tensor_h, sw_info->general.input.dim.
 1051              		.loc 1 267 3 view .LVU297
 1052 0082 1B97     		str	r7, [sp, #108]
 1053 0084 18AF     		add	r7, sp, #96
 1054 0086 CDE92D74 		strd	r7, r4, [sp, #180]
 272:../../Middlewares/AI_Runtime/Npu/ll_aton/ll_sw_float.c ****   AI_TENSOR_OBJ_DECLARE(resize_scales, , 0x0, 4,
 1055              		.loc 1 272 54 is_stmt 1 view .LVU298
ARM GAS  C:\Users\Antonio\AppData\Local\Temp\cc6EBOZH.s 			page 27


 273:../../Middlewares/AI_Runtime/Npu/ll_aton/ll_sw_float.c ****                         SHAPE_INIT(sw_info->scales.dim.tensor_h, sw_info->scales.dim.tensor_w,
 1056              		.loc 1 273 3 view .LVU299
 1057              	.LVL18:
 278:../../Middlewares/AI_Runtime/Npu/ll_aton/ll_sw_float.c **** 
 1058              		.loc 1 278 55 view .LVU300
 1059              		.loc 1 280 3 view .LVU301
 1060 008a C46B     		ldr	r4, [r0, #60]
 281:../../Middlewares/AI_Runtime/Npu/ll_aton/ll_sw_float.c ****                         SHAPE_INIT(sw_info->general.output.dim.tensor_h, sw_info->general.output.di
 282:../../Middlewares/AI_Runtime/Npu/ll_aton/ll_sw_float.c ****                                    sw_info->general.output.dim.tensor_c, sw_info->general.output.di
 283:../../Middlewares/AI_Runtime/Npu/ll_aton/ll_sw_float.c ****                         STRIDE_INIT(sw_info->general.output.stride.h, sw_info->general.output.strid
 284:../../Middlewares/AI_Runtime/Npu/ll_aton/ll_sw_float.c ****                                     sw_info->general.output.stride.c, sw_info->general.output.strid
 285:../../Middlewares/AI_Runtime/Npu/ll_aton/ll_sw_float.c ****                         1, &resize_output_array, NULL);
 286:../../Middlewares/AI_Runtime/Npu/ll_aton/ll_sw_float.c ****   // tensor chain initialization
 287:../../Middlewares/AI_Runtime/Npu/ll_aton/ll_sw_float.c ****   AI_TENSOR_CHAIN_OBJ_DECLARE(resize_chain, , 4, AI_TENSOR_LIST_OBJ_INIT(AI_FLAG_NONE, 1, TENSORS(&
 1061              		.loc 1 287 3 is_stmt 0 view .LVU302
 1062 008c 28AF     		add	r7, sp, #160
 280:../../Middlewares/AI_Runtime/Npu/ll_aton/ll_sw_float.c ****                         SHAPE_INIT(sw_info->general.output.dim.tensor_h, sw_info->general.output.di
 1063              		.loc 1 280 3 view .LVU303
 1064 008e 1C94     		str	r4, [sp, #112]
 1065 0090 846B     		ldr	r4, [r0, #56]
 1066              		.loc 1 287 3 view .LVU304
 1067 0092 0097     		str	r7, [sp]
 280:../../Middlewares/AI_Runtime/Npu/ll_aton/ll_sw_float.c ****                         SHAPE_INIT(sw_info->general.output.dim.tensor_h, sw_info->general.output.di
 1068              		.loc 1 280 3 view .LVU305
 1069 0094 1D94     		str	r4, [sp, #116]
 1070 0096 446B     		ldr	r4, [r0, #52]
 1071              		.loc 1 287 3 view .LVU306
 1072 0098 2FAF     		add	r7, sp, #188
 280:../../Middlewares/AI_Runtime/Npu/ll_aton/ll_sw_float.c ****                         SHAPE_INIT(sw_info->general.output.dim.tensor_h, sw_info->general.output.di
 1073              		.loc 1 280 3 view .LVU307
 1074 009a 1E94     		str	r4, [sp, #120]
 1075 009c 046B     		ldr	r4, [r0, #48]
 1076              		.loc 1 287 3 view .LVU308
 1077 009e CDF8DCD0 		str	sp, [sp, #220]
 280:../../Middlewares/AI_Runtime/Npu/ll_aton/ll_sw_float.c ****                         SHAPE_INIT(sw_info->general.output.dim.tensor_h, sw_info->general.output.di
 1078              		.loc 1 280 3 view .LVU309
 1079 00a2 1F94     		str	r4, [sp, #124]
 1080 00a4 1CAC     		add	r4, sp, #112
 1081 00a6 CDE93248 		strd	r4, r8, [sp, #200]
 1082 00aa 046D     		ldr	r4, [r0, #80]
 1083              		.loc 1 287 3 view .LVU310
 1084 00ac 0197     		str	r7, [sp, #4]
 280:../../Middlewares/AI_Runtime/Npu/ll_aton/ll_sw_float.c ****                         SHAPE_INIT(sw_info->general.output.dim.tensor_h, sw_info->general.output.di
 1085              		.loc 1 280 3 view .LVU311
 1086 00ae 2094     		str	r4, [sp, #128]
 1087 00b0 C46C     		ldr	r4, [r0, #76]
 1088              		.loc 1 287 3 view .LVU312
 1089 00b2 3C93     		str	r3, [sp, #240]
 280:../../Middlewares/AI_Runtime/Npu/ll_aton/ll_sw_float.c ****                         SHAPE_INIT(sw_info->general.output.dim.tensor_h, sw_info->general.output.di
 1090              		.loc 1 280 3 view .LVU313
 1091 00b4 2194     		str	r4, [sp, #132]
 1092 00b6 846C     		ldr	r4, [r0, #72]
 1093              		.loc 1 287 3 view .LVU314
 1094 00b8 0293     		str	r3, [sp, #8]
 280:../../Middlewares/AI_Runtime/Npu/ll_aton/ll_sw_float.c ****                         SHAPE_INIT(sw_info->general.output.dim.tensor_h, sw_info->general.output.di
 1095              		.loc 1 280 3 view .LVU315
 1096 00ba 2294     		str	r4, [sp, #136]
ARM GAS  C:\Users\Antonio\AppData\Local\Temp\cc6EBOZH.s 			page 28


 1097 00bc 446C     		ldr	r4, [r0, #68]
 1098 00be 2394     		str	r4, [sp, #140]
 1099 00c0 20AC     		add	r4, sp, #128
 1100 00c2 CDE93441 		strd	r4, r1, [sp, #208]
 285:../../Middlewares/AI_Runtime/Npu/ll_aton/ll_sw_float.c ****   // tensor chain initialization
 1101              		.loc 1 285 55 is_stmt 1 view .LVU316
 1102              		.loc 1 287 3 view .LVU317
 1103 00c6 0421     		movs	r1, #4
 1104 00c8 0491     		str	r1, [sp, #16]
 1105 00ca 0121     		movs	r1, #1
 1106 00cc CDE93831 		strd	r3, r1, [sp, #224]
 1107 00d0 3691     		str	r1, [sp, #216]
 1108 00d2 01A9     		add	r1, sp, #4
 1109 00d4 CDE93A13 		strd	r1, r3, [sp, #232]
 1110 00d8 02A9     		add	r1, sp, #8
 1111 00da CDE93D13 		strd	r1, r3, [sp, #244]
 1112 00de 03A9     		add	r1, sp, #12
 1113 00e0 CDE94013 		strd	r1, r3, [sp, #256]
 1114 00e4 36A9     		add	r1, sp, #216
 1115 00e6 0591     		str	r1, [sp, #20]
 288:../../Middlewares/AI_Runtime/Npu/ll_aton/ll_sw_float.c ****                               AI_TENSOR_LIST_OBJ_INIT(AI_FLAG_NONE, 1, TENSORS(&resize_output)),
 289:../../Middlewares/AI_Runtime/Npu/ll_aton/ll_sw_float.c ****                               AI_TENSOR_LIST_OBJ_EMPTY, AI_TENSOR_LIST_OBJ_EMPTY)
 290:../../Middlewares/AI_Runtime/Npu/ll_aton/ll_sw_float.c **** 
 291:../../Middlewares/AI_Runtime/Npu/ll_aton/ll_sw_float.c ****   // extrapolating the scales values needed
 292:../../Middlewares/AI_Runtime/Npu/ll_aton/ll_sw_float.c ****   const ai_tensor *p = &resize_scales;
 1116              		.loc 1 292 3 view .LVU318
 1117              	.LVL19:
 293:../../Middlewares/AI_Runtime/Npu/ll_aton/ll_sw_float.c ****   const ai_float *s = AI_ARRAY_OBJ_DATA(p->data, ai_float);
 1118              		.loc 1 293 3 view .LVU319
 294:../../Middlewares/AI_Runtime/Npu/ll_aton/ll_sw_float.c ****   AI_ARRAY_OBJ_DECLARE_STATIC(rs, ai_float, AI_ARRAY_FORMAT_FLOAT, AI_CONST, 2, s[2], s[3])
 1119              		.loc 1 294 3 view .LVU320
 1120 00e8 0221     		movs	r1, #2
 1121 00ea 2591     		str	r1, [sp, #148]
 1122 00ec 06A9     		add	r1, sp, #24
 1123 00ee 2496     		str	r6, [sp, #144]
 1124 00f0 AE68     		ldr	r6, [r5, #8]	@ float
 1125 00f2 ED68     		ldr	r5, [r5, #12]	@ float
 1126              	.LVL20:
 1127              		.loc 1 294 3 is_stmt 0 view .LVU321
 1128 00f4 CDE92613 		strd	r1, r3, [sp, #152]
 295:../../Middlewares/AI_Runtime/Npu/ll_aton/ll_sw_float.c **** 
 296:../../Middlewares/AI_Runtime/Npu/ll_aton/ll_sw_float.c ****   // layer initialization
 297:../../Middlewares/AI_Runtime/Npu/ll_aton/ll_sw_float.c ****   if ((ai_resize_mode)sw_info->mode == AI_RESIZE_ZEROS)
 1129              		.loc 1 297 3 is_stmt 1 view .LVU322
 1130              		.loc 1 297 30 is_stmt 0 view .LVU323
 1131 00f8 90F8EC10 		ldrb	r1, [r0, #236]	@ zero_extendqisi2
 287:../../Middlewares/AI_Runtime/Npu/ll_aton/ll_sw_float.c ****                               AI_TENSOR_LIST_OBJ_INIT(AI_FLAG_NONE, 1, TENSORS(&resize_output)),
 1132              		.loc 1 287 3 view .LVU324
 1133 00fc 04AC     		add	r4, sp, #16
 294:../../Middlewares/AI_Runtime/Npu/ll_aton/ll_sw_float.c ****   AI_ARRAY_OBJ_DECLARE_STATIC(rs, ai_float, AI_ARRAY_FORMAT_FLOAT, AI_CONST, 2, s[2], s[3])
 1134              		.loc 1 294 3 view .LVU325
 1135 00fe 0795     		str	r5, [sp, #28]	@ float
 287:../../Middlewares/AI_Runtime/Npu/ll_aton/ll_sw_float.c ****                               AI_TENSOR_LIST_OBJ_INIT(AI_FLAG_NONE, 1, TENSORS(&resize_output)),
 1136              		.loc 1 287 3 view .LVU326
 1137 0100 3F93     		str	r3, [sp, #252]
 1138 0102 0393     		str	r3, [sp, #12]
 294:../../Middlewares/AI_Runtime/Npu/ll_aton/ll_sw_float.c ****   AI_ARRAY_OBJ_DECLARE_STATIC(rs, ai_float, AI_ARRAY_FORMAT_FLOAT, AI_CONST, 2, s[2], s[3])
ARM GAS  C:\Users\Antonio\AppData\Local\Temp\cc6EBOZH.s 			page 29


 1139              		.loc 1 294 3 view .LVU327
 1140 0104 0696     		str	r6, [sp, #24]	@ float
 1141 0106 24AD     		add	r5, sp, #144
 1142              		.loc 1 297 6 view .LVU328
 1143 0108 99B9     		cbnz	r1, .L15
 1144              	.LBB9:
 298:../../Middlewares/AI_Runtime/Npu/ll_aton/ll_sw_float.c ****   {
 299:../../Middlewares/AI_Runtime/Npu/ll_aton/ll_sw_float.c ****     AI_LAYER_OBJ_DECLARE(resize_layer, 1, UPSAMPLE_TYPE, 0x0, NULL, upsample, forward_upsample_zero
 1145              		.loc 1 299 5 is_stmt 1 view .LVU329
 1146 010a 1C4B     		ldr	r3, .L20+4
 300:../../Middlewares/AI_Runtime/Npu/ll_aton/ll_sw_float.c ****                          NULL, NULL, , .mode = AI_UPSAMPLE_ZEROS, .center = false, .scales = AI_ARR
 301:../../Middlewares/AI_Runtime/Npu/ll_aton/ll_sw_float.c ****                          .nearest_mode = AI_ROUND_PREFER_FLOOR)
 302:../../Middlewares/AI_Runtime/Npu/ll_aton/ll_sw_float.c ****     resize_layer.forward(AI_LAYER_OBJ(&resize_layer));
 1147              		.loc 1 302 5 is_stmt 0 view .LVU330
 1148 010c 42A8     		add	r0, sp, #264
 1149              	.LVL21:
 299:../../Middlewares/AI_Runtime/Npu/ll_aton/ll_sw_float.c ****                          NULL, NULL, , .mode = AI_UPSAMPLE_ZEROS, .center = false, .scales = AI_ARR
 1150              		.loc 1 299 5 view .LVU331
 1151 010e CDE94231 		strd	r3, r1, [sp, #264]
 1152 0112 1B4B     		ldr	r3, .L20+8
 1153 0114 CDE94411 		strd	r1, r1, [sp, #272]
 1154 0118 CDE94734 		strd	r3, r4, [sp, #284]
 1155 011c 4691     		str	r1, [sp, #280]
 1156 011e ADF82411 		strh	r1, [sp, #292]	@ movhi
 1157 0122 4A95     		str	r5, [sp, #296]
 1158 0124 8DF82C11 		strb	r1, [sp, #300]
 1159              		.loc 1 302 5 is_stmt 1 view .LVU332
 1160 0128 FFF7FEFF 		bl	forward_upsample_zeros
 1161              	.LVL22:
 1162              	.L13:
 1163              		.loc 1 302 5 is_stmt 0 view .LVU333
 1164              	.LBE9:
 303:../../Middlewares/AI_Runtime/Npu/ll_aton/ll_sw_float.c ****   }
 304:../../Middlewares/AI_Runtime/Npu/ll_aton/ll_sw_float.c ****   else
 305:../../Middlewares/AI_Runtime/Npu/ll_aton/ll_sw_float.c ****   {
 306:../../Middlewares/AI_Runtime/Npu/ll_aton/ll_sw_float.c ****     AI_LAYER_OBJ_DECLARE(resize_layer, 1, RESIZE_TYPE, 0x0, NULL, resize, forward_resize, &resize_c
 307:../../Middlewares/AI_Runtime/Npu/ll_aton/ll_sw_float.c ****                          .cubic_coeff_a = sw_info->cubic_coeff_a, .exclude_outside = sw_info->exclu
 308:../../Middlewares/AI_Runtime/Npu/ll_aton/ll_sw_float.c ****                          .extrapol_val = sw_info->extrapol_val, .mode = (ai_resize_mode)sw_info->mo
 309:../../Middlewares/AI_Runtime/Npu/ll_aton/ll_sw_float.c ****                          .nearest_mode = (ai_nearest_mode)sw_info->nearest_mode,
 310:../../Middlewares/AI_Runtime/Npu/ll_aton/ll_sw_float.c ****                          .coord_transf_mode = (ai_coord_transf_mode)sw_info->coord_transf_mode,
 311:../../Middlewares/AI_Runtime/Npu/ll_aton/ll_sw_float.c ****                          .scales = AI_ARRAY_OBJ(&rs), .roi = resize_roi_array_ptr)
 312:../../Middlewares/AI_Runtime/Npu/ll_aton/ll_sw_float.c ****     resize_layer.forward(AI_LAYER_OBJ(&resize_layer));
 313:../../Middlewares/AI_Runtime/Npu/ll_aton/ll_sw_float.c ****   }
 314:../../Middlewares/AI_Runtime/Npu/ll_aton/ll_sw_float.c **** }
 1165              		.loc 1 314 1 view .LVU334
 1166 012c 50B0     		add	sp, sp, #320
 1167              		.cfi_remember_state
 1168              		.cfi_def_cfa_offset 24
 1169              		@ sp needed
 1170 012e BDE8F081 		pop	{r4, r5, r6, r7, r8, pc}
 1171              	.LVL23:
 1172              	.L15:
 1173              		.cfi_restore_state
 1174              	.LBB10:
 306:../../Middlewares/AI_Runtime/Npu/ll_aton/ll_sw_float.c ****                          .cubic_coeff_a = sw_info->cubic_coeff_a, .exclude_outside = sw_info->exclu
 1175              		.loc 1 306 5 is_stmt 1 view .LVU335
 1176 0132 144E     		ldr	r6, .L20+12
ARM GAS  C:\Users\Antonio\AppData\Local\Temp\cc6EBOZH.s 			page 30


 1177 0134 CDE94433 		strd	r3, r3, [sp, #272]
 1178 0138 CDE94263 		strd	r6, r3, [sp, #264]
 1179 013c 4693     		str	r3, [sp, #280]
 1180 013e 124B     		ldr	r3, .L20+16
 1181 0140 CDE94E52 		strd	r5, r2, [sp, #312]
 312:../../Middlewares/AI_Runtime/Npu/ll_aton/ll_sw_float.c ****   }
 1182              		.loc 1 312 5 view .LVU336
 306:../../Middlewares/AI_Runtime/Npu/ll_aton/ll_sw_float.c ****                          .cubic_coeff_a = sw_info->cubic_coeff_a, .exclude_outside = sw_info->exclu
 1183              		.loc 1 306 5 is_stmt 0 view .LVU337
 1184 0144 CDE94734 		strd	r3, r4, [sp, #284]
 1185 0148 90F8EE30 		ldrb	r3, [r0, #238]	@ zero_extendqisi2
 1186 014c 8DF83411 		strb	r1, [sp, #308]
 1187 0150 8DF82431 		strb	r3, [sp, #292]
 1188 0154 D0F8E030 		ldr	r3, [r0, #224]	@ float
 1189 0158 4A93     		str	r3, [sp, #296]	@ float
 1190 015a 90F8E430 		ldrb	r3, [r0, #228]	@ zero_extendqisi2
 1191 015e 8DF82C31 		strb	r3, [sp, #300]
 1192 0162 D0F8E830 		ldr	r3, [r0, #232]	@ float
 1193 0166 4C93     		str	r3, [sp, #304]	@ float
 1194 0168 90F8ED30 		ldrb	r3, [r0, #237]	@ zero_extendqisi2
 312:../../Middlewares/AI_Runtime/Npu/ll_aton/ll_sw_float.c ****   }
 1195              		.loc 1 312 5 view .LVU338
 1196 016c 42A8     		add	r0, sp, #264
 1197              	.LVL24:
 306:../../Middlewares/AI_Runtime/Npu/ll_aton/ll_sw_float.c ****                          .cubic_coeff_a = sw_info->cubic_coeff_a, .exclude_outside = sw_info->exclu
 1198              		.loc 1 306 5 view .LVU339
 1199 016e 8DF83531 		strb	r3, [sp, #309]
 312:../../Middlewares/AI_Runtime/Npu/ll_aton/ll_sw_float.c ****   }
 1200              		.loc 1 312 5 view .LVU340
 1201 0172 FFF7FEFF 		bl	forward_resize
 1202              	.LVL25:
 312:../../Middlewares/AI_Runtime/Npu/ll_aton/ll_sw_float.c ****   }
 1203              		.loc 1 312 5 view .LVU341
 1204              	.LBE10:
 1205              		.loc 1 314 1 view .LVU342
 1206 0176 D9E7     		b	.L13
 1207              	.L21:
 1208              		.align	2
 1209              	.L20:
 1210 0178 40108200 		.word	8523840
 1211 017c 12010100 		.word	65810
 1212 0180 00000000 		.word	forward_upsample_zeros
 1213 0184 1B010100 		.word	65819
 1214 0188 00000000 		.word	forward_resize
 1215              		.cfi_endproc
 1216              	.LFE18:
 1218              		.section	.text.ll_sw_forward_softmax,"ax",%progbits
 1219              		.align	1
 1220              		.global	ll_sw_forward_softmax
 1221              		.syntax unified
 1222              		.thumb
 1223              		.thumb_func
 1225              	ll_sw_forward_softmax:
 1226              	.LVL26:
 1227              	.LFB19:
 315:../../Middlewares/AI_Runtime/Npu/ll_aton/ll_sw_float.c **** 
 316:../../Middlewares/AI_Runtime/Npu/ll_aton/ll_sw_float.c **** //##########################################################################################
ARM GAS  C:\Users\Antonio\AppData\Local\Temp\cc6EBOZH.s 			page 31


 317:../../Middlewares/AI_Runtime/Npu/ll_aton/ll_sw_float.c **** /** Softmax forward function */
 318:../../Middlewares/AI_Runtime/Npu/ll_aton/ll_sw_float.c **** void ll_sw_forward_softmax(/* int processor, */ void *sw_info_struct)
 319:../../Middlewares/AI_Runtime/Npu/ll_aton/ll_sw_float.c **** {
 1228              		.loc 1 319 1 is_stmt 1 view -0
 1229              		.cfi_startproc
 1230              		@ args = 0, pretend = 0, frame = 336
 1231              		@ frame_needed = 0, uses_anonymous_args = 0
 320:../../Middlewares/AI_Runtime/Npu/ll_aton/ll_sw_float.c ****   Softmax_sw_info *sw_info = (Softmax_sw_info *)sw_info_struct;
 1232              		.loc 1 320 3 view .LVU344
 321:../../Middlewares/AI_Runtime/Npu/ll_aton/ll_sw_float.c **** 
 322:../../Middlewares/AI_Runtime/Npu/ll_aton/ll_sw_float.c ****   // array init
 323:../../Middlewares/AI_Runtime/Npu/ll_aton/ll_sw_float.c ****   int32_t format = sw_info->general.input.format.is_signed ? (AI_ARRAY_FORMAT_S8 | AI_FMT_FLAG_IS_I
 1233              		.loc 1 323 3 view .LVU345
 324:../../Middlewares/AI_Runtime/Npu/ll_aton/ll_sw_float.c ****                                                            : (AI_ARRAY_FORMAT_U8 | AI_FMT_FLAG_IS_I
 1234              		.loc 1 324 60 is_stmt 0 view .LVU346
 1235 0000 90F82C10 		ldrb	r1, [r0, #44]	@ zero_extendqisi2
 1236              		.loc 1 324 60 discriminator 1 view .LVU347
 1237 0004 564B     		ldr	r3, .L29
 1238 0006 574A     		ldr	r2, .L29+4
 1239 0008 0029     		cmp	r1, #0
 319:../../Middlewares/AI_Runtime/Npu/ll_aton/ll_sw_float.c ****   Softmax_sw_info *sw_info = (Softmax_sw_info *)sw_info_struct;
 1240              		.loc 1 319 1 view .LVU348
 1241 000a F0B5     		push	{r4, r5, r6, r7, lr}
 1242              		.cfi_def_cfa_offset 20
 1243              		.cfi_offset 4, -20
 1244              		.cfi_offset 5, -16
 1245              		.cfi_offset 6, -12
 1246              		.cfi_offset 7, -8
 1247              		.cfi_offset 14, -4
 1248              		.loc 1 324 60 discriminator 1 view .LVU349
 1249 000c 08BF     		it	eq
 1250 000e 1946     		moveq	r1, r3
 319:../../Middlewares/AI_Runtime/Npu/ll_aton/ll_sw_float.c ****   Softmax_sw_info *sw_info = (Softmax_sw_info *)sw_info_struct;
 1251              		.loc 1 319 1 view .LVU350
 1252 0010 0446     		mov	r4, r0
 1253              		.loc 1 324 60 discriminator 1 view .LVU351
 1254 0012 18BF     		it	ne
 1255 0014 1146     		movne	r1, r2
 1256              	.LVL27:
 325:../../Middlewares/AI_Runtime/Npu/ll_aton/ll_sw_float.c ****   AI_ARRAY_OBJ_DECLARE(input_output_array, format, sw_info->general.input.mem.start_offset,
 1257              		.loc 1 325 3 is_stmt 1 view .LVU352
 319:../../Middlewares/AI_Runtime/Npu/ll_aton/ll_sw_float.c ****   Softmax_sw_info *sw_info = (Softmax_sw_info *)sw_info_struct;
 1258              		.loc 1 319 1 is_stmt 0 view .LVU353
 1259 0016 D5B0     		sub	sp, sp, #340
 1260              		.cfi_def_cfa_offset 360
 1261              		.loc 1 325 3 view .LVU354
 1262 0018 0691     		str	r1, [sp, #24]
 1263 001a 6169     		ldr	r1, [r4, #20]
 1264              	.LVL28:
 326:../../Middlewares/AI_Runtime/Npu/ll_aton/ll_sw_float.c ****                        sw_info->general.input.mem.start_offset, sw_info->general.input.dim.num_elem
 327:../../Middlewares/AI_Runtime/Npu/ll_aton/ll_sw_float.c **** 
 328:../../Middlewares/AI_Runtime/Npu/ll_aton/ll_sw_float.c ****   format = sw_info->general.output.format.is_signed ? (AI_ARRAY_FORMAT_S8 | AI_FMT_FLAG_IS_IO)
 329:../../Middlewares/AI_Runtime/Npu/ll_aton/ll_sw_float.c ****                                                     : (AI_ARRAY_FORMAT_U8 | AI_FMT_FLAG_IS_IO);
 330:../../Middlewares/AI_Runtime/Npu/ll_aton/ll_sw_float.c ****   AI_ARRAY_OBJ_DECLARE(softmax_output_array, format, sw_info->general.output.mem.start_offset,
 331:../../Middlewares/AI_Runtime/Npu/ll_aton/ll_sw_float.c ****                        sw_info->general.output.mem.start_offset, sw_info->general.output.dim.num_el
 332:../../Middlewares/AI_Runtime/Npu/ll_aton/ll_sw_float.c **** 
 333:../../Middlewares/AI_Runtime/Npu/ll_aton/ll_sw_float.c ****   AI_ARRAY_OBJ_DECLARE(sm_scratch0_array, AI_ARRAY_FORMAT_S32, sw_info->scratch.mem.start_offset,
ARM GAS  C:\Users\Antonio\AppData\Local\Temp\cc6EBOZH.s 			page 32


 334:../../Middlewares/AI_Runtime/Npu/ll_aton/ll_sw_float.c ****                        sw_info->scratch.mem.start_offset, sw_info->scratch.dim.num_elem, )
 335:../../Middlewares/AI_Runtime/Npu/ll_aton/ll_sw_float.c **** 
 336:../../Middlewares/AI_Runtime/Npu/ll_aton/ll_sw_float.c ****   AI_TENSOR_OBJ_DECLARE(input_output, , 0x0, 4,
 1265              		.loc 1 336 3 view .LVU355
 1266 001c 4FF0827C 		mov	ip, #17039360
 325:../../Middlewares/AI_Runtime/Npu/ll_aton/ll_sw_float.c ****   AI_ARRAY_OBJ_DECLARE(input_output_array, format, sw_info->general.input.mem.start_offset,
 1267              		.loc 1 325 3 view .LVU356
 1268 0020 0791     		str	r1, [sp, #28]
 1269 0022 A16A     		ldr	r1, [r4, #40]
 1270              		.loc 1 336 3 view .LVU357
 1271 0024 40F20146 		movw	r6, #1025
 325:../../Middlewares/AI_Runtime/Npu/ll_aton/ll_sw_float.c ****   AI_ARRAY_OBJ_DECLARE(input_output_array, format, sw_info->general.input.mem.start_offset,
 1272              		.loc 1 325 3 view .LVU358
 1273 0028 CDE90811 		strd	r1, r1, [sp, #32]
 328:../../Middlewares/AI_Runtime/Npu/ll_aton/ll_sw_float.c ****                                                     : (AI_ARRAY_FORMAT_U8 | AI_FMT_FLAG_IS_IO);
 1274              		.loc 1 328 3 is_stmt 1 view .LVU359
 329:../../Middlewares/AI_Runtime/Npu/ll_aton/ll_sw_float.c ****   AI_ARRAY_OBJ_DECLARE(softmax_output_array, format, sw_info->general.output.mem.start_offset,
 1275              		.loc 1 329 53 is_stmt 0 view .LVU360
 1276 002c 94F85810 		ldrb	r1, [r4, #88]	@ zero_extendqisi2
 1277              		.loc 1 336 3 view .LVU361
 1278 0030 2769     		ldr	r7, [r4, #16]
 329:../../Middlewares/AI_Runtime/Npu/ll_aton/ll_sw_float.c ****   AI_ARRAY_OBJ_DECLARE(softmax_output_array, format, sw_info->general.output.mem.start_offset,
 1279              		.loc 1 329 53 discriminator 1 view .LVU362
 1280 0032 0029     		cmp	r1, #0
 333:../../Middlewares/AI_Runtime/Npu/ll_aton/ll_sw_float.c ****                        sw_info->scratch.mem.start_offset, sw_info->scratch.dim.num_elem, )
 1281              		.loc 1 333 3 view .LVU363
 1282 0034 4C49     		ldr	r1, .L29+8
 329:../../Middlewares/AI_Runtime/Npu/ll_aton/ll_sw_float.c ****   AI_ARRAY_OBJ_DECLARE(softmax_output_array, format, sw_info->general.output.mem.start_offset,
 1283              		.loc 1 329 53 discriminator 1 view .LVU364
 1284 0036 18BF     		it	ne
 1285 0038 1346     		movne	r3, r2
 1286              	.LVL29:
 330:../../Middlewares/AI_Runtime/Npu/ll_aton/ll_sw_float.c ****                        sw_info->general.output.mem.start_offset, sw_info->general.output.dim.num_el
 1287              		.loc 1 330 3 is_stmt 1 view .LVU365
 333:../../Middlewares/AI_Runtime/Npu/ll_aton/ll_sw_float.c ****                        sw_info->scratch.mem.start_offset, sw_info->scratch.dim.num_elem, )
 1288              		.loc 1 333 3 is_stmt 0 view .LVU366
 1289 003a 0E91     		str	r1, [sp, #56]
 1290 003c E16E     		ldr	r1, [r4, #108]
 330:../../Middlewares/AI_Runtime/Npu/ll_aton/ll_sw_float.c ****                        sw_info->general.output.mem.start_offset, sw_info->general.output.dim.num_el
 1291              		.loc 1 330 3 view .LVU367
 1292 003e 0A93     		str	r3, [sp, #40]
 333:../../Middlewares/AI_Runtime/Npu/ll_aton/ll_sw_float.c ****                        sw_info->scratch.mem.start_offset, sw_info->scratch.dim.num_elem, )
 1293              		.loc 1 333 3 view .LVU368
 1294 0040 0F91     		str	r1, [sp, #60]
 1295 0042 D4F88010 		ldr	r1, [r4, #128]
 330:../../Middlewares/AI_Runtime/Npu/ll_aton/ll_sw_float.c ****                        sw_info->general.output.mem.start_offset, sw_info->general.output.dim.num_el
 1296              		.loc 1 330 3 view .LVU369
 1297 0046 236C     		ldr	r3, [r4, #64]
 1298              	.LVL30:
 333:../../Middlewares/AI_Runtime/Npu/ll_aton/ll_sw_float.c ****                        sw_info->scratch.mem.start_offset, sw_info->scratch.dim.num_elem, )
 1299              		.loc 1 333 3 view .LVU370
 1300 0048 CDE91011 		strd	r1, r1, [sp, #64]
 1301              		.loc 1 336 3 view .LVU371
 1302 004c 0021     		movs	r1, #0
 1303 004e 1297     		str	r7, [sp, #72]
 1304 0050 E768     		ldr	r7, [r4, #12]
 330:../../Middlewares/AI_Runtime/Npu/ll_aton/ll_sw_float.c ****                        sw_info->general.output.mem.start_offset, sw_info->general.output.dim.num_el
ARM GAS  C:\Users\Antonio\AppData\Local\Temp\cc6EBOZH.s 			page 33


 1305              		.loc 1 330 3 view .LVU372
 1306 0052 0B93     		str	r3, [sp, #44]
 1307              		.loc 1 336 3 view .LVU373
 1308 0054 1397     		str	r7, [sp, #76]
 330:../../Middlewares/AI_Runtime/Npu/ll_aton/ll_sw_float.c ****                        sw_info->general.output.mem.start_offset, sw_info->general.output.dim.num_el
 1309              		.loc 1 330 3 view .LVU374
 1310 0056 636D     		ldr	r3, [r4, #84]
 1311              		.loc 1 336 3 view .LVU375
 1312 0058 A768     		ldr	r7, [r4, #8]
 1313 005a CDE92A1C 		strd	r1, ip, [sp, #168]
 330:../../Middlewares/AI_Runtime/Npu/ll_aton/ll_sw_float.c ****                        sw_info->general.output.mem.start_offset, sw_info->general.output.dim.num_el
 1314              		.loc 1 330 3 view .LVU376
 1315 005e CDE90C33 		strd	r3, r3, [sp, #48]
 333:../../Middlewares/AI_Runtime/Npu/ll_aton/ll_sw_float.c ****                        sw_info->scratch.mem.start_offset, sw_info->scratch.dim.num_elem, )
 1316              		.loc 1 333 3 is_stmt 1 view .LVU377
 1317              		.loc 1 336 3 view .LVU378
 1318 0062 2C96     		str	r6, [sp, #176]
 1319 0064 1497     		str	r7, [sp, #80]
 1320 0066 6768     		ldr	r7, [r4, #4]
 1321 0068 12AD     		add	r5, sp, #72
 1322 006a 1597     		str	r7, [sp, #84]
 1323 006c 40F20247 		movw	r7, #1026
 1324 0070 2D95     		str	r5, [sp, #180]
 1325 0072 656A     		ldr	r5, [r4, #36]
 325:../../Middlewares/AI_Runtime/Npu/ll_aton/ll_sw_float.c ****                        sw_info->general.input.mem.start_offset, sw_info->general.input.dim.num_elem
 1326              		.loc 1 325 3 is_stmt 0 view .LVU379
 1327 0074 06A8     		add	r0, sp, #24
 1328              	.LVL31:
 1329              		.loc 1 336 3 view .LVU380
 1330 0076 1695     		str	r5, [sp, #88]
 1331 0078 256A     		ldr	r5, [r4, #32]
 337:../../Middlewares/AI_Runtime/Npu/ll_aton/ll_sw_float.c ****                         SHAPE_INIT(sw_info->general.input.dim.tensor_h, sw_info->general.input.dim.
 338:../../Middlewares/AI_Runtime/Npu/ll_aton/ll_sw_float.c ****                                    sw_info->general.input.dim.tensor_c, sw_info->general.input.dim.
 339:../../Middlewares/AI_Runtime/Npu/ll_aton/ll_sw_float.c ****                         STRIDE_INIT(sw_info->general.input.stride.h, sw_info->general.input.stride.
 340:../../Middlewares/AI_Runtime/Npu/ll_aton/ll_sw_float.c ****                                     sw_info->general.input.stride.c, sw_info->general.input.stride.
 341:../../Middlewares/AI_Runtime/Npu/ll_aton/ll_sw_float.c ****                         1, &input_output_array, NULL);
 342:../../Middlewares/AI_Runtime/Npu/ll_aton/ll_sw_float.c **** 
 343:../../Middlewares/AI_Runtime/Npu/ll_aton/ll_sw_float.c ****   AI_TENSOR_OBJ_DECLARE(softmax_output, , 0x0, 4,
 1332              		.loc 1 343 3 view .LVU381
 1333 007a CDE9311C 		strd	r1, ip, [sp, #196]
 336:../../Middlewares/AI_Runtime/Npu/ll_aton/ll_sw_float.c ****                         SHAPE_INIT(sw_info->general.input.dim.tensor_h, sw_info->general.input.dim.
 1334              		.loc 1 336 3 view .LVU382
 1335 007e 1795     		str	r5, [sp, #92]
 1336 0080 E569     		ldr	r5, [r4, #28]
 1337 0082 2E97     		str	r7, [sp, #184]
 1338 0084 1895     		str	r5, [sp, #96]
 1339 0086 A569     		ldr	r5, [r4, #24]
 1340              		.loc 1 343 3 view .LVU383
 1341 0088 3396     		str	r6, [sp, #204]
 336:../../Middlewares/AI_Runtime/Npu/ll_aton/ll_sw_float.c ****                         SHAPE_INIT(sw_info->general.input.dim.tensor_h, sw_info->general.input.dim.
 1342              		.loc 1 336 3 view .LVU384
 1343 008a 1995     		str	r5, [sp, #100]
 1344 008c 16AD     		add	r5, sp, #88
 1345 008e CDE92F50 		strd	r5, r0, [sp, #188]
 341:../../Middlewares/AI_Runtime/Npu/ll_aton/ll_sw_float.c **** 
 1346              		.loc 1 341 54 is_stmt 1 view .LVU385
 1347              		.loc 1 343 3 view .LVU386
ARM GAS  C:\Users\Antonio\AppData\Local\Temp\cc6EBOZH.s 			page 34


 1348 0092 E06B     		ldr	r0, [r4, #60]
 330:../../Middlewares/AI_Runtime/Npu/ll_aton/ll_sw_float.c ****                        sw_info->general.output.mem.start_offset, sw_info->general.output.dim.num_el
 1349              		.loc 1 330 3 is_stmt 0 view .LVU387
 1350 0094 0AAA     		add	r2, sp, #40
 1351              	.LVL32:
 1352              		.loc 1 343 3 view .LVU388
 1353 0096 1A90     		str	r0, [sp, #104]
 1354 0098 A06B     		ldr	r0, [r4, #56]
 333:../../Middlewares/AI_Runtime/Npu/ll_aton/ll_sw_float.c ****                        sw_info->scratch.mem.start_offset, sw_info->scratch.dim.num_elem, )
 1355              		.loc 1 333 3 view .LVU389
 1356 009a 0EAB     		add	r3, sp, #56
 1357              		.loc 1 343 3 view .LVU390
 1358 009c 1B90     		str	r0, [sp, #108]
 1359 009e 606B     		ldr	r0, [r4, #52]
 344:../../Middlewares/AI_Runtime/Npu/ll_aton/ll_sw_float.c ****                         SHAPE_INIT(sw_info->general.output.dim.tensor_h, sw_info->general.output.di
 345:../../Middlewares/AI_Runtime/Npu/ll_aton/ll_sw_float.c ****                                    sw_info->general.output.dim.tensor_c, sw_info->general.output.di
 346:../../Middlewares/AI_Runtime/Npu/ll_aton/ll_sw_float.c ****                         STRIDE_INIT(sw_info->general.output.stride.h, sw_info->general.output.strid
 347:../../Middlewares/AI_Runtime/Npu/ll_aton/ll_sw_float.c ****                                     sw_info->general.output.stride.c, sw_info->general.output.strid
 348:../../Middlewares/AI_Runtime/Npu/ll_aton/ll_sw_float.c ****                         1, &softmax_output_array, NULL);
 349:../../Middlewares/AI_Runtime/Npu/ll_aton/ll_sw_float.c **** 
 350:../../Middlewares/AI_Runtime/Npu/ll_aton/ll_sw_float.c ****   AI_TENSOR_OBJ_DECLARE(sm_scratch0, , 0x0, 4,
 351:../../Middlewares/AI_Runtime/Npu/ll_aton/ll_sw_float.c ****                         SHAPE_INIT(sw_info->scratch.dim.tensor_h, sw_info->scratch.dim.tensor_w,
 352:../../Middlewares/AI_Runtime/Npu/ll_aton/ll_sw_float.c ****                                    sw_info->scratch.dim.tensor_c, sw_info->scratch.dim.tensor_b),
 353:../../Middlewares/AI_Runtime/Npu/ll_aton/ll_sw_float.c ****                         STRIDE_INIT(sw_info->scratch.stride.h, sw_info->scratch.stride.w, sw_info->
 354:../../Middlewares/AI_Runtime/Npu/ll_aton/ll_sw_float.c ****                                     sw_info->scratch.stride.b),
 355:../../Middlewares/AI_Runtime/Npu/ll_aton/ll_sw_float.c ****                         1, &sm_scratch0_array, NULL);
 356:../../Middlewares/AI_Runtime/Npu/ll_aton/ll_sw_float.c **** 
 357:../../Middlewares/AI_Runtime/Npu/ll_aton/ll_sw_float.c ****   // tensor chain initialization
 358:../../Middlewares/AI_Runtime/Npu/ll_aton/ll_sw_float.c ****   AI_TENSOR_CHAIN_OBJ_DECLARE(softmax_chain, , 4, AI_TENSOR_LIST_OBJ_INIT(AI_FLAG_NONE, 1, TENSORS(
 1360              		.loc 1 358 3 view .LVU391
 1361 00a0 04AD     		add	r5, sp, #16
 343:../../Middlewares/AI_Runtime/Npu/ll_aton/ll_sw_float.c ****                         SHAPE_INIT(sw_info->general.output.dim.tensor_h, sw_info->general.output.di
 1362              		.loc 1 343 3 view .LVU392
 1363 00a2 1C90     		str	r0, [sp, #112]
 1364 00a4 206B     		ldr	r0, [r4, #48]
 1365 00a6 1D90     		str	r0, [sp, #116]
 1366 00a8 1AA8     		add	r0, sp, #104
 1367 00aa CDE93407 		strd	r0, r7, [sp, #208]
 1368 00ae 206D     		ldr	r0, [r4, #80]
 1369 00b0 1E90     		str	r0, [sp, #120]
 1370 00b2 E06C     		ldr	r0, [r4, #76]
 1371 00b4 1F90     		str	r0, [sp, #124]
 1372 00b6 A06C     		ldr	r0, [r4, #72]
 1373 00b8 2090     		str	r0, [sp, #128]
 1374 00ba 606C     		ldr	r0, [r4, #68]
 350:../../Middlewares/AI_Runtime/Npu/ll_aton/ll_sw_float.c ****                         SHAPE_INIT(sw_info->scratch.dim.tensor_h, sw_info->scratch.dim.tensor_w,
 1375              		.loc 1 350 3 view .LVU393
 1376 00bc CDE9381C 		strd	r1, ip, [sp, #224]
 343:../../Middlewares/AI_Runtime/Npu/ll_aton/ll_sw_float.c ****                         SHAPE_INIT(sw_info->general.output.dim.tensor_h, sw_info->general.output.di
 1377              		.loc 1 343 3 view .LVU394
 1378 00c0 2190     		str	r0, [sp, #132]
 1379 00c2 1EA8     		add	r0, sp, #120
 1380 00c4 CDE93602 		strd	r0, r2, [sp, #216]
 348:../../Middlewares/AI_Runtime/Npu/ll_aton/ll_sw_float.c **** 
 1381              		.loc 1 348 56 is_stmt 1 view .LVU395
 350:../../Middlewares/AI_Runtime/Npu/ll_aton/ll_sw_float.c ****                         SHAPE_INIT(sw_info->scratch.dim.tensor_h, sw_info->scratch.dim.tensor_w,
 1382              		.loc 1 350 3 view .LVU396
ARM GAS  C:\Users\Antonio\AppData\Local\Temp\cc6EBOZH.s 			page 35


 1383 00c8 A26E     		ldr	r2, [r4, #104]
 1384              	.LVL33:
 350:../../Middlewares/AI_Runtime/Npu/ll_aton/ll_sw_float.c ****                         SHAPE_INIT(sw_info->scratch.dim.tensor_h, sw_info->scratch.dim.tensor_w,
 1385              		.loc 1 350 3 is_stmt 0 view .LVU397
 1386 00ca 3A96     		str	r6, [sp, #232]
 1387 00cc 2292     		str	r2, [sp, #136]
 1388 00ce 626E     		ldr	r2, [r4, #100]
 1389              		.loc 1 358 3 view .LVU398
 1390 00d0 CDF824D1 		str	sp, [sp, #292]
 350:../../Middlewares/AI_Runtime/Npu/ll_aton/ll_sw_float.c ****                         SHAPE_INIT(sw_info->scratch.dim.tensor_h, sw_info->scratch.dim.tensor_w,
 1391              		.loc 1 350 3 view .LVU399
 1392 00d4 2392     		str	r2, [sp, #140]
 1393 00d6 226E     		ldr	r2, [r4, #96]
 1394              		.loc 1 358 3 view .LVU400
 1395 00d8 31A8     		add	r0, sp, #196
 350:../../Middlewares/AI_Runtime/Npu/ll_aton/ll_sw_float.c ****                         SHAPE_INIT(sw_info->scratch.dim.tensor_h, sw_info->scratch.dim.tensor_w,
 1396              		.loc 1 350 3 view .LVU401
 1397 00da 2492     		str	r2, [sp, #144]
 1398 00dc E26D     		ldr	r2, [r4, #92]
 1399 00de 2592     		str	r2, [sp, #148]
 1400 00e0 22AA     		add	r2, sp, #136
 1401 00e2 CDE93B27 		strd	r2, r7, [sp, #236]
 1402 00e6 E26F     		ldr	r2, [r4, #124]
 1403 00e8 2692     		str	r2, [sp, #152]
 1404 00ea A26F     		ldr	r2, [r4, #120]
 1405 00ec 2792     		str	r2, [sp, #156]
 1406 00ee 626F     		ldr	r2, [r4, #116]
 1407 00f0 2892     		str	r2, [sp, #160]
 1408 00f2 226F     		ldr	r2, [r4, #112]
 1409 00f4 2992     		str	r2, [sp, #164]
 1410 00f6 26AA     		add	r2, sp, #152
 1411 00f8 CDE93D23 		strd	r2, r3, [sp, #244]
 355:../../Middlewares/AI_Runtime/Npu/ll_aton/ll_sw_float.c **** 
 1412              		.loc 1 355 53 is_stmt 1 view .LVU402
 1413              		.loc 1 358 3 view .LVU403
 1414 00fc 0423     		movs	r3, #4
 1415 00fe 0493     		str	r3, [sp, #16]
 1416 0100 0123     		movs	r3, #1
 1417 0102 2AAA     		add	r2, sp, #168
 1418 0104 4893     		str	r3, [sp, #288]
 1419 0106 0092     		str	r2, [sp]
 1420 0108 CDE94A13 		strd	r1, r3, [sp, #296]
 1421 010c 01AA     		add	r2, sp, #4
 1422 010e 5193     		str	r3, [sp, #324]
 1423 0110 03AB     		add	r3, sp, #12
 1424 0112 CDE94C21 		strd	r2, r1, [sp, #304]
 1425 0116 CDE95231 		strd	r3, r1, [sp, #328]
 1426 011a 02AA     		add	r2, sp, #8
 1427 011c 48AB     		add	r3, sp, #288
 1428 011e CDE94F21 		strd	r2, r1, [sp, #316]
 1429 0122 0593     		str	r3, [sp, #20]
 359:../../Middlewares/AI_Runtime/Npu/ll_aton/ll_sw_float.c ****                               AI_TENSOR_LIST_OBJ_INIT(AI_FLAG_NONE, 1, TENSORS(&softmax_output)),
 360:../../Middlewares/AI_Runtime/Npu/ll_aton/ll_sw_float.c ****                               AI_TENSOR_LIST_OBJ_EMPTY, AI_TENSOR_LIST_OBJ_INIT(AI_FLAG_NONE, 1, TE
 361:../../Middlewares/AI_Runtime/Npu/ll_aton/ll_sw_float.c **** 
 362:../../Middlewares/AI_Runtime/Npu/ll_aton/ll_sw_float.c ****   AI_LAYER_OBJ_DECLARE(sm_layer, 1, SM_TYPE, 0x0, NULL, sm, forward_sm, &softmax_chain, NULL, NULL,
 1430              		.loc 1 362 3 view .LVU404
 358:../../Middlewares/AI_Runtime/Npu/ll_aton/ll_sw_float.c ****                               AI_TENSOR_LIST_OBJ_INIT(AI_FLAG_NONE, 1, TENSORS(&softmax_output)),
ARM GAS  C:\Users\Antonio\AppData\Local\Temp\cc6EBOZH.s 			page 36


 1431              		.loc 1 358 3 is_stmt 0 view .LVU405
 1432 0124 38AA     		add	r2, sp, #224
 1433              		.loc 1 362 3 view .LVU406
 1434 0126 114B     		ldr	r3, .L29+12
 358:../../Middlewares/AI_Runtime/Npu/ll_aton/ll_sw_float.c ****                               AI_TENSOR_LIST_OBJ_INIT(AI_FLAG_NONE, 1, TENSORS(&softmax_output)),
 1435              		.loc 1 358 3 view .LVU407
 1436 0128 0190     		str	r0, [sp, #4]
 1437 012a 0392     		str	r2, [sp, #12]
 1438              		.loc 1 362 3 view .LVU408
 1439 012c 40A8     		add	r0, sp, #256
 1440 012e 2022     		movs	r2, #32
 358:../../Middlewares/AI_Runtime/Npu/ll_aton/ll_sw_float.c ****                               AI_TENSOR_LIST_OBJ_INIT(AI_FLAG_NONE, 1, TENSORS(&softmax_output)),
 1441              		.loc 1 358 3 view .LVU409
 1442 0130 4E91     		str	r1, [sp, #312]
 1443 0132 0291     		str	r1, [sp, #8]
 1444              		.loc 1 362 3 view .LVU410
 1445 0134 3F93     		str	r3, [sp, #252]
 1446 0136 FFF7FEFF 		bl	memset
 1447              	.LVL34:
 1448              		.loc 1 362 3 view .LVU411
 1449 013a 0D4B     		ldr	r3, .L29+16
 363:../../Middlewares/AI_Runtime/Npu/ll_aton/ll_sw_float.c ****                        .axis = helper_emit_shape_index_axis(sw_info->axis))
 364:../../Middlewares/AI_Runtime/Npu/ll_aton/ll_sw_float.c ****   sm_layer.forward(AI_LAYER_OBJ(&sm_layer));
 1450              		.loc 1 364 3 view .LVU412
 1451 013c 3FA8     		add	r0, sp, #252
 362:../../Middlewares/AI_Runtime/Npu/ll_aton/ll_sw_float.c ****                        .axis = helper_emit_shape_index_axis(sw_info->axis))
 1452              		.loc 1 362 3 view .LVU413
 1453 013e CDE94435 		strd	r3, r5, [sp, #272]
 1454              	.LVL35:
 1455              	.LBB13:
 1456              	.LBI13:
  47:../../Middlewares/AI_Runtime/Npu/ll_aton/ll_sw_float.c **** {
 1457              		.loc 1 47 12 is_stmt 1 view .LVU414
  49:../../Middlewares/AI_Runtime/Npu/ll_aton/ll_sw_float.c ****   {
 1458              		.loc 1 49 3 view .LVU415
 1459 0142 D4F88830 		ldr	r3, [r4, #136]
 1460 0146 032B     		cmp	r3, #3
 1461              	.LBE13:
 362:../../Middlewares/AI_Runtime/Npu/ll_aton/ll_sw_float.c ****                        .axis = helper_emit_shape_index_axis(sw_info->axis))
 1462              		.loc 1 362 3 is_stmt 0 view .LVU416
 1463 0148 8EBF     		itee	hi
 1464 014a 4FF0FF33 		movhi	r3, #-1
 1465              	.LVL36:
 362:../../Middlewares/AI_Runtime/Npu/ll_aton/ll_sw_float.c ****                        .axis = helper_emit_shape_index_axis(sw_info->axis))
 1466              		.loc 1 362 3 view .LVU417
 1467 014e 094A     		ldrls	r2, .L29+20
 1468 0150 D356     		ldrsbls	r3, [r2, r3]
 362:../../Middlewares/AI_Runtime/Npu/ll_aton/ll_sw_float.c ****                        .axis = helper_emit_shape_index_axis(sw_info->axis))
 1469              		.loc 1 362 3 discriminator 1 view .LVU418
 1470 0152 ADF81C31 		strh	r3, [sp, #284]	@ movhi
 1471              		.loc 1 364 3 is_stmt 1 view .LVU419
 1472 0156 FFF7FEFF 		bl	forward_sm
 1473              	.LVL37:
 365:../../Middlewares/AI_Runtime/Npu/ll_aton/ll_sw_float.c **** }
 1474              		.loc 1 365 1 is_stmt 0 view .LVU420
 1475 015a 55B0     		add	sp, sp, #340
 1476              		.cfi_def_cfa_offset 20
ARM GAS  C:\Users\Antonio\AppData\Local\Temp\cc6EBOZH.s 			page 37


 1477              		@ sp needed
 1478 015c F0BD     		pop	{r4, r5, r6, r7, pc}
 1479              	.LVL38:
 1480              	.L30:
 1481              		.loc 1 365 1 view .LVU421
 1482 015e 00BF     		.align	2
 1483              	.L29:
 1484 0160 40040408 		.word	134480960
 1485 0164 40048408 		.word	142869568
 1486 0168 40108400 		.word	8654912
 1487 016c 0C010100 		.word	65804
 1488 0170 00000000 		.word	forward_sm
 1489 0174 00000000 		.word	CSWTCH.4
 1490              		.cfi_endproc
 1491              	.LFE19:
 1493              		.section	.text.ll_sw_forward_activ,"ax",%progbits
 1494              		.align	1
 1495              		.global	ll_sw_forward_activ
 1496              		.syntax unified
 1497              		.thumb
 1498              		.thumb_func
 1500              	ll_sw_forward_activ:
 1501              	.LVL39:
 1502              	.LFB20:
 366:../../Middlewares/AI_Runtime/Npu/ll_aton/ll_sw_float.c **** 
 367:../../Middlewares/AI_Runtime/Npu/ll_aton/ll_sw_float.c **** //##########################################################################################
 368:../../Middlewares/AI_Runtime/Npu/ll_aton/ll_sw_float.c **** /** activ forward function  */
 369:../../Middlewares/AI_Runtime/Npu/ll_aton/ll_sw_float.c **** void ll_sw_forward_activ(/* int processor, */ void *sw_info_struct)
 370:../../Middlewares/AI_Runtime/Npu/ll_aton/ll_sw_float.c **** {
 1503              		.loc 1 370 1 is_stmt 1 view -0
 1504              		.cfi_startproc
 1505              		@ args = 0, pretend = 0, frame = 408
 1506              		@ frame_needed = 0, uses_anonymous_args = 0
 371:../../Middlewares/AI_Runtime/Npu/ll_aton/ll_sw_float.c ****   Activ_sw_info *sw_info = (Activ_sw_info *)sw_info_struct;
 1507              		.loc 1 371 3 view .LVU423
 372:../../Middlewares/AI_Runtime/Npu/ll_aton/ll_sw_float.c ****   // array init
 373:../../Middlewares/AI_Runtime/Npu/ll_aton/ll_sw_float.c ****   AI_ARRAY_OBJ_DECLARE(input_output_array, FORMAT, sw_info->general.input.mem.start_offset,
 1508              		.loc 1 373 3 view .LVU424
 370:../../Middlewares/AI_Runtime/Npu/ll_aton/ll_sw_float.c ****   Activ_sw_info *sw_info = (Activ_sw_info *)sw_info_struct;
 1509              		.loc 1 370 1 is_stmt 0 view .LVU425
 1510 0000 F0B5     		push	{r4, r5, r6, r7, lr}
 1511              		.cfi_def_cfa_offset 20
 1512              		.cfi_offset 4, -20
 1513              		.cfi_offset 5, -16
 1514              		.cfi_offset 6, -12
 1515              		.cfi_offset 7, -8
 1516              		.cfi_offset 14, -4
 1517              		.loc 1 373 3 view .LVU426
 1518 0002 4369     		ldr	r3, [r0, #20]
 370:../../Middlewares/AI_Runtime/Npu/ll_aton/ll_sw_float.c ****   Activ_sw_info *sw_info = (Activ_sw_info *)sw_info_struct;
 1519              		.loc 1 370 1 view .LVU427
 1520 0004 E7B0     		sub	sp, sp, #412
 1521              		.cfi_def_cfa_offset 432
 1522              		.loc 1 373 3 view .LVU428
 1523 0006 0E93     		str	r3, [sp, #56]
 1524 0008 836A     		ldr	r3, [r0, #40]
 374:../../Middlewares/AI_Runtime/Npu/ll_aton/ll_sw_float.c ****                        sw_info->general.input.mem.start_offset, sw_info->general.input.dim.num_elem
ARM GAS  C:\Users\Antonio\AppData\Local\Temp\cc6EBOZH.s 			page 38


 375:../../Middlewares/AI_Runtime/Npu/ll_aton/ll_sw_float.c ****   AI_ARRAY_OBJ_DECLARE(activ_output_array, FORMAT, sw_info->general.output.mem.start_offset,
 376:../../Middlewares/AI_Runtime/Npu/ll_aton/ll_sw_float.c ****                        sw_info->general.output.mem.start_offset, sw_info->general.output.dim.num_el
 377:../../Middlewares/AI_Runtime/Npu/ll_aton/ll_sw_float.c ****   // tensors init
 378:../../Middlewares/AI_Runtime/Npu/ll_aton/ll_sw_float.c ****   AI_TENSOR_OBJ_DECLARE(input_output, , 0x0, 4,
 1525              		.loc 1 378 3 view .LVU429
 1526 000a 15AF     		add	r7, sp, #84
 373:../../Middlewares/AI_Runtime/Npu/ll_aton/ll_sw_float.c ****                        sw_info->general.input.mem.start_offset, sw_info->general.input.dim.num_elem
 1527              		.loc 1 373 3 view .LVU430
 1528 000c CDE90F33 		strd	r3, r3, [sp, #60]
 375:../../Middlewares/AI_Runtime/Npu/ll_aton/ll_sw_float.c ****                        sw_info->general.output.mem.start_offset, sw_info->general.output.dim.num_el
 1529              		.loc 1 375 3 is_stmt 1 view .LVU431
 1530 0010 036C     		ldr	r3, [r0, #64]
 1531              		.loc 1 378 3 is_stmt 0 view .LVU432
 1532 0012 4FF0827C 		mov	ip, #17039360
 375:../../Middlewares/AI_Runtime/Npu/ll_aton/ll_sw_float.c ****                        sw_info->general.output.mem.start_offset, sw_info->general.output.dim.num_el
 1533              		.loc 1 375 3 view .LVU433
 1534 0016 1293     		str	r3, [sp, #72]
 1535 0018 436D     		ldr	r3, [r0, #84]
 1536              		.loc 1 378 3 view .LVU434
 1537 001a 40F2014E 		movw	lr, #1025
 375:../../Middlewares/AI_Runtime/Npu/ll_aton/ll_sw_float.c ****                        sw_info->general.output.mem.start_offset, sw_info->general.output.dim.num_el
 1538              		.loc 1 375 3 view .LVU435
 1539 001e CDE91333 		strd	r3, r3, [sp, #76]
 1540              		.loc 1 378 3 is_stmt 1 view .LVU436
 1541 0022 3497     		str	r7, [sp, #208]
 1542 0024 0023     		movs	r3, #0
 1543 0026 40F20247 		movw	r7, #1026
 1544 002a 0569     		ldr	r5, [r0, #16]
 1545 002c 466A     		ldr	r6, [r0, #36]
 1546 002e 1595     		str	r5, [sp, #84]
 1547 0030 C568     		ldr	r5, [r0, #12]
 373:../../Middlewares/AI_Runtime/Npu/ll_aton/ll_sw_float.c ****                        sw_info->general.input.mem.start_offset, sw_info->general.input.dim.num_elem
 1548              		.loc 1 373 3 is_stmt 0 view .LVU437
 1549 0032 9049     		ldr	r1, .L70
 1550              		.loc 1 378 3 view .LVU438
 1551 0034 1695     		str	r5, [sp, #88]
 1552 0036 8568     		ldr	r5, [r0, #8]
 1553 0038 1996     		str	r6, [sp, #100]
 1554 003a 1795     		str	r5, [sp, #92]
 1555 003c 066A     		ldr	r6, [r0, #32]
 1556 003e 4568     		ldr	r5, [r0, #4]
 373:../../Middlewares/AI_Runtime/Npu/ll_aton/ll_sw_float.c ****                        sw_info->general.input.mem.start_offset, sw_info->general.input.dim.num_elem
 1557              		.loc 1 373 3 view .LVU439
 1558 0040 0DAC     		add	r4, sp, #52
 1559              		.loc 1 378 3 view .LVU440
 1560 0042 1895     		str	r5, [sp, #96]
 1561 0044 3597     		str	r7, [sp, #212]
 1562 0046 19AD     		add	r5, sp, #100
 1563 0048 CDE9313C 		strd	r3, ip, [sp, #196]
 373:../../Middlewares/AI_Runtime/Npu/ll_aton/ll_sw_float.c ****                        sw_info->general.input.mem.start_offset, sw_info->general.input.dim.num_elem
 1564              		.loc 1 373 3 view .LVU441
 1565 004c 0D91     		str	r1, [sp, #52]
 375:../../Middlewares/AI_Runtime/Npu/ll_aton/ll_sw_float.c ****                        sw_info->general.output.mem.start_offset, sw_info->general.output.dim.num_el
 1566              		.loc 1 375 3 view .LVU442
 1567 004e 1191     		str	r1, [sp, #68]
 1568              		.loc 1 378 3 view .LVU443
 1569 0050 CDF8CCE0 		str	lr, [sp, #204]
ARM GAS  C:\Users\Antonio\AppData\Local\Temp\cc6EBOZH.s 			page 39


 1570 0054 1A96     		str	r6, [sp, #104]
 1571 0056 C669     		ldr	r6, [r0, #28]
 1572 0058 CDE93654 		strd	r5, r4, [sp, #216]
 379:../../Middlewares/AI_Runtime/Npu/ll_aton/ll_sw_float.c ****                         SHAPE_INIT(sw_info->general.input.dim.tensor_h, sw_info->general.input.dim.
 380:../../Middlewares/AI_Runtime/Npu/ll_aton/ll_sw_float.c ****                                    sw_info->general.input.dim.tensor_c, sw_info->general.input.dim.
 381:../../Middlewares/AI_Runtime/Npu/ll_aton/ll_sw_float.c ****                         STRIDE_INIT(sw_info->general.input.stride.h, sw_info->general.input.stride.
 382:../../Middlewares/AI_Runtime/Npu/ll_aton/ll_sw_float.c ****                                     sw_info->general.input.stride.c, sw_info->general.input.stride.
 383:../../Middlewares/AI_Runtime/Npu/ll_aton/ll_sw_float.c ****                         1, &input_output_array, NULL)
 384:../../Middlewares/AI_Runtime/Npu/ll_aton/ll_sw_float.c ****   AI_TENSOR_OBJ_DECLARE(activ_output, , 0x0, 4,
 1573              		.loc 1 384 3 is_stmt 1 view .LVU444
 1574 005c 1DAC     		add	r4, sp, #116
 375:../../Middlewares/AI_Runtime/Npu/ll_aton/ll_sw_float.c ****                        sw_info->general.output.mem.start_offset, sw_info->general.output.dim.num_el
 1575              		.loc 1 375 3 is_stmt 0 view .LVU445
 1576 005e 11AA     		add	r2, sp, #68
 1577              		.loc 1 384 3 view .LVU446
 1578 0060 CDE93B47 		strd	r4, r7, [sp, #236]
 378:../../Middlewares/AI_Runtime/Npu/ll_aton/ll_sw_float.c ****                         SHAPE_INIT(sw_info->general.input.dim.tensor_h, sw_info->general.input.dim.
 1579              		.loc 1 378 3 view .LVU447
 1580 0064 1B96     		str	r6, [sp, #108]
 1581              		.loc 1 384 3 view .LVU448
 1582 0066 21AC     		add	r4, sp, #132
 378:../../Middlewares/AI_Runtime/Npu/ll_aton/ll_sw_float.c ****                         SHAPE_INIT(sw_info->general.input.dim.tensor_h, sw_info->general.input.dim.
 1583              		.loc 1 378 3 view .LVU449
 1584 0068 8669     		ldr	r6, [r0, #24]
 1585              		.loc 1 384 3 view .LVU450
 1586 006a CDE93D42 		strd	r4, r2, [sp, #244]
 385:../../Middlewares/AI_Runtime/Npu/ll_aton/ll_sw_float.c ****                         SHAPE_INIT(sw_info->general.output.dim.tensor_h, sw_info->general.output.di
 386:../../Middlewares/AI_Runtime/Npu/ll_aton/ll_sw_float.c ****                                    sw_info->general.output.dim.tensor_c, sw_info->general.output.di
 387:../../Middlewares/AI_Runtime/Npu/ll_aton/ll_sw_float.c ****                         STRIDE_INIT(sw_info->general.output.stride.h, sw_info->general.output.strid
 388:../../Middlewares/AI_Runtime/Npu/ll_aton/ll_sw_float.c ****                                     sw_info->general.output.stride.c, sw_info->general.output.strid
 389:../../Middlewares/AI_Runtime/Npu/ll_aton/ll_sw_float.c ****                         1, &activ_output_array, NULL)
 390:../../Middlewares/AI_Runtime/Npu/ll_aton/ll_sw_float.c ****   // tensor chains init
 391:../../Middlewares/AI_Runtime/Npu/ll_aton/ll_sw_float.c ****   AI_TENSOR_CHAIN_OBJ_DECLARE(activ_chain, , 4, AI_TENSOR_LIST_OBJ_INIT(AI_FLAG_NONE, 1, TENSORS(&i
 1587              		.loc 1 391 3 is_stmt 1 view .LVU451
 1588 006e 0424     		movs	r4, #4
 378:../../Middlewares/AI_Runtime/Npu/ll_aton/ll_sw_float.c ****                         SHAPE_INIT(sw_info->general.input.dim.tensor_h, sw_info->general.input.dim.
 1589              		.loc 1 378 3 is_stmt 0 view .LVU452
 1590 0070 1C96     		str	r6, [sp, #112]
 1591              		.loc 1 391 3 view .LVU453
 1592 0072 0126     		movs	r6, #1
 384:../../Middlewares/AI_Runtime/Npu/ll_aton/ll_sw_float.c ****                         SHAPE_INIT(sw_info->general.output.dim.tensor_h, sw_info->general.output.di
 1593              		.loc 1 384 3 view .LVU454
 1594 0074 C56B     		ldr	r5, [r0, #60]
 1595              		.loc 1 391 3 view .LVU455
 1596 0076 02AF     		add	r7, sp, #8
 384:../../Middlewares/AI_Runtime/Npu/ll_aton/ll_sw_float.c ****                         SHAPE_INIT(sw_info->general.output.dim.tensor_h, sw_info->general.output.di
 1597              		.loc 1 384 3 view .LVU456
 1598 0078 1D95     		str	r5, [sp, #116]
 1599 007a 856B     		ldr	r5, [r0, #56]
 1600              		.loc 1 391 3 view .LVU457
 1601 007c 0994     		str	r4, [sp, #36]
 384:../../Middlewares/AI_Runtime/Npu/ll_aton/ll_sw_float.c ****                         SHAPE_INIT(sw_info->general.output.dim.tensor_h, sw_info->general.output.di
 1602              		.loc 1 384 3 view .LVU458
 1603 007e 1E95     		str	r5, [sp, #120]
 1604 0080 456B     		ldr	r5, [r0, #52]
 1605              		.loc 1 391 3 view .LVU459
 1606 0082 6C44     		add	r4, sp, r4
ARM GAS  C:\Users\Antonio\AppData\Local\Temp\cc6EBOZH.s 			page 40


 384:../../Middlewares/AI_Runtime/Npu/ll_aton/ll_sw_float.c ****                         SHAPE_INIT(sw_info->general.output.dim.tensor_h, sw_info->general.output.di
 1607              		.loc 1 384 3 view .LVU460
 1608 0084 1F95     		str	r5, [sp, #124]
 1609 0086 056B     		ldr	r5, [r0, #48]
 1610 0088 CDE9383C 		strd	r3, ip, [sp, #224]
 1611 008c 2095     		str	r5, [sp, #128]
 1612 008e 056D     		ldr	r5, [r0, #80]
 1613 0090 CDF8E8E0 		str	lr, [sp, #232]
 1614 0094 2195     		str	r5, [sp, #132]
 1615 0096 C56C     		ldr	r5, [r0, #76]
 1616              		.loc 1 391 3 view .LVU461
 1617 0098 4E96     		str	r6, [sp, #312]
 384:../../Middlewares/AI_Runtime/Npu/ll_aton/ll_sw_float.c ****                         SHAPE_INIT(sw_info->general.output.dim.tensor_h, sw_info->general.output.di
 1618              		.loc 1 384 3 view .LVU462
 1619 009a 2295     		str	r5, [sp, #136]
 1620 009c 856C     		ldr	r5, [r0, #72]
 1621              		.loc 1 391 3 view .LVU463
 1622 009e 09AA     		add	r2, sp, #36
 384:../../Middlewares/AI_Runtime/Npu/ll_aton/ll_sw_float.c ****                         SHAPE_INIT(sw_info->general.output.dim.tensor_h, sw_info->general.output.di
 1623              		.loc 1 384 3 view .LVU464
 1624 00a0 2395     		str	r5, [sp, #140]
 1625 00a2 456C     		ldr	r5, [r0, #68]
 1626 00a4 2495     		str	r5, [sp, #144]
 1627              		.loc 1 391 3 view .LVU465
 1628 00a6 31AD     		add	r5, sp, #196
 1629 00a8 2560     		str	r5, [r4]
 1630 00aa CDE94F43 		strd	r4, r3, [sp, #316]
 1631 00ae CDE95273 		strd	r7, r3, [sp, #328]
 1632 00b2 03AF     		add	r7, sp, #12
 1633 00b4 CDE95573 		strd	r7, r3, [sp, #340]
 1634 00b8 04AF     		add	r7, sp, #16
 1635 00ba CDE95873 		strd	r7, r3, [sp, #352]
 1636 00be 4EAF     		add	r7, sp, #312
 1637 00c0 5760     		str	r7, [r2, #4]
 392:../../Middlewares/AI_Runtime/Npu/ll_aton/ll_sw_float.c ****                               AI_TENSOR_LIST_OBJ_INIT(AI_FLAG_NONE, 1, TENSORS(&activ_output)),
 393:../../Middlewares/AI_Runtime/Npu/ll_aton/ll_sw_float.c ****                               AI_TENSOR_LIST_OBJ_EMPTY, AI_TENSOR_LIST_OBJ_EMPTY)
 394:../../Middlewares/AI_Runtime/Npu/ll_aton/ll_sw_float.c **** 
 395:../../Middlewares/AI_Runtime/Npu/ll_aton/ll_sw_float.c ****   // layer initialization
 396:../../Middlewares/AI_Runtime/Npu/ll_aton/ll_sw_float.c ****   switch (sw_info->general.type)
 1638              		.loc 1 396 3 is_stmt 1 view .LVU466
 1639 00c2 0778     		ldrb	r7, [r0]	@ zero_extendqisi2
 391:../../Middlewares/AI_Runtime/Npu/ll_aton/ll_sw_float.c ****                               AI_TENSOR_LIST_OBJ_INIT(AI_FLAG_NONE, 1, TENSORS(&activ_output)),
 1640              		.loc 1 391 3 is_stmt 0 view .LVU467
 1641 00c4 38AC     		add	r4, sp, #224
 1642              		.loc 1 396 3 view .LVU468
 1643 00c6 013F     		subs	r7, r7, #1
 391:../../Middlewares/AI_Runtime/Npu/ll_aton/ll_sw_float.c ****                               AI_TENSOR_LIST_OBJ_INIT(AI_FLAG_NONE, 1, TENSORS(&activ_output)),
 1644              		.loc 1 391 3 view .LVU469
 1645 00c8 5196     		str	r6, [sp, #324]
 1646 00ca 0294     		str	r4, [sp, #8]
 1647 00cc 5493     		str	r3, [sp, #336]
 1648 00ce 0393     		str	r3, [sp, #12]
 1649 00d0 5793     		str	r3, [sp, #348]
 1650 00d2 0493     		str	r3, [sp, #16]
 1651              		.loc 1 396 3 view .LVU470
 1652 00d4 4E2F     		cmp	r7, #78
 1653 00d6 5DD8     		bhi	.L31
ARM GAS  C:\Users\Antonio\AppData\Local\Temp\cc6EBOZH.s 			page 41


 1654 00d8 DFE817F0 		tbh	[pc, r7, lsl #1]
 1655              	.L34:
 1656 00dc 4F00     		.2byte	(.L68-.L34)/2
 1657 00de 7A00     		.2byte	(.L67-.L34)/2
 1658 00e0 EE00     		.2byte	(.L66-.L34)/2
 1659 00e2 D600     		.2byte	(.L65-.L34)/2
 1660 00e4 0601     		.2byte	(.L64-.L34)/2
 1661 00e6 5C00     		.2byte	(.L31-.L34)/2
 1662 00e8 5C00     		.2byte	(.L31-.L34)/2
 1663 00ea 5C00     		.2byte	(.L31-.L34)/2
 1664 00ec 5C00     		.2byte	(.L31-.L34)/2
 1665 00ee 5C00     		.2byte	(.L31-.L34)/2
 1666 00f0 5C00     		.2byte	(.L31-.L34)/2
 1667 00f2 5C00     		.2byte	(.L31-.L34)/2
 1668 00f4 5C00     		.2byte	(.L31-.L34)/2
 1669 00f6 5C00     		.2byte	(.L31-.L34)/2
 1670 00f8 5C00     		.2byte	(.L31-.L34)/2
 1671 00fa 5C00     		.2byte	(.L31-.L34)/2
 1672 00fc 5C00     		.2byte	(.L31-.L34)/2
 1673 00fe 5C00     		.2byte	(.L31-.L34)/2
 1674 0100 5C00     		.2byte	(.L31-.L34)/2
 1675 0102 0202     		.2byte	(.L63-.L34)/2
 1676 0104 9201     		.2byte	(.L62-.L34)/2
 1677 0106 A001     		.2byte	(.L61-.L34)/2
 1678 0108 5A01     		.2byte	(.L60-.L34)/2
 1679 010a 6801     		.2byte	(.L59-.L34)/2
 1680 010c 7601     		.2byte	(.L58-.L34)/2
 1681 010e 8401     		.2byte	(.L57-.L34)/2
 1682 0110 F401     		.2byte	(.L56-.L34)/2
 1683 0112 E601     		.2byte	(.L55-.L34)/2
 1684 0114 AE01     		.2byte	(.L54-.L34)/2
 1685 0116 BC01     		.2byte	(.L53-.L34)/2
 1686 0118 CA01     		.2byte	(.L52-.L34)/2
 1687 011a D801     		.2byte	(.L51-.L34)/2
 1688 011c 1002     		.2byte	(.L50-.L34)/2
 1689 011e 2201     		.2byte	(.L49-.L34)/2
 1690 0120 5C00     		.2byte	(.L31-.L34)/2
 1691 0122 3001     		.2byte	(.L48-.L34)/2
 1692 0124 3E01     		.2byte	(.L47-.L34)/2
 1693 0126 4C01     		.2byte	(.L46-.L34)/2
 1694 0128 5C00     		.2byte	(.L31-.L34)/2
 1695 012a 5C00     		.2byte	(.L31-.L34)/2
 1696 012c 5C00     		.2byte	(.L31-.L34)/2
 1697 012e 5C00     		.2byte	(.L31-.L34)/2
 1698 0130 5C00     		.2byte	(.L31-.L34)/2
 1699 0132 5C00     		.2byte	(.L31-.L34)/2
 1700 0134 5C00     		.2byte	(.L31-.L34)/2
 1701 0136 1E02     		.2byte	(.L45-.L34)/2
 1702 0138 5C00     		.2byte	(.L31-.L34)/2
 1703 013a 5C00     		.2byte	(.L31-.L34)/2
 1704 013c 5C00     		.2byte	(.L31-.L34)/2
 1705 013e 5C00     		.2byte	(.L31-.L34)/2
 1706 0140 5C00     		.2byte	(.L31-.L34)/2
 1707 0142 5C00     		.2byte	(.L31-.L34)/2
 1708 0144 5C00     		.2byte	(.L31-.L34)/2
 1709 0146 5C00     		.2byte	(.L31-.L34)/2
 1710 0148 5C00     		.2byte	(.L31-.L34)/2
ARM GAS  C:\Users\Antonio\AppData\Local\Temp\cc6EBOZH.s 			page 42


 1711 014a 5E00     		.2byte	(.L44-.L34)/2
 1712 014c 7802     		.2byte	(.L43-.L34)/2
 1713 014e B002     		.2byte	(.L42-.L34)/2
 1714 0150 A202     		.2byte	(.L41-.L34)/2
 1715 0152 9402     		.2byte	(.L40-.L34)/2
 1716 0154 BE02     		.2byte	(.L39-.L34)/2
 1717 0156 5C00     		.2byte	(.L31-.L34)/2
 1718 0158 5C00     		.2byte	(.L31-.L34)/2
 1719 015a 5C00     		.2byte	(.L31-.L34)/2
 1720 015c 5C00     		.2byte	(.L31-.L34)/2
 1721 015e 5C00     		.2byte	(.L31-.L34)/2
 1722 0160 5C00     		.2byte	(.L31-.L34)/2
 1723 0162 6A02     		.2byte	(.L38-.L34)/2
 1724 0164 2C02     		.2byte	(.L37-.L34)/2
 1725 0166 5C00     		.2byte	(.L31-.L34)/2
 1726 0168 5C00     		.2byte	(.L31-.L34)/2
 1727 016a 5C00     		.2byte	(.L31-.L34)/2
 1728 016c 5C00     		.2byte	(.L31-.L34)/2
 1729 016e 5C00     		.2byte	(.L31-.L34)/2
 1730 0170 5C00     		.2byte	(.L31-.L34)/2
 1731 0172 CC02     		.2byte	(.L36-.L34)/2
 1732 0174 DA02     		.2byte	(.L35-.L34)/2
 1733 0176 5C00     		.2byte	(.L31-.L34)/2
 1734 0178 E802     		.2byte	(.L33-.L34)/2
 1735              		.p2align 1
 1736              	.L68:
 1737              	.LBB14:
 397:../../Middlewares/AI_Runtime/Npu/ll_aton/ll_sw_float.c ****   {
 398:../../Middlewares/AI_Runtime/Npu/ll_aton/ll_sw_float.c ****   case LL_SW_RELU:
 399:../../Middlewares/AI_Runtime/Npu/ll_aton/ll_sw_float.c ****   {
 400:../../Middlewares/AI_Runtime/Npu/ll_aton/ll_sw_float.c ****     AI_LAYER_OBJ_DECLARE(nonlinearity_layer, 2, NL_TYPE, 0x0, NULL, nl, forward_relu, &activ_chain,
 1738              		.loc 1 400 5 is_stmt 1 view .LVU471
 1739 017a 3F49     		ldr	r1, .L70+4
 401:../../Middlewares/AI_Runtime/Npu/ll_aton/ll_sw_float.c ****                          .nl_params = NULL, )
 402:../../Middlewares/AI_Runtime/Npu/ll_aton/ll_sw_float.c ****     nonlinearity_layer.forward(AI_LAYER_OBJ(&nonlinearity_layer));
 1740              		.loc 1 402 5 is_stmt 0 view .LVU472
 1741 017c 5AA8     		add	r0, sp, #360
 1742              	.LVL40:
 400:../../Middlewares/AI_Runtime/Npu/ll_aton/ll_sw_float.c ****                          .nl_params = NULL, )
 1743              		.loc 1 400 5 view .LVU473
 1744 017e CDE95A13 		strd	r1, r3, [sp, #360]
 1745 0182 3E49     		ldr	r1, .L70+8
 1746 0184 CDE95C33 		strd	r3, r3, [sp, #368]
 1747 0188 CDE95F12 		strd	r1, r2, [sp, #380]
 1748 018c 5E93     		str	r3, [sp, #376]
 1749 018e 6193     		str	r3, [sp, #388]
 1750              		.loc 1 402 5 is_stmt 1 view .LVU474
 1751 0190 FFF7FEFF 		bl	forward_relu
 1752              	.LVL41:
 1753              	.LBE14:
 403:../../Middlewares/AI_Runtime/Npu/ll_aton/ll_sw_float.c ****   }
 404:../../Middlewares/AI_Runtime/Npu/ll_aton/ll_sw_float.c ****   break;
 1754              		.loc 1 404 3 view .LVU475
 1755              	.L31:
 405:../../Middlewares/AI_Runtime/Npu/ll_aton/ll_sw_float.c ****   case LL_SW_CLIP:
 406:../../Middlewares/AI_Runtime/Npu/ll_aton/ll_sw_float.c ****   {
 407:../../Middlewares/AI_Runtime/Npu/ll_aton/ll_sw_float.c ****     AI_ARRAY_OBJ_DECLARE_STATIC(clip_layer_params, ai_float, AI_ARRAY_FORMAT_FLOAT, AI_CONST, 2, sw
ARM GAS  C:\Users\Antonio\AppData\Local\Temp\cc6EBOZH.s 			page 43


 408:../../Middlewares/AI_Runtime/Npu/ll_aton/ll_sw_float.c ****                                 sw_info->max)
 409:../../Middlewares/AI_Runtime/Npu/ll_aton/ll_sw_float.c ****     AI_LAYER_OBJ_DECLARE(nonlinearity_layer, 2, NL_TYPE, 0x0, NULL, nl, forward_clip, &activ_chain,
 410:../../Middlewares/AI_Runtime/Npu/ll_aton/ll_sw_float.c ****                          .nl_params = AI_ARRAY_OBJ(&clip_layer_params))
 411:../../Middlewares/AI_Runtime/Npu/ll_aton/ll_sw_float.c ****     nonlinearity_layer.forward(AI_LAYER_OBJ(&nonlinearity_layer));
 412:../../Middlewares/AI_Runtime/Npu/ll_aton/ll_sw_float.c ****   }
 413:../../Middlewares/AI_Runtime/Npu/ll_aton/ll_sw_float.c ****   break;
 414:../../Middlewares/AI_Runtime/Npu/ll_aton/ll_sw_float.c ****   case LL_SW_PRELU:
 415:../../Middlewares/AI_Runtime/Npu/ll_aton/ll_sw_float.c ****   {
 416:../../Middlewares/AI_Runtime/Npu/ll_aton/ll_sw_float.c ****     AI_ARRAY_OBJ_DECLARE(activ_operand_array, FORMAT, sw_info->operand.mem.start_offset,
 417:../../Middlewares/AI_Runtime/Npu/ll_aton/ll_sw_float.c ****                          sw_info->operand.mem.start_offset, sw_info->operand.dim.num_elem, )
 418:../../Middlewares/AI_Runtime/Npu/ll_aton/ll_sw_float.c **** 
 419:../../Middlewares/AI_Runtime/Npu/ll_aton/ll_sw_float.c ****     AI_TENSOR_OBJ_DECLARE(activ_operand, , 0x0, 4,
 420:../../Middlewares/AI_Runtime/Npu/ll_aton/ll_sw_float.c ****                           SHAPE_INIT(sw_info->operand.dim.tensor_h, sw_info->operand.dim.tensor_w,
 421:../../Middlewares/AI_Runtime/Npu/ll_aton/ll_sw_float.c ****                                      sw_info->operand.dim.tensor_c, sw_info->operand.dim.tensor_b),
 422:../../Middlewares/AI_Runtime/Npu/ll_aton/ll_sw_float.c ****                           STRIDE_INIT(sw_info->operand.stride.h, sw_info->operand.stride.w, sw_info
 423:../../Middlewares/AI_Runtime/Npu/ll_aton/ll_sw_float.c ****                                       sw_info->operand.stride.b),
 424:../../Middlewares/AI_Runtime/Npu/ll_aton/ll_sw_float.c ****                           1, &activ_operand_array, NULL)
 425:../../Middlewares/AI_Runtime/Npu/ll_aton/ll_sw_float.c **** 
 426:../../Middlewares/AI_Runtime/Npu/ll_aton/ll_sw_float.c ****     // tensor chains init
 427:../../Middlewares/AI_Runtime/Npu/ll_aton/ll_sw_float.c ****     AI_TENSOR_CHAIN_OBJ_DECLARE(
 428:../../Middlewares/AI_Runtime/Npu/ll_aton/ll_sw_float.c ****         prelu_activ_chain, , 4, AI_TENSOR_LIST_OBJ_INIT(AI_FLAG_NONE, 1, TENSORS(&input_output)),
 429:../../Middlewares/AI_Runtime/Npu/ll_aton/ll_sw_float.c ****         AI_TENSOR_LIST_OBJ_INIT(AI_FLAG_NONE, 1, TENSORS(&activ_output)),
 430:../../Middlewares/AI_Runtime/Npu/ll_aton/ll_sw_float.c ****         AI_TENSOR_LIST_OBJ_INIT(AI_FLAG_NONE, 1, TENSORS(&activ_operand)), AI_TENSOR_LIST_OBJ_EMPTY
 431:../../Middlewares/AI_Runtime/Npu/ll_aton/ll_sw_float.c **** 
 432:../../Middlewares/AI_Runtime/Npu/ll_aton/ll_sw_float.c ****     AI_LAYER_OBJ_DECLARE(nonlinearity_layer, 2, NL_TYPE, 0x0, NULL, nl, forward_prelu, &prelu_activ
 433:../../Middlewares/AI_Runtime/Npu/ll_aton/ll_sw_float.c ****                          .nl_params = NULL, )
 434:../../Middlewares/AI_Runtime/Npu/ll_aton/ll_sw_float.c ****     nonlinearity_layer.forward(AI_LAYER_OBJ(&nonlinearity_layer));
 435:../../Middlewares/AI_Runtime/Npu/ll_aton/ll_sw_float.c ****   }
 436:../../Middlewares/AI_Runtime/Npu/ll_aton/ll_sw_float.c ****   break;
 437:../../Middlewares/AI_Runtime/Npu/ll_aton/ll_sw_float.c ****   case LL_SW_ELU:
 438:../../Middlewares/AI_Runtime/Npu/ll_aton/ll_sw_float.c ****   {
 439:../../Middlewares/AI_Runtime/Npu/ll_aton/ll_sw_float.c ****     // defining the array of params needed
 440:../../Middlewares/AI_Runtime/Npu/ll_aton/ll_sw_float.c ****     AI_ARRAY_OBJ_DECLARE_STATIC(elu_layer_params, ai_float, FORMAT, , 1, sw_info->alpha)
 441:../../Middlewares/AI_Runtime/Npu/ll_aton/ll_sw_float.c **** 
 442:../../Middlewares/AI_Runtime/Npu/ll_aton/ll_sw_float.c ****     AI_LAYER_OBJ_DECLARE(nonlinearity_layer, 2, NL_TYPE, 0x0, NULL, nl, forward_elu, &activ_chain, 
 443:../../Middlewares/AI_Runtime/Npu/ll_aton/ll_sw_float.c ****                          .nl_params = AI_ARRAY_OBJ(&elu_layer_params), )
 444:../../Middlewares/AI_Runtime/Npu/ll_aton/ll_sw_float.c ****     nonlinearity_layer.forward(AI_LAYER_OBJ(&nonlinearity_layer));
 445:../../Middlewares/AI_Runtime/Npu/ll_aton/ll_sw_float.c ****   }
 446:../../Middlewares/AI_Runtime/Npu/ll_aton/ll_sw_float.c ****   break;
 447:../../Middlewares/AI_Runtime/Npu/ll_aton/ll_sw_float.c ****   case LL_SW_THRESHOLDEDRELU:
 448:../../Middlewares/AI_Runtime/Npu/ll_aton/ll_sw_float.c ****   {
 449:../../Middlewares/AI_Runtime/Npu/ll_aton/ll_sw_float.c ****     // defining the array of params needed
 450:../../Middlewares/AI_Runtime/Npu/ll_aton/ll_sw_float.c ****     AI_ARRAY_OBJ_DECLARE_STATIC(thresholdedrelu_layer_params, ai_float, FORMAT, , 1, sw_info->alpha
 451:../../Middlewares/AI_Runtime/Npu/ll_aton/ll_sw_float.c **** 
 452:../../Middlewares/AI_Runtime/Npu/ll_aton/ll_sw_float.c ****     AI_LAYER_OBJ_DECLARE(nonlinearity_layer, 2, NL_TYPE, 0x0, NULL, nl, forward_relu_thresholded, &
 453:../../Middlewares/AI_Runtime/Npu/ll_aton/ll_sw_float.c ****                          NULL, , .nl_params = AI_ARRAY_OBJ(&thresholdedrelu_layer_params), )
 454:../../Middlewares/AI_Runtime/Npu/ll_aton/ll_sw_float.c ****     nonlinearity_layer.forward(AI_LAYER_OBJ(&nonlinearity_layer));
 455:../../Middlewares/AI_Runtime/Npu/ll_aton/ll_sw_float.c ****   }
 456:../../Middlewares/AI_Runtime/Npu/ll_aton/ll_sw_float.c ****   break;
 457:../../Middlewares/AI_Runtime/Npu/ll_aton/ll_sw_float.c ****   case LL_SW_SELU:
 458:../../Middlewares/AI_Runtime/Npu/ll_aton/ll_sw_float.c ****   {
 459:../../Middlewares/AI_Runtime/Npu/ll_aton/ll_sw_float.c ****     // defining the array of params needed
 460:../../Middlewares/AI_Runtime/Npu/ll_aton/ll_sw_float.c ****     AI_ARRAY_OBJ_DECLARE_STATIC(selu_layer_params, ai_float, FORMAT, , 2, sw_info->alpha, sw_info->
 461:../../Middlewares/AI_Runtime/Npu/ll_aton/ll_sw_float.c **** 
 462:../../Middlewares/AI_Runtime/Npu/ll_aton/ll_sw_float.c ****     AI_LAYER_OBJ_DECLARE(nonlinearity_layer, 2, NL_TYPE, 0x0, NULL, nl, forward_selu, &activ_chain,
 463:../../Middlewares/AI_Runtime/Npu/ll_aton/ll_sw_float.c ****                          .nl_params = AI_ARRAY_OBJ(&selu_layer_params), )
 464:../../Middlewares/AI_Runtime/Npu/ll_aton/ll_sw_float.c ****     nonlinearity_layer.forward(AI_LAYER_OBJ(&nonlinearity_layer));
ARM GAS  C:\Users\Antonio\AppData\Local\Temp\cc6EBOZH.s 			page 44


 465:../../Middlewares/AI_Runtime/Npu/ll_aton/ll_sw_float.c ****   }
 466:../../Middlewares/AI_Runtime/Npu/ll_aton/ll_sw_float.c ****   break;
 467:../../Middlewares/AI_Runtime/Npu/ll_aton/ll_sw_float.c ****   case LL_SW_CEIL:
 468:../../Middlewares/AI_Runtime/Npu/ll_aton/ll_sw_float.c ****   {
 469:../../Middlewares/AI_Runtime/Npu/ll_aton/ll_sw_float.c ****     AI_LAYER_OBJ_DECLARE(nonlinearity_layer, 2, NL_TYPE, 0x0, NULL, nl, forward_ceil, &activ_chain,
 470:../../Middlewares/AI_Runtime/Npu/ll_aton/ll_sw_float.c ****                          .nl_params = NULL, )
 471:../../Middlewares/AI_Runtime/Npu/ll_aton/ll_sw_float.c ****     nonlinearity_layer.forward(AI_LAYER_OBJ(&nonlinearity_layer));
 472:../../Middlewares/AI_Runtime/Npu/ll_aton/ll_sw_float.c ****   }
 473:../../Middlewares/AI_Runtime/Npu/ll_aton/ll_sw_float.c ****   break;
 474:../../Middlewares/AI_Runtime/Npu/ll_aton/ll_sw_float.c ****   case LL_SW_FLOOR:
 475:../../Middlewares/AI_Runtime/Npu/ll_aton/ll_sw_float.c ****   {
 476:../../Middlewares/AI_Runtime/Npu/ll_aton/ll_sw_float.c ****     AI_LAYER_OBJ_DECLARE(nonlinearity_layer, 2, NL_TYPE, 0x0, NULL, nl, forward_floor, &activ_chain
 477:../../Middlewares/AI_Runtime/Npu/ll_aton/ll_sw_float.c ****                          .nl_params = NULL, )
 478:../../Middlewares/AI_Runtime/Npu/ll_aton/ll_sw_float.c ****     nonlinearity_layer.forward(AI_LAYER_OBJ(&nonlinearity_layer));
 479:../../Middlewares/AI_Runtime/Npu/ll_aton/ll_sw_float.c ****   }
 480:../../Middlewares/AI_Runtime/Npu/ll_aton/ll_sw_float.c ****   break;
 481:../../Middlewares/AI_Runtime/Npu/ll_aton/ll_sw_float.c ****   case LL_SW_EXP:
 482:../../Middlewares/AI_Runtime/Npu/ll_aton/ll_sw_float.c ****   {
 483:../../Middlewares/AI_Runtime/Npu/ll_aton/ll_sw_float.c ****     AI_LAYER_OBJ_DECLARE(nonlinearity_layer, 2, NL_TYPE, 0x0, NULL, nl, forward_exp, &activ_chain, 
 484:../../Middlewares/AI_Runtime/Npu/ll_aton/ll_sw_float.c ****                          .nl_params = NULL, )
 485:../../Middlewares/AI_Runtime/Npu/ll_aton/ll_sw_float.c ****     nonlinearity_layer.forward(AI_LAYER_OBJ(&nonlinearity_layer));
 486:../../Middlewares/AI_Runtime/Npu/ll_aton/ll_sw_float.c ****   }
 487:../../Middlewares/AI_Runtime/Npu/ll_aton/ll_sw_float.c ****   break;
 488:../../Middlewares/AI_Runtime/Npu/ll_aton/ll_sw_float.c ****   case LL_SW_LOG:
 489:../../Middlewares/AI_Runtime/Npu/ll_aton/ll_sw_float.c ****   {
 490:../../Middlewares/AI_Runtime/Npu/ll_aton/ll_sw_float.c ****     AI_LAYER_OBJ_DECLARE(nonlinearity_layer, 2, NL_TYPE, 0x0, NULL, nl, forward_log, &activ_chain, 
 491:../../Middlewares/AI_Runtime/Npu/ll_aton/ll_sw_float.c ****                          .nl_params = NULL, )
 492:../../Middlewares/AI_Runtime/Npu/ll_aton/ll_sw_float.c ****     nonlinearity_layer.forward(AI_LAYER_OBJ(&nonlinearity_layer));
 493:../../Middlewares/AI_Runtime/Npu/ll_aton/ll_sw_float.c ****   }
 494:../../Middlewares/AI_Runtime/Npu/ll_aton/ll_sw_float.c ****   break;
 495:../../Middlewares/AI_Runtime/Npu/ll_aton/ll_sw_float.c ****   case LL_SW_ACOS:
 496:../../Middlewares/AI_Runtime/Npu/ll_aton/ll_sw_float.c ****   {
 497:../../Middlewares/AI_Runtime/Npu/ll_aton/ll_sw_float.c ****     AI_LAYER_OBJ_DECLARE(nonlinearity_layer, 2, NL_TYPE, 0x0, NULL, nl, forward_acos, &activ_chain,
 498:../../Middlewares/AI_Runtime/Npu/ll_aton/ll_sw_float.c ****                          .nl_params = NULL, )
 499:../../Middlewares/AI_Runtime/Npu/ll_aton/ll_sw_float.c ****     nonlinearity_layer.forward(AI_LAYER_OBJ(&nonlinearity_layer));
 500:../../Middlewares/AI_Runtime/Npu/ll_aton/ll_sw_float.c ****   }
 501:../../Middlewares/AI_Runtime/Npu/ll_aton/ll_sw_float.c ****   break;
 502:../../Middlewares/AI_Runtime/Npu/ll_aton/ll_sw_float.c ****   case LL_SW_ACOSH:
 503:../../Middlewares/AI_Runtime/Npu/ll_aton/ll_sw_float.c ****   {
 504:../../Middlewares/AI_Runtime/Npu/ll_aton/ll_sw_float.c ****     AI_LAYER_OBJ_DECLARE(nonlinearity_layer, 2, NL_TYPE, 0x0, NULL, nl, forward_acosh, &activ_chain
 505:../../Middlewares/AI_Runtime/Npu/ll_aton/ll_sw_float.c ****                          .nl_params = NULL, )
 506:../../Middlewares/AI_Runtime/Npu/ll_aton/ll_sw_float.c ****     nonlinearity_layer.forward(AI_LAYER_OBJ(&nonlinearity_layer));
 507:../../Middlewares/AI_Runtime/Npu/ll_aton/ll_sw_float.c ****   }
 508:../../Middlewares/AI_Runtime/Npu/ll_aton/ll_sw_float.c ****   break;
 509:../../Middlewares/AI_Runtime/Npu/ll_aton/ll_sw_float.c ****   case LL_SW_ASIN:
 510:../../Middlewares/AI_Runtime/Npu/ll_aton/ll_sw_float.c ****   {
 511:../../Middlewares/AI_Runtime/Npu/ll_aton/ll_sw_float.c ****     AI_LAYER_OBJ_DECLARE(nonlinearity_layer, 2, NL_TYPE, 0x0, NULL, nl, forward_asin, &activ_chain,
 512:../../Middlewares/AI_Runtime/Npu/ll_aton/ll_sw_float.c ****                          .nl_params = NULL, )
 513:../../Middlewares/AI_Runtime/Npu/ll_aton/ll_sw_float.c ****     nonlinearity_layer.forward(AI_LAYER_OBJ(&nonlinearity_layer));
 514:../../Middlewares/AI_Runtime/Npu/ll_aton/ll_sw_float.c ****   }
 515:../../Middlewares/AI_Runtime/Npu/ll_aton/ll_sw_float.c ****   break;
 516:../../Middlewares/AI_Runtime/Npu/ll_aton/ll_sw_float.c ****   case LL_SW_ASINH:
 517:../../Middlewares/AI_Runtime/Npu/ll_aton/ll_sw_float.c ****   {
 518:../../Middlewares/AI_Runtime/Npu/ll_aton/ll_sw_float.c ****     AI_LAYER_OBJ_DECLARE(nonlinearity_layer, 2, NL_TYPE, 0x0, NULL, nl, forward_asinh, &activ_chain
 519:../../Middlewares/AI_Runtime/Npu/ll_aton/ll_sw_float.c ****                          .nl_params = NULL, )
 520:../../Middlewares/AI_Runtime/Npu/ll_aton/ll_sw_float.c ****     nonlinearity_layer.forward(AI_LAYER_OBJ(&nonlinearity_layer));
 521:../../Middlewares/AI_Runtime/Npu/ll_aton/ll_sw_float.c ****   }
ARM GAS  C:\Users\Antonio\AppData\Local\Temp\cc6EBOZH.s 			page 45


 522:../../Middlewares/AI_Runtime/Npu/ll_aton/ll_sw_float.c ****   break;
 523:../../Middlewares/AI_Runtime/Npu/ll_aton/ll_sw_float.c ****   case LL_SW_ATAN:
 524:../../Middlewares/AI_Runtime/Npu/ll_aton/ll_sw_float.c ****   {
 525:../../Middlewares/AI_Runtime/Npu/ll_aton/ll_sw_float.c ****     AI_LAYER_OBJ_DECLARE(nonlinearity_layer, 2, NL_TYPE, 0x0, NULL, nl, forward_atan, &activ_chain,
 526:../../Middlewares/AI_Runtime/Npu/ll_aton/ll_sw_float.c ****                          .nl_params = NULL, )
 527:../../Middlewares/AI_Runtime/Npu/ll_aton/ll_sw_float.c ****     nonlinearity_layer.forward(AI_LAYER_OBJ(&nonlinearity_layer));
 528:../../Middlewares/AI_Runtime/Npu/ll_aton/ll_sw_float.c ****   }
 529:../../Middlewares/AI_Runtime/Npu/ll_aton/ll_sw_float.c ****   break;
 530:../../Middlewares/AI_Runtime/Npu/ll_aton/ll_sw_float.c ****   case LL_SW_ATANH:
 531:../../Middlewares/AI_Runtime/Npu/ll_aton/ll_sw_float.c ****   {
 532:../../Middlewares/AI_Runtime/Npu/ll_aton/ll_sw_float.c ****     AI_LAYER_OBJ_DECLARE(nonlinearity_layer, 2, NL_TYPE, 0x0, NULL, nl, forward_atanh, &activ_chain
 533:../../Middlewares/AI_Runtime/Npu/ll_aton/ll_sw_float.c ****                          .nl_params = NULL, )
 534:../../Middlewares/AI_Runtime/Npu/ll_aton/ll_sw_float.c ****     nonlinearity_layer.forward(AI_LAYER_OBJ(&nonlinearity_layer));
 535:../../Middlewares/AI_Runtime/Npu/ll_aton/ll_sw_float.c ****   }
 536:../../Middlewares/AI_Runtime/Npu/ll_aton/ll_sw_float.c ****   break;
 537:../../Middlewares/AI_Runtime/Npu/ll_aton/ll_sw_float.c ****   case LL_SW_COS:
 538:../../Middlewares/AI_Runtime/Npu/ll_aton/ll_sw_float.c ****   {
 539:../../Middlewares/AI_Runtime/Npu/ll_aton/ll_sw_float.c ****     AI_LAYER_OBJ_DECLARE(nonlinearity_layer, 2, NL_TYPE, 0x0, NULL, nl, forward_cos, &activ_chain, 
 540:../../Middlewares/AI_Runtime/Npu/ll_aton/ll_sw_float.c ****                          .nl_params = NULL, )
 541:../../Middlewares/AI_Runtime/Npu/ll_aton/ll_sw_float.c ****     nonlinearity_layer.forward(AI_LAYER_OBJ(&nonlinearity_layer));
 542:../../Middlewares/AI_Runtime/Npu/ll_aton/ll_sw_float.c ****   }
 543:../../Middlewares/AI_Runtime/Npu/ll_aton/ll_sw_float.c ****   break;
 544:../../Middlewares/AI_Runtime/Npu/ll_aton/ll_sw_float.c ****   case LL_SW_COSH:
 545:../../Middlewares/AI_Runtime/Npu/ll_aton/ll_sw_float.c ****   {
 546:../../Middlewares/AI_Runtime/Npu/ll_aton/ll_sw_float.c ****     AI_LAYER_OBJ_DECLARE(nonlinearity_layer, 2, NL_TYPE, 0x0, NULL, nl, forward_cosh, &activ_chain,
 547:../../Middlewares/AI_Runtime/Npu/ll_aton/ll_sw_float.c ****                          .nl_params = NULL, )
 548:../../Middlewares/AI_Runtime/Npu/ll_aton/ll_sw_float.c ****     nonlinearity_layer.forward(AI_LAYER_OBJ(&nonlinearity_layer));
 549:../../Middlewares/AI_Runtime/Npu/ll_aton/ll_sw_float.c ****   }
 550:../../Middlewares/AI_Runtime/Npu/ll_aton/ll_sw_float.c ****   break;
 551:../../Middlewares/AI_Runtime/Npu/ll_aton/ll_sw_float.c ****   case LL_SW_SIN:
 552:../../Middlewares/AI_Runtime/Npu/ll_aton/ll_sw_float.c ****   {
 553:../../Middlewares/AI_Runtime/Npu/ll_aton/ll_sw_float.c ****     AI_LAYER_OBJ_DECLARE(nonlinearity_layer, 2, NL_TYPE, 0x0, NULL, nl, forward_sin, &activ_chain, 
 554:../../Middlewares/AI_Runtime/Npu/ll_aton/ll_sw_float.c ****                          .nl_params = NULL, )
 555:../../Middlewares/AI_Runtime/Npu/ll_aton/ll_sw_float.c ****     nonlinearity_layer.forward(AI_LAYER_OBJ(&nonlinearity_layer));
 556:../../Middlewares/AI_Runtime/Npu/ll_aton/ll_sw_float.c ****   }
 557:../../Middlewares/AI_Runtime/Npu/ll_aton/ll_sw_float.c ****   break;
 558:../../Middlewares/AI_Runtime/Npu/ll_aton/ll_sw_float.c ****   case LL_SW_SINH:
 559:../../Middlewares/AI_Runtime/Npu/ll_aton/ll_sw_float.c ****   {
 560:../../Middlewares/AI_Runtime/Npu/ll_aton/ll_sw_float.c ****     AI_LAYER_OBJ_DECLARE(nonlinearity_layer, 2, NL_TYPE, 0x0, NULL, nl, forward_sinh, &activ_chain,
 561:../../Middlewares/AI_Runtime/Npu/ll_aton/ll_sw_float.c ****                          .nl_params = NULL, )
 562:../../Middlewares/AI_Runtime/Npu/ll_aton/ll_sw_float.c ****     nonlinearity_layer.forward(AI_LAYER_OBJ(&nonlinearity_layer));
 563:../../Middlewares/AI_Runtime/Npu/ll_aton/ll_sw_float.c ****   }
 564:../../Middlewares/AI_Runtime/Npu/ll_aton/ll_sw_float.c ****   break;
 565:../../Middlewares/AI_Runtime/Npu/ll_aton/ll_sw_float.c ****   case LL_SW_TANH:
 566:../../Middlewares/AI_Runtime/Npu/ll_aton/ll_sw_float.c ****   {
 567:../../Middlewares/AI_Runtime/Npu/ll_aton/ll_sw_float.c ****     AI_LAYER_OBJ_DECLARE(nonlinearity_layer, 2, NL_TYPE, 0x0, NULL, nl, forward_tanh, &activ_chain,
 568:../../Middlewares/AI_Runtime/Npu/ll_aton/ll_sw_float.c ****                          .nl_params = NULL, )
 569:../../Middlewares/AI_Runtime/Npu/ll_aton/ll_sw_float.c ****     nonlinearity_layer.forward(AI_LAYER_OBJ(&nonlinearity_layer));
 570:../../Middlewares/AI_Runtime/Npu/ll_aton/ll_sw_float.c ****   }
 571:../../Middlewares/AI_Runtime/Npu/ll_aton/ll_sw_float.c ****   break;
 572:../../Middlewares/AI_Runtime/Npu/ll_aton/ll_sw_float.c ****   case LL_SW_TAN:
 573:../../Middlewares/AI_Runtime/Npu/ll_aton/ll_sw_float.c ****   {
 574:../../Middlewares/AI_Runtime/Npu/ll_aton/ll_sw_float.c ****     AI_LAYER_OBJ_DECLARE(nonlinearity_layer, 2, NL_TYPE, 0x0, NULL, nl, forward_tan, &activ_chain, 
 575:../../Middlewares/AI_Runtime/Npu/ll_aton/ll_sw_float.c ****                          .nl_params = NULL, )
 576:../../Middlewares/AI_Runtime/Npu/ll_aton/ll_sw_float.c ****     nonlinearity_layer.forward(AI_LAYER_OBJ(&nonlinearity_layer));
 577:../../Middlewares/AI_Runtime/Npu/ll_aton/ll_sw_float.c ****   }
 578:../../Middlewares/AI_Runtime/Npu/ll_aton/ll_sw_float.c ****   break;
ARM GAS  C:\Users\Antonio\AppData\Local\Temp\cc6EBOZH.s 			page 46


 579:../../Middlewares/AI_Runtime/Npu/ll_aton/ll_sw_float.c ****   case LL_SW_SIGMOID:
 580:../../Middlewares/AI_Runtime/Npu/ll_aton/ll_sw_float.c ****   {
 581:../../Middlewares/AI_Runtime/Npu/ll_aton/ll_sw_float.c ****     AI_LAYER_OBJ_DECLARE(nonlinearity_layer, 2, NL_TYPE, 0x0, NULL, nl, forward_sigmoid, &activ_cha
 582:../../Middlewares/AI_Runtime/Npu/ll_aton/ll_sw_float.c ****                          .nl_params = NULL, )
 583:../../Middlewares/AI_Runtime/Npu/ll_aton/ll_sw_float.c ****     nonlinearity_layer.forward(AI_LAYER_OBJ(&nonlinearity_layer));
 584:../../Middlewares/AI_Runtime/Npu/ll_aton/ll_sw_float.c ****   }
 585:../../Middlewares/AI_Runtime/Npu/ll_aton/ll_sw_float.c ****   break;
 586:../../Middlewares/AI_Runtime/Npu/ll_aton/ll_sw_float.c ****   case LL_SW_SQRT:
 587:../../Middlewares/AI_Runtime/Npu/ll_aton/ll_sw_float.c ****   {
 588:../../Middlewares/AI_Runtime/Npu/ll_aton/ll_sw_float.c ****     AI_LAYER_OBJ_DECLARE(nonlinearity_layer, 2, NL_TYPE, 0x0, NULL, nl, forward_sqrt, &activ_chain,
 589:../../Middlewares/AI_Runtime/Npu/ll_aton/ll_sw_float.c ****                          .nl_params = NULL, )
 590:../../Middlewares/AI_Runtime/Npu/ll_aton/ll_sw_float.c ****     nonlinearity_layer.forward(AI_LAYER_OBJ(&nonlinearity_layer));
 591:../../Middlewares/AI_Runtime/Npu/ll_aton/ll_sw_float.c ****   }
 592:../../Middlewares/AI_Runtime/Npu/ll_aton/ll_sw_float.c ****   break;
 593:../../Middlewares/AI_Runtime/Npu/ll_aton/ll_sw_float.c ****   case LL_SW_ERF:
 594:../../Middlewares/AI_Runtime/Npu/ll_aton/ll_sw_float.c ****   {
 595:../../Middlewares/AI_Runtime/Npu/ll_aton/ll_sw_float.c ****     AI_LAYER_OBJ_DECLARE(nonlinearity_layer, 2, NL_TYPE, 0x0, NULL, nl, forward_erf, &activ_chain, 
 596:../../Middlewares/AI_Runtime/Npu/ll_aton/ll_sw_float.c ****                          .nl_params = NULL, )
 597:../../Middlewares/AI_Runtime/Npu/ll_aton/ll_sw_float.c ****     nonlinearity_layer.forward(AI_LAYER_OBJ(&nonlinearity_layer));
 598:../../Middlewares/AI_Runtime/Npu/ll_aton/ll_sw_float.c ****   }
 599:../../Middlewares/AI_Runtime/Npu/ll_aton/ll_sw_float.c ****   break;
 600:../../Middlewares/AI_Runtime/Npu/ll_aton/ll_sw_float.c ****   case LL_SW_SOFTPLUS:
 601:../../Middlewares/AI_Runtime/Npu/ll_aton/ll_sw_float.c ****   {
 602:../../Middlewares/AI_Runtime/Npu/ll_aton/ll_sw_float.c ****     AI_LAYER_OBJ_DECLARE(nonlinearity_layer, 2, NL_TYPE, 0x0, NULL, nl, forward_soft_plus, &activ_c
 603:../../Middlewares/AI_Runtime/Npu/ll_aton/ll_sw_float.c ****                          .nl_params = NULL, )
 604:../../Middlewares/AI_Runtime/Npu/ll_aton/ll_sw_float.c ****     nonlinearity_layer.forward(AI_LAYER_OBJ(&nonlinearity_layer));
 605:../../Middlewares/AI_Runtime/Npu/ll_aton/ll_sw_float.c ****   }
 606:../../Middlewares/AI_Runtime/Npu/ll_aton/ll_sw_float.c ****   break;
 607:../../Middlewares/AI_Runtime/Npu/ll_aton/ll_sw_float.c ****   case LL_SW_SOFTSIGN:
 608:../../Middlewares/AI_Runtime/Npu/ll_aton/ll_sw_float.c ****   {
 609:../../Middlewares/AI_Runtime/Npu/ll_aton/ll_sw_float.c ****     AI_LAYER_OBJ_DECLARE(nonlinearity_layer, 2, NL_TYPE, 0x0, NULL, nl, forward_soft_sign, &activ_c
 610:../../Middlewares/AI_Runtime/Npu/ll_aton/ll_sw_float.c ****                          .nl_params = NULL, )
 611:../../Middlewares/AI_Runtime/Npu/ll_aton/ll_sw_float.c ****     nonlinearity_layer.forward(AI_LAYER_OBJ(&nonlinearity_layer));
 612:../../Middlewares/AI_Runtime/Npu/ll_aton/ll_sw_float.c ****   }
 613:../../Middlewares/AI_Runtime/Npu/ll_aton/ll_sw_float.c ****   break;
 614:../../Middlewares/AI_Runtime/Npu/ll_aton/ll_sw_float.c ****   case LL_SW_HARDSIGMOID:
 615:../../Middlewares/AI_Runtime/Npu/ll_aton/ll_sw_float.c ****   {
 616:../../Middlewares/AI_Runtime/Npu/ll_aton/ll_sw_float.c ****     AI_ARRAY_OBJ_DECLARE_STATIC(hard_sigmoid_layer_params, ai_float, AI_ARRAY_FORMAT_FLOAT, AI_CONS
 617:../../Middlewares/AI_Runtime/Npu/ll_aton/ll_sw_float.c ****                                 sw_info->beta)
 618:../../Middlewares/AI_Runtime/Npu/ll_aton/ll_sw_float.c ****     AI_LAYER_OBJ_DECLARE(nonlinearity_layer, 2, NL_TYPE, 0x0, NULL, nl, forward_hard_sigmoid, &acti
 619:../../Middlewares/AI_Runtime/Npu/ll_aton/ll_sw_float.c ****                          , .nl_params = AI_ARRAY_OBJ(&hard_sigmoid_layer_params), )
 620:../../Middlewares/AI_Runtime/Npu/ll_aton/ll_sw_float.c ****     nonlinearity_layer.forward(AI_LAYER_OBJ(&nonlinearity_layer));
 621:../../Middlewares/AI_Runtime/Npu/ll_aton/ll_sw_float.c ****   }
 622:../../Middlewares/AI_Runtime/Npu/ll_aton/ll_sw_float.c ****   break;
 623:../../Middlewares/AI_Runtime/Npu/ll_aton/ll_sw_float.c ****   case LL_SW_SWISH:
 624:../../Middlewares/AI_Runtime/Npu/ll_aton/ll_sw_float.c ****   {
 625:../../Middlewares/AI_Runtime/Npu/ll_aton/ll_sw_float.c ****     AI_LAYER_OBJ_DECLARE(nonlinearity_layer, 2, NL_TYPE, 0x0, NULL, nl, forward_swish, &activ_chain
 626:../../Middlewares/AI_Runtime/Npu/ll_aton/ll_sw_float.c ****                          .nl_params = NULL, )
 627:../../Middlewares/AI_Runtime/Npu/ll_aton/ll_sw_float.c ****     nonlinearity_layer.forward(AI_LAYER_OBJ(&nonlinearity_layer));
 628:../../Middlewares/AI_Runtime/Npu/ll_aton/ll_sw_float.c ****   }
 629:../../Middlewares/AI_Runtime/Npu/ll_aton/ll_sw_float.c ****   break;
 630:../../Middlewares/AI_Runtime/Npu/ll_aton/ll_sw_float.c ****   case LL_SW_HARDSWISH:
 631:../../Middlewares/AI_Runtime/Npu/ll_aton/ll_sw_float.c ****   {
 632:../../Middlewares/AI_Runtime/Npu/ll_aton/ll_sw_float.c ****     AI_LAYER_OBJ_DECLARE(nonlinearity_layer, 2, NL_TYPE, 0x0, NULL, nl, forward_hard_swish, &activ_
 633:../../Middlewares/AI_Runtime/Npu/ll_aton/ll_sw_float.c ****                          .nl_params = NULL, )
 634:../../Middlewares/AI_Runtime/Npu/ll_aton/ll_sw_float.c ****     nonlinearity_layer.forward(AI_LAYER_OBJ(&nonlinearity_layer));
 635:../../Middlewares/AI_Runtime/Npu/ll_aton/ll_sw_float.c ****   }
ARM GAS  C:\Users\Antonio\AppData\Local\Temp\cc6EBOZH.s 			page 47


 636:../../Middlewares/AI_Runtime/Npu/ll_aton/ll_sw_float.c ****   break;
 637:../../Middlewares/AI_Runtime/Npu/ll_aton/ll_sw_float.c ****   case LL_SW_HARDMAX:
 638:../../Middlewares/AI_Runtime/Npu/ll_aton/ll_sw_float.c ****   {
 639:../../Middlewares/AI_Runtime/Npu/ll_aton/ll_sw_float.c ****     AI_LAYER_OBJ_DECLARE(nonlinearity_layer, 2, NL_TYPE, 0x0, NULL, nl, forward_hardmax, &activ_cha
 640:../../Middlewares/AI_Runtime/Npu/ll_aton/ll_sw_float.c ****                          .nl_params = NULL, )
 641:../../Middlewares/AI_Runtime/Npu/ll_aton/ll_sw_float.c ****     nonlinearity_layer.forward(AI_LAYER_OBJ(&nonlinearity_layer));
 642:../../Middlewares/AI_Runtime/Npu/ll_aton/ll_sw_float.c ****   }
 643:../../Middlewares/AI_Runtime/Npu/ll_aton/ll_sw_float.c ****   break;
 644:../../Middlewares/AI_Runtime/Npu/ll_aton/ll_sw_float.c ****   case LL_SW_ABS:
 645:../../Middlewares/AI_Runtime/Npu/ll_aton/ll_sw_float.c ****   {
 646:../../Middlewares/AI_Runtime/Npu/ll_aton/ll_sw_float.c ****     AI_LAYER_OBJ_DECLARE(nonlinearity_layer, 2, NL_TYPE, 0x0, NULL, nl, forward_abs, &activ_chain, 
 647:../../Middlewares/AI_Runtime/Npu/ll_aton/ll_sw_float.c ****                          .nl_params = NULL, )
 648:../../Middlewares/AI_Runtime/Npu/ll_aton/ll_sw_float.c ****     nonlinearity_layer.forward(AI_LAYER_OBJ(&nonlinearity_layer));
 649:../../Middlewares/AI_Runtime/Npu/ll_aton/ll_sw_float.c ****   }
 650:../../Middlewares/AI_Runtime/Npu/ll_aton/ll_sw_float.c ****   break;
 651:../../Middlewares/AI_Runtime/Npu/ll_aton/ll_sw_float.c ****   case LL_SW_NEG:
 652:../../Middlewares/AI_Runtime/Npu/ll_aton/ll_sw_float.c ****   {
 653:../../Middlewares/AI_Runtime/Npu/ll_aton/ll_sw_float.c ****     AI_LAYER_OBJ_DECLARE(nonlinearity_layer, 2, NL_TYPE, 0x0, NULL, nl, forward_neg, &activ_chain, 
 654:../../Middlewares/AI_Runtime/Npu/ll_aton/ll_sw_float.c ****                          .nl_params = NULL, )
 655:../../Middlewares/AI_Runtime/Npu/ll_aton/ll_sw_float.c ****     nonlinearity_layer.forward(AI_LAYER_OBJ(&nonlinearity_layer));
 656:../../Middlewares/AI_Runtime/Npu/ll_aton/ll_sw_float.c ****   }
 657:../../Middlewares/AI_Runtime/Npu/ll_aton/ll_sw_float.c ****   break;
 658:../../Middlewares/AI_Runtime/Npu/ll_aton/ll_sw_float.c ****   case LL_SW_RECIPROCAL:
 659:../../Middlewares/AI_Runtime/Npu/ll_aton/ll_sw_float.c ****   {
 660:../../Middlewares/AI_Runtime/Npu/ll_aton/ll_sw_float.c ****     AI_LAYER_OBJ_DECLARE(nonlinearity_layer, 2, NL_TYPE, 0x0, NULL, nl, forward_reciprocal, &activ_
 661:../../Middlewares/AI_Runtime/Npu/ll_aton/ll_sw_float.c ****                          .nl_params = NULL, )
 662:../../Middlewares/AI_Runtime/Npu/ll_aton/ll_sw_float.c ****     nonlinearity_layer.forward(AI_LAYER_OBJ(&nonlinearity_layer));
 663:../../Middlewares/AI_Runtime/Npu/ll_aton/ll_sw_float.c ****   }
 664:../../Middlewares/AI_Runtime/Npu/ll_aton/ll_sw_float.c ****   break;
 665:../../Middlewares/AI_Runtime/Npu/ll_aton/ll_sw_float.c ****   case LL_SW_ROUND:
 666:../../Middlewares/AI_Runtime/Npu/ll_aton/ll_sw_float.c ****   {
 667:../../Middlewares/AI_Runtime/Npu/ll_aton/ll_sw_float.c ****     AI_LAYER_OBJ_DECLARE(nonlinearity_layer, 2, NL_TYPE, 0x0, NULL, nl, forward_round, &activ_chain
 668:../../Middlewares/AI_Runtime/Npu/ll_aton/ll_sw_float.c ****                          .nl_params = NULL, )
 669:../../Middlewares/AI_Runtime/Npu/ll_aton/ll_sw_float.c ****     nonlinearity_layer.forward(AI_LAYER_OBJ(&nonlinearity_layer));
 670:../../Middlewares/AI_Runtime/Npu/ll_aton/ll_sw_float.c ****   }
 671:../../Middlewares/AI_Runtime/Npu/ll_aton/ll_sw_float.c ****   break;
 672:../../Middlewares/AI_Runtime/Npu/ll_aton/ll_sw_float.c ****   default:
 673:../../Middlewares/AI_Runtime/Npu/ll_aton/ll_sw_float.c **** #ifdef LL_SW_ENABLE_ASSERTS
 674:../../Middlewares/AI_Runtime/Npu/ll_aton/ll_sw_float.c ****     LL_ATON_ASSERT(0 && "NL OPERATION NOT SUPPORTED");
 675:../../Middlewares/AI_Runtime/Npu/ll_aton/ll_sw_float.c **** #endif
 676:../../Middlewares/AI_Runtime/Npu/ll_aton/ll_sw_float.c ****     break;
 677:../../Middlewares/AI_Runtime/Npu/ll_aton/ll_sw_float.c ****   }
 678:../../Middlewares/AI_Runtime/Npu/ll_aton/ll_sw_float.c **** }
 1756              		.loc 1 678 1 is_stmt 0 view .LVU476
 1757 0194 67B0     		add	sp, sp, #412
 1758              		.cfi_remember_state
 1759              		.cfi_def_cfa_offset 20
 1760              		@ sp needed
 1761 0196 F0BD     		pop	{r4, r5, r6, r7, pc}
 1762              	.LVL42:
 1763              	.L44:
 1764              		.cfi_restore_state
 1765              	.LBB15:
 407:../../Middlewares/AI_Runtime/Npu/ll_aton/ll_sw_float.c ****                                 sw_info->max)
 1766              		.loc 1 407 5 is_stmt 1 view .LVU477
 1767 0198 0223     		movs	r3, #2
 1768 019a 4793     		str	r3, [sp, #284]
ARM GAS  C:\Users\Antonio\AppData\Local\Temp\cc6EBOZH.s 			page 48


 1769 019c D0F89430 		ldr	r3, [r0, #148]	@ float
 1770 01a0 4691     		str	r1, [sp, #280]
 1771 01a2 3F93     		str	r3, [sp, #252]	@ float
 1772 01a4 D0F89830 		ldr	r3, [r0, #152]	@ float
 409:../../Middlewares/AI_Runtime/Npu/ll_aton/ll_sw_float.c ****                          .nl_params = AI_ARRAY_OBJ(&clip_layer_params))
 1773              		.loc 1 409 5 is_stmt 0 view .LVU478
 1774 01a8 3349     		ldr	r1, .L70+4
 407:../../Middlewares/AI_Runtime/Npu/ll_aton/ll_sw_float.c ****                                 sw_info->max)
 1775              		.loc 1 407 5 view .LVU479
 1776 01aa 4093     		str	r3, [sp, #256]	@ float
 1777 01ac 3FAB     		add	r3, sp, #252
 1778 01ae 4893     		str	r3, [sp, #288]
 1779 01b0 0023     		movs	r3, #0
 409:../../Middlewares/AI_Runtime/Npu/ll_aton/ll_sw_float.c ****                          .nl_params = AI_ARRAY_OBJ(&clip_layer_params))
 1780              		.loc 1 409 5 view .LVU480
 1781 01b2 CDE95A13 		strd	r1, r3, [sp, #360]
 1782 01b6 CDE95C33 		strd	r3, r3, [sp, #368]
 407:../../Middlewares/AI_Runtime/Npu/ll_aton/ll_sw_float.c ****                                 sw_info->max)
 1783              		.loc 1 407 5 view .LVU481
 1784 01ba 4993     		str	r3, [sp, #292]
 409:../../Middlewares/AI_Runtime/Npu/ll_aton/ll_sw_float.c ****                          .nl_params = AI_ARRAY_OBJ(&clip_layer_params))
 1785              		.loc 1 409 5 is_stmt 1 view .LVU482
 1786 01bc 5E93     		str	r3, [sp, #376]
 1787 01be 304B     		ldr	r3, .L70+12
 411:../../Middlewares/AI_Runtime/Npu/ll_aton/ll_sw_float.c ****   }
 1788              		.loc 1 411 5 is_stmt 0 view .LVU483
 1789 01c0 5AA8     		add	r0, sp, #360
 1790              	.LVL43:
 409:../../Middlewares/AI_Runtime/Npu/ll_aton/ll_sw_float.c ****                          .nl_params = AI_ARRAY_OBJ(&clip_layer_params))
 1791              		.loc 1 409 5 view .LVU484
 1792 01c2 CDE95F32 		strd	r3, r2, [sp, #380]
 1793 01c6 46AB     		add	r3, sp, #280
 1794 01c8 6193     		str	r3, [sp, #388]
 411:../../Middlewares/AI_Runtime/Npu/ll_aton/ll_sw_float.c ****   }
 1795              		.loc 1 411 5 is_stmt 1 view .LVU485
 1796 01ca FFF7FEFF 		bl	forward_clip
 1797              	.LVL44:
 1798              	.LBE15:
 413:../../Middlewares/AI_Runtime/Npu/ll_aton/ll_sw_float.c ****   case LL_SW_PRELU:
 1799              		.loc 1 413 3 view .LVU486
 1800 01ce E1E7     		b	.L31
 1801              	.LVL45:
 1802              	.L67:
 1803              	.LBB16:
 416:../../Middlewares/AI_Runtime/Npu/ll_aton/ll_sw_float.c ****                          sw_info->operand.mem.start_offset, sw_info->operand.dim.num_elem, )
 1804              		.loc 1 416 5 view .LVU487
 1805 01d0 C36E     		ldr	r3, [r0, #108]
 1806 01d2 2591     		str	r1, [sp, #148]
 1807 01d4 2693     		str	r3, [sp, #152]
 1808 01d6 D0F88030 		ldr	r3, [r0, #128]
 419:../../Middlewares/AI_Runtime/Npu/ll_aton/ll_sw_float.c ****                           SHAPE_INIT(sw_info->operand.dim.tensor_h, sw_info->operand.dim.tensor_w,
 1809              		.loc 1 419 5 is_stmt 0 view .LVU488
 1810 01da 4FF08271 		mov	r1, #17039360
 416:../../Middlewares/AI_Runtime/Npu/ll_aton/ll_sw_float.c ****                          sw_info->operand.mem.start_offset, sw_info->operand.dim.num_elem, )
 1811              		.loc 1 416 5 view .LVU489
 1812 01de CDE92733 		strd	r3, r3, [sp, #156]
 419:../../Middlewares/AI_Runtime/Npu/ll_aton/ll_sw_float.c ****                           SHAPE_INIT(sw_info->operand.dim.tensor_h, sw_info->operand.dim.tensor_w,
ARM GAS  C:\Users\Antonio\AppData\Local\Temp\cc6EBOZH.s 			page 49


 1813              		.loc 1 419 5 is_stmt 1 view .LVU490
 1814 01e2 0023     		movs	r3, #0
 1815 01e4 CDE93F31 		strd	r3, r1, [sp, #252]
 1816 01e8 40F20141 		movw	r1, #1025
 1817 01ec 4191     		str	r1, [sp, #260]
 1818 01ee 816E     		ldr	r1, [r0, #104]
 416:../../Middlewares/AI_Runtime/Npu/ll_aton/ll_sw_float.c ****                          sw_info->operand.mem.start_offset, sw_info->operand.dim.num_elem, )
 1819              		.loc 1 416 5 is_stmt 0 view .LVU491
 1820 01f0 25AA     		add	r2, sp, #148
 419:../../Middlewares/AI_Runtime/Npu/ll_aton/ll_sw_float.c ****                           SHAPE_INIT(sw_info->operand.dim.tensor_h, sw_info->operand.dim.tensor_w,
 1821              		.loc 1 419 5 view .LVU492
 1822 01f2 2991     		str	r1, [sp, #164]
 1823 01f4 416E     		ldr	r1, [r0, #100]
 427:../../Middlewares/AI_Runtime/Npu/ll_aton/ll_sw_float.c ****         prelu_activ_chain, , 4, AI_TENSOR_LIST_OBJ_INIT(AI_FLAG_NONE, 1, TENSORS(&input_output)),
 1824              		.loc 1 427 5 view .LVU493
 1825 01f6 0595     		str	r5, [sp, #20]
 419:../../Middlewares/AI_Runtime/Npu/ll_aton/ll_sw_float.c ****                           SHAPE_INIT(sw_info->operand.dim.tensor_h, sw_info->operand.dim.tensor_w,
 1826              		.loc 1 419 5 view .LVU494
 1827 01f8 2A91     		str	r1, [sp, #168]
 1828 01fa 016E     		ldr	r1, [r0, #96]
 1829 01fc 2B91     		str	r1, [sp, #172]
 1830 01fe C16D     		ldr	r1, [r0, #92]
 1831 0200 2C91     		str	r1, [sp, #176]
 1832 0202 29A9     		add	r1, sp, #164
 1833 0204 4291     		str	r1, [sp, #264]
 1834 0206 40F20241 		movw	r1, #1026
 1835 020a 4391     		str	r1, [sp, #268]
 1836 020c C16F     		ldr	r1, [r0, #124]
 1837 020e 2D91     		str	r1, [sp, #180]
 1838 0210 816F     		ldr	r1, [r0, #120]
 1839 0212 2E91     		str	r1, [sp, #184]
 1840 0214 416F     		ldr	r1, [r0, #116]
 1841 0216 2F91     		str	r1, [sp, #188]
 1842 0218 016F     		ldr	r1, [r0, #112]
 427:../../Middlewares/AI_Runtime/Npu/ll_aton/ll_sw_float.c ****         prelu_activ_chain, , 4, AI_TENSOR_LIST_OBJ_INIT(AI_FLAG_NONE, 1, TENSORS(&input_output)),
 1843              		.loc 1 427 5 view .LVU495
 1844 021a 05A8     		add	r0, sp, #20
 1845              	.LVL46:
 419:../../Middlewares/AI_Runtime/Npu/ll_aton/ll_sw_float.c ****                           SHAPE_INIT(sw_info->operand.dim.tensor_h, sw_info->operand.dim.tensor_w,
 1846              		.loc 1 419 5 view .LVU496
 1847 021c 3091     		str	r1, [sp, #192]
 1848 021e 2DA9     		add	r1, sp, #180
 1849 0220 CDE94412 		strd	r1, r2, [sp, #272]
 427:../../Middlewares/AI_Runtime/Npu/ll_aton/ll_sw_float.c ****         prelu_activ_chain, , 4, AI_TENSOR_LIST_OBJ_INIT(AI_FLAG_NONE, 1, TENSORS(&input_output)),
 1850              		.loc 1 427 5 is_stmt 1 view .LVU497
 1851 0224 0421     		movs	r1, #4
 1852 0226 0B91     		str	r1, [sp, #44]
 1853 0228 0121     		movs	r1, #1
 1854 022a 5A91     		str	r1, [sp, #360]
 1855 022c CDE95B03 		strd	r0, r3, [sp, #364]
 1856 0230 5D91     		str	r1, [sp, #372]
 1857 0232 6091     		str	r1, [sp, #384]
 1858 0234 07A9     		add	r1, sp, #28
 1859 0236 CDE96113 		strd	r1, r3, [sp, #388]
 1860 023a 08A9     		add	r1, sp, #32
 1861 023c CDE96413 		strd	r1, r3, [sp, #400]
 1862 0240 5AA9     		add	r1, sp, #360
ARM GAS  C:\Users\Antonio\AppData\Local\Temp\cc6EBOZH.s 			page 50


 1863 0242 0C91     		str	r1, [sp, #48]
 432:../../Middlewares/AI_Runtime/Npu/ll_aton/ll_sw_float.c ****                          .nl_params = NULL, )
 1864              		.loc 1 432 5 view .LVU498
 1865 0244 0C49     		ldr	r1, .L70+4
 427:../../Middlewares/AI_Runtime/Npu/ll_aton/ll_sw_float.c ****         prelu_activ_chain, , 4, AI_TENSOR_LIST_OBJ_INIT(AI_FLAG_NONE, 1, TENSORS(&input_output)),
 1866              		.loc 1 427 5 is_stmt 0 view .LVU499
 1867 0246 06A8     		add	r0, sp, #24
 1868 0248 CDE95E03 		strd	r0, r3, [sp, #376]
 432:../../Middlewares/AI_Runtime/Npu/ll_aton/ll_sw_float.c ****                          .nl_params = NULL, )
 1869              		.loc 1 432 5 view .LVU500
 1870 024c CDE94613 		strd	r1, r3, [sp, #280]
 427:../../Middlewares/AI_Runtime/Npu/ll_aton/ll_sw_float.c ****         prelu_activ_chain, , 4, AI_TENSOR_LIST_OBJ_INIT(AI_FLAG_NONE, 1, TENSORS(&input_output)),
 1871              		.loc 1 427 5 view .LVU501
 1872 0250 3FA8     		add	r0, sp, #252
 432:../../Middlewares/AI_Runtime/Npu/ll_aton/ll_sw_float.c ****                          .nl_params = NULL, )
 1873              		.loc 1 432 5 view .LVU502
 1874 0252 0C49     		ldr	r1, .L70+16
 427:../../Middlewares/AI_Runtime/Npu/ll_aton/ll_sw_float.c ****         prelu_activ_chain, , 4, AI_TENSOR_LIST_OBJ_INIT(AI_FLAG_NONE, 1, TENSORS(&input_output)),
 1875              		.loc 1 427 5 view .LVU503
 1876 0254 0BAA     		add	r2, sp, #44
 1877 0256 0790     		str	r0, [sp, #28]
 434:../../Middlewares/AI_Runtime/Npu/ll_aton/ll_sw_float.c ****   }
 1878              		.loc 1 434 5 view .LVU504
 1879 0258 46A8     		add	r0, sp, #280
 432:../../Middlewares/AI_Runtime/Npu/ll_aton/ll_sw_float.c ****                          .nl_params = NULL, )
 1880              		.loc 1 432 5 view .LVU505
 1881 025a CDE94833 		strd	r3, r3, [sp, #288]
 1882 025e CDE94B12 		strd	r1, r2, [sp, #300]
 427:../../Middlewares/AI_Runtime/Npu/ll_aton/ll_sw_float.c ****         prelu_activ_chain, , 4, AI_TENSOR_LIST_OBJ_INIT(AI_FLAG_NONE, 1, TENSORS(&input_output)),
 1883              		.loc 1 427 5 view .LVU506
 1884 0262 0694     		str	r4, [sp, #24]
 1885 0264 6393     		str	r3, [sp, #396]
 1886 0266 0893     		str	r3, [sp, #32]
 432:../../Middlewares/AI_Runtime/Npu/ll_aton/ll_sw_float.c ****                          .nl_params = NULL, )
 1887              		.loc 1 432 5 view .LVU507
 1888 0268 4A93     		str	r3, [sp, #296]
 1889 026a 4D93     		str	r3, [sp, #308]
 434:../../Middlewares/AI_Runtime/Npu/ll_aton/ll_sw_float.c ****   }
 1890              		.loc 1 434 5 is_stmt 1 view .LVU508
 1891 026c FFF7FEFF 		bl	forward_prelu
 1892              	.LVL47:
 1893              	.LBE16:
 436:../../Middlewares/AI_Runtime/Npu/ll_aton/ll_sw_float.c ****   case LL_SW_ELU:
 1894              		.loc 1 436 3 view .LVU509
 1895 0270 90E7     		b	.L31
 1896              	.L71:
 1897 0272 00BF     		.align	2
 1898              	.L70:
 1899 0274 40108200 		.word	8523840
 1900 0278 07010200 		.word	131335
 1901 027c 00000000 		.word	forward_relu
 1902 0280 00000000 		.word	forward_clip
 1903 0284 00000000 		.word	forward_prelu
 1904              	.LVL48:
 1905              	.L65:
 1906              	.LBB17:
 440:../../Middlewares/AI_Runtime/Npu/ll_aton/ll_sw_float.c **** 
ARM GAS  C:\Users\Antonio\AppData\Local\Temp\cc6EBOZH.s 			page 51


 1907              		.loc 1 440 5 view .LVU510
 1908 0288 D0F88830 		ldr	r3, [r0, #136]	@ float
 1909 028c CDE94616 		strd	r1, r6, [sp, #280]
 1910 0290 3F93     		str	r3, [sp, #252]	@ float
 1911 0292 3FAB     		add	r3, sp, #252
 1912 0294 4893     		str	r3, [sp, #288]
 1913 0296 0023     		movs	r3, #0
 442:../../Middlewares/AI_Runtime/Npu/ll_aton/ll_sw_float.c ****                          .nl_params = AI_ARRAY_OBJ(&elu_layer_params), )
 1914              		.loc 1 442 5 is_stmt 0 view .LVU511
 1915 0298 AD49     		ldr	r1, .L72
 1916 029a CDE95C33 		strd	r3, r3, [sp, #368]
 1917 029e CDE95A13 		strd	r1, r3, [sp, #360]
 440:../../Middlewares/AI_Runtime/Npu/ll_aton/ll_sw_float.c **** 
 1918              		.loc 1 440 5 view .LVU512
 1919 02a2 4993     		str	r3, [sp, #292]
 442:../../Middlewares/AI_Runtime/Npu/ll_aton/ll_sw_float.c ****                          .nl_params = AI_ARRAY_OBJ(&elu_layer_params), )
 1920              		.loc 1 442 5 is_stmt 1 view .LVU513
 1921 02a4 5E93     		str	r3, [sp, #376]
 1922 02a6 AB4B     		ldr	r3, .L72+4
 444:../../Middlewares/AI_Runtime/Npu/ll_aton/ll_sw_float.c ****   }
 1923              		.loc 1 444 5 is_stmt 0 view .LVU514
 1924 02a8 5AA8     		add	r0, sp, #360
 1925              	.LVL49:
 442:../../Middlewares/AI_Runtime/Npu/ll_aton/ll_sw_float.c ****                          .nl_params = AI_ARRAY_OBJ(&elu_layer_params), )
 1926              		.loc 1 442 5 view .LVU515
 1927 02aa CDE95F32 		strd	r3, r2, [sp, #380]
 1928 02ae 46AB     		add	r3, sp, #280
 1929 02b0 6193     		str	r3, [sp, #388]
 444:../../Middlewares/AI_Runtime/Npu/ll_aton/ll_sw_float.c ****   }
 1930              		.loc 1 444 5 is_stmt 1 view .LVU516
 1931 02b2 FFF7FEFF 		bl	forward_elu
 1932              	.LVL50:
 1933              	.LBE17:
 446:../../Middlewares/AI_Runtime/Npu/ll_aton/ll_sw_float.c ****   case LL_SW_THRESHOLDEDRELU:
 1934              		.loc 1 446 3 view .LVU517
 1935 02b6 6DE7     		b	.L31
 1936              	.LVL51:
 1937              	.L66:
 1938              	.LBB18:
 450:../../Middlewares/AI_Runtime/Npu/ll_aton/ll_sw_float.c **** 
 1939              		.loc 1 450 5 view .LVU518
 1940 02b8 D0F88830 		ldr	r3, [r0, #136]	@ float
 1941 02bc CDE94616 		strd	r1, r6, [sp, #280]
 1942 02c0 3F93     		str	r3, [sp, #252]	@ float
 1943 02c2 3FAB     		add	r3, sp, #252
 1944 02c4 4893     		str	r3, [sp, #288]
 1945 02c6 0023     		movs	r3, #0
 452:../../Middlewares/AI_Runtime/Npu/ll_aton/ll_sw_float.c ****                          NULL, , .nl_params = AI_ARRAY_OBJ(&thresholdedrelu_layer_params), )
 1946              		.loc 1 452 5 is_stmt 0 view .LVU519
 1947 02c8 A149     		ldr	r1, .L72
 1948 02ca CDE95C33 		strd	r3, r3, [sp, #368]
 1949 02ce CDE95A13 		strd	r1, r3, [sp, #360]
 450:../../Middlewares/AI_Runtime/Npu/ll_aton/ll_sw_float.c **** 
 1950              		.loc 1 450 5 view .LVU520
 1951 02d2 4993     		str	r3, [sp, #292]
 452:../../Middlewares/AI_Runtime/Npu/ll_aton/ll_sw_float.c ****                          NULL, , .nl_params = AI_ARRAY_OBJ(&thresholdedrelu_layer_params), )
 1952              		.loc 1 452 5 is_stmt 1 view .LVU521
ARM GAS  C:\Users\Antonio\AppData\Local\Temp\cc6EBOZH.s 			page 52


 1953 02d4 5E93     		str	r3, [sp, #376]
 1954 02d6 A04B     		ldr	r3, .L72+8
 454:../../Middlewares/AI_Runtime/Npu/ll_aton/ll_sw_float.c ****   }
 1955              		.loc 1 454 5 is_stmt 0 view .LVU522
 1956 02d8 5AA8     		add	r0, sp, #360
 1957              	.LVL52:
 452:../../Middlewares/AI_Runtime/Npu/ll_aton/ll_sw_float.c ****                          NULL, , .nl_params = AI_ARRAY_OBJ(&thresholdedrelu_layer_params), )
 1958              		.loc 1 452 5 view .LVU523
 1959 02da CDE95F32 		strd	r3, r2, [sp, #380]
 1960 02de 46AB     		add	r3, sp, #280
 1961 02e0 6193     		str	r3, [sp, #388]
 454:../../Middlewares/AI_Runtime/Npu/ll_aton/ll_sw_float.c ****   }
 1962              		.loc 1 454 5 is_stmt 1 view .LVU524
 1963 02e2 FFF7FEFF 		bl	forward_relu_thresholded
 1964              	.LVL53:
 1965              	.LBE18:
 456:../../Middlewares/AI_Runtime/Npu/ll_aton/ll_sw_float.c ****   case LL_SW_SELU:
 1966              		.loc 1 456 3 view .LVU525
 1967 02e6 55E7     		b	.L31
 1968              	.LVL54:
 1969              	.L64:
 1970              	.LBB19:
 460:../../Middlewares/AI_Runtime/Npu/ll_aton/ll_sw_float.c **** 
 1971              		.loc 1 460 5 view .LVU526
 1972 02e8 0223     		movs	r3, #2
 1973 02ea 4793     		str	r3, [sp, #284]
 1974 02ec D0F88830 		ldr	r3, [r0, #136]	@ float
 1975 02f0 4691     		str	r1, [sp, #280]
 1976 02f2 3F93     		str	r3, [sp, #252]	@ float
 1977 02f4 D0F89030 		ldr	r3, [r0, #144]	@ float
 462:../../Middlewares/AI_Runtime/Npu/ll_aton/ll_sw_float.c ****                          .nl_params = AI_ARRAY_OBJ(&selu_layer_params), )
 1978              		.loc 1 462 5 is_stmt 0 view .LVU527
 1979 02f8 9549     		ldr	r1, .L72
 460:../../Middlewares/AI_Runtime/Npu/ll_aton/ll_sw_float.c **** 
 1980              		.loc 1 460 5 view .LVU528
 1981 02fa 4093     		str	r3, [sp, #256]	@ float
 1982 02fc 3FAB     		add	r3, sp, #252
 1983 02fe 4893     		str	r3, [sp, #288]
 1984 0300 0023     		movs	r3, #0
 462:../../Middlewares/AI_Runtime/Npu/ll_aton/ll_sw_float.c ****                          .nl_params = AI_ARRAY_OBJ(&selu_layer_params), )
 1985              		.loc 1 462 5 view .LVU529
 1986 0302 CDE95A13 		strd	r1, r3, [sp, #360]
 1987 0306 CDE95C33 		strd	r3, r3, [sp, #368]
 460:../../Middlewares/AI_Runtime/Npu/ll_aton/ll_sw_float.c **** 
 1988              		.loc 1 460 5 view .LVU530
 1989 030a 4993     		str	r3, [sp, #292]
 462:../../Middlewares/AI_Runtime/Npu/ll_aton/ll_sw_float.c ****                          .nl_params = AI_ARRAY_OBJ(&selu_layer_params), )
 1990              		.loc 1 462 5 is_stmt 1 view .LVU531
 1991 030c 5E93     		str	r3, [sp, #376]
 1992 030e 934B     		ldr	r3, .L72+12
 464:../../Middlewares/AI_Runtime/Npu/ll_aton/ll_sw_float.c ****   }
 1993              		.loc 1 464 5 is_stmt 0 view .LVU532
 1994 0310 5AA8     		add	r0, sp, #360
 1995              	.LVL55:
 462:../../Middlewares/AI_Runtime/Npu/ll_aton/ll_sw_float.c ****                          .nl_params = AI_ARRAY_OBJ(&selu_layer_params), )
 1996              		.loc 1 462 5 view .LVU533
 1997 0312 CDE95F32 		strd	r3, r2, [sp, #380]
ARM GAS  C:\Users\Antonio\AppData\Local\Temp\cc6EBOZH.s 			page 53


 1998 0316 46AB     		add	r3, sp, #280
 1999 0318 6193     		str	r3, [sp, #388]
 464:../../Middlewares/AI_Runtime/Npu/ll_aton/ll_sw_float.c ****   }
 2000              		.loc 1 464 5 is_stmt 1 view .LVU534
 2001 031a FFF7FEFF 		bl	forward_selu
 2002              	.LVL56:
 2003              	.LBE19:
 466:../../Middlewares/AI_Runtime/Npu/ll_aton/ll_sw_float.c ****   case LL_SW_CEIL:
 2004              		.loc 1 466 3 view .LVU535
 2005 031e 39E7     		b	.L31
 2006              	.LVL57:
 2007              	.L49:
 2008              	.LBB20:
 469:../../Middlewares/AI_Runtime/Npu/ll_aton/ll_sw_float.c ****                          .nl_params = NULL, )
 2009              		.loc 1 469 5 view .LVU536
 2010 0320 8B49     		ldr	r1, .L72
 471:../../Middlewares/AI_Runtime/Npu/ll_aton/ll_sw_float.c ****   }
 2011              		.loc 1 471 5 is_stmt 0 view .LVU537
 2012 0322 5AA8     		add	r0, sp, #360
 2013              	.LVL58:
 469:../../Middlewares/AI_Runtime/Npu/ll_aton/ll_sw_float.c ****                          .nl_params = NULL, )
 2014              		.loc 1 469 5 view .LVU538
 2015 0324 CDE95A13 		strd	r1, r3, [sp, #360]
 2016 0328 8D49     		ldr	r1, .L72+16
 2017 032a CDE95C33 		strd	r3, r3, [sp, #368]
 2018 032e CDE95F12 		strd	r1, r2, [sp, #380]
 2019 0332 5E93     		str	r3, [sp, #376]
 2020 0334 6193     		str	r3, [sp, #388]
 471:../../Middlewares/AI_Runtime/Npu/ll_aton/ll_sw_float.c ****   }
 2021              		.loc 1 471 5 is_stmt 1 view .LVU539
 2022 0336 FFF7FEFF 		bl	forward_ceil
 2023              	.LVL59:
 2024              	.LBE20:
 473:../../Middlewares/AI_Runtime/Npu/ll_aton/ll_sw_float.c ****   case LL_SW_FLOOR:
 2025              		.loc 1 473 3 view .LVU540
 2026 033a 2BE7     		b	.L31
 2027              	.LVL60:
 2028              	.L48:
 2029              	.LBB21:
 476:../../Middlewares/AI_Runtime/Npu/ll_aton/ll_sw_float.c ****                          .nl_params = NULL, )
 2030              		.loc 1 476 5 view .LVU541
 2031 033c 8449     		ldr	r1, .L72
 478:../../Middlewares/AI_Runtime/Npu/ll_aton/ll_sw_float.c ****   }
 2032              		.loc 1 478 5 is_stmt 0 view .LVU542
 2033 033e 5AA8     		add	r0, sp, #360
 2034              	.LVL61:
 476:../../Middlewares/AI_Runtime/Npu/ll_aton/ll_sw_float.c ****                          .nl_params = NULL, )
 2035              		.loc 1 476 5 view .LVU543
 2036 0340 CDE95A13 		strd	r1, r3, [sp, #360]
 2037 0344 8749     		ldr	r1, .L72+20
 2038 0346 CDE95C33 		strd	r3, r3, [sp, #368]
 2039 034a CDE95F12 		strd	r1, r2, [sp, #380]
 2040 034e 5E93     		str	r3, [sp, #376]
 2041 0350 6193     		str	r3, [sp, #388]
 478:../../Middlewares/AI_Runtime/Npu/ll_aton/ll_sw_float.c ****   }
 2042              		.loc 1 478 5 is_stmt 1 view .LVU544
 2043 0352 FFF7FEFF 		bl	forward_floor
ARM GAS  C:\Users\Antonio\AppData\Local\Temp\cc6EBOZH.s 			page 54


 2044              	.LVL62:
 2045              	.LBE21:
 480:../../Middlewares/AI_Runtime/Npu/ll_aton/ll_sw_float.c ****   case LL_SW_EXP:
 2046              		.loc 1 480 3 view .LVU545
 2047 0356 1DE7     		b	.L31
 2048              	.LVL63:
 2049              	.L47:
 2050              	.LBB22:
 483:../../Middlewares/AI_Runtime/Npu/ll_aton/ll_sw_float.c ****                          .nl_params = NULL, )
 2051              		.loc 1 483 5 view .LVU546
 2052 0358 7D49     		ldr	r1, .L72
 485:../../Middlewares/AI_Runtime/Npu/ll_aton/ll_sw_float.c ****   }
 2053              		.loc 1 485 5 is_stmt 0 view .LVU547
 2054 035a 5AA8     		add	r0, sp, #360
 2055              	.LVL64:
 483:../../Middlewares/AI_Runtime/Npu/ll_aton/ll_sw_float.c ****                          .nl_params = NULL, )
 2056              		.loc 1 483 5 view .LVU548
 2057 035c CDE95A13 		strd	r1, r3, [sp, #360]
 2058 0360 8149     		ldr	r1, .L72+24
 2059 0362 CDE95C33 		strd	r3, r3, [sp, #368]
 2060 0366 CDE95F12 		strd	r1, r2, [sp, #380]
 2061 036a 5E93     		str	r3, [sp, #376]
 2062 036c 6193     		str	r3, [sp, #388]
 485:../../Middlewares/AI_Runtime/Npu/ll_aton/ll_sw_float.c ****   }
 2063              		.loc 1 485 5 is_stmt 1 view .LVU549
 2064 036e FFF7FEFF 		bl	forward_exp
 2065              	.LVL65:
 2066              	.LBE22:
 487:../../Middlewares/AI_Runtime/Npu/ll_aton/ll_sw_float.c ****   case LL_SW_LOG:
 2067              		.loc 1 487 3 view .LVU550
 2068 0372 0FE7     		b	.L31
 2069              	.LVL66:
 2070              	.L46:
 2071              	.LBB23:
 490:../../Middlewares/AI_Runtime/Npu/ll_aton/ll_sw_float.c ****                          .nl_params = NULL, )
 2072              		.loc 1 490 5 view .LVU551
 2073 0374 7649     		ldr	r1, .L72
 492:../../Middlewares/AI_Runtime/Npu/ll_aton/ll_sw_float.c ****   }
 2074              		.loc 1 492 5 is_stmt 0 view .LVU552
 2075 0376 5AA8     		add	r0, sp, #360
 2076              	.LVL67:
 490:../../Middlewares/AI_Runtime/Npu/ll_aton/ll_sw_float.c ****                          .nl_params = NULL, )
 2077              		.loc 1 490 5 view .LVU553
 2078 0378 CDE95A13 		strd	r1, r3, [sp, #360]
 2079 037c 7B49     		ldr	r1, .L72+28
 2080 037e CDE95C33 		strd	r3, r3, [sp, #368]
 2081 0382 CDE95F12 		strd	r1, r2, [sp, #380]
 2082 0386 5E93     		str	r3, [sp, #376]
 2083 0388 6193     		str	r3, [sp, #388]
 492:../../Middlewares/AI_Runtime/Npu/ll_aton/ll_sw_float.c ****   }
 2084              		.loc 1 492 5 is_stmt 1 view .LVU554
 2085 038a FFF7FEFF 		bl	forward_log
 2086              	.LVL68:
 2087              	.LBE23:
 494:../../Middlewares/AI_Runtime/Npu/ll_aton/ll_sw_float.c ****   case LL_SW_ACOS:
 2088              		.loc 1 494 3 view .LVU555
 2089 038e 01E7     		b	.L31
ARM GAS  C:\Users\Antonio\AppData\Local\Temp\cc6EBOZH.s 			page 55


 2090              	.LVL69:
 2091              	.L60:
 2092              	.LBB24:
 497:../../Middlewares/AI_Runtime/Npu/ll_aton/ll_sw_float.c ****                          .nl_params = NULL, )
 2093              		.loc 1 497 5 view .LVU556
 2094 0390 6F49     		ldr	r1, .L72
 499:../../Middlewares/AI_Runtime/Npu/ll_aton/ll_sw_float.c ****   }
 2095              		.loc 1 499 5 is_stmt 0 view .LVU557
 2096 0392 5AA8     		add	r0, sp, #360
 2097              	.LVL70:
 497:../../Middlewares/AI_Runtime/Npu/ll_aton/ll_sw_float.c ****                          .nl_params = NULL, )
 2098              		.loc 1 497 5 view .LVU558
 2099 0394 CDE95A13 		strd	r1, r3, [sp, #360]
 2100 0398 7549     		ldr	r1, .L72+32
 2101 039a CDE95C33 		strd	r3, r3, [sp, #368]
 2102 039e CDE95F12 		strd	r1, r2, [sp, #380]
 2103 03a2 5E93     		str	r3, [sp, #376]
 2104 03a4 6193     		str	r3, [sp, #388]
 499:../../Middlewares/AI_Runtime/Npu/ll_aton/ll_sw_float.c ****   }
 2105              		.loc 1 499 5 is_stmt 1 view .LVU559
 2106 03a6 FFF7FEFF 		bl	forward_acos
 2107              	.LVL71:
 2108              	.LBE24:
 501:../../Middlewares/AI_Runtime/Npu/ll_aton/ll_sw_float.c ****   case LL_SW_ACOSH:
 2109              		.loc 1 501 3 view .LVU560
 2110 03aa F3E6     		b	.L31
 2111              	.LVL72:
 2112              	.L59:
 2113              	.LBB25:
 504:../../Middlewares/AI_Runtime/Npu/ll_aton/ll_sw_float.c ****                          .nl_params = NULL, )
 2114              		.loc 1 504 5 view .LVU561
 2115 03ac 6849     		ldr	r1, .L72
 506:../../Middlewares/AI_Runtime/Npu/ll_aton/ll_sw_float.c ****   }
 2116              		.loc 1 506 5 is_stmt 0 view .LVU562
 2117 03ae 5AA8     		add	r0, sp, #360
 2118              	.LVL73:
 504:../../Middlewares/AI_Runtime/Npu/ll_aton/ll_sw_float.c ****                          .nl_params = NULL, )
 2119              		.loc 1 504 5 view .LVU563
 2120 03b0 CDE95A13 		strd	r1, r3, [sp, #360]
 2121 03b4 6F49     		ldr	r1, .L72+36
 2122 03b6 CDE95C33 		strd	r3, r3, [sp, #368]
 2123 03ba CDE95F12 		strd	r1, r2, [sp, #380]
 2124 03be 5E93     		str	r3, [sp, #376]
 2125 03c0 6193     		str	r3, [sp, #388]
 506:../../Middlewares/AI_Runtime/Npu/ll_aton/ll_sw_float.c ****   }
 2126              		.loc 1 506 5 is_stmt 1 view .LVU564
 2127 03c2 FFF7FEFF 		bl	forward_acosh
 2128              	.LVL74:
 2129              	.LBE25:
 508:../../Middlewares/AI_Runtime/Npu/ll_aton/ll_sw_float.c ****   case LL_SW_ASIN:
 2130              		.loc 1 508 3 view .LVU565
 2131 03c6 E5E6     		b	.L31
 2132              	.LVL75:
 2133              	.L58:
 2134              	.LBB26:
 511:../../Middlewares/AI_Runtime/Npu/ll_aton/ll_sw_float.c ****                          .nl_params = NULL, )
 2135              		.loc 1 511 5 view .LVU566
ARM GAS  C:\Users\Antonio\AppData\Local\Temp\cc6EBOZH.s 			page 56


 2136 03c8 6149     		ldr	r1, .L72
 513:../../Middlewares/AI_Runtime/Npu/ll_aton/ll_sw_float.c ****   }
 2137              		.loc 1 513 5 is_stmt 0 view .LVU567
 2138 03ca 5AA8     		add	r0, sp, #360
 2139              	.LVL76:
 511:../../Middlewares/AI_Runtime/Npu/ll_aton/ll_sw_float.c ****                          .nl_params = NULL, )
 2140              		.loc 1 511 5 view .LVU568
 2141 03cc CDE95A13 		strd	r1, r3, [sp, #360]
 2142 03d0 6949     		ldr	r1, .L72+40
 2143 03d2 CDE95C33 		strd	r3, r3, [sp, #368]
 2144 03d6 CDE95F12 		strd	r1, r2, [sp, #380]
 2145 03da 5E93     		str	r3, [sp, #376]
 2146 03dc 6193     		str	r3, [sp, #388]
 513:../../Middlewares/AI_Runtime/Npu/ll_aton/ll_sw_float.c ****   }
 2147              		.loc 1 513 5 is_stmt 1 view .LVU569
 2148 03de FFF7FEFF 		bl	forward_asin
 2149              	.LVL77:
 2150              	.LBE26:
 515:../../Middlewares/AI_Runtime/Npu/ll_aton/ll_sw_float.c ****   case LL_SW_ASINH:
 2151              		.loc 1 515 3 view .LVU570
 2152 03e2 D7E6     		b	.L31
 2153              	.LVL78:
 2154              	.L57:
 2155              	.LBB27:
 518:../../Middlewares/AI_Runtime/Npu/ll_aton/ll_sw_float.c ****                          .nl_params = NULL, )
 2156              		.loc 1 518 5 view .LVU571
 2157 03e4 5A49     		ldr	r1, .L72
 520:../../Middlewares/AI_Runtime/Npu/ll_aton/ll_sw_float.c ****   }
 2158              		.loc 1 520 5 is_stmt 0 view .LVU572
 2159 03e6 5AA8     		add	r0, sp, #360
 2160              	.LVL79:
 518:../../Middlewares/AI_Runtime/Npu/ll_aton/ll_sw_float.c ****                          .nl_params = NULL, )
 2161              		.loc 1 518 5 view .LVU573
 2162 03e8 CDE95A13 		strd	r1, r3, [sp, #360]
 2163 03ec 6349     		ldr	r1, .L72+44
 2164 03ee CDE95C33 		strd	r3, r3, [sp, #368]
 2165 03f2 CDE95F12 		strd	r1, r2, [sp, #380]
 2166 03f6 5E93     		str	r3, [sp, #376]
 2167 03f8 6193     		str	r3, [sp, #388]
 520:../../Middlewares/AI_Runtime/Npu/ll_aton/ll_sw_float.c ****   }
 2168              		.loc 1 520 5 is_stmt 1 view .LVU574
 2169 03fa FFF7FEFF 		bl	forward_asinh
 2170              	.LVL80:
 2171              	.LBE27:
 522:../../Middlewares/AI_Runtime/Npu/ll_aton/ll_sw_float.c ****   case LL_SW_ATAN:
 2172              		.loc 1 522 3 view .LVU575
 2173 03fe C9E6     		b	.L31
 2174              	.LVL81:
 2175              	.L62:
 2176              	.LBB28:
 525:../../Middlewares/AI_Runtime/Npu/ll_aton/ll_sw_float.c ****                          .nl_params = NULL, )
 2177              		.loc 1 525 5 view .LVU576
 2178 0400 5349     		ldr	r1, .L72
 527:../../Middlewares/AI_Runtime/Npu/ll_aton/ll_sw_float.c ****   }
 2179              		.loc 1 527 5 is_stmt 0 view .LVU577
 2180 0402 5AA8     		add	r0, sp, #360
 2181              	.LVL82:
ARM GAS  C:\Users\Antonio\AppData\Local\Temp\cc6EBOZH.s 			page 57


 525:../../Middlewares/AI_Runtime/Npu/ll_aton/ll_sw_float.c ****                          .nl_params = NULL, )
 2182              		.loc 1 525 5 view .LVU578
 2183 0404 CDE95A13 		strd	r1, r3, [sp, #360]
 2184 0408 5D49     		ldr	r1, .L72+48
 2185 040a CDE95C33 		strd	r3, r3, [sp, #368]
 2186 040e CDE95F12 		strd	r1, r2, [sp, #380]
 2187 0412 5E93     		str	r3, [sp, #376]
 2188 0414 6193     		str	r3, [sp, #388]
 527:../../Middlewares/AI_Runtime/Npu/ll_aton/ll_sw_float.c ****   }
 2189              		.loc 1 527 5 is_stmt 1 view .LVU579
 2190 0416 FFF7FEFF 		bl	forward_atan
 2191              	.LVL83:
 2192              	.LBE28:
 529:../../Middlewares/AI_Runtime/Npu/ll_aton/ll_sw_float.c ****   case LL_SW_ATANH:
 2193              		.loc 1 529 3 view .LVU580
 2194 041a BBE6     		b	.L31
 2195              	.LVL84:
 2196              	.L61:
 2197              	.LBB29:
 532:../../Middlewares/AI_Runtime/Npu/ll_aton/ll_sw_float.c ****                          .nl_params = NULL, )
 2198              		.loc 1 532 5 view .LVU581
 2199 041c 4C49     		ldr	r1, .L72
 534:../../Middlewares/AI_Runtime/Npu/ll_aton/ll_sw_float.c ****   }
 2200              		.loc 1 534 5 is_stmt 0 view .LVU582
 2201 041e 5AA8     		add	r0, sp, #360
 2202              	.LVL85:
 532:../../Middlewares/AI_Runtime/Npu/ll_aton/ll_sw_float.c ****                          .nl_params = NULL, )
 2203              		.loc 1 532 5 view .LVU583
 2204 0420 CDE95A13 		strd	r1, r3, [sp, #360]
 2205 0424 5749     		ldr	r1, .L72+52
 2206 0426 CDE95C33 		strd	r3, r3, [sp, #368]
 2207 042a CDE95F12 		strd	r1, r2, [sp, #380]
 2208 042e 5E93     		str	r3, [sp, #376]
 2209 0430 6193     		str	r3, [sp, #388]
 534:../../Middlewares/AI_Runtime/Npu/ll_aton/ll_sw_float.c ****   }
 2210              		.loc 1 534 5 is_stmt 1 view .LVU584
 2211 0432 FFF7FEFF 		bl	forward_atanh
 2212              	.LVL86:
 2213              	.LBE29:
 536:../../Middlewares/AI_Runtime/Npu/ll_aton/ll_sw_float.c ****   case LL_SW_COS:
 2214              		.loc 1 536 3 view .LVU585
 2215 0436 ADE6     		b	.L31
 2216              	.LVL87:
 2217              	.L54:
 2218              	.LBB30:
 539:../../Middlewares/AI_Runtime/Npu/ll_aton/ll_sw_float.c ****                          .nl_params = NULL, )
 2219              		.loc 1 539 5 view .LVU586
 2220 0438 4549     		ldr	r1, .L72
 541:../../Middlewares/AI_Runtime/Npu/ll_aton/ll_sw_float.c ****   }
 2221              		.loc 1 541 5 is_stmt 0 view .LVU587
 2222 043a 5AA8     		add	r0, sp, #360
 2223              	.LVL88:
 539:../../Middlewares/AI_Runtime/Npu/ll_aton/ll_sw_float.c ****                          .nl_params = NULL, )
 2224              		.loc 1 539 5 view .LVU588
 2225 043c CDE95A13 		strd	r1, r3, [sp, #360]
 2226 0440 5149     		ldr	r1, .L72+56
 2227 0442 CDE95C33 		strd	r3, r3, [sp, #368]
ARM GAS  C:\Users\Antonio\AppData\Local\Temp\cc6EBOZH.s 			page 58


 2228 0446 CDE95F12 		strd	r1, r2, [sp, #380]
 2229 044a 5E93     		str	r3, [sp, #376]
 2230 044c 6193     		str	r3, [sp, #388]
 541:../../Middlewares/AI_Runtime/Npu/ll_aton/ll_sw_float.c ****   }
 2231              		.loc 1 541 5 is_stmt 1 view .LVU589
 2232 044e FFF7FEFF 		bl	forward_cos
 2233              	.LVL89:
 2234              	.LBE30:
 543:../../Middlewares/AI_Runtime/Npu/ll_aton/ll_sw_float.c ****   case LL_SW_COSH:
 2235              		.loc 1 543 3 view .LVU590
 2236 0452 9FE6     		b	.L31
 2237              	.LVL90:
 2238              	.L53:
 2239              	.LBB31:
 546:../../Middlewares/AI_Runtime/Npu/ll_aton/ll_sw_float.c ****                          .nl_params = NULL, )
 2240              		.loc 1 546 5 view .LVU591
 2241 0454 3E49     		ldr	r1, .L72
 548:../../Middlewares/AI_Runtime/Npu/ll_aton/ll_sw_float.c ****   }
 2242              		.loc 1 548 5 is_stmt 0 view .LVU592
 2243 0456 5AA8     		add	r0, sp, #360
 2244              	.LVL91:
 546:../../Middlewares/AI_Runtime/Npu/ll_aton/ll_sw_float.c ****                          .nl_params = NULL, )
 2245              		.loc 1 546 5 view .LVU593
 2246 0458 CDE95A13 		strd	r1, r3, [sp, #360]
 2247 045c 4B49     		ldr	r1, .L72+60
 2248 045e CDE95C33 		strd	r3, r3, [sp, #368]
 2249 0462 CDE95F12 		strd	r1, r2, [sp, #380]
 2250 0466 5E93     		str	r3, [sp, #376]
 2251 0468 6193     		str	r3, [sp, #388]
 548:../../Middlewares/AI_Runtime/Npu/ll_aton/ll_sw_float.c ****   }
 2252              		.loc 1 548 5 is_stmt 1 view .LVU594
 2253 046a FFF7FEFF 		bl	forward_cosh
 2254              	.LVL92:
 2255              	.LBE31:
 550:../../Middlewares/AI_Runtime/Npu/ll_aton/ll_sw_float.c ****   case LL_SW_SIN:
 2256              		.loc 1 550 3 view .LVU595
 2257 046e 91E6     		b	.L31
 2258              	.LVL93:
 2259              	.L52:
 2260              	.LBB32:
 553:../../Middlewares/AI_Runtime/Npu/ll_aton/ll_sw_float.c ****                          .nl_params = NULL, )
 2261              		.loc 1 553 5 view .LVU596
 2262 0470 3749     		ldr	r1, .L72
 555:../../Middlewares/AI_Runtime/Npu/ll_aton/ll_sw_float.c ****   }
 2263              		.loc 1 555 5 is_stmt 0 view .LVU597
 2264 0472 5AA8     		add	r0, sp, #360
 2265              	.LVL94:
 553:../../Middlewares/AI_Runtime/Npu/ll_aton/ll_sw_float.c ****                          .nl_params = NULL, )
 2266              		.loc 1 553 5 view .LVU598
 2267 0474 CDE95A13 		strd	r1, r3, [sp, #360]
 2268 0478 4549     		ldr	r1, .L72+64
 2269 047a CDE95C33 		strd	r3, r3, [sp, #368]
 2270 047e CDE95F12 		strd	r1, r2, [sp, #380]
 2271 0482 5E93     		str	r3, [sp, #376]
 2272 0484 6193     		str	r3, [sp, #388]
 555:../../Middlewares/AI_Runtime/Npu/ll_aton/ll_sw_float.c ****   }
 2273              		.loc 1 555 5 is_stmt 1 view .LVU599
ARM GAS  C:\Users\Antonio\AppData\Local\Temp\cc6EBOZH.s 			page 59


 2274 0486 FFF7FEFF 		bl	forward_sin
 2275              	.LVL95:
 2276              	.LBE32:
 557:../../Middlewares/AI_Runtime/Npu/ll_aton/ll_sw_float.c ****   case LL_SW_SINH:
 2277              		.loc 1 557 3 view .LVU600
 2278 048a 83E6     		b	.L31
 2279              	.LVL96:
 2280              	.L51:
 2281              	.LBB33:
 560:../../Middlewares/AI_Runtime/Npu/ll_aton/ll_sw_float.c ****                          .nl_params = NULL, )
 2282              		.loc 1 560 5 view .LVU601
 2283 048c 3049     		ldr	r1, .L72
 562:../../Middlewares/AI_Runtime/Npu/ll_aton/ll_sw_float.c ****   }
 2284              		.loc 1 562 5 is_stmt 0 view .LVU602
 2285 048e 5AA8     		add	r0, sp, #360
 2286              	.LVL97:
 560:../../Middlewares/AI_Runtime/Npu/ll_aton/ll_sw_float.c ****                          .nl_params = NULL, )
 2287              		.loc 1 560 5 view .LVU603
 2288 0490 CDE95A13 		strd	r1, r3, [sp, #360]
 2289 0494 3F49     		ldr	r1, .L72+68
 2290 0496 CDE95C33 		strd	r3, r3, [sp, #368]
 2291 049a CDE95F12 		strd	r1, r2, [sp, #380]
 2292 049e 5E93     		str	r3, [sp, #376]
 2293 04a0 6193     		str	r3, [sp, #388]
 562:../../Middlewares/AI_Runtime/Npu/ll_aton/ll_sw_float.c ****   }
 2294              		.loc 1 562 5 is_stmt 1 view .LVU604
 2295 04a2 FFF7FEFF 		bl	forward_sinh
 2296              	.LVL98:
 2297              	.LBE33:
 564:../../Middlewares/AI_Runtime/Npu/ll_aton/ll_sw_float.c ****   case LL_SW_TANH:
 2298              		.loc 1 564 3 view .LVU605
 2299 04a6 75E6     		b	.L31
 2300              	.LVL99:
 2301              	.L55:
 2302              	.LBB34:
 567:../../Middlewares/AI_Runtime/Npu/ll_aton/ll_sw_float.c ****                          .nl_params = NULL, )
 2303              		.loc 1 567 5 view .LVU606
 2304 04a8 2949     		ldr	r1, .L72
 569:../../Middlewares/AI_Runtime/Npu/ll_aton/ll_sw_float.c ****   }
 2305              		.loc 1 569 5 is_stmt 0 view .LVU607
 2306 04aa 5AA8     		add	r0, sp, #360
 2307              	.LVL100:
 567:../../Middlewares/AI_Runtime/Npu/ll_aton/ll_sw_float.c ****                          .nl_params = NULL, )
 2308              		.loc 1 567 5 view .LVU608
 2309 04ac CDE95A13 		strd	r1, r3, [sp, #360]
 2310 04b0 3949     		ldr	r1, .L72+72
 2311 04b2 CDE95C33 		strd	r3, r3, [sp, #368]
 2312 04b6 CDE95F12 		strd	r1, r2, [sp, #380]
 2313 04ba 5E93     		str	r3, [sp, #376]
 2314 04bc 6193     		str	r3, [sp, #388]
 569:../../Middlewares/AI_Runtime/Npu/ll_aton/ll_sw_float.c ****   }
 2315              		.loc 1 569 5 is_stmt 1 view .LVU609
 2316 04be FFF7FEFF 		bl	forward_tanh
 2317              	.LVL101:
 2318              	.LBE34:
 571:../../Middlewares/AI_Runtime/Npu/ll_aton/ll_sw_float.c ****   case LL_SW_TAN:
 2319              		.loc 1 571 3 view .LVU610
ARM GAS  C:\Users\Antonio\AppData\Local\Temp\cc6EBOZH.s 			page 60


 2320 04c2 67E6     		b	.L31
 2321              	.LVL102:
 2322              	.L56:
 2323              	.LBB35:
 574:../../Middlewares/AI_Runtime/Npu/ll_aton/ll_sw_float.c ****                          .nl_params = NULL, )
 2324              		.loc 1 574 5 view .LVU611
 2325 04c4 2249     		ldr	r1, .L72
 576:../../Middlewares/AI_Runtime/Npu/ll_aton/ll_sw_float.c ****   }
 2326              		.loc 1 576 5 is_stmt 0 view .LVU612
 2327 04c6 5AA8     		add	r0, sp, #360
 2328              	.LVL103:
 574:../../Middlewares/AI_Runtime/Npu/ll_aton/ll_sw_float.c ****                          .nl_params = NULL, )
 2329              		.loc 1 574 5 view .LVU613
 2330 04c8 CDE95A13 		strd	r1, r3, [sp, #360]
 2331 04cc 3349     		ldr	r1, .L72+76
 2332 04ce CDE95C33 		strd	r3, r3, [sp, #368]
 2333 04d2 CDE95F12 		strd	r1, r2, [sp, #380]
 2334 04d6 5E93     		str	r3, [sp, #376]
 2335 04d8 6193     		str	r3, [sp, #388]
 576:../../Middlewares/AI_Runtime/Npu/ll_aton/ll_sw_float.c ****   }
 2336              		.loc 1 576 5 is_stmt 1 view .LVU614
 2337 04da FFF7FEFF 		bl	forward_tan
 2338              	.LVL104:
 2339              	.LBE35:
 578:../../Middlewares/AI_Runtime/Npu/ll_aton/ll_sw_float.c ****   case LL_SW_SIGMOID:
 2340              		.loc 1 578 3 view .LVU615
 2341 04de 59E6     		b	.L31
 2342              	.LVL105:
 2343              	.L63:
 2344              	.LBB36:
 581:../../Middlewares/AI_Runtime/Npu/ll_aton/ll_sw_float.c ****                          .nl_params = NULL, )
 2345              		.loc 1 581 5 view .LVU616
 2346 04e0 1B49     		ldr	r1, .L72
 583:../../Middlewares/AI_Runtime/Npu/ll_aton/ll_sw_float.c ****   }
 2347              		.loc 1 583 5 is_stmt 0 view .LVU617
 2348 04e2 5AA8     		add	r0, sp, #360
 2349              	.LVL106:
 581:../../Middlewares/AI_Runtime/Npu/ll_aton/ll_sw_float.c ****                          .nl_params = NULL, )
 2350              		.loc 1 581 5 view .LVU618
 2351 04e4 CDE95A13 		strd	r1, r3, [sp, #360]
 2352 04e8 2D49     		ldr	r1, .L72+80
 2353 04ea CDE95C33 		strd	r3, r3, [sp, #368]
 2354 04ee CDE95F12 		strd	r1, r2, [sp, #380]
 2355 04f2 5E93     		str	r3, [sp, #376]
 2356 04f4 6193     		str	r3, [sp, #388]
 583:../../Middlewares/AI_Runtime/Npu/ll_aton/ll_sw_float.c ****   }
 2357              		.loc 1 583 5 is_stmt 1 view .LVU619
 2358 04f6 FFF7FEFF 		bl	forward_sigmoid
 2359              	.LVL107:
 2360              	.LBE36:
 585:../../Middlewares/AI_Runtime/Npu/ll_aton/ll_sw_float.c ****   case LL_SW_SQRT:
 2361              		.loc 1 585 3 view .LVU620
 2362 04fa 4BE6     		b	.L31
 2363              	.LVL108:
 2364              	.L50:
 2365              	.LBB37:
 588:../../Middlewares/AI_Runtime/Npu/ll_aton/ll_sw_float.c ****                          .nl_params = NULL, )
ARM GAS  C:\Users\Antonio\AppData\Local\Temp\cc6EBOZH.s 			page 61


 2366              		.loc 1 588 5 view .LVU621
 2367 04fc 1449     		ldr	r1, .L72
 590:../../Middlewares/AI_Runtime/Npu/ll_aton/ll_sw_float.c ****   }
 2368              		.loc 1 590 5 is_stmt 0 view .LVU622
 2369 04fe 5AA8     		add	r0, sp, #360
 2370              	.LVL109:
 588:../../Middlewares/AI_Runtime/Npu/ll_aton/ll_sw_float.c ****                          .nl_params = NULL, )
 2371              		.loc 1 588 5 view .LVU623
 2372 0500 CDE95A13 		strd	r1, r3, [sp, #360]
 2373 0504 2749     		ldr	r1, .L72+84
 2374 0506 CDE95C33 		strd	r3, r3, [sp, #368]
 2375 050a CDE95F12 		strd	r1, r2, [sp, #380]
 2376 050e 5E93     		str	r3, [sp, #376]
 2377 0510 6193     		str	r3, [sp, #388]
 590:../../Middlewares/AI_Runtime/Npu/ll_aton/ll_sw_float.c ****   }
 2378              		.loc 1 590 5 is_stmt 1 view .LVU624
 2379 0512 FFF7FEFF 		bl	forward_sqrt
 2380              	.LVL110:
 2381              	.LBE37:
 592:../../Middlewares/AI_Runtime/Npu/ll_aton/ll_sw_float.c ****   case LL_SW_ERF:
 2382              		.loc 1 592 3 view .LVU625
 2383 0516 3DE6     		b	.L31
 2384              	.LVL111:
 2385              	.L45:
 2386              	.LBB38:
 595:../../Middlewares/AI_Runtime/Npu/ll_aton/ll_sw_float.c ****                          .nl_params = NULL, )
 2387              		.loc 1 595 5 view .LVU626
 2388 0518 0D49     		ldr	r1, .L72
 597:../../Middlewares/AI_Runtime/Npu/ll_aton/ll_sw_float.c ****   }
 2389              		.loc 1 597 5 is_stmt 0 view .LVU627
 2390 051a 5AA8     		add	r0, sp, #360
 2391              	.LVL112:
 595:../../Middlewares/AI_Runtime/Npu/ll_aton/ll_sw_float.c ****                          .nl_params = NULL, )
 2392              		.loc 1 595 5 view .LVU628
 2393 051c CDE95A13 		strd	r1, r3, [sp, #360]
 2394 0520 2149     		ldr	r1, .L72+88
 2395 0522 CDE95C33 		strd	r3, r3, [sp, #368]
 2396 0526 CDE95F12 		strd	r1, r2, [sp, #380]
 2397 052a 5E93     		str	r3, [sp, #376]
 2398 052c 6193     		str	r3, [sp, #388]
 597:../../Middlewares/AI_Runtime/Npu/ll_aton/ll_sw_float.c ****   }
 2399              		.loc 1 597 5 is_stmt 1 view .LVU629
 2400 052e FFF7FEFF 		bl	forward_erf
 2401              	.LVL113:
 2402              	.LBE38:
 599:../../Middlewares/AI_Runtime/Npu/ll_aton/ll_sw_float.c ****   case LL_SW_SOFTPLUS:
 2403              		.loc 1 599 3 view .LVU630
 2404 0532 2FE6     		b	.L31
 2405              	.LVL114:
 2406              	.L37:
 2407              	.LBB39:
 602:../../Middlewares/AI_Runtime/Npu/ll_aton/ll_sw_float.c ****                          .nl_params = NULL, )
 2408              		.loc 1 602 5 view .LVU631
 2409 0534 0649     		ldr	r1, .L72
 604:../../Middlewares/AI_Runtime/Npu/ll_aton/ll_sw_float.c ****   }
 2410              		.loc 1 604 5 is_stmt 0 view .LVU632
 2411 0536 5AA8     		add	r0, sp, #360
ARM GAS  C:\Users\Antonio\AppData\Local\Temp\cc6EBOZH.s 			page 62


 2412              	.LVL115:
 602:../../Middlewares/AI_Runtime/Npu/ll_aton/ll_sw_float.c ****                          .nl_params = NULL, )
 2413              		.loc 1 602 5 view .LVU633
 2414 0538 CDE95A13 		strd	r1, r3, [sp, #360]
 2415 053c 1B49     		ldr	r1, .L72+92
 2416 053e CDE95C33 		strd	r3, r3, [sp, #368]
 2417 0542 CDE95F12 		strd	r1, r2, [sp, #380]
 2418 0546 5E93     		str	r3, [sp, #376]
 2419 0548 6193     		str	r3, [sp, #388]
 604:../../Middlewares/AI_Runtime/Npu/ll_aton/ll_sw_float.c ****   }
 2420              		.loc 1 604 5 is_stmt 1 view .LVU634
 2421 054a FFF7FEFF 		bl	forward_soft_plus
 2422              	.LVL116:
 2423              	.LBE39:
 606:../../Middlewares/AI_Runtime/Npu/ll_aton/ll_sw_float.c ****   case LL_SW_SOFTSIGN:
 2424              		.loc 1 606 3 view .LVU635
 2425 054e 21E6     		b	.L31
 2426              	.L73:
 2427              		.align	2
 2428              	.L72:
 2429 0550 07010200 		.word	131335
 2430 0554 00000000 		.word	forward_elu
 2431 0558 00000000 		.word	forward_relu_thresholded
 2432 055c 00000000 		.word	forward_selu
 2433 0560 00000000 		.word	forward_ceil
 2434 0564 00000000 		.word	forward_floor
 2435 0568 00000000 		.word	forward_exp
 2436 056c 00000000 		.word	forward_log
 2437 0570 00000000 		.word	forward_acos
 2438 0574 00000000 		.word	forward_acosh
 2439 0578 00000000 		.word	forward_asin
 2440 057c 00000000 		.word	forward_asinh
 2441 0580 00000000 		.word	forward_atan
 2442 0584 00000000 		.word	forward_atanh
 2443 0588 00000000 		.word	forward_cos
 2444 058c 00000000 		.word	forward_cosh
 2445 0590 00000000 		.word	forward_sin
 2446 0594 00000000 		.word	forward_sinh
 2447 0598 00000000 		.word	forward_tanh
 2448 059c 00000000 		.word	forward_tan
 2449 05a0 00000000 		.word	forward_sigmoid
 2450 05a4 00000000 		.word	forward_sqrt
 2451 05a8 00000000 		.word	forward_erf
 2452 05ac 00000000 		.word	forward_soft_plus
 2453              	.LVL117:
 2454              	.L38:
 2455              	.LBB40:
 609:../../Middlewares/AI_Runtime/Npu/ll_aton/ll_sw_float.c ****                          .nl_params = NULL, )
 2456              		.loc 1 609 5 view .LVU636
 2457 05b0 4549     		ldr	r1, .L74
 611:../../Middlewares/AI_Runtime/Npu/ll_aton/ll_sw_float.c ****   }
 2458              		.loc 1 611 5 is_stmt 0 view .LVU637
 2459 05b2 5AA8     		add	r0, sp, #360
 2460              	.LVL118:
 609:../../Middlewares/AI_Runtime/Npu/ll_aton/ll_sw_float.c ****                          .nl_params = NULL, )
 2461              		.loc 1 609 5 view .LVU638
 2462 05b4 CDE95A13 		strd	r1, r3, [sp, #360]
ARM GAS  C:\Users\Antonio\AppData\Local\Temp\cc6EBOZH.s 			page 63


 2463 05b8 4449     		ldr	r1, .L74+4
 2464 05ba CDE95C33 		strd	r3, r3, [sp, #368]
 2465 05be CDE95F12 		strd	r1, r2, [sp, #380]
 2466 05c2 5E93     		str	r3, [sp, #376]
 2467 05c4 6193     		str	r3, [sp, #388]
 611:../../Middlewares/AI_Runtime/Npu/ll_aton/ll_sw_float.c ****   }
 2468              		.loc 1 611 5 is_stmt 1 view .LVU639
 2469 05c6 FFF7FEFF 		bl	forward_soft_sign
 2470              	.LVL119:
 2471              	.LBE40:
 613:../../Middlewares/AI_Runtime/Npu/ll_aton/ll_sw_float.c ****   case LL_SW_HARDSIGMOID:
 2472              		.loc 1 613 3 view .LVU640
 2473 05ca E3E5     		b	.L31
 2474              	.LVL120:
 2475              	.L43:
 2476              	.LBB41:
 616:../../Middlewares/AI_Runtime/Npu/ll_aton/ll_sw_float.c ****                                 sw_info->beta)
 2477              		.loc 1 616 5 view .LVU641
 2478 05cc 0223     		movs	r3, #2
 2479 05ce 4793     		str	r3, [sp, #284]
 2480 05d0 D0F88830 		ldr	r3, [r0, #136]	@ float
 2481 05d4 4691     		str	r1, [sp, #280]
 2482 05d6 3F93     		str	r3, [sp, #252]	@ float
 2483 05d8 D0F88C30 		ldr	r3, [r0, #140]	@ float
 618:../../Middlewares/AI_Runtime/Npu/ll_aton/ll_sw_float.c ****                          , .nl_params = AI_ARRAY_OBJ(&hard_sigmoid_layer_params), )
 2484              		.loc 1 618 5 is_stmt 0 view .LVU642
 2485 05dc 3A49     		ldr	r1, .L74
 616:../../Middlewares/AI_Runtime/Npu/ll_aton/ll_sw_float.c ****                                 sw_info->beta)
 2486              		.loc 1 616 5 view .LVU643
 2487 05de 4093     		str	r3, [sp, #256]	@ float
 2488 05e0 3FAB     		add	r3, sp, #252
 2489 05e2 4893     		str	r3, [sp, #288]
 2490 05e4 0023     		movs	r3, #0
 618:../../Middlewares/AI_Runtime/Npu/ll_aton/ll_sw_float.c ****                          , .nl_params = AI_ARRAY_OBJ(&hard_sigmoid_layer_params), )
 2491              		.loc 1 618 5 view .LVU644
 2492 05e6 CDE95A13 		strd	r1, r3, [sp, #360]
 2493 05ea CDE95C33 		strd	r3, r3, [sp, #368]
 616:../../Middlewares/AI_Runtime/Npu/ll_aton/ll_sw_float.c ****                                 sw_info->beta)
 2494              		.loc 1 616 5 view .LVU645
 2495 05ee 4993     		str	r3, [sp, #292]
 618:../../Middlewares/AI_Runtime/Npu/ll_aton/ll_sw_float.c ****                          , .nl_params = AI_ARRAY_OBJ(&hard_sigmoid_layer_params), )
 2496              		.loc 1 618 5 is_stmt 1 view .LVU646
 2497 05f0 5E93     		str	r3, [sp, #376]
 2498 05f2 374B     		ldr	r3, .L74+8
 620:../../Middlewares/AI_Runtime/Npu/ll_aton/ll_sw_float.c ****   }
 2499              		.loc 1 620 5 is_stmt 0 view .LVU647
 2500 05f4 5AA8     		add	r0, sp, #360
 2501              	.LVL121:
 618:../../Middlewares/AI_Runtime/Npu/ll_aton/ll_sw_float.c ****                          , .nl_params = AI_ARRAY_OBJ(&hard_sigmoid_layer_params), )
 2502              		.loc 1 618 5 view .LVU648
 2503 05f6 CDE95F32 		strd	r3, r2, [sp, #380]
 2504 05fa 46AB     		add	r3, sp, #280
 2505 05fc 6193     		str	r3, [sp, #388]
 620:../../Middlewares/AI_Runtime/Npu/ll_aton/ll_sw_float.c ****   }
 2506              		.loc 1 620 5 is_stmt 1 view .LVU649
 2507 05fe FFF7FEFF 		bl	forward_hard_sigmoid
 2508              	.LVL122:
ARM GAS  C:\Users\Antonio\AppData\Local\Temp\cc6EBOZH.s 			page 64


 2509              	.LBE41:
 622:../../Middlewares/AI_Runtime/Npu/ll_aton/ll_sw_float.c ****   case LL_SW_SWISH:
 2510              		.loc 1 622 3 view .LVU650
 2511 0602 C7E5     		b	.L31
 2512              	.LVL123:
 2513              	.L40:
 2514              	.LBB42:
 625:../../Middlewares/AI_Runtime/Npu/ll_aton/ll_sw_float.c ****                          .nl_params = NULL, )
 2515              		.loc 1 625 5 view .LVU651
 2516 0604 3049     		ldr	r1, .L74
 627:../../Middlewares/AI_Runtime/Npu/ll_aton/ll_sw_float.c ****   }
 2517              		.loc 1 627 5 is_stmt 0 view .LVU652
 2518 0606 5AA8     		add	r0, sp, #360
 2519              	.LVL124:
 625:../../Middlewares/AI_Runtime/Npu/ll_aton/ll_sw_float.c ****                          .nl_params = NULL, )
 2520              		.loc 1 625 5 view .LVU653
 2521 0608 CDE95A13 		strd	r1, r3, [sp, #360]
 2522 060c 3149     		ldr	r1, .L74+12
 2523 060e CDE95C33 		strd	r3, r3, [sp, #368]
 2524 0612 CDE95F12 		strd	r1, r2, [sp, #380]
 2525 0616 5E93     		str	r3, [sp, #376]
 2526 0618 6193     		str	r3, [sp, #388]
 627:../../Middlewares/AI_Runtime/Npu/ll_aton/ll_sw_float.c ****   }
 2527              		.loc 1 627 5 is_stmt 1 view .LVU654
 2528 061a FFF7FEFF 		bl	forward_swish
 2529              	.LVL125:
 2530              	.LBE42:
 629:../../Middlewares/AI_Runtime/Npu/ll_aton/ll_sw_float.c ****   case LL_SW_HARDSWISH:
 2531              		.loc 1 629 3 view .LVU655
 2532 061e B9E5     		b	.L31
 2533              	.LVL126:
 2534              	.L41:
 2535              	.LBB43:
 632:../../Middlewares/AI_Runtime/Npu/ll_aton/ll_sw_float.c ****                          .nl_params = NULL, )
 2536              		.loc 1 632 5 view .LVU656
 2537 0620 2949     		ldr	r1, .L74
 634:../../Middlewares/AI_Runtime/Npu/ll_aton/ll_sw_float.c ****   }
 2538              		.loc 1 634 5 is_stmt 0 view .LVU657
 2539 0622 5AA8     		add	r0, sp, #360
 2540              	.LVL127:
 632:../../Middlewares/AI_Runtime/Npu/ll_aton/ll_sw_float.c ****                          .nl_params = NULL, )
 2541              		.loc 1 632 5 view .LVU658
 2542 0624 CDE95A13 		strd	r1, r3, [sp, #360]
 2543 0628 2B49     		ldr	r1, .L74+16
 2544 062a CDE95C33 		strd	r3, r3, [sp, #368]
 2545 062e CDE95F12 		strd	r1, r2, [sp, #380]
 2546 0632 5E93     		str	r3, [sp, #376]
 2547 0634 6193     		str	r3, [sp, #388]
 634:../../Middlewares/AI_Runtime/Npu/ll_aton/ll_sw_float.c ****   }
 2548              		.loc 1 634 5 is_stmt 1 view .LVU659
 2549 0636 FFF7FEFF 		bl	forward_hard_swish
 2550              	.LVL128:
 2551              	.LBE43:
 636:../../Middlewares/AI_Runtime/Npu/ll_aton/ll_sw_float.c ****   case LL_SW_HARDMAX:
 2552              		.loc 1 636 3 view .LVU660
 2553 063a ABE5     		b	.L31
 2554              	.LVL129:
ARM GAS  C:\Users\Antonio\AppData\Local\Temp\cc6EBOZH.s 			page 65


 2555              	.L42:
 2556              	.LBB44:
 639:../../Middlewares/AI_Runtime/Npu/ll_aton/ll_sw_float.c ****                          .nl_params = NULL, )
 2557              		.loc 1 639 5 view .LVU661
 2558 063c 2249     		ldr	r1, .L74
 641:../../Middlewares/AI_Runtime/Npu/ll_aton/ll_sw_float.c ****   }
 2559              		.loc 1 641 5 is_stmt 0 view .LVU662
 2560 063e 5AA8     		add	r0, sp, #360
 2561              	.LVL130:
 639:../../Middlewares/AI_Runtime/Npu/ll_aton/ll_sw_float.c ****                          .nl_params = NULL, )
 2562              		.loc 1 639 5 view .LVU663
 2563 0640 CDE95A13 		strd	r1, r3, [sp, #360]
 2564 0644 2549     		ldr	r1, .L74+20
 2565 0646 CDE95C33 		strd	r3, r3, [sp, #368]
 2566 064a CDE95F12 		strd	r1, r2, [sp, #380]
 2567 064e 5E93     		str	r3, [sp, #376]
 2568 0650 6193     		str	r3, [sp, #388]
 641:../../Middlewares/AI_Runtime/Npu/ll_aton/ll_sw_float.c ****   }
 2569              		.loc 1 641 5 is_stmt 1 view .LVU664
 2570 0652 FFF7FEFF 		bl	forward_hardmax
 2571              	.LVL131:
 2572              	.LBE44:
 643:../../Middlewares/AI_Runtime/Npu/ll_aton/ll_sw_float.c ****   case LL_SW_ABS:
 2573              		.loc 1 643 3 view .LVU665
 2574 0656 9DE5     		b	.L31
 2575              	.LVL132:
 2576              	.L39:
 2577              	.LBB45:
 646:../../Middlewares/AI_Runtime/Npu/ll_aton/ll_sw_float.c ****                          .nl_params = NULL, )
 2578              		.loc 1 646 5 view .LVU666
 2579 0658 1B49     		ldr	r1, .L74
 648:../../Middlewares/AI_Runtime/Npu/ll_aton/ll_sw_float.c ****   }
 2580              		.loc 1 648 5 is_stmt 0 view .LVU667
 2581 065a 5AA8     		add	r0, sp, #360
 2582              	.LVL133:
 646:../../Middlewares/AI_Runtime/Npu/ll_aton/ll_sw_float.c ****                          .nl_params = NULL, )
 2583              		.loc 1 646 5 view .LVU668
 2584 065c CDE95A13 		strd	r1, r3, [sp, #360]
 2585 0660 1F49     		ldr	r1, .L74+24
 2586 0662 CDE95C33 		strd	r3, r3, [sp, #368]
 2587 0666 CDE95F12 		strd	r1, r2, [sp, #380]
 2588 066a 5E93     		str	r3, [sp, #376]
 2589 066c 6193     		str	r3, [sp, #388]
 648:../../Middlewares/AI_Runtime/Npu/ll_aton/ll_sw_float.c ****   }
 2590              		.loc 1 648 5 is_stmt 1 view .LVU669
 2591 066e FFF7FEFF 		bl	forward_abs
 2592              	.LVL134:
 2593              	.LBE45:
 650:../../Middlewares/AI_Runtime/Npu/ll_aton/ll_sw_float.c ****   case LL_SW_NEG:
 2594              		.loc 1 650 3 view .LVU670
 2595 0672 8FE5     		b	.L31
 2596              	.LVL135:
 2597              	.L36:
 2598              	.LBB46:
 653:../../Middlewares/AI_Runtime/Npu/ll_aton/ll_sw_float.c ****                          .nl_params = NULL, )
 2599              		.loc 1 653 5 view .LVU671
 2600 0674 1449     		ldr	r1, .L74
ARM GAS  C:\Users\Antonio\AppData\Local\Temp\cc6EBOZH.s 			page 66


 655:../../Middlewares/AI_Runtime/Npu/ll_aton/ll_sw_float.c ****   }
 2601              		.loc 1 655 5 is_stmt 0 view .LVU672
 2602 0676 5AA8     		add	r0, sp, #360
 2603              	.LVL136:
 653:../../Middlewares/AI_Runtime/Npu/ll_aton/ll_sw_float.c ****                          .nl_params = NULL, )
 2604              		.loc 1 653 5 view .LVU673
 2605 0678 CDE95A13 		strd	r1, r3, [sp, #360]
 2606 067c 1949     		ldr	r1, .L74+28
 2607 067e CDE95C33 		strd	r3, r3, [sp, #368]
 2608 0682 CDE95F12 		strd	r1, r2, [sp, #380]
 2609 0686 5E93     		str	r3, [sp, #376]
 2610 0688 6193     		str	r3, [sp, #388]
 655:../../Middlewares/AI_Runtime/Npu/ll_aton/ll_sw_float.c ****   }
 2611              		.loc 1 655 5 is_stmt 1 view .LVU674
 2612 068a FFF7FEFF 		bl	forward_neg
 2613              	.LVL137:
 2614              	.LBE46:
 657:../../Middlewares/AI_Runtime/Npu/ll_aton/ll_sw_float.c ****   case LL_SW_RECIPROCAL:
 2615              		.loc 1 657 3 view .LVU675
 2616 068e 81E5     		b	.L31
 2617              	.LVL138:
 2618              	.L35:
 2619              	.LBB47:
 660:../../Middlewares/AI_Runtime/Npu/ll_aton/ll_sw_float.c ****                          .nl_params = NULL, )
 2620              		.loc 1 660 5 view .LVU676
 2621 0690 0D49     		ldr	r1, .L74
 662:../../Middlewares/AI_Runtime/Npu/ll_aton/ll_sw_float.c ****   }
 2622              		.loc 1 662 5 is_stmt 0 view .LVU677
 2623 0692 5AA8     		add	r0, sp, #360
 2624              	.LVL139:
 660:../../Middlewares/AI_Runtime/Npu/ll_aton/ll_sw_float.c ****                          .nl_params = NULL, )
 2625              		.loc 1 660 5 view .LVU678
 2626 0694 CDE95A13 		strd	r1, r3, [sp, #360]
 2627 0698 1349     		ldr	r1, .L74+32
 2628 069a CDE95C33 		strd	r3, r3, [sp, #368]
 2629 069e CDE95F12 		strd	r1, r2, [sp, #380]
 2630 06a2 5E93     		str	r3, [sp, #376]
 2631 06a4 6193     		str	r3, [sp, #388]
 662:../../Middlewares/AI_Runtime/Npu/ll_aton/ll_sw_float.c ****   }
 2632              		.loc 1 662 5 is_stmt 1 view .LVU679
 2633 06a6 FFF7FEFF 		bl	forward_reciprocal
 2634              	.LVL140:
 2635              	.LBE47:
 664:../../Middlewares/AI_Runtime/Npu/ll_aton/ll_sw_float.c ****   case LL_SW_ROUND:
 2636              		.loc 1 664 3 view .LVU680
 2637 06aa 73E5     		b	.L31
 2638              	.LVL141:
 2639              	.L33:
 2640              	.LBB48:
 667:../../Middlewares/AI_Runtime/Npu/ll_aton/ll_sw_float.c ****                          .nl_params = NULL, )
 2641              		.loc 1 667 5 view .LVU681
 2642 06ac 0649     		ldr	r1, .L74
 669:../../Middlewares/AI_Runtime/Npu/ll_aton/ll_sw_float.c ****   }
 2643              		.loc 1 669 5 is_stmt 0 view .LVU682
 2644 06ae 5AA8     		add	r0, sp, #360
 2645              	.LVL142:
 667:../../Middlewares/AI_Runtime/Npu/ll_aton/ll_sw_float.c ****                          .nl_params = NULL, )
ARM GAS  C:\Users\Antonio\AppData\Local\Temp\cc6EBOZH.s 			page 67


 2646              		.loc 1 667 5 view .LVU683
 2647 06b0 CDE95A13 		strd	r1, r3, [sp, #360]
 2648 06b4 0D49     		ldr	r1, .L74+36
 2649 06b6 CDE95C33 		strd	r3, r3, [sp, #368]
 2650 06ba CDE95F12 		strd	r1, r2, [sp, #380]
 2651 06be 5E93     		str	r3, [sp, #376]
 2652 06c0 6193     		str	r3, [sp, #388]
 669:../../Middlewares/AI_Runtime/Npu/ll_aton/ll_sw_float.c ****   }
 2653              		.loc 1 669 5 is_stmt 1 view .LVU684
 2654 06c2 FFF7FEFF 		bl	forward_round
 2655              	.LVL143:
 2656              	.LBE48:
 671:../../Middlewares/AI_Runtime/Npu/ll_aton/ll_sw_float.c ****   default:
 2657              		.loc 1 671 3 view .LVU685
 2658              		.loc 1 678 1 is_stmt 0 view .LVU686
 2659 06c6 65E5     		b	.L31
 2660              	.L75:
 2661              		.align	2
 2662              	.L74:
 2663 06c8 07010200 		.word	131335
 2664 06cc 00000000 		.word	forward_soft_sign
 2665 06d0 00000000 		.word	forward_hard_sigmoid
 2666 06d4 00000000 		.word	forward_swish
 2667 06d8 00000000 		.word	forward_hard_swish
 2668 06dc 00000000 		.word	forward_hardmax
 2669 06e0 00000000 		.word	forward_abs
 2670 06e4 00000000 		.word	forward_neg
 2671 06e8 00000000 		.word	forward_reciprocal
 2672 06ec 00000000 		.word	forward_round
 2673              		.cfi_endproc
 2674              	.LFE20:
 2676              		.section	.text.ll_sw_forward_arith,"ax",%progbits
 2677              		.align	1
 2678              		.global	ll_sw_forward_arith
 2679              		.syntax unified
 2680              		.thumb
 2681              		.thumb_func
 2683              	ll_sw_forward_arith:
 2684              	.LVL144:
 2685              	.LFB21:
 679:../../Middlewares/AI_Runtime/Npu/ll_aton/ll_sw_float.c **** 
 680:../../Middlewares/AI_Runtime/Npu/ll_aton/ll_sw_float.c **** //##########################################################################################
 681:../../Middlewares/AI_Runtime/Npu/ll_aton/ll_sw_float.c **** /** activ forward function  */
 682:../../Middlewares/AI_Runtime/Npu/ll_aton/ll_sw_float.c **** void ll_sw_forward_arith(/* int processor, */ void *sw_info_struct)
 683:../../Middlewares/AI_Runtime/Npu/ll_aton/ll_sw_float.c **** {
 2686              		.loc 1 683 1 is_stmt 1 view -0
 2687              		.cfi_startproc
 2688              		@ args = 0, pretend = 0, frame = 504
 2689              		@ frame_needed = 0, uses_anonymous_args = 0
 684:../../Middlewares/AI_Runtime/Npu/ll_aton/ll_sw_float.c ****   Arith_sw_info *sw_info = (Arith_sw_info *)sw_info_struct;
 2690              		.loc 1 684 3 view .LVU688
 685:../../Middlewares/AI_Runtime/Npu/ll_aton/ll_sw_float.c ****   // array init
 686:../../Middlewares/AI_Runtime/Npu/ll_aton/ll_sw_float.c ****   AI_ARRAY_OBJ_DECLARE(input_output_array, FORMAT, sw_info->general.input.mem.start_offset,
 2691              		.loc 1 686 3 view .LVU689
 683:../../Middlewares/AI_Runtime/Npu/ll_aton/ll_sw_float.c ****   Arith_sw_info *sw_info = (Arith_sw_info *)sw_info_struct;
 2692              		.loc 1 683 1 is_stmt 0 view .LVU690
 2693 0000 2DE9F04F 		push	{r4, r5, r6, r7, r8, r9, r10, fp, lr}
ARM GAS  C:\Users\Antonio\AppData\Local\Temp\cc6EBOZH.s 			page 68


 2694              		.cfi_def_cfa_offset 36
 2695              		.cfi_offset 4, -36
 2696              		.cfi_offset 5, -32
 2697              		.cfi_offset 6, -28
 2698              		.cfi_offset 7, -24
 2699              		.cfi_offset 8, -20
 2700              		.cfi_offset 9, -16
 2701              		.cfi_offset 10, -12
 2702              		.cfi_offset 11, -8
 2703              		.cfi_offset 14, -4
 2704              		.loc 1 686 3 view .LVU691
 2705 0004 4369     		ldr	r3, [r0, #20]
 683:../../Middlewares/AI_Runtime/Npu/ll_aton/ll_sw_float.c ****   Arith_sw_info *sw_info = (Arith_sw_info *)sw_info_struct;
 2706              		.loc 1 683 1 view .LVU692
 2707 0006 FFB0     		sub	sp, sp, #508
 2708              		.cfi_def_cfa_offset 544
 2709              		.loc 1 686 3 view .LVU693
 2710 0008 0793     		str	r3, [sp, #28]
 2711 000a 836A     		ldr	r3, [r0, #40]
 687:../../Middlewares/AI_Runtime/Npu/ll_aton/ll_sw_float.c ****                        sw_info->general.input.mem.start_offset, sw_info->general.input.dim.num_elem
 688:../../Middlewares/AI_Runtime/Npu/ll_aton/ll_sw_float.c ****   AI_ARRAY_OBJ_DECLARE(arith_output_array, FORMAT, sw_info->general.output.mem.start_offset,
 689:../../Middlewares/AI_Runtime/Npu/ll_aton/ll_sw_float.c ****                        sw_info->general.output.mem.start_offset, sw_info->general.output.dim.num_el
 690:../../Middlewares/AI_Runtime/Npu/ll_aton/ll_sw_float.c ****   AI_ARRAY_OBJ_DECLARE(arith_operand_array, FORMAT, sw_info->operand.mem.start_offset,
 691:../../Middlewares/AI_Runtime/Npu/ll_aton/ll_sw_float.c ****                        sw_info->operand.mem.start_offset, sw_info->operand.dim.num_elem, )
 692:../../Middlewares/AI_Runtime/Npu/ll_aton/ll_sw_float.c ****   AI_TENSOR_OBJ_DECLARE(input_output, , 0x0, 4,
 2712              		.loc 1 692 3 view .LVU694
 2713 000c 40F20144 		movw	r4, #1025
 686:../../Middlewares/AI_Runtime/Npu/ll_aton/ll_sw_float.c ****                        sw_info->general.input.mem.start_offset, sw_info->general.input.dim.num_elem
 2714              		.loc 1 686 3 view .LVU695
 2715 0010 CDE90833 		strd	r3, r3, [sp, #32]
 688:../../Middlewares/AI_Runtime/Npu/ll_aton/ll_sw_float.c ****                        sw_info->general.output.mem.start_offset, sw_info->general.output.dim.num_el
 2716              		.loc 1 688 3 is_stmt 1 view .LVU696
 2717 0014 036C     		ldr	r3, [r0, #64]
 2718              		.loc 1 692 3 is_stmt 0 view .LVU697
 2719 0016 4FF08276 		mov	r6, #17039360
 688:../../Middlewares/AI_Runtime/Npu/ll_aton/ll_sw_float.c ****                        sw_info->general.output.mem.start_offset, sw_info->general.output.dim.num_el
 2720              		.loc 1 688 3 view .LVU698
 2721 001a 0B93     		str	r3, [sp, #44]
 2722 001c 436D     		ldr	r3, [r0, #84]
 2723              		.loc 1 692 3 view .LVU699
 2724 001e 0569     		ldr	r5, [r0, #16]
 688:../../Middlewares/AI_Runtime/Npu/ll_aton/ll_sw_float.c ****                        sw_info->general.output.mem.start_offset, sw_info->general.output.dim.num_el
 2725              		.loc 1 688 3 view .LVU700
 2726 0020 CDE90C33 		strd	r3, r3, [sp, #48]
 690:../../Middlewares/AI_Runtime/Npu/ll_aton/ll_sw_float.c ****                        sw_info->operand.mem.start_offset, sw_info->operand.dim.num_elem, )
 2727              		.loc 1 690 3 is_stmt 1 view .LVU701
 2728 0024 C36E     		ldr	r3, [r0, #108]
 2729              		.loc 1 692 3 is_stmt 0 view .LVU702
 2730 0026 1295     		str	r5, [sp, #72]
 690:../../Middlewares/AI_Runtime/Npu/ll_aton/ll_sw_float.c ****                        sw_info->operand.mem.start_offset, sw_info->operand.dim.num_elem, )
 2731              		.loc 1 690 3 view .LVU703
 2732 0028 0F93     		str	r3, [sp, #60]
 2733 002a D0F88030 		ldr	r3, [r0, #128]
 2734              		.loc 1 692 3 view .LVU704
 2735 002e C568     		ldr	r5, [r0, #12]
 690:../../Middlewares/AI_Runtime/Npu/ll_aton/ll_sw_float.c ****                        sw_info->operand.mem.start_offset, sw_info->operand.dim.num_elem, )
 2736              		.loc 1 690 3 view .LVU705
ARM GAS  C:\Users\Antonio\AppData\Local\Temp\cc6EBOZH.s 			page 69


 2737 0030 CDE91033 		strd	r3, r3, [sp, #64]
 2738              		.loc 1 692 3 is_stmt 1 view .LVU706
 2739 0034 0023     		movs	r3, #0
 2740 0036 1395     		str	r5, [sp, #76]
 2741 0038 8568     		ldr	r5, [r0, #8]
 686:../../Middlewares/AI_Runtime/Npu/ll_aton/ll_sw_float.c ****                        sw_info->general.input.mem.start_offset, sw_info->general.input.dim.num_elem
 2742              		.loc 1 686 3 is_stmt 0 view .LVU707
 2743 003a 954F     		ldr	r7, .L85
 2744              		.loc 1 692 3 view .LVU708
 2745 003c 1495     		str	r5, [sp, #80]
 2746 003e 4568     		ldr	r5, [r0, #4]
 2747 0040 4894     		str	r4, [sp, #288]
 2748 0042 12AC     		add	r4, sp, #72
 2749 0044 1595     		str	r5, [sp, #84]
 2750 0046 CDE94636 		strd	r3, r6, [sp, #280]
 686:../../Middlewares/AI_Runtime/Npu/ll_aton/ll_sw_float.c ****                        sw_info->general.input.mem.start_offset, sw_info->general.input.dim.num_elem
 2751              		.loc 1 686 3 view .LVU709
 2752 004a 0697     		str	r7, [sp, #24]
 688:../../Middlewares/AI_Runtime/Npu/ll_aton/ll_sw_float.c ****                        sw_info->general.output.mem.start_offset, sw_info->general.output.dim.num_el
 2753              		.loc 1 688 3 view .LVU710
 2754 004c 0A97     		str	r7, [sp, #40]
 690:../../Middlewares/AI_Runtime/Npu/ll_aton/ll_sw_float.c ****                        sw_info->operand.mem.start_offset, sw_info->operand.dim.num_elem, )
 2755              		.loc 1 690 3 view .LVU711
 2756 004e 0E97     		str	r7, [sp, #56]
 2757              		.loc 1 692 3 view .LVU712
 2758 0050 4994     		str	r4, [sp, #292]
 2759 0052 456A     		ldr	r5, [r0, #36]
 2760 0054 40F20244 		movw	r4, #1026
 2761 0058 1695     		str	r5, [sp, #88]
 2762 005a 056A     		ldr	r5, [r0, #32]
 686:../../Middlewares/AI_Runtime/Npu/ll_aton/ll_sw_float.c ****                        sw_info->general.input.mem.start_offset, sw_info->general.input.dim.num_elem
 2763              		.loc 1 686 3 view .LVU713
 2764 005c 0DF1180E 		add	lr, sp, #24
 2765              		.loc 1 692 3 view .LVU714
 2766 0060 1795     		str	r5, [sp, #92]
 2767 0062 C569     		ldr	r5, [r0, #28]
 2768 0064 0DF15808 		add	r8, sp, #88
 2769 0068 1895     		str	r5, [sp, #96]
 2770 006a 8569     		ldr	r5, [r0, #24]
 2771 006c CDE94B8E 		strd	r8, lr, [sp, #300]
 693:../../Middlewares/AI_Runtime/Npu/ll_aton/ll_sw_float.c ****                         SHAPE_INIT(sw_info->general.input.dim.tensor_h, sw_info->general.input.dim.
 694:../../Middlewares/AI_Runtime/Npu/ll_aton/ll_sw_float.c ****                                    sw_info->general.input.dim.tensor_c, sw_info->general.input.dim.
 695:../../Middlewares/AI_Runtime/Npu/ll_aton/ll_sw_float.c ****                         STRIDE_INIT(sw_info->general.input.stride.h, sw_info->general.input.stride.
 696:../../Middlewares/AI_Runtime/Npu/ll_aton/ll_sw_float.c ****                                     sw_info->general.input.stride.c, sw_info->general.input.stride.
 697:../../Middlewares/AI_Runtime/Npu/ll_aton/ll_sw_float.c ****                         1, &input_output_array, NULL)
 698:../../Middlewares/AI_Runtime/Npu/ll_aton/ll_sw_float.c ****   AI_TENSOR_OBJ_DECLARE(arith_operand, , 0x0, 4,
 2772              		.loc 1 698 3 is_stmt 1 view .LVU715
 692:../../Middlewares/AI_Runtime/Npu/ll_aton/ll_sw_float.c ****                         SHAPE_INIT(sw_info->general.input.dim.tensor_h, sw_info->general.input.dim.
 2773              		.loc 1 692 3 is_stmt 0 view .LVU716
 2774 0070 1995     		str	r5, [sp, #100]
 2775              		.loc 1 698 3 view .LVU717
 2776 0072 40F20145 		movw	r5, #1025
 2777 0076 4F95     		str	r5, [sp, #316]
 2778 0078 856E     		ldr	r5, [r0, #104]
 2779 007a 0DF1680E 		add	lr, sp, #104
 2780 007e 1A95     		str	r5, [sp, #104]
 2781 0080 456E     		ldr	r5, [r0, #100]
ARM GAS  C:\Users\Antonio\AppData\Local\Temp\cc6EBOZH.s 			page 70


 2782 0082 CDE950E4 		strd	lr, r4, [sp, #320]
 2783 0086 1B95     		str	r5, [sp, #108]
 2784 0088 056E     		ldr	r5, [r0, #96]
 690:../../Middlewares/AI_Runtime/Npu/ll_aton/ll_sw_float.c ****                        sw_info->operand.mem.start_offset, sw_info->operand.dim.num_elem, )
 2785              		.loc 1 690 3 view .LVU718
 2786 008a 0EA9     		add	r1, sp, #56
 2787              		.loc 1 698 3 view .LVU719
 2788 008c 1C95     		str	r5, [sp, #112]
 2789 008e C56D     		ldr	r5, [r0, #92]
 2790 0090 0DF1780E 		add	lr, sp, #120
 2791 0094 1D95     		str	r5, [sp, #116]
 2792 0096 C56F     		ldr	r5, [r0, #124]
 2793 0098 CDE94D36 		strd	r3, r6, [sp, #308]
 2794 009c 1E95     		str	r5, [sp, #120]
 2795 009e 856F     		ldr	r5, [r0, #120]
 692:../../Middlewares/AI_Runtime/Npu/ll_aton/ll_sw_float.c ****                         SHAPE_INIT(sw_info->general.input.dim.tensor_h, sw_info->general.input.dim.
 2796              		.loc 1 692 3 view .LVU720
 2797 00a0 4A94     		str	r4, [sp, #296]
 2798              		.loc 1 698 3 view .LVU721
 2799 00a2 1F95     		str	r5, [sp, #124]
 2800 00a4 456F     		ldr	r5, [r0, #116]
 688:../../Middlewares/AI_Runtime/Npu/ll_aton/ll_sw_float.c ****                        sw_info->general.output.mem.start_offset, sw_info->general.output.dim.num_el
 2801              		.loc 1 688 3 view .LVU722
 2802 00a6 0AAA     		add	r2, sp, #40
 2803              		.loc 1 698 3 view .LVU723
 2804 00a8 2095     		str	r5, [sp, #128]
 2805 00aa 056F     		ldr	r5, [r0, #112]
 2806 00ac 0DF58C7B 		add	fp, sp, #280
 2807 00b0 2195     		str	r5, [sp, #132]
 2808 00b2 CDE952E1 		strd	lr, r1, [sp, #328]
 699:../../Middlewares/AI_Runtime/Npu/ll_aton/ll_sw_float.c ****                         SHAPE_INIT(sw_info->operand.dim.tensor_h, sw_info->operand.dim.tensor_w,
 700:../../Middlewares/AI_Runtime/Npu/ll_aton/ll_sw_float.c ****                                    sw_info->operand.dim.tensor_c, sw_info->operand.dim.tensor_b),
 701:../../Middlewares/AI_Runtime/Npu/ll_aton/ll_sw_float.c ****                         STRIDE_INIT(sw_info->operand.stride.h, sw_info->operand.stride.w, sw_info->
 702:../../Middlewares/AI_Runtime/Npu/ll_aton/ll_sw_float.c ****                                     sw_info->operand.stride.b),
 703:../../Middlewares/AI_Runtime/Npu/ll_aton/ll_sw_float.c ****                         1, &arith_operand_array, NULL)
 704:../../Middlewares/AI_Runtime/Npu/ll_aton/ll_sw_float.c ****   AI_TENSOR_OBJ_DECLARE(arith_output, , 0x0, 4,
 2809              		.loc 1 704 3 is_stmt 1 view .LVU724
 2810 00b6 40F20141 		movw	r1, #1025
 2811 00ba C56B     		ldr	r5, [r0, #60]
 705:../../Middlewares/AI_Runtime/Npu/ll_aton/ll_sw_float.c ****                         SHAPE_INIT(sw_info->general.output.dim.tensor_h, sw_info->general.output.di
 706:../../Middlewares/AI_Runtime/Npu/ll_aton/ll_sw_float.c ****                                    sw_info->general.output.dim.tensor_c, sw_info->general.output.di
 707:../../Middlewares/AI_Runtime/Npu/ll_aton/ll_sw_float.c ****                         STRIDE_INIT(sw_info->general.output.stride.h, sw_info->general.output.strid
 708:../../Middlewares/AI_Runtime/Npu/ll_aton/ll_sw_float.c ****                                     sw_info->general.output.stride.c, sw_info->general.output.strid
 709:../../Middlewares/AI_Runtime/Npu/ll_aton/ll_sw_float.c ****                         1, &arith_output_array, NULL)
 710:../../Middlewares/AI_Runtime/Npu/ll_aton/ll_sw_float.c **** 
 711:../../Middlewares/AI_Runtime/Npu/ll_aton/ll_sw_float.c ****   // layer initialization
 712:../../Middlewares/AI_Runtime/Npu/ll_aton/ll_sw_float.c ****   func_binary op = ai_sum;                      /**< operation to apply elementwise */
 713:../../Middlewares/AI_Runtime/Npu/ll_aton/ll_sw_float.c ****   func_buffer_binary buffer_op = ai_sum_buffer; /**< operation to apply elementwise */
 714:../../Middlewares/AI_Runtime/Npu/ll_aton/ll_sw_float.c **** 
 715:../../Middlewares/AI_Runtime/Npu/ll_aton/ll_sw_float.c ****   switch (sw_info->general.type)
 2812              		.loc 1 715 27 is_stmt 0 view .LVU725
 2813 00bc 90F800E0 		ldrb	lr, [r0]	@ zero_extendqisi2
 704:../../Middlewares/AI_Runtime/Npu/ll_aton/ll_sw_float.c ****                         SHAPE_INIT(sw_info->general.output.dim.tensor_h, sw_info->general.output.di
 2814              		.loc 1 704 3 view .LVU726
 2815 00c0 2295     		str	r5, [sp, #136]
 2816 00c2 856B     		ldr	r5, [r0, #56]
 2817 00c4 AEF10E0C 		sub	ip, lr, #14
ARM GAS  C:\Users\Antonio\AppData\Local\Temp\cc6EBOZH.s 			page 71


 2818 00c8 2395     		str	r5, [sp, #140]
 2819 00ca 456B     		ldr	r5, [r0, #52]
 2820 00cc 5691     		str	r1, [sp, #344]
 2821 00ce 2495     		str	r5, [sp, #144]
 2822 00d0 056B     		ldr	r5, [r0, #48]
 2823 00d2 22A9     		add	r1, sp, #136
 2824 00d4 2595     		str	r5, [sp, #148]
 2825 00d6 056D     		ldr	r5, [r0, #80]
 2826 00d8 5FFA8CFC 		uxtb	ip, ip
 2827 00dc 2695     		str	r5, [sp, #152]
 2828 00de C56C     		ldr	r5, [r0, #76]
 2829 00e0 CDE95714 		strd	r1, r4, [sp, #348]
 2830 00e4 2795     		str	r5, [sp, #156]
 2831 00e6 856C     		ldr	r5, [r0, #72]
 2832 00e8 26A9     		add	r1, sp, #152
 2833 00ea 2895     		str	r5, [sp, #160]
 2834 00ec 456C     		ldr	r5, [r0, #68]
 2835 00ee BCF1400F 		cmp	ip, #64
 2836 00f2 CDE95912 		strd	r1, r2, [sp, #356]
 712:../../Middlewares/AI_Runtime/Npu/ll_aton/ll_sw_float.c ****   func_buffer_binary buffer_op = ai_sum_buffer; /**< operation to apply elementwise */
 2837              		.loc 1 712 3 is_stmt 1 view .LVU727
 713:../../Middlewares/AI_Runtime/Npu/ll_aton/ll_sw_float.c **** 
 2838              		.loc 1 713 3 view .LVU728
 2839              		.loc 1 715 3 view .LVU729
 704:../../Middlewares/AI_Runtime/Npu/ll_aton/ll_sw_float.c ****                         SHAPE_INIT(sw_info->general.output.dim.tensor_h, sw_info->general.output.di
 2840              		.loc 1 704 3 is_stmt 0 view .LVU730
 2841 00f6 CDE95436 		strd	r3, r6, [sp, #336]
 2842 00fa 2995     		str	r5, [sp, #164]
 2843 00fc 3AA9     		add	r1, sp, #232
 2844 00fe 3EAA     		add	r2, sp, #248
 2845 0100 0DF59A7A 		add	r10, sp, #308
 2846 0104 0DF5C479 		add	r9, sp, #392
 2847 0108 2DD8     		bhi	.L77
 2848 010a 624B     		ldr	r3, .L85+4
 2849 010c 53F82C40 		ldr	r4, [r3, ip, lsl #2]
 2850 0110 614B     		ldr	r3, .L85+8
 2851 0112 53F82C00 		ldr	r0, [r3, ip, lsl #2]
 2852              	.LVL145:
 716:../../Middlewares/AI_Runtime/Npu/ll_aton/ll_sw_float.c ****   {
 717:../../Middlewares/AI_Runtime/Npu/ll_aton/ll_sw_float.c ****   case LL_SW_ARITHADD:
 718:../../Middlewares/AI_Runtime/Npu/ll_aton/ll_sw_float.c ****   case LL_SW_ARITHSUM:
 719:../../Middlewares/AI_Runtime/Npu/ll_aton/ll_sw_float.c ****     op = ((func_binary)(ai_sum));
 720:../../Middlewares/AI_Runtime/Npu/ll_aton/ll_sw_float.c ****     buffer_op = ((func_buffer_binary)(ai_sum_buffer));
 721:../../Middlewares/AI_Runtime/Npu/ll_aton/ll_sw_float.c ****     break;
 722:../../Middlewares/AI_Runtime/Npu/ll_aton/ll_sw_float.c ****   case LL_SW_ARITHMUL:
 723:../../Middlewares/AI_Runtime/Npu/ll_aton/ll_sw_float.c ****     op = ((func_binary)(ai_mul));
 724:../../Middlewares/AI_Runtime/Npu/ll_aton/ll_sw_float.c ****     buffer_op = ((func_buffer_binary)(ai_mul_buffer));
 725:../../Middlewares/AI_Runtime/Npu/ll_aton/ll_sw_float.c ****     break;
 726:../../Middlewares/AI_Runtime/Npu/ll_aton/ll_sw_float.c ****   case LL_SW_ARITHDIV:
 727:../../Middlewares/AI_Runtime/Npu/ll_aton/ll_sw_float.c ****     op = ((func_binary)(ai_div));
 728:../../Middlewares/AI_Runtime/Npu/ll_aton/ll_sw_float.c ****     buffer_op = ((func_buffer_binary)(ai_div_buffer));
 729:../../Middlewares/AI_Runtime/Npu/ll_aton/ll_sw_float.c ****     break;
 730:../../Middlewares/AI_Runtime/Npu/ll_aton/ll_sw_float.c ****   case LL_SW_ARITHSUB:
 731:../../Middlewares/AI_Runtime/Npu/ll_aton/ll_sw_float.c ****     op = ((func_binary)(ai_sub));
 732:../../Middlewares/AI_Runtime/Npu/ll_aton/ll_sw_float.c ****     buffer_op = ((func_buffer_binary)(ai_sub_buffer));
 733:../../Middlewares/AI_Runtime/Npu/ll_aton/ll_sw_float.c ****     break;
 734:../../Middlewares/AI_Runtime/Npu/ll_aton/ll_sw_float.c ****   case LL_SW_POW:
ARM GAS  C:\Users\Antonio\AppData\Local\Temp\cc6EBOZH.s 			page 72


 735:../../Middlewares/AI_Runtime/Npu/ll_aton/ll_sw_float.c ****     op = ((func_binary)(ai_pow));
 736:../../Middlewares/AI_Runtime/Npu/ll_aton/ll_sw_float.c ****     buffer_op = ((func_buffer_binary)(ai_pow_buffer));
 737:../../Middlewares/AI_Runtime/Npu/ll_aton/ll_sw_float.c ****     break;
 738:../../Middlewares/AI_Runtime/Npu/ll_aton/ll_sw_float.c ****   case LL_SW_GREATER:
 739:../../Middlewares/AI_Runtime/Npu/ll_aton/ll_sw_float.c ****     op = ((func_binary)(ai_greater));
 740:../../Middlewares/AI_Runtime/Npu/ll_aton/ll_sw_float.c ****     buffer_op = ((func_buffer_binary)(ai_greater_buffer));
 741:../../Middlewares/AI_Runtime/Npu/ll_aton/ll_sw_float.c ****     break;
 742:../../Middlewares/AI_Runtime/Npu/ll_aton/ll_sw_float.c ****   case LL_SW_GREATEROREQUAL:
 743:../../Middlewares/AI_Runtime/Npu/ll_aton/ll_sw_float.c ****     op = ((func_binary)(ai_greater_or_equal));
 744:../../Middlewares/AI_Runtime/Npu/ll_aton/ll_sw_float.c ****     buffer_op = ((func_buffer_binary)(ai_greater_or_equal_buffer));
 745:../../Middlewares/AI_Runtime/Npu/ll_aton/ll_sw_float.c ****     break;
 746:../../Middlewares/AI_Runtime/Npu/ll_aton/ll_sw_float.c ****   case LL_SW_LESS:
 747:../../Middlewares/AI_Runtime/Npu/ll_aton/ll_sw_float.c ****     op = ((func_binary)(ai_less));
 748:../../Middlewares/AI_Runtime/Npu/ll_aton/ll_sw_float.c ****     buffer_op = ((func_buffer_binary)(ai_less_buffer));
 749:../../Middlewares/AI_Runtime/Npu/ll_aton/ll_sw_float.c ****     break;
 750:../../Middlewares/AI_Runtime/Npu/ll_aton/ll_sw_float.c ****   case LL_SW_EQUAL:
 751:../../Middlewares/AI_Runtime/Npu/ll_aton/ll_sw_float.c ****     op = ((func_binary)(ai_equal));
 752:../../Middlewares/AI_Runtime/Npu/ll_aton/ll_sw_float.c ****     buffer_op = ((func_buffer_binary)(ai_equal_buffer));
 753:../../Middlewares/AI_Runtime/Npu/ll_aton/ll_sw_float.c ****     break;
 754:../../Middlewares/AI_Runtime/Npu/ll_aton/ll_sw_float.c ****   case LL_SW_LESSOREQUAL:
 755:../../Middlewares/AI_Runtime/Npu/ll_aton/ll_sw_float.c ****     op = ((func_binary)(ai_less_or_equal));
 756:../../Middlewares/AI_Runtime/Npu/ll_aton/ll_sw_float.c ****     buffer_op = ((func_buffer_binary)(ai_less_or_equal_buffer));
 757:../../Middlewares/AI_Runtime/Npu/ll_aton/ll_sw_float.c ****     break;
 758:../../Middlewares/AI_Runtime/Npu/ll_aton/ll_sw_float.c ****   case LL_SW_MIN:
 759:../../Middlewares/AI_Runtime/Npu/ll_aton/ll_sw_float.c ****     op = ((func_binary)(ai_min));
 760:../../Middlewares/AI_Runtime/Npu/ll_aton/ll_sw_float.c ****     buffer_op = ((func_buffer_binary)(ai_min_buffer));
 761:../../Middlewares/AI_Runtime/Npu/ll_aton/ll_sw_float.c ****     break;
 762:../../Middlewares/AI_Runtime/Npu/ll_aton/ll_sw_float.c ****   case LL_SW_MAX:
 763:../../Middlewares/AI_Runtime/Npu/ll_aton/ll_sw_float.c ****     op = ((func_binary)(ai_max));
 764:../../Middlewares/AI_Runtime/Npu/ll_aton/ll_sw_float.c ****     buffer_op = ((func_buffer_binary)(ai_max_buffer));
 765:../../Middlewares/AI_Runtime/Npu/ll_aton/ll_sw_float.c ****     break;
 766:../../Middlewares/AI_Runtime/Npu/ll_aton/ll_sw_float.c ****   case LL_SW_MOD:
 767:../../Middlewares/AI_Runtime/Npu/ll_aton/ll_sw_float.c ****     op = ((func_binary)(ai_floor_mod));
 768:../../Middlewares/AI_Runtime/Npu/ll_aton/ll_sw_float.c ****     buffer_op = ((func_buffer_binary)(ai_floor_mod_buffer));
 769:../../Middlewares/AI_Runtime/Npu/ll_aton/ll_sw_float.c ****     break;
 770:../../Middlewares/AI_Runtime/Npu/ll_aton/ll_sw_float.c ****   default:
 771:../../Middlewares/AI_Runtime/Npu/ll_aton/ll_sw_float.c **** #ifdef LL_SW_ENABLE_ASSERTS
 772:../../Middlewares/AI_Runtime/Npu/ll_aton/ll_sw_float.c ****     LL_ATON_ASSERT(0 && "ELEMENT WISE OPERATION NOT SUPPORTED");
 773:../../Middlewares/AI_Runtime/Npu/ll_aton/ll_sw_float.c **** #endif
 774:../../Middlewares/AI_Runtime/Npu/ll_aton/ll_sw_float.c ****     break;
 775:../../Middlewares/AI_Runtime/Npu/ll_aton/ll_sw_float.c ****   }
 776:../../Middlewares/AI_Runtime/Npu/ll_aton/ll_sw_float.c **** 
 777:../../Middlewares/AI_Runtime/Npu/ll_aton/ll_sw_float.c ****   if (sw_info->general.type == LL_SW_ARITHSUM && sw_info->num_of_inputs == 4)
 2853              		.loc 1 777 3 is_stmt 1 view .LVU731
 778:../../Middlewares/AI_Runtime/Npu/ll_aton/ll_sw_float.c ****   {
 779:../../Middlewares/AI_Runtime/Npu/ll_aton/ll_sw_float.c ****     AI_ARRAY_OBJ_DECLARE(arith_operand_array1, FORMAT, sw_info->operand1.mem.start_offset,
 780:../../Middlewares/AI_Runtime/Npu/ll_aton/ll_sw_float.c ****                          sw_info->operand1.mem.start_offset, sw_info->operand1.dim.num_elem, );
 781:../../Middlewares/AI_Runtime/Npu/ll_aton/ll_sw_float.c ****     AI_ARRAY_OBJ_DECLARE(arith_operand_array2, FORMAT, sw_info->operand2.mem.start_offset,
 782:../../Middlewares/AI_Runtime/Npu/ll_aton/ll_sw_float.c ****                          sw_info->operand2.mem.start_offset, sw_info->operand2.dim.num_elem, );
 783:../../Middlewares/AI_Runtime/Npu/ll_aton/ll_sw_float.c ****     AI_TENSOR_OBJ_DECLARE(arith_operand1, , 0x0, 4,
 784:../../Middlewares/AI_Runtime/Npu/ll_aton/ll_sw_float.c ****                           SHAPE_INIT(sw_info->operand1.dim.tensor_h, sw_info->operand1.dim.tensor_w
 785:../../Middlewares/AI_Runtime/Npu/ll_aton/ll_sw_float.c ****                                      sw_info->operand1.dim.tensor_c, sw_info->operand1.dim.tensor_b
 786:../../Middlewares/AI_Runtime/Npu/ll_aton/ll_sw_float.c ****                           STRIDE_INIT(sw_info->operand1.stride.h, sw_info->operand1.stride.w,
 787:../../Middlewares/AI_Runtime/Npu/ll_aton/ll_sw_float.c ****                                       sw_info->operand1.stride.c, sw_info->operand1.stride.b),
 788:../../Middlewares/AI_Runtime/Npu/ll_aton/ll_sw_float.c ****                           1, &arith_operand_array1, NULL);
 789:../../Middlewares/AI_Runtime/Npu/ll_aton/ll_sw_float.c ****     AI_TENSOR_OBJ_DECLARE(arith_operand2, , 0x0, 4,
 790:../../Middlewares/AI_Runtime/Npu/ll_aton/ll_sw_float.c ****                           SHAPE_INIT(sw_info->operand2.dim.tensor_h, sw_info->operand2.dim.tensor_w
ARM GAS  C:\Users\Antonio\AppData\Local\Temp\cc6EBOZH.s 			page 73


 791:../../Middlewares/AI_Runtime/Npu/ll_aton/ll_sw_float.c ****                                      sw_info->operand2.dim.tensor_c, sw_info->operand2.dim.tensor_b
 792:../../Middlewares/AI_Runtime/Npu/ll_aton/ll_sw_float.c ****                           STRIDE_INIT(sw_info->operand2.stride.h, sw_info->operand2.stride.w,
 793:../../Middlewares/AI_Runtime/Npu/ll_aton/ll_sw_float.c ****                                       sw_info->operand2.stride.c, sw_info->operand2.stride.b),
 794:../../Middlewares/AI_Runtime/Npu/ll_aton/ll_sw_float.c ****                           1, &arith_operand_array2, NULL);
 795:../../Middlewares/AI_Runtime/Npu/ll_aton/ll_sw_float.c **** 
 796:../../Middlewares/AI_Runtime/Npu/ll_aton/ll_sw_float.c ****     // LL_ATON_PRINTF("\n\n\n #################### 4 inputs\n\n\n");
 797:../../Middlewares/AI_Runtime/Npu/ll_aton/ll_sw_float.c ****     AI_TENSOR_CHAIN_OBJ_DECLARE(
 798:../../Middlewares/AI_Runtime/Npu/ll_aton/ll_sw_float.c ****         arith_chain, , 4,
 799:../../Middlewares/AI_Runtime/Npu/ll_aton/ll_sw_float.c ****         AI_TENSOR_LIST_OBJ_INIT(AI_FLAG_NONE, 4,
 800:../../Middlewares/AI_Runtime/Npu/ll_aton/ll_sw_float.c ****                                 TENSORS(&input_output, &arith_operand, &arith_operand1, &arith_oper
 801:../../Middlewares/AI_Runtime/Npu/ll_aton/ll_sw_float.c ****         AI_TENSOR_LIST_OBJ_INIT(AI_FLAG_NONE, 1, TENSORS(&arith_output)), AI_TENSOR_LIST_OBJ_EMPTY,
 802:../../Middlewares/AI_Runtime/Npu/ll_aton/ll_sw_float.c ****         AI_TENSOR_LIST_OBJ_EMPTY);
 803:../../Middlewares/AI_Runtime/Npu/ll_aton/ll_sw_float.c ****     AI_LAYER_OBJ_DECLARE(eltwise_layer, 2, ELTWISE_TYPE, 0x0, NULL, eltwise, forward_eltwise, &arit
 804:../../Middlewares/AI_Runtime/Npu/ll_aton/ll_sw_float.c ****                          , .operation = op, .buffer_operation = buffer_op)
 805:../../Middlewares/AI_Runtime/Npu/ll_aton/ll_sw_float.c ****     eltwise_layer.forward(AI_LAYER_OBJ(&eltwise_layer));
 806:../../Middlewares/AI_Runtime/Npu/ll_aton/ll_sw_float.c ****   }
 807:../../Middlewares/AI_Runtime/Npu/ll_aton/ll_sw_float.c ****   else if (sw_info->general.type == LL_SW_ARITHSUM && sw_info->num_of_inputs == 3)
 2854              		.loc 1 807 8 view .LVU732
 2855              	.L78:
 2856              	.LBB49:
 808:../../Middlewares/AI_Runtime/Npu/ll_aton/ll_sw_float.c ****   {
 809:../../Middlewares/AI_Runtime/Npu/ll_aton/ll_sw_float.c ****     AI_ARRAY_OBJ_DECLARE(arith_operand_array1, FORMAT, sw_info->operand1.mem.start_offset,
 810:../../Middlewares/AI_Runtime/Npu/ll_aton/ll_sw_float.c ****                          sw_info->operand1.mem.start_offset, sw_info->operand1.dim.num_elem, );
 811:../../Middlewares/AI_Runtime/Npu/ll_aton/ll_sw_float.c ****     AI_TENSOR_OBJ_DECLARE(arith_operand1, , 0x0, 4,
 812:../../Middlewares/AI_Runtime/Npu/ll_aton/ll_sw_float.c ****                           SHAPE_INIT(sw_info->operand1.dim.tensor_h, sw_info->operand1.dim.tensor_w
 813:../../Middlewares/AI_Runtime/Npu/ll_aton/ll_sw_float.c ****                                      sw_info->operand1.dim.tensor_c, sw_info->operand1.dim.tensor_b
 814:../../Middlewares/AI_Runtime/Npu/ll_aton/ll_sw_float.c ****                           STRIDE_INIT(sw_info->operand1.stride.h, sw_info->operand1.stride.w,
 815:../../Middlewares/AI_Runtime/Npu/ll_aton/ll_sw_float.c ****                                       sw_info->operand1.stride.c, sw_info->operand1.stride.b),
 816:../../Middlewares/AI_Runtime/Npu/ll_aton/ll_sw_float.c ****                           1, &arith_operand_array1, NULL);
 817:../../Middlewares/AI_Runtime/Npu/ll_aton/ll_sw_float.c ****     // LL_ATON_PRINTF("\n\n\n #################### 3 inputs\n\n\n");
 818:../../Middlewares/AI_Runtime/Npu/ll_aton/ll_sw_float.c ****     AI_TENSOR_CHAIN_OBJ_DECLARE(
 819:../../Middlewares/AI_Runtime/Npu/ll_aton/ll_sw_float.c ****         arith_chain, , 4,
 820:../../Middlewares/AI_Runtime/Npu/ll_aton/ll_sw_float.c ****         AI_TENSOR_LIST_OBJ_INIT(AI_FLAG_NONE, 3, TENSORS(&input_output, &arith_operand, &arith_oper
 821:../../Middlewares/AI_Runtime/Npu/ll_aton/ll_sw_float.c ****         AI_TENSOR_LIST_OBJ_INIT(AI_FLAG_NONE, 1, TENSORS(&arith_output)), AI_TENSOR_LIST_OBJ_EMPTY,
 822:../../Middlewares/AI_Runtime/Npu/ll_aton/ll_sw_float.c ****         AI_TENSOR_LIST_OBJ_EMPTY);
 823:../../Middlewares/AI_Runtime/Npu/ll_aton/ll_sw_float.c ****     AI_LAYER_OBJ_DECLARE(eltwise_layer, 2, ELTWISE_TYPE, 0x0, NULL, eltwise, forward_eltwise, &arit
 824:../../Middlewares/AI_Runtime/Npu/ll_aton/ll_sw_float.c ****                          , .operation = op, .buffer_operation = buffer_op)
 825:../../Middlewares/AI_Runtime/Npu/ll_aton/ll_sw_float.c ****     eltwise_layer.forward(AI_LAYER_OBJ(&eltwise_layer));
 826:../../Middlewares/AI_Runtime/Npu/ll_aton/ll_sw_float.c ****   }
 827:../../Middlewares/AI_Runtime/Npu/ll_aton/ll_sw_float.c ****   else
 828:../../Middlewares/AI_Runtime/Npu/ll_aton/ll_sw_float.c ****   {
 829:../../Middlewares/AI_Runtime/Npu/ll_aton/ll_sw_float.c ****     // LL_ATON_PRINTF("\n\n\n #################### 2 inputs\n\n\n");
 830:../../Middlewares/AI_Runtime/Npu/ll_aton/ll_sw_float.c ****     AI_TENSOR_CHAIN_OBJ_DECLARE(arith_chain, , 4,
 2857              		.loc 1 830 5 view .LVU733
 2858 0116 0423     		movs	r3, #4
 2859 0118 5B93     		str	r3, [sp, #364]
 2860 011a 0223     		movs	r3, #2
 2861 011c 7293     		str	r3, [sp, #456]
 2862 011e 0023     		movs	r3, #0
 2863 0120 0125     		movs	r5, #1
 2864 0122 CDE97923 		strd	r2, r3, [sp, #484]
 2865 0126 1360     		str	r3, [r2]
 2866 0128 42AA     		add	r2, sp, #264
 2867 012a CDE97C23 		strd	r2, r3, [sp, #496]
 2868 012e 72AA     		add	r2, sp, #456
 2869 0130 5C92     		str	r2, [sp, #368]
 831:../../Middlewares/AI_Runtime/Npu/ll_aton/ll_sw_float.c ****                                 AI_TENSOR_LIST_OBJ_INIT(AI_FLAG_NONE, 2, TENSORS(&input_output, &ar
ARM GAS  C:\Users\Antonio\AppData\Local\Temp\cc6EBOZH.s 			page 74


 832:../../Middlewares/AI_Runtime/Npu/ll_aton/ll_sw_float.c ****                                 AI_TENSOR_LIST_OBJ_INIT(AI_FLAG_NONE, 1, TENSORS(&arith_output)),
 833:../../Middlewares/AI_Runtime/Npu/ll_aton/ll_sw_float.c ****                                 AI_TENSOR_LIST_OBJ_EMPTY, AI_TENSOR_LIST_OBJ_EMPTY);
 2870              		.loc 1 833 84 view .LVU734
 834:../../Middlewares/AI_Runtime/Npu/ll_aton/ll_sw_float.c ****     AI_LAYER_OBJ_DECLARE(eltwise_layer, 2, ELTWISE_TYPE, 0x0, NULL, eltwise, forward_eltwise, &arit
 2871              		.loc 1 834 5 view .LVU735
 2872 0132 5A4A     		ldr	r2, .L85+12
 830:../../Middlewares/AI_Runtime/Npu/ll_aton/ll_sw_float.c ****                                 AI_TENSOR_LIST_OBJ_INIT(AI_FLAG_NONE, 2, TENSORS(&input_output, &ar
 2873              		.loc 1 830 5 is_stmt 0 view .LVU736
 2874 0134 CDE97435 		strd	r3, r5, [sp, #464]
 2875 0138 CDE97613 		strd	r1, r3, [sp, #472]
 2876              		.loc 1 834 5 view .LVU737
 2877 013c CDE96923 		strd	r2, r3, [sp, #420]
 2878 0140 CDE96B33 		strd	r3, r3, [sp, #428]
 830:../../Middlewares/AI_Runtime/Npu/ll_aton/ll_sw_float.c ****                                 AI_TENSOR_LIST_OBJ_INIT(AI_FLAG_NONE, 2, TENSORS(&input_output, &ar
 2879              		.loc 1 830 5 view .LVU738
 2880 0144 7893     		str	r3, [sp, #480]
 2881 0146 7B93     		str	r3, [sp, #492]
 2882 0148 4293     		str	r3, [sp, #264]
 2883              		.loc 1 834 5 view .LVU739
 2884 014a 6D93     		str	r3, [sp, #436]
 2885 014c 544B     		ldr	r3, .L85+16
 830:../../Middlewares/AI_Runtime/Npu/ll_aton/ll_sw_float.c ****                                 AI_TENSOR_LIST_OBJ_INIT(AI_FLAG_NONE, 2, TENSORS(&input_output, &ar
 2886              		.loc 1 830 5 view .LVU740
 2887 014e 54AD     		add	r5, sp, #336
 2888              		.loc 1 834 5 view .LVU741
 2889 0150 6E93     		str	r3, [sp, #440]
 2890 0152 5BAB     		add	r3, sp, #364
 830:../../Middlewares/AI_Runtime/Npu/ll_aton/ll_sw_float.c ****                                 AI_TENSOR_LIST_OBJ_INIT(AI_FLAG_NONE, 2, TENSORS(&input_output, &ar
 2891              		.loc 1 830 5 view .LVU742
 2892 0154 CDE962BA 		strd	fp, r10, [sp, #392]
 2893              		.loc 1 834 5 view .LVU743
 2894 0158 CDE96F34 		strd	r3, r4, [sp, #444]
 830:../../Middlewares/AI_Runtime/Npu/ll_aton/ll_sw_float.c ****                                 AI_TENSOR_LIST_OBJ_INIT(AI_FLAG_NONE, 2, TENSORS(&input_output, &ar
 2895              		.loc 1 830 5 view .LVU744
 2896 015c CDF8CC91 		str	r9, [sp, #460]
 2897 0160 0D60     		str	r5, [r1]
 2898              		.loc 1 834 5 view .LVU745
 2899 0162 7190     		str	r0, [sp, #452]
 2900 0164 8EE0     		b	.L83
 2901              	.LVL146:
 2902              	.L77:
 2903              		.loc 1 834 5 view .LVU746
 2904              	.LBE49:
 777:../../Middlewares/AI_Runtime/Npu/ll_aton/ll_sw_float.c ****   {
 2905              		.loc 1 777 3 is_stmt 1 view .LVU747
 777:../../Middlewares/AI_Runtime/Npu/ll_aton/ll_sw_float.c ****   {
 2906              		.loc 1 777 6 is_stmt 0 view .LVU748
 2907 0166 BEF10D0F 		cmp	lr, #13
 2908 016a 40F0EC80 		bne	.L82
 777:../../Middlewares/AI_Runtime/Npu/ll_aton/ll_sw_float.c ****   {
 2909              		.loc 1 777 57 discriminator 1 view .LVU749
 2910 016e D0F8E0C0 		ldr	ip, [r0, #224]
 777:../../Middlewares/AI_Runtime/Npu/ll_aton/ll_sw_float.c ****   {
 2911              		.loc 1 777 47 discriminator 1 view .LVU750
 2912 0172 BCF1040F 		cmp	ip, #4
 2913 0176 40F09980 		bne	.L79
 2914              	.LBB50:
ARM GAS  C:\Users\Antonio\AppData\Local\Temp\cc6EBOZH.s 			page 75


 779:../../Middlewares/AI_Runtime/Npu/ll_aton/ll_sw_float.c ****                          sw_info->operand1.mem.start_offset, sw_info->operand1.dim.num_elem, );
 2915              		.loc 1 779 5 is_stmt 1 view .LVU751
 2916 017a D0F89850 		ldr	r5, [r0, #152]
 2917 017e 2A97     		str	r7, [sp, #168]
 2918 0180 2B95     		str	r5, [sp, #172]
 783:../../Middlewares/AI_Runtime/Npu/ll_aton/ll_sw_float.c ****                           SHAPE_INIT(sw_info->operand1.dim.tensor_h, sw_info->operand1.dim.tensor_w
 2919              		.loc 1 783 5 is_stmt 0 view .LVU752
 2920 0182 40F20145 		movw	r5, #1025
 2921 0186 5D95     		str	r5, [sp, #372]
 2922 0188 D0F89450 		ldr	r5, [r0, #148]
 781:../../Middlewares/AI_Runtime/Npu/ll_aton/ll_sw_float.c ****                          sw_info->operand2.mem.start_offset, sw_info->operand2.dim.num_elem, );
 2923              		.loc 1 781 5 view .LVU753
 2924 018c 2E97     		str	r7, [sp, #184]
 783:../../Middlewares/AI_Runtime/Npu/ll_aton/ll_sw_float.c ****                           SHAPE_INIT(sw_info->operand1.dim.tensor_h, sw_info->operand1.dim.tensor_w
 2925              		.loc 1 783 5 view .LVU754
 2926 018e 3295     		str	r5, [sp, #200]
 2927 0190 D0F89050 		ldr	r5, [r0, #144]
 781:../../Middlewares/AI_Runtime/Npu/ll_aton/ll_sw_float.c ****                          sw_info->operand2.mem.start_offset, sw_info->operand2.dim.num_elem, );
 2928              		.loc 1 781 5 view .LVU755
 2929 0194 D0F8C470 		ldr	r7, [r0, #196]
 783:../../Middlewares/AI_Runtime/Npu/ll_aton/ll_sw_float.c ****                           SHAPE_INIT(sw_info->operand1.dim.tensor_h, sw_info->operand1.dim.tensor_w
 2930              		.loc 1 783 5 view .LVU756
 2931 0198 3395     		str	r5, [sp, #204]
 2932 019a D0F88C50 		ldr	r5, [r0, #140]
 781:../../Middlewares/AI_Runtime/Npu/ll_aton/ll_sw_float.c ****                          sw_info->operand2.mem.start_offset, sw_info->operand2.dim.num_elem, );
 2933              		.loc 1 781 5 view .LVU757
 2934 019e 2F97     		str	r7, [sp, #188]
 783:../../Middlewares/AI_Runtime/Npu/ll_aton/ll_sw_float.c ****                           SHAPE_INIT(sw_info->operand1.dim.tensor_h, sw_info->operand1.dim.tensor_w
 2935              		.loc 1 783 5 view .LVU758
 2936 01a0 3495     		str	r5, [sp, #208]
 2937 01a2 D0F88850 		ldr	r5, [r0, #136]
 781:../../Middlewares/AI_Runtime/Npu/ll_aton/ll_sw_float.c ****                          sw_info->operand2.mem.start_offset, sw_info->operand2.dim.num_elem, );
 2938              		.loc 1 781 5 view .LVU759
 2939 01a6 D0F8D870 		ldr	r7, [r0, #216]
 783:../../Middlewares/AI_Runtime/Npu/ll_aton/ll_sw_float.c ****                           SHAPE_INIT(sw_info->operand1.dim.tensor_h, sw_info->operand1.dim.tensor_w
 2940              		.loc 1 783 5 view .LVU760
 2941 01aa 3595     		str	r5, [sp, #212]
 2942 01ac D0F8A850 		ldr	r5, [r0, #168]
 779:../../Middlewares/AI_Runtime/Npu/ll_aton/ll_sw_float.c ****                          sw_info->operand1.mem.start_offset, sw_info->operand1.dim.num_elem, );
 2943              		.loc 1 779 5 view .LVU761
 2944 01b0 D0F8ACE0 		ldr	lr, [r0, #172]
 783:../../Middlewares/AI_Runtime/Npu/ll_aton/ll_sw_float.c ****                           SHAPE_INIT(sw_info->operand1.dim.tensor_h, sw_info->operand1.dim.tensor_w
 2945              		.loc 1 783 5 view .LVU762
 2946 01b4 3695     		str	r5, [sp, #216]
 2947 01b6 D0F8A450 		ldr	r5, [r0, #164]
 781:../../Middlewares/AI_Runtime/Npu/ll_aton/ll_sw_float.c ****                          sw_info->operand2.mem.start_offset, sw_info->operand2.dim.num_elem, );
 2948              		.loc 1 781 5 view .LVU763
 2949 01ba CDE93077 		strd	r7, r7, [sp, #192]
 783:../../Middlewares/AI_Runtime/Npu/ll_aton/ll_sw_float.c ****                           SHAPE_INIT(sw_info->operand1.dim.tensor_h, sw_info->operand1.dim.tensor_w
 2950              		.loc 1 783 5 view .LVU764
 2951 01be 3795     		str	r5, [sp, #220]
 2952 01c0 D0F8A050 		ldr	r5, [r0, #160]
 2953 01c4 32AF     		add	r7, sp, #200
 2954 01c6 3895     		str	r5, [sp, #224]
 2955 01c8 D0F89C50 		ldr	r5, [r0, #156]
 779:../../Middlewares/AI_Runtime/Npu/ll_aton/ll_sw_float.c ****                          sw_info->operand1.mem.start_offset, sw_info->operand1.dim.num_elem, );
 2956              		.loc 1 779 5 view .LVU765
ARM GAS  C:\Users\Antonio\AppData\Local\Temp\cc6EBOZH.s 			page 76


 2957 01cc CDE92CEE 		strd	lr, lr, [sp, #176]
 780:../../Middlewares/AI_Runtime/Npu/ll_aton/ll_sw_float.c ****     AI_ARRAY_OBJ_DECLARE(arith_operand_array2, FORMAT, sw_info->operand2.mem.start_offset,
 2958              		.loc 1 780 95 is_stmt 1 view .LVU766
 781:../../Middlewares/AI_Runtime/Npu/ll_aton/ll_sw_float.c ****                          sw_info->operand2.mem.start_offset, sw_info->operand2.dim.num_elem, );
 2959              		.loc 1 781 5 view .LVU767
 782:../../Middlewares/AI_Runtime/Npu/ll_aton/ll_sw_float.c ****     AI_TENSOR_OBJ_DECLARE(arith_operand1, , 0x0, 4,
 2960              		.loc 1 782 95 view .LVU768
 783:../../Middlewares/AI_Runtime/Npu/ll_aton/ll_sw_float.c ****                           SHAPE_INIT(sw_info->operand1.dim.tensor_h, sw_info->operand1.dim.tensor_w
 2961              		.loc 1 783 5 view .LVU769
 2962 01d0 CDE95E74 		strd	r7, r4, [sp, #376]
 2963 01d4 CDE95B36 		strd	r3, r6, [sp, #364]
 2964 01d8 3995     		str	r5, [sp, #228]
 789:../../Middlewares/AI_Runtime/Npu/ll_aton/ll_sw_float.c ****                           SHAPE_INIT(sw_info->operand2.dim.tensor_h, sw_info->operand2.dim.tensor_w
 2965              		.loc 1 789 5 is_stmt 0 view .LVU770
 2966 01da 40F20145 		movw	r5, #1025
 2967 01de 6495     		str	r5, [sp, #400]
 2968 01e0 D0F8C050 		ldr	r5, [r0, #192]
 2969 01e4 CDE96514 		strd	r1, r4, [sp, #404]
 2970 01e8 0D60     		str	r5, [r1]
 2971 01ea D0F8BC50 		ldr	r5, [r0, #188]
 779:../../Middlewares/AI_Runtime/Npu/ll_aton/ll_sw_float.c ****                          sw_info->operand1.mem.start_offset, sw_info->operand1.dim.num_elem, );
 2972              		.loc 1 779 5 view .LVU771
 2973 01ee 0DF1A808 		add	r8, sp, #168
 789:../../Middlewares/AI_Runtime/Npu/ll_aton/ll_sw_float.c ****                           SHAPE_INIT(sw_info->operand2.dim.tensor_h, sw_info->operand2.dim.tensor_w
 2974              		.loc 1 789 5 view .LVU772
 2975 01f2 4D60     		str	r5, [r1, #4]
 2976 01f4 D0F8B850 		ldr	r5, [r0, #184]
 781:../../Middlewares/AI_Runtime/Npu/ll_aton/ll_sw_float.c ****                          sw_info->operand2.mem.start_offset, sw_info->operand2.dim.num_elem, );
 2977              		.loc 1 781 5 view .LVU773
 2978 01f8 0DF1B80E 		add	lr, sp, #184
 789:../../Middlewares/AI_Runtime/Npu/ll_aton/ll_sw_float.c ****                           SHAPE_INIT(sw_info->operand2.dim.tensor_h, sw_info->operand2.dim.tensor_w
 2979              		.loc 1 789 5 view .LVU774
 2980 01fc 8D60     		str	r5, [r1, #8]
 2981 01fe D0F8B450 		ldr	r5, [r0, #180]
 783:../../Middlewares/AI_Runtime/Npu/ll_aton/ll_sw_float.c ****                           SHAPE_INIT(sw_info->operand1.dim.tensor_h, sw_info->operand1.dim.tensor_w
 2982              		.loc 1 783 5 view .LVU775
 2983 0202 36AF     		add	r7, sp, #216
 789:../../Middlewares/AI_Runtime/Npu/ll_aton/ll_sw_float.c ****                           SHAPE_INIT(sw_info->operand2.dim.tensor_h, sw_info->operand2.dim.tensor_w
 2984              		.loc 1 789 5 view .LVU776
 2985 0204 CD60     		str	r5, [r1, #12]
 2986 0206 D0F8D410 		ldr	r1, [r0, #212]
 2987 020a CDE9672E 		strd	r2, lr, [sp, #412]
 2988 020e 1160     		str	r1, [r2]
 2989 0210 D0F8D010 		ldr	r1, [r0, #208]
 783:../../Middlewares/AI_Runtime/Npu/ll_aton/ll_sw_float.c ****                           SHAPE_INIT(sw_info->operand1.dim.tensor_h, sw_info->operand1.dim.tensor_w
 2990              		.loc 1 783 5 view .LVU777
 2991 0214 CDE96078 		strd	r7, r8, [sp, #384]
 788:../../Middlewares/AI_Runtime/Npu/ll_aton/ll_sw_float.c ****     AI_TENSOR_OBJ_DECLARE(arith_operand2, , 0x0, 4,
 2992              		.loc 1 788 58 is_stmt 1 view .LVU778
 789:../../Middlewares/AI_Runtime/Npu/ll_aton/ll_sw_float.c ****                           SHAPE_INIT(sw_info->operand2.dim.tensor_h, sw_info->operand2.dim.tensor_w
 2993              		.loc 1 789 5 view .LVU779
 794:../../Middlewares/AI_Runtime/Npu/ll_aton/ll_sw_float.c **** 
 2994              		.loc 1 794 58 view .LVU780
 797:../../Middlewares/AI_Runtime/Npu/ll_aton/ll_sw_float.c ****         arith_chain, , 4,
 2995              		.loc 1 797 5 view .LVU781
 789:../../Middlewares/AI_Runtime/Npu/ll_aton/ll_sw_float.c ****                           SHAPE_INIT(sw_info->operand2.dim.tensor_h, sw_info->operand2.dim.tensor_w
 2996              		.loc 1 789 5 is_stmt 0 view .LVU782
ARM GAS  C:\Users\Antonio\AppData\Local\Temp\cc6EBOZH.s 			page 77


 2997 0218 5160     		str	r1, [r2, #4]
 2998 021a D0F8CC10 		ldr	r1, [r0, #204]
 2999 021e CDE96236 		strd	r3, r6, [sp, #392]
 3000 0222 9160     		str	r1, [r2, #8]
 3001 0224 D0F8C810 		ldr	r1, [r0, #200]
 797:../../Middlewares/AI_Runtime/Npu/ll_aton/ll_sw_float.c ****         arith_chain, , 4,
 3002              		.loc 1 797 5 view .LVU783
 3003 0228 CDE942BA 		strd	fp, r10, [sp, #264]
 789:../../Middlewares/AI_Runtime/Npu/ll_aton/ll_sw_float.c ****                           SHAPE_INIT(sw_info->operand2.dim.tensor_h, sw_info->operand2.dim.tensor_w
 3004              		.loc 1 789 5 view .LVU784
 3005 022c D160     		str	r1, [r2, #12]
 797:../../Middlewares/AI_Runtime/Npu/ll_aton/ll_sw_float.c ****         arith_chain, , 4,
 3006              		.loc 1 797 5 view .LVU785
 3007 022e 5BA9     		add	r1, sp, #364
 3008 0230 CDE94419 		strd	r1, r9, [sp, #272]
 3009 0234 42A9     		add	r1, sp, #264
 3010 0236 CDF810C0 		str	ip, [sp, #16]
 3011 023a CDF8C8C1 		str	ip, [sp, #456]
 3012 023e CDE97313 		strd	r1, r3, [sp, #460]
 3013 0242 0121     		movs	r1, #1
 3014 0244 7591     		str	r1, [sp, #468]
 3015 0246 01A9     		add	r1, sp, #4
 3016 0248 CDE97613 		strd	r1, r3, [sp, #472]
 3017 024c 02A9     		add	r1, sp, #8
 3018 024e CDE97913 		strd	r1, r3, [sp, #484]
 3019 0252 03A9     		add	r1, sp, #12
 3020 0254 CDE97C13 		strd	r1, r3, [sp, #496]
 3021 0258 54A8     		add	r0, sp, #336
 3022              	.LVL147:
 797:../../Middlewares/AI_Runtime/Npu/ll_aton/ll_sw_float.c ****         arith_chain, , 4,
 3023              		.loc 1 797 5 view .LVU786
 3024 025a 72A9     		add	r1, sp, #456
 3025 025c 04AA     		add	r2, sp, #16
 3026 025e 0190     		str	r0, [sp, #4]
 3027 0260 7893     		str	r3, [sp, #480]
 3028 0262 0293     		str	r3, [sp, #8]
 3029 0264 7B93     		str	r3, [sp, #492]
 3030 0266 0393     		str	r3, [sp, #12]
 3031 0268 0591     		str	r1, [sp, #20]
 802:../../Middlewares/AI_Runtime/Npu/ll_aton/ll_sw_float.c ****     AI_LAYER_OBJ_DECLARE(eltwise_layer, 2, ELTWISE_TYPE, 0x0, NULL, eltwise, forward_eltwise, &arit
 3032              		.loc 1 802 34 is_stmt 1 view .LVU787
 803:../../Middlewares/AI_Runtime/Npu/ll_aton/ll_sw_float.c ****                          , .operation = op, .buffer_operation = buffer_op)
 3033              		.loc 1 803 5 view .LVU788
 3034              	.L84:
 3035              	.LBE50:
 3036              	.LBB51:
 822:../../Middlewares/AI_Runtime/Npu/ll_aton/ll_sw_float.c ****     AI_LAYER_OBJ_DECLARE(eltwise_layer, 2, ELTWISE_TYPE, 0x0, NULL, eltwise, forward_eltwise, &arit
 3037              		.loc 1 822 34 view .LVU789
 823:../../Middlewares/AI_Runtime/Npu/ll_aton/ll_sw_float.c ****                          , .operation = op, .buffer_operation = buffer_op)
 3038              		.loc 1 823 5 view .LVU790
 3039 026a 0C49     		ldr	r1, .L85+12
 3040 026c CDE96B33 		strd	r3, r3, [sp, #428]
 3041 0270 CDE96913 		strd	r1, r3, [sp, #420]
 3042 0274 6D93     		str	r3, [sp, #436]
 3043 0276 0A4B     		ldr	r3, .L85+16
 3044 0278 CDE96E32 		strd	r3, r2, [sp, #440]
 3045 027c 094B     		ldr	r3, .L85+20
ARM GAS  C:\Users\Antonio\AppData\Local\Temp\cc6EBOZH.s 			page 78


 3046 027e 7093     		str	r3, [sp, #448]
 3047 0280 094B     		ldr	r3, .L85+24
 3048 0282 7193     		str	r3, [sp, #452]
 825:../../Middlewares/AI_Runtime/Npu/ll_aton/ll_sw_float.c ****   }
 3049              		.loc 1 825 5 view .LVU791
 3050              	.L83:
 825:../../Middlewares/AI_Runtime/Npu/ll_aton/ll_sw_float.c ****   }
 3051              		.loc 1 825 5 is_stmt 0 view .LVU792
 3052              	.LBE51:
 3053              	.LBB52:
 835:../../Middlewares/AI_Runtime/Npu/ll_aton/ll_sw_float.c ****                          , .operation = op, .buffer_operation = buffer_op)
 836:../../Middlewares/AI_Runtime/Npu/ll_aton/ll_sw_float.c ****     eltwise_layer.forward(AI_LAYER_OBJ(&eltwise_layer));
 3054              		.loc 1 836 5 is_stmt 1 view .LVU793
 3055 0284 69A8     		add	r0, sp, #420
 3056 0286 FFF7FEFF 		bl	forward_eltwise
 3057              	.LVL148:
 3058              	.LBE52:
 837:../../Middlewares/AI_Runtime/Npu/ll_aton/ll_sw_float.c ****   }
 838:../../Middlewares/AI_Runtime/Npu/ll_aton/ll_sw_float.c **** }
 3059              		.loc 1 838 1 is_stmt 0 view .LVU794
 3060 028a 7FB0     		add	sp, sp, #508
 3061              		.cfi_remember_state
 3062              		.cfi_def_cfa_offset 36
 3063              		@ sp needed
 3064 028c BDE8F08F 		pop	{r4, r5, r6, r7, r8, r9, r10, fp, pc}
 3065              	.L86:
 3066              		.align	2
 3067              	.L85:
 3068 0290 40108200 		.word	8523840
 3069 0294 00000000 		.word	CSWTCH.13
 3070 0298 00000000 		.word	CSWTCH.14
 3071 029c 13010200 		.word	131347
 3072 02a0 00000000 		.word	forward_eltwise
 3073 02a4 00000000 		.word	ai_sum
 3074 02a8 00000000 		.word	ai_sum_buffer
 3075              	.LVL149:
 3076              	.L79:
 3077              		.cfi_restore_state
 807:../../Middlewares/AI_Runtime/Npu/ll_aton/ll_sw_float.c ****   {
 3078              		.loc 1 807 52 discriminator 1 view .LVU795
 3079 02ac BCF1030F 		cmp	ip, #3
 3080 02b0 49D1     		bne	.L82
 3081              	.LBB53:
 809:../../Middlewares/AI_Runtime/Npu/ll_aton/ll_sw_float.c ****                          sw_info->operand1.mem.start_offset, sw_info->operand1.dim.num_elem, );
 3082              		.loc 1 809 5 is_stmt 1 view .LVU796
 811:../../Middlewares/AI_Runtime/Npu/ll_aton/ll_sw_float.c ****                           SHAPE_INIT(sw_info->operand1.dim.tensor_h, sw_info->operand1.dim.tensor_w
 3083              		.loc 1 811 5 is_stmt 0 view .LVU797
 3084 02b2 40F20145 		movw	r5, #1025
 3085 02b6 6495     		str	r5, [sp, #400]
 3086 02b8 D0F89450 		ldr	r5, [r0, #148]
 809:../../Middlewares/AI_Runtime/Npu/ll_aton/ll_sw_float.c ****                          sw_info->operand1.mem.start_offset, sw_info->operand1.dim.num_elem, );
 3087              		.loc 1 809 5 view .LVU798
 3088 02bc 1760     		str	r7, [r2]
 811:../../Middlewares/AI_Runtime/Npu/ll_aton/ll_sw_float.c ****                           SHAPE_INIT(sw_info->operand1.dim.tensor_h, sw_info->operand1.dim.tensor_w
 3089              		.loc 1 811 5 view .LVU799
 3090 02be 4295     		str	r5, [sp, #264]
 3091 02c0 D0F89050 		ldr	r5, [r0, #144]
ARM GAS  C:\Users\Antonio\AppData\Local\Temp\cc6EBOZH.s 			page 79


 809:../../Middlewares/AI_Runtime/Npu/ll_aton/ll_sw_float.c ****                          sw_info->operand1.mem.start_offset, sw_info->operand1.dim.num_elem, );
 3092              		.loc 1 809 5 view .LVU800
 3093 02c4 D0F89870 		ldr	r7, [r0, #152]
 811:../../Middlewares/AI_Runtime/Npu/ll_aton/ll_sw_float.c ****                           SHAPE_INIT(sw_info->operand1.dim.tensor_h, sw_info->operand1.dim.tensor_w
 3094              		.loc 1 811 5 view .LVU801
 3095 02c8 4395     		str	r5, [sp, #268]
 3096 02ca D0F88C50 		ldr	r5, [r0, #140]
 809:../../Middlewares/AI_Runtime/Npu/ll_aton/ll_sw_float.c ****                          sw_info->operand1.mem.start_offset, sw_info->operand1.dim.num_elem, );
 3097              		.loc 1 809 5 view .LVU802
 3098 02ce 5760     		str	r7, [r2, #4]
 811:../../Middlewares/AI_Runtime/Npu/ll_aton/ll_sw_float.c ****                           SHAPE_INIT(sw_info->operand1.dim.tensor_h, sw_info->operand1.dim.tensor_w
 3099              		.loc 1 811 5 view .LVU803
 3100 02d0 4495     		str	r5, [sp, #272]
 3101 02d2 D0F88850 		ldr	r5, [r0, #136]
 809:../../Middlewares/AI_Runtime/Npu/ll_aton/ll_sw_float.c ****                          sw_info->operand1.mem.start_offset, sw_info->operand1.dim.num_elem, );
 3102              		.loc 1 809 5 view .LVU804
 3103 02d6 D0F8AC70 		ldr	r7, [r0, #172]
 811:../../Middlewares/AI_Runtime/Npu/ll_aton/ll_sw_float.c ****                           SHAPE_INIT(sw_info->operand1.dim.tensor_h, sw_info->operand1.dim.tensor_w
 3104              		.loc 1 811 5 view .LVU805
 3105 02da 4595     		str	r5, [sp, #276]
 3106 02dc 42AD     		add	r5, sp, #264
 3107 02de CDE96554 		strd	r5, r4, [sp, #404]
 3108 02e2 D0F8A840 		ldr	r4, [r0, #168]
 809:../../Middlewares/AI_Runtime/Npu/ll_aton/ll_sw_float.c ****                          sw_info->operand1.mem.start_offset, sw_info->operand1.dim.num_elem, );
 3109              		.loc 1 809 5 view .LVU806
 3110 02e6 C2E90277 		strd	r7, r7, [r2, #8]
 810:../../Middlewares/AI_Runtime/Npu/ll_aton/ll_sw_float.c ****     AI_TENSOR_OBJ_DECLARE(arith_operand1, , 0x0, 4,
 3111              		.loc 1 810 95 is_stmt 1 view .LVU807
 811:../../Middlewares/AI_Runtime/Npu/ll_aton/ll_sw_float.c ****                           SHAPE_INIT(sw_info->operand1.dim.tensor_h, sw_info->operand1.dim.tensor_w
 3112              		.loc 1 811 5 view .LVU808
 3113 02ea 5B94     		str	r4, [sp, #364]
 3114 02ec D0F8A440 		ldr	r4, [r0, #164]
 3115 02f0 CDE96236 		strd	r3, r6, [sp, #392]
 3116 02f4 5C94     		str	r4, [sp, #368]
 3117 02f6 D0F8A040 		ldr	r4, [r0, #160]
 3118 02fa D0F89C00 		ldr	r0, [r0, #156]
 3119              	.LVL150:
 811:../../Middlewares/AI_Runtime/Npu/ll_aton/ll_sw_float.c ****                           SHAPE_INIT(sw_info->operand1.dim.tensor_h, sw_info->operand1.dim.tensor_w
 3120              		.loc 1 811 5 is_stmt 0 view .LVU809
 3121 02fe 5D94     		str	r4, [sp, #372]
 3122 0300 5E90     		str	r0, [sp, #376]
 3123 0302 5BA8     		add	r0, sp, #364
 3124 0304 CDE96702 		strd	r0, r2, [sp, #412]
 816:../../Middlewares/AI_Runtime/Npu/ll_aton/ll_sw_float.c ****     // LL_ATON_PRINTF("\n\n\n #################### 3 inputs\n\n\n");
 3125              		.loc 1 816 58 is_stmt 1 view .LVU810
 818:../../Middlewares/AI_Runtime/Npu/ll_aton/ll_sw_float.c ****         arith_chain, , 4,
 3126              		.loc 1 818 5 view .LVU811
 3127 0308 0420     		movs	r0, #4
 3128 030a CDF8C8C1 		str	ip, [sp, #456]
 3129 030e 3690     		str	r0, [sp, #216]
 3130 0310 C1E900BA 		strd	fp, r10, [r1]
 3131 0314 CDE97313 		strd	r1, r3, [sp, #460]
 3132 0318 C1F80890 		str	r9, [r1, #8]
 3133 031c 0121     		movs	r1, #1
 3134 031e 7591     		str	r1, [sp, #468]
 3135 0320 2AA9     		add	r1, sp, #168
 3136 0322 CDE97613 		strd	r1, r3, [sp, #472]
ARM GAS  C:\Users\Antonio\AppData\Local\Temp\cc6EBOZH.s 			page 80


 3137 0326 2EA9     		add	r1, sp, #184
 3138 0328 CDE97913 		strd	r1, r3, [sp, #484]
 3139 032c 32A9     		add	r1, sp, #200
 3140 032e CDE97C13 		strd	r1, r3, [sp, #496]
 3141 0332 54A8     		add	r0, sp, #336
 3142 0334 72A9     		add	r1, sp, #456
 3143 0336 36AA     		add	r2, sp, #216
 3144 0338 2A90     		str	r0, [sp, #168]
 3145 033a 7893     		str	r3, [sp, #480]
 3146 033c 2E93     		str	r3, [sp, #184]
 3147 033e 7B93     		str	r3, [sp, #492]
 3148 0340 3293     		str	r3, [sp, #200]
 3149 0342 3791     		str	r1, [sp, #220]
 3150 0344 91E7     		b	.L84
 3151              	.LVL151:
 3152              	.L82:
 818:../../Middlewares/AI_Runtime/Npu/ll_aton/ll_sw_float.c ****         arith_chain, , 4,
 3153              		.loc 1 818 5 is_stmt 0 view .LVU812
 3154              	.LBE53:
 3155 0346 0148     		ldr	r0, .L87
 3156              	.LVL152:
 818:../../Middlewares/AI_Runtime/Npu/ll_aton/ll_sw_float.c ****         arith_chain, , 4,
 3157              		.loc 1 818 5 view .LVU813
 3158 0348 014C     		ldr	r4, .L87+4
 3159 034a E4E6     		b	.L78
 3160              	.L88:
 3161              		.align	2
 3162              	.L87:
 3163 034c 00000000 		.word	ai_sum_buffer
 3164 0350 00000000 		.word	ai_sum
 3165              		.cfi_endproc
 3166              	.LFE21:
 3168              		.section	.text.ll_sw_forward_pool,"ax",%progbits
 3169              		.align	1
 3170              		.global	ll_sw_forward_pool
 3171              		.syntax unified
 3172              		.thumb
 3173              		.thumb_func
 3175              	ll_sw_forward_pool:
 3176              	.LVL153:
 3177              	.LFB22:
 839:../../Middlewares/AI_Runtime/Npu/ll_aton/ll_sw_float.c **** 
 840:../../Middlewares/AI_Runtime/Npu/ll_aton/ll_sw_float.c **** //##########################################################################################
 841:../../Middlewares/AI_Runtime/Npu/ll_aton/ll_sw_float.c **** /** pool forward function  */
 842:../../Middlewares/AI_Runtime/Npu/ll_aton/ll_sw_float.c **** void ll_sw_forward_pool(/* int processor, */ void *sw_info_struct)
 843:../../Middlewares/AI_Runtime/Npu/ll_aton/ll_sw_float.c **** {
 3178              		.loc 1 843 1 is_stmt 1 view -0
 3179              		.cfi_startproc
 3180              		@ args = 0, pretend = 0, frame = 296
 3181              		@ frame_needed = 0, uses_anonymous_args = 0
 844:../../Middlewares/AI_Runtime/Npu/ll_aton/ll_sw_float.c ****   Pool_sw_info *sw_info = (Pool_sw_info *)sw_info_struct;
 3182              		.loc 1 844 3 view .LVU815
 845:../../Middlewares/AI_Runtime/Npu/ll_aton/ll_sw_float.c ****   AI_ARRAY_OBJ_DECLARE(input_output_array, FORMAT, sw_info->general.input.mem.start_offset,
 3183              		.loc 1 845 3 view .LVU816
 843:../../Middlewares/AI_Runtime/Npu/ll_aton/ll_sw_float.c ****   Pool_sw_info *sw_info = (Pool_sw_info *)sw_info_struct;
 3184              		.loc 1 843 1 is_stmt 0 view .LVU817
 3185 0000 F0B5     		push	{r4, r5, r6, r7, lr}
ARM GAS  C:\Users\Antonio\AppData\Local\Temp\cc6EBOZH.s 			page 81


 3186              		.cfi_def_cfa_offset 20
 3187              		.cfi_offset 4, -20
 3188              		.cfi_offset 5, -16
 3189              		.cfi_offset 6, -12
 3190              		.cfi_offset 7, -8
 3191              		.cfi_offset 14, -4
 846:../../Middlewares/AI_Runtime/Npu/ll_aton/ll_sw_float.c ****                        sw_info->general.input.mem.start_offset, sw_info->general.input.dim.num_elem
 847:../../Middlewares/AI_Runtime/Npu/ll_aton/ll_sw_float.c ****   AI_ARRAY_OBJ_DECLARE(pool_output_array, FORMAT, sw_info->general.output.mem.start_offset,
 848:../../Middlewares/AI_Runtime/Npu/ll_aton/ll_sw_float.c ****                        sw_info->general.output.mem.start_offset, sw_info->general.output.dim.num_el
 849:../../Middlewares/AI_Runtime/Npu/ll_aton/ll_sw_float.c ****   // tensor init
 850:../../Middlewares/AI_Runtime/Npu/ll_aton/ll_sw_float.c ****   AI_TENSOR_OBJ_DECLARE(input_output, , 0x0, 4,
 3192              		.loc 1 850 3 view .LVU818
 3193 0002 0469     		ldr	r4, [r0, #16]
 843:../../Middlewares/AI_Runtime/Npu/ll_aton/ll_sw_float.c ****   Pool_sw_info *sw_info = (Pool_sw_info *)sw_info_struct;
 3194              		.loc 1 843 1 view .LVU819
 3195 0004 CBB0     		sub	sp, sp, #300
 3196              		.cfi_def_cfa_offset 320
 3197              		.loc 1 850 3 view .LVU820
 3198 0006 0E94     		str	r4, [sp, #56]
 3199 0008 C468     		ldr	r4, [r0, #12]
 845:../../Middlewares/AI_Runtime/Npu/ll_aton/ll_sw_float.c ****                        sw_info->general.input.mem.start_offset, sw_info->general.input.dim.num_elem
 3200              		.loc 1 845 3 view .LVU821
 3201 000a 494B     		ldr	r3, .L93
 3202              		.loc 1 850 3 view .LVU822
 3203 000c 0F94     		str	r4, [sp, #60]
 3204 000e 8468     		ldr	r4, [r0, #8]
 845:../../Middlewares/AI_Runtime/Npu/ll_aton/ll_sw_float.c ****                        sw_info->general.input.mem.start_offset, sw_info->general.input.dim.num_elem
 3205              		.loc 1 845 3 view .LVU823
 3206 0010 0693     		str	r3, [sp, #24]
 847:../../Middlewares/AI_Runtime/Npu/ll_aton/ll_sw_float.c ****                        sw_info->general.output.mem.start_offset, sw_info->general.output.dim.num_el
 3207              		.loc 1 847 3 view .LVU824
 3208 0012 0A93     		str	r3, [sp, #40]
 3209 0014 036C     		ldr	r3, [r0, #64]
 3210              		.loc 1 850 3 view .LVU825
 3211 0016 1094     		str	r4, [sp, #64]
 3212 0018 4468     		ldr	r4, [r0, #4]
 847:../../Middlewares/AI_Runtime/Npu/ll_aton/ll_sw_float.c ****                        sw_info->general.output.mem.start_offset, sw_info->general.output.dim.num_el
 3213              		.loc 1 847 3 view .LVU826
 3214 001a 0B93     		str	r3, [sp, #44]
 3215 001c 436D     		ldr	r3, [r0, #84]
 3216              		.loc 1 850 3 view .LVU827
 3217 001e 1194     		str	r4, [sp, #68]
 3218 0020 0EAC     		add	r4, sp, #56
 3219 0022 4FF08276 		mov	r6, #17039360
 3220 0026 40F20145 		movw	r5, #1025
 847:../../Middlewares/AI_Runtime/Npu/ll_aton/ll_sw_float.c ****                        sw_info->general.output.mem.start_offset, sw_info->general.output.dim.num_el
 3221              		.loc 1 847 3 view .LVU828
 3222 002a CDE90C33 		strd	r3, r3, [sp, #48]
 3223              		.loc 1 850 3 view .LVU829
 3224 002e 2594     		str	r4, [sp, #148]
 3225 0030 0023     		movs	r3, #0
 3226 0032 40F20244 		movw	r4, #1026
 845:../../Middlewares/AI_Runtime/Npu/ll_aton/ll_sw_float.c ****                        sw_info->general.input.mem.start_offset, sw_info->general.input.dim.num_elem
 3227              		.loc 1 845 3 view .LVU830
 3228 0036 4269     		ldr	r2, [r0, #20]
 3229              		.loc 1 850 3 view .LVU831
 3230 0038 476A     		ldr	r7, [r0, #36]
ARM GAS  C:\Users\Antonio\AppData\Local\Temp\cc6EBOZH.s 			page 82


 845:../../Middlewares/AI_Runtime/Npu/ll_aton/ll_sw_float.c ****                        sw_info->general.input.mem.start_offset, sw_info->general.input.dim.num_elem
 3231              		.loc 1 845 3 view .LVU832
 3232 003a 0792     		str	r2, [sp, #28]
 3233              		.loc 1 850 3 view .LVU833
 3234 003c 1297     		str	r7, [sp, #72]
 845:../../Middlewares/AI_Runtime/Npu/ll_aton/ll_sw_float.c ****                        sw_info->general.input.mem.start_offset, sw_info->general.input.dim.num_elem
 3235              		.loc 1 845 3 view .LVU834
 3236 003e 826A     		ldr	r2, [r0, #40]
 3237              		.loc 1 850 3 view .LVU835
 3238 0040 076A     		ldr	r7, [r0, #32]
 3239 0042 2694     		str	r4, [sp, #152]
 845:../../Middlewares/AI_Runtime/Npu/ll_aton/ll_sw_float.c ****                        sw_info->general.input.mem.start_offset, sw_info->general.input.dim.num_elem
 3240              		.loc 1 845 3 view .LVU836
 3241 0044 CDE90822 		strd	r2, r2, [sp, #32]
 847:../../Middlewares/AI_Runtime/Npu/ll_aton/ll_sw_float.c ****                        sw_info->general.output.mem.start_offset, sw_info->general.output.dim.num_el
 3242              		.loc 1 847 3 is_stmt 1 view .LVU837
 3243              		.loc 1 850 3 view .LVU838
 3244 0048 CDE92236 		strd	r3, r6, [sp, #136]
 3245 004c 2495     		str	r5, [sp, #144]
 3246 004e 1397     		str	r7, [sp, #76]
 3247 0050 C769     		ldr	r7, [r0, #28]
 845:../../Middlewares/AI_Runtime/Npu/ll_aton/ll_sw_float.c ****                        sw_info->general.input.mem.start_offset, sw_info->general.input.dim.num_elem
 3248              		.loc 1 845 3 is_stmt 0 view .LVU839
 3249 0052 06A9     		add	r1, sp, #24
 3250              		.loc 1 850 3 view .LVU840
 3251 0054 1497     		str	r7, [sp, #80]
 3252 0056 8769     		ldr	r7, [r0, #24]
 847:../../Middlewares/AI_Runtime/Npu/ll_aton/ll_sw_float.c ****                        sw_info->general.output.mem.start_offset, sw_info->general.output.dim.num_el
 3253              		.loc 1 847 3 view .LVU841
 3254 0058 0AAA     		add	r2, sp, #40
 3255              		.loc 1 850 3 view .LVU842
 3256 005a 1597     		str	r7, [sp, #84]
 3257 005c 12AF     		add	r7, sp, #72
 3258 005e CDE92771 		strd	r7, r1, [sp, #156]
 851:../../Middlewares/AI_Runtime/Npu/ll_aton/ll_sw_float.c ****                         SHAPE_INIT(sw_info->general.input.dim.tensor_h, sw_info->general.input.dim.
 852:../../Middlewares/AI_Runtime/Npu/ll_aton/ll_sw_float.c ****                                    sw_info->general.input.dim.tensor_c, sw_info->general.input.dim.
 853:../../Middlewares/AI_Runtime/Npu/ll_aton/ll_sw_float.c ****                         STRIDE_INIT(sw_info->general.input.stride.h, sw_info->general.input.stride.
 854:../../Middlewares/AI_Runtime/Npu/ll_aton/ll_sw_float.c ****                                     sw_info->general.input.stride.c, sw_info->general.input.stride.
 855:../../Middlewares/AI_Runtime/Npu/ll_aton/ll_sw_float.c ****                         1, &input_output_array, NULL)
 856:../../Middlewares/AI_Runtime/Npu/ll_aton/ll_sw_float.c ****   AI_TENSOR_OBJ_DECLARE(pool_output, , 0x0, 4,
 3259              		.loc 1 856 3 is_stmt 1 view .LVU843
 3260 0062 C16B     		ldr	r1, [r0, #60]
 3261 0064 CDE92936 		strd	r3, r6, [sp, #164]
 3262 0068 1691     		str	r1, [sp, #88]
 3263 006a 816B     		ldr	r1, [r0, #56]
 3264 006c 2B95     		str	r5, [sp, #172]
 3265 006e 1791     		str	r1, [sp, #92]
 3266 0070 416B     		ldr	r1, [r0, #52]
 3267 0072 1891     		str	r1, [sp, #96]
 3268 0074 016B     		ldr	r1, [r0, #48]
 3269 0076 1991     		str	r1, [sp, #100]
 3270 0078 16A9     		add	r1, sp, #88
 3271 007a CDE92C14 		strd	r1, r4, [sp, #176]
 3272 007e 016D     		ldr	r1, [r0, #80]
 857:../../Middlewares/AI_Runtime/Npu/ll_aton/ll_sw_float.c ****                         SHAPE_INIT(sw_info->general.output.dim.tensor_h, sw_info->general.output.di
 858:../../Middlewares/AI_Runtime/Npu/ll_aton/ll_sw_float.c ****                                    sw_info->general.output.dim.tensor_c, sw_info->general.output.di
 859:../../Middlewares/AI_Runtime/Npu/ll_aton/ll_sw_float.c ****                         STRIDE_INIT(sw_info->general.output.stride.h, sw_info->general.output.strid
ARM GAS  C:\Users\Antonio\AppData\Local\Temp\cc6EBOZH.s 			page 83


 860:../../Middlewares/AI_Runtime/Npu/ll_aton/ll_sw_float.c ****                                     sw_info->general.output.stride.c, sw_info->general.output.strid
 861:../../Middlewares/AI_Runtime/Npu/ll_aton/ll_sw_float.c ****                         1, &pool_output_array, NULL)
 862:../../Middlewares/AI_Runtime/Npu/ll_aton/ll_sw_float.c ****   // tensor chain initialization
 863:../../Middlewares/AI_Runtime/Npu/ll_aton/ll_sw_float.c ****   AI_TENSOR_CHAIN_OBJ_DECLARE(pool_chain, , 4, AI_TENSOR_LIST_OBJ_INIT(AI_FLAG_NONE, 1, TENSORS(&in
 3273              		.loc 1 863 3 is_stmt 0 view .LVU844
 3274 0080 04AC     		add	r4, sp, #16
 856:../../Middlewares/AI_Runtime/Npu/ll_aton/ll_sw_float.c ****                         SHAPE_INIT(sw_info->general.output.dim.tensor_h, sw_info->general.output.di
 3275              		.loc 1 856 3 view .LVU845
 3276 0082 1A91     		str	r1, [sp, #104]
 3277 0084 C16C     		ldr	r1, [r0, #76]
 3278 0086 1B91     		str	r1, [sp, #108]
 3279 0088 816C     		ldr	r1, [r0, #72]
 3280 008a 1C91     		str	r1, [sp, #112]
 3281 008c 416C     		ldr	r1, [r0, #68]
 3282 008e 1D91     		str	r1, [sp, #116]
 3283 0090 1AA9     		add	r1, sp, #104
 3284 0092 CDE92E12 		strd	r1, r2, [sp, #184]
 3285              		.loc 1 863 3 is_stmt 1 view .LVU846
 3286 0096 0422     		movs	r2, #4
 3287 0098 2260     		str	r2, [r4]
 3288 009a 0122     		movs	r2, #1
 3289 009c 22A9     		add	r1, sp, #136
 3290 009e 3092     		str	r2, [sp, #192]
 3291 00a0 0091     		str	r1, [sp]
 3292 00a2 CDF8C4D0 		str	sp, [sp, #196]
 3293 00a6 CDE93232 		strd	r3, r2, [sp, #200]
 3294 00aa 01AA     		add	r2, sp, #4
 3295 00ac CDE93423 		strd	r2, r3, [sp, #208]
 3296 00b0 02AA     		add	r2, sp, #8
 3297 00b2 CDE93723 		strd	r2, r3, [sp, #220]
 3298 00b6 03AA     		add	r2, sp, #12
 3299 00b8 CDE93A23 		strd	r2, r3, [sp, #232]
 3300 00bc 30AA     		add	r2, sp, #192
 3301 00be 6260     		str	r2, [r4, #4]
 864:../../Middlewares/AI_Runtime/Npu/ll_aton/ll_sw_float.c ****                               AI_TENSOR_LIST_OBJ_INIT(AI_FLAG_NONE, 1, TENSORS(&pool_output)), AI_T
 865:../../Middlewares/AI_Runtime/Npu/ll_aton/ll_sw_float.c ****                               AI_TENSOR_LIST_OBJ_EMPTY)
 866:../../Middlewares/AI_Runtime/Npu/ll_aton/ll_sw_float.c **** 
 867:../../Middlewares/AI_Runtime/Npu/ll_aton/ll_sw_float.c ****   node_func func = NULL;
 3302              		.loc 1 867 3 view .LVU847
 3303              	.LVL154:
 868:../../Middlewares/AI_Runtime/Npu/ll_aton/ll_sw_float.c ****   bool count_include_pad = 0;
 3304              		.loc 1 868 3 view .LVU848
 869:../../Middlewares/AI_Runtime/Npu/ll_aton/ll_sw_float.c ****   switch (sw_info->general.type)
 3305              		.loc 1 869 3 view .LVU849
 3306              		.loc 1 869 27 is_stmt 0 view .LVU850
 3307 00c0 0278     		ldrb	r2, [r0]	@ zero_extendqisi2
 863:../../Middlewares/AI_Runtime/Npu/ll_aton/ll_sw_float.c ****                               AI_TENSOR_LIST_OBJ_INIT(AI_FLAG_NONE, 1, TENSORS(&pool_output)), AI_T
 3308              		.loc 1 863 3 view .LVU851
 3309 00c2 29A9     		add	r1, sp, #164
 3310              		.loc 1 869 3 view .LVU852
 3311 00c4 062A     		cmp	r2, #6
 863:../../Middlewares/AI_Runtime/Npu/ll_aton/ll_sw_float.c ****                               AI_TENSOR_LIST_OBJ_INIT(AI_FLAG_NONE, 1, TENSORS(&pool_output)), AI_T
 3312              		.loc 1 863 3 view .LVU853
 3313 00c6 0191     		str	r1, [sp, #4]
 3314 00c8 3693     		str	r3, [sp, #216]
 3315 00ca 0293     		str	r3, [sp, #8]
 3316 00cc 3993     		str	r3, [sp, #228]
ARM GAS  C:\Users\Antonio\AppData\Local\Temp\cc6EBOZH.s 			page 84


 3317 00ce 0393     		str	r3, [sp, #12]
 3318              		.loc 1 869 3 view .LVU854
 3319 00d0 2AD0     		beq	.L91
 3320 00d2 082A     		cmp	r2, #8
 3321 00d4 2AD1     		bne	.L92
 870:../../Middlewares/AI_Runtime/Npu/ll_aton/ll_sw_float.c ****   {
 871:../../Middlewares/AI_Runtime/Npu/ll_aton/ll_sw_float.c ****   case LL_SW_AVGPOOL:
 872:../../Middlewares/AI_Runtime/Npu/ll_aton/ll_sw_float.c ****     func = ((node_func)(forward_ap));
 3322              		.loc 1 872 5 is_stmt 1 view .LVU855
 3323              	.LVL155:
 873:../../Middlewares/AI_Runtime/Npu/ll_aton/ll_sw_float.c ****     count_include_pad = sw_info->count_include_pad;
 3324              		.loc 1 873 5 view .LVU856
 3325              		.loc 1 873 23 is_stmt 0 view .LVU857
 3326 00d6 90F88830 		ldrb	r3, [r0, #136]	@ zero_extendqisi2
 3327              	.LVL156:
 874:../../Middlewares/AI_Runtime/Npu/ll_aton/ll_sw_float.c ****     break;
 3328              		.loc 1 874 5 is_stmt 1 view .LVU858
 872:../../Middlewares/AI_Runtime/Npu/ll_aton/ll_sw_float.c ****     count_include_pad = sw_info->count_include_pad;
 3329              		.loc 1 872 10 is_stmt 0 view .LVU859
 3330 00da 164A     		ldr	r2, .L93+4
 3331              	.LVL157:
 3332              	.L90:
 875:../../Middlewares/AI_Runtime/Npu/ll_aton/ll_sw_float.c ****   case LL_SW_MAXPOOL:
 876:../../Middlewares/AI_Runtime/Npu/ll_aton/ll_sw_float.c ****     func = ((node_func)(forward_mp));
 877:../../Middlewares/AI_Runtime/Npu/ll_aton/ll_sw_float.c ****     break;
 878:../../Middlewares/AI_Runtime/Npu/ll_aton/ll_sw_float.c ****   default:
 879:../../Middlewares/AI_Runtime/Npu/ll_aton/ll_sw_float.c ****     break;
 880:../../Middlewares/AI_Runtime/Npu/ll_aton/ll_sw_float.c ****   }
 881:../../Middlewares/AI_Runtime/Npu/ll_aton/ll_sw_float.c **** 
 882:../../Middlewares/AI_Runtime/Npu/ll_aton/ll_sw_float.c ****   AI_LAYER_OBJ_DECLARE(pool_layer, 1, POOL_TYPE, 0x0, NULL, pool, func, &pool_chain, NULL, NULL, ,
 3333              		.loc 1 882 3 is_stmt 1 view .LVU860
 3334 00dc 0021     		movs	r1, #0
 3335 00de 164D     		ldr	r5, .L93+8
 3336 00e0 CDE93E11 		strd	r1, r1, [sp, #248]
 3337 00e4 CDE93C51 		strd	r5, r1, [sp, #240]
 3338 00e8 CDE94012 		strd	r1, r2, [sp, #256]
 3339 00ec D0F88410 		ldr	r1, [r0, #132]
 3340 00f0 4294     		str	r4, [sp, #264]
 3341 00f2 4391     		str	r1, [sp, #268]
 3342 00f4 D0F88010 		ldr	r1, [r0, #128]
 3343 00f8 8DF82431 		strb	r3, [sp, #292]
 883:../../Middlewares/AI_Runtime/Npu/ll_aton/ll_sw_float.c ****                        .pool_size = SHAPE_2D_INIT(sw_info->k_shape[0], sw_info->k_shape[1]),
 884:../../Middlewares/AI_Runtime/Npu/ll_aton/ll_sw_float.c ****                        .pool_stride = SHAPE_2D_INIT(sw_info->strides[0], sw_info->strides[1]),
 885:../../Middlewares/AI_Runtime/Npu/ll_aton/ll_sw_float.c ****                        .pool_pad = SHAPE_INIT(sw_info->pads[3], sw_info->pads[2], sw_info->pads[1],
 886:../../Middlewares/AI_Runtime/Npu/ll_aton/ll_sw_float.c ****                        .count_include_pad = count_include_pad, )
 887:../../Middlewares/AI_Runtime/Npu/ll_aton/ll_sw_float.c ****   pool_layer.forward(AI_LAYER_OBJ(&pool_layer));
 3344              		.loc 1 887 3 view .LVU861
 882:../../Middlewares/AI_Runtime/Npu/ll_aton/ll_sw_float.c ****                        .pool_size = SHAPE_2D_INIT(sw_info->k_shape[0], sw_info->k_shape[1]),
 3345              		.loc 1 882 3 is_stmt 0 view .LVU862
 3346 00fc 4491     		str	r1, [sp, #272]
 3347 00fe 416F     		ldr	r1, [r0, #116]
 3348 0100 4591     		str	r1, [sp, #276]
 3349 0102 016F     		ldr	r1, [r0, #112]
 3350 0104 4691     		str	r1, [sp, #280]
 3351 0106 40F20141 		movw	r1, #1025
 3352 010a 4791     		str	r1, [sp, #284]
 3353 010c 016E     		ldr	r1, [r0, #96]
ARM GAS  C:\Users\Antonio\AppData\Local\Temp\cc6EBOZH.s 			page 85


 3354 010e 1E91     		str	r1, [sp, #120]
 3355 0110 416E     		ldr	r1, [r0, #100]
 3356 0112 1F91     		str	r1, [sp, #124]
 3357 0114 816E     		ldr	r1, [r0, #104]
 3358 0116 2091     		str	r1, [sp, #128]
 3359 0118 C16E     		ldr	r1, [r0, #108]
 3360              		.loc 1 887 3 view .LVU863
 3361 011a 3CA8     		add	r0, sp, #240
 3362              	.LVL158:
 882:../../Middlewares/AI_Runtime/Npu/ll_aton/ll_sw_float.c ****                        .pool_size = SHAPE_2D_INIT(sw_info->k_shape[0], sw_info->k_shape[1]),
 3363              		.loc 1 882 3 view .LVU864
 3364 011c 2191     		str	r1, [sp, #132]
 3365 011e 1EA9     		add	r1, sp, #120
 3366 0120 4891     		str	r1, [sp, #288]
 3367              		.loc 1 887 3 view .LVU865
 3368 0122 9047     		blx	r2
 3369              	.LVL159:
 888:../../Middlewares/AI_Runtime/Npu/ll_aton/ll_sw_float.c **** }
 3370              		.loc 1 888 1 view .LVU866
 3371 0124 4BB0     		add	sp, sp, #300
 3372              		.cfi_remember_state
 3373              		.cfi_def_cfa_offset 20
 3374              		@ sp needed
 3375 0126 F0BD     		pop	{r4, r5, r6, r7, pc}
 3376              	.LVL160:
 3377              	.L91:
 3378              		.cfi_restore_state
 869:../../Middlewares/AI_Runtime/Npu/ll_aton/ll_sw_float.c ****   {
 3379              		.loc 1 869 3 view .LVU867
 3380 0128 044A     		ldr	r2, .L93+12
 3381 012a D7E7     		b	.L90
 3382              	.L92:
 867:../../Middlewares/AI_Runtime/Npu/ll_aton/ll_sw_float.c ****   bool count_include_pad = 0;
 3383              		.loc 1 867 13 view .LVU868
 3384 012c 1A46     		mov	r2, r3
 3385 012e D5E7     		b	.L90
 3386              	.L94:
 3387              		.align	2
 3388              	.L93:
 3389 0130 40108200 		.word	8523840
 3390 0134 00000000 		.word	forward_ap
 3391 0138 0B010100 		.word	65803
 3392 013c 00000000 		.word	forward_mp
 3393              		.cfi_endproc
 3394              	.LFE22:
 3396              		.section	.text.ll_sw_forward_global_pool,"ax",%progbits
 3397              		.align	1
 3398              		.global	ll_sw_forward_global_pool
 3399              		.syntax unified
 3400              		.thumb
 3401              		.thumb_func
 3403              	ll_sw_forward_global_pool:
 3404              	.LVL161:
 3405              	.LFB23:
 889:../../Middlewares/AI_Runtime/Npu/ll_aton/ll_sw_float.c **** 
 890:../../Middlewares/AI_Runtime/Npu/ll_aton/ll_sw_float.c **** //##########################################################################################
 891:../../Middlewares/AI_Runtime/Npu/ll_aton/ll_sw_float.c **** /** Globalpool forward function  */
ARM GAS  C:\Users\Antonio\AppData\Local\Temp\cc6EBOZH.s 			page 86


 892:../../Middlewares/AI_Runtime/Npu/ll_aton/ll_sw_float.c **** void ll_sw_forward_global_pool(/* int processor, */ void *sw_info_struct)
 893:../../Middlewares/AI_Runtime/Npu/ll_aton/ll_sw_float.c **** {
 3406              		.loc 1 893 1 is_stmt 1 view -0
 3407              		.cfi_startproc
 3408              		@ args = 0, pretend = 0, frame = 296
 3409              		@ frame_needed = 0, uses_anonymous_args = 0
 894:../../Middlewares/AI_Runtime/Npu/ll_aton/ll_sw_float.c ****   Global_pool_sw_info *sw_info = (Global_pool_sw_info *)sw_info_struct;
 3410              		.loc 1 894 3 view .LVU870
 895:../../Middlewares/AI_Runtime/Npu/ll_aton/ll_sw_float.c ****   AI_ARRAY_OBJ_DECLARE(input_output_array, FORMAT, sw_info->general.input.mem.start_offset,
 3411              		.loc 1 895 3 view .LVU871
 893:../../Middlewares/AI_Runtime/Npu/ll_aton/ll_sw_float.c ****   Global_pool_sw_info *sw_info = (Global_pool_sw_info *)sw_info_struct;
 3412              		.loc 1 893 1 is_stmt 0 view .LVU872
 3413 0000 F0B5     		push	{r4, r5, r6, r7, lr}
 3414              		.cfi_def_cfa_offset 20
 3415              		.cfi_offset 4, -20
 3416              		.cfi_offset 5, -16
 3417              		.cfi_offset 6, -12
 3418              		.cfi_offset 7, -8
 3419              		.cfi_offset 14, -4
 896:../../Middlewares/AI_Runtime/Npu/ll_aton/ll_sw_float.c ****                        sw_info->general.input.mem.start_offset, sw_info->general.input.dim.num_elem
 897:../../Middlewares/AI_Runtime/Npu/ll_aton/ll_sw_float.c ****   AI_ARRAY_OBJ_DECLARE(pool_output_array, FORMAT, sw_info->general.output.mem.start_offset,
 898:../../Middlewares/AI_Runtime/Npu/ll_aton/ll_sw_float.c ****                        sw_info->general.output.mem.start_offset, sw_info->general.output.dim.num_el
 899:../../Middlewares/AI_Runtime/Npu/ll_aton/ll_sw_float.c ****   // tensor init
 900:../../Middlewares/AI_Runtime/Npu/ll_aton/ll_sw_float.c ****   AI_TENSOR_OBJ_DECLARE(input_output, , 0x0, 4,
 3420              		.loc 1 900 3 view .LVU873
 3421 0002 0469     		ldr	r4, [r0, #16]
 893:../../Middlewares/AI_Runtime/Npu/ll_aton/ll_sw_float.c ****   Global_pool_sw_info *sw_info = (Global_pool_sw_info *)sw_info_struct;
 3422              		.loc 1 893 1 view .LVU874
 3423 0004 CBB0     		sub	sp, sp, #300
 3424              		.cfi_def_cfa_offset 320
 895:../../Middlewares/AI_Runtime/Npu/ll_aton/ll_sw_float.c ****                        sw_info->general.input.mem.start_offset, sw_info->general.input.dim.num_elem
 3425              		.loc 1 895 3 view .LVU875
 3426 0006 444B     		ldr	r3, .L99
 3427              		.loc 1 900 3 view .LVU876
 3428 0008 0E94     		str	r4, [sp, #56]
 3429 000a C468     		ldr	r4, [r0, #12]
 895:../../Middlewares/AI_Runtime/Npu/ll_aton/ll_sw_float.c ****                        sw_info->general.input.mem.start_offset, sw_info->general.input.dim.num_elem
 3430              		.loc 1 895 3 view .LVU877
 3431 000c 0693     		str	r3, [sp, #24]
 897:../../Middlewares/AI_Runtime/Npu/ll_aton/ll_sw_float.c ****                        sw_info->general.output.mem.start_offset, sw_info->general.output.dim.num_el
 3432              		.loc 1 897 3 view .LVU878
 3433 000e 0A93     		str	r3, [sp, #40]
 3434 0010 036C     		ldr	r3, [r0, #64]
 3435              		.loc 1 900 3 view .LVU879
 3436 0012 0F94     		str	r4, [sp, #60]
 3437 0014 4468     		ldr	r4, [r0, #4]
 897:../../Middlewares/AI_Runtime/Npu/ll_aton/ll_sw_float.c ****                        sw_info->general.output.mem.start_offset, sw_info->general.output.dim.num_el
 3438              		.loc 1 897 3 view .LVU880
 3439 0016 0B93     		str	r3, [sp, #44]
 3440 0018 436D     		ldr	r3, [r0, #84]
 3441              		.loc 1 900 3 view .LVU881
 3442 001a 1194     		str	r4, [sp, #68]
 3443 001c 0EAC     		add	r4, sp, #56
 3444 001e 40F20146 		movw	r6, #1025
 3445 0022 4FF0827C 		mov	ip, #17039360
 897:../../Middlewares/AI_Runtime/Npu/ll_aton/ll_sw_float.c ****                        sw_info->general.output.mem.start_offset, sw_info->general.output.dim.num_el
 3446              		.loc 1 897 3 view .LVU882
ARM GAS  C:\Users\Antonio\AppData\Local\Temp\cc6EBOZH.s 			page 87


 3447 0026 CDE90C33 		strd	r3, r3, [sp, #48]
 3448              		.loc 1 900 3 view .LVU883
 3449 002a 2594     		str	r4, [sp, #148]
 3450 002c 0023     		movs	r3, #0
 3451 002e 40F20244 		movw	r4, #1026
 895:../../Middlewares/AI_Runtime/Npu/ll_aton/ll_sw_float.c ****                        sw_info->general.input.mem.start_offset, sw_info->general.input.dim.num_elem
 3452              		.loc 1 895 3 view .LVU884
 3453 0032 4269     		ldr	r2, [r0, #20]
 3454              		.loc 1 900 3 view .LVU885
 3455 0034 476A     		ldr	r7, [r0, #36]
 3456 0036 8568     		ldr	r5, [r0, #8]
 895:../../Middlewares/AI_Runtime/Npu/ll_aton/ll_sw_float.c ****                        sw_info->general.input.mem.start_offset, sw_info->general.input.dim.num_elem
 3457              		.loc 1 895 3 view .LVU886
 3458 0038 0792     		str	r2, [sp, #28]
 3459              		.loc 1 900 3 view .LVU887
 3460 003a 1297     		str	r7, [sp, #72]
 895:../../Middlewares/AI_Runtime/Npu/ll_aton/ll_sw_float.c ****                        sw_info->general.input.mem.start_offset, sw_info->general.input.dim.num_elem
 3461              		.loc 1 895 3 view .LVU888
 3462 003c 826A     		ldr	r2, [r0, #40]
 3463              		.loc 1 900 3 view .LVU889
 3464 003e 076A     		ldr	r7, [r0, #32]
 3465 0040 2496     		str	r6, [sp, #144]
 895:../../Middlewares/AI_Runtime/Npu/ll_aton/ll_sw_float.c ****                        sw_info->general.input.mem.start_offset, sw_info->general.input.dim.num_elem
 3466              		.loc 1 895 3 view .LVU890
 3467 0042 CDE90822 		strd	r2, r2, [sp, #32]
 897:../../Middlewares/AI_Runtime/Npu/ll_aton/ll_sw_float.c ****                        sw_info->general.output.mem.start_offset, sw_info->general.output.dim.num_el
 3468              		.loc 1 897 3 is_stmt 1 view .LVU891
 3469              		.loc 1 900 3 view .LVU892
 3470 0046 CDE9223C 		strd	r3, ip, [sp, #136]
 3471 004a 1095     		str	r5, [sp, #64]
 3472 004c 2694     		str	r4, [sp, #152]
 3473 004e 1397     		str	r7, [sp, #76]
 3474 0050 C769     		ldr	r7, [r0, #28]
 895:../../Middlewares/AI_Runtime/Npu/ll_aton/ll_sw_float.c ****                        sw_info->general.input.mem.start_offset, sw_info->general.input.dim.num_elem
 3475              		.loc 1 895 3 is_stmt 0 view .LVU893
 3476 0052 06A9     		add	r1, sp, #24
 3477              		.loc 1 900 3 view .LVU894
 3478 0054 1497     		str	r7, [sp, #80]
 3479 0056 8769     		ldr	r7, [r0, #24]
 897:../../Middlewares/AI_Runtime/Npu/ll_aton/ll_sw_float.c ****                        sw_info->general.output.mem.start_offset, sw_info->general.output.dim.num_el
 3480              		.loc 1 897 3 view .LVU895
 3481 0058 0AAA     		add	r2, sp, #40
 3482              		.loc 1 900 3 view .LVU896
 3483 005a 1597     		str	r7, [sp, #84]
 3484 005c 12AF     		add	r7, sp, #72
 3485 005e CDE92771 		strd	r7, r1, [sp, #156]
 901:../../Middlewares/AI_Runtime/Npu/ll_aton/ll_sw_float.c ****                         SHAPE_INIT(sw_info->general.input.dim.tensor_h, sw_info->general.input.dim.
 902:../../Middlewares/AI_Runtime/Npu/ll_aton/ll_sw_float.c ****                                    sw_info->general.input.dim.tensor_c, sw_info->general.input.dim.
 903:../../Middlewares/AI_Runtime/Npu/ll_aton/ll_sw_float.c ****                         STRIDE_INIT(sw_info->general.input.stride.h, sw_info->general.input.stride.
 904:../../Middlewares/AI_Runtime/Npu/ll_aton/ll_sw_float.c ****                                     sw_info->general.input.stride.c, sw_info->general.input.stride.
 905:../../Middlewares/AI_Runtime/Npu/ll_aton/ll_sw_float.c ****                         1, &input_output_array, NULL)
 906:../../Middlewares/AI_Runtime/Npu/ll_aton/ll_sw_float.c ****   AI_TENSOR_OBJ_DECLARE(pool_output, , 0x0, 4,
 3486              		.loc 1 906 3 is_stmt 1 view .LVU897
 3487 0062 C16B     		ldr	r1, [r0, #60]
 3488 0064 2B96     		str	r6, [sp, #172]
 3489 0066 1691     		str	r1, [sp, #88]
 3490 0068 816B     		ldr	r1, [r0, #56]
ARM GAS  C:\Users\Antonio\AppData\Local\Temp\cc6EBOZH.s 			page 88


 907:../../Middlewares/AI_Runtime/Npu/ll_aton/ll_sw_float.c ****                         SHAPE_INIT(sw_info->general.output.dim.tensor_h, sw_info->general.output.di
 908:../../Middlewares/AI_Runtime/Npu/ll_aton/ll_sw_float.c ****                                    sw_info->general.output.dim.tensor_c, sw_info->general.output.di
 909:../../Middlewares/AI_Runtime/Npu/ll_aton/ll_sw_float.c ****                         STRIDE_INIT(sw_info->general.output.stride.h, sw_info->general.output.strid
 910:../../Middlewares/AI_Runtime/Npu/ll_aton/ll_sw_float.c ****                                     sw_info->general.output.stride.c, sw_info->general.output.strid
 911:../../Middlewares/AI_Runtime/Npu/ll_aton/ll_sw_float.c ****                         1, &pool_output_array, NULL)
 912:../../Middlewares/AI_Runtime/Npu/ll_aton/ll_sw_float.c ****   // tensor chain initialization
 913:../../Middlewares/AI_Runtime/Npu/ll_aton/ll_sw_float.c ****   AI_TENSOR_CHAIN_OBJ_DECLARE(pool_chain, , 4, AI_TENSOR_LIST_OBJ_INIT(AI_FLAG_NONE, 1, TENSORS(&in
 3491              		.loc 1 913 3 is_stmt 0 view .LVU898
 3492 006a 04AE     		add	r6, sp, #16
 906:../../Middlewares/AI_Runtime/Npu/ll_aton/ll_sw_float.c ****                         SHAPE_INIT(sw_info->general.output.dim.tensor_h, sw_info->general.output.di
 3493              		.loc 1 906 3 view .LVU899
 3494 006c 1791     		str	r1, [sp, #92]
 3495 006e 416B     		ldr	r1, [r0, #52]
 3496 0070 CDE9293C 		strd	r3, ip, [sp, #164]
 3497 0074 1891     		str	r1, [sp, #96]
 3498 0076 016B     		ldr	r1, [r0, #48]
 3499 0078 1991     		str	r1, [sp, #100]
 3500 007a 16A9     		add	r1, sp, #88
 3501 007c CDE92C14 		strd	r1, r4, [sp, #176]
 3502 0080 016D     		ldr	r1, [r0, #80]
 3503 0082 1A91     		str	r1, [sp, #104]
 3504 0084 C16C     		ldr	r1, [r0, #76]
 3505 0086 1B91     		str	r1, [sp, #108]
 3506 0088 816C     		ldr	r1, [r0, #72]
 3507 008a 1C91     		str	r1, [sp, #112]
 3508 008c 416C     		ldr	r1, [r0, #68]
 3509 008e 1D91     		str	r1, [sp, #116]
 3510 0090 1AA9     		add	r1, sp, #104
 3511 0092 CDE92E12 		strd	r1, r2, [sp, #184]
 3512              		.loc 1 913 3 is_stmt 1 view .LVU900
 3513 0096 0422     		movs	r2, #4
 3514 0098 3260     		str	r2, [r6]
 3515 009a 0122     		movs	r2, #1
 3516 009c 22A9     		add	r1, sp, #136
 3517 009e 3092     		str	r2, [sp, #192]
 3518 00a0 0091     		str	r1, [sp]
 3519 00a2 CDF8C4D0 		str	sp, [sp, #196]
 3520 00a6 CDE93232 		strd	r3, r2, [sp, #200]
 3521 00aa 01AA     		add	r2, sp, #4
 3522 00ac CDE93423 		strd	r2, r3, [sp, #208]
 3523 00b0 02AA     		add	r2, sp, #8
 3524 00b2 CDE93723 		strd	r2, r3, [sp, #220]
 3525 00b6 03AA     		add	r2, sp, #12
 3526 00b8 CDE93A23 		strd	r2, r3, [sp, #232]
 3527 00bc 3693     		str	r3, [sp, #216]
 3528 00be 0293     		str	r3, [sp, #8]
 3529 00c0 3993     		str	r3, [sp, #228]
 3530 00c2 0393     		str	r3, [sp, #12]
 3531 00c4 30AB     		add	r3, sp, #192
 3532 00c6 7360     		str	r3, [r6, #4]
 914:../../Middlewares/AI_Runtime/Npu/ll_aton/ll_sw_float.c ****                               AI_TENSOR_LIST_OBJ_INIT(AI_FLAG_NONE, 1, TENSORS(&pool_output)), AI_T
 915:../../Middlewares/AI_Runtime/Npu/ll_aton/ll_sw_float.c ****                               AI_TENSOR_LIST_OBJ_EMPTY)
 916:../../Middlewares/AI_Runtime/Npu/ll_aton/ll_sw_float.c **** 
 917:../../Middlewares/AI_Runtime/Npu/ll_aton/ll_sw_float.c ****   node_func func = NULL;
 3533              		.loc 1 917 3 view .LVU901
 3534              	.LVL162:
 918:../../Middlewares/AI_Runtime/Npu/ll_aton/ll_sw_float.c ****   switch (sw_info->general.type)
ARM GAS  C:\Users\Antonio\AppData\Local\Temp\cc6EBOZH.s 			page 89


 3535              		.loc 1 918 3 view .LVU902
 3536              		.loc 1 918 27 is_stmt 0 view .LVU903
 3537 00c8 0378     		ldrb	r3, [r0]	@ zero_extendqisi2
 913:../../Middlewares/AI_Runtime/Npu/ll_aton/ll_sw_float.c ****                               AI_TENSOR_LIST_OBJ_INIT(AI_FLAG_NONE, 1, TENSORS(&pool_output)), AI_T
 3538              		.loc 1 913 3 view .LVU904
 3539 00ca 29A9     		add	r1, sp, #164
 3540              		.loc 1 918 3 view .LVU905
 3541 00cc 062B     		cmp	r3, #6
 913:../../Middlewares/AI_Runtime/Npu/ll_aton/ll_sw_float.c ****                               AI_TENSOR_LIST_OBJ_INIT(AI_FLAG_NONE, 1, TENSORS(&pool_output)), AI_T
 3542              		.loc 1 913 3 view .LVU906
 3543 00ce 0191     		str	r1, [sp, #4]
 3544              		.loc 1 918 3 view .LVU907
 3545 00d0 1FD0     		beq	.L97
 917:../../Middlewares/AI_Runtime/Npu/ll_aton/ll_sw_float.c ****   switch (sw_info->general.type)
 3546              		.loc 1 917 13 view .LVU908
 3547 00d2 082B     		cmp	r3, #8
 3548 00d4 114C     		ldr	r4, .L99+4
 3549 00d6 18BF     		it	ne
 3550 00d8 0024     		movne	r4, #0
 3551              	.L96:
 3552              	.LVL163:
 919:../../Middlewares/AI_Runtime/Npu/ll_aton/ll_sw_float.c ****   {
 920:../../Middlewares/AI_Runtime/Npu/ll_aton/ll_sw_float.c ****   case LL_SW_AVGPOOL:
 921:../../Middlewares/AI_Runtime/Npu/ll_aton/ll_sw_float.c ****     func = ((node_func)(forward_ap));
 922:../../Middlewares/AI_Runtime/Npu/ll_aton/ll_sw_float.c ****     break;
 923:../../Middlewares/AI_Runtime/Npu/ll_aton/ll_sw_float.c ****   case LL_SW_MAXPOOL:
 924:../../Middlewares/AI_Runtime/Npu/ll_aton/ll_sw_float.c ****     func = ((node_func)(forward_mp));
 925:../../Middlewares/AI_Runtime/Npu/ll_aton/ll_sw_float.c ****     break;
 926:../../Middlewares/AI_Runtime/Npu/ll_aton/ll_sw_float.c ****   default:
 927:../../Middlewares/AI_Runtime/Npu/ll_aton/ll_sw_float.c ****     break;
 928:../../Middlewares/AI_Runtime/Npu/ll_aton/ll_sw_float.c ****   }
 929:../../Middlewares/AI_Runtime/Npu/ll_aton/ll_sw_float.c **** 
 930:../../Middlewares/AI_Runtime/Npu/ll_aton/ll_sw_float.c ****   AI_LAYER_OBJ_DECLARE(pool_layer, 1, POOL_TYPE, 0x0, NULL, pool, func, &pool_chain, NULL, NULL, ,
 3553              		.loc 1 930 3 is_stmt 1 view .LVU909
 3554 00da 114B     		ldr	r3, .L99+8
 3555 00dc 3422     		movs	r2, #52
 3556 00de 0021     		movs	r1, #0
 3557 00e0 3DA8     		add	r0, sp, #244
 3558              	.LVL164:
 3559              		.loc 1 930 3 is_stmt 0 view .LVU910
 3560 00e2 3C93     		str	r3, [sp, #240]
 3561 00e4 FFF7FEFF 		bl	memset
 3562              	.LVL165:
 3563 00e8 0123     		movs	r3, #1
 3564 00ea CDE94533 		strd	r3, r3, [sp, #276]
 3565 00ee 40F20143 		movw	r3, #1025
 3566 00f2 4793     		str	r3, [sp, #284]
 3567 00f4 1EAB     		add	r3, sp, #120
 3568 00f6 1022     		movs	r2, #16
 3569 00f8 0021     		movs	r1, #0
 3570 00fa 1846     		mov	r0, r3
 3571 00fc CDE94146 		strd	r4, r6, [sp, #260]
 3572 0100 CDE94355 		strd	r5, r5, [sp, #268]
 3573 0104 FFF7FEFF 		bl	memset
 3574              	.LVL166:
 3575 0108 4890     		str	r0, [sp, #288]
 931:../../Middlewares/AI_Runtime/Npu/ll_aton/ll_sw_float.c ****                        .pool_size =
ARM GAS  C:\Users\Antonio\AppData\Local\Temp\cc6EBOZH.s 			page 90


 932:../../Middlewares/AI_Runtime/Npu/ll_aton/ll_sw_float.c ****                            SHAPE_2D_INIT(sw_info->general.input.dim.tensor_w, sw_info->general.inpu
 933:../../Middlewares/AI_Runtime/Npu/ll_aton/ll_sw_float.c ****                        .pool_stride = SHAPE_2D_INIT(1, 1), .pool_pad = SHAPE_INIT(0, 0, 0, 0), )
 934:../../Middlewares/AI_Runtime/Npu/ll_aton/ll_sw_float.c ****   pool_layer.forward(AI_LAYER_OBJ(&pool_layer));
 3576              		.loc 1 934 3 is_stmt 1 view .LVU911
 3577 010a 3CA8     		add	r0, sp, #240
 3578 010c A047     		blx	r4
 3579              	.LVL167:
 935:../../Middlewares/AI_Runtime/Npu/ll_aton/ll_sw_float.c **** }
 3580              		.loc 1 935 1 is_stmt 0 view .LVU912
 3581 010e 4BB0     		add	sp, sp, #300
 3582              		.cfi_remember_state
 3583              		.cfi_def_cfa_offset 20
 3584              		@ sp needed
 3585 0110 F0BD     		pop	{r4, r5, r6, r7, pc}
 3586              	.LVL168:
 3587              	.L97:
 3588              		.cfi_restore_state
 924:../../Middlewares/AI_Runtime/Npu/ll_aton/ll_sw_float.c ****     break;
 3589              		.loc 1 924 10 view .LVU913
 3590 0112 044C     		ldr	r4, .L99+12
 3591 0114 E1E7     		b	.L96
 3592              	.L100:
 3593 0116 00BF     		.align	2
 3594              	.L99:
 3595 0118 40108200 		.word	8523840
 3596 011c 00000000 		.word	forward_ap
 3597 0120 0B010100 		.word	65803
 3598 0124 00000000 		.word	forward_mp
 3599              		.cfi_endproc
 3600              	.LFE23:
 3602              		.section	.text.ll_sw_forward_argmax,"ax",%progbits
 3603              		.align	1
 3604              		.global	ll_sw_forward_argmax
 3605              		.syntax unified
 3606              		.thumb
 3607              		.thumb_func
 3609              	ll_sw_forward_argmax:
 3610              	.LVL169:
 3611              	.LFB24:
 936:../../Middlewares/AI_Runtime/Npu/ll_aton/ll_sw_float.c **** 
 937:../../Middlewares/AI_Runtime/Npu/ll_aton/ll_sw_float.c **** //##########################################################################################
 938:../../Middlewares/AI_Runtime/Npu/ll_aton/ll_sw_float.c **** /** ArgMax forward function  */
 939:../../Middlewares/AI_Runtime/Npu/ll_aton/ll_sw_float.c **** void ll_sw_forward_argmax(/* int processor, */ void *sw_info_struct)
 940:../../Middlewares/AI_Runtime/Npu/ll_aton/ll_sw_float.c **** {
 3612              		.loc 1 940 1 is_stmt 1 view -0
 3613              		.cfi_startproc
 3614              		@ args = 0, pretend = 0, frame = 256
 3615              		@ frame_needed = 0, uses_anonymous_args = 0
 941:../../Middlewares/AI_Runtime/Npu/ll_aton/ll_sw_float.c ****   Argmax_sw_info *sw_info = (Argmax_sw_info *)sw_info_struct;
 3616              		.loc 1 941 3 view .LVU915
 942:../../Middlewares/AI_Runtime/Npu/ll_aton/ll_sw_float.c ****   AI_ARRAY_OBJ_DECLARE(input_output_array, FORMAT, sw_info->general.input.mem.start_offset,
 3617              		.loc 1 942 3 view .LVU916
 940:../../Middlewares/AI_Runtime/Npu/ll_aton/ll_sw_float.c ****   Argmax_sw_info *sw_info = (Argmax_sw_info *)sw_info_struct;
 3618              		.loc 1 940 1 is_stmt 0 view .LVU917
 3619 0000 30B5     		push	{r4, r5, lr}
 3620              		.cfi_def_cfa_offset 12
 3621              		.cfi_offset 4, -12
ARM GAS  C:\Users\Antonio\AppData\Local\Temp\cc6EBOZH.s 			page 91


 3622              		.cfi_offset 5, -8
 3623              		.cfi_offset 14, -4
 3624              		.loc 1 942 3 view .LVU918
 3625 0002 404B     		ldr	r3, .L104
 940:../../Middlewares/AI_Runtime/Npu/ll_aton/ll_sw_float.c ****   Argmax_sw_info *sw_info = (Argmax_sw_info *)sw_info_struct;
 3626              		.loc 1 940 1 view .LVU919
 3627 0004 C1B0     		sub	sp, sp, #260
 3628              		.cfi_def_cfa_offset 272
 3629              		.loc 1 942 3 view .LVU920
 3630 0006 0693     		str	r3, [sp, #24]
 3631 0008 4369     		ldr	r3, [r0, #20]
 943:../../Middlewares/AI_Runtime/Npu/ll_aton/ll_sw_float.c ****                        sw_info->general.input.mem.start_offset, sw_info->general.input.dim.num_elem
 944:../../Middlewares/AI_Runtime/Npu/ll_aton/ll_sw_float.c ****   AI_ARRAY_OBJ_DECLARE(argmax_output_array, AI_ARRAY_FORMAT_S32, sw_info->general.output.mem.start_
 945:../../Middlewares/AI_Runtime/Npu/ll_aton/ll_sw_float.c ****                        sw_info->general.output.mem.start_offset, sw_info->general.output.dim.num_el
 946:../../Middlewares/AI_Runtime/Npu/ll_aton/ll_sw_float.c ****   // tensor init
 947:../../Middlewares/AI_Runtime/Npu/ll_aton/ll_sw_float.c ****   AI_TENSOR_OBJ_DECLARE(input_output, , 0x0, 4,
 3632              		.loc 1 947 3 view .LVU921
 3633 000a 0269     		ldr	r2, [r0, #16]
 942:../../Middlewares/AI_Runtime/Npu/ll_aton/ll_sw_float.c ****                        sw_info->general.input.mem.start_offset, sw_info->general.input.dim.num_elem
 3634              		.loc 1 942 3 view .LVU922
 3635 000c 0793     		str	r3, [sp, #28]
 3636 000e 836A     		ldr	r3, [r0, #40]
 3637              		.loc 1 947 3 view .LVU923
 3638 0010 0E92     		str	r2, [sp, #56]
 3639 0012 C268     		ldr	r2, [r0, #12]
 942:../../Middlewares/AI_Runtime/Npu/ll_aton/ll_sw_float.c ****                        sw_info->general.input.mem.start_offset, sw_info->general.input.dim.num_elem
 3640              		.loc 1 942 3 view .LVU924
 3641 0014 CDE90833 		strd	r3, r3, [sp, #32]
 944:../../Middlewares/AI_Runtime/Npu/ll_aton/ll_sw_float.c ****                        sw_info->general.output.mem.start_offset, sw_info->general.output.dim.num_el
 3642              		.loc 1 944 3 is_stmt 1 view .LVU925
 3643 0018 3B4B     		ldr	r3, .L104+4
 3644              		.loc 1 947 3 is_stmt 0 view .LVU926
 3645 001a 0F92     		str	r2, [sp, #60]
 3646 001c 8268     		ldr	r2, [r0, #8]
 944:../../Middlewares/AI_Runtime/Npu/ll_aton/ll_sw_float.c ****                        sw_info->general.output.mem.start_offset, sw_info->general.output.dim.num_el
 3647              		.loc 1 944 3 view .LVU927
 3648 001e 0A93     		str	r3, [sp, #40]
 3649 0020 036C     		ldr	r3, [r0, #64]
 3650              		.loc 1 947 3 view .LVU928
 3651 0022 1092     		str	r2, [sp, #64]
 3652 0024 4268     		ldr	r2, [r0, #4]
 944:../../Middlewares/AI_Runtime/Npu/ll_aton/ll_sw_float.c ****                        sw_info->general.output.mem.start_offset, sw_info->general.output.dim.num_el
 3653              		.loc 1 944 3 view .LVU929
 3654 0026 0B93     		str	r3, [sp, #44]
 3655 0028 436D     		ldr	r3, [r0, #84]
 3656              		.loc 1 947 3 view .LVU930
 3657 002a 1192     		str	r2, [sp, #68]
 3658 002c 0EAA     		add	r2, sp, #56
 3659 002e 4FF08274 		mov	r4, #17039360
 3660 0032 40F20141 		movw	r1, #1025
 944:../../Middlewares/AI_Runtime/Npu/ll_aton/ll_sw_float.c ****                        sw_info->general.output.mem.start_offset, sw_info->general.output.dim.num_el
 3661              		.loc 1 944 3 view .LVU931
 3662 0036 CDE90C33 		strd	r3, r3, [sp, #48]
 3663              		.loc 1 947 3 is_stmt 1 view .LVU932
 3664 003a 2192     		str	r2, [sp, #132]
 3665 003c 0023     		movs	r3, #0
 3666 003e 40F20242 		movw	r2, #1026
ARM GAS  C:\Users\Antonio\AppData\Local\Temp\cc6EBOZH.s 			page 92


 3667 0042 456A     		ldr	r5, [r0, #36]
 3668 0044 CDE91E34 		strd	r3, r4, [sp, #120]
 3669 0048 1295     		str	r5, [sp, #72]
 3670 004a 056A     		ldr	r5, [r0, #32]
 3671 004c 2091     		str	r1, [sp, #128]
 3672 004e 2292     		str	r2, [sp, #136]
 3673 0050 1395     		str	r5, [sp, #76]
 3674 0052 C569     		ldr	r5, [r0, #28]
 948:../../Middlewares/AI_Runtime/Npu/ll_aton/ll_sw_float.c ****                         SHAPE_INIT(sw_info->general.input.dim.tensor_h, sw_info->general.input.dim.
 949:../../Middlewares/AI_Runtime/Npu/ll_aton/ll_sw_float.c ****                                    sw_info->general.input.dim.tensor_c, sw_info->general.input.dim.
 950:../../Middlewares/AI_Runtime/Npu/ll_aton/ll_sw_float.c ****                         STRIDE_INIT(sw_info->general.input.stride.h, sw_info->general.input.stride.
 951:../../Middlewares/AI_Runtime/Npu/ll_aton/ll_sw_float.c ****                                     sw_info->general.input.stride.c, sw_info->general.input.stride.
 952:../../Middlewares/AI_Runtime/Npu/ll_aton/ll_sw_float.c ****                         1, &input_output_array, NULL)
 953:../../Middlewares/AI_Runtime/Npu/ll_aton/ll_sw_float.c ****   AI_TENSOR_OBJ_DECLARE(argmax_output, , 0x0, 4,
 3675              		.loc 1 953 3 is_stmt 0 view .LVU933
 3676 0054 CDE92641 		strd	r4, r1, [sp, #152]
 3677 0058 C16B     		ldr	r1, [r0, #60]
 947:../../Middlewares/AI_Runtime/Npu/ll_aton/ll_sw_float.c ****                         SHAPE_INIT(sw_info->general.input.dim.tensor_h, sw_info->general.input.dim.
 3678              		.loc 1 947 3 view .LVU934
 3679 005a 1495     		str	r5, [sp, #80]
 3680              		.loc 1 953 3 view .LVU935
 3681 005c 1691     		str	r1, [sp, #88]
 3682 005e 816B     		ldr	r1, [r0, #56]
 947:../../Middlewares/AI_Runtime/Npu/ll_aton/ll_sw_float.c ****                         SHAPE_INIT(sw_info->general.input.dim.tensor_h, sw_info->general.input.dim.
 3683              		.loc 1 947 3 view .LVU936
 3684 0060 8569     		ldr	r5, [r0, #24]
 3685              		.loc 1 953 3 view .LVU937
 3686 0062 1791     		str	r1, [sp, #92]
 3687 0064 416B     		ldr	r1, [r0, #52]
 947:../../Middlewares/AI_Runtime/Npu/ll_aton/ll_sw_float.c ****                         SHAPE_INIT(sw_info->general.input.dim.tensor_h, sw_info->general.input.dim.
 3688              		.loc 1 947 3 view .LVU938
 3689 0066 1595     		str	r5, [sp, #84]
 3690              		.loc 1 953 3 view .LVU939
 3691 0068 1891     		str	r1, [sp, #96]
 3692 006a 016B     		ldr	r1, [r0, #48]
 947:../../Middlewares/AI_Runtime/Npu/ll_aton/ll_sw_float.c ****                         SHAPE_INIT(sw_info->general.input.dim.tensor_h, sw_info->general.input.dim.
 3693              		.loc 1 947 3 view .LVU940
 3694 006c 12AD     		add	r5, sp, #72
 3695              		.loc 1 953 3 view .LVU941
 3696 006e 1991     		str	r1, [sp, #100]
 3697 0070 16A9     		add	r1, sp, #88
 3698 0072 CDE92812 		strd	r1, r2, [sp, #160]
 3699 0076 026D     		ldr	r2, [r0, #80]
 947:../../Middlewares/AI_Runtime/Npu/ll_aton/ll_sw_float.c ****                         SHAPE_INIT(sw_info->general.input.dim.tensor_h, sw_info->general.input.dim.
 3700              		.loc 1 947 3 view .LVU942
 3701 0078 2395     		str	r5, [sp, #140]
 3702              		.loc 1 953 3 view .LVU943
 3703 007a 1A92     		str	r2, [sp, #104]
 3704 007c C26C     		ldr	r2, [r0, #76]
 954:../../Middlewares/AI_Runtime/Npu/ll_aton/ll_sw_float.c ****                         SHAPE_INIT(sw_info->general.output.dim.tensor_h, sw_info->general.output.di
 955:../../Middlewares/AI_Runtime/Npu/ll_aton/ll_sw_float.c ****                                    sw_info->general.output.dim.tensor_c, sw_info->general.output.di
 956:../../Middlewares/AI_Runtime/Npu/ll_aton/ll_sw_float.c ****                         STRIDE_INIT(sw_info->general.output.stride.h, sw_info->general.output.strid
 957:../../Middlewares/AI_Runtime/Npu/ll_aton/ll_sw_float.c ****                                     sw_info->general.output.stride.c, sw_info->general.output.strid
 958:../../Middlewares/AI_Runtime/Npu/ll_aton/ll_sw_float.c ****                         1, &argmax_output_array, NULL)
 959:../../Middlewares/AI_Runtime/Npu/ll_aton/ll_sw_float.c ****   // tensor chain initialization
 960:../../Middlewares/AI_Runtime/Npu/ll_aton/ll_sw_float.c ****   AI_TENSOR_CHAIN_OBJ_DECLARE(argmax_chain, , 4, AI_TENSOR_LIST_OBJ_INIT(AI_FLAG_NONE, 1, TENSORS(&
 3705              		.loc 1 960 3 view .LVU944
ARM GAS  C:\Users\Antonio\AppData\Local\Temp\cc6EBOZH.s 			page 93


 3706 007e 1EA9     		add	r1, sp, #120
 953:../../Middlewares/AI_Runtime/Npu/ll_aton/ll_sw_float.c ****                         SHAPE_INIT(sw_info->general.output.dim.tensor_h, sw_info->general.output.di
 3707              		.loc 1 953 3 view .LVU945
 3708 0080 1B92     		str	r2, [sp, #108]
 3709 0082 826C     		ldr	r2, [r0, #72]
 947:../../Middlewares/AI_Runtime/Npu/ll_aton/ll_sw_float.c ****                         SHAPE_INIT(sw_info->general.input.dim.tensor_h, sw_info->general.input.dim.
 3710              		.loc 1 947 3 view .LVU946
 3711 0084 06AD     		add	r5, sp, #24
 953:../../Middlewares/AI_Runtime/Npu/ll_aton/ll_sw_float.c ****                         SHAPE_INIT(sw_info->general.output.dim.tensor_h, sw_info->general.output.di
 3712              		.loc 1 953 3 view .LVU947
 3713 0086 1C92     		str	r2, [sp, #112]
 3714 0088 426C     		ldr	r2, [r0, #68]
 3715 008a CDE92453 		strd	r5, r3, [sp, #144]
 3716 008e 1D92     		str	r2, [sp, #116]
 3717 0090 1AAA     		add	r2, sp, #104
 3718 0092 2A92     		str	r2, [sp, #168]
 3719 0094 0AAA     		add	r2, sp, #40
 3720 0096 2B92     		str	r2, [sp, #172]
 3721              		.loc 1 960 3 is_stmt 1 view .LVU948
 3722 0098 0422     		movs	r2, #4
 3723 009a 0492     		str	r2, [sp, #16]
 3724 009c 0122     		movs	r2, #1
 3725 009e 0091     		str	r1, [sp]
 3726 00a0 3492     		str	r2, [sp, #208]
 3727 00a2 CDF8D4D0 		str	sp, [sp, #212]
 3728 00a6 CDE93632 		strd	r3, r2, [sp, #216]
 3729 00aa 25AA     		add	r2, sp, #148
 3730 00ac 0192     		str	r2, [sp, #4]
 3731 00ae 01AA     		add	r2, sp, #4
 3732 00b0 CDE93823 		strd	r2, r3, [sp, #224]
 3733 00b4 02AA     		add	r2, sp, #8
 3734 00b6 CDE93B23 		strd	r2, r3, [sp, #236]
 3735 00ba 03AA     		add	r2, sp, #12
 3736 00bc CDE93E23 		strd	r2, r3, [sp, #248]
 3737 00c0 34AA     		add	r2, sp, #208
 3738 00c2 0592     		str	r2, [sp, #20]
 961:../../Middlewares/AI_Runtime/Npu/ll_aton/ll_sw_float.c ****                               AI_TENSOR_LIST_OBJ_INIT(AI_FLAG_NONE, 1, TENSORS(&argmax_output)),
 962:../../Middlewares/AI_Runtime/Npu/ll_aton/ll_sw_float.c ****                               AI_TENSOR_LIST_OBJ_EMPTY, AI_TENSOR_LIST_OBJ_EMPTY)
 963:../../Middlewares/AI_Runtime/Npu/ll_aton/ll_sw_float.c **** 
 964:../../Middlewares/AI_Runtime/Npu/ll_aton/ll_sw_float.c ****   AI_LAYER_OBJ_DECLARE(argmax_layer, 1, ARGMINMAX_TYPE, 0x0, NULL, argminmax, forward_argmax, &argm
 3739              		.loc 1 964 3 view .LVU949
 3740 00c4 114A     		ldr	r2, .L104+8
 3741 00c6 CDE92E33 		strd	r3, r3, [sp, #184]
 3742 00ca CDE92C23 		strd	r2, r3, [sp, #176]
 960:../../Middlewares/AI_Runtime/Npu/ll_aton/ll_sw_float.c ****                               AI_TENSOR_LIST_OBJ_INIT(AI_FLAG_NONE, 1, TENSORS(&argmax_output)),
 3743              		.loc 1 960 3 is_stmt 0 view .LVU950
 3744 00ce 3A93     		str	r3, [sp, #232]
 3745 00d0 0293     		str	r3, [sp, #8]
 3746 00d2 3D93     		str	r3, [sp, #244]
 3747 00d4 0393     		str	r3, [sp, #12]
 3748              		.loc 1 964 3 view .LVU951
 3749 00d6 3093     		str	r3, [sp, #192]
 3750 00d8 0D4B     		ldr	r3, .L104+12
 3751 00da 3193     		str	r3, [sp, #196]
 3752 00dc 04AB     		add	r3, sp, #16
 3753 00de 3293     		str	r3, [sp, #200]
 3754              	.LVL170:
ARM GAS  C:\Users\Antonio\AppData\Local\Temp\cc6EBOZH.s 			page 94


 3755              	.LBB56:
 3756              	.LBI56:
  47:../../Middlewares/AI_Runtime/Npu/ll_aton/ll_sw_float.c **** {
 3757              		.loc 1 47 12 is_stmt 1 view .LVU952
  49:../../Middlewares/AI_Runtime/Npu/ll_aton/ll_sw_float.c ****   {
 3758              		.loc 1 49 3 view .LVU953
 3759 00e0 C36D     		ldr	r3, [r0, #92]
 3760 00e2 032B     		cmp	r3, #3
 3761              	.LBE56:
 3762              		.loc 1 964 3 is_stmt 0 view .LVU954
 3763 00e4 8EBF     		itee	hi
 3764 00e6 4FF0FF33 		movhi	r3, #-1
 3765              	.LVL171:
 3766              		.loc 1 964 3 view .LVU955
 3767 00ea 0A4A     		ldrls	r2, .L104+16
 3768 00ec D356     		ldrsbls	r3, [r2, r3]
 3769              		.loc 1 964 3 discriminator 1 view .LVU956
 3770 00ee ADF8CC30 		strh	r3, [sp, #204]	@ movhi
 3771 00f2 436E     		ldr	r3, [r0, #100]
 965:../../Middlewares/AI_Runtime/Npu/ll_aton/ll_sw_float.c ****                        , .axis = helper_emit_shape_index_axis(sw_info->axis),
 966:../../Middlewares/AI_Runtime/Npu/ll_aton/ll_sw_float.c ****                        .select_last_index = sw_info->select_last_index, )
 967:../../Middlewares/AI_Runtime/Npu/ll_aton/ll_sw_float.c ****   argmax_layer.forward(AI_LAYER_OBJ(&argmax_layer));
 3772              		.loc 1 967 3 view .LVU957
 3773 00f4 2CA8     		add	r0, sp, #176
 3774              	.LVL172:
 964:../../Middlewares/AI_Runtime/Npu/ll_aton/ll_sw_float.c ****                        , .axis = helper_emit_shape_index_axis(sw_info->axis),
 3775              		.loc 1 964 3 discriminator 1 view .LVU958
 3776 00f6 ADF8CE30 		strh	r3, [sp, #206]	@ movhi
 3777              		.loc 1 967 3 is_stmt 1 view .LVU959
 3778 00fa FFF7FEFF 		bl	forward_argmax
 3779              	.LVL173:
 968:../../Middlewares/AI_Runtime/Npu/ll_aton/ll_sw_float.c **** }
 3780              		.loc 1 968 1 is_stmt 0 view .LVU960
 3781 00fe 41B0     		add	sp, sp, #260
 3782              		.cfi_def_cfa_offset 12
 3783              		@ sp needed
 3784 0100 30BD     		pop	{r4, r5, pc}
 3785              	.L105:
 3786 0102 00BF     		.align	2
 3787              	.L104:
 3788 0104 40108200 		.word	8523840
 3789 0108 40108400 		.word	8654912
 3790 010c 1F010100 		.word	65823
 3791 0110 00000000 		.word	forward_argmax
 3792 0114 00000000 		.word	CSWTCH.4
 3793              		.cfi_endproc
 3794              	.LFE24:
 3796              		.section	.text.ll_sw_forward_gather,"ax",%progbits
 3797              		.align	1
 3798              		.global	ll_sw_forward_gather
 3799              		.syntax unified
 3800              		.thumb
 3801              		.thumb_func
 3803              	ll_sw_forward_gather:
 3804              	.LVL174:
 3805              	.LFB25:
 969:../../Middlewares/AI_Runtime/Npu/ll_aton/ll_sw_float.c **** 
ARM GAS  C:\Users\Antonio\AppData\Local\Temp\cc6EBOZH.s 			page 95


 970:../../Middlewares/AI_Runtime/Npu/ll_aton/ll_sw_float.c **** //##########################################################################################
 971:../../Middlewares/AI_Runtime/Npu/ll_aton/ll_sw_float.c **** /** Gather forward function  */
 972:../../Middlewares/AI_Runtime/Npu/ll_aton/ll_sw_float.c **** void ll_sw_forward_gather(/* int processor, */ void *sw_info_struct)
 973:../../Middlewares/AI_Runtime/Npu/ll_aton/ll_sw_float.c **** {
 3806              		.loc 1 973 1 is_stmt 1 view -0
 3807              		.cfi_startproc
 3808              		@ args = 0, pretend = 0, frame = 344
 3809              		@ frame_needed = 0, uses_anonymous_args = 0
 974:../../Middlewares/AI_Runtime/Npu/ll_aton/ll_sw_float.c ****   Gather_sw_info *sw_info = (Gather_sw_info *)sw_info_struct;
 3810              		.loc 1 974 3 view .LVU962
 973:../../Middlewares/AI_Runtime/Npu/ll_aton/ll_sw_float.c ****   Gather_sw_info *sw_info = (Gather_sw_info *)sw_info_struct;
 3811              		.loc 1 973 1 is_stmt 0 view .LVU963
 3812 0000 F0B5     		push	{r4, r5, r6, r7, lr}
 3813              		.cfi_def_cfa_offset 20
 3814              		.cfi_offset 4, -20
 3815              		.cfi_offset 5, -16
 3816              		.cfi_offset 6, -12
 3817              		.cfi_offset 7, -8
 3818              		.cfi_offset 14, -4
 3819 0002 0446     		mov	r4, r0
 3820              	.LVL175:
 975:../../Middlewares/AI_Runtime/Npu/ll_aton/ll_sw_float.c ****   AI_ARRAY_OBJ_DECLARE(input_output_array, FORMAT, sw_info->general.input.mem.start_offset,
 3821              		.loc 1 975 3 is_stmt 1 view .LVU964
 3822 0004 5049     		ldr	r1, .L109
 973:../../Middlewares/AI_Runtime/Npu/ll_aton/ll_sw_float.c ****   Gather_sw_info *sw_info = (Gather_sw_info *)sw_info_struct;
 3823              		.loc 1 973 1 is_stmt 0 view .LVU965
 3824 0006 D7B0     		sub	sp, sp, #348
 3825              		.cfi_def_cfa_offset 368
 3826              		.loc 1 975 3 view .LVU966
 3827 0008 0891     		str	r1, [sp, #32]
 976:../../Middlewares/AI_Runtime/Npu/ll_aton/ll_sw_float.c ****                        sw_info->general.input.mem.start_offset, sw_info->general.input.dim.num_elem
 977:../../Middlewares/AI_Runtime/Npu/ll_aton/ll_sw_float.c ****   AI_ARRAY_OBJ_DECLARE(indexes_array, AI_ARRAY_FORMAT_S32, sw_info->operand.mem.start_offset,
 978:../../Middlewares/AI_Runtime/Npu/ll_aton/ll_sw_float.c ****                        sw_info->operand.mem.start_offset, sw_info->operand.dim.num_elem, )
 979:../../Middlewares/AI_Runtime/Npu/ll_aton/ll_sw_float.c ****   AI_ARRAY_OBJ_DECLARE(gather_output_array, FORMAT, sw_info->general.output.mem.start_offset,
 3828              		.loc 1 979 3 view .LVU967
 3829 000a 1091     		str	r1, [sp, #64]
 3830 000c 216C     		ldr	r1, [r4, #64]
 980:../../Middlewares/AI_Runtime/Npu/ll_aton/ll_sw_float.c ****                        sw_info->general.output.mem.start_offset, sw_info->general.output.dim.num_el
 981:../../Middlewares/AI_Runtime/Npu/ll_aton/ll_sw_float.c ****   // tensor init
 982:../../Middlewares/AI_Runtime/Npu/ll_aton/ll_sw_float.c ****   AI_TENSOR_OBJ_DECLARE(input_output, , 0x0, 4,
 3831              		.loc 1 982 3 view .LVU968
 3832 000e 4FF0827C 		mov	ip, #17039360
 979:../../Middlewares/AI_Runtime/Npu/ll_aton/ll_sw_float.c ****                        sw_info->general.output.mem.start_offset, sw_info->general.output.dim.num_el
 3833              		.loc 1 979 3 view .LVU969
 3834 0012 1191     		str	r1, [sp, #68]
 3835 0014 616D     		ldr	r1, [r4, #84]
 3836              		.loc 1 982 3 view .LVU970
 3837 0016 40F20146 		movw	r6, #1025
 979:../../Middlewares/AI_Runtime/Npu/ll_aton/ll_sw_float.c ****                        sw_info->general.output.mem.start_offset, sw_info->general.output.dim.num_el
 3838              		.loc 1 979 3 view .LVU971
 3839 001a CDE91211 		strd	r1, r1, [sp, #72]
 3840              		.loc 1 982 3 view .LVU972
 3841 001e 0021     		movs	r1, #0
 3842 0020 2769     		ldr	r7, [r4, #16]
 975:../../Middlewares/AI_Runtime/Npu/ll_aton/ll_sw_float.c ****                        sw_info->general.input.mem.start_offset, sw_info->general.input.dim.num_elem
 3843              		.loc 1 975 3 view .LVU973
 3844 0022 6369     		ldr	r3, [r4, #20]
ARM GAS  C:\Users\Antonio\AppData\Local\Temp\cc6EBOZH.s 			page 96


 3845              		.loc 1 982 3 view .LVU974
 3846 0024 1497     		str	r7, [sp, #80]
 3847 0026 E768     		ldr	r7, [r4, #12]
 975:../../Middlewares/AI_Runtime/Npu/ll_aton/ll_sw_float.c ****                        sw_info->general.input.mem.start_offset, sw_info->general.input.dim.num_elem
 3848              		.loc 1 975 3 view .LVU975
 3849 0028 0993     		str	r3, [sp, #36]
 3850              		.loc 1 982 3 view .LVU976
 3851 002a 1597     		str	r7, [sp, #84]
 3852 002c A768     		ldr	r7, [r4, #8]
 975:../../Middlewares/AI_Runtime/Npu/ll_aton/ll_sw_float.c ****                        sw_info->general.input.mem.start_offset, sw_info->general.input.dim.num_elem
 3853              		.loc 1 975 3 view .LVU977
 3854 002e A36A     		ldr	r3, [r4, #40]
 3855              		.loc 1 982 3 view .LVU978
 3856 0030 1697     		str	r7, [sp, #88]
 3857 0032 6768     		ldr	r7, [r4, #4]
 975:../../Middlewares/AI_Runtime/Npu/ll_aton/ll_sw_float.c ****                        sw_info->general.input.mem.start_offset, sw_info->general.input.dim.num_elem
 3858              		.loc 1 975 3 view .LVU979
 3859 0034 CDE90A33 		strd	r3, r3, [sp, #40]
 977:../../Middlewares/AI_Runtime/Npu/ll_aton/ll_sw_float.c ****                        sw_info->operand.mem.start_offset, sw_info->operand.dim.num_elem, )
 3860              		.loc 1 977 3 is_stmt 1 view .LVU980
 3861              		.loc 1 982 3 is_stmt 0 view .LVU981
 3862 0038 1797     		str	r7, [sp, #92]
 3863 003a 40F20247 		movw	r7, #1026
 977:../../Middlewares/AI_Runtime/Npu/ll_aton/ll_sw_float.c ****                        sw_info->operand.mem.start_offset, sw_info->operand.dim.num_elem, )
 3864              		.loc 1 977 3 view .LVU982
 3865 003e 434B     		ldr	r3, .L109+4
 3866              		.loc 1 982 3 view .LVU983
 3867 0040 14AD     		add	r5, sp, #80
 977:../../Middlewares/AI_Runtime/Npu/ll_aton/ll_sw_float.c ****                        sw_info->operand.mem.start_offset, sw_info->operand.dim.num_elem, )
 3868              		.loc 1 977 3 view .LVU984
 3869 0042 0C93     		str	r3, [sp, #48]
 3870 0044 E36E     		ldr	r3, [r4, #108]
 3871              		.loc 1 982 3 view .LVU985
 3872 0046 CDE92C1C 		strd	r1, ip, [sp, #176]
 977:../../Middlewares/AI_Runtime/Npu/ll_aton/ll_sw_float.c ****                        sw_info->operand.mem.start_offset, sw_info->operand.dim.num_elem, )
 3873              		.loc 1 977 3 view .LVU986
 3874 004a 0D93     		str	r3, [sp, #52]
 3875 004c D4F88030 		ldr	r3, [r4, #128]
 3876              		.loc 1 982 3 view .LVU987
 3877 0050 2E96     		str	r6, [sp, #184]
 977:../../Middlewares/AI_Runtime/Npu/ll_aton/ll_sw_float.c ****                        sw_info->operand.mem.start_offset, sw_info->operand.dim.num_elem, )
 3878              		.loc 1 977 3 view .LVU988
 3879 0052 CDE90E33 		strd	r3, r3, [sp, #56]
 979:../../Middlewares/AI_Runtime/Npu/ll_aton/ll_sw_float.c ****                        sw_info->general.output.mem.start_offset, sw_info->general.output.dim.num_el
 3880              		.loc 1 979 3 is_stmt 1 view .LVU989
 3881              		.loc 1 982 3 view .LVU990
 3882 0056 2F95     		str	r5, [sp, #188]
 3883 0058 656A     		ldr	r5, [r4, #36]
 975:../../Middlewares/AI_Runtime/Npu/ll_aton/ll_sw_float.c ****                        sw_info->general.input.mem.start_offset, sw_info->general.input.dim.num_elem
 3884              		.loc 1 975 3 is_stmt 0 view .LVU991
 3885 005a 08A8     		add	r0, sp, #32
 3886              	.LVL176:
 3887              		.loc 1 982 3 view .LVU992
 3888 005c 1895     		str	r5, [sp, #96]
 3889 005e 256A     		ldr	r5, [r4, #32]
 977:../../Middlewares/AI_Runtime/Npu/ll_aton/ll_sw_float.c ****                        sw_info->operand.mem.start_offset, sw_info->operand.dim.num_elem, )
 3890              		.loc 1 977 3 view .LVU993
ARM GAS  C:\Users\Antonio\AppData\Local\Temp\cc6EBOZH.s 			page 97


 3891 0060 0CAA     		add	r2, sp, #48
 3892              		.loc 1 982 3 view .LVU994
 3893 0062 1995     		str	r5, [sp, #100]
 3894 0064 E569     		ldr	r5, [r4, #28]
 983:../../Middlewares/AI_Runtime/Npu/ll_aton/ll_sw_float.c ****                         SHAPE_INIT(sw_info->general.input.dim.tensor_h, sw_info->general.input.dim.
 984:../../Middlewares/AI_Runtime/Npu/ll_aton/ll_sw_float.c ****                                    sw_info->general.input.dim.tensor_c, sw_info->general.input.dim.
 985:../../Middlewares/AI_Runtime/Npu/ll_aton/ll_sw_float.c ****                         STRIDE_INIT(sw_info->general.input.stride.h, sw_info->general.input.stride.
 986:../../Middlewares/AI_Runtime/Npu/ll_aton/ll_sw_float.c ****                                     sw_info->general.input.stride.c, sw_info->general.input.stride.
 987:../../Middlewares/AI_Runtime/Npu/ll_aton/ll_sw_float.c ****                         1, &input_output_array, NULL)
 988:../../Middlewares/AI_Runtime/Npu/ll_aton/ll_sw_float.c ****   AI_TENSOR_OBJ_DECLARE(indexes, , 0x0, 4,
 3895              		.loc 1 988 3 view .LVU995
 3896 0066 CDE9331C 		strd	r1, ip, [sp, #204]
 982:../../Middlewares/AI_Runtime/Npu/ll_aton/ll_sw_float.c ****                         SHAPE_INIT(sw_info->general.input.dim.tensor_h, sw_info->general.input.dim.
 3897              		.loc 1 982 3 view .LVU996
 3898 006a 1A95     		str	r5, [sp, #104]
 3899 006c A569     		ldr	r5, [r4, #24]
 3900 006e 3097     		str	r7, [sp, #192]
 3901 0070 1B95     		str	r5, [sp, #108]
 3902 0072 18AD     		add	r5, sp, #96
 3903 0074 CDE93150 		strd	r5, r0, [sp, #196]
 3904              		.loc 1 988 3 is_stmt 1 view .LVU997
 3905 0078 A06E     		ldr	r0, [r4, #104]
 3906 007a 3596     		str	r6, [sp, #212]
 3907 007c 1C90     		str	r0, [sp, #112]
 3908 007e 606E     		ldr	r0, [r4, #100]
 979:../../Middlewares/AI_Runtime/Npu/ll_aton/ll_sw_float.c ****                        sw_info->general.output.mem.start_offset, sw_info->general.output.dim.num_el
 3909              		.loc 1 979 3 is_stmt 0 view .LVU998
 3910 0080 10AB     		add	r3, sp, #64
 3911              		.loc 1 988 3 view .LVU999
 3912 0082 1D90     		str	r0, [sp, #116]
 3913 0084 206E     		ldr	r0, [r4, #96]
 989:../../Middlewares/AI_Runtime/Npu/ll_aton/ll_sw_float.c ****                         SHAPE_INIT(sw_info->operand.dim.tensor_h, sw_info->operand.dim.tensor_w,
 990:../../Middlewares/AI_Runtime/Npu/ll_aton/ll_sw_float.c ****                                    sw_info->operand.dim.tensor_c, sw_info->operand.dim.tensor_b),
 991:../../Middlewares/AI_Runtime/Npu/ll_aton/ll_sw_float.c ****                         STRIDE_INIT(sw_info->operand.stride.h, sw_info->operand.stride.w, sw_info->
 992:../../Middlewares/AI_Runtime/Npu/ll_aton/ll_sw_float.c ****                                     sw_info->operand.stride.b),
 993:../../Middlewares/AI_Runtime/Npu/ll_aton/ll_sw_float.c ****                         1, &indexes_array, NULL)
 994:../../Middlewares/AI_Runtime/Npu/ll_aton/ll_sw_float.c ****   AI_TENSOR_OBJ_DECLARE(gather_output, , 0x0, 4,
 995:../../Middlewares/AI_Runtime/Npu/ll_aton/ll_sw_float.c ****                         SHAPE_INIT(sw_info->general.output.dim.tensor_h, sw_info->general.output.di
 996:../../Middlewares/AI_Runtime/Npu/ll_aton/ll_sw_float.c ****                                    sw_info->general.output.dim.tensor_c, sw_info->general.output.di
 997:../../Middlewares/AI_Runtime/Npu/ll_aton/ll_sw_float.c ****                         STRIDE_INIT(sw_info->general.output.stride.h, sw_info->general.output.strid
 998:../../Middlewares/AI_Runtime/Npu/ll_aton/ll_sw_float.c ****                                     sw_info->general.output.stride.c, sw_info->general.output.strid
 999:../../Middlewares/AI_Runtime/Npu/ll_aton/ll_sw_float.c ****                         1, &gather_output_array, NULL)
1000:../../Middlewares/AI_Runtime/Npu/ll_aton/ll_sw_float.c ****   // tensor chain initialization
1001:../../Middlewares/AI_Runtime/Npu/ll_aton/ll_sw_float.c ****   AI_TENSOR_CHAIN_OBJ_DECLARE(gather_chain, , 4,
 3914              		.loc 1 1001 3 view .LVU1000
 3915 0086 04AD     		add	r5, sp, #16
 988:../../Middlewares/AI_Runtime/Npu/ll_aton/ll_sw_float.c ****                         SHAPE_INIT(sw_info->operand.dim.tensor_h, sw_info->operand.dim.tensor_w,
 3916              		.loc 1 988 3 view .LVU1001
 3917 0088 1E90     		str	r0, [sp, #120]
 3918 008a E06D     		ldr	r0, [r4, #92]
 3919 008c 1F90     		str	r0, [sp, #124]
 3920 008e 1CA8     		add	r0, sp, #112
 3921 0090 CDE93607 		strd	r0, r7, [sp, #216]
 3922 0094 E06F     		ldr	r0, [r4, #124]
 3923 0096 2090     		str	r0, [sp, #128]
 3924 0098 A06F     		ldr	r0, [r4, #120]
 3925 009a 2190     		str	r0, [sp, #132]
ARM GAS  C:\Users\Antonio\AppData\Local\Temp\cc6EBOZH.s 			page 98


 3926 009c 606F     		ldr	r0, [r4, #116]
 3927 009e 2290     		str	r0, [sp, #136]
 3928 00a0 206F     		ldr	r0, [r4, #112]
 3929 00a2 2390     		str	r0, [sp, #140]
 3930 00a4 20A8     		add	r0, sp, #128
 3931 00a6 CDE93802 		strd	r0, r2, [sp, #224]
 994:../../Middlewares/AI_Runtime/Npu/ll_aton/ll_sw_float.c ****                         SHAPE_INIT(sw_info->general.output.dim.tensor_h, sw_info->general.output.di
 3932              		.loc 1 994 3 is_stmt 1 view .LVU1002
 3933 00aa E26B     		ldr	r2, [r4, #60]
 3934 00ac CDE93A1C 		strd	r1, ip, [sp, #232]
 3935 00b0 2492     		str	r2, [sp, #144]
 3936 00b2 A26B     		ldr	r2, [r4, #56]
 3937 00b4 3C96     		str	r6, [sp, #240]
 3938 00b6 2592     		str	r2, [sp, #148]
 3939 00b8 626B     		ldr	r2, [r4, #52]
1002:../../Middlewares/AI_Runtime/Npu/ll_aton/ll_sw_float.c ****                               AI_TENSOR_LIST_OBJ_INIT(AI_FLAG_NONE, 2, TENSORS(&input_output), TENS
1003:../../Middlewares/AI_Runtime/Npu/ll_aton/ll_sw_float.c ****                               AI_TENSOR_LIST_OBJ_INIT(AI_FLAG_NONE, 1, TENSORS(&gather_output)),
1004:../../Middlewares/AI_Runtime/Npu/ll_aton/ll_sw_float.c ****                               AI_TENSOR_LIST_OBJ_EMPTY, AI_TENSOR_LIST_OBJ_EMPTY)
1005:../../Middlewares/AI_Runtime/Npu/ll_aton/ll_sw_float.c ****   // LL_ATON_PRINTF("axis %d \n", sw_info->axis);
1006:../../Middlewares/AI_Runtime/Npu/ll_aton/ll_sw_float.c ****   // LL_ATON_PRINTF("index %d \n", *(int32_t *)(sw_info->operand.mem.start_offset));
1007:../../Middlewares/AI_Runtime/Npu/ll_aton/ll_sw_float.c ****   // LL_ATON_FFLUSH(stdout);
1008:../../Middlewares/AI_Runtime/Npu/ll_aton/ll_sw_float.c ****   AI_LAYER_OBJ_DECLARE(gather_layer, 1, GATHER_TYPE, 0x0, NULL, gather, forward_gather, &gather_cha
 3940              		.loc 1 1008 3 is_stmt 0 view .LVU1003
 3941 00ba 42A8     		add	r0, sp, #264
 994:../../Middlewares/AI_Runtime/Npu/ll_aton/ll_sw_float.c ****                         SHAPE_INIT(sw_info->general.output.dim.tensor_h, sw_info->general.output.di
 3942              		.loc 1 994 3 view .LVU1004
 3943 00bc 2692     		str	r2, [sp, #152]
 3944 00be 226B     		ldr	r2, [r4, #48]
 3945 00c0 2792     		str	r2, [sp, #156]
 3946 00c2 24AA     		add	r2, sp, #144
 3947 00c4 CDE93D27 		strd	r2, r7, [sp, #244]
 3948 00c8 226D     		ldr	r2, [r4, #80]
 3949 00ca 2892     		str	r2, [sp, #160]
 3950 00cc E26C     		ldr	r2, [r4, #76]
 3951 00ce 2992     		str	r2, [sp, #164]
 3952 00d0 A26C     		ldr	r2, [r4, #72]
 3953 00d2 2A92     		str	r2, [sp, #168]
 3954 00d4 626C     		ldr	r2, [r4, #68]
 3955 00d6 2B92     		str	r2, [sp, #172]
 3956 00d8 28AA     		add	r2, sp, #160
 3957 00da CDE93F23 		strd	r2, r3, [sp, #252]
1001:../../Middlewares/AI_Runtime/Npu/ll_aton/ll_sw_float.c ****                               AI_TENSOR_LIST_OBJ_INIT(AI_FLAG_NONE, 2, TENSORS(&input_output), TENS
 3958              		.loc 1 1001 3 is_stmt 1 view .LVU1005
 3959 00de 0423     		movs	r3, #4
 3960 00e0 0493     		str	r3, [sp, #16]
 3961 00e2 0223     		movs	r3, #2
 3962 00e4 4A93     		str	r3, [sp, #296]
 3963 00e6 06AB     		add	r3, sp, #24
 3964 00e8 CDE94B31 		strd	r3, r1, [sp, #300]
 3965 00ec 0123     		movs	r3, #1
 3966 00ee 2CAA     		add	r2, sp, #176
 3967 00f0 0692     		str	r2, [sp, #24]
 3968 00f2 33AA     		add	r2, sp, #204
 3969 00f4 0792     		str	r2, [sp, #28]
 3970 00f6 4D93     		str	r3, [sp, #308]
 3971 00f8 3AAA     		add	r2, sp, #232
 3972 00fa 01AB     		add	r3, sp, #4
ARM GAS  C:\Users\Antonio\AppData\Local\Temp\cc6EBOZH.s 			page 99


 3973 00fc 0192     		str	r2, [sp, #4]
 3974 00fe CDE94E31 		strd	r3, r1, [sp, #312]
 3975 0102 02AB     		add	r3, sp, #8
 3976 0104 CDE95131 		strd	r3, r1, [sp, #324]
 3977 0108 03AB     		add	r3, sp, #12
 3978 010a CDE95431 		strd	r3, r1, [sp, #336]
 3979 010e 4AAB     		add	r3, sp, #296
 3980 0110 0593     		str	r3, [sp, #20]
 3981              		.loc 1 1008 3 view .LVU1006
 3982 0112 0F4B     		ldr	r3, .L109+8
 3983 0114 2022     		movs	r2, #32
1001:../../Middlewares/AI_Runtime/Npu/ll_aton/ll_sw_float.c ****                               AI_TENSOR_LIST_OBJ_INIT(AI_FLAG_NONE, 2, TENSORS(&input_output), TENS
 3984              		.loc 1 1001 3 is_stmt 0 view .LVU1007
 3985 0116 5091     		str	r1, [sp, #320]
 3986 0118 0291     		str	r1, [sp, #8]
 3987 011a 5391     		str	r1, [sp, #332]
 3988 011c 0391     		str	r1, [sp, #12]
 3989              		.loc 1 1008 3 view .LVU1008
 3990 011e 4193     		str	r3, [sp, #260]
 3991 0120 FFF7FEFF 		bl	memset
 3992              	.LVL177:
 3993 0124 0B4B     		ldr	r3, .L109+12
1009:../../Middlewares/AI_Runtime/Npu/ll_aton/ll_sw_float.c ****                        .axis = helper_emit_shape_index_axis(sw_info->axis), )
1010:../../Middlewares/AI_Runtime/Npu/ll_aton/ll_sw_float.c ****   gather_layer.forward(AI_LAYER_OBJ(&gather_layer));
 3994              		.loc 1 1010 3 view .LVU1009
 3995 0126 41A8     		add	r0, sp, #260
1008:../../Middlewares/AI_Runtime/Npu/ll_aton/ll_sw_float.c ****                        .axis = helper_emit_shape_index_axis(sw_info->axis), )
 3996              		.loc 1 1008 3 view .LVU1010
 3997 0128 CDE94635 		strd	r3, r5, [sp, #280]
 3998              	.LVL178:
 3999              	.LBB59:
 4000              	.LBI59:
  47:../../Middlewares/AI_Runtime/Npu/ll_aton/ll_sw_float.c **** {
 4001              		.loc 1 47 12 is_stmt 1 view .LVU1011
  49:../../Middlewares/AI_Runtime/Npu/ll_aton/ll_sw_float.c ****   {
 4002              		.loc 1 49 3 view .LVU1012
 4003 012c D4F88830 		ldr	r3, [r4, #136]
 4004 0130 032B     		cmp	r3, #3
 4005              	.LBE59:
1008:../../Middlewares/AI_Runtime/Npu/ll_aton/ll_sw_float.c ****                        .axis = helper_emit_shape_index_axis(sw_info->axis), )
 4006              		.loc 1 1008 3 is_stmt 0 view .LVU1013
 4007 0132 8EBF     		itee	hi
 4008 0134 4FF0FF33 		movhi	r3, #-1
 4009              	.LVL179:
1008:../../Middlewares/AI_Runtime/Npu/ll_aton/ll_sw_float.c ****                        .axis = helper_emit_shape_index_axis(sw_info->axis), )
 4010              		.loc 1 1008 3 view .LVU1014
 4011 0138 074A     		ldrls	r2, .L109+16
 4012 013a D356     		ldrsbls	r3, [r2, r3]
1008:../../Middlewares/AI_Runtime/Npu/ll_aton/ll_sw_float.c ****                        .axis = helper_emit_shape_index_axis(sw_info->axis), )
 4013              		.loc 1 1008 3 discriminator 1 view .LVU1015
 4014 013c ADF82031 		strh	r3, [sp, #288]	@ movhi
 4015              		.loc 1 1010 3 is_stmt 1 view .LVU1016
 4016 0140 FFF7FEFF 		bl	forward_gather
 4017              	.LVL180:
1011:../../Middlewares/AI_Runtime/Npu/ll_aton/ll_sw_float.c **** }
 4018              		.loc 1 1011 1 is_stmt 0 view .LVU1017
 4019 0144 57B0     		add	sp, sp, #348
ARM GAS  C:\Users\Antonio\AppData\Local\Temp\cc6EBOZH.s 			page 100


 4020              		.cfi_def_cfa_offset 20
 4021              		@ sp needed
 4022 0146 F0BD     		pop	{r4, r5, r6, r7, pc}
 4023              	.LVL181:
 4024              	.L110:
 4025              		.loc 1 1011 1 view .LVU1018
 4026              		.align	2
 4027              	.L109:
 4028 0148 40108200 		.word	8523840
 4029 014c 40108400 		.word	8654912
 4030 0150 1C010100 		.word	65820
 4031 0154 00000000 		.word	forward_gather
 4032 0158 00000000 		.word	CSWTCH.4
 4033              		.cfi_endproc
 4034              	.LFE25:
 4036              		.section	.text.ll_sw_forward_argmin,"ax",%progbits
 4037              		.align	1
 4038              		.global	ll_sw_forward_argmin
 4039              		.syntax unified
 4040              		.thumb
 4041              		.thumb_func
 4043              	ll_sw_forward_argmin:
 4044              	.LVL182:
 4045              	.LFB26:
1012:../../Middlewares/AI_Runtime/Npu/ll_aton/ll_sw_float.c **** 
1013:../../Middlewares/AI_Runtime/Npu/ll_aton/ll_sw_float.c **** //##########################################################################################
1014:../../Middlewares/AI_Runtime/Npu/ll_aton/ll_sw_float.c **** /** ArgMin forward function  */
1015:../../Middlewares/AI_Runtime/Npu/ll_aton/ll_sw_float.c **** void ll_sw_forward_argmin(/* int processor, */ void *sw_info_struct)
1016:../../Middlewares/AI_Runtime/Npu/ll_aton/ll_sw_float.c **** {
 4046              		.loc 1 1016 1 is_stmt 1 view -0
 4047              		.cfi_startproc
 4048              		@ args = 0, pretend = 0, frame = 256
 4049              		@ frame_needed = 0, uses_anonymous_args = 0
1017:../../Middlewares/AI_Runtime/Npu/ll_aton/ll_sw_float.c ****   Argmin_sw_info *sw_info = (Argmin_sw_info *)sw_info_struct;
 4050              		.loc 1 1017 3 view .LVU1020
1018:../../Middlewares/AI_Runtime/Npu/ll_aton/ll_sw_float.c ****   AI_ARRAY_OBJ_DECLARE(input_output_array, FORMAT, sw_info->general.input.mem.start_offset,
 4051              		.loc 1 1018 3 view .LVU1021
1016:../../Middlewares/AI_Runtime/Npu/ll_aton/ll_sw_float.c ****   Argmin_sw_info *sw_info = (Argmin_sw_info *)sw_info_struct;
 4052              		.loc 1 1016 1 is_stmt 0 view .LVU1022
 4053 0000 30B5     		push	{r4, r5, lr}
 4054              		.cfi_def_cfa_offset 12
 4055              		.cfi_offset 4, -12
 4056              		.cfi_offset 5, -8
 4057              		.cfi_offset 14, -4
 4058              		.loc 1 1018 3 view .LVU1023
 4059 0002 404B     		ldr	r3, .L114
1016:../../Middlewares/AI_Runtime/Npu/ll_aton/ll_sw_float.c ****   Argmin_sw_info *sw_info = (Argmin_sw_info *)sw_info_struct;
 4060              		.loc 1 1016 1 view .LVU1024
 4061 0004 C1B0     		sub	sp, sp, #260
 4062              		.cfi_def_cfa_offset 272
 4063              		.loc 1 1018 3 view .LVU1025
 4064 0006 0693     		str	r3, [sp, #24]
 4065 0008 4369     		ldr	r3, [r0, #20]
1019:../../Middlewares/AI_Runtime/Npu/ll_aton/ll_sw_float.c ****                        sw_info->general.input.mem.start_offset, sw_info->general.input.dim.num_elem
1020:../../Middlewares/AI_Runtime/Npu/ll_aton/ll_sw_float.c ****   AI_ARRAY_OBJ_DECLARE(argmin_output_array, AI_ARRAY_FORMAT_S32, sw_info->general.output.mem.start_
1021:../../Middlewares/AI_Runtime/Npu/ll_aton/ll_sw_float.c ****                        sw_info->general.output.mem.start_offset, sw_info->general.output.dim.num_el
1022:../../Middlewares/AI_Runtime/Npu/ll_aton/ll_sw_float.c ****   // tensor init
ARM GAS  C:\Users\Antonio\AppData\Local\Temp\cc6EBOZH.s 			page 101


1023:../../Middlewares/AI_Runtime/Npu/ll_aton/ll_sw_float.c ****   AI_TENSOR_OBJ_DECLARE(input_output, , 0x0, 4,
 4066              		.loc 1 1023 3 view .LVU1026
 4067 000a 0269     		ldr	r2, [r0, #16]
1018:../../Middlewares/AI_Runtime/Npu/ll_aton/ll_sw_float.c ****                        sw_info->general.input.mem.start_offset, sw_info->general.input.dim.num_elem
 4068              		.loc 1 1018 3 view .LVU1027
 4069 000c 0793     		str	r3, [sp, #28]
 4070 000e 836A     		ldr	r3, [r0, #40]
 4071              		.loc 1 1023 3 view .LVU1028
 4072 0010 0E92     		str	r2, [sp, #56]
 4073 0012 C268     		ldr	r2, [r0, #12]
1018:../../Middlewares/AI_Runtime/Npu/ll_aton/ll_sw_float.c ****                        sw_info->general.input.mem.start_offset, sw_info->general.input.dim.num_elem
 4074              		.loc 1 1018 3 view .LVU1029
 4075 0014 CDE90833 		strd	r3, r3, [sp, #32]
1020:../../Middlewares/AI_Runtime/Npu/ll_aton/ll_sw_float.c ****                        sw_info->general.output.mem.start_offset, sw_info->general.output.dim.num_el
 4076              		.loc 1 1020 3 is_stmt 1 view .LVU1030
 4077 0018 3B4B     		ldr	r3, .L114+4
 4078              		.loc 1 1023 3 is_stmt 0 view .LVU1031
 4079 001a 0F92     		str	r2, [sp, #60]
 4080 001c 8268     		ldr	r2, [r0, #8]
1020:../../Middlewares/AI_Runtime/Npu/ll_aton/ll_sw_float.c ****                        sw_info->general.output.mem.start_offset, sw_info->general.output.dim.num_el
 4081              		.loc 1 1020 3 view .LVU1032
 4082 001e 0A93     		str	r3, [sp, #40]
 4083 0020 036C     		ldr	r3, [r0, #64]
 4084              		.loc 1 1023 3 view .LVU1033
 4085 0022 1092     		str	r2, [sp, #64]
 4086 0024 4268     		ldr	r2, [r0, #4]
1020:../../Middlewares/AI_Runtime/Npu/ll_aton/ll_sw_float.c ****                        sw_info->general.output.mem.start_offset, sw_info->general.output.dim.num_el
 4087              		.loc 1 1020 3 view .LVU1034
 4088 0026 0B93     		str	r3, [sp, #44]
 4089 0028 436D     		ldr	r3, [r0, #84]
 4090              		.loc 1 1023 3 view .LVU1035
 4091 002a 1192     		str	r2, [sp, #68]
 4092 002c 0EAA     		add	r2, sp, #56
 4093 002e 4FF08274 		mov	r4, #17039360
 4094 0032 40F20141 		movw	r1, #1025
1020:../../Middlewares/AI_Runtime/Npu/ll_aton/ll_sw_float.c ****                        sw_info->general.output.mem.start_offset, sw_info->general.output.dim.num_el
 4095              		.loc 1 1020 3 view .LVU1036
 4096 0036 CDE90C33 		strd	r3, r3, [sp, #48]
 4097              		.loc 1 1023 3 is_stmt 1 view .LVU1037
 4098 003a 2192     		str	r2, [sp, #132]
 4099 003c 0023     		movs	r3, #0
 4100 003e 40F20242 		movw	r2, #1026
 4101 0042 456A     		ldr	r5, [r0, #36]
 4102 0044 CDE91E34 		strd	r3, r4, [sp, #120]
 4103 0048 1295     		str	r5, [sp, #72]
 4104 004a 056A     		ldr	r5, [r0, #32]
 4105 004c 2091     		str	r1, [sp, #128]
 4106 004e 2292     		str	r2, [sp, #136]
 4107 0050 1395     		str	r5, [sp, #76]
 4108 0052 C569     		ldr	r5, [r0, #28]
1024:../../Middlewares/AI_Runtime/Npu/ll_aton/ll_sw_float.c ****                         SHAPE_INIT(sw_info->general.input.dim.tensor_h, sw_info->general.input.dim.
1025:../../Middlewares/AI_Runtime/Npu/ll_aton/ll_sw_float.c ****                                    sw_info->general.input.dim.tensor_c, sw_info->general.input.dim.
1026:../../Middlewares/AI_Runtime/Npu/ll_aton/ll_sw_float.c ****                         STRIDE_INIT(sw_info->general.input.stride.h, sw_info->general.input.stride.
1027:../../Middlewares/AI_Runtime/Npu/ll_aton/ll_sw_float.c ****                                     sw_info->general.input.stride.c, sw_info->general.input.stride.
1028:../../Middlewares/AI_Runtime/Npu/ll_aton/ll_sw_float.c ****                         1, &input_output_array, NULL)
1029:../../Middlewares/AI_Runtime/Npu/ll_aton/ll_sw_float.c ****   AI_TENSOR_OBJ_DECLARE(argmin_output, , 0x0, 4,
 4109              		.loc 1 1029 3 is_stmt 0 view .LVU1038
ARM GAS  C:\Users\Antonio\AppData\Local\Temp\cc6EBOZH.s 			page 102


 4110 0054 CDE92641 		strd	r4, r1, [sp, #152]
 4111 0058 C16B     		ldr	r1, [r0, #60]
1023:../../Middlewares/AI_Runtime/Npu/ll_aton/ll_sw_float.c ****                         SHAPE_INIT(sw_info->general.input.dim.tensor_h, sw_info->general.input.dim.
 4112              		.loc 1 1023 3 view .LVU1039
 4113 005a 1495     		str	r5, [sp, #80]
 4114              		.loc 1 1029 3 view .LVU1040
 4115 005c 1691     		str	r1, [sp, #88]
 4116 005e 816B     		ldr	r1, [r0, #56]
1023:../../Middlewares/AI_Runtime/Npu/ll_aton/ll_sw_float.c ****                         SHAPE_INIT(sw_info->general.input.dim.tensor_h, sw_info->general.input.dim.
 4117              		.loc 1 1023 3 view .LVU1041
 4118 0060 8569     		ldr	r5, [r0, #24]
 4119              		.loc 1 1029 3 view .LVU1042
 4120 0062 1791     		str	r1, [sp, #92]
 4121 0064 416B     		ldr	r1, [r0, #52]
1023:../../Middlewares/AI_Runtime/Npu/ll_aton/ll_sw_float.c ****                         SHAPE_INIT(sw_info->general.input.dim.tensor_h, sw_info->general.input.dim.
 4122              		.loc 1 1023 3 view .LVU1043
 4123 0066 1595     		str	r5, [sp, #84]
 4124              		.loc 1 1029 3 view .LVU1044
 4125 0068 1891     		str	r1, [sp, #96]
 4126 006a 016B     		ldr	r1, [r0, #48]
1023:../../Middlewares/AI_Runtime/Npu/ll_aton/ll_sw_float.c ****                         SHAPE_INIT(sw_info->general.input.dim.tensor_h, sw_info->general.input.dim.
 4127              		.loc 1 1023 3 view .LVU1045
 4128 006c 12AD     		add	r5, sp, #72
 4129              		.loc 1 1029 3 view .LVU1046
 4130 006e 1991     		str	r1, [sp, #100]
 4131 0070 16A9     		add	r1, sp, #88
 4132 0072 CDE92812 		strd	r1, r2, [sp, #160]
 4133 0076 026D     		ldr	r2, [r0, #80]
1023:../../Middlewares/AI_Runtime/Npu/ll_aton/ll_sw_float.c ****                         SHAPE_INIT(sw_info->general.input.dim.tensor_h, sw_info->general.input.dim.
 4134              		.loc 1 1023 3 view .LVU1047
 4135 0078 2395     		str	r5, [sp, #140]
 4136              		.loc 1 1029 3 view .LVU1048
 4137 007a 1A92     		str	r2, [sp, #104]
 4138 007c C26C     		ldr	r2, [r0, #76]
1030:../../Middlewares/AI_Runtime/Npu/ll_aton/ll_sw_float.c ****                         SHAPE_INIT(sw_info->general.output.dim.tensor_h, sw_info->general.output.di
1031:../../Middlewares/AI_Runtime/Npu/ll_aton/ll_sw_float.c ****                                    sw_info->general.output.dim.tensor_c, sw_info->general.output.di
1032:../../Middlewares/AI_Runtime/Npu/ll_aton/ll_sw_float.c ****                         STRIDE_INIT(sw_info->general.output.stride.h, sw_info->general.output.strid
1033:../../Middlewares/AI_Runtime/Npu/ll_aton/ll_sw_float.c ****                                     sw_info->general.output.stride.c, sw_info->general.output.strid
1034:../../Middlewares/AI_Runtime/Npu/ll_aton/ll_sw_float.c ****                         1, &argmin_output_array, NULL)
1035:../../Middlewares/AI_Runtime/Npu/ll_aton/ll_sw_float.c ****   // tensor chain initialization
1036:../../Middlewares/AI_Runtime/Npu/ll_aton/ll_sw_float.c ****   AI_TENSOR_CHAIN_OBJ_DECLARE(argmin_chain, , 4, AI_TENSOR_LIST_OBJ_INIT(AI_FLAG_NONE, 1, TENSORS(&
 4139              		.loc 1 1036 3 view .LVU1049
 4140 007e 1EA9     		add	r1, sp, #120
1029:../../Middlewares/AI_Runtime/Npu/ll_aton/ll_sw_float.c ****                         SHAPE_INIT(sw_info->general.output.dim.tensor_h, sw_info->general.output.di
 4141              		.loc 1 1029 3 view .LVU1050
 4142 0080 1B92     		str	r2, [sp, #108]
 4143 0082 826C     		ldr	r2, [r0, #72]
1023:../../Middlewares/AI_Runtime/Npu/ll_aton/ll_sw_float.c ****                         SHAPE_INIT(sw_info->general.input.dim.tensor_h, sw_info->general.input.dim.
 4144              		.loc 1 1023 3 view .LVU1051
 4145 0084 06AD     		add	r5, sp, #24
1029:../../Middlewares/AI_Runtime/Npu/ll_aton/ll_sw_float.c ****                         SHAPE_INIT(sw_info->general.output.dim.tensor_h, sw_info->general.output.di
 4146              		.loc 1 1029 3 view .LVU1052
 4147 0086 1C92     		str	r2, [sp, #112]
 4148 0088 426C     		ldr	r2, [r0, #68]
 4149 008a CDE92453 		strd	r5, r3, [sp, #144]
 4150 008e 1D92     		str	r2, [sp, #116]
 4151 0090 1AAA     		add	r2, sp, #104
ARM GAS  C:\Users\Antonio\AppData\Local\Temp\cc6EBOZH.s 			page 103


 4152 0092 2A92     		str	r2, [sp, #168]
 4153 0094 0AAA     		add	r2, sp, #40
 4154 0096 2B92     		str	r2, [sp, #172]
 4155              		.loc 1 1036 3 is_stmt 1 view .LVU1053
 4156 0098 0422     		movs	r2, #4
 4157 009a 0492     		str	r2, [sp, #16]
 4158 009c 0122     		movs	r2, #1
 4159 009e 0091     		str	r1, [sp]
 4160 00a0 3492     		str	r2, [sp, #208]
 4161 00a2 CDF8D4D0 		str	sp, [sp, #212]
 4162 00a6 CDE93632 		strd	r3, r2, [sp, #216]
 4163 00aa 25AA     		add	r2, sp, #148
 4164 00ac 0192     		str	r2, [sp, #4]
 4165 00ae 01AA     		add	r2, sp, #4
 4166 00b0 CDE93823 		strd	r2, r3, [sp, #224]
 4167 00b4 02AA     		add	r2, sp, #8
 4168 00b6 CDE93B23 		strd	r2, r3, [sp, #236]
 4169 00ba 03AA     		add	r2, sp, #12
 4170 00bc CDE93E23 		strd	r2, r3, [sp, #248]
 4171 00c0 34AA     		add	r2, sp, #208
 4172 00c2 0592     		str	r2, [sp, #20]
1037:../../Middlewares/AI_Runtime/Npu/ll_aton/ll_sw_float.c ****                               AI_TENSOR_LIST_OBJ_INIT(AI_FLAG_NONE, 1, TENSORS(&argmin_output)),
1038:../../Middlewares/AI_Runtime/Npu/ll_aton/ll_sw_float.c ****                               AI_TENSOR_LIST_OBJ_EMPTY, AI_TENSOR_LIST_OBJ_EMPTY)
1039:../../Middlewares/AI_Runtime/Npu/ll_aton/ll_sw_float.c **** 
1040:../../Middlewares/AI_Runtime/Npu/ll_aton/ll_sw_float.c ****   AI_LAYER_OBJ_DECLARE(argmin_layer, 1, ARGMINMAX_TYPE, 0x0, NULL, argminmax, forward_argmin, &argm
 4173              		.loc 1 1040 3 view .LVU1054
 4174 00c4 114A     		ldr	r2, .L114+8
 4175 00c6 CDE92E33 		strd	r3, r3, [sp, #184]
 4176 00ca CDE92C23 		strd	r2, r3, [sp, #176]
1036:../../Middlewares/AI_Runtime/Npu/ll_aton/ll_sw_float.c ****                               AI_TENSOR_LIST_OBJ_INIT(AI_FLAG_NONE, 1, TENSORS(&argmin_output)),
 4177              		.loc 1 1036 3 is_stmt 0 view .LVU1055
 4178 00ce 3A93     		str	r3, [sp, #232]
 4179 00d0 0293     		str	r3, [sp, #8]
 4180 00d2 3D93     		str	r3, [sp, #244]
 4181 00d4 0393     		str	r3, [sp, #12]
 4182              		.loc 1 1040 3 view .LVU1056
 4183 00d6 3093     		str	r3, [sp, #192]
 4184 00d8 0D4B     		ldr	r3, .L114+12
 4185 00da 3193     		str	r3, [sp, #196]
 4186 00dc 04AB     		add	r3, sp, #16
 4187 00de 3293     		str	r3, [sp, #200]
 4188              	.LVL183:
 4189              	.LBB62:
 4190              	.LBI62:
  47:../../Middlewares/AI_Runtime/Npu/ll_aton/ll_sw_float.c **** {
 4191              		.loc 1 47 12 is_stmt 1 view .LVU1057
  49:../../Middlewares/AI_Runtime/Npu/ll_aton/ll_sw_float.c ****   {
 4192              		.loc 1 49 3 view .LVU1058
 4193 00e0 C36D     		ldr	r3, [r0, #92]
 4194 00e2 032B     		cmp	r3, #3
 4195              	.LBE62:
 4196              		.loc 1 1040 3 is_stmt 0 view .LVU1059
 4197 00e4 8EBF     		itee	hi
 4198 00e6 4FF0FF33 		movhi	r3, #-1
 4199              	.LVL184:
 4200              		.loc 1 1040 3 view .LVU1060
 4201 00ea 0A4A     		ldrls	r2, .L114+16
ARM GAS  C:\Users\Antonio\AppData\Local\Temp\cc6EBOZH.s 			page 104


 4202 00ec D356     		ldrsbls	r3, [r2, r3]
 4203              		.loc 1 1040 3 discriminator 1 view .LVU1061
 4204 00ee ADF8CC30 		strh	r3, [sp, #204]	@ movhi
 4205 00f2 436E     		ldr	r3, [r0, #100]
1041:../../Middlewares/AI_Runtime/Npu/ll_aton/ll_sw_float.c ****                        , .axis = helper_emit_shape_index_axis(sw_info->axis),
1042:../../Middlewares/AI_Runtime/Npu/ll_aton/ll_sw_float.c ****                        .select_last_index = sw_info->select_last_index, )
1043:../../Middlewares/AI_Runtime/Npu/ll_aton/ll_sw_float.c ****   argmin_layer.forward(AI_LAYER_OBJ(&argmin_layer));
 4206              		.loc 1 1043 3 view .LVU1062
 4207 00f4 2CA8     		add	r0, sp, #176
 4208              	.LVL185:
1040:../../Middlewares/AI_Runtime/Npu/ll_aton/ll_sw_float.c ****                        , .axis = helper_emit_shape_index_axis(sw_info->axis),
 4209              		.loc 1 1040 3 discriminator 1 view .LVU1063
 4210 00f6 ADF8CE30 		strh	r3, [sp, #206]	@ movhi
 4211              		.loc 1 1043 3 is_stmt 1 view .LVU1064
 4212 00fa FFF7FEFF 		bl	forward_argmin
 4213              	.LVL186:
1044:../../Middlewares/AI_Runtime/Npu/ll_aton/ll_sw_float.c **** }
 4214              		.loc 1 1044 1 is_stmt 0 view .LVU1065
 4215 00fe 41B0     		add	sp, sp, #260
 4216              		.cfi_def_cfa_offset 12
 4217              		@ sp needed
 4218 0100 30BD     		pop	{r4, r5, pc}
 4219              	.L115:
 4220 0102 00BF     		.align	2
 4221              	.L114:
 4222 0104 40108200 		.word	8523840
 4223 0108 40108400 		.word	8654912
 4224 010c 1F010100 		.word	65823
 4225 0110 00000000 		.word	forward_argmin
 4226 0114 00000000 		.word	CSWTCH.4
 4227              		.cfi_endproc
 4228              	.LFE26:
 4230              		.section	.text.ll_sw_forward_reduce,"ax",%progbits
 4231              		.align	1
 4232              		.global	ll_sw_forward_reduce
 4233              		.syntax unified
 4234              		.thumb
 4235              		.thumb_func
 4237              	ll_sw_forward_reduce:
 4238              	.LVL187:
 4239              	.LFB27:
1045:../../Middlewares/AI_Runtime/Npu/ll_aton/ll_sw_float.c **** 
1046:../../Middlewares/AI_Runtime/Npu/ll_aton/ll_sw_float.c **** //##########################################################################################
1047:../../Middlewares/AI_Runtime/Npu/ll_aton/ll_sw_float.c **** /** Reduce forward function  */
1048:../../Middlewares/AI_Runtime/Npu/ll_aton/ll_sw_float.c **** void ll_sw_forward_reduce(/* int processor, */ void *sw_info_struct)
1049:../../Middlewares/AI_Runtime/Npu/ll_aton/ll_sw_float.c **** {
 4240              		.loc 1 1049 1 is_stmt 1 view -0
 4241              		.cfi_startproc
 4242              		@ args = 0, pretend = 0, frame = 280
 4243              		@ frame_needed = 0, uses_anonymous_args = 0
1050:../../Middlewares/AI_Runtime/Npu/ll_aton/ll_sw_float.c ****   Reduce_sw_info *sw_info = (Reduce_sw_info *)sw_info_struct;
 4244              		.loc 1 1050 3 view .LVU1067
1051:../../Middlewares/AI_Runtime/Npu/ll_aton/ll_sw_float.c ****   AI_ARRAY_OBJ_DECLARE(input_output_array, FORMAT, sw_info->general.input.mem.start_offset,
 4245              		.loc 1 1051 3 view .LVU1068
1049:../../Middlewares/AI_Runtime/Npu/ll_aton/ll_sw_float.c ****   Reduce_sw_info *sw_info = (Reduce_sw_info *)sw_info_struct;
 4246              		.loc 1 1049 1 is_stmt 0 view .LVU1069
 4247 0000 70B5     		push	{r4, r5, r6, lr}
ARM GAS  C:\Users\Antonio\AppData\Local\Temp\cc6EBOZH.s 			page 105


 4248              		.cfi_def_cfa_offset 16
 4249              		.cfi_offset 4, -16
 4250              		.cfi_offset 5, -12
 4251              		.cfi_offset 6, -8
 4252              		.cfi_offset 14, -4
1052:../../Middlewares/AI_Runtime/Npu/ll_aton/ll_sw_float.c ****                        sw_info->general.input.mem.start_offset, sw_info->general.input.dim.num_elem
1053:../../Middlewares/AI_Runtime/Npu/ll_aton/ll_sw_float.c ****   AI_ARRAY_OBJ_DECLARE(reduce_output_array, FORMAT, sw_info->general.output.mem.start_offset,
1054:../../Middlewares/AI_Runtime/Npu/ll_aton/ll_sw_float.c ****                        sw_info->general.output.mem.start_offset, sw_info->general.output.dim.num_el
1055:../../Middlewares/AI_Runtime/Npu/ll_aton/ll_sw_float.c ****   // tensor init
1056:../../Middlewares/AI_Runtime/Npu/ll_aton/ll_sw_float.c ****   AI_TENSOR_OBJ_DECLARE(input_output, , 0x0, 4,
 4253              		.loc 1 1056 3 view .LVU1070
 4254 0002 0269     		ldr	r2, [r0, #16]
1049:../../Middlewares/AI_Runtime/Npu/ll_aton/ll_sw_float.c ****   Reduce_sw_info *sw_info = (Reduce_sw_info *)sw_info_struct;
 4255              		.loc 1 1049 1 view .LVU1071
 4256 0004 C6B0     		sub	sp, sp, #280
 4257              		.cfi_def_cfa_offset 296
1051:../../Middlewares/AI_Runtime/Npu/ll_aton/ll_sw_float.c ****                        sw_info->general.input.mem.start_offset, sw_info->general.input.dim.num_elem
 4258              		.loc 1 1051 3 view .LVU1072
 4259 0006 4369     		ldr	r3, [r0, #20]
 4260              		.loc 1 1056 3 view .LVU1073
 4261 0008 0F92     		str	r2, [sp, #60]
 4262 000a C268     		ldr	r2, [r0, #12]
1051:../../Middlewares/AI_Runtime/Npu/ll_aton/ll_sw_float.c ****                        sw_info->general.input.mem.start_offset, sw_info->general.input.dim.num_elem
 4263              		.loc 1 1051 3 view .LVU1074
 4264 000c 0893     		str	r3, [sp, #32]
 4265 000e 836A     		ldr	r3, [r0, #40]
 4266              		.loc 1 1056 3 view .LVU1075
 4267 0010 1092     		str	r2, [sp, #64]
 4268 0012 8268     		ldr	r2, [r0, #8]
1051:../../Middlewares/AI_Runtime/Npu/ll_aton/ll_sw_float.c ****                        sw_info->general.input.mem.start_offset, sw_info->general.input.dim.num_elem
 4269              		.loc 1 1051 3 view .LVU1076
 4270 0014 CDE90933 		strd	r3, r3, [sp, #36]
1053:../../Middlewares/AI_Runtime/Npu/ll_aton/ll_sw_float.c ****                        sw_info->general.output.mem.start_offset, sw_info->general.output.dim.num_el
 4271              		.loc 1 1053 3 is_stmt 1 view .LVU1077
 4272 0018 036C     		ldr	r3, [r0, #64]
 4273              		.loc 1 1056 3 is_stmt 0 view .LVU1078
 4274 001a 1192     		str	r2, [sp, #68]
 4275 001c 4268     		ldr	r2, [r0, #4]
1053:../../Middlewares/AI_Runtime/Npu/ll_aton/ll_sw_float.c ****                        sw_info->general.output.mem.start_offset, sw_info->general.output.dim.num_el
 4276              		.loc 1 1053 3 view .LVU1079
 4277 001e 0C93     		str	r3, [sp, #48]
 4278 0020 436D     		ldr	r3, [r0, #84]
 4279              		.loc 1 1056 3 view .LVU1080
 4280 0022 1292     		str	r2, [sp, #72]
 4281 0024 0FAA     		add	r2, sp, #60
 4282 0026 4FF08275 		mov	r5, #17039360
 4283 002a 40F20141 		movw	r1, #1025
1053:../../Middlewares/AI_Runtime/Npu/ll_aton/ll_sw_float.c ****                        sw_info->general.output.mem.start_offset, sw_info->general.output.dim.num_el
 4284              		.loc 1 1053 3 view .LVU1081
 4285 002e CDE90D33 		strd	r3, r3, [sp, #52]
 4286              		.loc 1 1056 3 is_stmt 1 view .LVU1082
 4287 0032 2692     		str	r2, [sp, #152]
 4288 0034 0023     		movs	r3, #0
 4289 0036 40F20242 		movw	r2, #1026
 4290 003a 466A     		ldr	r6, [r0, #36]
1051:../../Middlewares/AI_Runtime/Npu/ll_aton/ll_sw_float.c ****                        sw_info->general.input.mem.start_offset, sw_info->general.input.dim.num_elem
 4291              		.loc 1 1051 3 is_stmt 0 view .LVU1083
ARM GAS  C:\Users\Antonio\AppData\Local\Temp\cc6EBOZH.s 			page 106


 4292 003c 424C     		ldr	r4, .L123
 4293              		.loc 1 1056 3 view .LVU1084
 4294 003e 1396     		str	r6, [sp, #76]
 4295 0040 066A     		ldr	r6, [r0, #32]
 4296 0042 CDE92335 		strd	r3, r5, [sp, #140]
 4297 0046 2591     		str	r1, [sp, #148]
 4298 0048 2792     		str	r2, [sp, #156]
1051:../../Middlewares/AI_Runtime/Npu/ll_aton/ll_sw_float.c ****                        sw_info->general.input.mem.start_offset, sw_info->general.input.dim.num_elem
 4299              		.loc 1 1051 3 view .LVU1085
 4300 004a 0794     		str	r4, [sp, #28]
1053:../../Middlewares/AI_Runtime/Npu/ll_aton/ll_sw_float.c ****                        sw_info->general.output.mem.start_offset, sw_info->general.output.dim.num_el
 4301              		.loc 1 1053 3 view .LVU1086
 4302 004c 0B94     		str	r4, [sp, #44]
 4303              		.loc 1 1056 3 view .LVU1087
 4304 004e 1496     		str	r6, [sp, #80]
 4305 0050 C669     		ldr	r6, [r0, #28]
1057:../../Middlewares/AI_Runtime/Npu/ll_aton/ll_sw_float.c ****                         SHAPE_INIT(sw_info->general.input.dim.tensor_h, sw_info->general.input.dim.
1058:../../Middlewares/AI_Runtime/Npu/ll_aton/ll_sw_float.c ****                                    sw_info->general.input.dim.tensor_c, sw_info->general.input.dim.
1059:../../Middlewares/AI_Runtime/Npu/ll_aton/ll_sw_float.c ****                         STRIDE_INIT(sw_info->general.input.stride.h, sw_info->general.input.stride.
1060:../../Middlewares/AI_Runtime/Npu/ll_aton/ll_sw_float.c ****                                     sw_info->general.input.stride.c, sw_info->general.input.stride.
1061:../../Middlewares/AI_Runtime/Npu/ll_aton/ll_sw_float.c ****                         1, &input_output_array, NULL)
1062:../../Middlewares/AI_Runtime/Npu/ll_aton/ll_sw_float.c ****   AI_TENSOR_OBJ_DECLARE(reduce_output, , 0x0, 4,
 4306              		.loc 1 1062 3 view .LVU1088
 4307 0052 CDE92B51 		strd	r5, r1, [sp, #172]
 4308 0056 C16B     		ldr	r1, [r0, #60]
1056:../../Middlewares/AI_Runtime/Npu/ll_aton/ll_sw_float.c ****                         SHAPE_INIT(sw_info->general.input.dim.tensor_h, sw_info->general.input.dim.
 4309              		.loc 1 1056 3 view .LVU1089
 4310 0058 1596     		str	r6, [sp, #84]
 4311              		.loc 1 1062 3 view .LVU1090
 4312 005a 1791     		str	r1, [sp, #92]
 4313 005c 816B     		ldr	r1, [r0, #56]
1056:../../Middlewares/AI_Runtime/Npu/ll_aton/ll_sw_float.c ****                         SHAPE_INIT(sw_info->general.input.dim.tensor_h, sw_info->general.input.dim.
 4314              		.loc 1 1056 3 view .LVU1091
 4315 005e 8669     		ldr	r6, [r0, #24]
 4316              		.loc 1 1062 3 view .LVU1092
 4317 0060 1891     		str	r1, [sp, #96]
 4318 0062 416B     		ldr	r1, [r0, #52]
1056:../../Middlewares/AI_Runtime/Npu/ll_aton/ll_sw_float.c ****                         SHAPE_INIT(sw_info->general.input.dim.tensor_h, sw_info->general.input.dim.
 4319              		.loc 1 1056 3 view .LVU1093
 4320 0064 1696     		str	r6, [sp, #88]
 4321              		.loc 1 1062 3 view .LVU1094
 4322 0066 1991     		str	r1, [sp, #100]
 4323 0068 016B     		ldr	r1, [r0, #48]
1056:../../Middlewares/AI_Runtime/Npu/ll_aton/ll_sw_float.c ****                         SHAPE_INIT(sw_info->general.input.dim.tensor_h, sw_info->general.input.dim.
 4324              		.loc 1 1056 3 view .LVU1095
 4325 006a 13AE     		add	r6, sp, #76
 4326              		.loc 1 1062 3 view .LVU1096
 4327 006c 1A91     		str	r1, [sp, #104]
 4328 006e 17A9     		add	r1, sp, #92
 4329 0070 CDE92D12 		strd	r1, r2, [sp, #180]
 4330 0074 026D     		ldr	r2, [r0, #80]
1063:../../Middlewares/AI_Runtime/Npu/ll_aton/ll_sw_float.c ****                         SHAPE_INIT(sw_info->general.output.dim.tensor_h, sw_info->general.output.di
1064:../../Middlewares/AI_Runtime/Npu/ll_aton/ll_sw_float.c ****                                    sw_info->general.output.dim.tensor_c, sw_info->general.output.di
1065:../../Middlewares/AI_Runtime/Npu/ll_aton/ll_sw_float.c ****                         STRIDE_INIT(sw_info->general.output.stride.h, sw_info->general.output.strid
1066:../../Middlewares/AI_Runtime/Npu/ll_aton/ll_sw_float.c ****                                     sw_info->general.output.stride.c, sw_info->general.output.strid
1067:../../Middlewares/AI_Runtime/Npu/ll_aton/ll_sw_float.c ****                         1, &reduce_output_array, NULL)
1068:../../Middlewares/AI_Runtime/Npu/ll_aton/ll_sw_float.c ****   // tensor chain initialization
ARM GAS  C:\Users\Antonio\AppData\Local\Temp\cc6EBOZH.s 			page 107


1069:../../Middlewares/AI_Runtime/Npu/ll_aton/ll_sw_float.c ****   AI_TENSOR_CHAIN_OBJ_DECLARE(reduce_chain, , 4, AI_TENSOR_LIST_OBJ_INIT(AI_FLAG_NONE, 1, TENSORS(&
 4331              		.loc 1 1069 3 view .LVU1097
 4332 0076 05A9     		add	r1, sp, #20
1062:../../Middlewares/AI_Runtime/Npu/ll_aton/ll_sw_float.c ****                         SHAPE_INIT(sw_info->general.output.dim.tensor_h, sw_info->general.output.di
 4333              		.loc 1 1062 3 view .LVU1098
 4334 0078 1B92     		str	r2, [sp, #108]
 4335 007a C26C     		ldr	r2, [r0, #76]
1056:../../Middlewares/AI_Runtime/Npu/ll_aton/ll_sw_float.c ****                         SHAPE_INIT(sw_info->general.input.dim.tensor_h, sw_info->general.input.dim.
 4336              		.loc 1 1056 3 view .LVU1099
 4337 007c 2896     		str	r6, [sp, #160]
1062:../../Middlewares/AI_Runtime/Npu/ll_aton/ll_sw_float.c ****                         SHAPE_INIT(sw_info->general.output.dim.tensor_h, sw_info->general.output.di
 4338              		.loc 1 1062 3 view .LVU1100
 4339 007e 1C92     		str	r2, [sp, #112]
 4340 0080 826C     		ldr	r2, [r0, #72]
 4341              		.loc 1 1069 3 view .LVU1101
 4342 0082 23AD     		add	r5, sp, #140
1062:../../Middlewares/AI_Runtime/Npu/ll_aton/ll_sw_float.c ****                         SHAPE_INIT(sw_info->general.output.dim.tensor_h, sw_info->general.output.di
 4343              		.loc 1 1062 3 view .LVU1102
 4344 0084 1D92     		str	r2, [sp, #116]
 4345 0086 426C     		ldr	r2, [r0, #68]
1056:../../Middlewares/AI_Runtime/Npu/ll_aton/ll_sw_float.c ****                         SHAPE_INIT(sw_info->general.input.dim.tensor_h, sw_info->general.input.dim.
 4346              		.loc 1 1056 3 view .LVU1103
 4347 0088 07AE     		add	r6, sp, #28
1062:../../Middlewares/AI_Runtime/Npu/ll_aton/ll_sw_float.c ****                         SHAPE_INIT(sw_info->general.output.dim.tensor_h, sw_info->general.output.di
 4348              		.loc 1 1062 3 view .LVU1104
 4349 008a 1E92     		str	r2, [sp, #120]
 4350 008c 1BAA     		add	r2, sp, #108
 4351 008e 2F92     		str	r2, [sp, #188]
 4352 0090 0BAA     		add	r2, sp, #44
 4353 0092 3092     		str	r2, [sp, #192]
 4354              		.loc 1 1069 3 is_stmt 1 view .LVU1105
 4355 0094 0422     		movs	r2, #4
 4356 0096 0A60     		str	r2, [r1]
 4357 0098 0122     		movs	r2, #1
 4358 009a 0095     		str	r5, [sp]
 4359 009c 3A92     		str	r2, [sp, #232]
1062:../../Middlewares/AI_Runtime/Npu/ll_aton/ll_sw_float.c ****                         SHAPE_INIT(sw_info->general.output.dim.tensor_h, sw_info->general.output.di
 4360              		.loc 1 1062 3 is_stmt 0 view .LVU1106
 4361 009e CDE92963 		strd	r6, r3, [sp, #164]
 4362              		.loc 1 1069 3 view .LVU1107
 4363 00a2 CDF8ECD0 		str	sp, [sp, #236]
 4364 00a6 CDE93C32 		strd	r3, r2, [sp, #240]
 4365 00aa 01AA     		add	r2, sp, #4
 4366 00ac CDE93E23 		strd	r2, r3, [sp, #248]
 4367 00b0 02AA     		add	r2, sp, #8
 4368 00b2 CDE94123 		strd	r2, r3, [sp, #260]
 4369 00b6 03AA     		add	r2, sp, #12
 4370 00b8 CDE94423 		strd	r2, r3, [sp, #272]
 4371 00bc 3AAA     		add	r2, sp, #232
 4372 00be 4A60     		str	r2, [r1, #4]
1070:../../Middlewares/AI_Runtime/Npu/ll_aton/ll_sw_float.c ****                               AI_TENSOR_LIST_OBJ_INIT(AI_FLAG_NONE, 1, TENSORS(&reduce_output)),
1071:../../Middlewares/AI_Runtime/Npu/ll_aton/ll_sw_float.c ****                               AI_TENSOR_LIST_OBJ_EMPTY, AI_TENSOR_LIST_OBJ_EMPTY)
1072:../../Middlewares/AI_Runtime/Npu/ll_aton/ll_sw_float.c **** 
1073:../../Middlewares/AI_Runtime/Npu/ll_aton/ll_sw_float.c ****   if (sw_info->general.type == LL_SW_REDUCELOGSUMEXP)
 4373              		.loc 1 1073 3 is_stmt 1 view .LVU1108
 4374              		.loc 1 1073 23 is_stmt 0 view .LVU1109
 4375 00c0 0278     		ldrb	r2, [r0]	@ zero_extendqisi2
ARM GAS  C:\Users\Antonio\AppData\Local\Temp\cc6EBOZH.s 			page 108


1069:../../Middlewares/AI_Runtime/Npu/ll_aton/ll_sw_float.c ****                               AI_TENSOR_LIST_OBJ_INIT(AI_FLAG_NONE, 1, TENSORS(&reduce_output)),
 4376              		.loc 1 1069 3 view .LVU1110
 4377 00c2 2AAD     		add	r5, sp, #168
 4378              		.loc 1 1073 6 view .LVU1111
 4379 00c4 502A     		cmp	r2, #80
1069:../../Middlewares/AI_Runtime/Npu/ll_aton/ll_sw_float.c ****                               AI_TENSOR_LIST_OBJ_INIT(AI_FLAG_NONE, 1, TENSORS(&reduce_output)),
 4380              		.loc 1 1069 3 view .LVU1112
 4381 00c6 0195     		str	r5, [sp, #4]
 4382 00c8 4093     		str	r3, [sp, #256]
 4383 00ca 0293     		str	r3, [sp, #8]
 4384 00cc 4393     		str	r3, [sp, #268]
 4385 00ce 0393     		str	r3, [sp, #12]
 4386              		.loc 1 1073 6 view .LVU1113
 4387 00d0 15D1     		bne	.L117
 4388              	.LBB67:
1074:../../Middlewares/AI_Runtime/Npu/ll_aton/ll_sw_float.c ****   {
1075:../../Middlewares/AI_Runtime/Npu/ll_aton/ll_sw_float.c ****     AI_LAYER_OBJ_DECLARE(reduce_layer, 1, REDUCE_TYPE, 0x0, NULL, reduce_log_sum_exp, forward_reduc
 4389              		.loc 1 1075 5 is_stmt 1 view .LVU1114
 4390 00d2 1E4A     		ldr	r2, .L123+4
 4391 00d4 CDE93333 		strd	r3, r3, [sp, #204]
 4392 00d8 CDE93123 		strd	r2, r3, [sp, #196]
 4393 00dc 3593     		str	r3, [sp, #212]
 4394 00de 1C4B     		ldr	r3, .L123+8
 4395 00e0 CDE93631 		strd	r3, r1, [sp, #216]
 4396              	.LVL188:
 4397              	.LBB68:
 4398              	.LBI68:
  47:../../Middlewares/AI_Runtime/Npu/ll_aton/ll_sw_float.c **** {
 4399              		.loc 1 47 12 view .LVU1115
  49:../../Middlewares/AI_Runtime/Npu/ll_aton/ll_sw_float.c ****   {
 4400              		.loc 1 49 3 view .LVU1116
 4401 00e4 C36D     		ldr	r3, [r0, #92]
 4402              	.LBE68:
1076:../../Middlewares/AI_Runtime/Npu/ll_aton/ll_sw_float.c ****                          &reduce_chain, NULL, NULL, , .axis = helper_emit_shape_index_axis(sw_info-
1077:../../Middlewares/AI_Runtime/Npu/ll_aton/ll_sw_float.c ****     reduce_layer.forward(AI_LAYER_OBJ(&reduce_layer));
 4403              		.loc 1 1077 5 is_stmt 0 view .LVU1117
 4404 00e6 31A8     		add	r0, sp, #196
 4405              	.LVL189:
 4406              		.loc 1 1077 5 view .LVU1118
 4407 00e8 032B     		cmp	r3, #3
1075:../../Middlewares/AI_Runtime/Npu/ll_aton/ll_sw_float.c ****                          &reduce_chain, NULL, NULL, , .axis = helper_emit_shape_index_axis(sw_info-
 4408              		.loc 1 1075 5 view .LVU1119
 4409 00ea 8EBF     		itee	hi
 4410 00ec 4FF0FF33 		movhi	r3, #-1
 4411              	.LVL190:
1075:../../Middlewares/AI_Runtime/Npu/ll_aton/ll_sw_float.c ****                          &reduce_chain, NULL, NULL, , .axis = helper_emit_shape_index_axis(sw_info-
 4412              		.loc 1 1075 5 view .LVU1120
 4413 00f0 184A     		ldrls	r2, .L123+12
 4414 00f2 D356     		ldrsbls	r3, [r2, r3]
1075:../../Middlewares/AI_Runtime/Npu/ll_aton/ll_sw_float.c ****                          &reduce_chain, NULL, NULL, , .axis = helper_emit_shape_index_axis(sw_info-
 4415              		.loc 1 1075 5 discriminator 1 view .LVU1121
 4416 00f4 3893     		str	r3, [sp, #224]
 4417              		.loc 1 1077 5 is_stmt 1 view .LVU1122
 4418 00f6 FFF7FEFF 		bl	forward_reduce_log_sum_exp
 4419              	.LVL191:
 4420              	.L116:
 4421              	.LBE67:
ARM GAS  C:\Users\Antonio\AppData\Local\Temp\cc6EBOZH.s 			page 109


1078:../../Middlewares/AI_Runtime/Npu/ll_aton/ll_sw_float.c ****   }
1079:../../Middlewares/AI_Runtime/Npu/ll_aton/ll_sw_float.c ****   else
1080:../../Middlewares/AI_Runtime/Npu/ll_aton/ll_sw_float.c ****   {
1081:../../Middlewares/AI_Runtime/Npu/ll_aton/ll_sw_float.c ****     // element wise function to be applied to perform the reduction
1082:../../Middlewares/AI_Runtime/Npu/ll_aton/ll_sw_float.c ****     func_binary func = NULL;
1083:../../Middlewares/AI_Runtime/Npu/ll_aton/ll_sw_float.c ****     // Initialization value for operation
1084:../../Middlewares/AI_Runtime/Npu/ll_aton/ll_sw_float.c ****     float value = 0.0f;
1085:../../Middlewares/AI_Runtime/Npu/ll_aton/ll_sw_float.c **** 
1086:../../Middlewares/AI_Runtime/Npu/ll_aton/ll_sw_float.c ****     switch (sw_info->general.type)
1087:../../Middlewares/AI_Runtime/Npu/ll_aton/ll_sw_float.c ****     {
1088:../../Middlewares/AI_Runtime/Npu/ll_aton/ll_sw_float.c ****     // case LL_SW_REDUCEMEAN:
1089:../../Middlewares/AI_Runtime/Npu/ll_aton/ll_sw_float.c ****     //     func = ai_mean
1090:../../Middlewares/AI_Runtime/Npu/ll_aton/ll_sw_float.c ****     //     break;
1091:../../Middlewares/AI_Runtime/Npu/ll_aton/ll_sw_float.c ****     case LL_SW_REDUCESUM:
1092:../../Middlewares/AI_Runtime/Npu/ll_aton/ll_sw_float.c ****       func = ai_sum;
1093:../../Middlewares/AI_Runtime/Npu/ll_aton/ll_sw_float.c ****       value = 0.0f;
1094:../../Middlewares/AI_Runtime/Npu/ll_aton/ll_sw_float.c ****       break;
1095:../../Middlewares/AI_Runtime/Npu/ll_aton/ll_sw_float.c ****     case LL_SW_REDUCEMIN:
1096:../../Middlewares/AI_Runtime/Npu/ll_aton/ll_sw_float.c ****       func = ai_min;
1097:../../Middlewares/AI_Runtime/Npu/ll_aton/ll_sw_float.c ****       value = AI_FLT_MAX;
1098:../../Middlewares/AI_Runtime/Npu/ll_aton/ll_sw_float.c ****       break;
1099:../../Middlewares/AI_Runtime/Npu/ll_aton/ll_sw_float.c ****     case LL_SW_REDUCEMAX:
1100:../../Middlewares/AI_Runtime/Npu/ll_aton/ll_sw_float.c ****       func = ai_max;
1101:../../Middlewares/AI_Runtime/Npu/ll_aton/ll_sw_float.c ****       value = 0.0f;
1102:../../Middlewares/AI_Runtime/Npu/ll_aton/ll_sw_float.c ****       break;
1103:../../Middlewares/AI_Runtime/Npu/ll_aton/ll_sw_float.c ****     case LL_SW_REDUCEPROD:
1104:../../Middlewares/AI_Runtime/Npu/ll_aton/ll_sw_float.c ****       func = ai_max;
1105:../../Middlewares/AI_Runtime/Npu/ll_aton/ll_sw_float.c ****       value = 0.0f;
1106:../../Middlewares/AI_Runtime/Npu/ll_aton/ll_sw_float.c ****       break;
1107:../../Middlewares/AI_Runtime/Npu/ll_aton/ll_sw_float.c ****     default:
1108:../../Middlewares/AI_Runtime/Npu/ll_aton/ll_sw_float.c **** #ifdef LL_SW_ENABLE_ASSERTS
1109:../../Middlewares/AI_Runtime/Npu/ll_aton/ll_sw_float.c ****       LL_ATON_ASSERT(0 && "REDUCTION OPERATIONS NOT SUPPORTED");
1110:../../Middlewares/AI_Runtime/Npu/ll_aton/ll_sw_float.c **** #endif
1111:../../Middlewares/AI_Runtime/Npu/ll_aton/ll_sw_float.c ****       break;
1112:../../Middlewares/AI_Runtime/Npu/ll_aton/ll_sw_float.c ****     }
1113:../../Middlewares/AI_Runtime/Npu/ll_aton/ll_sw_float.c ****     AI_ARRAY_OBJ_DECLARE_STATIC(value_f, ai_float, AI_ARRAY_FORMAT_FLOAT, AI_CONST, 1, value)
1114:../../Middlewares/AI_Runtime/Npu/ll_aton/ll_sw_float.c **** 
1115:../../Middlewares/AI_Runtime/Npu/ll_aton/ll_sw_float.c ****     AI_LAYER_OBJ_DECLARE(reduce_layer, 1, REDUCE_TYPE, 0x0, NULL, reduce, forward_reduce, &reduce_c
1116:../../Middlewares/AI_Runtime/Npu/ll_aton/ll_sw_float.c ****                          .neutral_value = (&value_f), .operation = func)
1117:../../Middlewares/AI_Runtime/Npu/ll_aton/ll_sw_float.c **** 
1118:../../Middlewares/AI_Runtime/Npu/ll_aton/ll_sw_float.c ****     reduce_layer.forward(AI_LAYER_OBJ(&reduce_layer));
1119:../../Middlewares/AI_Runtime/Npu/ll_aton/ll_sw_float.c ****   }
1120:../../Middlewares/AI_Runtime/Npu/ll_aton/ll_sw_float.c **** }
 4422              		.loc 1 1120 1 is_stmt 0 view .LVU1123
 4423 00fa 46B0     		add	sp, sp, #280
 4424              		.cfi_remember_state
 4425              		.cfi_def_cfa_offset 16
 4426              		@ sp needed
 4427 00fc 70BD     		pop	{r4, r5, r6, pc}
 4428              	.LVL192:
 4429              	.L117:
 4430              		.cfi_restore_state
 4431              	.LBB69:
1082:../../Middlewares/AI_Runtime/Npu/ll_aton/ll_sw_float.c ****     // Initialization value for operation
 4432              		.loc 1 1082 5 is_stmt 1 view .LVU1124
1084:../../Middlewares/AI_Runtime/Npu/ll_aton/ll_sw_float.c **** 
 4433              		.loc 1 1084 5 view .LVU1125
ARM GAS  C:\Users\Antonio\AppData\Local\Temp\cc6EBOZH.s 			page 110


1086:../../Middlewares/AI_Runtime/Npu/ll_aton/ll_sw_float.c ****     {
 4434              		.loc 1 1086 5 view .LVU1126
 4435 00fe 3F3A     		subs	r2, r2, #63
 4436 0100 D2B2     		uxtb	r2, r2
 4437 0102 042A     		cmp	r2, #4
 4438 0104 9BBF     		ittet	ls
 4439 0106 1448     		ldrls	r0, .L123+16
 4440              	.LVL193:
1086:../../Middlewares/AI_Runtime/Npu/ll_aton/ll_sw_float.c ****     {
 4441              		.loc 1 1086 5 is_stmt 0 view .LVU1127
 4442 0108 144B     		ldrls	r3, .L123+20
 4443              	.LBE69:
1073:../../Middlewares/AI_Runtime/Npu/ll_aton/ll_sw_float.c ****   {
 4444              		.loc 1 1073 6 view .LVU1128
 4445 010a 0020     		movhi	r0, #0
 4446 010c 53F82230 		ldrls	r3, [r3, r2, lsl #2]
 4447 0110 9CBF     		itt	ls
 4448 0112 00EB8202 		addls	r2, r0, r2, lsl #2
 4449 0116 1068     		ldrls	r0, [r2]	@ float
 4450              	.LVL194:
 4451              	.LBB70:
1113:../../Middlewares/AI_Runtime/Npu/ll_aton/ll_sw_float.c **** 
 4452              		.loc 1 1113 5 is_stmt 1 view .LVU1129
 4453 0118 0122     		movs	r2, #1
 4454 011a 2092     		str	r2, [sp, #128]
 4455 011c 04AA     		add	r2, sp, #16
 4456 011e 2192     		str	r2, [sp, #132]
 4457 0120 0022     		movs	r2, #0
 4458 0122 0490     		str	r0, [sp, #16]	@ float
1115:../../Middlewares/AI_Runtime/Npu/ll_aton/ll_sw_float.c ****                          .neutral_value = (&value_f), .operation = func)
 4459              		.loc 1 1115 5 is_stmt 0 view .LVU1130
 4460 0124 0948     		ldr	r0, .L123+4
 4461              	.LVL195:
1115:../../Middlewares/AI_Runtime/Npu/ll_aton/ll_sw_float.c ****                          .neutral_value = (&value_f), .operation = func)
 4462              		.loc 1 1115 5 view .LVU1131
 4463 0126 CDE93322 		strd	r2, r2, [sp, #204]
 4464 012a CDE93102 		strd	r0, r2, [sp, #196]
1113:../../Middlewares/AI_Runtime/Npu/ll_aton/ll_sw_float.c **** 
 4465              		.loc 1 1113 5 view .LVU1132
 4466 012e 2292     		str	r2, [sp, #136]
1115:../../Middlewares/AI_Runtime/Npu/ll_aton/ll_sw_float.c ****                          .neutral_value = (&value_f), .operation = func)
 4467              		.loc 1 1115 5 is_stmt 1 view .LVU1133
 4468 0130 3592     		str	r2, [sp, #212]
 4469 0132 0B4A     		ldr	r2, .L123+24
1118:../../Middlewares/AI_Runtime/Npu/ll_aton/ll_sw_float.c ****   }
 4470              		.loc 1 1118 5 is_stmt 0 view .LVU1134
 4471 0134 31A8     		add	r0, sp, #196
1115:../../Middlewares/AI_Runtime/Npu/ll_aton/ll_sw_float.c ****                          .neutral_value = (&value_f), .operation = func)
 4472              		.loc 1 1115 5 view .LVU1135
 4473 0136 CDE93621 		strd	r2, r1, [sp, #216]
 4474 013a 1FAA     		add	r2, sp, #124
 4475 013c CDE93823 		strd	r2, r3, [sp, #224]
1118:../../Middlewares/AI_Runtime/Npu/ll_aton/ll_sw_float.c ****   }
 4476              		.loc 1 1118 5 is_stmt 1 view .LVU1136
1113:../../Middlewares/AI_Runtime/Npu/ll_aton/ll_sw_float.c **** 
 4477              		.loc 1 1113 5 is_stmt 0 view .LVU1137
 4478 0140 1F94     		str	r4, [sp, #124]
ARM GAS  C:\Users\Antonio\AppData\Local\Temp\cc6EBOZH.s 			page 111


1118:../../Middlewares/AI_Runtime/Npu/ll_aton/ll_sw_float.c ****   }
 4479              		.loc 1 1118 5 view .LVU1138
 4480 0142 FFF7FEFF 		bl	forward_reduce
 4481              	.LVL196:
1118:../../Middlewares/AI_Runtime/Npu/ll_aton/ll_sw_float.c ****   }
 4482              		.loc 1 1118 5 view .LVU1139
 4483              	.LBE70:
 4484              		.loc 1 1120 1 view .LVU1140
 4485 0146 D8E7     		b	.L116
 4486              	.L124:
 4487              		.align	2
 4488              	.L123:
 4489 0148 40108200 		.word	8523840
 4490 014c 19010100 		.word	65817
 4491 0150 00000000 		.word	forward_reduce_log_sum_exp
 4492 0154 00000000 		.word	CSWTCH.4
 4493 0158 00000000 		.word	CSWTCH.22
 4494 015c 00000000 		.word	CSWTCH.21
 4495 0160 00000000 		.word	forward_reduce
 4496              		.cfi_endproc
 4497              	.LFE27:
 4499              		.section	.text.ll_sw_forward_bn,"ax",%progbits
 4500              		.align	1
 4501              		.global	ll_sw_forward_bn
 4502              		.syntax unified
 4503              		.thumb
 4504              		.thumb_func
 4506              	ll_sw_forward_bn:
 4507              	.LVL197:
 4508              	.LFB28:
1121:../../Middlewares/AI_Runtime/Npu/ll_aton/ll_sw_float.c **** 
1122:../../Middlewares/AI_Runtime/Npu/ll_aton/ll_sw_float.c **** //##########################################################################################
1123:../../Middlewares/AI_Runtime/Npu/ll_aton/ll_sw_float.c **** /** Batch Norm forward function  */
1124:../../Middlewares/AI_Runtime/Npu/ll_aton/ll_sw_float.c **** void ll_sw_forward_bn(/* int processor, */ void *sw_info_struct)
1125:../../Middlewares/AI_Runtime/Npu/ll_aton/ll_sw_float.c **** {
 4509              		.loc 1 1125 1 is_stmt 1 view -0
 4510              		.cfi_startproc
 4511              		@ args = 0, pretend = 0, frame = 32
 4512              		@ frame_needed = 0, uses_anonymous_args = 0
1126:../../Middlewares/AI_Runtime/Npu/ll_aton/ll_sw_float.c ****   Bn_sw_info *sw_info = (Bn_sw_info *)sw_info_struct;
 4513              		.loc 1 1126 3 view .LVU1142
1127:../../Middlewares/AI_Runtime/Npu/ll_aton/ll_sw_float.c **** 
1128:../../Middlewares/AI_Runtime/Npu/ll_aton/ll_sw_float.c ****   AI_ARRAY_OBJ_DECLARE(input_output_array, FORMAT, sw_info->general.input.mem.start_offset,
 4514              		.loc 1 1128 3 view .LVU1143
1125:../../Middlewares/AI_Runtime/Npu/ll_aton/ll_sw_float.c ****   Bn_sw_info *sw_info = (Bn_sw_info *)sw_info_struct;
 4515              		.loc 1 1125 1 is_stmt 0 view .LVU1144
 4516 0000 2DE9F04F 		push	{r4, r5, r6, r7, r8, r9, r10, fp, lr}
 4517              		.cfi_def_cfa_offset 36
 4518              		.cfi_offset 4, -36
 4519              		.cfi_offset 5, -32
 4520              		.cfi_offset 6, -28
 4521              		.cfi_offset 7, -24
 4522              		.cfi_offset 8, -20
 4523              		.cfi_offset 9, -16
 4524              		.cfi_offset 10, -12
 4525              		.cfi_offset 11, -8
 4526              		.cfi_offset 14, -4
ARM GAS  C:\Users\Antonio\AppData\Local\Temp\cc6EBOZH.s 			page 112


 4527              	.LBB75:
 4528              	.LBB76:
 4529              		.file 2 "../../Middlewares/AI_Runtime/Inc/ai_datatypes_internal.h"
   1:../../Middlewares/AI_Runtime/Inc/ai_datatypes_internal.h **** /**
   2:../../Middlewares/AI_Runtime/Inc/ai_datatypes_internal.h ****   ******************************************************************************
   3:../../Middlewares/AI_Runtime/Inc/ai_datatypes_internal.h ****   * @file    ai_datatypes_internal.h
   4:../../Middlewares/AI_Runtime/Inc/ai_datatypes_internal.h ****   * @author  AST Embedded Analytics Research Platform
   5:../../Middlewares/AI_Runtime/Inc/ai_datatypes_internal.h ****   * @brief   Definitions of AI platform private APIs types
   6:../../Middlewares/AI_Runtime/Inc/ai_datatypes_internal.h ****   ******************************************************************************
   7:../../Middlewares/AI_Runtime/Inc/ai_datatypes_internal.h ****   * @attention
   8:../../Middlewares/AI_Runtime/Inc/ai_datatypes_internal.h ****   *
   9:../../Middlewares/AI_Runtime/Inc/ai_datatypes_internal.h ****   * Copyright (c) 2017 STMicroelectronics.
  10:../../Middlewares/AI_Runtime/Inc/ai_datatypes_internal.h ****   * All rights reserved.
  11:../../Middlewares/AI_Runtime/Inc/ai_datatypes_internal.h ****   *
  12:../../Middlewares/AI_Runtime/Inc/ai_datatypes_internal.h ****   * This software is licensed under terms that can be found in the LICENSE file
  13:../../Middlewares/AI_Runtime/Inc/ai_datatypes_internal.h ****   * in the root directory of this software component.
  14:../../Middlewares/AI_Runtime/Inc/ai_datatypes_internal.h ****   * If no LICENSE file comes with this software, it is provided AS-IS.
  15:../../Middlewares/AI_Runtime/Inc/ai_datatypes_internal.h ****   *
  16:../../Middlewares/AI_Runtime/Inc/ai_datatypes_internal.h ****   ******************************************************************************
  17:../../Middlewares/AI_Runtime/Inc/ai_datatypes_internal.h ****   */
  18:../../Middlewares/AI_Runtime/Inc/ai_datatypes_internal.h **** #ifndef AI_DATATYPES_INTERNAL_H
  19:../../Middlewares/AI_Runtime/Inc/ai_datatypes_internal.h **** #define AI_DATATYPES_INTERNAL_H
  20:../../Middlewares/AI_Runtime/Inc/ai_datatypes_internal.h **** 
  21:../../Middlewares/AI_Runtime/Inc/ai_datatypes_internal.h **** #include "ai_datatypes.h"
  22:../../Middlewares/AI_Runtime/Inc/ai_datatypes_internal.h **** #include "ai_datatypes_defines.h"
  23:../../Middlewares/AI_Runtime/Inc/ai_datatypes_internal.h **** 
  24:../../Middlewares/AI_Runtime/Inc/ai_datatypes_internal.h **** /*!
  25:../../Middlewares/AI_Runtime/Inc/ai_datatypes_internal.h ****  * @defgroup datatypes_internal Internal Datatypes
  26:../../Middlewares/AI_Runtime/Inc/ai_datatypes_internal.h ****  * @brief Data structures used internally to implement neural networks
  27:../../Middlewares/AI_Runtime/Inc/ai_datatypes_internal.h ****  *
  28:../../Middlewares/AI_Runtime/Inc/ai_datatypes_internal.h ****  * The layers are defined as structs; a generic layer type defines the basic
  29:../../Middlewares/AI_Runtime/Inc/ai_datatypes_internal.h ****  * layer parameters and type-specific parameters are handled by specializations
  30:../../Middlewares/AI_Runtime/Inc/ai_datatypes_internal.h ****  * implemented as a C union. The layers keep also a pointer to the parent
  31:../../Middlewares/AI_Runtime/Inc/ai_datatypes_internal.h ****  * network and the next layer in the network.
  32:../../Middlewares/AI_Runtime/Inc/ai_datatypes_internal.h ****  * The input, output and parameters are tensor with an hard-coded maximum
  33:../../Middlewares/AI_Runtime/Inc/ai_datatypes_internal.h ****  * dimension of 4. Tensors are floating point arrays with a notion of size.
  34:../../Middlewares/AI_Runtime/Inc/ai_datatypes_internal.h ****  * The network is a linked list of layers, and thus it stores only the pointer
  35:../../Middlewares/AI_Runtime/Inc/ai_datatypes_internal.h ****  * to the first layer.
  36:../../Middlewares/AI_Runtime/Inc/ai_datatypes_internal.h ****  */
  37:../../Middlewares/AI_Runtime/Inc/ai_datatypes_internal.h **** 
  38:../../Middlewares/AI_Runtime/Inc/ai_datatypes_internal.h **** /*!
  39:../../Middlewares/AI_Runtime/Inc/ai_datatypes_internal.h ****  * @section Offsets
  40:../../Middlewares/AI_Runtime/Inc/ai_datatypes_internal.h ****  * @ingroup datatypes_internal
  41:../../Middlewares/AI_Runtime/Inc/ai_datatypes_internal.h ****  * Macros to handle (byte) stride addressing on tensors. The `AI_PTR` macro
  42:../../Middlewares/AI_Runtime/Inc/ai_datatypes_internal.h ****  * is used to always cast a pointer to byte array. The macros `AI_OFFSET_X` are
  43:../../Middlewares/AI_Runtime/Inc/ai_datatypes_internal.h ****  * used to compute (byte) offsets of respectively adjacents row elements, col
  44:../../Middlewares/AI_Runtime/Inc/ai_datatypes_internal.h ****  * elements, channel elements and `channel_in` elements.
  45:../../Middlewares/AI_Runtime/Inc/ai_datatypes_internal.h ****  * @{
  46:../../Middlewares/AI_Runtime/Inc/ai_datatypes_internal.h ****  */
  47:../../Middlewares/AI_Runtime/Inc/ai_datatypes_internal.h **** 
  48:../../Middlewares/AI_Runtime/Inc/ai_datatypes_internal.h **** /*!  AI_STORAGE_KLASS SECTION              ************************************/
  49:../../Middlewares/AI_Runtime/Inc/ai_datatypes_internal.h **** #define AI_STORAGE_KLASS_TYPE(s_) \
  50:../../Middlewares/AI_Runtime/Inc/ai_datatypes_internal.h ****   ( (s_)->type )
  51:../../Middlewares/AI_Runtime/Inc/ai_datatypes_internal.h **** 
  52:../../Middlewares/AI_Runtime/Inc/ai_datatypes_internal.h **** #define AI_STORAGE_KLASS_SIZE(s_) \
  53:../../Middlewares/AI_Runtime/Inc/ai_datatypes_internal.h ****   ( (s_)->size )
  54:../../Middlewares/AI_Runtime/Inc/ai_datatypes_internal.h **** 
ARM GAS  C:\Users\Antonio\AppData\Local\Temp\cc6EBOZH.s 			page 113


  55:../../Middlewares/AI_Runtime/Inc/ai_datatypes_internal.h **** #define AI_STORAGE_KLASS_DATA(s_, type_) \
  56:../../Middlewares/AI_Runtime/Inc/ai_datatypes_internal.h ****   ( (type_*)((s_)->data) )
  57:../../Middlewares/AI_Runtime/Inc/ai_datatypes_internal.h **** 
  58:../../Middlewares/AI_Runtime/Inc/ai_datatypes_internal.h **** #define AI_STORAGE_KLASS_COPY(dst_, dst_type_, src_, src_type_) \
  59:../../Middlewares/AI_Runtime/Inc/ai_datatypes_internal.h **** { \
  60:../../Middlewares/AI_Runtime/Inc/ai_datatypes_internal.h ****   AI_ASSERT(AI_STORAGE_KLASS_SIZE(src_)>=AI_STORAGE_KLASS_SIZE(dst_)) \
  61:../../Middlewares/AI_Runtime/Inc/ai_datatypes_internal.h ****   AI_STORAGE_KLASS_SIZE(dst_) = AI_STORAGE_KLASS_SIZE(src_); \
  62:../../Middlewares/AI_Runtime/Inc/ai_datatypes_internal.h ****   for (ai_size i=0; i<AI_STORAGE_KLASS_SIZE(dst_); i++ ) { \
  63:../../Middlewares/AI_Runtime/Inc/ai_datatypes_internal.h ****     AI_STORAGE_KLASS_DATA(dst_, dst_type_)[i] = \
  64:../../Middlewares/AI_Runtime/Inc/ai_datatypes_internal.h ****       AI_STORAGE_KLASS_DATA(src_, src_type_)[i]; \
  65:../../Middlewares/AI_Runtime/Inc/ai_datatypes_internal.h ****   } \
  66:../../Middlewares/AI_Runtime/Inc/ai_datatypes_internal.h **** }
  67:../../Middlewares/AI_Runtime/Inc/ai_datatypes_internal.h **** 
  68:../../Middlewares/AI_Runtime/Inc/ai_datatypes_internal.h **** #define AI_STORAGE_KLASS_DUMP(s_, pfx_, post_, fmt_, type_) \
  69:../../Middlewares/AI_Runtime/Inc/ai_datatypes_internal.h **** { \
  70:../../Middlewares/AI_Runtime/Inc/ai_datatypes_internal.h ****   AI_ASSERT(s_) \
  71:../../Middlewares/AI_Runtime/Inc/ai_datatypes_internal.h ****   AI_DEBUG_PRINT(pfx_, AI_STORAGE_KLASS_SIZE(s_)) \
  72:../../Middlewares/AI_Runtime/Inc/ai_datatypes_internal.h ****   for ( ai_u32 i=0; i<AI_STORAGE_KLASS_SIZE(s_); i++ ) { \
  73:../../Middlewares/AI_Runtime/Inc/ai_datatypes_internal.h ****     if ( (i % 8)==0 ) { AI_DEBUG_PRINT("\n      ") } \
  74:../../Middlewares/AI_Runtime/Inc/ai_datatypes_internal.h ****     AI_DEBUG_PRINT(fmt_, AI_STORAGE_KLASS_DATA(s_, type_)[i]) \
  75:../../Middlewares/AI_Runtime/Inc/ai_datatypes_internal.h ****   } \
  76:../../Middlewares/AI_Runtime/Inc/ai_datatypes_internal.h ****   AI_DEBUG_PRINT(post_) \
  77:../../Middlewares/AI_Runtime/Inc/ai_datatypes_internal.h **** }
  78:../../Middlewares/AI_Runtime/Inc/ai_datatypes_internal.h **** 
  79:../../Middlewares/AI_Runtime/Inc/ai_datatypes_internal.h **** /*!  AI_SHAPES SECTION                     ************************************/
  80:../../Middlewares/AI_Runtime/Inc/ai_datatypes_internal.h **** #define AI_SHAPE_2D_H(shape_) \
  81:../../Middlewares/AI_Runtime/Inc/ai_datatypes_internal.h ****   AI_SHAPE_ELEM(shape_, AI_SHAPE_2D_HEIGHT)
  82:../../Middlewares/AI_Runtime/Inc/ai_datatypes_internal.h **** 
  83:../../Middlewares/AI_Runtime/Inc/ai_datatypes_internal.h **** #define AI_SHAPE_2D_W(shape_) \
  84:../../Middlewares/AI_Runtime/Inc/ai_datatypes_internal.h ****   AI_SHAPE_ELEM(shape_, AI_SHAPE_2D_WIDTH)
  85:../../Middlewares/AI_Runtime/Inc/ai_datatypes_internal.h **** 
  86:../../Middlewares/AI_Runtime/Inc/ai_datatypes_internal.h **** #define AI_SHAPE_ELEM(shape_, pos_) \
  87:../../Middlewares/AI_Runtime/Inc/ai_datatypes_internal.h ****   AI_STORAGE_KLASS_DATA(shape_, ai_shape_dimension)[pos_]
  88:../../Middlewares/AI_Runtime/Inc/ai_datatypes_internal.h **** 
  89:../../Middlewares/AI_Runtime/Inc/ai_datatypes_internal.h **** #define AI_SHAPE_GET_ELEM(shape_, pos_) \
  90:../../Middlewares/AI_Runtime/Inc/ai_datatypes_internal.h ****   (((pos_) < AI_SHAPE_SIZE(shape_)) ? AI_SHAPE_ELEM(shape_, pos_) : 1)
  91:../../Middlewares/AI_Runtime/Inc/ai_datatypes_internal.h **** 
  92:../../Middlewares/AI_Runtime/Inc/ai_datatypes_internal.h **** #define AI_SHAPE_SET_ELEM(shape_, pos_, val_) \
  93:../../Middlewares/AI_Runtime/Inc/ai_datatypes_internal.h ****   if ((pos_) < AI_SHAPE_SIZE(shape_)) { AI_SHAPE_ELEM(shape_, pos_) = (val_); }
  94:../../Middlewares/AI_Runtime/Inc/ai_datatypes_internal.h **** 
  95:../../Middlewares/AI_Runtime/Inc/ai_datatypes_internal.h **** #define AI_SHAPE_TYPE(shape_) \
  96:../../Middlewares/AI_Runtime/Inc/ai_datatypes_internal.h ****   AI_STORAGE_KLASS_TYPE(shape_)
  97:../../Middlewares/AI_Runtime/Inc/ai_datatypes_internal.h **** 
  98:../../Middlewares/AI_Runtime/Inc/ai_datatypes_internal.h **** #define AI_SHAPE_SIZE(shape_) \
  99:../../Middlewares/AI_Runtime/Inc/ai_datatypes_internal.h ****   AI_STORAGE_KLASS_SIZE(shape_)
 100:../../Middlewares/AI_Runtime/Inc/ai_datatypes_internal.h **** 
 101:../../Middlewares/AI_Runtime/Inc/ai_datatypes_internal.h **** #define AI_SHAPE_CLONE(dst_, src_) \
 102:../../Middlewares/AI_Runtime/Inc/ai_datatypes_internal.h ****   AI_STORAGE_KLASS_COPY(dst_, ai_shape_dimension, src_, ai_shape_dimension)
 103:../../Middlewares/AI_Runtime/Inc/ai_datatypes_internal.h **** 
 104:../../Middlewares/AI_Runtime/Inc/ai_datatypes_internal.h **** #define AI_SHAPE_BCAST_CLONE(dst_, src_) \
 105:../../Middlewares/AI_Runtime/Inc/ai_datatypes_internal.h **** { \
 106:../../Middlewares/AI_Runtime/Inc/ai_datatypes_internal.h ****   for (ai_size i = 0; i < AI_SHAPE_SIZE(dst_); i++) { \
 107:../../Middlewares/AI_Runtime/Inc/ai_datatypes_internal.h ****     AI_SHAPE_SET_ELEM(dst_, i, AI_SHAPE_GET_ELEM(src_, i)); \
 108:../../Middlewares/AI_Runtime/Inc/ai_datatypes_internal.h ****   } \
 109:../../Middlewares/AI_Runtime/Inc/ai_datatypes_internal.h **** }
 110:../../Middlewares/AI_Runtime/Inc/ai_datatypes_internal.h **** 
 111:../../Middlewares/AI_Runtime/Inc/ai_datatypes_internal.h **** //#define AI_SHAPE_BATCH(shape_)      AI_SHAPE_ELEM((shape_), AI_SHAPE_BATCH_CHANNEL)
ARM GAS  C:\Users\Antonio\AppData\Local\Temp\cc6EBOZH.s 			page 114


 112:../../Middlewares/AI_Runtime/Inc/ai_datatypes_internal.h **** #define AI_SHAPE_H(shape_)          AI_SHAPE_ELEM((shape_), AI_SHAPE_HEIGHT)
 113:../../Middlewares/AI_Runtime/Inc/ai_datatypes_internal.h **** #define AI_SHAPE_W(shape_)          AI_SHAPE_ELEM((shape_), AI_SHAPE_WIDTH)
 114:../../Middlewares/AI_Runtime/Inc/ai_datatypes_internal.h **** #define AI_SHAPE_CH(shape_)         AI_SHAPE_ELEM((shape_), AI_SHAPE_CHANNEL)
 115:../../Middlewares/AI_Runtime/Inc/ai_datatypes_internal.h **** #define AI_SHAPE_IN_CH(shape_)      AI_SHAPE_ELEM((shape_), AI_SHAPE_IN_CHANNEL)
 116:../../Middlewares/AI_Runtime/Inc/ai_datatypes_internal.h **** #define AI_SHAPE_D(shape_)          ((AI_SHAPE_SIZE((shape_)) > AI_SHAPE_DEPTH) \
 117:../../Middlewares/AI_Runtime/Inc/ai_datatypes_internal.h ****   ? AI_SHAPE_ELEM((shape_), AI_SHAPE_DEPTH) : 1)
 118:../../Middlewares/AI_Runtime/Inc/ai_datatypes_internal.h **** #define AI_SHAPE_E(shape_)          ((AI_SHAPE_SIZE((shape_)) > AI_SHAPE_EXTENSION) \
 119:../../Middlewares/AI_Runtime/Inc/ai_datatypes_internal.h ****   ? AI_SHAPE_ELEM((shape_), AI_SHAPE_EXTENSION) : 1)
 120:../../Middlewares/AI_Runtime/Inc/ai_datatypes_internal.h **** #define AI_SHAPE_T(shape_)          AI_SHAPE_ELEM((shape_), AI_SHAPE_TIME)
 121:../../Middlewares/AI_Runtime/Inc/ai_datatypes_internal.h **** 
 122:../../Middlewares/AI_Runtime/Inc/ai_datatypes_internal.h **** #define AI_CONV_SHAPE_H             AI_SHAPE_W
 123:../../Middlewares/AI_Runtime/Inc/ai_datatypes_internal.h **** #define AI_CONV_SHAPE_W             AI_SHAPE_CH
 124:../../Middlewares/AI_Runtime/Inc/ai_datatypes_internal.h **** #define AI_CONV_SHAPE_CH            AI_SHAPE_H
 125:../../Middlewares/AI_Runtime/Inc/ai_datatypes_internal.h **** #define AI_CONV_SHAPE_IN_CH         AI_SHAPE_IN_CH
 126:../../Middlewares/AI_Runtime/Inc/ai_datatypes_internal.h **** 
 127:../../Middlewares/AI_Runtime/Inc/ai_datatypes_internal.h **** /*!  AI_STRIDES SECTION                     ***********************************/
 128:../../Middlewares/AI_Runtime/Inc/ai_datatypes_internal.h **** #define AI_STRIDE_2D_H(stride_) \
 129:../../Middlewares/AI_Runtime/Inc/ai_datatypes_internal.h ****   AI_STRIDE_ELEM((stride_), AI_SHAPE_2D_HEIGHT)
 130:../../Middlewares/AI_Runtime/Inc/ai_datatypes_internal.h **** 
 131:../../Middlewares/AI_Runtime/Inc/ai_datatypes_internal.h **** #define AI_STRIDE_2D_W(stride_) \
 132:../../Middlewares/AI_Runtime/Inc/ai_datatypes_internal.h ****   AI_STRIDE_ELEM((stride_), AI_SHAPE_2D_WIDTH)
 133:../../Middlewares/AI_Runtime/Inc/ai_datatypes_internal.h **** 
 134:../../Middlewares/AI_Runtime/Inc/ai_datatypes_internal.h **** #define AI_STRIDE_ELEM(stride_, pos_) \
 135:../../Middlewares/AI_Runtime/Inc/ai_datatypes_internal.h ****   AI_STORAGE_KLASS_DATA(stride_, ai_stride_dimension)[pos_]
 136:../../Middlewares/AI_Runtime/Inc/ai_datatypes_internal.h **** 
 137:../../Middlewares/AI_Runtime/Inc/ai_datatypes_internal.h **** #define AI_STRIDE_GET_ELEM(stride_, pos_) \
 138:../../Middlewares/AI_Runtime/Inc/ai_datatypes_internal.h ****   (((pos_) < AI_STRIDE_SIZE(stride_)) ? AI_STRIDE_ELEM(stride_, pos_) : 0)
 139:../../Middlewares/AI_Runtime/Inc/ai_datatypes_internal.h **** 
 140:../../Middlewares/AI_Runtime/Inc/ai_datatypes_internal.h **** #define AI_STRIDE_SET_ELEM(stride_, pos_, val_) \
 141:../../Middlewares/AI_Runtime/Inc/ai_datatypes_internal.h ****   if ((pos_) < AI_STRIDE_SIZE(stride_)) AI_STRIDE_ELEM(stride_, pos_) = (val_);
 142:../../Middlewares/AI_Runtime/Inc/ai_datatypes_internal.h **** 
 143:../../Middlewares/AI_Runtime/Inc/ai_datatypes_internal.h **** #define AI_STRIDE_TYPE(stride_) \
 144:../../Middlewares/AI_Runtime/Inc/ai_datatypes_internal.h ****   AI_STORAGE_KLASS_TYPE(stride_)
 145:../../Middlewares/AI_Runtime/Inc/ai_datatypes_internal.h **** 
 146:../../Middlewares/AI_Runtime/Inc/ai_datatypes_internal.h **** #define AI_STRIDE_SIZE(stride_) \
 147:../../Middlewares/AI_Runtime/Inc/ai_datatypes_internal.h ****   AI_STORAGE_KLASS_SIZE(stride_)
 148:../../Middlewares/AI_Runtime/Inc/ai_datatypes_internal.h **** 
 149:../../Middlewares/AI_Runtime/Inc/ai_datatypes_internal.h **** #define AI_STRIDE_CLONE(dst_, src_) \
 150:../../Middlewares/AI_Runtime/Inc/ai_datatypes_internal.h ****   AI_STORAGE_KLASS_COPY(dst_, ai_stride_dimension, src_, ai_stride_dimension)
 151:../../Middlewares/AI_Runtime/Inc/ai_datatypes_internal.h **** 
 152:../../Middlewares/AI_Runtime/Inc/ai_datatypes_internal.h **** #define AI_STRIDE_BCAST_CLONE(dst_, src_) \
 153:../../Middlewares/AI_Runtime/Inc/ai_datatypes_internal.h **** { \
 154:../../Middlewares/AI_Runtime/Inc/ai_datatypes_internal.h ****   for (ai_size i=0; i<AI_STRIDE_SIZE(dst_); i++) { \
 155:../../Middlewares/AI_Runtime/Inc/ai_datatypes_internal.h ****     AI_STRIDE_SET_ELEM(dst_, i, AI_STRIDE_GET_ELEM(src_, i)); \
 156:../../Middlewares/AI_Runtime/Inc/ai_datatypes_internal.h ****   } \
 157:../../Middlewares/AI_Runtime/Inc/ai_datatypes_internal.h **** }
 158:../../Middlewares/AI_Runtime/Inc/ai_datatypes_internal.h **** 
 159:../../Middlewares/AI_Runtime/Inc/ai_datatypes_internal.h **** //#define AI_STRIDE_BATCH(stride)     AI_STRIDE_ELEM((stride), AI_SHAPE_BATCH_CHANNEL)
 160:../../Middlewares/AI_Runtime/Inc/ai_datatypes_internal.h **** #define AI_STRIDE_H(stride)         AI_STRIDE_ELEM((stride), AI_SHAPE_HEIGHT)
 161:../../Middlewares/AI_Runtime/Inc/ai_datatypes_internal.h **** #define AI_STRIDE_W(stride)         AI_STRIDE_ELEM((stride), AI_SHAPE_WIDTH)
 162:../../Middlewares/AI_Runtime/Inc/ai_datatypes_internal.h **** #define AI_STRIDE_CH(stride)        AI_STRIDE_ELEM((stride), AI_SHAPE_CHANNEL)
 163:../../Middlewares/AI_Runtime/Inc/ai_datatypes_internal.h **** #define AI_STRIDE_IN_CH(stride)     AI_STRIDE_ELEM((stride), AI_SHAPE_IN_CHANNEL)
 164:../../Middlewares/AI_Runtime/Inc/ai_datatypes_internal.h **** #define AI_STRIDE_D(stride)         ((AI_STRIDE_SIZE((stride)) >= 5) ? AI_STRIDE_ELEM((stride), AI_
 165:../../Middlewares/AI_Runtime/Inc/ai_datatypes_internal.h **** #define AI_STRIDE_E(stride)         ((AI_STRIDE_SIZE((stride)) == 6) ? AI_STRIDE_ELEM((stride), AI_
 166:../../Middlewares/AI_Runtime/Inc/ai_datatypes_internal.h **** #define AI_STRIDE_T(stride)         AI_STRIDE_ELEM((stride), AI_SHAPE_TIME)
 167:../../Middlewares/AI_Runtime/Inc/ai_datatypes_internal.h **** 
 168:../../Middlewares/AI_Runtime/Inc/ai_datatypes_internal.h **** #define AI_STRIDE_SET_H(stride, val)         AI_STRIDE_SET_ELEM((stride), AI_SHAPE_HEIGHT, val)
ARM GAS  C:\Users\Antonio\AppData\Local\Temp\cc6EBOZH.s 			page 115


 169:../../Middlewares/AI_Runtime/Inc/ai_datatypes_internal.h **** #define AI_STRIDE_SET_W(stride, val)         AI_STRIDE_SET_ELEM((stride), AI_SHAPE_WIDTH, val)
 170:../../Middlewares/AI_Runtime/Inc/ai_datatypes_internal.h **** #define AI_STRIDE_SET_CH(stride, val)        AI_STRIDE_SET_ELEM((stride), AI_SHAPE_CHANNEL, val)
 171:../../Middlewares/AI_Runtime/Inc/ai_datatypes_internal.h **** #define AI_STRIDE_SET_IN_CH(stride, val)     AI_STRIDE_SET_ELEM((stride), AI_SHAPE_IN_CHANNEL, val)
 172:../../Middlewares/AI_Runtime/Inc/ai_datatypes_internal.h **** #define AI_STRIDE_SET_D(stride, val)         if (AI_STRIDE_SIZE((stride)) >= 5) AI_STRIDE_SET_ELEM(
 173:../../Middlewares/AI_Runtime/Inc/ai_datatypes_internal.h **** #define AI_STRIDE_SET_E(stride, val)         if (AI_STRIDE_SIZE((stride)) == 6) AI_STRIDE_SET_ELEM(
 174:../../Middlewares/AI_Runtime/Inc/ai_datatypes_internal.h **** 
 175:../../Middlewares/AI_Runtime/Inc/ai_datatypes_internal.h **** /*!  AI_TENSORS SECTION                     ***********************************/
 176:../../Middlewares/AI_Runtime/Inc/ai_datatypes_internal.h **** #define AI_TENSOR_KLASS(tensor_) \
 177:../../Middlewares/AI_Runtime/Inc/ai_datatypes_internal.h ****   ((tensor_) ? (tensor_)->klass : NULL)
 178:../../Middlewares/AI_Runtime/Inc/ai_datatypes_internal.h **** 
 179:../../Middlewares/AI_Runtime/Inc/ai_datatypes_internal.h **** #define AI_TENSOR_SHAPE(tensor_) \
 180:../../Middlewares/AI_Runtime/Inc/ai_datatypes_internal.h ****   (&((tensor_)->shape))
 181:../../Middlewares/AI_Runtime/Inc/ai_datatypes_internal.h **** 
 182:../../Middlewares/AI_Runtime/Inc/ai_datatypes_internal.h **** #define AI_TENSOR_STRIDE(tensor_) \
 183:../../Middlewares/AI_Runtime/Inc/ai_datatypes_internal.h ****   (&((tensor_)->stride))
 184:../../Middlewares/AI_Runtime/Inc/ai_datatypes_internal.h **** 
 185:../../Middlewares/AI_Runtime/Inc/ai_datatypes_internal.h **** #define AI_TENSOR_INFO(tensor_) \
 186:../../Middlewares/AI_Runtime/Inc/ai_datatypes_internal.h ****   (&((tensor_)->info))
 187:../../Middlewares/AI_Runtime/Inc/ai_datatypes_internal.h **** 
 188:../../Middlewares/AI_Runtime/Inc/ai_datatypes_internal.h **** #define AI_TENSOR_ARRAY(tensor_) \
 189:../../Middlewares/AI_Runtime/Inc/ai_datatypes_internal.h ****   ((tensor_) ? (tensor_)->data : NULL)
 190:../../Middlewares/AI_Runtime/Inc/ai_datatypes_internal.h **** 
 191:../../Middlewares/AI_Runtime/Inc/ai_datatypes_internal.h **** #define AI_TENSOR_ID(tensor_) \
 192:../../Middlewares/AI_Runtime/Inc/ai_datatypes_internal.h ****   ((tensor_) ? AI_TENSOR_INFO(tensor_)->id : 0)
 193:../../Middlewares/AI_Runtime/Inc/ai_datatypes_internal.h **** 
 194:../../Middlewares/AI_Runtime/Inc/ai_datatypes_internal.h **** #define AI_TENSOR_FLAGS(tensor_) \
 195:../../Middlewares/AI_Runtime/Inc/ai_datatypes_internal.h ****   ((tensor_) ? AI_TENSOR_INFO(tensor_)->flags : 0)
 196:../../Middlewares/AI_Runtime/Inc/ai_datatypes_internal.h **** 
 197:../../Middlewares/AI_Runtime/Inc/ai_datatypes_internal.h **** #define AI_TENSOR_DATA_SIZE(tensor_) \
 198:../../Middlewares/AI_Runtime/Inc/ai_datatypes_internal.h ****   ((tensor_) ? AI_TENSOR_INFO(tensor_)->data_size : 0)
 199:../../Middlewares/AI_Runtime/Inc/ai_datatypes_internal.h **** 
 200:../../Middlewares/AI_Runtime/Inc/ai_datatypes_internal.h **** /*!  AI_OFFSETS SECTION                     ***********************************/
 201:../../Middlewares/AI_Runtime/Inc/ai_datatypes_internal.h **** //#define AI_OFFSET_BATCH(b, stride)  ((ai_ptr_offset)(b)  * AI_STRIDE_BATCH(stride))
 202:../../Middlewares/AI_Runtime/Inc/ai_datatypes_internal.h **** #define AI_OFFSET_H(y, stride)      ((ai_ptr_offset)(y)  * AI_STRIDE_H(stride))
 203:../../Middlewares/AI_Runtime/Inc/ai_datatypes_internal.h **** #define AI_OFFSET_W(x, stride)      ((ai_ptr_offset)(x)  * AI_STRIDE_W(stride))
 204:../../Middlewares/AI_Runtime/Inc/ai_datatypes_internal.h **** #define AI_OFFSET_CH(ch, stride)    ((ai_ptr_offset)(ch) * AI_STRIDE_CH(stride))
 205:../../Middlewares/AI_Runtime/Inc/ai_datatypes_internal.h **** #define AI_OFFSET_IN_CH(in_ch, stride) ((ai_ptr_offset)(in_ch) * \
 206:../../Middlewares/AI_Runtime/Inc/ai_datatypes_internal.h ****                                       AI_STRIDE_IN_CH(stride))
 207:../../Middlewares/AI_Runtime/Inc/ai_datatypes_internal.h **** #define AI_OFFSET_D(d, stride)      ((ai_ptr_offset)(d) * AI_STRIDE_D(stride))
 208:../../Middlewares/AI_Runtime/Inc/ai_datatypes_internal.h **** #define AI_OFFSET_E(e, stride)      ((ai_ptr_offset)(e) * AI_STRIDE_E(stride))
 209:../../Middlewares/AI_Runtime/Inc/ai_datatypes_internal.h **** 
 210:../../Middlewares/AI_Runtime/Inc/ai_datatypes_internal.h **** #define AI_OFFSET_5D(y, x, d, e, ch, stride) ( \
 211:../../Middlewares/AI_Runtime/Inc/ai_datatypes_internal.h ****   AI_OFFSET_H((y), (stride)) + AI_OFFSET_W((x), (stride)) + \
 212:../../Middlewares/AI_Runtime/Inc/ai_datatypes_internal.h ****   AI_OFFSET_D((d), (stride)) + AI_OFFSET_E((e), (stride)) + \
 213:../../Middlewares/AI_Runtime/Inc/ai_datatypes_internal.h ****   AI_OFFSET_CH((ch), (stride)) )
 214:../../Middlewares/AI_Runtime/Inc/ai_datatypes_internal.h **** 
 215:../../Middlewares/AI_Runtime/Inc/ai_datatypes_internal.h **** #define AI_OFFSET(y, x, ch, z, stride) ( \
 216:../../Middlewares/AI_Runtime/Inc/ai_datatypes_internal.h ****   AI_OFFSET_H((y), (stride)) + AI_OFFSET_W((x), (stride)) + \
 217:../../Middlewares/AI_Runtime/Inc/ai_datatypes_internal.h ****   AI_OFFSET_CH((ch), (stride)) + \
 218:../../Middlewares/AI_Runtime/Inc/ai_datatypes_internal.h ****   ((AI_STRIDE_SIZE((stride)) == 4) ? AI_OFFSET_IN_CH((z), (stride)) : AI_OFFSET_D((z), (stride))) )
 219:../../Middlewares/AI_Runtime/Inc/ai_datatypes_internal.h **** 
 220:../../Middlewares/AI_Runtime/Inc/ai_datatypes_internal.h **** /*! @} */
 221:../../Middlewares/AI_Runtime/Inc/ai_datatypes_internal.h **** 
 222:../../Middlewares/AI_Runtime/Inc/ai_datatypes_internal.h **** #define AI_GET_CONV_OUT_SIZE(in_size, filt_size, pad_l, pad_r, filt_stride) \
 223:../../Middlewares/AI_Runtime/Inc/ai_datatypes_internal.h ****   ((((in_size) - (filt_size) + (pad_l) + (pad_r)) / (filt_stride)) + 1)
 224:../../Middlewares/AI_Runtime/Inc/ai_datatypes_internal.h **** 
 225:../../Middlewares/AI_Runtime/Inc/ai_datatypes_internal.h **** 
ARM GAS  C:\Users\Antonio\AppData\Local\Temp\cc6EBOZH.s 			page 116


 226:../../Middlewares/AI_Runtime/Inc/ai_datatypes_internal.h **** /** Tensors datatypes defines handlers ****************************************/
 227:../../Middlewares/AI_Runtime/Inc/ai_datatypes_internal.h **** #define AI_TENSOR_SIZE(tensor_) \
 228:../../Middlewares/AI_Runtime/Inc/ai_datatypes_internal.h ****   get_tensor_size(tensor_, true)
 229:../../Middlewares/AI_Runtime/Inc/ai_datatypes_internal.h **** 
 230:../../Middlewares/AI_Runtime/Inc/ai_datatypes_internal.h **** #define AI_TENSOR_SIZE_UNPAD(tensor_) \
 231:../../Middlewares/AI_Runtime/Inc/ai_datatypes_internal.h ****   get_tensor_size(tensor_, false)
 232:../../Middlewares/AI_Runtime/Inc/ai_datatypes_internal.h **** 
 233:../../Middlewares/AI_Runtime/Inc/ai_datatypes_internal.h **** #define AI_TENSOR_BYTE_SIZE(tensor_) \
 234:../../Middlewares/AI_Runtime/Inc/ai_datatypes_internal.h ****   get_tensor_byte_size(tensor_)
 235:../../Middlewares/AI_Runtime/Inc/ai_datatypes_internal.h **** 
 236:../../Middlewares/AI_Runtime/Inc/ai_datatypes_internal.h **** 
 237:../../Middlewares/AI_Runtime/Inc/ai_datatypes_internal.h **** /******************************************************************************/
 238:../../Middlewares/AI_Runtime/Inc/ai_datatypes_internal.h **** #define AI_PLATFORM_VERSION_INIT(major_, minor_, micro_) \
 239:../../Middlewares/AI_Runtime/Inc/ai_datatypes_internal.h ****   { .major = (major_), .minor = (minor_), .micro = (micro_), .reserved = 0x0 }
 240:../../Middlewares/AI_Runtime/Inc/ai_datatypes_internal.h **** 
 241:../../Middlewares/AI_Runtime/Inc/ai_datatypes_internal.h **** 
 242:../../Middlewares/AI_Runtime/Inc/ai_datatypes_internal.h **** /** Integer tensor info extraction ********************************************/
 243:../../Middlewares/AI_Runtime/Inc/ai_datatypes_internal.h **** #define AI_INTQ_INFO_LIST_SCALE_ARRAY(list_, type_) \
 244:../../Middlewares/AI_Runtime/Inc/ai_datatypes_internal.h ****   ( ((list_) && (list_)->info) \
 245:../../Middlewares/AI_Runtime/Inc/ai_datatypes_internal.h ****     ? ((type_*)((list_)->info->scale)) : NULL )
 246:../../Middlewares/AI_Runtime/Inc/ai_datatypes_internal.h **** 
 247:../../Middlewares/AI_Runtime/Inc/ai_datatypes_internal.h **** #define AI_INTQ_INFO_LIST_ZEROPOINT_ARRAY(list_, type_) \
 248:../../Middlewares/AI_Runtime/Inc/ai_datatypes_internal.h ****   ( ((list_) && (list_)->info) \
 249:../../Middlewares/AI_Runtime/Inc/ai_datatypes_internal.h ****     ? ((type_*)((list_)->info->zeropoint)) : NULL )
 250:../../Middlewares/AI_Runtime/Inc/ai_datatypes_internal.h **** 
 251:../../Middlewares/AI_Runtime/Inc/ai_datatypes_internal.h **** #define AI_KLASS_GET_INTQ_INFO_LIST(tensor_) \
 252:../../Middlewares/AI_Runtime/Inc/ai_datatypes_internal.h ****   ((ai_intq_info_list*)((tensor_)->klass))
 253:../../Middlewares/AI_Runtime/Inc/ai_datatypes_internal.h **** 
 254:../../Middlewares/AI_Runtime/Inc/ai_datatypes_internal.h **** 
 255:../../Middlewares/AI_Runtime/Inc/ai_datatypes_internal.h **** AI_API_DECLARE_BEGIN
 256:../../Middlewares/AI_Runtime/Inc/ai_datatypes_internal.h **** 
 257:../../Middlewares/AI_Runtime/Inc/ai_datatypes_internal.h **** /*!
 258:../../Middlewares/AI_Runtime/Inc/ai_datatypes_internal.h ****  * @brief Check whether 2 shapes have identical dimensions.
 259:../../Middlewares/AI_Runtime/Inc/ai_datatypes_internal.h ****  * @ingroup datatypes_internal
 260:../../Middlewares/AI_Runtime/Inc/ai_datatypes_internal.h ****  * @param shape0 the 1st tensor shape to compare
 261:../../Middlewares/AI_Runtime/Inc/ai_datatypes_internal.h ****  * @param shape1 the 2nd tensor shape to compare
 262:../../Middlewares/AI_Runtime/Inc/ai_datatypes_internal.h ****  * @return true if shape0 and shape1 have same dimensions. false otherwise
 263:../../Middlewares/AI_Runtime/Inc/ai_datatypes_internal.h ****  */
 264:../../Middlewares/AI_Runtime/Inc/ai_datatypes_internal.h **** AI_DECLARE_STATIC
 265:../../Middlewares/AI_Runtime/Inc/ai_datatypes_internal.h **** ai_bool ai_shape_is_same(
 266:../../Middlewares/AI_Runtime/Inc/ai_datatypes_internal.h ****   const ai_shape* shape0, const ai_shape* shape1)
 267:../../Middlewares/AI_Runtime/Inc/ai_datatypes_internal.h **** {
 268:../../Middlewares/AI_Runtime/Inc/ai_datatypes_internal.h ****   AI_ASSERT(shape0 && shape1)
 269:../../Middlewares/AI_Runtime/Inc/ai_datatypes_internal.h ****   if (AI_SHAPE_SIZE(shape0) != AI_SHAPE_SIZE(shape1))
 270:../../Middlewares/AI_Runtime/Inc/ai_datatypes_internal.h ****     return false;
 271:../../Middlewares/AI_Runtime/Inc/ai_datatypes_internal.h ****   ai_size dim = AI_SHAPE_SIZE(shape0);
 272:../../Middlewares/AI_Runtime/Inc/ai_datatypes_internal.h ****   while ( dim>0 ) {
 273:../../Middlewares/AI_Runtime/Inc/ai_datatypes_internal.h ****     dim--;
 274:../../Middlewares/AI_Runtime/Inc/ai_datatypes_internal.h ****     if ( AI_SHAPE_ELEM(shape0, dim)!=AI_SHAPE_ELEM(shape1, dim) )
 275:../../Middlewares/AI_Runtime/Inc/ai_datatypes_internal.h ****       return false;
 276:../../Middlewares/AI_Runtime/Inc/ai_datatypes_internal.h ****   }
 277:../../Middlewares/AI_Runtime/Inc/ai_datatypes_internal.h ****   return true;
 278:../../Middlewares/AI_Runtime/Inc/ai_datatypes_internal.h **** }
 279:../../Middlewares/AI_Runtime/Inc/ai_datatypes_internal.h **** 
 280:../../Middlewares/AI_Runtime/Inc/ai_datatypes_internal.h **** 
 281:../../Middlewares/AI_Runtime/Inc/ai_datatypes_internal.h **** /*!
 282:../../Middlewares/AI_Runtime/Inc/ai_datatypes_internal.h ****  * @brief Check whether the shapes is 1*1*1... for a scalar value content.
ARM GAS  C:\Users\Antonio\AppData\Local\Temp\cc6EBOZH.s 			page 117


 283:../../Middlewares/AI_Runtime/Inc/ai_datatypes_internal.h ****  * @ingroup datatypes_internal
 284:../../Middlewares/AI_Runtime/Inc/ai_datatypes_internal.h ****  * @param shape the tensor shape to evaluate
 285:../../Middlewares/AI_Runtime/Inc/ai_datatypes_internal.h ****  * @return true if shape0 is scalar false otherwise
 286:../../Middlewares/AI_Runtime/Inc/ai_datatypes_internal.h ****  */
 287:../../Middlewares/AI_Runtime/Inc/ai_datatypes_internal.h **** AI_DECLARE_STATIC
 288:../../Middlewares/AI_Runtime/Inc/ai_datatypes_internal.h **** ai_bool ai_shape_is_scalar(
 289:../../Middlewares/AI_Runtime/Inc/ai_datatypes_internal.h ****   const ai_shape* shape0)
 290:../../Middlewares/AI_Runtime/Inc/ai_datatypes_internal.h **** {
 291:../../Middlewares/AI_Runtime/Inc/ai_datatypes_internal.h ****   ai_size dim = AI_SHAPE_SIZE(shape0);
 292:../../Middlewares/AI_Runtime/Inc/ai_datatypes_internal.h ****   while (dim>0) {
 293:../../Middlewares/AI_Runtime/Inc/ai_datatypes_internal.h ****     dim--;
 294:../../Middlewares/AI_Runtime/Inc/ai_datatypes_internal.h ****     if (AI_SHAPE_ELEM(shape0, dim) != 1)
 295:../../Middlewares/AI_Runtime/Inc/ai_datatypes_internal.h ****       return false;
 296:../../Middlewares/AI_Runtime/Inc/ai_datatypes_internal.h ****   }
 297:../../Middlewares/AI_Runtime/Inc/ai_datatypes_internal.h ****   return true;
 298:../../Middlewares/AI_Runtime/Inc/ai_datatypes_internal.h **** }
 299:../../Middlewares/AI_Runtime/Inc/ai_datatypes_internal.h **** 
 300:../../Middlewares/AI_Runtime/Inc/ai_datatypes_internal.h **** 
 301:../../Middlewares/AI_Runtime/Inc/ai_datatypes_internal.h **** /*!
 302:../../Middlewares/AI_Runtime/Inc/ai_datatypes_internal.h ****  * @brief Check if shape0 is a subshape of shape1
 303:../../Middlewares/AI_Runtime/Inc/ai_datatypes_internal.h ****  * @ingroup datatypes_internal
 304:../../Middlewares/AI_Runtime/Inc/ai_datatypes_internal.h ****  * @param shape0 the 1st tensor shape to compare
 305:../../Middlewares/AI_Runtime/Inc/ai_datatypes_internal.h ****  * @param shape1 the 2nd tensor shape to compare
 306:../../Middlewares/AI_Runtime/Inc/ai_datatypes_internal.h ****  * @return true if shape0 is a subshape of shape1 (all shape0 dimensions are
 307:../../Middlewares/AI_Runtime/Inc/ai_datatypes_internal.h **** *  smallers or equal of the shape1 ones). false otherwise
 308:../../Middlewares/AI_Runtime/Inc/ai_datatypes_internal.h ****  */
 309:../../Middlewares/AI_Runtime/Inc/ai_datatypes_internal.h **** AI_DECLARE_STATIC
 310:../../Middlewares/AI_Runtime/Inc/ai_datatypes_internal.h **** ai_bool ai_shape_is_subshape(
 311:../../Middlewares/AI_Runtime/Inc/ai_datatypes_internal.h ****   const ai_shape* shape0, const ai_shape* shape1)
 312:../../Middlewares/AI_Runtime/Inc/ai_datatypes_internal.h **** {
 313:../../Middlewares/AI_Runtime/Inc/ai_datatypes_internal.h ****   AI_ASSERT(shape0 && shape1)
 314:../../Middlewares/AI_Runtime/Inc/ai_datatypes_internal.h ****   AI_ASSERT(AI_SHAPE_SIZE(shape0)==AI_SHAPE_SIZE(shape1))
 315:../../Middlewares/AI_Runtime/Inc/ai_datatypes_internal.h ****   ai_size dim = AI_SHAPE_SIZE(shape0);
 316:../../Middlewares/AI_Runtime/Inc/ai_datatypes_internal.h ****   while (dim) {
 317:../../Middlewares/AI_Runtime/Inc/ai_datatypes_internal.h ****     dim--;
 318:../../Middlewares/AI_Runtime/Inc/ai_datatypes_internal.h ****     if ( AI_SHAPE_ELEM(shape0, dim)>AI_SHAPE_ELEM(shape1, dim) )
 319:../../Middlewares/AI_Runtime/Inc/ai_datatypes_internal.h ****       return false;
 320:../../Middlewares/AI_Runtime/Inc/ai_datatypes_internal.h ****   }
 321:../../Middlewares/AI_Runtime/Inc/ai_datatypes_internal.h ****   return true;
 322:../../Middlewares/AI_Runtime/Inc/ai_datatypes_internal.h **** }
 323:../../Middlewares/AI_Runtime/Inc/ai_datatypes_internal.h **** 
 324:../../Middlewares/AI_Runtime/Inc/ai_datatypes_internal.h **** /*!
 325:../../Middlewares/AI_Runtime/Inc/ai_datatypes_internal.h ****  * @brief Computes the total size of a tensor given its dimensions.
 326:../../Middlewares/AI_Runtime/Inc/ai_datatypes_internal.h ****  * @ingroup datatypes_internal
 327:../../Middlewares/AI_Runtime/Inc/ai_datatypes_internal.h ****  * @param shape the tensor shape
 328:../../Middlewares/AI_Runtime/Inc/ai_datatypes_internal.h ****  */
 329:../../Middlewares/AI_Runtime/Inc/ai_datatypes_internal.h **** AI_DECLARE_STATIC
 330:../../Middlewares/AI_Runtime/Inc/ai_datatypes_internal.h **** ai_size ai_shape_get_size(const ai_shape* shape)
 331:../../Middlewares/AI_Runtime/Inc/ai_datatypes_internal.h **** {
 332:../../Middlewares/AI_Runtime/Inc/ai_datatypes_internal.h ****   AI_ASSERT(shape)
 333:../../Middlewares/AI_Runtime/Inc/ai_datatypes_internal.h ****   ai_size dim = AI_SHAPE_SIZE(shape);
 334:../../Middlewares/AI_Runtime/Inc/ai_datatypes_internal.h ****   AI_ASSERT(dim > 0)
 335:../../Middlewares/AI_Runtime/Inc/ai_datatypes_internal.h ****   ai_size size = 1;
 336:../../Middlewares/AI_Runtime/Inc/ai_datatypes_internal.h ****   while (dim>0) {
 337:../../Middlewares/AI_Runtime/Inc/ai_datatypes_internal.h ****     dim--;
 338:../../Middlewares/AI_Runtime/Inc/ai_datatypes_internal.h ****     size *= AI_SHAPE_ELEM(shape, dim);
 4530              		.loc 2 338 10 view .LVU1145
ARM GAS  C:\Users\Antonio\AppData\Local\Temp\cc6EBOZH.s 			page 118


 4531 0004 D0E90257 		ldrd	r5, r7, [r0, #8]
 4532              	.LBE76:
 4533              	.LBE75:
1125:../../Middlewares/AI_Runtime/Npu/ll_aton/ll_sw_float.c ****   Bn_sw_info *sw_info = (Bn_sw_info *)sw_info_struct;
 4534              		.loc 1 1125 1 view .LVU1146
 4535 0008 2DED048B 		vpush.64	{d8, d9}
 4536              		.cfi_def_cfa_offset 52
 4537              		.cfi_offset 80, -52
 4538              		.cfi_offset 81, -48
 4539              		.cfi_offset 82, -44
 4540              		.cfi_offset 83, -40
 4541              	.LBB78:
1129:../../Middlewares/AI_Runtime/Npu/ll_aton/ll_sw_float.c ****                        sw_info->general.input.mem.start_offset, sw_info->general.input.dim.num_elem
1130:../../Middlewares/AI_Runtime/Npu/ll_aton/ll_sw_float.c ****   AI_ARRAY_OBJ_DECLARE(bn_output_array, FORMAT, sw_info->general.output.mem.start_offset,
1131:../../Middlewares/AI_Runtime/Npu/ll_aton/ll_sw_float.c ****                        sw_info->general.output.mem.start_offset, sw_info->general.output.dim.num_el
1132:../../Middlewares/AI_Runtime/Npu/ll_aton/ll_sw_float.c ****   AI_ARRAY_OBJ_DECLARE(bn_bias_array, FORMAT, sw_info->bias.mem.start_offset, sw_info->bias.mem.sta
1133:../../Middlewares/AI_Runtime/Npu/ll_aton/ll_sw_float.c ****                        sw_info->bias.dim.num_elem, )
1134:../../Middlewares/AI_Runtime/Npu/ll_aton/ll_sw_float.c ****   AI_ARRAY_OBJ_DECLARE(bn_scale_array, FORMAT, sw_info->scale.mem.start_offset, sw_info->scale.mem.
1135:../../Middlewares/AI_Runtime/Npu/ll_aton/ll_sw_float.c ****                        sw_info->scale.dim.num_elem, )
1136:../../Middlewares/AI_Runtime/Npu/ll_aton/ll_sw_float.c ****   AI_ARRAY_OBJ_DECLARE(bn_mean_array, FORMAT, sw_info->mean.mem.start_offset, sw_info->mean.mem.sta
1137:../../Middlewares/AI_Runtime/Npu/ll_aton/ll_sw_float.c ****                        sw_info->mean.dim.num_elem, )
1138:../../Middlewares/AI_Runtime/Npu/ll_aton/ll_sw_float.c ****   AI_ARRAY_OBJ_DECLARE(bn_var_array, FORMAT, sw_info->var.mem.start_offset, sw_info->var.mem.start_
1139:../../Middlewares/AI_Runtime/Npu/ll_aton/ll_sw_float.c ****                        sw_info->var.dim.num_elem, )
1140:../../Middlewares/AI_Runtime/Npu/ll_aton/ll_sw_float.c **** 
1141:../../Middlewares/AI_Runtime/Npu/ll_aton/ll_sw_float.c ****   // tensors init
1142:../../Middlewares/AI_Runtime/Npu/ll_aton/ll_sw_float.c ****   AI_TENSOR_OBJ_DECLARE(input_output, , 0x0, 4,
1143:../../Middlewares/AI_Runtime/Npu/ll_aton/ll_sw_float.c ****                         SHAPE_INIT(sw_info->general.input.dim.tensor_h, sw_info->general.input.dim.
1144:../../Middlewares/AI_Runtime/Npu/ll_aton/ll_sw_float.c ****                                    sw_info->general.input.dim.tensor_c, sw_info->general.input.dim.
1145:../../Middlewares/AI_Runtime/Npu/ll_aton/ll_sw_float.c ****                         STRIDE_INIT(sw_info->general.input.stride.h, sw_info->general.input.stride.
1146:../../Middlewares/AI_Runtime/Npu/ll_aton/ll_sw_float.c ****                                     sw_info->general.input.stride.c, sw_info->general.input.stride.
1147:../../Middlewares/AI_Runtime/Npu/ll_aton/ll_sw_float.c ****                         1, &input_output_array, NULL)
1148:../../Middlewares/AI_Runtime/Npu/ll_aton/ll_sw_float.c ****   AI_TENSOR_OBJ_DECLARE(bn_output, , 0x0, 4,
1149:../../Middlewares/AI_Runtime/Npu/ll_aton/ll_sw_float.c ****                         SHAPE_INIT(sw_info->general.output.dim.tensor_h, sw_info->general.output.di
1150:../../Middlewares/AI_Runtime/Npu/ll_aton/ll_sw_float.c ****                                    sw_info->general.output.dim.tensor_c, sw_info->general.output.di
1151:../../Middlewares/AI_Runtime/Npu/ll_aton/ll_sw_float.c ****                         STRIDE_INIT(sw_info->general.output.stride.h, sw_info->general.output.strid
1152:../../Middlewares/AI_Runtime/Npu/ll_aton/ll_sw_float.c ****                                     sw_info->general.output.stride.c, sw_info->general.output.strid
1153:../../Middlewares/AI_Runtime/Npu/ll_aton/ll_sw_float.c ****                         1, &bn_output_array, NULL)
1154:../../Middlewares/AI_Runtime/Npu/ll_aton/ll_sw_float.c ****   AI_TENSOR_OBJ_DECLARE(
1155:../../Middlewares/AI_Runtime/Npu/ll_aton/ll_sw_float.c ****       bn_bias, , 0x0, 4,
1156:../../Middlewares/AI_Runtime/Npu/ll_aton/ll_sw_float.c ****       SHAPE_INIT(sw_info->bias.dim.tensor_h, sw_info->bias.dim.tensor_w, sw_info->bias.dim.tensor_c
1157:../../Middlewares/AI_Runtime/Npu/ll_aton/ll_sw_float.c ****                  sw_info->bias.dim.tensor_b),
1158:../../Middlewares/AI_Runtime/Npu/ll_aton/ll_sw_float.c ****       STRIDE_INIT(sw_info->bias.stride.h, sw_info->bias.stride.w, sw_info->bias.stride.c, sw_info->
1159:../../Middlewares/AI_Runtime/Npu/ll_aton/ll_sw_float.c ****       &bn_bias_array, NULL);
1160:../../Middlewares/AI_Runtime/Npu/ll_aton/ll_sw_float.c ****   AI_TENSOR_OBJ_DECLARE(
1161:../../Middlewares/AI_Runtime/Npu/ll_aton/ll_sw_float.c ****       bn_scale, , 0x0, 4,
1162:../../Middlewares/AI_Runtime/Npu/ll_aton/ll_sw_float.c ****       SHAPE_INIT(sw_info->scale.dim.tensor_h, sw_info->scale.dim.tensor_w, sw_info->scale.dim.tenso
1163:../../Middlewares/AI_Runtime/Npu/ll_aton/ll_sw_float.c ****                  sw_info->scale.dim.tensor_b),
1164:../../Middlewares/AI_Runtime/Npu/ll_aton/ll_sw_float.c ****       STRIDE_INIT(sw_info->scale.stride.h, sw_info->scale.stride.w, sw_info->scale.stride.c, sw_inf
1165:../../Middlewares/AI_Runtime/Npu/ll_aton/ll_sw_float.c ****       1, &bn_scale_array, NULL);
1166:../../Middlewares/AI_Runtime/Npu/ll_aton/ll_sw_float.c ****   AI_TENSOR_OBJ_DECLARE(
1167:../../Middlewares/AI_Runtime/Npu/ll_aton/ll_sw_float.c ****       bn_mean, , 0x0, 4,
1168:../../Middlewares/AI_Runtime/Npu/ll_aton/ll_sw_float.c ****       SHAPE_INIT(sw_info->mean.dim.tensor_h, sw_info->mean.dim.tensor_w, sw_info->mean.dim.tensor_c
1169:../../Middlewares/AI_Runtime/Npu/ll_aton/ll_sw_float.c ****                  sw_info->mean.dim.tensor_b),
1170:../../Middlewares/AI_Runtime/Npu/ll_aton/ll_sw_float.c ****       STRIDE_INIT(sw_info->mean.stride.h, sw_info->mean.stride.w, sw_info->mean.stride.c, sw_info->
1171:../../Middlewares/AI_Runtime/Npu/ll_aton/ll_sw_float.c ****       &bn_mean_array, NULL);
1172:../../Middlewares/AI_Runtime/Npu/ll_aton/ll_sw_float.c ****   AI_TENSOR_OBJ_DECLARE(
1173:../../Middlewares/AI_Runtime/Npu/ll_aton/ll_sw_float.c ****       bn_var, , 0x0, 4,
ARM GAS  C:\Users\Antonio\AppData\Local\Temp\cc6EBOZH.s 			page 119


1174:../../Middlewares/AI_Runtime/Npu/ll_aton/ll_sw_float.c ****       SHAPE_INIT(sw_info->var.dim.tensor_h, sw_info->var.dim.tensor_w, sw_info->var.dim.tensor_c,
1175:../../Middlewares/AI_Runtime/Npu/ll_aton/ll_sw_float.c ****                  sw_info->var.dim.tensor_b),
1176:../../Middlewares/AI_Runtime/Npu/ll_aton/ll_sw_float.c ****       STRIDE_INIT(sw_info->var.stride.h, sw_info->var.stride.w, sw_info->var.stride.c, sw_info->var
1177:../../Middlewares/AI_Runtime/Npu/ll_aton/ll_sw_float.c ****       &bn_var_array, NULL);
1178:../../Middlewares/AI_Runtime/Npu/ll_aton/ll_sw_float.c **** 
1179:../../Middlewares/AI_Runtime/Npu/ll_aton/ll_sw_float.c ****   const ai_tensor *t_in = &input_output;
1180:../../Middlewares/AI_Runtime/Npu/ll_aton/ll_sw_float.c ****   const ai_tensor *t_out = &bn_output;
1181:../../Middlewares/AI_Runtime/Npu/ll_aton/ll_sw_float.c ****   const ai_tensor *t_bias = &bn_bias;
1182:../../Middlewares/AI_Runtime/Npu/ll_aton/ll_sw_float.c ****   const ai_tensor *t_scale = &bn_scale;
1183:../../Middlewares/AI_Runtime/Npu/ll_aton/ll_sw_float.c ****   const ai_tensor *t_mean = &bn_mean;
1184:../../Middlewares/AI_Runtime/Npu/ll_aton/ll_sw_float.c ****   const ai_tensor *t_var = &bn_var;
1185:../../Middlewares/AI_Runtime/Npu/ll_aton/ll_sw_float.c **** 
1186:../../Middlewares/AI_Runtime/Npu/ll_aton/ll_sw_float.c ****   const ai_size n_elements = ai_shape_get_size(AI_TENSOR_SHAPE(t_in));
1187:../../Middlewares/AI_Runtime/Npu/ll_aton/ll_sw_float.c ****   const ai_size n_channel_in = AI_SHAPE_CH(AI_TENSOR_SHAPE(t_in));
1188:../../Middlewares/AI_Runtime/Npu/ll_aton/ll_sw_float.c ****   const ai_float *in_data = AI_ARRAY_OBJ_DATA(t_in->data, ai_float);
1189:../../Middlewares/AI_Runtime/Npu/ll_aton/ll_sw_float.c ****   ai_float *out_data = AI_ARRAY_OBJ_DATA(t_out->data, ai_float);
1190:../../Middlewares/AI_Runtime/Npu/ll_aton/ll_sw_float.c **** 
1191:../../Middlewares/AI_Runtime/Npu/ll_aton/ll_sw_float.c ****   AI_ASSERT(n_elements > 0 && n_channel_in > 0)
1192:../../Middlewares/AI_Runtime/Npu/ll_aton/ll_sw_float.c ****   AI_ASSERT(n_channel_in == AI_SHAPE_CH(AI_TENSOR_SHAPE(t_scale)))
1193:../../Middlewares/AI_Runtime/Npu/ll_aton/ll_sw_float.c ****   AI_ASSERT(!t_bias || n_channel_in == AI_SHAPE_CH(AI_TENSOR_SHAPE(t_bias)))
1194:../../Middlewares/AI_Runtime/Npu/ll_aton/ll_sw_float.c **** 
1195:../../Middlewares/AI_Runtime/Npu/ll_aton/ll_sw_float.c ****   const ai_float *scale = (const ai_float *)t_scale->data->data;
1196:../../Middlewares/AI_Runtime/Npu/ll_aton/ll_sw_float.c ****   const ai_float *bias = (const ai_float *)t_bias->data->data;
1197:../../Middlewares/AI_Runtime/Npu/ll_aton/ll_sw_float.c ****   const ai_float *mean = (const ai_float *)t_mean->data->data;
1198:../../Middlewares/AI_Runtime/Npu/ll_aton/ll_sw_float.c ****   const ai_float *var = (const ai_float *)t_var->data->data;
1199:../../Middlewares/AI_Runtime/Npu/ll_aton/ll_sw_float.c ****   const float epsilon = 0.00001f;
1200:../../Middlewares/AI_Runtime/Npu/ll_aton/ll_sw_float.c ****   for (ai_size i = 0; i < n_elements; i += n_channel_in)
 4542              		.loc 1 1200 16 view .LVU1147
 4543 000c 0024     		movs	r4, #0
 4544              	.LBB79:
1201:../../Middlewares/AI_Runtime/Npu/ll_aton/ll_sw_float.c ****   {
1202:../../Middlewares/AI_Runtime/Npu/ll_aton/ll_sw_float.c ****     for (ai_size ch = i; ch < i + n_channel_in; ++ch)
1203:../../Middlewares/AI_Runtime/Npu/ll_aton/ll_sw_float.c ****     {
1204:../../Middlewares/AI_Runtime/Npu/ll_aton/ll_sw_float.c ****       // LL_ATON_PRINTF("%f %f %f %f %f \n", in_data[ch], mean[ch-i], sqrtf(var[ch-i]), scale[ch-i]
1205:../../Middlewares/AI_Runtime/Npu/ll_aton/ll_sw_float.c ****       out_data[ch] = ((in_data[ch] - mean[ch - i]) / (sqrtf(var[ch - i] + epsilon))) * scale[ch - i
 4545              		.loc 1 1205 55 view .LVU1148
 4546 000e DFED258A 		vldr.32	s17, .L130
 4547              	.LBE79:
 4548              	.LBE78:
1128:../../Middlewares/AI_Runtime/Npu/ll_aton/ll_sw_float.c ****                        sw_info->general.input.mem.start_offset, sw_info->general.input.dim.num_elem
 4549              		.loc 1 1128 3 view .LVU1149
 4550 0012 836A     		ldr	r3, [r0, #40]
1125:../../Middlewares/AI_Runtime/Npu/ll_aton/ll_sw_float.c ****   Bn_sw_info *sw_info = (Bn_sw_info *)sw_info_struct;
 4551              		.loc 1 1125 1 view .LVU1150
 4552 0014 89B0     		sub	sp, sp, #36
 4553              		.cfi_def_cfa_offset 88
1128:../../Middlewares/AI_Runtime/Npu/ll_aton/ll_sw_float.c ****                        sw_info->general.input.mem.start_offset, sw_info->general.input.dim.num_elem
 4554              		.loc 1 1128 3 view .LVU1151
 4555 0016 0093     		str	r3, [sp]
1130:../../Middlewares/AI_Runtime/Npu/ll_aton/ll_sw_float.c ****                        sw_info->general.output.mem.start_offset, sw_info->general.output.dim.num_el
 4556              		.loc 1 1130 3 is_stmt 1 view .LVU1152
 4557 0018 436D     		ldr	r3, [r0, #84]
1136:../../Middlewares/AI_Runtime/Npu/ll_aton/ll_sw_float.c ****                        sw_info->mean.dim.num_elem, )
 4558              		.loc 1 1136 3 is_stmt 0 view .LVU1153
 4559 001a D0F8D810 		ldr	r1, [r0, #216]
1130:../../Middlewares/AI_Runtime/Npu/ll_aton/ll_sw_float.c ****                        sw_info->general.output.mem.start_offset, sw_info->general.output.dim.num_el
 4560              		.loc 1 1130 3 view .LVU1154
ARM GAS  C:\Users\Antonio\AppData\Local\Temp\cc6EBOZH.s 			page 120


 4561 001e 0193     		str	r3, [sp, #4]
1132:../../Middlewares/AI_Runtime/Npu/ll_aton/ll_sw_float.c ****                        sw_info->bias.dim.num_elem, )
 4562              		.loc 1 1132 3 is_stmt 1 view .LVU1155
 4563 0020 D0F88030 		ldr	r3, [r0, #128]
 4564 0024 0293     		str	r3, [sp, #8]
1134:../../Middlewares/AI_Runtime/Npu/ll_aton/ll_sw_float.c ****                        sw_info->scale.dim.num_elem, )
 4565              		.loc 1 1134 3 view .LVU1156
 4566 0026 D0F8AC30 		ldr	r3, [r0, #172]
 4567 002a 0393     		str	r3, [sp, #12]
1136:../../Middlewares/AI_Runtime/Npu/ll_aton/ll_sw_float.c ****                        sw_info->mean.dim.num_elem, )
 4568              		.loc 1 1136 3 view .LVU1157
1138:../../Middlewares/AI_Runtime/Npu/ll_aton/ll_sw_float.c ****                        sw_info->var.dim.num_elem, )
 4569              		.loc 1 1138 3 view .LVU1158
 4570 002c D0F80431 		ldr	r3, [r0, #260]
 4571 0030 0493     		str	r3, [sp, #16]
1142:../../Middlewares/AI_Runtime/Npu/ll_aton/ll_sw_float.c ****                         SHAPE_INIT(sw_info->general.input.dim.tensor_h, sw_info->general.input.dim.
 4572              		.loc 1 1142 3 view .LVU1159
 4573              	.LBB81:
 4574              	.LBB77:
 4575              		.loc 2 338 10 is_stmt 0 view .LVU1160
 4576 0032 4368     		ldr	r3, [r0, #4]
 4577 0034 5D43     		muls	r5, r3, r5
 4578              	.LVL198:
 336:../../Middlewares/AI_Runtime/Inc/ai_datatypes_internal.h ****     dim--;
 4579              		.loc 2 336 13 is_stmt 1 view .LVU1161
 337:../../Middlewares/AI_Runtime/Inc/ai_datatypes_internal.h ****     size *= AI_SHAPE_ELEM(shape, dim);
 4580              		.loc 2 337 5 view .LVU1162
 4581              		.loc 2 338 5 view .LVU1163
 4582              		.loc 2 338 10 is_stmt 0 view .LVU1164
 4583 0036 7D43     		muls	r5, r7, r5
 4584              	.LVL199:
 336:../../Middlewares/AI_Runtime/Inc/ai_datatypes_internal.h ****     dim--;
 4585              		.loc 2 336 13 is_stmt 1 view .LVU1165
 337:../../Middlewares/AI_Runtime/Inc/ai_datatypes_internal.h ****     size *= AI_SHAPE_ELEM(shape, dim);
 4586              		.loc 2 337 5 view .LVU1166
 4587              		.loc 2 338 5 view .LVU1167
 4588              		.loc 2 338 10 is_stmt 0 view .LVU1168
 4589 0038 0369     		ldr	r3, [r0, #16]
 4590 003a 5D43     		muls	r5, r3, r5
 4591              	.LVL200:
 336:../../Middlewares/AI_Runtime/Inc/ai_datatypes_internal.h ****     dim--;
 4592              		.loc 2 336 13 is_stmt 1 view .LVU1169
 4593              	.L126:
 336:../../Middlewares/AI_Runtime/Inc/ai_datatypes_internal.h ****     dim--;
 4594              		.loc 2 336 13 is_stmt 0 view .LVU1170
 4595              	.LBE77:
 4596              	.LBE81:
 4597              	.LBB82:
1200:../../Middlewares/AI_Runtime/Npu/ll_aton/ll_sw_float.c ****   {
 4598              		.loc 1 1200 25 is_stmt 1 discriminator 1 view .LVU1171
 4599 003c AC42     		cmp	r4, r5
 4600 003e 2CD2     		bcs	.L125
 4601 0040 DDE90109 		ldrd	r0, r9, [sp, #4]
 4602 0044 DDE903AB 		ldrd	r10, fp, [sp, #12]
 4603 0048 009B     		ldr	r3, [sp]
 4604 004a 00EB8408 		add	r8, r0, r4, lsl #2
 4605 004e 03EB8402 		add	r2, r3, r4, lsl #2
ARM GAS  C:\Users\Antonio\AppData\Local\Temp\cc6EBOZH.s 			page 121


 4606 0052 3E19     		adds	r6, r7, r4
 4607 0054 0B46     		mov	r3, r1
 4608 0056 1CE0     		b	.L129
 4609              	.LVL201:
 4610              	.L127:
 4611              	.LBB80:
 4612              		.loc 1 1205 64 is_stmt 0 view .LVU1172
 4613 0058 BBEC010A 		vldmia.32	fp!, {s0}
 4614              		.loc 1 1205 31 view .LVU1173
 4615 005c B2EC018A 		vldmia.32	r2!, {s16}
 4616              		.loc 1 1205 42 view .LVU1174
 4617 0060 B3EC019A 		vldmia.32	r3!, {s18}
 4618              		.loc 1 1205 55 view .LVU1175
 4619 0064 30EE280A 		vadd.f32	s0, s0, s17
 4620 0068 0791     		str	r1, [sp, #28]
 4621              		.loc 1 1205 7 is_stmt 1 view .LVU1176
 4622              		.loc 1 1205 31 is_stmt 0 view .LVU1177
 4623 006a 0692     		str	r2, [sp, #24]
 4624              		.loc 1 1205 42 view .LVU1178
 4625 006c 0593     		str	r3, [sp, #20]
 4626              		.loc 1 1205 55 view .LVU1179
 4627 006e FFF7FEFF 		bl	sqrtf
 4628              	.LVL202:
1202:../../Middlewares/AI_Runtime/Npu/ll_aton/ll_sw_float.c ****     {
 4629              		.loc 1 1202 49 discriminator 3 view .LVU1180
 4630 0072 DDE90621 		ldrd	r2, r1, [sp, #24]
 4631              		.loc 1 1205 36 view .LVU1181
 4632 0076 38EE498A 		vsub.f32	s16, s16, s18
 4633              		.loc 1 1205 93 discriminator 1 view .LVU1182
 4634 007a BAEC017A 		vldmia.32	r10!, {s14}
 4635              		.loc 1 1205 108 discriminator 1 view .LVU1183
 4636 007e F9EC017A 		vldmia.32	r9!, {s15}
 4637              		.loc 1 1205 52 discriminator 1 view .LVU1184
 4638 0082 C8EE006A 		vdiv.f32	s13, s16, s0
 4639              		.loc 1 1205 102 discriminator 1 view .LVU1185
 4640 0086 E6EE877A 		vfma.f32	s15, s13, s14
 4641              		.loc 1 1205 20 discriminator 1 view .LVU1186
 4642 008a E8EC017A 		vstmia.32	r8!, {s15}
1202:../../Middlewares/AI_Runtime/Npu/ll_aton/ll_sw_float.c ****     {
 4643              		.loc 1 1202 49 is_stmt 1 discriminator 3 view .LVU1187
 4644 008e 059B     		ldr	r3, [sp, #20]
 4645 0090 0134     		adds	r4, r4, #1
 4646              	.LVL203:
 4647              	.L129:
1202:../../Middlewares/AI_Runtime/Npu/ll_aton/ll_sw_float.c ****     {
 4648              		.loc 1 1202 29 discriminator 1 view .LVU1188
 4649 0092 B442     		cmp	r4, r6
 4650 0094 E0D3     		bcc	.L127
 4651 0096 3446     		mov	r4, r6
 4652              	.LVL204:
1202:../../Middlewares/AI_Runtime/Npu/ll_aton/ll_sw_float.c ****     {
 4653              		.loc 1 1202 29 is_stmt 0 discriminator 1 view .LVU1189
 4654 0098 D0E7     		b	.L126
 4655              	.LVL205:
 4656              	.L125:
1202:../../Middlewares/AI_Runtime/Npu/ll_aton/ll_sw_float.c ****     {
 4657              		.loc 1 1202 29 discriminator 1 view .LVU1190
ARM GAS  C:\Users\Antonio\AppData\Local\Temp\cc6EBOZH.s 			page 122


 4658              	.LBE80:
 4659              	.LBE82:
1206:../../Middlewares/AI_Runtime/Npu/ll_aton/ll_sw_float.c ****     }
1207:../../Middlewares/AI_Runtime/Npu/ll_aton/ll_sw_float.c ****   }
1208:../../Middlewares/AI_Runtime/Npu/ll_aton/ll_sw_float.c **** }
 4660              		.loc 1 1208 1 view .LVU1191
 4661 009a 09B0     		add	sp, sp, #36
 4662              		.cfi_def_cfa_offset 52
 4663              		@ sp needed
 4664 009c BDEC048B 		vldm	sp!, {d8-d9}
 4665              		.cfi_restore 82
 4666              		.cfi_restore 83
 4667              		.cfi_restore 80
 4668              		.cfi_restore 81
 4669              		.cfi_def_cfa_offset 36
 4670 00a0 BDE8F08F 		pop	{r4, r5, r6, r7, r8, r9, r10, fp, pc}
 4671              	.LVL206:
 4672              	.L131:
 4673              		.loc 1 1208 1 view .LVU1192
 4674              		.align	2
 4675              	.L130:
 4676 00a4 ACC52737 		.word	925353388
 4677              		.cfi_endproc
 4678              	.LFE28:
 4680              		.section	.text.ll_sw_forward_instance_normalization,"ax",%progbits
 4681              		.align	1
 4682              		.global	ll_sw_forward_instance_normalization
 4683              		.syntax unified
 4684              		.thumb
 4685              		.thumb_func
 4687              	ll_sw_forward_instance_normalization:
 4688              	.LVL207:
 4689              	.LFB29:
1209:../../Middlewares/AI_Runtime/Npu/ll_aton/ll_sw_float.c **** 
1210:../../Middlewares/AI_Runtime/Npu/ll_aton/ll_sw_float.c **** //##########################################################################################
1211:../../Middlewares/AI_Runtime/Npu/ll_aton/ll_sw_float.c **** /** Instance Norm forward function  */
1212:../../Middlewares/AI_Runtime/Npu/ll_aton/ll_sw_float.c **** void ll_sw_forward_instance_normalization(/* int processor, */ void *sw_info_struct)
1213:../../Middlewares/AI_Runtime/Npu/ll_aton/ll_sw_float.c **** {
 4690              		.loc 1 1213 1 is_stmt 1 view -0
 4691              		.cfi_startproc
 4692              		@ args = 0, pretend = 0, frame = 416
 4693              		@ frame_needed = 0, uses_anonymous_args = 0
1214:../../Middlewares/AI_Runtime/Npu/ll_aton/ll_sw_float.c ****   Instance_normalization_sw_info *sw_info = (Instance_normalization_sw_info *)sw_info_struct;
 4694              		.loc 1 1214 3 view .LVU1194
1215:../../Middlewares/AI_Runtime/Npu/ll_aton/ll_sw_float.c **** 
1216:../../Middlewares/AI_Runtime/Npu/ll_aton/ll_sw_float.c ****   AI_ARRAY_OBJ_DECLARE(input_output_array, FORMAT, sw_info->general.input.mem.start_offset,
 4695              		.loc 1 1216 3 view .LVU1195
1213:../../Middlewares/AI_Runtime/Npu/ll_aton/ll_sw_float.c ****   Instance_normalization_sw_info *sw_info = (Instance_normalization_sw_info *)sw_info_struct;
 4696              		.loc 1 1213 1 is_stmt 0 view .LVU1196
 4697 0000 2DE9F041 		push	{r4, r5, r6, r7, r8, lr}
 4698              		.cfi_def_cfa_offset 24
 4699              		.cfi_offset 4, -24
 4700              		.cfi_offset 5, -20
 4701              		.cfi_offset 6, -16
 4702              		.cfi_offset 7, -12
 4703              		.cfi_offset 8, -8
 4704              		.cfi_offset 14, -4
ARM GAS  C:\Users\Antonio\AppData\Local\Temp\cc6EBOZH.s 			page 123


 4705              		.loc 1 1216 3 view .LVU1197
 4706 0004 654B     		ldr	r3, .L133
1213:../../Middlewares/AI_Runtime/Npu/ll_aton/ll_sw_float.c ****   Instance_normalization_sw_info *sw_info = (Instance_normalization_sw_info *)sw_info_struct;
 4707              		.loc 1 1213 1 view .LVU1198
 4708 0006 E8B0     		sub	sp, sp, #416
 4709              		.cfi_def_cfa_offset 440
 4710              		.loc 1 1216 3 view .LVU1199
 4711 0008 0893     		str	r3, [sp, #32]
1217:../../Middlewares/AI_Runtime/Npu/ll_aton/ll_sw_float.c ****                        sw_info->general.input.mem.start_offset, sw_info->general.input.dim.num_elem
1218:../../Middlewares/AI_Runtime/Npu/ll_aton/ll_sw_float.c ****   AI_ARRAY_OBJ_DECLARE(instanceNorm_output_array, FORMAT, sw_info->general.output.mem.start_offset,
 4712              		.loc 1 1218 3 view .LVU1200
 4713 000a 0C93     		str	r3, [sp, #48]
1219:../../Middlewares/AI_Runtime/Npu/ll_aton/ll_sw_float.c ****                        sw_info->general.output.mem.start_offset, sw_info->general.output.dim.num_el
1220:../../Middlewares/AI_Runtime/Npu/ll_aton/ll_sw_float.c ****   AI_ARRAY_OBJ_DECLARE(instanceNorm_bias_array, FORMAT, sw_info->bias.mem.start_offset, sw_info->bi
 4714              		.loc 1 1220 3 view .LVU1201
 4715 000c 1093     		str	r3, [sp, #64]
1221:../../Middlewares/AI_Runtime/Npu/ll_aton/ll_sw_float.c ****                        sw_info->bias.dim.num_elem, )
1222:../../Middlewares/AI_Runtime/Npu/ll_aton/ll_sw_float.c ****   AI_ARRAY_OBJ_DECLARE(instanceNorm_scale_array, FORMAT, sw_info->scale.mem.start_offset,
 4716              		.loc 1 1222 3 view .LVU1202
 4717 000e 1493     		str	r3, [sp, #80]
 4718 0010 D0F89830 		ldr	r3, [r0, #152]
1223:../../Middlewares/AI_Runtime/Npu/ll_aton/ll_sw_float.c ****                        sw_info->scale.mem.start_offset, sw_info->scale.dim.num_elem, )
1224:../../Middlewares/AI_Runtime/Npu/ll_aton/ll_sw_float.c **** 
1225:../../Middlewares/AI_Runtime/Npu/ll_aton/ll_sw_float.c ****   // tensors init
1226:../../Middlewares/AI_Runtime/Npu/ll_aton/ll_sw_float.c ****   AI_TENSOR_OBJ_DECLARE(input_output, , 0x0, 4,
 4719              		.loc 1 1226 3 view .LVU1203
 4720 0014 4FF0827C 		mov	ip, #17039360
1222:../../Middlewares/AI_Runtime/Npu/ll_aton/ll_sw_float.c ****                        sw_info->scale.mem.start_offset, sw_info->scale.dim.num_elem, )
 4721              		.loc 1 1222 3 view .LVU1204
 4722 0018 1593     		str	r3, [sp, #84]
 4723 001a D0F8AC30 		ldr	r3, [r0, #172]
 4724              		.loc 1 1226 3 view .LVU1205
 4725 001e 40F20148 		movw	r8, #1025
1222:../../Middlewares/AI_Runtime/Npu/ll_aton/ll_sw_float.c ****                        sw_info->scale.mem.start_offset, sw_info->scale.dim.num_elem, )
 4726              		.loc 1 1222 3 view .LVU1206
 4727 0022 CDE91633 		strd	r3, r3, [sp, #88]
 4728              		.loc 1 1226 3 view .LVU1207
 4729 0026 0023     		movs	r3, #0
 4730 0028 40F2024E 		movw	lr, #1026
1216:../../Middlewares/AI_Runtime/Npu/ll_aton/ll_sw_float.c ****                        sw_info->general.input.mem.start_offset, sw_info->general.input.dim.num_elem
 4731              		.loc 1 1216 3 view .LVU1208
 4732 002c 4269     		ldr	r2, [r0, #20]
 4733              		.loc 1 1226 3 view .LVU1209
 4734 002e 0669     		ldr	r6, [r0, #16]
1216:../../Middlewares/AI_Runtime/Npu/ll_aton/ll_sw_float.c ****                        sw_info->general.input.mem.start_offset, sw_info->general.input.dim.num_elem
 4735              		.loc 1 1216 3 view .LVU1210
 4736 0030 0992     		str	r2, [sp, #36]
 4737 0032 826A     		ldr	r2, [r0, #40]
 4738              		.loc 1 1226 3 view .LVU1211
 4739 0034 CDE9383C 		strd	r3, ip, [sp, #224]
1216:../../Middlewares/AI_Runtime/Npu/ll_aton/ll_sw_float.c ****                        sw_info->general.input.mem.start_offset, sw_info->general.input.dim.num_elem
 4740              		.loc 1 1216 3 view .LVU1212
 4741 0038 CDE90A22 		strd	r2, r2, [sp, #40]
1218:../../Middlewares/AI_Runtime/Npu/ll_aton/ll_sw_float.c ****                        sw_info->general.output.mem.start_offset, sw_info->general.output.dim.num_el
 4742              		.loc 1 1218 3 is_stmt 1 view .LVU1213
 4743 003c 026C     		ldr	r2, [r0, #64]
 4744              		.loc 1 1226 3 is_stmt 0 view .LVU1214
ARM GAS  C:\Users\Antonio\AppData\Local\Temp\cc6EBOZH.s 			page 124


 4745 003e CDF8E880 		str	r8, [sp, #232]
1218:../../Middlewares/AI_Runtime/Npu/ll_aton/ll_sw_float.c ****                        sw_info->general.output.mem.start_offset, sw_info->general.output.dim.num_el
 4746              		.loc 1 1218 3 view .LVU1215
 4747 0042 0D92     		str	r2, [sp, #52]
 4748 0044 426D     		ldr	r2, [r0, #84]
 4749              		.loc 1 1226 3 view .LVU1216
 4750 0046 1896     		str	r6, [sp, #96]
1218:../../Middlewares/AI_Runtime/Npu/ll_aton/ll_sw_float.c ****                        sw_info->general.output.mem.start_offset, sw_info->general.output.dim.num_el
 4751              		.loc 1 1218 3 view .LVU1217
 4752 0048 CDE90E22 		strd	r2, r2, [sp, #56]
1220:../../Middlewares/AI_Runtime/Npu/ll_aton/ll_sw_float.c ****                        sw_info->bias.dim.num_elem, )
 4753              		.loc 1 1220 3 is_stmt 1 view .LVU1218
 4754 004c C26E     		ldr	r2, [r0, #108]
 4755              		.loc 1 1226 3 is_stmt 0 view .LVU1219
 4756 004e 18AF     		add	r7, sp, #96
1220:../../Middlewares/AI_Runtime/Npu/ll_aton/ll_sw_float.c ****                        sw_info->bias.dim.num_elem, )
 4757              		.loc 1 1220 3 view .LVU1220
 4758 0050 1192     		str	r2, [sp, #68]
 4759 0052 D0F88020 		ldr	r2, [r0, #128]
1216:../../Middlewares/AI_Runtime/Npu/ll_aton/ll_sw_float.c ****                        sw_info->general.input.mem.start_offset, sw_info->general.input.dim.num_elem
 4760              		.loc 1 1216 3 view .LVU1221
 4761 0056 08AD     		add	r5, sp, #32
1220:../../Middlewares/AI_Runtime/Npu/ll_aton/ll_sw_float.c ****                        sw_info->bias.dim.num_elem, )
 4762              		.loc 1 1220 3 view .LVU1222
 4763 0058 CDE91222 		strd	r2, r2, [sp, #72]
1222:../../Middlewares/AI_Runtime/Npu/ll_aton/ll_sw_float.c ****                        sw_info->scale.mem.start_offset, sw_info->scale.dim.num_elem, )
 4764              		.loc 1 1222 3 is_stmt 1 view .LVU1223
 4765              		.loc 1 1226 3 view .LVU1224
 4766 005c C668     		ldr	r6, [r0, #12]
 4767 005e 3B97     		str	r7, [sp, #236]
 4768 0060 1996     		str	r6, [sp, #100]
 4769 0062 8668     		ldr	r6, [r0, #8]
 4770 0064 1CAF     		add	r7, sp, #112
 4771 0066 CDE93D75 		strd	r7, r5, [sp, #244]
1227:../../Middlewares/AI_Runtime/Npu/ll_aton/ll_sw_float.c ****                         SHAPE_INIT(sw_info->general.input.dim.tensor_h, sw_info->general.input.dim.
1228:../../Middlewares/AI_Runtime/Npu/ll_aton/ll_sw_float.c ****                                    sw_info->general.input.dim.tensor_c, sw_info->general.input.dim.
1229:../../Middlewares/AI_Runtime/Npu/ll_aton/ll_sw_float.c ****                         STRIDE_INIT(sw_info->general.input.stride.h, sw_info->general.input.stride.
1230:../../Middlewares/AI_Runtime/Npu/ll_aton/ll_sw_float.c ****                                     sw_info->general.input.stride.c, sw_info->general.input.stride.
1231:../../Middlewares/AI_Runtime/Npu/ll_aton/ll_sw_float.c ****                         1, &input_output_array, NULL)
1232:../../Middlewares/AI_Runtime/Npu/ll_aton/ll_sw_float.c ****   AI_TENSOR_OBJ_DECLARE(instanceNorm_output, , 0x0, 4,
 4772              		.loc 1 1232 3 view .LVU1225
1226:../../Middlewares/AI_Runtime/Npu/ll_aton/ll_sw_float.c ****                         SHAPE_INIT(sw_info->general.input.dim.tensor_h, sw_info->general.input.dim.
 4773              		.loc 1 1226 3 is_stmt 0 view .LVU1226
 4774 006a 1A96     		str	r6, [sp, #104]
 4775              		.loc 1 1232 3 view .LVU1227
 4776 006c C56B     		ldr	r5, [r0, #60]
1226:../../Middlewares/AI_Runtime/Npu/ll_aton/ll_sw_float.c ****                         SHAPE_INIT(sw_info->general.input.dim.tensor_h, sw_info->general.input.dim.
 4777              		.loc 1 1226 3 view .LVU1228
 4778 006e 4668     		ldr	r6, [r0, #4]
 4779              		.loc 1 1232 3 view .LVU1229
 4780 0070 2095     		str	r5, [sp, #128]
1226:../../Middlewares/AI_Runtime/Npu/ll_aton/ll_sw_float.c ****                         SHAPE_INIT(sw_info->general.input.dim.tensor_h, sw_info->general.input.dim.
 4781              		.loc 1 1226 3 view .LVU1230
 4782 0072 1B96     		str	r6, [sp, #108]
 4783              		.loc 1 1232 3 view .LVU1231
 4784 0074 856B     		ldr	r5, [r0, #56]
1226:../../Middlewares/AI_Runtime/Npu/ll_aton/ll_sw_float.c ****                         SHAPE_INIT(sw_info->general.input.dim.tensor_h, sw_info->general.input.dim.
ARM GAS  C:\Users\Antonio\AppData\Local\Temp\cc6EBOZH.s 			page 125


 4785              		.loc 1 1226 3 view .LVU1232
 4786 0076 466A     		ldr	r6, [r0, #36]
 4787              		.loc 1 1232 3 view .LVU1233
 4788 0078 2195     		str	r5, [sp, #132]
1226:../../Middlewares/AI_Runtime/Npu/ll_aton/ll_sw_float.c ****                         SHAPE_INIT(sw_info->general.input.dim.tensor_h, sw_info->general.input.dim.
 4789              		.loc 1 1226 3 view .LVU1234
 4790 007a 1C96     		str	r6, [sp, #112]
 4791              		.loc 1 1232 3 view .LVU1235
 4792 007c 456B     		ldr	r5, [r0, #52]
1226:../../Middlewares/AI_Runtime/Npu/ll_aton/ll_sw_float.c ****                         SHAPE_INIT(sw_info->general.input.dim.tensor_h, sw_info->general.input.dim.
 4793              		.loc 1 1226 3 view .LVU1236
 4794 007e 066A     		ldr	r6, [r0, #32]
 4795              		.loc 1 1232 3 view .LVU1237
 4796 0080 2295     		str	r5, [sp, #136]
1226:../../Middlewares/AI_Runtime/Npu/ll_aton/ll_sw_float.c ****                         SHAPE_INIT(sw_info->general.input.dim.tensor_h, sw_info->general.input.dim.
 4797              		.loc 1 1226 3 view .LVU1238
 4798 0082 1D96     		str	r6, [sp, #116]
 4799              		.loc 1 1232 3 view .LVU1239
 4800 0084 056B     		ldr	r5, [r0, #48]
1226:../../Middlewares/AI_Runtime/Npu/ll_aton/ll_sw_float.c ****                         SHAPE_INIT(sw_info->general.input.dim.tensor_h, sw_info->general.input.dim.
 4801              		.loc 1 1226 3 view .LVU1240
 4802 0086 C669     		ldr	r6, [r0, #28]
 4803              		.loc 1 1232 3 view .LVU1241
 4804 0088 20AF     		add	r7, sp, #128
1226:../../Middlewares/AI_Runtime/Npu/ll_aton/ll_sw_float.c ****                         SHAPE_INIT(sw_info->general.input.dim.tensor_h, sw_info->general.input.dim.
 4805              		.loc 1 1226 3 view .LVU1242
 4806 008a 1E96     		str	r6, [sp, #120]
 4807              		.loc 1 1232 3 view .LVU1243
 4808 008c 2395     		str	r5, [sp, #140]
1226:../../Middlewares/AI_Runtime/Npu/ll_aton/ll_sw_float.c ****                         SHAPE_INIT(sw_info->general.input.dim.tensor_h, sw_info->general.input.dim.
 4809              		.loc 1 1226 3 view .LVU1244
 4810 008e 8669     		ldr	r6, [r0, #24]
 4811              		.loc 1 1232 3 view .LVU1245
 4812 0090 056D     		ldr	r5, [r0, #80]
 4813 0092 CDE9427E 		strd	r7, lr, [sp, #264]
1218:../../Middlewares/AI_Runtime/Npu/ll_aton/ll_sw_float.c ****                        sw_info->general.output.mem.start_offset, sw_info->general.output.dim.num_el
 4814              		.loc 1 1218 3 view .LVU1246
 4815 0096 0CAC     		add	r4, sp, #48
 4816              		.loc 1 1232 3 view .LVU1247
 4817 0098 24AF     		add	r7, sp, #144
 4818 009a CDE93F3C 		strd	r3, ip, [sp, #252]
1226:../../Middlewares/AI_Runtime/Npu/ll_aton/ll_sw_float.c ****                         SHAPE_INIT(sw_info->general.input.dim.tensor_h, sw_info->general.input.dim.
 4819              		.loc 1 1226 3 view .LVU1248
 4820 009e CDF8F0E0 		str	lr, [sp, #240]
 4821 00a2 1F96     		str	r6, [sp, #124]
 4822              		.loc 1 1232 3 view .LVU1249
 4823 00a4 CDF80481 		str	r8, [sp, #260]
 4824 00a8 2495     		str	r5, [sp, #144]
 4825 00aa CDE94474 		strd	r7, r4, [sp, #272]
1233:../../Middlewares/AI_Runtime/Npu/ll_aton/ll_sw_float.c ****                         SHAPE_INIT(sw_info->general.output.dim.tensor_h, sw_info->general.output.di
1234:../../Middlewares/AI_Runtime/Npu/ll_aton/ll_sw_float.c ****                                    sw_info->general.output.dim.tensor_c, sw_info->general.output.di
1235:../../Middlewares/AI_Runtime/Npu/ll_aton/ll_sw_float.c ****                         STRIDE_INIT(sw_info->general.output.stride.h, sw_info->general.output.strid
1236:../../Middlewares/AI_Runtime/Npu/ll_aton/ll_sw_float.c ****                                     sw_info->general.output.stride.c, sw_info->general.output.strid
1237:../../Middlewares/AI_Runtime/Npu/ll_aton/ll_sw_float.c ****                         1, &instanceNorm_output_array, NULL)
1238:../../Middlewares/AI_Runtime/Npu/ll_aton/ll_sw_float.c ****   AI_TENSOR_OBJ_DECLARE(
 4826              		.loc 1 1238 3 is_stmt 1 view .LVU1250
 4827 00ae 846E     		ldr	r4, [r0, #104]
ARM GAS  C:\Users\Antonio\AppData\Local\Temp\cc6EBOZH.s 			page 126


1232:../../Middlewares/AI_Runtime/Npu/ll_aton/ll_sw_float.c ****                         SHAPE_INIT(sw_info->general.output.dim.tensor_h, sw_info->general.output.di
 4828              		.loc 1 1232 3 is_stmt 0 view .LVU1251
 4829 00b0 C56C     		ldr	r5, [r0, #76]
 4830              		.loc 1 1238 3 view .LVU1252
 4831 00b2 2894     		str	r4, [sp, #160]
 4832 00b4 446E     		ldr	r4, [r0, #100]
1232:../../Middlewares/AI_Runtime/Npu/ll_aton/ll_sw_float.c ****                         SHAPE_INIT(sw_info->general.output.dim.tensor_h, sw_info->general.output.di
 4833              		.loc 1 1232 3 view .LVU1253
 4834 00b6 2595     		str	r5, [sp, #148]
 4835              		.loc 1 1238 3 view .LVU1254
 4836 00b8 2994     		str	r4, [sp, #164]
 4837 00ba 046E     		ldr	r4, [r0, #96]
1232:../../Middlewares/AI_Runtime/Npu/ll_aton/ll_sw_float.c ****                         SHAPE_INIT(sw_info->general.output.dim.tensor_h, sw_info->general.output.di
 4838              		.loc 1 1232 3 view .LVU1255
 4839 00bc 856C     		ldr	r5, [r0, #72]
 4840              		.loc 1 1238 3 view .LVU1256
 4841 00be 2A94     		str	r4, [sp, #168]
 4842 00c0 C46D     		ldr	r4, [r0, #92]
1232:../../Middlewares/AI_Runtime/Npu/ll_aton/ll_sw_float.c ****                         SHAPE_INIT(sw_info->general.output.dim.tensor_h, sw_info->general.output.di
 4843              		.loc 1 1232 3 view .LVU1257
 4844 00c2 2695     		str	r5, [sp, #152]
 4845              		.loc 1 1238 3 view .LVU1258
 4846 00c4 2B94     		str	r4, [sp, #172]
 4847 00c6 C46F     		ldr	r4, [r0, #124]
1232:../../Middlewares/AI_Runtime/Npu/ll_aton/ll_sw_float.c ****                         SHAPE_INIT(sw_info->general.output.dim.tensor_h, sw_info->general.output.di
 4848              		.loc 1 1232 3 view .LVU1259
 4849 00c8 456C     		ldr	r5, [r0, #68]
 4850              		.loc 1 1238 3 view .LVU1260
 4851 00ca 2C94     		str	r4, [sp, #176]
 4852 00cc 846F     		ldr	r4, [r0, #120]
1220:../../Middlewares/AI_Runtime/Npu/ll_aton/ll_sw_float.c ****                        sw_info->bias.dim.num_elem, )
 4853              		.loc 1 1220 3 view .LVU1261
 4854 00ce 10A9     		add	r1, sp, #64
 4855              		.loc 1 1238 3 view .LVU1262
 4856 00d0 2D94     		str	r4, [sp, #180]
 4857 00d2 446F     		ldr	r4, [r0, #116]
1232:../../Middlewares/AI_Runtime/Npu/ll_aton/ll_sw_float.c ****                         SHAPE_INIT(sw_info->general.output.dim.tensor_h, sw_info->general.output.di
 4858              		.loc 1 1232 3 view .LVU1263
 4859 00d4 2795     		str	r5, [sp, #156]
 4860              		.loc 1 1238 3 view .LVU1264
 4861 00d6 2E94     		str	r4, [sp, #184]
 4862 00d8 046F     		ldr	r4, [r0, #112]
 4863 00da 28AD     		add	r5, sp, #160
 4864 00dc 2F94     		str	r4, [sp, #188]
 4865 00de 2CAC     		add	r4, sp, #176
 4866 00e0 CDE9463C 		strd	r3, ip, [sp, #280]
 4867 00e4 CDE9495E 		strd	r5, lr, [sp, #292]
 4868 00e8 CDE94B41 		strd	r4, r1, [sp, #300]
1239:../../Middlewares/AI_Runtime/Npu/ll_aton/ll_sw_float.c ****       instanceNorm_bias, , 0x0, 4,
1240:../../Middlewares/AI_Runtime/Npu/ll_aton/ll_sw_float.c ****       SHAPE_INIT(sw_info->bias.dim.tensor_h, sw_info->bias.dim.tensor_w, sw_info->bias.dim.tensor_c
1241:../../Middlewares/AI_Runtime/Npu/ll_aton/ll_sw_float.c ****                  sw_info->bias.dim.tensor_b),
1242:../../Middlewares/AI_Runtime/Npu/ll_aton/ll_sw_float.c ****       STRIDE_INIT(sw_info->bias.stride.h, sw_info->bias.stride.w, sw_info->bias.stride.c, sw_info->
1243:../../Middlewares/AI_Runtime/Npu/ll_aton/ll_sw_float.c ****       &instanceNorm_bias_array, NULL);
 4869              		.loc 1 1243 38 is_stmt 1 view .LVU1265
1244:../../Middlewares/AI_Runtime/Npu/ll_aton/ll_sw_float.c ****   AI_TENSOR_OBJ_DECLARE(
 4870              		.loc 1 1244 3 view .LVU1266
1238:../../Middlewares/AI_Runtime/Npu/ll_aton/ll_sw_float.c ****       instanceNorm_bias, , 0x0, 4,
ARM GAS  C:\Users\Antonio\AppData\Local\Temp\cc6EBOZH.s 			page 127


 4871              		.loc 1 1238 3 is_stmt 0 view .LVU1267
 4872 00ec CDF82081 		str	r8, [sp, #288]
 4873              		.loc 1 1244 3 view .LVU1268
 4874 00f0 CDE94D3C 		strd	r3, ip, [sp, #308]
 4875 00f4 D0F89410 		ldr	r1, [r0, #148]
1222:../../Middlewares/AI_Runtime/Npu/ll_aton/ll_sw_float.c ****                        sw_info->scale.mem.start_offset, sw_info->scale.dim.num_elem, )
 4876              		.loc 1 1222 3 view .LVU1269
 4877 00f8 14AA     		add	r2, sp, #80
 4878              		.loc 1 1244 3 view .LVU1270
 4879 00fa 3091     		str	r1, [sp, #192]
 4880 00fc D0F89010 		ldr	r1, [r0, #144]
 4881 0100 CDF83C81 		str	r8, [sp, #316]
 4882 0104 3191     		str	r1, [sp, #196]
 4883 0106 D0F88C10 		ldr	r1, [r0, #140]
1245:../../Middlewares/AI_Runtime/Npu/ll_aton/ll_sw_float.c ****       instanceNorm_scale, , 0x0, 4,
1246:../../Middlewares/AI_Runtime/Npu/ll_aton/ll_sw_float.c ****       SHAPE_INIT(sw_info->scale.dim.tensor_h, sw_info->scale.dim.tensor_w, sw_info->scale.dim.tenso
1247:../../Middlewares/AI_Runtime/Npu/ll_aton/ll_sw_float.c ****                  sw_info->scale.dim.tensor_b),
1248:../../Middlewares/AI_Runtime/Npu/ll_aton/ll_sw_float.c ****       STRIDE_INIT(sw_info->scale.stride.h, sw_info->scale.stride.w, sw_info->scale.stride.c, sw_inf
1249:../../Middlewares/AI_Runtime/Npu/ll_aton/ll_sw_float.c ****       1, &instanceNorm_scale_array, NULL);
1250:../../Middlewares/AI_Runtime/Npu/ll_aton/ll_sw_float.c **** 
1251:../../Middlewares/AI_Runtime/Npu/ll_aton/ll_sw_float.c ****   // tensor chain initialization
1252:../../Middlewares/AI_Runtime/Npu/ll_aton/ll_sw_float.c ****   AI_TENSOR_CHAIN_OBJ_DECLARE(
 4884              		.loc 1 1252 3 view .LVU1271
 4885 010a CDF874D1 		str	sp, [sp, #372]
1244:../../Middlewares/AI_Runtime/Npu/ll_aton/ll_sw_float.c ****       instanceNorm_scale, , 0x0, 4,
 4886              		.loc 1 1244 3 view .LVU1272
 4887 010e 3291     		str	r1, [sp, #200]
 4888 0110 D0F88810 		ldr	r1, [r0, #136]
 4889 0114 3391     		str	r1, [sp, #204]
 4890 0116 30A9     		add	r1, sp, #192
 4891 0118 CDE9501E 		strd	r1, lr, [sp, #320]
 4892 011c D0F8A810 		ldr	r1, [r0, #168]
 4893 0120 3491     		str	r1, [sp, #208]
 4894 0122 D0F8A410 		ldr	r1, [r0, #164]
 4895 0126 3591     		str	r1, [sp, #212]
 4896 0128 D0F8A010 		ldr	r1, [r0, #160]
 4897 012c 3691     		str	r1, [sp, #216]
 4898 012e D0F89C10 		ldr	r1, [r0, #156]
 4899              		.loc 1 1252 3 view .LVU1273
 4900 0132 38A8     		add	r0, sp, #224
 4901              	.LVL208:
1244:../../Middlewares/AI_Runtime/Npu/ll_aton/ll_sw_float.c ****       instanceNorm_scale, , 0x0, 4,
 4902              		.loc 1 1244 3 view .LVU1274
 4903 0134 3791     		str	r1, [sp, #220]
 4904 0136 34A9     		add	r1, sp, #208
 4905 0138 CDE95212 		strd	r1, r2, [sp, #328]
1249:../../Middlewares/AI_Runtime/Npu/ll_aton/ll_sw_float.c **** 
 4906              		.loc 1 1249 42 is_stmt 1 view .LVU1275
 4907              		.loc 1 1252 3 view .LVU1276
 4908 013c 0422     		movs	r2, #4
 4909 013e 0392     		str	r2, [sp, #12]
 4910 0140 0122     		movs	r2, #1
 4911 0142 CDE95E32 		strd	r3, r2, [sp, #376]
 4912 0146 5C92     		str	r2, [sp, #368]
 4913 0148 01AA     		add	r2, sp, #4
 4914 014a CDE96023 		strd	r2, r3, [sp, #384]
 4915 014e 0322     		movs	r2, #3
ARM GAS  C:\Users\Antonio\AppData\Local\Temp\cc6EBOZH.s 			page 128


 4916 0150 0090     		str	r0, [sp]
 4917 0152 3FA8     		add	r0, sp, #252
 4918 0154 0190     		str	r0, [sp, #4]
 4919 0156 4DA8     		add	r0, sp, #308
 4920 0158 6292     		str	r2, [sp, #392]
 4921 015a 0590     		str	r0, [sp, #20]
 4922 015c 05AA     		add	r2, sp, #20
 4923 015e 46A8     		add	r0, sp, #280
 4924 0160 CDE90603 		strd	r0, r3, [sp, #24]
 4925 0164 CDE96323 		strd	r2, r3, [sp, #396]
 4926 0168 02AA     		add	r2, sp, #8
 4927 016a CDE96623 		strd	r2, r3, [sp, #408]
 4928 016e 5CAA     		add	r2, sp, #368
 4929 0170 0492     		str	r2, [sp, #16]
1253:../../Middlewares/AI_Runtime/Npu/ll_aton/ll_sw_float.c ****       instanceNorm_chain, , 4, AI_TENSOR_LIST_OBJ_INIT(AI_FLAG_NONE, 1, TENSORS(&input_output)),
1254:../../Middlewares/AI_Runtime/Npu/ll_aton/ll_sw_float.c ****       AI_TENSOR_LIST_OBJ_INIT(AI_FLAG_NONE, 1, TENSORS(&instanceNorm_output)),
1255:../../Middlewares/AI_Runtime/Npu/ll_aton/ll_sw_float.c ****       AI_TENSOR_LIST_OBJ_INIT(AI_FLAG_NONE, 3, TENSORS(&instanceNorm_scale, &instanceNorm_bias, NUL
1256:../../Middlewares/AI_Runtime/Npu/ll_aton/ll_sw_float.c ****       AI_TENSOR_LIST_OBJ_EMPTY, )
1257:../../Middlewares/AI_Runtime/Npu/ll_aton/ll_sw_float.c **** 
1258:../../Middlewares/AI_Runtime/Npu/ll_aton/ll_sw_float.c ****   // layer initialization
1259:../../Middlewares/AI_Runtime/Npu/ll_aton/ll_sw_float.c ****   AI_LAYER_OBJ_DECLARE(instanceNorm_layer, 1, INSTANCENORMALIZATION_TYPE, 0x0, NULL, instanceNormal
 4930              		.loc 1 1259 3 view .LVU1277
 4931 0172 0B4A     		ldr	r2, .L133+4
 4932 0174 CDE95633 		strd	r3, r3, [sp, #344]
 4933 0178 CDE95423 		strd	r2, r3, [sp, #336]
1252:../../Middlewares/AI_Runtime/Npu/ll_aton/ll_sw_float.c ****       instanceNorm_chain, , 4, AI_TENSOR_LIST_OBJ_INIT(AI_FLAG_NONE, 1, TENSORS(&input_output)),
 4934              		.loc 1 1252 3 is_stmt 0 view .LVU1278
 4935 017c 6593     		str	r3, [sp, #404]
 4936 017e 0293     		str	r3, [sp, #8]
 4937              		.loc 1 1259 3 view .LVU1279
 4938 0180 5893     		str	r3, [sp, #352]
 4939 0182 084B     		ldr	r3, .L133+8
1252:../../Middlewares/AI_Runtime/Npu/ll_aton/ll_sw_float.c ****       instanceNorm_chain, , 4, AI_TENSOR_LIST_OBJ_INIT(AI_FLAG_NONE, 1, TENSORS(&input_output)),
 4940              		.loc 1 1252 3 view .LVU1280
 4941 0184 03A9     		add	r1, sp, #12
 4942              		.loc 1 1259 3 view .LVU1281
 4943 0186 CDE95931 		strd	r3, r1, [sp, #356]
 4944 018a 074B     		ldr	r3, .L133+12
1260:../../Middlewares/AI_Runtime/Npu/ll_aton/ll_sw_float.c ****                        forward_instanceNormalization, &instanceNorm_chain, NULL, NULL, , .eps = 0.0
1261:../../Middlewares/AI_Runtime/Npu/ll_aton/ll_sw_float.c ****   instanceNorm_layer.forward(AI_LAYER_OBJ(&instanceNorm_layer));
 4945              		.loc 1 1261 3 view .LVU1282
 4946 018c 54A8     		add	r0, sp, #336
1259:../../Middlewares/AI_Runtime/Npu/ll_aton/ll_sw_float.c ****                        forward_instanceNormalization, &instanceNorm_chain, NULL, NULL, , .eps = 0.0
 4947              		.loc 1 1259 3 view .LVU1283
 4948 018e 5B93     		str	r3, [sp, #364]	@ float
 4949              		.loc 1 1261 3 is_stmt 1 view .LVU1284
 4950 0190 FFF7FEFF 		bl	forward_instanceNormalization
 4951              	.LVL209:
1262:../../Middlewares/AI_Runtime/Npu/ll_aton/ll_sw_float.c **** }
 4952              		.loc 1 1262 1 is_stmt 0 view .LVU1285
 4953 0194 68B0     		add	sp, sp, #416
 4954              		.cfi_def_cfa_offset 24
 4955              		@ sp needed
 4956 0196 BDE8F081 		pop	{r4, r5, r6, r7, r8, pc}
 4957              	.L134:
 4958 019a 00BF     		.align	2
 4959              	.L133:
ARM GAS  C:\Users\Antonio\AppData\Local\Temp\cc6EBOZH.s 			page 129


 4960 019c 40108200 		.word	8523840
 4961 01a0 15010100 		.word	65813
 4962 01a4 00000000 		.word	forward_instanceNormalization
 4963 01a8 ACC52737 		.word	925353388
 4964              		.cfi_endproc
 4965              	.LFE29:
 4967              		.section	.text.ll_sw_forward_lpnormalization,"ax",%progbits
 4968              		.align	1
 4969              		.global	ll_sw_forward_lpnormalization
 4970              		.syntax unified
 4971              		.thumb
 4972              		.thumb_func
 4974              	ll_sw_forward_lpnormalization:
 4975              	.LVL210:
 4976              	.LFB30:
1263:../../Middlewares/AI_Runtime/Npu/ll_aton/ll_sw_float.c **** 
1264:../../Middlewares/AI_Runtime/Npu/ll_aton/ll_sw_float.c **** //##########################################################################################
1265:../../Middlewares/AI_Runtime/Npu/ll_aton/ll_sw_float.c **** /** Lp Norm forward function  */
1266:../../Middlewares/AI_Runtime/Npu/ll_aton/ll_sw_float.c **** void ll_sw_forward_lpnormalization(/* int processor, */ void *sw_info_struct)
1267:../../Middlewares/AI_Runtime/Npu/ll_aton/ll_sw_float.c **** {
 4977              		.loc 1 1267 1 is_stmt 1 view -0
 4978              		.cfi_startproc
 4979              		@ args = 0, pretend = 0, frame = 264
 4980              		@ frame_needed = 0, uses_anonymous_args = 0
1268:../../Middlewares/AI_Runtime/Npu/ll_aton/ll_sw_float.c ****   Lpnormalization_sw_info *sw_info = (Lpnormalization_sw_info *)sw_info_struct;
 4981              		.loc 1 1268 3 view .LVU1287
1269:../../Middlewares/AI_Runtime/Npu/ll_aton/ll_sw_float.c **** 
1270:../../Middlewares/AI_Runtime/Npu/ll_aton/ll_sw_float.c ****   AI_ARRAY_OBJ_DECLARE(input_output_array, FORMAT, sw_info->general.input.mem.start_offset,
 4982              		.loc 1 1270 3 view .LVU1288
1267:../../Middlewares/AI_Runtime/Npu/ll_aton/ll_sw_float.c ****   Lpnormalization_sw_info *sw_info = (Lpnormalization_sw_info *)sw_info_struct;
 4983              		.loc 1 1267 1 is_stmt 0 view .LVU1289
 4984 0000 30B5     		push	{r4, r5, lr}
 4985              		.cfi_def_cfa_offset 12
 4986              		.cfi_offset 4, -12
 4987              		.cfi_offset 5, -8
 4988              		.cfi_offset 14, -4
 4989 0002 0446     		mov	r4, r0
 4990              		.loc 1 1270 3 view .LVU1290
 4991 0004 414B     		ldr	r3, .L138
1267:../../Middlewares/AI_Runtime/Npu/ll_aton/ll_sw_float.c ****   Lpnormalization_sw_info *sw_info = (Lpnormalization_sw_info *)sw_info_struct;
 4992              		.loc 1 1267 1 view .LVU1291
 4993 0006 C3B0     		sub	sp, sp, #268
 4994              		.cfi_def_cfa_offset 280
 4995              		.loc 1 1270 3 view .LVU1292
 4996 0008 0693     		str	r3, [sp, #24]
1271:../../Middlewares/AI_Runtime/Npu/ll_aton/ll_sw_float.c ****                        sw_info->general.input.mem.start_offset, sw_info->general.input.dim.num_elem
1272:../../Middlewares/AI_Runtime/Npu/ll_aton/ll_sw_float.c ****   AI_ARRAY_OBJ_DECLARE(lpNormm_output_array, FORMAT, sw_info->general.output.mem.start_offset,
 4997              		.loc 1 1272 3 view .LVU1293
 4998 000a 0A93     		str	r3, [sp, #40]
 4999 000c 036C     		ldr	r3, [r0, #64]
1270:../../Middlewares/AI_Runtime/Npu/ll_aton/ll_sw_float.c ****                        sw_info->general.input.mem.start_offset, sw_info->general.input.dim.num_elem
 5000              		.loc 1 1270 3 view .LVU1294
 5001 000e 4269     		ldr	r2, [r0, #20]
 5002              		.loc 1 1272 3 view .LVU1295
 5003 0010 0B93     		str	r3, [sp, #44]
 5004 0012 436D     		ldr	r3, [r0, #84]
1270:../../Middlewares/AI_Runtime/Npu/ll_aton/ll_sw_float.c ****                        sw_info->general.input.mem.start_offset, sw_info->general.input.dim.num_elem
ARM GAS  C:\Users\Antonio\AppData\Local\Temp\cc6EBOZH.s 			page 130


 5005              		.loc 1 1270 3 view .LVU1296
 5006 0014 0792     		str	r2, [sp, #28]
 5007              		.loc 1 1272 3 view .LVU1297
 5008 0016 CDE90C33 		strd	r3, r3, [sp, #48]
1273:../../Middlewares/AI_Runtime/Npu/ll_aton/ll_sw_float.c ****                        sw_info->general.output.mem.start_offset, sw_info->general.output.dim.num_el
1274:../../Middlewares/AI_Runtime/Npu/ll_aton/ll_sw_float.c **** 
1275:../../Middlewares/AI_Runtime/Npu/ll_aton/ll_sw_float.c ****   // tensors init
1276:../../Middlewares/AI_Runtime/Npu/ll_aton/ll_sw_float.c ****   AI_TENSOR_OBJ_DECLARE(input_output, , 0x0, 4,
 5009              		.loc 1 1276 3 view .LVU1298
 5010 001a 2369     		ldr	r3, [r4, #16]
1270:../../Middlewares/AI_Runtime/Npu/ll_aton/ll_sw_float.c ****                        sw_info->general.input.mem.start_offset, sw_info->general.input.dim.num_elem
 5011              		.loc 1 1270 3 view .LVU1299
 5012 001c 826A     		ldr	r2, [r0, #40]
 5013              		.loc 1 1276 3 view .LVU1300
 5014 001e 0E93     		str	r3, [sp, #56]
 5015 0020 E368     		ldr	r3, [r4, #12]
 5016 0022 0021     		movs	r1, #0
 5017 0024 0F93     		str	r3, [sp, #60]
 5018 0026 A368     		ldr	r3, [r4, #8]
 5019 0028 4FF08270 		mov	r0, #17039360
 5020              	.LVL211:
 5021              		.loc 1 1276 3 view .LVU1301
 5022 002c 1093     		str	r3, [sp, #64]
 5023 002e 6368     		ldr	r3, [r4, #4]
1270:../../Middlewares/AI_Runtime/Npu/ll_aton/ll_sw_float.c ****                        sw_info->general.input.mem.start_offset, sw_info->general.input.dim.num_elem
 5024              		.loc 1 1270 3 view .LVU1302
 5025 0030 CDE90822 		strd	r2, r2, [sp, #32]
1272:../../Middlewares/AI_Runtime/Npu/ll_aton/ll_sw_float.c ****                        sw_info->general.output.mem.start_offset, sw_info->general.output.dim.num_el
 5026              		.loc 1 1272 3 is_stmt 1 view .LVU1303
 5027              		.loc 1 1276 3 view .LVU1304
 5028 0034 1193     		str	r3, [sp, #68]
 5029 0036 0EAB     		add	r3, sp, #56
 5030 0038 40F20142 		movw	r2, #1025
 5031 003c 2193     		str	r3, [sp, #132]
 5032 003e 40F20243 		movw	r3, #1026
 5033 0042 656A     		ldr	r5, [r4, #36]
 5034 0044 CDE91E10 		strd	r1, r0, [sp, #120]
 5035 0048 1295     		str	r5, [sp, #72]
 5036 004a 256A     		ldr	r5, [r4, #32]
 5037 004c 2092     		str	r2, [sp, #128]
 5038 004e 2293     		str	r3, [sp, #136]
 5039 0050 1395     		str	r5, [sp, #76]
 5040 0052 E569     		ldr	r5, [r4, #28]
1277:../../Middlewares/AI_Runtime/Npu/ll_aton/ll_sw_float.c ****                         SHAPE_INIT(sw_info->general.input.dim.tensor_h, sw_info->general.input.dim.
1278:../../Middlewares/AI_Runtime/Npu/ll_aton/ll_sw_float.c ****                                    sw_info->general.input.dim.tensor_c, sw_info->general.input.dim.
1279:../../Middlewares/AI_Runtime/Npu/ll_aton/ll_sw_float.c ****                         STRIDE_INIT(sw_info->general.input.stride.h, sw_info->general.input.stride.
1280:../../Middlewares/AI_Runtime/Npu/ll_aton/ll_sw_float.c ****                                     sw_info->general.input.stride.c, sw_info->general.input.stride.
1281:../../Middlewares/AI_Runtime/Npu/ll_aton/ll_sw_float.c ****                         1, &input_output_array, NULL)
1282:../../Middlewares/AI_Runtime/Npu/ll_aton/ll_sw_float.c ****   AI_TENSOR_OBJ_DECLARE(lpNormm_output, , 0x0, 4,
 5041              		.loc 1 1282 3 is_stmt 0 view .LVU1305
 5042 0054 CDE92602 		strd	r0, r2, [sp, #152]
 5043 0058 E26B     		ldr	r2, [r4, #60]
1276:../../Middlewares/AI_Runtime/Npu/ll_aton/ll_sw_float.c ****                         SHAPE_INIT(sw_info->general.input.dim.tensor_h, sw_info->general.input.dim.
 5044              		.loc 1 1276 3 view .LVU1306
 5045 005a 1495     		str	r5, [sp, #80]
 5046              		.loc 1 1282 3 view .LVU1307
 5047 005c 1692     		str	r2, [sp, #88]
ARM GAS  C:\Users\Antonio\AppData\Local\Temp\cc6EBOZH.s 			page 131


 5048 005e A26B     		ldr	r2, [r4, #56]
1276:../../Middlewares/AI_Runtime/Npu/ll_aton/ll_sw_float.c ****                         SHAPE_INIT(sw_info->general.input.dim.tensor_h, sw_info->general.input.dim.
 5049              		.loc 1 1276 3 view .LVU1308
 5050 0060 A569     		ldr	r5, [r4, #24]
 5051              		.loc 1 1282 3 view .LVU1309
 5052 0062 1792     		str	r2, [sp, #92]
 5053 0064 626B     		ldr	r2, [r4, #52]
1276:../../Middlewares/AI_Runtime/Npu/ll_aton/ll_sw_float.c ****                         SHAPE_INIT(sw_info->general.input.dim.tensor_h, sw_info->general.input.dim.
 5054              		.loc 1 1276 3 view .LVU1310
 5055 0066 1595     		str	r5, [sp, #84]
 5056              		.loc 1 1282 3 view .LVU1311
 5057 0068 1892     		str	r2, [sp, #96]
 5058 006a 226B     		ldr	r2, [r4, #48]
1276:../../Middlewares/AI_Runtime/Npu/ll_aton/ll_sw_float.c ****                         SHAPE_INIT(sw_info->general.input.dim.tensor_h, sw_info->general.input.dim.
 5059              		.loc 1 1276 3 view .LVU1312
 5060 006c 12AD     		add	r5, sp, #72
 5061              		.loc 1 1282 3 view .LVU1313
 5062 006e 1992     		str	r2, [sp, #100]
 5063 0070 16AA     		add	r2, sp, #88
 5064 0072 CDE92823 		strd	r2, r3, [sp, #160]
 5065 0076 236D     		ldr	r3, [r4, #80]
1276:../../Middlewares/AI_Runtime/Npu/ll_aton/ll_sw_float.c ****                         SHAPE_INIT(sw_info->general.input.dim.tensor_h, sw_info->general.input.dim.
 5066              		.loc 1 1276 3 view .LVU1314
 5067 0078 2395     		str	r5, [sp, #140]
 5068              		.loc 1 1282 3 view .LVU1315
 5069 007a 1A93     		str	r3, [sp, #104]
 5070 007c E36C     		ldr	r3, [r4, #76]
1283:../../Middlewares/AI_Runtime/Npu/ll_aton/ll_sw_float.c ****                         SHAPE_INIT(sw_info->general.output.dim.tensor_h, sw_info->general.output.di
1284:../../Middlewares/AI_Runtime/Npu/ll_aton/ll_sw_float.c ****                                    sw_info->general.output.dim.tensor_c, sw_info->general.output.di
1285:../../Middlewares/AI_Runtime/Npu/ll_aton/ll_sw_float.c ****                         STRIDE_INIT(sw_info->general.output.stride.h, sw_info->general.output.strid
1286:../../Middlewares/AI_Runtime/Npu/ll_aton/ll_sw_float.c ****                                     sw_info->general.output.stride.c, sw_info->general.output.strid
1287:../../Middlewares/AI_Runtime/Npu/ll_aton/ll_sw_float.c ****                         1, &lpNormm_output_array, NULL)
1288:../../Middlewares/AI_Runtime/Npu/ll_aton/ll_sw_float.c **** 
1289:../../Middlewares/AI_Runtime/Npu/ll_aton/ll_sw_float.c ****   // tensor chain initialization
1290:../../Middlewares/AI_Runtime/Npu/ll_aton/ll_sw_float.c ****   AI_TENSOR_CHAIN_OBJ_DECLARE(lpNormm_chain, , 4, AI_TENSOR_LIST_OBJ_INIT(AI_FLAG_NONE, 1, TENSORS(
 5071              		.loc 1 1290 3 view .LVU1316
 5072 007e 1EAA     		add	r2, sp, #120
1282:../../Middlewares/AI_Runtime/Npu/ll_aton/ll_sw_float.c ****                         SHAPE_INIT(sw_info->general.output.dim.tensor_h, sw_info->general.output.di
 5073              		.loc 1 1282 3 view .LVU1317
 5074 0080 1B93     		str	r3, [sp, #108]
 5075 0082 A36C     		ldr	r3, [r4, #72]
1276:../../Middlewares/AI_Runtime/Npu/ll_aton/ll_sw_float.c ****                         SHAPE_INIT(sw_info->general.input.dim.tensor_h, sw_info->general.input.dim.
 5076              		.loc 1 1276 3 view .LVU1318
 5077 0084 06AD     		add	r5, sp, #24
1282:../../Middlewares/AI_Runtime/Npu/ll_aton/ll_sw_float.c ****                         SHAPE_INIT(sw_info->general.output.dim.tensor_h, sw_info->general.output.di
 5078              		.loc 1 1282 3 view .LVU1319
 5079 0086 1C93     		str	r3, [sp, #112]
 5080 0088 636C     		ldr	r3, [r4, #68]
 5081 008a CDE92451 		strd	r5, r1, [sp, #144]
 5082 008e 1D93     		str	r3, [sp, #116]
 5083 0090 1AAB     		add	r3, sp, #104
 5084 0092 2A93     		str	r3, [sp, #168]
 5085 0094 0AAB     		add	r3, sp, #40
 5086 0096 2B93     		str	r3, [sp, #172]
 5087              		.loc 1 1290 3 is_stmt 1 view .LVU1320
 5088 0098 0423     		movs	r3, #4
 5089 009a 0493     		str	r3, [sp, #16]
ARM GAS  C:\Users\Antonio\AppData\Local\Temp\cc6EBOZH.s 			page 132


 5090 009c 0123     		movs	r3, #1
 5091 009e 0092     		str	r2, [sp]
 5092 00a0 3693     		str	r3, [sp, #216]
 5093 00a2 CDF8DCD0 		str	sp, [sp, #220]
 5094 00a6 CDE93813 		strd	r1, r3, [sp, #224]
 5095 00aa 01AB     		add	r3, sp, #4
 5096 00ac CDE93A31 		strd	r3, r1, [sp, #232]
 5097 00b0 02AB     		add	r3, sp, #8
 5098 00b2 CDE93D31 		strd	r3, r1, [sp, #244]
 5099 00b6 03AB     		add	r3, sp, #12
 5100 00b8 CDE94031 		strd	r3, r1, [sp, #256]
 5101 00bc 36AB     		add	r3, sp, #216
 5102 00be 25AA     		add	r2, sp, #148
 5103 00c0 0593     		str	r3, [sp, #20]
1291:../../Middlewares/AI_Runtime/Npu/ll_aton/ll_sw_float.c ****                               AI_TENSOR_LIST_OBJ_INIT(AI_FLAG_NONE, 1, TENSORS(&lpNormm_output)),
1292:../../Middlewares/AI_Runtime/Npu/ll_aton/ll_sw_float.c ****                               AI_TENSOR_LIST_OBJ_EMPTY, AI_TENSOR_LIST_OBJ_EMPTY, )
1293:../../Middlewares/AI_Runtime/Npu/ll_aton/ll_sw_float.c **** 
1294:../../Middlewares/AI_Runtime/Npu/ll_aton/ll_sw_float.c ****   // layer initialization
1295:../../Middlewares/AI_Runtime/Npu/ll_aton/ll_sw_float.c ****   AI_LAYER_OBJ_DECLARE(lpNormm_layer, 1, NORM_TYPE, 0x0, NULL, norm, forward_norm, &lpNormm_chain, 
 5104              		.loc 1 1295 3 view .LVU1321
 5105 00c2 134B     		ldr	r3, .L138+4
1290:../../Middlewares/AI_Runtime/Npu/ll_aton/ll_sw_float.c ****                               AI_TENSOR_LIST_OBJ_INIT(AI_FLAG_NONE, 1, TENSORS(&lpNormm_output)),
 5106              		.loc 1 1290 3 is_stmt 0 view .LVU1322
 5107 00c4 0192     		str	r2, [sp, #4]
 5108              		.loc 1 1295 3 view .LVU1323
 5109 00c6 2DA8     		add	r0, sp, #180
 5110 00c8 2422     		movs	r2, #36
1290:../../Middlewares/AI_Runtime/Npu/ll_aton/ll_sw_float.c ****                               AI_TENSOR_LIST_OBJ_INIT(AI_FLAG_NONE, 1, TENSORS(&lpNormm_output)),
 5111              		.loc 1 1290 3 view .LVU1324
 5112 00ca 3C91     		str	r1, [sp, #240]
 5113 00cc 0291     		str	r1, [sp, #8]
 5114 00ce 3F91     		str	r1, [sp, #252]
 5115 00d0 0391     		str	r1, [sp, #12]
 5116              		.loc 1 1295 3 view .LVU1325
 5117 00d2 2C93     		str	r3, [sp, #176]
 5118 00d4 FFF7FEFF 		bl	memset
 5119              	.LVL212:
 5120              		.loc 1 1295 3 discriminator 1 view .LVU1326
 5121 00d8 D4ED187A 		vldr.32	s15, [r4, #96]	@ int
 5122              		.loc 1 1295 3 view .LVU1327
 5123 00dc 0D4B     		ldr	r3, .L138+8
 5124              		.loc 1 1295 3 discriminator 1 view .LVU1328
 5125 00de F8EEE77A 		vcvt.f32.s32	s15, s15
 5126              		.loc 1 1295 3 view .LVU1329
 5127 00e2 3193     		str	r3, [sp, #196]
 5128 00e4 04AB     		add	r3, sp, #16
 5129 00e6 3293     		str	r3, [sp, #200]
 5130              	.LVL213:
 5131              	.LBB85:
 5132              	.LBI85:
  47:../../Middlewares/AI_Runtime/Npu/ll_aton/ll_sw_float.c **** {
 5133              		.loc 1 47 12 is_stmt 1 view .LVU1330
  49:../../Middlewares/AI_Runtime/Npu/ll_aton/ll_sw_float.c ****   {
 5134              		.loc 1 49 3 view .LVU1331
 5135 00e8 E36D     		ldr	r3, [r4, #92]
 5136              	.LBE85:
1296:../../Middlewares/AI_Runtime/Npu/ll_aton/ll_sw_float.c ****                        .axis = helper_emit_shape_index_axis(sw_info->axis), .exponent = sw_info->p,
ARM GAS  C:\Users\Antonio\AppData\Local\Temp\cc6EBOZH.s 			page 133


1297:../../Middlewares/AI_Runtime/Npu/ll_aton/ll_sw_float.c ****   lpNormm_layer.forward(AI_LAYER_OBJ(&lpNormm_layer));
 5137              		.loc 1 1297 3 is_stmt 0 view .LVU1332
 5138 00ea 2CA8     		add	r0, sp, #176
 5139 00ec 032B     		cmp	r3, #3
1295:../../Middlewares/AI_Runtime/Npu/ll_aton/ll_sw_float.c ****                        .axis = helper_emit_shape_index_axis(sw_info->axis), .exponent = sw_info->p,
 5140              		.loc 1 1295 3 view .LVU1333
 5141 00ee 8CBF     		ite	hi
 5142 00f0 4FF0FF33 		movhi	r3, #-1
 5143              	.LVL214:
1295:../../Middlewares/AI_Runtime/Npu/ll_aton/ll_sw_float.c ****                        .axis = helper_emit_shape_index_axis(sw_info->axis), .exponent = sw_info->p,
 5144              		.loc 1 1295 3 view .LVU1334
 5145 00f4 084A     		ldrls	r2, .L138+12
1295:../../Middlewares/AI_Runtime/Npu/ll_aton/ll_sw_float.c ****                        .axis = helper_emit_shape_index_axis(sw_info->axis), .exponent = sw_info->p,
 5146              		.loc 1 1295 3 discriminator 1 view .LVU1335
 5147 00f6 CDED347A 		vstr.32	s15, [sp, #208]
 5148              		.loc 1 1297 3 is_stmt 1 view .LVU1336
 5149 00fa 98BF     		it	ls
 5150 00fc D356     		ldrsbls	r3, [r2, r3]
1295:../../Middlewares/AI_Runtime/Npu/ll_aton/ll_sw_float.c ****                        .axis = helper_emit_shape_index_axis(sw_info->axis), .exponent = sw_info->p,
 5151              		.loc 1 1295 3 is_stmt 0 discriminator 1 view .LVU1337
 5152 00fe 8DF8CC30 		strb	r3, [sp, #204]
 5153              		.loc 1 1297 3 view .LVU1338
 5154 0102 FFF7FEFF 		bl	forward_norm
 5155              	.LVL215:
1298:../../Middlewares/AI_Runtime/Npu/ll_aton/ll_sw_float.c **** }
 5156              		.loc 1 1298 1 view .LVU1339
 5157 0106 43B0     		add	sp, sp, #268
 5158              		.cfi_def_cfa_offset 12
 5159              		@ sp needed
 5160 0108 30BD     		pop	{r4, r5, pc}
 5161              	.LVL216:
 5162              	.L139:
 5163              		.loc 1 1298 1 view .LVU1340
 5164 010a 00BF     		.align	2
 5165              	.L138:
 5166 010c 40108200 		.word	8523840
 5167 0110 08010100 		.word	65800
 5168 0114 00000000 		.word	forward_norm
 5169 0118 00000000 		.word	CSWTCH.4
 5170              		.cfi_endproc
 5171              	.LFE30:
 5173              		.section	.text.ll_sw_forward_sign,"ax",%progbits
 5174              		.align	1
 5175              		.global	ll_sw_forward_sign
 5176              		.syntax unified
 5177              		.thumb
 5178              		.thumb_func
 5180              	ll_sw_forward_sign:
 5181              	.LVL217:
 5182              	.LFB31:
1299:../../Middlewares/AI_Runtime/Npu/ll_aton/ll_sw_float.c **** 
1300:../../Middlewares/AI_Runtime/Npu/ll_aton/ll_sw_float.c **** //##########################################################################################
1301:../../Middlewares/AI_Runtime/Npu/ll_aton/ll_sw_float.c **** /** Sign forward function  */
1302:../../Middlewares/AI_Runtime/Npu/ll_aton/ll_sw_float.c **** void ll_sw_forward_sign(/* int processor, */ void *sw_info_struct)
1303:../../Middlewares/AI_Runtime/Npu/ll_aton/ll_sw_float.c **** {
 5183              		.loc 1 1303 1 is_stmt 1 view -0
 5184              		.cfi_startproc
ARM GAS  C:\Users\Antonio\AppData\Local\Temp\cc6EBOZH.s 			page 134


 5185              		@ args = 0, pretend = 0, frame = 256
 5186              		@ frame_needed = 0, uses_anonymous_args = 0
1304:../../Middlewares/AI_Runtime/Npu/ll_aton/ll_sw_float.c ****   Sign_sw_info *sw_info = (Sign_sw_info *)sw_info_struct;
 5187              		.loc 1 1304 3 view .LVU1342
1305:../../Middlewares/AI_Runtime/Npu/ll_aton/ll_sw_float.c **** 
1306:../../Middlewares/AI_Runtime/Npu/ll_aton/ll_sw_float.c ****   AI_ARRAY_OBJ_DECLARE(input_output_array, FORMAT, sw_info->general.input.mem.start_offset,
 5188              		.loc 1 1306 3 view .LVU1343
1303:../../Middlewares/AI_Runtime/Npu/ll_aton/ll_sw_float.c ****   Sign_sw_info *sw_info = (Sign_sw_info *)sw_info_struct;
 5189              		.loc 1 1303 1 is_stmt 0 view .LVU1344
 5190 0000 30B5     		push	{r4, r5, lr}
 5191              		.cfi_def_cfa_offset 12
 5192              		.cfi_offset 4, -12
 5193              		.cfi_offset 5, -8
 5194              		.cfi_offset 14, -4
 5195              		.loc 1 1306 3 view .LVU1345
 5196 0002 394B     		ldr	r3, .L141
1303:../../Middlewares/AI_Runtime/Npu/ll_aton/ll_sw_float.c ****   Sign_sw_info *sw_info = (Sign_sw_info *)sw_info_struct;
 5197              		.loc 1 1303 1 view .LVU1346
 5198 0004 C1B0     		sub	sp, sp, #260
 5199              		.cfi_def_cfa_offset 272
 5200              		.loc 1 1306 3 view .LVU1347
 5201 0006 0693     		str	r3, [sp, #24]
1307:../../Middlewares/AI_Runtime/Npu/ll_aton/ll_sw_float.c ****                        sw_info->general.input.mem.start_offset, sw_info->general.input.dim.num_elem
1308:../../Middlewares/AI_Runtime/Npu/ll_aton/ll_sw_float.c ****   AI_ARRAY_OBJ_DECLARE(sign_output_array, FORMAT, sw_info->general.output.mem.start_offset,
 5202              		.loc 1 1308 3 view .LVU1348
 5203 0008 0A93     		str	r3, [sp, #40]
 5204 000a 036C     		ldr	r3, [r0, #64]
1306:../../Middlewares/AI_Runtime/Npu/ll_aton/ll_sw_float.c ****                        sw_info->general.input.mem.start_offset, sw_info->general.input.dim.num_elem
 5205              		.loc 1 1306 3 view .LVU1349
 5206 000c 4269     		ldr	r2, [r0, #20]
 5207              		.loc 1 1308 3 view .LVU1350
 5208 000e 0B93     		str	r3, [sp, #44]
 5209 0010 436D     		ldr	r3, [r0, #84]
1306:../../Middlewares/AI_Runtime/Npu/ll_aton/ll_sw_float.c ****                        sw_info->general.input.mem.start_offset, sw_info->general.input.dim.num_elem
 5210              		.loc 1 1306 3 view .LVU1351
 5211 0012 0792     		str	r2, [sp, #28]
 5212              		.loc 1 1308 3 view .LVU1352
 5213 0014 CDE90C33 		strd	r3, r3, [sp, #48]
1309:../../Middlewares/AI_Runtime/Npu/ll_aton/ll_sw_float.c ****                        sw_info->general.output.mem.start_offset, sw_info->general.output.dim.num_el
1310:../../Middlewares/AI_Runtime/Npu/ll_aton/ll_sw_float.c **** 
1311:../../Middlewares/AI_Runtime/Npu/ll_aton/ll_sw_float.c ****   // tensors init
1312:../../Middlewares/AI_Runtime/Npu/ll_aton/ll_sw_float.c ****   AI_TENSOR_OBJ_DECLARE(input_output, , 0x0, 4,
 5214              		.loc 1 1312 3 view .LVU1353
 5215 0018 0369     		ldr	r3, [r0, #16]
1306:../../Middlewares/AI_Runtime/Npu/ll_aton/ll_sw_float.c ****                        sw_info->general.input.mem.start_offset, sw_info->general.input.dim.num_elem
 5216              		.loc 1 1306 3 view .LVU1354
 5217 001a 826A     		ldr	r2, [r0, #40]
 5218              		.loc 1 1312 3 view .LVU1355
 5219 001c 0E93     		str	r3, [sp, #56]
 5220 001e C368     		ldr	r3, [r0, #12]
 5221 0020 0021     		movs	r1, #0
 5222 0022 0F93     		str	r3, [sp, #60]
 5223 0024 8368     		ldr	r3, [r0, #8]
 5224 0026 4FF08274 		mov	r4, #17039360
 5225 002a 1093     		str	r3, [sp, #64]
 5226 002c 4368     		ldr	r3, [r0, #4]
1306:../../Middlewares/AI_Runtime/Npu/ll_aton/ll_sw_float.c ****                        sw_info->general.input.mem.start_offset, sw_info->general.input.dim.num_elem
ARM GAS  C:\Users\Antonio\AppData\Local\Temp\cc6EBOZH.s 			page 135


 5227              		.loc 1 1306 3 view .LVU1356
 5228 002e CDE90822 		strd	r2, r2, [sp, #32]
1308:../../Middlewares/AI_Runtime/Npu/ll_aton/ll_sw_float.c ****                        sw_info->general.output.mem.start_offset, sw_info->general.output.dim.num_el
 5229              		.loc 1 1308 3 is_stmt 1 view .LVU1357
 5230              		.loc 1 1312 3 view .LVU1358
 5231 0032 1193     		str	r3, [sp, #68]
 5232 0034 0EAB     		add	r3, sp, #56
 5233 0036 40F20142 		movw	r2, #1025
 5234 003a 2193     		str	r3, [sp, #132]
 5235 003c 40F20243 		movw	r3, #1026
 5236 0040 456A     		ldr	r5, [r0, #36]
 5237 0042 CDE91E14 		strd	r1, r4, [sp, #120]
 5238 0046 1295     		str	r5, [sp, #72]
 5239 0048 056A     		ldr	r5, [r0, #32]
 5240 004a 2092     		str	r2, [sp, #128]
 5241 004c 2293     		str	r3, [sp, #136]
 5242 004e 1395     		str	r5, [sp, #76]
 5243 0050 C569     		ldr	r5, [r0, #28]
1313:../../Middlewares/AI_Runtime/Npu/ll_aton/ll_sw_float.c ****                         SHAPE_INIT(sw_info->general.input.dim.tensor_h, sw_info->general.input.dim.
1314:../../Middlewares/AI_Runtime/Npu/ll_aton/ll_sw_float.c ****                                    sw_info->general.input.dim.tensor_c, sw_info->general.input.dim.
1315:../../Middlewares/AI_Runtime/Npu/ll_aton/ll_sw_float.c ****                         STRIDE_INIT(sw_info->general.input.stride.h, sw_info->general.input.stride.
1316:../../Middlewares/AI_Runtime/Npu/ll_aton/ll_sw_float.c ****                                     sw_info->general.input.stride.c, sw_info->general.input.stride.
1317:../../Middlewares/AI_Runtime/Npu/ll_aton/ll_sw_float.c ****                         1, &input_output_array, NULL)
1318:../../Middlewares/AI_Runtime/Npu/ll_aton/ll_sw_float.c ****   AI_TENSOR_OBJ_DECLARE(sign_output, , 0x0, 4,
 5244              		.loc 1 1318 3 is_stmt 0 view .LVU1359
 5245 0052 CDE92642 		strd	r4, r2, [sp, #152]
 5246 0056 C26B     		ldr	r2, [r0, #60]
1312:../../Middlewares/AI_Runtime/Npu/ll_aton/ll_sw_float.c ****                         SHAPE_INIT(sw_info->general.input.dim.tensor_h, sw_info->general.input.dim.
 5247              		.loc 1 1312 3 view .LVU1360
 5248 0058 1495     		str	r5, [sp, #80]
 5249              		.loc 1 1318 3 view .LVU1361
 5250 005a 1692     		str	r2, [sp, #88]
 5251 005c 826B     		ldr	r2, [r0, #56]
1312:../../Middlewares/AI_Runtime/Npu/ll_aton/ll_sw_float.c ****                         SHAPE_INIT(sw_info->general.input.dim.tensor_h, sw_info->general.input.dim.
 5252              		.loc 1 1312 3 view .LVU1362
 5253 005e 8569     		ldr	r5, [r0, #24]
 5254              		.loc 1 1318 3 view .LVU1363
 5255 0060 1792     		str	r2, [sp, #92]
 5256 0062 426B     		ldr	r2, [r0, #52]
1312:../../Middlewares/AI_Runtime/Npu/ll_aton/ll_sw_float.c ****                         SHAPE_INIT(sw_info->general.input.dim.tensor_h, sw_info->general.input.dim.
 5257              		.loc 1 1312 3 view .LVU1364
 5258 0064 1595     		str	r5, [sp, #84]
 5259              		.loc 1 1318 3 view .LVU1365
 5260 0066 1892     		str	r2, [sp, #96]
 5261 0068 026B     		ldr	r2, [r0, #48]
1312:../../Middlewares/AI_Runtime/Npu/ll_aton/ll_sw_float.c ****                         SHAPE_INIT(sw_info->general.input.dim.tensor_h, sw_info->general.input.dim.
 5262              		.loc 1 1312 3 view .LVU1366
 5263 006a 12AD     		add	r5, sp, #72
 5264              		.loc 1 1318 3 view .LVU1367
 5265 006c 1992     		str	r2, [sp, #100]
 5266 006e 16AA     		add	r2, sp, #88
 5267 0070 CDE92823 		strd	r2, r3, [sp, #160]
 5268 0074 036D     		ldr	r3, [r0, #80]
1312:../../Middlewares/AI_Runtime/Npu/ll_aton/ll_sw_float.c ****                         SHAPE_INIT(sw_info->general.input.dim.tensor_h, sw_info->general.input.dim.
 5269              		.loc 1 1312 3 view .LVU1368
 5270 0076 2395     		str	r5, [sp, #140]
 5271              		.loc 1 1318 3 view .LVU1369
ARM GAS  C:\Users\Antonio\AppData\Local\Temp\cc6EBOZH.s 			page 136


 5272 0078 1A93     		str	r3, [sp, #104]
 5273 007a C36C     		ldr	r3, [r0, #76]
1319:../../Middlewares/AI_Runtime/Npu/ll_aton/ll_sw_float.c ****                         SHAPE_INIT(sw_info->general.output.dim.tensor_h, sw_info->general.output.di
1320:../../Middlewares/AI_Runtime/Npu/ll_aton/ll_sw_float.c ****                                    sw_info->general.output.dim.tensor_c, sw_info->general.output.di
1321:../../Middlewares/AI_Runtime/Npu/ll_aton/ll_sw_float.c ****                         STRIDE_INIT(sw_info->general.output.stride.h, sw_info->general.output.strid
1322:../../Middlewares/AI_Runtime/Npu/ll_aton/ll_sw_float.c ****                                     sw_info->general.output.stride.c, sw_info->general.output.strid
1323:../../Middlewares/AI_Runtime/Npu/ll_aton/ll_sw_float.c ****                         1, &sign_output_array, NULL)
1324:../../Middlewares/AI_Runtime/Npu/ll_aton/ll_sw_float.c **** 
1325:../../Middlewares/AI_Runtime/Npu/ll_aton/ll_sw_float.c ****   // tensor chain initialization
1326:../../Middlewares/AI_Runtime/Npu/ll_aton/ll_sw_float.c ****   AI_TENSOR_CHAIN_OBJ_DECLARE(sign_chain, , 4, AI_TENSOR_LIST_OBJ_INIT(AI_FLAG_NONE, 1, TENSORS(&in
 5274              		.loc 1 1326 3 view .LVU1370
 5275 007c 1EAA     		add	r2, sp, #120
1318:../../Middlewares/AI_Runtime/Npu/ll_aton/ll_sw_float.c ****                         SHAPE_INIT(sw_info->general.output.dim.tensor_h, sw_info->general.output.di
 5276              		.loc 1 1318 3 view .LVU1371
 5277 007e 1B93     		str	r3, [sp, #108]
 5278 0080 836C     		ldr	r3, [r0, #72]
1312:../../Middlewares/AI_Runtime/Npu/ll_aton/ll_sw_float.c ****                         SHAPE_INIT(sw_info->general.input.dim.tensor_h, sw_info->general.input.dim.
 5279              		.loc 1 1312 3 view .LVU1372
 5280 0082 06AD     		add	r5, sp, #24
1318:../../Middlewares/AI_Runtime/Npu/ll_aton/ll_sw_float.c ****                         SHAPE_INIT(sw_info->general.output.dim.tensor_h, sw_info->general.output.di
 5281              		.loc 1 1318 3 view .LVU1373
 5282 0084 1C93     		str	r3, [sp, #112]
 5283 0086 436C     		ldr	r3, [r0, #68]
 5284 0088 CDE92451 		strd	r5, r1, [sp, #144]
 5285 008c 1D93     		str	r3, [sp, #116]
 5286 008e 1AAB     		add	r3, sp, #104
 5287 0090 2A93     		str	r3, [sp, #168]
 5288 0092 0AAB     		add	r3, sp, #40
 5289 0094 2B93     		str	r3, [sp, #172]
 5290              		.loc 1 1326 3 is_stmt 1 view .LVU1374
 5291 0096 0423     		movs	r3, #4
 5292 0098 0493     		str	r3, [sp, #16]
 5293 009a 0123     		movs	r3, #1
 5294 009c 0092     		str	r2, [sp]
 5295 009e 3493     		str	r3, [sp, #208]
 5296 00a0 CDF8D4D0 		str	sp, [sp, #212]
 5297 00a4 CDE93613 		strd	r1, r3, [sp, #216]
 5298 00a8 25AB     		add	r3, sp, #148
 5299 00aa 0193     		str	r3, [sp, #4]
 5300 00ac 01AB     		add	r3, sp, #4
 5301 00ae CDE93831 		strd	r3, r1, [sp, #224]
 5302 00b2 02AB     		add	r3, sp, #8
 5303 00b4 CDE93B31 		strd	r3, r1, [sp, #236]
 5304 00b8 03AB     		add	r3, sp, #12
 5305 00ba CDE93E31 		strd	r3, r1, [sp, #248]
 5306 00be 34AB     		add	r3, sp, #208
 5307 00c0 0593     		str	r3, [sp, #20]
1327:../../Middlewares/AI_Runtime/Npu/ll_aton/ll_sw_float.c ****                               AI_TENSOR_LIST_OBJ_INIT(AI_FLAG_NONE, 1, TENSORS(&sign_output)), AI_T
1328:../../Middlewares/AI_Runtime/Npu/ll_aton/ll_sw_float.c ****                               AI_TENSOR_LIST_OBJ_EMPTY, )
1329:../../Middlewares/AI_Runtime/Npu/ll_aton/ll_sw_float.c **** 
1330:../../Middlewares/AI_Runtime/Npu/ll_aton/ll_sw_float.c ****   // layer initialization
1331:../../Middlewares/AI_Runtime/Npu/ll_aton/ll_sw_float.c ****   AI_LAYER_OBJ_DECLARE(sign_layer, 1, NL_TYPE, 0x0, NULL, nl, forward_sign, &sign_chain, NULL, NULL
 5308              		.loc 1 1331 3 view .LVU1375
 5309 00c2 0A4B     		ldr	r3, .L141+4
 5310 00c4 1C22     		movs	r2, #28
 5311 00c6 2DA8     		add	r0, sp, #180
 5312              	.LVL218:
ARM GAS  C:\Users\Antonio\AppData\Local\Temp\cc6EBOZH.s 			page 137


1326:../../Middlewares/AI_Runtime/Npu/ll_aton/ll_sw_float.c ****                               AI_TENSOR_LIST_OBJ_INIT(AI_FLAG_NONE, 1, TENSORS(&sign_output)), AI_T
 5313              		.loc 1 1326 3 is_stmt 0 view .LVU1376
 5314 00c8 3A91     		str	r1, [sp, #232]
 5315 00ca 0291     		str	r1, [sp, #8]
 5316 00cc 3D91     		str	r1, [sp, #244]
 5317 00ce 0391     		str	r1, [sp, #12]
 5318              		.loc 1 1331 3 view .LVU1377
 5319 00d0 2C93     		str	r3, [sp, #176]
 5320 00d2 FFF7FEFF 		bl	memset
 5321              	.LVL219:
 5322 00d6 064B     		ldr	r3, .L141+8
1332:../../Middlewares/AI_Runtime/Npu/ll_aton/ll_sw_float.c ****   sign_layer.forward(AI_LAYER_OBJ(&sign_layer));
 5323              		.loc 1 1332 3 view .LVU1378
 5324 00d8 2CA8     		add	r0, sp, #176
1331:../../Middlewares/AI_Runtime/Npu/ll_aton/ll_sw_float.c ****   sign_layer.forward(AI_LAYER_OBJ(&sign_layer));
 5325              		.loc 1 1331 3 view .LVU1379
 5326 00da 3193     		str	r3, [sp, #196]
 5327 00dc 04AB     		add	r3, sp, #16
 5328 00de 3293     		str	r3, [sp, #200]
 5329              		.loc 1 1332 3 is_stmt 1 view .LVU1380
 5330 00e0 FFF7FEFF 		bl	forward_sign
 5331              	.LVL220:
1333:../../Middlewares/AI_Runtime/Npu/ll_aton/ll_sw_float.c **** }
 5332              		.loc 1 1333 1 is_stmt 0 view .LVU1381
 5333 00e4 41B0     		add	sp, sp, #260
 5334              		.cfi_def_cfa_offset 12
 5335              		@ sp needed
 5336 00e6 30BD     		pop	{r4, r5, pc}
 5337              	.L142:
 5338              		.align	2
 5339              	.L141:
 5340 00e8 40108200 		.word	8523840
 5341 00ec 07010100 		.word	65799
 5342 00f0 00000000 		.word	forward_sign
 5343              		.cfi_endproc
 5344              	.LFE31:
 5346              		.section	.text.ll_sw_forward_lrn,"ax",%progbits
 5347              		.align	1
 5348              		.global	ll_sw_forward_lrn
 5349              		.syntax unified
 5350              		.thumb
 5351              		.thumb_func
 5353              	ll_sw_forward_lrn:
 5354              	.LVL221:
 5355              	.LFB32:
1334:../../Middlewares/AI_Runtime/Npu/ll_aton/ll_sw_float.c **** 
1335:../../Middlewares/AI_Runtime/Npu/ll_aton/ll_sw_float.c **** //##########################################################################################
1336:../../Middlewares/AI_Runtime/Npu/ll_aton/ll_sw_float.c **** /** LRN Local Response Normalization forward function  */
1337:../../Middlewares/AI_Runtime/Npu/ll_aton/ll_sw_float.c **** void ll_sw_forward_lrn(/* int processor, */ void *sw_info_struct)
1338:../../Middlewares/AI_Runtime/Npu/ll_aton/ll_sw_float.c **** {
 5356              		.loc 1 1338 1 is_stmt 1 view -0
 5357              		.cfi_startproc
 5358              		@ args = 0, pretend = 0, frame = 272
 5359              		@ frame_needed = 0, uses_anonymous_args = 0
1339:../../Middlewares/AI_Runtime/Npu/ll_aton/ll_sw_float.c ****   Lrn_sw_info *sw_info = (Lrn_sw_info *)sw_info_struct;
 5360              		.loc 1 1339 3 view .LVU1383
1340:../../Middlewares/AI_Runtime/Npu/ll_aton/ll_sw_float.c **** 
ARM GAS  C:\Users\Antonio\AppData\Local\Temp\cc6EBOZH.s 			page 138


1341:../../Middlewares/AI_Runtime/Npu/ll_aton/ll_sw_float.c ****   AI_ARRAY_OBJ_DECLARE(input_output_array, FORMAT, sw_info->general.input.mem.start_offset,
 5361              		.loc 1 1341 3 view .LVU1384
1338:../../Middlewares/AI_Runtime/Npu/ll_aton/ll_sw_float.c ****   Lrn_sw_info *sw_info = (Lrn_sw_info *)sw_info_struct;
 5362              		.loc 1 1338 1 is_stmt 0 view .LVU1385
 5363 0000 30B5     		push	{r4, r5, lr}
 5364              		.cfi_def_cfa_offset 12
 5365              		.cfi_offset 4, -12
 5366              		.cfi_offset 5, -8
 5367              		.cfi_offset 14, -4
 5368              		.loc 1 1341 3 view .LVU1386
 5369 0002 4269     		ldr	r2, [r0, #20]
1338:../../Middlewares/AI_Runtime/Npu/ll_aton/ll_sw_float.c ****   Lrn_sw_info *sw_info = (Lrn_sw_info *)sw_info_struct;
 5370              		.loc 1 1338 1 view .LVU1387
 5371 0004 C5B0     		sub	sp, sp, #276
 5372              		.cfi_def_cfa_offset 288
 5373              		.loc 1 1341 3 view .LVU1388
 5374 0006 0892     		str	r2, [sp, #32]
 5375 0008 826A     		ldr	r2, [r0, #40]
 5376 000a 3B4B     		ldr	r3, .L144
 5377 000c CDE90922 		strd	r2, r2, [sp, #36]
1342:../../Middlewares/AI_Runtime/Npu/ll_aton/ll_sw_float.c ****                        sw_info->general.input.mem.start_offset, sw_info->general.input.dim.num_elem
1343:../../Middlewares/AI_Runtime/Npu/ll_aton/ll_sw_float.c ****   AI_ARRAY_OBJ_DECLARE(LRN_output_array, FORMAT, sw_info->general.output.mem.start_offset,
 5378              		.loc 1 1343 3 is_stmt 1 view .LVU1389
1344:../../Middlewares/AI_Runtime/Npu/ll_aton/ll_sw_float.c ****                        sw_info->general.output.mem.start_offset, sw_info->general.output.dim.num_el
1345:../../Middlewares/AI_Runtime/Npu/ll_aton/ll_sw_float.c **** 
1346:../../Middlewares/AI_Runtime/Npu/ll_aton/ll_sw_float.c ****   // tensors init
1347:../../Middlewares/AI_Runtime/Npu/ll_aton/ll_sw_float.c ****   AI_TENSOR_OBJ_DECLARE(input_output, , 0x0, 4,
 5379              		.loc 1 1347 3 is_stmt 0 view .LVU1390
 5380 0010 0269     		ldr	r2, [r0, #16]
1341:../../Middlewares/AI_Runtime/Npu/ll_aton/ll_sw_float.c ****                        sw_info->general.input.mem.start_offset, sw_info->general.input.dim.num_elem
 5381              		.loc 1 1341 3 view .LVU1391
 5382 0012 0793     		str	r3, [sp, #28]
 5383              		.loc 1 1347 3 view .LVU1392
 5384 0014 0F92     		str	r2, [sp, #60]
 5385 0016 C268     		ldr	r2, [r0, #12]
1343:../../Middlewares/AI_Runtime/Npu/ll_aton/ll_sw_float.c ****                        sw_info->general.output.mem.start_offset, sw_info->general.output.dim.num_el
 5386              		.loc 1 1343 3 view .LVU1393
 5387 0018 0B93     		str	r3, [sp, #44]
 5388              		.loc 1 1347 3 view .LVU1394
 5389 001a 1092     		str	r2, [sp, #64]
 5390 001c 8268     		ldr	r2, [r0, #8]
1343:../../Middlewares/AI_Runtime/Npu/ll_aton/ll_sw_float.c ****                        sw_info->general.output.mem.start_offset, sw_info->general.output.dim.num_el
 5391              		.loc 1 1343 3 view .LVU1395
 5392 001e 036C     		ldr	r3, [r0, #64]
 5393              		.loc 1 1347 3 view .LVU1396
 5394 0020 1192     		str	r2, [sp, #68]
 5395 0022 4268     		ldr	r2, [r0, #4]
1343:../../Middlewares/AI_Runtime/Npu/ll_aton/ll_sw_float.c ****                        sw_info->general.output.mem.start_offset, sw_info->general.output.dim.num_el
 5396              		.loc 1 1343 3 view .LVU1397
 5397 0024 0C93     		str	r3, [sp, #48]
 5398 0026 436D     		ldr	r3, [r0, #84]
 5399              		.loc 1 1347 3 view .LVU1398
 5400 0028 1292     		str	r2, [sp, #72]
 5401 002a 0FAA     		add	r2, sp, #60
 5402 002c 4FF08274 		mov	r4, #17039360
 5403 0030 40F20141 		movw	r1, #1025
1343:../../Middlewares/AI_Runtime/Npu/ll_aton/ll_sw_float.c ****                        sw_info->general.output.mem.start_offset, sw_info->general.output.dim.num_el
ARM GAS  C:\Users\Antonio\AppData\Local\Temp\cc6EBOZH.s 			page 139


 5404              		.loc 1 1343 3 view .LVU1399
 5405 0034 CDE90D33 		strd	r3, r3, [sp, #52]
 5406              		.loc 1 1347 3 is_stmt 1 view .LVU1400
 5407 0038 2292     		str	r2, [sp, #136]
 5408 003a 0023     		movs	r3, #0
 5409 003c 40F20242 		movw	r2, #1026
 5410 0040 456A     		ldr	r5, [r0, #36]
 5411 0042 CDE91F34 		strd	r3, r4, [sp, #124]
 5412 0046 1395     		str	r5, [sp, #76]
 5413 0048 056A     		ldr	r5, [r0, #32]
 5414 004a 2191     		str	r1, [sp, #132]
 5415 004c 2392     		str	r2, [sp, #140]
 5416 004e 1495     		str	r5, [sp, #80]
 5417 0050 C569     		ldr	r5, [r0, #28]
1348:../../Middlewares/AI_Runtime/Npu/ll_aton/ll_sw_float.c ****                         SHAPE_INIT(sw_info->general.input.dim.tensor_h, sw_info->general.input.dim.
1349:../../Middlewares/AI_Runtime/Npu/ll_aton/ll_sw_float.c ****                                    sw_info->general.input.dim.tensor_c, sw_info->general.input.dim.
1350:../../Middlewares/AI_Runtime/Npu/ll_aton/ll_sw_float.c ****                         STRIDE_INIT(sw_info->general.input.stride.h, sw_info->general.input.stride.
1351:../../Middlewares/AI_Runtime/Npu/ll_aton/ll_sw_float.c ****                                     sw_info->general.input.stride.c, sw_info->general.input.stride.
1352:../../Middlewares/AI_Runtime/Npu/ll_aton/ll_sw_float.c ****                         1, &input_output_array, NULL)
1353:../../Middlewares/AI_Runtime/Npu/ll_aton/ll_sw_float.c ****   AI_TENSOR_OBJ_DECLARE(LRN_output, , 0x0, 4,
 5418              		.loc 1 1353 3 is_stmt 0 view .LVU1401
 5419 0052 CDE92741 		strd	r4, r1, [sp, #156]
 5420 0056 C16B     		ldr	r1, [r0, #60]
1347:../../Middlewares/AI_Runtime/Npu/ll_aton/ll_sw_float.c ****                         SHAPE_INIT(sw_info->general.input.dim.tensor_h, sw_info->general.input.dim.
 5421              		.loc 1 1347 3 view .LVU1402
 5422 0058 1595     		str	r5, [sp, #84]
 5423              		.loc 1 1353 3 view .LVU1403
 5424 005a 1791     		str	r1, [sp, #92]
 5425 005c 816B     		ldr	r1, [r0, #56]
1347:../../Middlewares/AI_Runtime/Npu/ll_aton/ll_sw_float.c ****                         SHAPE_INIT(sw_info->general.input.dim.tensor_h, sw_info->general.input.dim.
 5426              		.loc 1 1347 3 view .LVU1404
 5427 005e 8569     		ldr	r5, [r0, #24]
 5428              		.loc 1 1353 3 view .LVU1405
 5429 0060 1891     		str	r1, [sp, #96]
 5430 0062 416B     		ldr	r1, [r0, #52]
1347:../../Middlewares/AI_Runtime/Npu/ll_aton/ll_sw_float.c ****                         SHAPE_INIT(sw_info->general.input.dim.tensor_h, sw_info->general.input.dim.
 5431              		.loc 1 1347 3 view .LVU1406
 5432 0064 1695     		str	r5, [sp, #88]
 5433              		.loc 1 1353 3 view .LVU1407
 5434 0066 1991     		str	r1, [sp, #100]
 5435 0068 016B     		ldr	r1, [r0, #48]
1347:../../Middlewares/AI_Runtime/Npu/ll_aton/ll_sw_float.c ****                         SHAPE_INIT(sw_info->general.input.dim.tensor_h, sw_info->general.input.dim.
 5436              		.loc 1 1347 3 view .LVU1408
 5437 006a 13AD     		add	r5, sp, #76
 5438              		.loc 1 1353 3 view .LVU1409
 5439 006c 1A91     		str	r1, [sp, #104]
 5440 006e 17A9     		add	r1, sp, #92
 5441 0070 CDE92912 		strd	r1, r2, [sp, #164]
 5442 0074 026D     		ldr	r2, [r0, #80]
1347:../../Middlewares/AI_Runtime/Npu/ll_aton/ll_sw_float.c ****                         SHAPE_INIT(sw_info->general.input.dim.tensor_h, sw_info->general.input.dim.
 5443              		.loc 1 1347 3 view .LVU1410
 5444 0076 2495     		str	r5, [sp, #144]
 5445              		.loc 1 1353 3 view .LVU1411
 5446 0078 1B92     		str	r2, [sp, #108]
 5447 007a C26C     		ldr	r2, [r0, #76]
1354:../../Middlewares/AI_Runtime/Npu/ll_aton/ll_sw_float.c ****                         SHAPE_INIT(sw_info->general.output.dim.tensor_h, sw_info->general.output.di
1355:../../Middlewares/AI_Runtime/Npu/ll_aton/ll_sw_float.c ****                                    sw_info->general.output.dim.tensor_c, sw_info->general.output.di
ARM GAS  C:\Users\Antonio\AppData\Local\Temp\cc6EBOZH.s 			page 140


1356:../../Middlewares/AI_Runtime/Npu/ll_aton/ll_sw_float.c ****                         STRIDE_INIT(sw_info->general.output.stride.h, sw_info->general.output.strid
1357:../../Middlewares/AI_Runtime/Npu/ll_aton/ll_sw_float.c ****                                     sw_info->general.output.stride.c, sw_info->general.output.strid
1358:../../Middlewares/AI_Runtime/Npu/ll_aton/ll_sw_float.c ****                         1, &LRN_output_array, NULL)
1359:../../Middlewares/AI_Runtime/Npu/ll_aton/ll_sw_float.c **** 
1360:../../Middlewares/AI_Runtime/Npu/ll_aton/ll_sw_float.c ****   // tensor chains init
1361:../../Middlewares/AI_Runtime/Npu/ll_aton/ll_sw_float.c ****   AI_TENSOR_CHAIN_OBJ_DECLARE(LRN_chain, , 4, AI_TENSOR_LIST_OBJ_INIT(AI_FLAG_NONE, 1, TENSORS(&inp
 5448              		.loc 1 1361 3 view .LVU1412
 5449 007c 01A9     		add	r1, sp, #4
1353:../../Middlewares/AI_Runtime/Npu/ll_aton/ll_sw_float.c ****                         SHAPE_INIT(sw_info->general.output.dim.tensor_h, sw_info->general.output.di
 5450              		.loc 1 1353 3 view .LVU1413
 5451 007e 1C92     		str	r2, [sp, #112]
 5452 0080 826C     		ldr	r2, [r0, #72]
1347:../../Middlewares/AI_Runtime/Npu/ll_aton/ll_sw_float.c ****                         SHAPE_INIT(sw_info->general.input.dim.tensor_h, sw_info->general.input.dim.
 5453              		.loc 1 1347 3 view .LVU1414
 5454 0082 07AD     		add	r5, sp, #28
1353:../../Middlewares/AI_Runtime/Npu/ll_aton/ll_sw_float.c ****                         SHAPE_INIT(sw_info->general.output.dim.tensor_h, sw_info->general.output.di
 5455              		.loc 1 1353 3 view .LVU1415
 5456 0084 1D92     		str	r2, [sp, #116]
 5457 0086 426C     		ldr	r2, [r0, #68]
 5458              		.loc 1 1361 3 view .LVU1416
 5459 0088 1FAC     		add	r4, sp, #124
1353:../../Middlewares/AI_Runtime/Npu/ll_aton/ll_sw_float.c ****                         SHAPE_INIT(sw_info->general.output.dim.tensor_h, sw_info->general.output.di
 5460              		.loc 1 1353 3 view .LVU1417
 5461 008a 1E92     		str	r2, [sp, #120]
 5462 008c 1BAA     		add	r2, sp, #108
 5463 008e 2B92     		str	r2, [sp, #172]
 5464 0090 0BAA     		add	r2, sp, #44
 5465 0092 2C92     		str	r2, [sp, #176]
 5466              		.loc 1 1361 3 is_stmt 1 view .LVU1418
 5467 0094 0422     		movs	r2, #4
 5468 0096 0592     		str	r2, [sp, #20]
 5469 0098 0122     		movs	r2, #1
1353:../../Middlewares/AI_Runtime/Npu/ll_aton/ll_sw_float.c ****                         SHAPE_INIT(sw_info->general.output.dim.tensor_h, sw_info->general.output.di
 5470              		.loc 1 1353 3 is_stmt 0 view .LVU1419
 5471 009a CDE92553 		strd	r5, r3, [sp, #148]
 5472              		.loc 1 1361 3 view .LVU1420
 5473 009e 3892     		str	r2, [sp, #224]
 5474 00a0 0194     		str	r4, [sp, #4]
 5475 00a2 CDE93913 		strd	r1, r3, [sp, #228]
 5476 00a6 3B92     		str	r2, [sp, #236]
 5477 00a8 02AA     		add	r2, sp, #8
 5478 00aa CDE93C23 		strd	r2, r3, [sp, #240]
 5479 00ae 03AA     		add	r2, sp, #12
 5480 00b0 CDE93F23 		strd	r2, r3, [sp, #252]
 5481 00b4 04AA     		add	r2, sp, #16
 5482 00b6 CDE94223 		strd	r2, r3, [sp, #264]
 5483 00ba 38AA     		add	r2, sp, #224
 5484 00bc 0692     		str	r2, [sp, #24]
1362:../../Middlewares/AI_Runtime/Npu/ll_aton/ll_sw_float.c ****                               AI_TENSOR_LIST_OBJ_INIT(AI_FLAG_NONE, 1, TENSORS(&LRN_output)), AI_TE
1363:../../Middlewares/AI_Runtime/Npu/ll_aton/ll_sw_float.c ****                               AI_TENSOR_LIST_OBJ_EMPTY)
1364:../../Middlewares/AI_Runtime/Npu/ll_aton/ll_sw_float.c ****   // TODO//layer initialization
1365:../../Middlewares/AI_Runtime/Npu/ll_aton/ll_sw_float.c ****   AI_LAYER_OBJ_DECLARE(LRN_layer, 2, LRN_TYPE, 0x0, NULL, lrn, forward_lrn, &LRN_chain, NULL, NULL,
 5485              		.loc 1 1365 3 is_stmt 1 view .LVU1421
 5486 00be 0F4A     		ldr	r2, .L144+4
 5487 00c0 CDE92F33 		strd	r3, r3, [sp, #188]
 5488 00c4 CDE92D23 		strd	r2, r3, [sp, #180]
1361:../../Middlewares/AI_Runtime/Npu/ll_aton/ll_sw_float.c ****                               AI_TENSOR_LIST_OBJ_INIT(AI_FLAG_NONE, 1, TENSORS(&LRN_output)), AI_TE
ARM GAS  C:\Users\Antonio\AppData\Local\Temp\cc6EBOZH.s 			page 141


 5489              		.loc 1 1361 3 is_stmt 0 view .LVU1422
 5490 00c8 3E93     		str	r3, [sp, #248]
 5491 00ca 0393     		str	r3, [sp, #12]
 5492 00cc 4193     		str	r3, [sp, #260]
 5493 00ce 0493     		str	r3, [sp, #16]
 5494              		.loc 1 1365 3 view .LVU1423
 5495 00d0 3193     		str	r3, [sp, #196]
 5496 00d2 0B4B     		ldr	r3, .L144+8
1361:../../Middlewares/AI_Runtime/Npu/ll_aton/ll_sw_float.c ****                               AI_TENSOR_LIST_OBJ_INIT(AI_FLAG_NONE, 1, TENSORS(&LRN_output)), AI_TE
 5497              		.loc 1 1361 3 view .LVU1424
 5498 00d4 26A9     		add	r1, sp, #152
 5499              		.loc 1 1365 3 view .LVU1425
 5500 00d6 3293     		str	r3, [sp, #200]
 5501 00d8 05AB     		add	r3, sp, #20
 5502 00da 3393     		str	r3, [sp, #204]
 5503 00dc C36D     		ldr	r3, [r0, #92]
1361:../../Middlewares/AI_Runtime/Npu/ll_aton/ll_sw_float.c ****                               AI_TENSOR_LIST_OBJ_INIT(AI_FLAG_NONE, 1, TENSORS(&LRN_output)), AI_TE
 5504              		.loc 1 1361 3 view .LVU1426
 5505 00de 0291     		str	r1, [sp, #8]
 5506              		.loc 1 1365 3 view .LVU1427
 5507 00e0 3493     		str	r3, [sp, #208]
 5508 00e2 836E     		ldr	r3, [r0, #104]	@ float
 5509 00e4 3593     		str	r3, [sp, #212]	@ float
 5510 00e6 036E     		ldr	r3, [r0, #96]	@ float
 5511 00e8 3693     		str	r3, [sp, #216]	@ float
 5512 00ea 436E     		ldr	r3, [r0, #100]	@ float
1366:../../Middlewares/AI_Runtime/Npu/ll_aton/ll_sw_float.c ****                        .local_size = sw_info->size, .k = sw_info->bias, .alpha = sw_info->alpha, .b
1367:../../Middlewares/AI_Runtime/Npu/ll_aton/ll_sw_float.c **** 
1368:../../Middlewares/AI_Runtime/Npu/ll_aton/ll_sw_float.c ****   // LL_ATON_PRINTF("beta %f \n", sw_info->beta);
1369:../../Middlewares/AI_Runtime/Npu/ll_aton/ll_sw_float.c ****   // LL_ATON_PRINTF("bias %f \n", sw_info->bias);
1370:../../Middlewares/AI_Runtime/Npu/ll_aton/ll_sw_float.c ****   // LL_ATON_PRINTF("alpha %f \n", sw_info->alpha);
1371:../../Middlewares/AI_Runtime/Npu/ll_aton/ll_sw_float.c ****   // LL_ATON_PRINTF("local_size %d \n", sw_info->size);
1372:../../Middlewares/AI_Runtime/Npu/ll_aton/ll_sw_float.c **** 
1373:../../Middlewares/AI_Runtime/Npu/ll_aton/ll_sw_float.c ****   LRN_layer.forward(AI_LAYER_OBJ(&LRN_layer));
 5513              		.loc 1 1373 3 view .LVU1428
 5514 00ec 2DA8     		add	r0, sp, #180
 5515              	.LVL222:
1365:../../Middlewares/AI_Runtime/Npu/ll_aton/ll_sw_float.c ****                        .local_size = sw_info->size, .k = sw_info->bias, .alpha = sw_info->alpha, .b
 5516              		.loc 1 1365 3 view .LVU1429
 5517 00ee 3793     		str	r3, [sp, #220]	@ float
 5518              		.loc 1 1373 3 is_stmt 1 view .LVU1430
 5519 00f0 FFF7FEFF 		bl	forward_lrn
 5520              	.LVL223:
1374:../../Middlewares/AI_Runtime/Npu/ll_aton/ll_sw_float.c **** }
 5521              		.loc 1 1374 1 is_stmt 0 view .LVU1431
 5522 00f4 45B0     		add	sp, sp, #276
 5523              		.cfi_def_cfa_offset 12
 5524              		@ sp needed
 5525 00f6 30BD     		pop	{r4, r5, pc}
 5526              	.L145:
 5527              		.align	2
 5528              	.L144:
 5529 00f8 40108200 		.word	8523840
 5530 00fc 06010200 		.word	131334
 5531 0100 00000000 		.word	forward_lrn
 5532              		.cfi_endproc
 5533              	.LFE32:
ARM GAS  C:\Users\Antonio\AppData\Local\Temp\cc6EBOZH.s 			page 142


 5535              		.section	.text.ll_sw_forward_tile,"ax",%progbits
 5536              		.align	1
 5537              		.global	ll_sw_forward_tile
 5538              		.syntax unified
 5539              		.thumb
 5540              		.thumb_func
 5542              	ll_sw_forward_tile:
 5543              	.LVL224:
 5544              	.LFB33:
1375:../../Middlewares/AI_Runtime/Npu/ll_aton/ll_sw_float.c **** 
1376:../../Middlewares/AI_Runtime/Npu/ll_aton/ll_sw_float.c **** //##########################################################################################
1377:../../Middlewares/AI_Runtime/Npu/ll_aton/ll_sw_float.c **** /** Tile forward function  */
1378:../../Middlewares/AI_Runtime/Npu/ll_aton/ll_sw_float.c **** void ll_sw_forward_tile(/* int processor, */ void *sw_info_struct)
1379:../../Middlewares/AI_Runtime/Npu/ll_aton/ll_sw_float.c **** {
 5545              		.loc 1 1379 1 is_stmt 1 view -0
 5546              		.cfi_startproc
 5547              		@ args = 0, pretend = 0, frame = 288
 5548              		@ frame_needed = 0, uses_anonymous_args = 0
1380:../../Middlewares/AI_Runtime/Npu/ll_aton/ll_sw_float.c ****   Tile_sw_info *sw_info = (Tile_sw_info *)sw_info_struct;
 5549              		.loc 1 1380 3 view .LVU1433
1381:../../Middlewares/AI_Runtime/Npu/ll_aton/ll_sw_float.c **** 
1382:../../Middlewares/AI_Runtime/Npu/ll_aton/ll_sw_float.c ****   AI_ARRAY_OBJ_DECLARE(input_output_array, FORMAT, sw_info->general.input.mem.start_offset,
 5550              		.loc 1 1382 3 view .LVU1434
1379:../../Middlewares/AI_Runtime/Npu/ll_aton/ll_sw_float.c ****   Tile_sw_info *sw_info = (Tile_sw_info *)sw_info_struct;
 5551              		.loc 1 1379 1 is_stmt 0 view .LVU1435
 5552 0000 30B5     		push	{r4, r5, lr}
 5553              		.cfi_def_cfa_offset 12
 5554              		.cfi_offset 4, -12
 5555              		.cfi_offset 5, -8
 5556              		.cfi_offset 14, -4
 5557              		.loc 1 1382 3 view .LVU1436
 5558 0002 4269     		ldr	r2, [r0, #20]
1379:../../Middlewares/AI_Runtime/Npu/ll_aton/ll_sw_float.c ****   Tile_sw_info *sw_info = (Tile_sw_info *)sw_info_struct;
 5559              		.loc 1 1379 1 view .LVU1437
 5560 0004 C9B0     		sub	sp, sp, #292
 5561              		.cfi_def_cfa_offset 304
 5562              		.loc 1 1382 3 view .LVU1438
 5563 0006 0B92     		str	r2, [sp, #44]
 5564 0008 826A     		ldr	r2, [r0, #40]
 5565 000a 424B     		ldr	r3, .L147
 5566 000c CDE90C22 		strd	r2, r2, [sp, #48]
1383:../../Middlewares/AI_Runtime/Npu/ll_aton/ll_sw_float.c ****                        sw_info->general.input.mem.start_offset, sw_info->general.input.dim.num_elem
1384:../../Middlewares/AI_Runtime/Npu/ll_aton/ll_sw_float.c ****   AI_ARRAY_OBJ_DECLARE(tile_output_array, FORMAT, sw_info->general.output.mem.start_offset,
 5567              		.loc 1 1384 3 is_stmt 1 view .LVU1439
1385:../../Middlewares/AI_Runtime/Npu/ll_aton/ll_sw_float.c ****                        sw_info->general.output.mem.start_offset, sw_info->general.output.dim.num_el
1386:../../Middlewares/AI_Runtime/Npu/ll_aton/ll_sw_float.c **** 
1387:../../Middlewares/AI_Runtime/Npu/ll_aton/ll_sw_float.c ****   // tensors init
1388:../../Middlewares/AI_Runtime/Npu/ll_aton/ll_sw_float.c ****   AI_TENSOR_OBJ_DECLARE(input_output, , 0x0, 4,
 5568              		.loc 1 1388 3 is_stmt 0 view .LVU1440
 5569 0010 0269     		ldr	r2, [r0, #16]
1382:../../Middlewares/AI_Runtime/Npu/ll_aton/ll_sw_float.c ****                        sw_info->general.input.mem.start_offset, sw_info->general.input.dim.num_elem
 5570              		.loc 1 1382 3 view .LVU1441
 5571 0012 0A93     		str	r3, [sp, #40]
 5572              		.loc 1 1388 3 view .LVU1442
 5573 0014 1292     		str	r2, [sp, #72]
 5574 0016 C268     		ldr	r2, [r0, #12]
1384:../../Middlewares/AI_Runtime/Npu/ll_aton/ll_sw_float.c ****                        sw_info->general.output.mem.start_offset, sw_info->general.output.dim.num_el
ARM GAS  C:\Users\Antonio\AppData\Local\Temp\cc6EBOZH.s 			page 143


 5575              		.loc 1 1384 3 view .LVU1443
 5576 0018 0E93     		str	r3, [sp, #56]
 5577              		.loc 1 1388 3 view .LVU1444
 5578 001a 1392     		str	r2, [sp, #76]
 5579 001c 8268     		ldr	r2, [r0, #8]
1384:../../Middlewares/AI_Runtime/Npu/ll_aton/ll_sw_float.c ****                        sw_info->general.output.mem.start_offset, sw_info->general.output.dim.num_el
 5580              		.loc 1 1384 3 view .LVU1445
 5581 001e 036C     		ldr	r3, [r0, #64]
 5582              		.loc 1 1388 3 view .LVU1446
 5583 0020 1492     		str	r2, [sp, #80]
 5584 0022 4268     		ldr	r2, [r0, #4]
1384:../../Middlewares/AI_Runtime/Npu/ll_aton/ll_sw_float.c ****                        sw_info->general.output.mem.start_offset, sw_info->general.output.dim.num_el
 5585              		.loc 1 1384 3 view .LVU1447
 5586 0024 0F93     		str	r3, [sp, #60]
 5587 0026 436D     		ldr	r3, [r0, #84]
 5588              		.loc 1 1388 3 view .LVU1448
 5589 0028 1592     		str	r2, [sp, #84]
 5590 002a 12AA     		add	r2, sp, #72
 5591 002c 4FF08274 		mov	r4, #17039360
 5592 0030 40F20141 		movw	r1, #1025
1384:../../Middlewares/AI_Runtime/Npu/ll_aton/ll_sw_float.c ****                        sw_info->general.output.mem.start_offset, sw_info->general.output.dim.num_el
 5593              		.loc 1 1384 3 view .LVU1449
 5594 0034 CDE91033 		strd	r3, r3, [sp, #64]
 5595              		.loc 1 1388 3 is_stmt 1 view .LVU1450
 5596 0038 2992     		str	r2, [sp, #164]
 5597 003a 0023     		movs	r3, #0
 5598 003c 40F20242 		movw	r2, #1026
 5599 0040 456A     		ldr	r5, [r0, #36]
 5600 0042 CDE92634 		strd	r3, r4, [sp, #152]
 5601 0046 1695     		str	r5, [sp, #88]
 5602 0048 056A     		ldr	r5, [r0, #32]
 5603 004a 2891     		str	r1, [sp, #160]
 5604 004c 2A92     		str	r2, [sp, #168]
 5605 004e 1795     		str	r5, [sp, #92]
 5606 0050 C569     		ldr	r5, [r0, #28]
1389:../../Middlewares/AI_Runtime/Npu/ll_aton/ll_sw_float.c ****                         SHAPE_INIT(sw_info->general.input.dim.tensor_h, sw_info->general.input.dim.
1390:../../Middlewares/AI_Runtime/Npu/ll_aton/ll_sw_float.c ****                                    sw_info->general.input.dim.tensor_c, sw_info->general.input.dim.
1391:../../Middlewares/AI_Runtime/Npu/ll_aton/ll_sw_float.c ****                         STRIDE_INIT(sw_info->general.input.stride.h, sw_info->general.input.stride.
1392:../../Middlewares/AI_Runtime/Npu/ll_aton/ll_sw_float.c ****                                     sw_info->general.input.stride.c, sw_info->general.input.stride.
1393:../../Middlewares/AI_Runtime/Npu/ll_aton/ll_sw_float.c ****                         1, &input_output_array, NULL)
1394:../../Middlewares/AI_Runtime/Npu/ll_aton/ll_sw_float.c ****   AI_TENSOR_OBJ_DECLARE(tile_output, , 0x0, 4,
 5607              		.loc 1 1394 3 is_stmt 0 view .LVU1451
 5608 0052 CDE92E41 		strd	r4, r1, [sp, #184]
 5609 0056 C16B     		ldr	r1, [r0, #60]
1395:../../Middlewares/AI_Runtime/Npu/ll_aton/ll_sw_float.c ****                         SHAPE_INIT(sw_info->general.output.dim.tensor_h, sw_info->general.output.di
1396:../../Middlewares/AI_Runtime/Npu/ll_aton/ll_sw_float.c ****                                    sw_info->general.output.dim.tensor_c, sw_info->general.output.di
1397:../../Middlewares/AI_Runtime/Npu/ll_aton/ll_sw_float.c ****                         STRIDE_INIT(sw_info->general.output.stride.h, sw_info->general.output.strid
1398:../../Middlewares/AI_Runtime/Npu/ll_aton/ll_sw_float.c ****                                     sw_info->general.output.stride.c, sw_info->general.output.strid
1399:../../Middlewares/AI_Runtime/Npu/ll_aton/ll_sw_float.c ****                         1, &tile_output_array, NULL)
1400:../../Middlewares/AI_Runtime/Npu/ll_aton/ll_sw_float.c **** 
1401:../../Middlewares/AI_Runtime/Npu/ll_aton/ll_sw_float.c ****   // tensor chains init
1402:../../Middlewares/AI_Runtime/Npu/ll_aton/ll_sw_float.c ****   AI_TENSOR_CHAIN_OBJ_DECLARE(tile_chain, , 4, AI_TENSOR_LIST_OBJ_INIT(AI_FLAG_NONE, 1, TENSORS(&in
 5610              		.loc 1 1402 3 view .LVU1452
 5611 0058 0124     		movs	r4, #1
1394:../../Middlewares/AI_Runtime/Npu/ll_aton/ll_sw_float.c ****                         SHAPE_INIT(sw_info->general.output.dim.tensor_h, sw_info->general.output.di
 5612              		.loc 1 1394 3 view .LVU1453
 5613 005a 1A91     		str	r1, [sp, #104]
ARM GAS  C:\Users\Antonio\AppData\Local\Temp\cc6EBOZH.s 			page 144


 5614 005c 816B     		ldr	r1, [r0, #56]
1388:../../Middlewares/AI_Runtime/Npu/ll_aton/ll_sw_float.c ****                         SHAPE_INIT(sw_info->general.input.dim.tensor_h, sw_info->general.input.dim.
 5615              		.loc 1 1388 3 view .LVU1454
 5616 005e 1895     		str	r5, [sp, #96]
1394:../../Middlewares/AI_Runtime/Npu/ll_aton/ll_sw_float.c ****                         SHAPE_INIT(sw_info->general.output.dim.tensor_h, sw_info->general.output.di
 5617              		.loc 1 1394 3 view .LVU1455
 5618 0060 1B91     		str	r1, [sp, #108]
 5619 0062 416B     		ldr	r1, [r0, #52]
1388:../../Middlewares/AI_Runtime/Npu/ll_aton/ll_sw_float.c ****                         SHAPE_INIT(sw_info->general.input.dim.tensor_h, sw_info->general.input.dim.
 5620              		.loc 1 1388 3 view .LVU1456
 5621 0064 8569     		ldr	r5, [r0, #24]
1394:../../Middlewares/AI_Runtime/Npu/ll_aton/ll_sw_float.c ****                         SHAPE_INIT(sw_info->general.output.dim.tensor_h, sw_info->general.output.di
 5622              		.loc 1 1394 3 view .LVU1457
 5623 0066 1C91     		str	r1, [sp, #112]
 5624 0068 016B     		ldr	r1, [r0, #48]
1388:../../Middlewares/AI_Runtime/Npu/ll_aton/ll_sw_float.c ****                         SHAPE_INIT(sw_info->general.input.dim.tensor_h, sw_info->general.input.dim.
 5625              		.loc 1 1388 3 view .LVU1458
 5626 006a 1995     		str	r5, [sp, #100]
1394:../../Middlewares/AI_Runtime/Npu/ll_aton/ll_sw_float.c ****                         SHAPE_INIT(sw_info->general.output.dim.tensor_h, sw_info->general.output.di
 5627              		.loc 1 1394 3 view .LVU1459
 5628 006c 1D91     		str	r1, [sp, #116]
 5629 006e 1AA9     		add	r1, sp, #104
 5630 0070 CDE93012 		strd	r1, r2, [sp, #192]
 5631 0074 026D     		ldr	r2, [r0, #80]
1388:../../Middlewares/AI_Runtime/Npu/ll_aton/ll_sw_float.c ****                         SHAPE_INIT(sw_info->general.input.dim.tensor_h, sw_info->general.input.dim.
 5632              		.loc 1 1388 3 view .LVU1460
 5633 0076 16AD     		add	r5, sp, #88
1394:../../Middlewares/AI_Runtime/Npu/ll_aton/ll_sw_float.c ****                         SHAPE_INIT(sw_info->general.output.dim.tensor_h, sw_info->general.output.di
 5634              		.loc 1 1394 3 view .LVU1461
 5635 0078 1E92     		str	r2, [sp, #120]
 5636 007a C26C     		ldr	r2, [r0, #76]
1388:../../Middlewares/AI_Runtime/Npu/ll_aton/ll_sw_float.c ****                         SHAPE_INIT(sw_info->general.input.dim.tensor_h, sw_info->general.input.dim.
 5637              		.loc 1 1388 3 view .LVU1462
 5638 007c 2B95     		str	r5, [sp, #172]
1394:../../Middlewares/AI_Runtime/Npu/ll_aton/ll_sw_float.c ****                         SHAPE_INIT(sw_info->general.output.dim.tensor_h, sw_info->general.output.di
 5639              		.loc 1 1394 3 view .LVU1463
 5640 007e 1F92     		str	r2, [sp, #124]
 5641 0080 826C     		ldr	r2, [r0, #72]
1388:../../Middlewares/AI_Runtime/Npu/ll_aton/ll_sw_float.c ****                         SHAPE_INIT(sw_info->general.input.dim.tensor_h, sw_info->general.input.dim.
 5642              		.loc 1 1388 3 view .LVU1464
 5643 0082 0AAD     		add	r5, sp, #40
1394:../../Middlewares/AI_Runtime/Npu/ll_aton/ll_sw_float.c ****                         SHAPE_INIT(sw_info->general.output.dim.tensor_h, sw_info->general.output.di
 5644              		.loc 1 1394 3 view .LVU1465
 5645 0084 2092     		str	r2, [sp, #128]
 5646 0086 426C     		ldr	r2, [r0, #68]
 5647 0088 CDE92C53 		strd	r5, r3, [sp, #176]
 5648 008c 2192     		str	r2, [sp, #132]
 5649 008e 1EAA     		add	r2, sp, #120
 5650 0090 3292     		str	r2, [sp, #200]
 5651 0092 0EAA     		add	r2, sp, #56
 5652 0094 3392     		str	r2, [sp, #204]
 5653              		.loc 1 1402 3 is_stmt 1 view .LVU1466
 5654 0096 0422     		movs	r2, #4
 5655 0098 26AD     		add	r5, sp, #152
 5656 009a 0592     		str	r2, [sp, #20]
 5657 009c 6A44     		add	r2, sp, r2
 5658 009e 1560     		str	r5, [r2]
ARM GAS  C:\Users\Antonio\AppData\Local\Temp\cc6EBOZH.s 			page 145


 5659 00a0 3C94     		str	r4, [sp, #240]
 5660 00a2 CDE93D23 		strd	r2, r3, [sp, #244]
 5661 00a6 02AA     		add	r2, sp, #8
 5662 00a8 CDE94023 		strd	r2, r3, [sp, #256]
 5663 00ac 03AA     		add	r2, sp, #12
 5664 00ae CDE94323 		strd	r2, r3, [sp, #268]
 5665 00b2 04AA     		add	r2, sp, #16
 5666 00b4 CDE94623 		strd	r2, r3, [sp, #280]
 5667 00b8 3CAA     		add	r2, sp, #240
 5668 00ba 0692     		str	r2, [sp, #24]
1403:../../Middlewares/AI_Runtime/Npu/ll_aton/ll_sw_float.c ****                               AI_TENSOR_LIST_OBJ_INIT(AI_FLAG_NONE, 1, TENSORS(&tile_output)), AI_T
1404:../../Middlewares/AI_Runtime/Npu/ll_aton/ll_sw_float.c ****                               AI_TENSOR_LIST_OBJ_EMPTY)
1405:../../Middlewares/AI_Runtime/Npu/ll_aton/ll_sw_float.c **** 
1406:../../Middlewares/AI_Runtime/Npu/ll_aton/ll_sw_float.c ****   AI_ARRAY_OBJ_DECLARE_STATIC(repeats, ai_i16, AI_ARRAY_FORMAT_S16, AI_CONST, 5, sw_info->repeats[2
 5669              		.loc 1 1406 3 view .LVU1467
 5670 00bc 0522     		movs	r2, #5
1402:../../Middlewares/AI_Runtime/Npu/ll_aton/ll_sw_float.c ****                               AI_TENSOR_LIST_OBJ_INIT(AI_FLAG_NONE, 1, TENSORS(&tile_output)), AI_T
 5671              		.loc 1 1402 3 is_stmt 0 view .LVU1468
 5672 00be 2DAD     		add	r5, sp, #180
 5673 00c0 0295     		str	r5, [sp, #8]
 5674              		.loc 1 1406 3 view .LVU1469
 5675 00c2 154D     		ldr	r5, .L147+4
1407:../../Middlewares/AI_Runtime/Npu/ll_aton/ll_sw_float.c ****                               sw_info->repeats[3], sw_info->repeats[1], sw_info->repeats[0], 1)
1408:../../Middlewares/AI_Runtime/Npu/ll_aton/ll_sw_float.c **** 
1409:../../Middlewares/AI_Runtime/Npu/ll_aton/ll_sw_float.c ****   // TODO//layer initialization
1410:../../Middlewares/AI_Runtime/Npu/ll_aton/ll_sw_float.c ****   AI_LAYER_OBJ_DECLARE(Tile_layer, 2, TILE_TYPE, 0x0, NULL, tile, forward_tile, &tile_chain, NULL, 
 5676              		.loc 1 1410 3 view .LVU1470
 5677 00c4 CDE93633 		strd	r3, r3, [sp, #216]
1406:../../Middlewares/AI_Runtime/Npu/ll_aton/ll_sw_float.c ****                               sw_info->repeats[3], sw_info->repeats[1], sw_info->repeats[0], 1)
 5678              		.loc 1 1406 3 view .LVU1471
 5679 00c8 CDE92252 		strd	r5, r2, [sp, #136]
 5680 00cc 07AA     		add	r2, sp, #28
 5681 00ce CDE92423 		strd	r2, r3, [sp, #144]
 5682              		.loc 1 1410 3 is_stmt 1 view .LVU1472
1406:../../Middlewares/AI_Runtime/Npu/ll_aton/ll_sw_float.c ****                               sw_info->repeats[3], sw_info->repeats[1], sw_info->repeats[0], 1)
 5683              		.loc 1 1406 3 is_stmt 0 view .LVU1473
 5684 00d2 056E     		ldr	r5, [r0, #96]
 5685              		.loc 1 1410 3 view .LVU1474
 5686 00d4 114A     		ldr	r2, .L147+8
1402:../../Middlewares/AI_Runtime/Npu/ll_aton/ll_sw_float.c ****                               AI_TENSOR_LIST_OBJ_INIT(AI_FLAG_NONE, 1, TENSORS(&tile_output)), AI_T
 5687              		.loc 1 1402 3 view .LVU1475
 5688 00d6 4293     		str	r3, [sp, #264]
 5689              		.loc 1 1410 3 view .LVU1476
 5690 00d8 CDE93423 		strd	r2, r3, [sp, #208]
1402:../../Middlewares/AI_Runtime/Npu/ll_aton/ll_sw_float.c ****                               AI_TENSOR_LIST_OBJ_INIT(AI_FLAG_NONE, 1, TENSORS(&tile_output)), AI_T
 5691              		.loc 1 1402 3 view .LVU1477
 5692 00dc 0393     		str	r3, [sp, #12]
 5693 00de 4593     		str	r3, [sp, #276]
 5694 00e0 0493     		str	r3, [sp, #16]
1406:../../Middlewares/AI_Runtime/Npu/ll_aton/ll_sw_float.c ****                               sw_info->repeats[3], sw_info->repeats[1], sw_info->repeats[0], 1)
 5695              		.loc 1 1406 3 view .LVU1478
 5696 00e2 0795     		str	r5, [sp, #28]
 5697              		.loc 1 1410 3 view .LVU1479
 5698 00e4 3893     		str	r3, [sp, #224]
1406:../../Middlewares/AI_Runtime/Npu/ll_aton/ll_sw_float.c ****                               sw_info->repeats[3], sw_info->repeats[1], sw_info->repeats[0], 1)
 5699              		.loc 1 1406 3 view .LVU1480
 5700 00e6 B0F85E50 		ldrh	r5, [r0, #94]
ARM GAS  C:\Users\Antonio\AppData\Local\Temp\cc6EBOZH.s 			page 146


 5701              		.loc 1 1410 3 view .LVU1481
 5702 00ea 0D4B     		ldr	r3, .L147+12
1406:../../Middlewares/AI_Runtime/Npu/ll_aton/ll_sw_float.c ****                               sw_info->repeats[3], sw_info->repeats[1], sw_info->repeats[0], 1)
 5703              		.loc 1 1406 3 view .LVU1482
 5704 00ec B0F85C00 		ldrh	r0, [r0, #92]
 5705              	.LVL225:
1402:../../Middlewares/AI_Runtime/Npu/ll_aton/ll_sw_float.c ****                               AI_TENSOR_LIST_OBJ_INIT(AI_FLAG_NONE, 1, TENSORS(&tile_output)), AI_T
 5706              		.loc 1 1402 3 view .LVU1483
 5707 00f0 05A9     		add	r1, sp, #20
 5708              		.loc 1 1410 3 view .LVU1484
 5709 00f2 CDE93931 		strd	r3, r1, [sp, #228]
1406:../../Middlewares/AI_Runtime/Npu/ll_aton/ll_sw_float.c ****                               sw_info->repeats[3], sw_info->repeats[1], sw_info->repeats[0], 1)
 5710              		.loc 1 1406 3 view .LVU1485
 5711 00f6 ADF82200 		strh	r0, [sp, #34]	@ movhi
 5712              		.loc 1 1410 3 view .LVU1486
 5713 00fa 22AB     		add	r3, sp, #136
1411:../../Middlewares/AI_Runtime/Npu/ll_aton/ll_sw_float.c ****                        .repeats = AI_ARRAY_OBJ(&repeats))
1412:../../Middlewares/AI_Runtime/Npu/ll_aton/ll_sw_float.c **** 
1413:../../Middlewares/AI_Runtime/Npu/ll_aton/ll_sw_float.c ****   Tile_layer.forward(AI_LAYER_OBJ(&Tile_layer));
 5714              		.loc 1 1413 3 view .LVU1487
 5715 00fc 34A8     		add	r0, sp, #208
1402:../../Middlewares/AI_Runtime/Npu/ll_aton/ll_sw_float.c ****                               AI_TENSOR_LIST_OBJ_INIT(AI_FLAG_NONE, 1, TENSORS(&tile_output)), AI_T
 5716              		.loc 1 1402 3 view .LVU1488
 5717 00fe 3F94     		str	r4, [sp, #252]
1406:../../Middlewares/AI_Runtime/Npu/ll_aton/ll_sw_float.c ****                               sw_info->repeats[3], sw_info->repeats[1], sw_info->repeats[0], 1)
 5718              		.loc 1 1406 3 view .LVU1489
 5719 0100 ADF82050 		strh	r5, [sp, #32]	@ movhi
 5720 0104 ADF82440 		strh	r4, [sp, #36]	@ movhi
1410:../../Middlewares/AI_Runtime/Npu/ll_aton/ll_sw_float.c ****                        .repeats = AI_ARRAY_OBJ(&repeats))
 5721              		.loc 1 1410 3 view .LVU1490
 5722 0108 3B93     		str	r3, [sp, #236]
 5723              		.loc 1 1413 3 is_stmt 1 view .LVU1491
 5724 010a FFF7FEFF 		bl	forward_tile
 5725              	.LVL226:
1414:../../Middlewares/AI_Runtime/Npu/ll_aton/ll_sw_float.c **** }
 5726              		.loc 1 1414 1 is_stmt 0 view .LVU1492
 5727 010e 49B0     		add	sp, sp, #292
 5728              		.cfi_def_cfa_offset 12
 5729              		@ sp needed
 5730 0110 30BD     		pop	{r4, r5, pc}
 5731              	.L148:
 5732 0112 00BF     		.align	2
 5733              	.L147:
 5734 0114 40108200 		.word	8523840
 5735 0118 40088400 		.word	8652864
 5736 011c 18010200 		.word	131352
 5737 0120 00000000 		.word	forward_tile
 5738              		.cfi_endproc
 5739              	.LFE33:
 5741              		.section	.text.ll_sw_forward_concat,"ax",%progbits
 5742              		.align	1
 5743              		.global	ll_sw_forward_concat
 5744              		.syntax unified
 5745              		.thumb
 5746              		.thumb_func
 5748              	ll_sw_forward_concat:
 5749              	.LVL227:
ARM GAS  C:\Users\Antonio\AppData\Local\Temp\cc6EBOZH.s 			page 147


 5750              	.LFB34:
1415:../../Middlewares/AI_Runtime/Npu/ll_aton/ll_sw_float.c **** 
1416:../../Middlewares/AI_Runtime/Npu/ll_aton/ll_sw_float.c **** //##########################################################################################
1417:../../Middlewares/AI_Runtime/Npu/ll_aton/ll_sw_float.c **** /** concat forward function  */
1418:../../Middlewares/AI_Runtime/Npu/ll_aton/ll_sw_float.c **** void ll_sw_forward_concat(/* int processor, */ void *sw_info_struct)
1419:../../Middlewares/AI_Runtime/Npu/ll_aton/ll_sw_float.c **** {
 5751              		.loc 1 1419 1 is_stmt 1 view -0
 5752              		.cfi_startproc
 5753              		@ args = 0, pretend = 0, frame = 432
 5754              		@ frame_needed = 0, uses_anonymous_args = 0
1420:../../Middlewares/AI_Runtime/Npu/ll_aton/ll_sw_float.c ****   Concat_sw_info *sw_info = (Concat_sw_info *)sw_info_struct;
 5755              		.loc 1 1420 3 view .LVU1494
1421:../../Middlewares/AI_Runtime/Npu/ll_aton/ll_sw_float.c **** 
1422:../../Middlewares/AI_Runtime/Npu/ll_aton/ll_sw_float.c ****   AI_ARRAY_OBJ_DECLARE(input_output_array, FORMAT, sw_info->general.input.mem.start_offset,
 5756              		.loc 1 1422 3 view .LVU1495
1419:../../Middlewares/AI_Runtime/Npu/ll_aton/ll_sw_float.c ****   Concat_sw_info *sw_info = (Concat_sw_info *)sw_info_struct;
 5757              		.loc 1 1419 1 is_stmt 0 view .LVU1496
 5758 0000 0346     		mov	r3, r0
 5759 0002 2DE9F047 		push	{r4, r5, r6, r7, r8, r9, r10, lr}
 5760              		.cfi_def_cfa_offset 32
 5761              		.cfi_offset 4, -32
 5762              		.cfi_offset 5, -28
 5763              		.cfi_offset 6, -24
 5764              		.cfi_offset 7, -20
 5765              		.cfi_offset 8, -16
 5766              		.cfi_offset 9, -12
 5767              		.cfi_offset 10, -8
 5768              		.cfi_offset 14, -4
 5769              		.loc 1 1422 3 view .LVU1497
 5770 0006 4169     		ldr	r1, [r0, #20]
1419:../../Middlewares/AI_Runtime/Npu/ll_aton/ll_sw_float.c ****   Concat_sw_info *sw_info = (Concat_sw_info *)sw_info_struct;
 5771              		.loc 1 1419 1 view .LVU1498
 5772 0008 ECB0     		sub	sp, sp, #432
 5773              		.cfi_def_cfa_offset 464
 5774              		.loc 1 1422 3 view .LVU1499
 5775 000a 0691     		str	r1, [sp, #24]
 5776 000c 816A     		ldr	r1, [r0, #40]
 5777 000e 0DF1140E 		add	lr, sp, #20
 5778 0012 CEE90211 		strd	r1, r1, [lr, #8]
1423:../../Middlewares/AI_Runtime/Npu/ll_aton/ll_sw_float.c ****                        sw_info->general.input.mem.start_offset, sw_info->general.input.dim.num_elem
1424:../../Middlewares/AI_Runtime/Npu/ll_aton/ll_sw_float.c ****   AI_ARRAY_OBJ_DECLARE(concat_output_array, FORMAT, sw_info->general.output.mem.start_offset,
 5779              		.loc 1 1424 3 is_stmt 1 view .LVU1500
 5780 0016 016C     		ldr	r1, [r0, #64]
 5781 0018 09AF     		add	r7, sp, #36
 5782 001a 7960     		str	r1, [r7, #4]
 5783 001c 416D     		ldr	r1, [r0, #84]
1425:../../Middlewares/AI_Runtime/Npu/ll_aton/ll_sw_float.c ****                        sw_info->general.output.mem.start_offset, sw_info->general.output.dim.num_el
1426:../../Middlewares/AI_Runtime/Npu/ll_aton/ll_sw_float.c **** 
1427:../../Middlewares/AI_Runtime/Npu/ll_aton/ll_sw_float.c ****   AI_ARRAY_OBJ_DECLARE(concat_operand_array, FORMAT, sw_info->operand.mem.start_offset,
1428:../../Middlewares/AI_Runtime/Npu/ll_aton/ll_sw_float.c ****                        sw_info->operand.mem.start_offset, sw_info->operand.dim.num_elem, )
1429:../../Middlewares/AI_Runtime/Npu/ll_aton/ll_sw_float.c **** 
1430:../../Middlewares/AI_Runtime/Npu/ll_aton/ll_sw_float.c ****   ai_array concat_operand_array1;
1431:../../Middlewares/AI_Runtime/Npu/ll_aton/ll_sw_float.c ****   ai_array *concat_operand_array1_ptr = NULL;
1432:../../Middlewares/AI_Runtime/Npu/ll_aton/ll_sw_float.c ****   if (sw_info->num_of_inputs >= 3)
 5784              		.loc 1 1432 14 is_stmt 0 view .LVU1501
 5785 001e D3F86090 		ldr	r9, [r3, #96]
1424:../../Middlewares/AI_Runtime/Npu/ll_aton/ll_sw_float.c ****                        sw_info->general.output.mem.start_offset, sw_info->general.output.dim.num_el
ARM GAS  C:\Users\Antonio\AppData\Local\Temp\cc6EBOZH.s 			page 148


 5786              		.loc 1 1424 3 view .LVU1502
 5787 0022 C7E90211 		strd	r1, r1, [r7, #8]
1427:../../Middlewares/AI_Runtime/Npu/ll_aton/ll_sw_float.c ****                        sw_info->operand.mem.start_offset, sw_info->operand.dim.num_elem, )
 5788              		.loc 1 1427 3 is_stmt 1 view .LVU1503
 5789 0026 596F     		ldr	r1, [r3, #116]
1422:../../Middlewares/AI_Runtime/Npu/ll_aton/ll_sw_float.c ****                        sw_info->general.input.mem.start_offset, sw_info->general.input.dim.num_elem
 5790              		.loc 1 1422 3 is_stmt 0 view .LVU1504
 5791 0028 694A     		ldr	r2, .L157
1427:../../Middlewares/AI_Runtime/Npu/ll_aton/ll_sw_float.c ****                        sw_info->operand.mem.start_offset, sw_info->operand.dim.num_elem, )
 5792              		.loc 1 1427 3 view .LVU1505
 5793 002a 0E91     		str	r1, [sp, #56]
 5794 002c D3F88810 		ldr	r1, [r3, #136]
 5795 0030 0DA8     		add	r0, sp, #52
 5796              	.LVL228:
 5797              		.loc 1 1432 6 view .LVU1506
 5798 0032 B9F1020F 		cmp	r9, #2
1427:../../Middlewares/AI_Runtime/Npu/ll_aton/ll_sw_float.c ****                        sw_info->operand.mem.start_offset, sw_info->operand.dim.num_elem, )
 5799              		.loc 1 1427 3 view .LVU1507
 5800 0036 C0E90211 		strd	r1, r1, [r0, #8]
1430:../../Middlewares/AI_Runtime/Npu/ll_aton/ll_sw_float.c ****   ai_array *concat_operand_array1_ptr = NULL;
 5801              		.loc 1 1430 3 is_stmt 1 view .LVU1508
1431:../../Middlewares/AI_Runtime/Npu/ll_aton/ll_sw_float.c ****   if (sw_info->num_of_inputs >= 3)
 5802              		.loc 1 1431 3 view .LVU1509
 5803              	.LVL229:
 5804              		.loc 1 1432 3 view .LVU1510
1422:../../Middlewares/AI_Runtime/Npu/ll_aton/ll_sw_float.c ****                        sw_info->general.input.mem.start_offset, sw_info->general.input.dim.num_elem
 5805              		.loc 1 1422 3 is_stmt 0 view .LVU1511
 5806 003a CEF80020 		str	r2, [lr]
1424:../../Middlewares/AI_Runtime/Npu/ll_aton/ll_sw_float.c ****                        sw_info->general.output.mem.start_offset, sw_info->general.output.dim.num_el
 5807              		.loc 1 1424 3 view .LVU1512
 5808 003e 3A60     		str	r2, [r7]
1427:../../Middlewares/AI_Runtime/Npu/ll_aton/ll_sw_float.c ****                        sw_info->operand.mem.start_offset, sw_info->operand.dim.num_elem, )
 5809              		.loc 1 1427 3 view .LVU1513
 5810 0040 0260     		str	r2, [r0]
 5811              		.loc 1 1432 6 view .LVU1514
 5812 0042 40F2BA80 		bls	.L152
 5813              	.LBB86:
1433:../../Middlewares/AI_Runtime/Npu/ll_aton/ll_sw_float.c ****   {
1434:../../Middlewares/AI_Runtime/Npu/ll_aton/ll_sw_float.c ****     concat_operand_array1 = (ai_array)AI_ARRAY_OBJ_INIT(
 5814              		.loc 1 1434 5 is_stmt 1 view .LVU1515
 5815              		.loc 1 1434 39 is_stmt 0 view .LVU1516
 5816 0046 D3F8A040 		ldr	r4, [r3, #160]
 5817 004a D3F8B410 		ldr	r1, [r3, #180]
 5818              	.LBE86:
1435:../../Middlewares/AI_Runtime/Npu/ll_aton/ll_sw_float.c ****         FORMAT, sw_info->operand1.mem.start_offset, sw_info->operand1.mem.start_offset, sw_info->op
1436:../../Middlewares/AI_Runtime/Npu/ll_aton/ll_sw_float.c ****     concat_operand_array1_ptr = &concat_operand_array1;
1437:../../Middlewares/AI_Runtime/Npu/ll_aton/ll_sw_float.c ****   }
1438:../../Middlewares/AI_Runtime/Npu/ll_aton/ll_sw_float.c **** 
1439:../../Middlewares/AI_Runtime/Npu/ll_aton/ll_sw_float.c ****   ai_array concat_operand_array2;
1440:../../Middlewares/AI_Runtime/Npu/ll_aton/ll_sw_float.c ****   ai_array *concat_operand_array2_ptr = NULL;
1441:../../Middlewares/AI_Runtime/Npu/ll_aton/ll_sw_float.c ****   if (sw_info->num_of_inputs >= 4)
 5819              		.loc 1 1441 6 view .LVU1517
 5820 004e B9F1030F 		cmp	r9, #3
 5821              	.LBB87:
1434:../../Middlewares/AI_Runtime/Npu/ll_aton/ll_sw_float.c ****         FORMAT, sw_info->operand1.mem.start_offset, sw_info->operand1.mem.start_offset, sw_info->op
 5822              		.loc 1 1434 27 view .LVU1518
 5823 0052 CDE91124 		strd	r2, r4, [sp, #68]
ARM GAS  C:\Users\Antonio\AppData\Local\Temp\cc6EBOZH.s 			page 149


 5824 0056 CDE91311 		strd	r1, r1, [sp, #76]
1436:../../Middlewares/AI_Runtime/Npu/ll_aton/ll_sw_float.c ****   }
 5825              		.loc 1 1436 5 is_stmt 1 view .LVU1519
 5826              	.LVL230:
1436:../../Middlewares/AI_Runtime/Npu/ll_aton/ll_sw_float.c ****   }
 5827              		.loc 1 1436 5 is_stmt 0 view .LVU1520
 5828              	.LBE87:
1439:../../Middlewares/AI_Runtime/Npu/ll_aton/ll_sw_float.c ****   ai_array *concat_operand_array2_ptr = NULL;
 5829              		.loc 1 1439 3 is_stmt 1 view .LVU1521
1440:../../Middlewares/AI_Runtime/Npu/ll_aton/ll_sw_float.c ****   if (sw_info->num_of_inputs >= 4)
 5830              		.loc 1 1440 3 view .LVU1522
 5831              		.loc 1 1441 3 view .LVU1523
 5832              		.loc 1 1441 6 is_stmt 0 view .LVU1524
 5833 005a 00F0B280 		beq	.L153
 5834              	.LBB88:
1442:../../Middlewares/AI_Runtime/Npu/ll_aton/ll_sw_float.c ****   {
1443:../../Middlewares/AI_Runtime/Npu/ll_aton/ll_sw_float.c ****     concat_operand_array2 = (ai_array)AI_ARRAY_OBJ_INIT(
 5835              		.loc 1 1443 5 is_stmt 1 view .LVU1525
 5836              		.loc 1 1443 39 is_stmt 0 view .LVU1526
 5837 005e D3F8CC40 		ldr	r4, [r3, #204]
 5838 0062 D3F8E010 		ldr	r1, [r3, #224]
 5839              		.loc 1 1443 27 view .LVU1527
 5840 0066 CDE91524 		strd	r2, r4, [sp, #84]
1444:../../Middlewares/AI_Runtime/Npu/ll_aton/ll_sw_float.c ****         FORMAT, sw_info->operand2.mem.start_offset, sw_info->operand2.mem.start_offset, sw_info->op
1445:../../Middlewares/AI_Runtime/Npu/ll_aton/ll_sw_float.c ****     concat_operand_array2_ptr = &concat_operand_array2;
 5841              		.loc 1 1445 31 view .LVU1528
 5842 006a 15AC     		add	r4, sp, #84
 5843 006c A446     		mov	ip, r4
1443:../../Middlewares/AI_Runtime/Npu/ll_aton/ll_sw_float.c ****         FORMAT, sw_info->operand2.mem.start_offset, sw_info->operand2.mem.start_offset, sw_info->op
 5844              		.loc 1 1443 27 view .LVU1529
 5845 006e CDE91711 		strd	r1, r1, [sp, #92]
 5846              		.loc 1 1445 5 is_stmt 1 view .LVU1530
 5847              	.LVL231:
1443:../../Middlewares/AI_Runtime/Npu/ll_aton/ll_sw_float.c ****         FORMAT, sw_info->operand2.mem.start_offset, sw_info->operand2.mem.start_offset, sw_info->op
 5848              		.loc 1 1443 27 is_stmt 0 view .LVU1531
 5849 0072 11A9     		add	r1, sp, #68
 5850              	.LVL232:
 5851              	.L150:
1443:../../Middlewares/AI_Runtime/Npu/ll_aton/ll_sw_float.c ****         FORMAT, sw_info->operand2.mem.start_offset, sw_info->operand2.mem.start_offset, sw_info->op
 5852              		.loc 1 1443 27 view .LVU1532
 5853              	.LBE88:
1446:../../Middlewares/AI_Runtime/Npu/ll_aton/ll_sw_float.c ****   }
1447:../../Middlewares/AI_Runtime/Npu/ll_aton/ll_sw_float.c **** 
1448:../../Middlewares/AI_Runtime/Npu/ll_aton/ll_sw_float.c ****   // tensors init
1449:../../Middlewares/AI_Runtime/Npu/ll_aton/ll_sw_float.c ****   AI_TENSOR_OBJ_DECLARE(input_output, , 0x0, 4,
 5854              		.loc 1 1449 3 is_stmt 1 view .LVU1533
 5855 0074 0DF16408 		add	r8, sp, #100
 5856 0078 0022     		movs	r2, #0
 5857 007a 4FF08276 		mov	r6, #17039360
 5858 007e 40F20145 		movw	r5, #1025
 5859 0082 CDF8E080 		str	r8, [sp, #224]
 5860 0086 40F20248 		movw	r8, #1026
 5861 008a 1C69     		ldr	r4, [r3, #16]
 5862 008c 0DF1740A 		add	r10, sp, #116
 5863 0090 1994     		str	r4, [sp, #100]
 5864 0092 DC68     		ldr	r4, [r3, #12]
 5865 0094 CDE93AAE 		strd	r10, lr, [sp, #232]
ARM GAS  C:\Users\Antonio\AppData\Local\Temp\cc6EBOZH.s 			page 150


1450:../../Middlewares/AI_Runtime/Npu/ll_aton/ll_sw_float.c ****                         SHAPE_INIT(sw_info->general.input.dim.tensor_h, sw_info->general.input.dim.
1451:../../Middlewares/AI_Runtime/Npu/ll_aton/ll_sw_float.c ****                                    sw_info->general.input.dim.tensor_c, sw_info->general.input.dim.
1452:../../Middlewares/AI_Runtime/Npu/ll_aton/ll_sw_float.c ****                         STRIDE_INIT(sw_info->general.input.stride.h, sw_info->general.input.stride.
1453:../../Middlewares/AI_Runtime/Npu/ll_aton/ll_sw_float.c ****                                     sw_info->general.input.stride.c, sw_info->general.input.stride.
1454:../../Middlewares/AI_Runtime/Npu/ll_aton/ll_sw_float.c ****                         1, &input_output_array, NULL)
1455:../../Middlewares/AI_Runtime/Npu/ll_aton/ll_sw_float.c ****   AI_TENSOR_OBJ_DECLARE(concat_output, , 0x0, 4,
 5866              		.loc 1 1455 3 view .LVU1534
1449:../../Middlewares/AI_Runtime/Npu/ll_aton/ll_sw_float.c ****                         SHAPE_INIT(sw_info->general.input.dim.tensor_h, sw_info->general.input.dim.
 5867              		.loc 1 1449 3 is_stmt 0 view .LVU1535
 5868 0098 1A94     		str	r4, [sp, #104]
 5869 009a 9C68     		ldr	r4, [r3, #8]
 5870 009c CDE93526 		strd	r2, r6, [sp, #212]
 5871 00a0 1B94     		str	r4, [sp, #108]
 5872 00a2 5C68     		ldr	r4, [r3, #4]
 5873              		.loc 1 1455 3 view .LVU1536
 5874 00a4 CDE93C26 		strd	r2, r6, [sp, #240]
1449:../../Middlewares/AI_Runtime/Npu/ll_aton/ll_sw_float.c ****                         SHAPE_INIT(sw_info->general.input.dim.tensor_h, sw_info->general.input.dim.
 5875              		.loc 1 1449 3 view .LVU1537
 5876 00a8 1C94     		str	r4, [sp, #112]
 5877 00aa 5C6A     		ldr	r4, [r3, #36]
 5878 00ac 3795     		str	r5, [sp, #220]
 5879 00ae 1D94     		str	r4, [sp, #116]
 5880 00b0 1C6A     		ldr	r4, [r3, #32]
 5881 00b2 CDF8E480 		str	r8, [sp, #228]
 5882 00b6 1E94     		str	r4, [sp, #120]
 5883 00b8 DC69     		ldr	r4, [r3, #28]
 5884              		.loc 1 1455 3 view .LVU1538
 5885 00ba 3E95     		str	r5, [sp, #248]
1449:../../Middlewares/AI_Runtime/Npu/ll_aton/ll_sw_float.c ****                         SHAPE_INIT(sw_info->general.input.dim.tensor_h, sw_info->general.input.dim.
 5886              		.loc 1 1449 3 view .LVU1539
 5887 00bc 1F94     		str	r4, [sp, #124]
 5888 00be 9C69     		ldr	r4, [r3, #24]
 5889              		.loc 1 1455 3 view .LVU1540
 5890 00c0 0DF1840E 		add	lr, sp, #132
1449:../../Middlewares/AI_Runtime/Npu/ll_aton/ll_sw_float.c ****                         SHAPE_INIT(sw_info->general.input.dim.tensor_h, sw_info->general.input.dim.
 5891              		.loc 1 1449 3 view .LVU1541
 5892 00c4 2094     		str	r4, [sp, #128]
 5893              		.loc 1 1455 3 view .LVU1542
 5894 00c6 DC6B     		ldr	r4, [r3, #60]
1456:../../Middlewares/AI_Runtime/Npu/ll_aton/ll_sw_float.c ****                         SHAPE_INIT(sw_info->general.output.dim.tensor_h, sw_info->general.output.di
1457:../../Middlewares/AI_Runtime/Npu/ll_aton/ll_sw_float.c ****                                    sw_info->general.output.dim.tensor_c, sw_info->general.output.di
1458:../../Middlewares/AI_Runtime/Npu/ll_aton/ll_sw_float.c ****                         STRIDE_INIT(sw_info->general.output.stride.h, sw_info->general.output.strid
1459:../../Middlewares/AI_Runtime/Npu/ll_aton/ll_sw_float.c ****                                     sw_info->general.output.stride.c, sw_info->general.output.strid
1460:../../Middlewares/AI_Runtime/Npu/ll_aton/ll_sw_float.c ****                         1, &concat_output_array, NULL)
1461:../../Middlewares/AI_Runtime/Npu/ll_aton/ll_sw_float.c **** 
1462:../../Middlewares/AI_Runtime/Npu/ll_aton/ll_sw_float.c ****   AI_TENSOR_OBJ_DECLARE(concat_operand, , 0x0, 4,
1463:../../Middlewares/AI_Runtime/Npu/ll_aton/ll_sw_float.c ****                         SHAPE_INIT(sw_info->operand.dim.tensor_h, sw_info->operand.dim.tensor_w,
1464:../../Middlewares/AI_Runtime/Npu/ll_aton/ll_sw_float.c ****                                    sw_info->operand.dim.tensor_c, sw_info->operand.dim.tensor_b),
1465:../../Middlewares/AI_Runtime/Npu/ll_aton/ll_sw_float.c ****                         STRIDE_INIT(sw_info->operand.stride.h, sw_info->operand.stride.w, sw_info->
1466:../../Middlewares/AI_Runtime/Npu/ll_aton/ll_sw_float.c ****                                     sw_info->operand.stride.b),
1467:../../Middlewares/AI_Runtime/Npu/ll_aton/ll_sw_float.c ****                         1, &concat_operand_array, NULL)
1468:../../Middlewares/AI_Runtime/Npu/ll_aton/ll_sw_float.c **** 
1469:../../Middlewares/AI_Runtime/Npu/ll_aton/ll_sw_float.c ****   ai_tensor concat_operand1;
1470:../../Middlewares/AI_Runtime/Npu/ll_aton/ll_sw_float.c ****   ai_tensor *concat_operand1_ptr = NULL;
1471:../../Middlewares/AI_Runtime/Npu/ll_aton/ll_sw_float.c ****   if (sw_info->num_of_inputs >= 3)
 5895              		.loc 1 1471 6 view .LVU1543
 5896 00c8 B9F1020F 		cmp	r9, #2
ARM GAS  C:\Users\Antonio\AppData\Local\Temp\cc6EBOZH.s 			page 151


1455:../../Middlewares/AI_Runtime/Npu/ll_aton/ll_sw_float.c ****                         SHAPE_INIT(sw_info->general.output.dim.tensor_h, sw_info->general.output.di
 5897              		.loc 1 1455 3 view .LVU1544
 5898 00cc 2194     		str	r4, [sp, #132]
 5899 00ce 9C6B     		ldr	r4, [r3, #56]
 5900 00d0 2294     		str	r4, [sp, #136]
 5901 00d2 5C6B     		ldr	r4, [r3, #52]
 5902 00d4 2394     		str	r4, [sp, #140]
 5903 00d6 1C6B     		ldr	r4, [r3, #48]
 5904 00d8 CDE93FE8 		strd	lr, r8, [sp, #252]
 5905 00dc 2494     		str	r4, [sp, #144]
 5906 00de 1C6D     		ldr	r4, [r3, #80]
 5907 00e0 0DF1940E 		add	lr, sp, #148
 5908 00e4 2594     		str	r4, [sp, #148]
 5909 00e6 DC6C     		ldr	r4, [r3, #76]
 5910 00e8 CDE941E7 		strd	lr, r7, [sp, #260]
1462:../../Middlewares/AI_Runtime/Npu/ll_aton/ll_sw_float.c ****                         SHAPE_INIT(sw_info->operand.dim.tensor_h, sw_info->operand.dim.tensor_w,
 5911              		.loc 1 1462 3 is_stmt 1 view .LVU1545
1455:../../Middlewares/AI_Runtime/Npu/ll_aton/ll_sw_float.c ****                         SHAPE_INIT(sw_info->general.output.dim.tensor_h, sw_info->general.output.di
 5912              		.loc 1 1455 3 is_stmt 0 view .LVU1546
 5913 00ec 2694     		str	r4, [sp, #152]
 5914 00ee 9C6C     		ldr	r4, [r3, #72]
1462:../../Middlewares/AI_Runtime/Npu/ll_aton/ll_sw_float.c ****                         SHAPE_INIT(sw_info->operand.dim.tensor_h, sw_info->operand.dim.tensor_w,
 5915              		.loc 1 1462 3 view .LVU1547
 5916 00f0 29AF     		add	r7, sp, #164
1455:../../Middlewares/AI_Runtime/Npu/ll_aton/ll_sw_float.c ****                         SHAPE_INIT(sw_info->general.output.dim.tensor_h, sw_info->general.output.di
 5917              		.loc 1 1455 3 view .LVU1548
 5918 00f2 2794     		str	r4, [sp, #156]
 5919 00f4 5C6C     		ldr	r4, [r3, #68]
1462:../../Middlewares/AI_Runtime/Npu/ll_aton/ll_sw_float.c ****                         SHAPE_INIT(sw_info->operand.dim.tensor_h, sw_info->operand.dim.tensor_w,
 5920              		.loc 1 1462 3 view .LVU1549
 5921 00f6 CDE94678 		strd	r7, r8, [sp, #280]
1455:../../Middlewares/AI_Runtime/Npu/ll_aton/ll_sw_float.c ****                         SHAPE_INIT(sw_info->general.output.dim.tensor_h, sw_info->general.output.di
 5922              		.loc 1 1455 3 view .LVU1550
 5923 00fa 2894     		str	r4, [sp, #160]
1462:../../Middlewares/AI_Runtime/Npu/ll_aton/ll_sw_float.c ****                         SHAPE_INIT(sw_info->operand.dim.tensor_h, sw_info->operand.dim.tensor_w,
 5924              		.loc 1 1462 3 view .LVU1551
 5925 00fc 1C6F     		ldr	r4, [r3, #112]
 5926 00fe D3F88470 		ldr	r7, [r3, #132]
 5927 0102 2994     		str	r4, [sp, #164]
 5928 0104 DC6E     		ldr	r4, [r3, #108]
 5929 0106 2D97     		str	r7, [sp, #180]
 5930 0108 2A94     		str	r4, [sp, #168]
 5931 010a D3F88070 		ldr	r7, [r3, #128]
 5932 010e 9C6E     		ldr	r4, [r3, #104]
 5933 0110 2E97     		str	r7, [sp, #184]
 5934 0112 2B94     		str	r4, [sp, #172]
 5935 0114 DF6F     		ldr	r7, [r3, #124]
 5936 0116 5C6E     		ldr	r4, [r3, #100]
 5937 0118 CDE94326 		strd	r2, r6, [sp, #268]
 5938 011c 4595     		str	r5, [sp, #276]
 5939 011e 2C94     		str	r4, [sp, #176]
 5940 0120 2F97     		str	r7, [sp, #188]
 5941 0122 9F6F     		ldr	r7, [r3, #120]
 5942 0124 3097     		str	r7, [sp, #192]
 5943 0126 2DAF     		add	r7, sp, #180
 5944 0128 CDE94870 		strd	r7, r0, [sp, #288]
1469:../../Middlewares/AI_Runtime/Npu/ll_aton/ll_sw_float.c ****   ai_tensor *concat_operand1_ptr = NULL;
ARM GAS  C:\Users\Antonio\AppData\Local\Temp\cc6EBOZH.s 			page 152


 5945              		.loc 1 1469 3 is_stmt 1 view .LVU1552
1470:../../Middlewares/AI_Runtime/Npu/ll_aton/ll_sw_float.c ****   if (sw_info->num_of_inputs >= 3)
 5946              		.loc 1 1470 3 view .LVU1553
 5947              	.LVL233:
 5948              		.loc 1 1471 3 view .LVU1554
 5949 012c 58A8     		add	r0, sp, #352
 5950 012e 60AF     		add	r7, sp, #384
 5951              		.loc 1 1471 6 is_stmt 0 view .LVU1555
 5952 0130 49D9     		bls	.L154
 5953              	.LBB89:
1472:../../Middlewares/AI_Runtime/Npu/ll_aton/ll_sw_float.c ****   {
1473:../../Middlewares/AI_Runtime/Npu/ll_aton/ll_sw_float.c ****     concat_operand1 =
 5954              		.loc 1 1473 5 is_stmt 1 view .LVU1556
 5955              	.LBE89:
1474:../../Middlewares/AI_Runtime/Npu/ll_aton/ll_sw_float.c ****         (ai_tensor)AI_TENSOR_OBJ_INIT(0x0, 4,
1475:../../Middlewares/AI_Runtime/Npu/ll_aton/ll_sw_float.c ****                                       SHAPE_INIT(sw_info->operand1.dim.tensor_h, sw_info->operand1.
1476:../../Middlewares/AI_Runtime/Npu/ll_aton/ll_sw_float.c ****                                                  sw_info->operand1.dim.tensor_c, sw_info->operand1.
1477:../../Middlewares/AI_Runtime/Npu/ll_aton/ll_sw_float.c ****                                       STRIDE_INIT(sw_info->operand1.stride.h, sw_info->operand1.str
1478:../../Middlewares/AI_Runtime/Npu/ll_aton/ll_sw_float.c ****                                                   sw_info->operand1.stride.c, sw_info->operand1.str
1479:../../Middlewares/AI_Runtime/Npu/ll_aton/ll_sw_float.c ****                                       1, concat_operand_array1_ptr, NULL);
1480:../../Middlewares/AI_Runtime/Npu/ll_aton/ll_sw_float.c ****     concat_operand1_ptr = &concat_operand1;
1481:../../Middlewares/AI_Runtime/Npu/ll_aton/ll_sw_float.c ****   }
1482:../../Middlewares/AI_Runtime/Npu/ll_aton/ll_sw_float.c ****   ai_tensor concat_operand2;
1483:../../Middlewares/AI_Runtime/Npu/ll_aton/ll_sw_float.c ****   ai_tensor *concat_operand2_ptr = NULL;
1484:../../Middlewares/AI_Runtime/Npu/ll_aton/ll_sw_float.c ****   if (sw_info->num_of_inputs >= 4)
 5956              		.loc 1 1484 6 is_stmt 0 view .LVU1557
 5957 0132 B9F1030F 		cmp	r9, #3
 5958              	.LBB90:
1473:../../Middlewares/AI_Runtime/Npu/ll_aton/ll_sw_float.c ****         (ai_tensor)AI_TENSOR_OBJ_INIT(0x0, 4,
 5959              		.loc 1 1473 21 view .LVU1558
 5960 0136 CDE94A26 		strd	r2, r6, [sp, #296]
 5961 013a CDE94C50 		strd	r5, r0, [sp, #304]
 5962 013e CDE94E87 		strd	r8, r7, [sp, #312]
 5963 0142 5091     		str	r1, [sp, #320]
1480:../../Middlewares/AI_Runtime/Npu/ll_aton/ll_sw_float.c ****   }
 5964              		.loc 1 1480 5 is_stmt 1 view .LVU1559
 5965              	.LVL234:
1480:../../Middlewares/AI_Runtime/Npu/ll_aton/ll_sw_float.c ****   }
 5966              		.loc 1 1480 5 is_stmt 0 view .LVU1560
 5967              	.LBE90:
1482:../../Middlewares/AI_Runtime/Npu/ll_aton/ll_sw_float.c ****   ai_tensor *concat_operand2_ptr = NULL;
 5968              		.loc 1 1482 3 is_stmt 1 view .LVU1561
1483:../../Middlewares/AI_Runtime/Npu/ll_aton/ll_sw_float.c ****   if (sw_info->num_of_inputs >= 4)
 5969              		.loc 1 1483 3 view .LVU1562
 5970              		.loc 1 1484 3 view .LVU1563
 5971              		.loc 1 1484 6 is_stmt 0 view .LVU1564
 5972 0144 41D0     		beq	.L155
 5973              	.LBB91:
1485:../../Middlewares/AI_Runtime/Npu/ll_aton/ll_sw_float.c ****   {
1486:../../Middlewares/AI_Runtime/Npu/ll_aton/ll_sw_float.c ****     concat_operand2 =
 5974              		.loc 1 1486 5 is_stmt 1 view .LVU1565
 5975              		.loc 1 1486 21 is_stmt 0 view .LVU1566
 5976 0146 CDE95350 		strd	r5, r0, [sp, #332]
 5977 014a CDE95587 		strd	r8, r7, [sp, #340]
 5978 014e CDE95126 		strd	r2, r6, [sp, #324]
 5979 0152 CDF85CC1 		str	ip, [sp, #348]
1487:../../Middlewares/AI_Runtime/Npu/ll_aton/ll_sw_float.c ****         (ai_tensor)AI_TENSOR_OBJ_INIT(0x0, 4,
ARM GAS  C:\Users\Antonio\AppData\Local\Temp\cc6EBOZH.s 			page 153


1488:../../Middlewares/AI_Runtime/Npu/ll_aton/ll_sw_float.c ****                                       SHAPE_INIT(sw_info->operand2.dim.tensor_h, sw_info->operand2.
1489:../../Middlewares/AI_Runtime/Npu/ll_aton/ll_sw_float.c ****                                                  sw_info->operand2.dim.tensor_c, sw_info->operand2.
1490:../../Middlewares/AI_Runtime/Npu/ll_aton/ll_sw_float.c ****                                       STRIDE_INIT(sw_info->operand2.stride.h, sw_info->operand2.str
1491:../../Middlewares/AI_Runtime/Npu/ll_aton/ll_sw_float.c ****                                                   sw_info->operand2.stride.c, sw_info->operand2.str
1492:../../Middlewares/AI_Runtime/Npu/ll_aton/ll_sw_float.c ****                                       1, concat_operand_array2_ptr, NULL);
1493:../../Middlewares/AI_Runtime/Npu/ll_aton/ll_sw_float.c ****     concat_operand2_ptr = &concat_operand2;
 5980              		.loc 1 1493 5 is_stmt 1 view .LVU1567
 5981              	.LVL235:
 5982              		.loc 1 1493 5 is_stmt 0 view .LVU1568
 5983 0156 4AA9     		add	r1, sp, #296
 5984              	.LVL236:
 5985              		.loc 1 1493 25 view .LVU1569
 5986 0158 51AA     		add	r2, sp, #324
 5987              	.LVL237:
 5988              	.L151:
 5989              		.loc 1 1493 25 view .LVU1570
 5990              	.LBE91:
1494:../../Middlewares/AI_Runtime/Npu/ll_aton/ll_sw_float.c ****   }
1495:../../Middlewares/AI_Runtime/Npu/ll_aton/ll_sw_float.c **** 
1496:../../Middlewares/AI_Runtime/Npu/ll_aton/ll_sw_float.c ****   // tensor chains init
1497:../../Middlewares/AI_Runtime/Npu/ll_aton/ll_sw_float.c ****   AI_TENSOR_CHAIN_OBJ_DECLARE(
 5991              		.loc 1 1497 3 is_stmt 1 view .LVU1571
 5992 015a 0425     		movs	r5, #4
 5993 015c 0395     		str	r5, [sp, #12]
 5994 015e 6095     		str	r5, [sp, #384]
 5995 0160 35AD     		add	r5, sp, #212
 5996 0162 3195     		str	r5, [sp, #196]
 5997 0164 3492     		str	r2, [sp, #208]
 5998 0166 43AD     		add	r5, sp, #268
 5999 0168 31AA     		add	r2, sp, #196
 6000              	.LVL238:
 6001              		.loc 1 1497 3 is_stmt 0 view .LVU1572
 6002 016a CDE93251 		strd	r5, r1, [sp, #200]
 6003 016e 6192     		str	r2, [sp, #388]
 6004 0170 0121     		movs	r1, #1
 6005 0172 0022     		movs	r2, #0
 6006 0174 CDE96221 		strd	r2, r1, [sp, #392]
 6007 0178 3CA9     		add	r1, sp, #240
 6008 017a 0091     		str	r1, [sp]
 6009 017c 01A9     		add	r1, sp, #4
 6010 017e CDE96712 		strd	r1, r2, [sp, #412]
 6011 0182 02A9     		add	r1, sp, #8
 6012 0184 CDE96A12 		strd	r1, r2, [sp, #424]
1498:../../Middlewares/AI_Runtime/Npu/ll_aton/ll_sw_float.c ****       concat_chain, , 4,
1499:../../Middlewares/AI_Runtime/Npu/ll_aton/ll_sw_float.c ****       AI_TENSOR_LIST_OBJ_INIT(AI_FLAG_NONE, 4,
1500:../../Middlewares/AI_Runtime/Npu/ll_aton/ll_sw_float.c ****                               TENSORS(&input_output, &concat_operand, concat_operand1_ptr, concat_o
1501:../../Middlewares/AI_Runtime/Npu/ll_aton/ll_sw_float.c ****       AI_TENSOR_LIST_OBJ_INIT(AI_FLAG_NONE, 1, TENSORS(&concat_output)), AI_TENSOR_LIST_OBJ_EMPTY,
1502:../../Middlewares/AI_Runtime/Npu/ll_aton/ll_sw_float.c ****       AI_TENSOR_LIST_OBJ_EMPTY)
1503:../../Middlewares/AI_Runtime/Npu/ll_aton/ll_sw_float.c ****   AI_LAYER_OBJ_DECLARE(concat_layer, 1, CONCAT_TYPE, 0x0, NULL, concat, forward_concat, &concat_cha
 6013              		.loc 1 1503 3 view .LVU1573
 6014 0188 1249     		ldr	r1, .L157+4
1497:../../Middlewares/AI_Runtime/Npu/ll_aton/ll_sw_float.c ****       concat_chain, , 4,
 6015              		.loc 1 1497 3 view .LVU1574
 6016 018a CDE96522 		strd	r2, r2, [sp, #404]
 6017              		.loc 1 1503 3 view .LVU1575
 6018 018e CDE95812 		strd	r1, r2, [sp, #352]
 6019 0192 CDE95A22 		strd	r2, r2, [sp, #360]
ARM GAS  C:\Users\Antonio\AppData\Local\Temp\cc6EBOZH.s 			page 154


 6020 0196 DB6D     		ldr	r3, [r3, #92]
 6021              	.LVL239:
1497:../../Middlewares/AI_Runtime/Npu/ll_aton/ll_sw_float.c ****       concat_chain, , 4,
 6022              		.loc 1 1497 3 view .LVU1576
 6023 0198 0192     		str	r2, [sp, #4]
 6024 019a 6992     		str	r2, [sp, #420]
 6025 019c 0292     		str	r2, [sp, #8]
 6026              		.loc 1 1503 3 view .LVU1577
 6027 019e 5C92     		str	r2, [sp, #368]
 6028 01a0 0D4A     		ldr	r2, .L157+8
1497:../../Middlewares/AI_Runtime/Npu/ll_aton/ll_sw_float.c ****       concat_chain, , 4,
 6029              		.loc 1 1497 3 view .LVU1578
 6030 01a2 03AC     		add	r4, sp, #12
 6031              		.loc 1 1503 3 view .LVU1579
 6032 01a4 CDE95D24 		strd	r2, r4, [sp, #372]
1497:../../Middlewares/AI_Runtime/Npu/ll_aton/ll_sw_float.c ****       concat_chain, , 4,
 6033              		.loc 1 1497 3 view .LVU1580
 6034 01a8 CDF890D1 		str	sp, [sp, #400]
 6035 01ac 0497     		str	r7, [sp, #16]
 6036              		.loc 1 1503 3 is_stmt 1 view .LVU1581
 6037 01ae 5F93     		str	r3, [sp, #380]
1504:../../Middlewares/AI_Runtime/Npu/ll_aton/ll_sw_float.c ****                        .axis = sw_info->concat_axis)
1505:../../Middlewares/AI_Runtime/Npu/ll_aton/ll_sw_float.c ****   concat_layer.forward(AI_LAYER_OBJ(&concat_layer));
 6038              		.loc 1 1505 3 view .LVU1582
 6039 01b0 FFF7FEFF 		bl	forward_concat
 6040              	.LVL240:
1506:../../Middlewares/AI_Runtime/Npu/ll_aton/ll_sw_float.c **** }
 6041              		.loc 1 1506 1 is_stmt 0 view .LVU1583
 6042 01b4 6CB0     		add	sp, sp, #432
 6043              		.cfi_remember_state
 6044              		.cfi_def_cfa_offset 32
 6045              		@ sp needed
 6046 01b6 BDE8F087 		pop	{r4, r5, r6, r7, r8, r9, r10, pc}
 6047              	.LVL241:
 6048              	.L152:
 6049              		.cfi_restore_state
1431:../../Middlewares/AI_Runtime/Npu/ll_aton/ll_sw_float.c ****   if (sw_info->num_of_inputs >= 3)
 6050              		.loc 1 1431 13 view .LVU1584
 6051 01ba 0021     		movs	r1, #0
 6052              	.LVL242:
 6053              	.L156:
1440:../../Middlewares/AI_Runtime/Npu/ll_aton/ll_sw_float.c ****   if (sw_info->num_of_inputs >= 4)
 6054              		.loc 1 1440 13 view .LVU1585
 6055 01bc 4FF0000C 		mov	ip, #0
 6056 01c0 58E7     		b	.L150
 6057              	.LVL243:
 6058              	.L153:
1440:../../Middlewares/AI_Runtime/Npu/ll_aton/ll_sw_float.c ****   if (sw_info->num_of_inputs >= 4)
 6059              		.loc 1 1440 13 view .LVU1586
 6060 01c2 11A9     		add	r1, sp, #68
 6061              	.LVL244:
1440:../../Middlewares/AI_Runtime/Npu/ll_aton/ll_sw_float.c ****   if (sw_info->num_of_inputs >= 4)
 6062              		.loc 1 1440 13 view .LVU1587
 6063 01c4 FAE7     		b	.L156
 6064              	.LVL245:
 6065              	.L154:
1470:../../Middlewares/AI_Runtime/Npu/ll_aton/ll_sw_float.c ****   if (sw_info->num_of_inputs >= 3)
ARM GAS  C:\Users\Antonio\AppData\Local\Temp\cc6EBOZH.s 			page 155


 6066              		.loc 1 1470 14 view .LVU1588
 6067 01c6 1146     		mov	r1, r2
 6068 01c8 C7E7     		b	.L151
 6069              	.LVL246:
 6070              	.L155:
1470:../../Middlewares/AI_Runtime/Npu/ll_aton/ll_sw_float.c ****   if (sw_info->num_of_inputs >= 3)
 6071              		.loc 1 1470 14 view .LVU1589
 6072 01ca 4AA9     		add	r1, sp, #296
 6073              	.LVL247:
1470:../../Middlewares/AI_Runtime/Npu/ll_aton/ll_sw_float.c ****   if (sw_info->num_of_inputs >= 3)
 6074              		.loc 1 1470 14 view .LVU1590
 6075 01cc C5E7     		b	.L151
 6076              	.L158:
 6077 01ce 00BF     		.align	2
 6078              	.L157:
 6079 01d0 40108200 		.word	8523840
 6080 01d4 10010100 		.word	65808
 6081 01d8 00000000 		.word	forward_concat
 6082              		.cfi_endproc
 6083              	.LFE34:
 6085              		.section	.rodata.CSWTCH.22,"a"
 6086              		.align	2
 6089              	CSWTCH.22:
 6090 0000 00000000 		.word	0
 6091 0004 FFFF7F7F 		.word	2139095039
 6092 0008 00000000 		.word	0
 6093 000c 00000000 		.word	0
 6094 0010 00000000 		.word	0
 6095              		.section	.rodata.CSWTCH.21,"a"
 6096              		.align	2
 6099              	CSWTCH.21:
 6100 0000 00000000 		.word	ai_sum
 6101 0004 00000000 		.word	ai_min
 6102 0008 00000000 		.word	0
 6103 000c 00000000 		.word	ai_max
 6104 0010 00000000 		.word	ai_max
 6105              		.section	.rodata.CSWTCH.14,"a"
 6106              		.align	2
 6109              	CSWTCH.14:
 6110 0000 00000000 		.word	ai_sub_buffer
 6111 0004 00000000 		.word	ai_mul_buffer
 6112 0008 00000000 		.word	ai_div_buffer
 6113 000c 00000000 		.word	ai_sum_buffer
 6114 0010 00000000 		.word	ai_sum_buffer
 6115 0014 00000000 		.word	ai_sum_buffer
 6116 0018 00000000 		.word	ai_sum_buffer
 6117 001c 00000000 		.word	ai_sum_buffer
 6118 0020 00000000 		.word	ai_sum_buffer
 6119 0024 00000000 		.word	ai_sum_buffer
 6120 0028 00000000 		.word	ai_sum_buffer
 6121 002c 00000000 		.word	ai_sum_buffer
 6122 0030 00000000 		.word	ai_sum_buffer
 6123 0034 00000000 		.word	ai_sum_buffer
 6124 0038 00000000 		.word	ai_sum_buffer
 6125 003c 00000000 		.word	ai_sum_buffer
 6126 0040 00000000 		.word	ai_sum_buffer
 6127 0044 00000000 		.word	ai_sum_buffer
ARM GAS  C:\Users\Antonio\AppData\Local\Temp\cc6EBOZH.s 			page 156


 6128 0048 00000000 		.word	ai_sum_buffer
 6129 004c 00000000 		.word	ai_sum_buffer
 6130 0050 00000000 		.word	ai_sum_buffer
 6131 0054 00000000 		.word	ai_sum_buffer
 6132 0058 00000000 		.word	ai_sum_buffer
 6133 005c 00000000 		.word	ai_sum_buffer
 6134 0060 00000000 		.word	ai_sum_buffer
 6135 0064 00000000 		.word	ai_sum_buffer
 6136 0068 00000000 		.word	ai_sum_buffer
 6137 006c 00000000 		.word	ai_sum_buffer
 6138 0070 00000000 		.word	ai_sum_buffer
 6139 0074 00000000 		.word	ai_sum_buffer
 6140 0078 00000000 		.word	ai_sum_buffer
 6141 007c 00000000 		.word	ai_sum_buffer
 6142 0080 00000000 		.word	ai_sum_buffer
 6143 0084 00000000 		.word	ai_pow_buffer
 6144 0088 00000000 		.word	ai_sum_buffer
 6145 008c 00000000 		.word	ai_sum_buffer
 6146 0090 00000000 		.word	ai_sum_buffer
 6147 0094 00000000 		.word	ai_equal_buffer
 6148 0098 00000000 		.word	ai_greater_buffer
 6149 009c 00000000 		.word	ai_less_buffer
 6150 00a0 00000000 		.word	ai_greater_or_equal_buffer
 6151 00a4 00000000 		.word	ai_less_or_equal_buffer
 6152 00a8 00000000 		.word	ai_sum_buffer
 6153 00ac 00000000 		.word	ai_sum_buffer
 6154 00b0 00000000 		.word	ai_sum_buffer
 6155 00b4 00000000 		.word	ai_sum_buffer
 6156 00b8 00000000 		.word	ai_sum_buffer
 6157 00bc 00000000 		.word	ai_sum_buffer
 6158 00c0 00000000 		.word	ai_sum_buffer
 6159 00c4 00000000 		.word	ai_sum_buffer
 6160 00c8 00000000 		.word	ai_sum_buffer
 6161 00cc 00000000 		.word	ai_sum_buffer
 6162 00d0 00000000 		.word	ai_sum_buffer
 6163 00d4 00000000 		.word	ai_sum_buffer
 6164 00d8 00000000 		.word	ai_sum_buffer
 6165 00dc 00000000 		.word	ai_sum_buffer
 6166 00e0 00000000 		.word	ai_sum_buffer
 6167 00e4 00000000 		.word	ai_sum_buffer
 6168 00e8 00000000 		.word	ai_sum_buffer
 6169 00ec 00000000 		.word	ai_sum_buffer
 6170 00f0 00000000 		.word	ai_min_buffer
 6171 00f4 00000000 		.word	ai_max_buffer
 6172 00f8 00000000 		.word	ai_sum_buffer
 6173 00fc 00000000 		.word	ai_sum_buffer
 6174 0100 00000000 		.word	ai_floor_mod_buffer
 6175              		.section	.rodata.CSWTCH.13,"a"
 6176              		.align	2
 6179              	CSWTCH.13:
 6180 0000 00000000 		.word	ai_sub
 6181 0004 00000000 		.word	ai_mul
 6182 0008 00000000 		.word	ai_div
 6183 000c 00000000 		.word	ai_sum
 6184 0010 00000000 		.word	ai_sum
 6185 0014 00000000 		.word	ai_sum
 6186 0018 00000000 		.word	ai_sum
ARM GAS  C:\Users\Antonio\AppData\Local\Temp\cc6EBOZH.s 			page 157


 6187 001c 00000000 		.word	ai_sum
 6188 0020 00000000 		.word	ai_sum
 6189 0024 00000000 		.word	ai_sum
 6190 0028 00000000 		.word	ai_sum
 6191 002c 00000000 		.word	ai_sum
 6192 0030 00000000 		.word	ai_sum
 6193 0034 00000000 		.word	ai_sum
 6194 0038 00000000 		.word	ai_sum
 6195 003c 00000000 		.word	ai_sum
 6196 0040 00000000 		.word	ai_sum
 6197 0044 00000000 		.word	ai_sum
 6198 0048 00000000 		.word	ai_sum
 6199 004c 00000000 		.word	ai_sum
 6200 0050 00000000 		.word	ai_sum
 6201 0054 00000000 		.word	ai_sum
 6202 0058 00000000 		.word	ai_sum
 6203 005c 00000000 		.word	ai_sum
 6204 0060 00000000 		.word	ai_sum
 6205 0064 00000000 		.word	ai_sum
 6206 0068 00000000 		.word	ai_sum
 6207 006c 00000000 		.word	ai_sum
 6208 0070 00000000 		.word	ai_sum
 6209 0074 00000000 		.word	ai_sum
 6210 0078 00000000 		.word	ai_sum
 6211 007c 00000000 		.word	ai_sum
 6212 0080 00000000 		.word	ai_sum
 6213 0084 00000000 		.word	ai_pow
 6214 0088 00000000 		.word	ai_sum
 6215 008c 00000000 		.word	ai_sum
 6216 0090 00000000 		.word	ai_sum
 6217 0094 00000000 		.word	ai_equal
 6218 0098 00000000 		.word	ai_greater
 6219 009c 00000000 		.word	ai_less
 6220 00a0 00000000 		.word	ai_greater_or_equal
 6221 00a4 00000000 		.word	ai_less_or_equal
 6222 00a8 00000000 		.word	ai_sum
 6223 00ac 00000000 		.word	ai_sum
 6224 00b0 00000000 		.word	ai_sum
 6225 00b4 00000000 		.word	ai_sum
 6226 00b8 00000000 		.word	ai_sum
 6227 00bc 00000000 		.word	ai_sum
 6228 00c0 00000000 		.word	ai_sum
 6229 00c4 00000000 		.word	ai_sum
 6230 00c8 00000000 		.word	ai_sum
 6231 00cc 00000000 		.word	ai_sum
 6232 00d0 00000000 		.word	ai_sum
 6233 00d4 00000000 		.word	ai_sum
 6234 00d8 00000000 		.word	ai_sum
 6235 00dc 00000000 		.word	ai_sum
 6236 00e0 00000000 		.word	ai_sum
 6237 00e4 00000000 		.word	ai_sum
 6238 00e8 00000000 		.word	ai_sum
 6239 00ec 00000000 		.word	ai_sum
 6240 00f0 00000000 		.word	ai_min
 6241 00f4 00000000 		.word	ai_max
 6242 00f8 00000000 		.word	ai_sum
 6243 00fc 00000000 		.word	ai_sum
ARM GAS  C:\Users\Antonio\AppData\Local\Temp\cc6EBOZH.s 			page 158


 6244 0100 00000000 		.word	ai_floor_mod
 6245              		.section	.rodata.CSWTCH.4,"a"
 6248              	CSWTCH.4:
 6249 0000 00       		.byte	0
 6250 0001 01       		.byte	1
 6251 0002 03       		.byte	3
 6252 0003 02       		.byte	2
 6253              		.text
 6254              	.Letext0:
 6255              		.file 3 "C:\\ST\\STM32CubeIDE_1.19.0\\STM32CubeIDE\\plugins\\com.st.stm32cube.ide.mcu.externaltool
 6256              		.file 4 "C:\\ST\\STM32CubeIDE_1.19.0\\STM32CubeIDE\\plugins\\com.st.stm32cube.ide.mcu.externaltool
 6257              		.file 5 "../../Middlewares/AI_Runtime/Npu/ll_aton/ll_sw.h"
 6258              		.file 6 "../../Middlewares/AI_Runtime/Inc/ai_platform.h"
 6259              		.file 7 "../../Middlewares/AI_Runtime/Inc/datatypes_network.h"
 6260              		.file 8 "../../Middlewares/AI_Runtime/Inc/ai_datatypes_format.h"
 6261              		.file 9 "../../Middlewares/AI_Runtime/Inc/ai_platform_interface.h"
 6262              		.file 10 "../../Middlewares/AI_Runtime/Inc/core_common.h"
 6263              		.file 11 "../../Middlewares/AI_Runtime/Inc/core_datatypes.h"
 6264              		.file 12 "../../Middlewares/AI_Runtime/Inc/layers_common.h"
 6265              		.file 13 "../../Middlewares/AI_Runtime/Inc/layers_nl.h"
 6266              		.file 14 "../../Middlewares/AI_Runtime/Inc/layers_pool.h"
 6267              		.file 15 "../../Middlewares/AI_Runtime/Inc/layers_conv2d.h"
 6268              		.file 16 "../../Middlewares/AI_Runtime/Inc/layers_generic.h"
 6269              		.file 17 "../../Middlewares/AI_Runtime/Inc/layers_norm.h"
 6270              		.file 18 "../../Middlewares/AI_Runtime/Inc/ai_math_helpers.h"
 6271              		.file 19 "../../Middlewares/AI_Runtime/Inc/layers_upsample_generic.h"
 6272              		.file 20 "C:\\ST\\STM32CubeIDE_1.19.0\\STM32CubeIDE\\plugins\\com.st.stm32cube.ide.mcu.externaltoo
 6273              		.file 21 "<built-in>"
ARM GAS  C:\Users\Antonio\AppData\Local\Temp\cc6EBOZH.s 			page 159


DEFINED SYMBOLS
                            *ABS*:00000000 ll_sw_float.c
C:\Users\Antonio\AppData\Local\Temp\cc6EBOZH.s:26     .text.ll_sw_forward_conv:00000000 $t
C:\Users\Antonio\AppData\Local\Temp\cc6EBOZH.s:32     .text.ll_sw_forward_conv:00000000 ll_sw_forward_conv
C:\Users\Antonio\AppData\Local\Temp\cc6EBOZH.s:411    .text.ll_sw_forward_conv:00000270 $d
C:\Users\Antonio\AppData\Local\Temp\cc6EBOZH.s:419    .text.ll_sw_forward_gemm:00000000 $t
C:\Users\Antonio\AppData\Local\Temp\cc6EBOZH.s:425    .text.ll_sw_forward_gemm:00000000 ll_sw_forward_gemm
C:\Users\Antonio\AppData\Local\Temp\cc6EBOZH.s:713    .text.ll_sw_forward_gemm:000001ac $d
C:\Users\Antonio\AppData\Local\Temp\cc6EBOZH.s:720    .text.ll_sw_forward_matmul:00000000 $t
C:\Users\Antonio\AppData\Local\Temp\cc6EBOZH.s:726    .text.ll_sw_forward_matmul:00000000 ll_sw_forward_matmul
C:\Users\Antonio\AppData\Local\Temp\cc6EBOZH.s:931    .text.ll_sw_forward_matmul:00000130 $d
C:\Users\Antonio\AppData\Local\Temp\cc6EBOZH.s:938    .text.ll_sw_forward_resize:00000000 $t
C:\Users\Antonio\AppData\Local\Temp\cc6EBOZH.s:944    .text.ll_sw_forward_resize:00000000 ll_sw_forward_resize
C:\Users\Antonio\AppData\Local\Temp\cc6EBOZH.s:1210   .text.ll_sw_forward_resize:00000178 $d
C:\Users\Antonio\AppData\Local\Temp\cc6EBOZH.s:1219   .text.ll_sw_forward_softmax:00000000 $t
C:\Users\Antonio\AppData\Local\Temp\cc6EBOZH.s:1225   .text.ll_sw_forward_softmax:00000000 ll_sw_forward_softmax
C:\Users\Antonio\AppData\Local\Temp\cc6EBOZH.s:1484   .text.ll_sw_forward_softmax:00000160 $d
C:\Users\Antonio\AppData\Local\Temp\cc6EBOZH.s:6248   .rodata.CSWTCH.4:00000000 CSWTCH.4
C:\Users\Antonio\AppData\Local\Temp\cc6EBOZH.s:1494   .text.ll_sw_forward_activ:00000000 $t
C:\Users\Antonio\AppData\Local\Temp\cc6EBOZH.s:1500   .text.ll_sw_forward_activ:00000000 ll_sw_forward_activ
C:\Users\Antonio\AppData\Local\Temp\cc6EBOZH.s:1656   .text.ll_sw_forward_activ:000000dc $d
C:\Users\Antonio\AppData\Local\Temp\cc6EBOZH.s:1735   .text.ll_sw_forward_activ:0000017a $t
C:\Users\Antonio\AppData\Local\Temp\cc6EBOZH.s:1899   .text.ll_sw_forward_activ:00000274 $d
C:\Users\Antonio\AppData\Local\Temp\cc6EBOZH.s:1908   .text.ll_sw_forward_activ:00000288 $t
C:\Users\Antonio\AppData\Local\Temp\cc6EBOZH.s:2429   .text.ll_sw_forward_activ:00000550 $d
C:\Users\Antonio\AppData\Local\Temp\cc6EBOZH.s:2457   .text.ll_sw_forward_activ:000005b0 $t
C:\Users\Antonio\AppData\Local\Temp\cc6EBOZH.s:2663   .text.ll_sw_forward_activ:000006c8 $d
C:\Users\Antonio\AppData\Local\Temp\cc6EBOZH.s:2677   .text.ll_sw_forward_arith:00000000 $t
C:\Users\Antonio\AppData\Local\Temp\cc6EBOZH.s:2683   .text.ll_sw_forward_arith:00000000 ll_sw_forward_arith
C:\Users\Antonio\AppData\Local\Temp\cc6EBOZH.s:3068   .text.ll_sw_forward_arith:00000290 $d
C:\Users\Antonio\AppData\Local\Temp\cc6EBOZH.s:6179   .rodata.CSWTCH.13:00000000 CSWTCH.13
C:\Users\Antonio\AppData\Local\Temp\cc6EBOZH.s:6109   .rodata.CSWTCH.14:00000000 CSWTCH.14
C:\Users\Antonio\AppData\Local\Temp\cc6EBOZH.s:3079   .text.ll_sw_forward_arith:000002ac $t
C:\Users\Antonio\AppData\Local\Temp\cc6EBOZH.s:3163   .text.ll_sw_forward_arith:0000034c $d
C:\Users\Antonio\AppData\Local\Temp\cc6EBOZH.s:3169   .text.ll_sw_forward_pool:00000000 $t
C:\Users\Antonio\AppData\Local\Temp\cc6EBOZH.s:3175   .text.ll_sw_forward_pool:00000000 ll_sw_forward_pool
C:\Users\Antonio\AppData\Local\Temp\cc6EBOZH.s:3389   .text.ll_sw_forward_pool:00000130 $d
C:\Users\Antonio\AppData\Local\Temp\cc6EBOZH.s:3397   .text.ll_sw_forward_global_pool:00000000 $t
C:\Users\Antonio\AppData\Local\Temp\cc6EBOZH.s:3403   .text.ll_sw_forward_global_pool:00000000 ll_sw_forward_global_pool
C:\Users\Antonio\AppData\Local\Temp\cc6EBOZH.s:3595   .text.ll_sw_forward_global_pool:00000118 $d
C:\Users\Antonio\AppData\Local\Temp\cc6EBOZH.s:3603   .text.ll_sw_forward_argmax:00000000 $t
C:\Users\Antonio\AppData\Local\Temp\cc6EBOZH.s:3609   .text.ll_sw_forward_argmax:00000000 ll_sw_forward_argmax
C:\Users\Antonio\AppData\Local\Temp\cc6EBOZH.s:3788   .text.ll_sw_forward_argmax:00000104 $d
C:\Users\Antonio\AppData\Local\Temp\cc6EBOZH.s:3797   .text.ll_sw_forward_gather:00000000 $t
C:\Users\Antonio\AppData\Local\Temp\cc6EBOZH.s:3803   .text.ll_sw_forward_gather:00000000 ll_sw_forward_gather
C:\Users\Antonio\AppData\Local\Temp\cc6EBOZH.s:4028   .text.ll_sw_forward_gather:00000148 $d
C:\Users\Antonio\AppData\Local\Temp\cc6EBOZH.s:4037   .text.ll_sw_forward_argmin:00000000 $t
C:\Users\Antonio\AppData\Local\Temp\cc6EBOZH.s:4043   .text.ll_sw_forward_argmin:00000000 ll_sw_forward_argmin
C:\Users\Antonio\AppData\Local\Temp\cc6EBOZH.s:4222   .text.ll_sw_forward_argmin:00000104 $d
C:\Users\Antonio\AppData\Local\Temp\cc6EBOZH.s:4231   .text.ll_sw_forward_reduce:00000000 $t
C:\Users\Antonio\AppData\Local\Temp\cc6EBOZH.s:4237   .text.ll_sw_forward_reduce:00000000 ll_sw_forward_reduce
C:\Users\Antonio\AppData\Local\Temp\cc6EBOZH.s:4489   .text.ll_sw_forward_reduce:00000148 $d
C:\Users\Antonio\AppData\Local\Temp\cc6EBOZH.s:6089   .rodata.CSWTCH.22:00000000 CSWTCH.22
C:\Users\Antonio\AppData\Local\Temp\cc6EBOZH.s:6099   .rodata.CSWTCH.21:00000000 CSWTCH.21
C:\Users\Antonio\AppData\Local\Temp\cc6EBOZH.s:4500   .text.ll_sw_forward_bn:00000000 $t
C:\Users\Antonio\AppData\Local\Temp\cc6EBOZH.s:4506   .text.ll_sw_forward_bn:00000000 ll_sw_forward_bn
C:\Users\Antonio\AppData\Local\Temp\cc6EBOZH.s:4676   .text.ll_sw_forward_bn:000000a4 $d
ARM GAS  C:\Users\Antonio\AppData\Local\Temp\cc6EBOZH.s 			page 160


C:\Users\Antonio\AppData\Local\Temp\cc6EBOZH.s:4681   .text.ll_sw_forward_instance_normalization:00000000 $t
C:\Users\Antonio\AppData\Local\Temp\cc6EBOZH.s:4687   .text.ll_sw_forward_instance_normalization:00000000 ll_sw_forward_instance_normalization
C:\Users\Antonio\AppData\Local\Temp\cc6EBOZH.s:4960   .text.ll_sw_forward_instance_normalization:0000019c $d
C:\Users\Antonio\AppData\Local\Temp\cc6EBOZH.s:4968   .text.ll_sw_forward_lpnormalization:00000000 $t
C:\Users\Antonio\AppData\Local\Temp\cc6EBOZH.s:4974   .text.ll_sw_forward_lpnormalization:00000000 ll_sw_forward_lpnormalization
C:\Users\Antonio\AppData\Local\Temp\cc6EBOZH.s:5166   .text.ll_sw_forward_lpnormalization:0000010c $d
C:\Users\Antonio\AppData\Local\Temp\cc6EBOZH.s:5174   .text.ll_sw_forward_sign:00000000 $t
C:\Users\Antonio\AppData\Local\Temp\cc6EBOZH.s:5180   .text.ll_sw_forward_sign:00000000 ll_sw_forward_sign
C:\Users\Antonio\AppData\Local\Temp\cc6EBOZH.s:5340   .text.ll_sw_forward_sign:000000e8 $d
C:\Users\Antonio\AppData\Local\Temp\cc6EBOZH.s:5347   .text.ll_sw_forward_lrn:00000000 $t
C:\Users\Antonio\AppData\Local\Temp\cc6EBOZH.s:5353   .text.ll_sw_forward_lrn:00000000 ll_sw_forward_lrn
C:\Users\Antonio\AppData\Local\Temp\cc6EBOZH.s:5529   .text.ll_sw_forward_lrn:000000f8 $d
C:\Users\Antonio\AppData\Local\Temp\cc6EBOZH.s:5536   .text.ll_sw_forward_tile:00000000 $t
C:\Users\Antonio\AppData\Local\Temp\cc6EBOZH.s:5542   .text.ll_sw_forward_tile:00000000 ll_sw_forward_tile
C:\Users\Antonio\AppData\Local\Temp\cc6EBOZH.s:5734   .text.ll_sw_forward_tile:00000114 $d
C:\Users\Antonio\AppData\Local\Temp\cc6EBOZH.s:5742   .text.ll_sw_forward_concat:00000000 $t
C:\Users\Antonio\AppData\Local\Temp\cc6EBOZH.s:5748   .text.ll_sw_forward_concat:00000000 ll_sw_forward_concat
C:\Users\Antonio\AppData\Local\Temp\cc6EBOZH.s:6079   .text.ll_sw_forward_concat:000001d0 $d
C:\Users\Antonio\AppData\Local\Temp\cc6EBOZH.s:6086   .rodata.CSWTCH.22:00000000 $d
C:\Users\Antonio\AppData\Local\Temp\cc6EBOZH.s:6096   .rodata.CSWTCH.21:00000000 $d
C:\Users\Antonio\AppData\Local\Temp\cc6EBOZH.s:6106   .rodata.CSWTCH.14:00000000 $d
C:\Users\Antonio\AppData\Local\Temp\cc6EBOZH.s:6176   .rodata.CSWTCH.13:00000000 $d
                           .group:00000000 wm4.0.edffc6ad2f5eb1e671bbefdf8c481eb3
                           .group:00000000 wm4.ll_aton_config.h.20.79eb8be0291ee9086e6be08969d61846
                           .group:00000000 wm4._newlib_version.h.4.411db44ea2338a62eca2f0777f81481b
                           .group:00000000 wm4.newlib.h.27.a82728f74da661df333d09507bfef510
                           .group:00000000 wm4.ieeefp.h.77.bd5feb87d9990dd328793ced294f6a87
                           .group:00000000 wm4.features.h.22.9dfb1293666eb4caf24cccb81c86a551
                           .group:00000000 wm4.config.h.224.10ee1ad185d877c6e334e6581faab44d
                           .group:00000000 wm4._ansi.h.31.de524f58584151836e90d8620a16f8e8
                           .group:00000000 wm4.assert.h.11.db24e541f16414db224bf986d21017e2
                           .group:00000000 wm4._default_types.h.6.959254cf5f09734ea7516c89e8bb21bd
                           .group:00000000 wm4._intsup.h.10.48bafbb683905c4daa4565a85aeeb264
                           .group:00000000 wm4._stdint.h.10.c24fa3af3bc1706662bb5593a907e841
                           .group:00000000 wm4.stdint.h.23.d53047a68f4a85177f80b422d52785ed
                           .group:00000000 wm4.stdio.h.27.3fc80220048df77954e38daec3bb9670
                           .group:00000000 wm4.stddef.h.185.cbb642e1ccd385e8aa504b15cb7fb086
                           .group:00000000 wm4.cdefs.h.49.70fc7af612f78ddcace70fdd90b5623b
                           .group:00000000 wm4.stddef.h.39.6817658cc6bc4c7c8354d2009e4a5777
                           .group:00000000 wm4.stdarg.h.34.3a23a216c0c293b3d2ea2e89281481e6
                           .group:00000000 wm4._types.h.20.dd0d04dca3800a0d2a6129b87f3adbb2
                           .group:00000000 wm4.stddef.h.158.6f8e08a347b1cff664332fa350bfceb3
                           .group:00000000 wm4._types.h.127.3bdfe3ff8ea2d0985b03d9cbe93480e3
                           .group:00000000 wm4.reent.h.18.25503cdc8b7e55dd0d6ea7b3e5af7a03
                           .group:00000000 wm4.lock.h.2.1461d1fff82dffe8bfddc23307f6484f
                           .group:00000000 wm4.reent.h.78.6b87466b04591b1f1cb88c14fdf2ba9e
                           .group:00000000 wm4.stdio.h.67.0cf8a9c281ab0b348aef5c02e7e48825
                           .group:00000000 wm4.stdio.h.2.4aa87247282eca6c8f36f9de33d8df1a
                           .group:00000000 wm4.stdio.h.87.a1e20d2651f9bfb66e51bfbe849db00a
                           .group:00000000 wm4.stdbool.h.29.c08aa3eec75cf5b9b5003883f43253f0
                           .group:00000000 wm4.string.h.8.c4b8571ce60dff2817f43fec8b86aecd
                           .group:00000000 wm4.stddef.h.158.eec8bf00b5213f43d095cb984c5f22e3
                           .group:00000000 wm4.string.h.177.59a005921fa78485abc80a0267de5752
                           .group:00000000 wm4.inttypes.h.14.b28deb26920e51e0da310220ef0f9003
                           .group:00000000 wm4.inttypes.h.28.684aa7736e7ecc9a6ffc44acc61c7a90
                           .group:00000000 wm4.ai_platform.h.28.c058f0275203ef49c6ebffc19c3186b7
                           .group:00000000 wm4.datatypes_network.h.19.0916132781a5a985d4857655dae04a72
ARM GAS  C:\Users\Antonio\AppData\Local\Temp\cc6EBOZH.s 			page 161


                           .group:00000000 wm4.core_assert.h.19.bbca5bb3090ffa7dddc8f8ab2ac82724
                           .group:00000000 wm4.ai_datatypes_defines.h.32.7c74a350659aaf8415fab7bed7e2285d
                           .group:00000000 wm4.ai_datatypes_format.h.19.1a802854dffbcb65ea52443a8fe88175
                           .group:00000000 wm4.ai_datatypes_format.h.392.61aa27312938e25431eaac70519dcc7b
                           .group:00000000 wm4.stai.h.24.047ed770e826b060ae588c09e0a616c3
                           .group:00000000 wm4.ai_platform_interface.h.30.2ea047b53ca1b81608da569a3716f521
                           .group:00000000 wm4.ai_datatypes.h.32.d5dda011299ea885036e6533ca9dee42
                           .group:00000000 wm4.ai_datatypes_internal.h.49.5ab3a9b7b297be1460f6458ee1870b58
                           .group:00000000 wm4.math.h.13.47cfc34cae8a1153323939c4d32cf7c2
                           .group:00000000 wm4.syslimits.h.34.de5cbd310098bc5895998b6bde577ed2
                           .group:00000000 wm4.limits.h.9.70fb0ada6f71b16202a66baaa6d8ea70
                           .group:00000000 wm4.limits.h.60.56a1ae353e2028a24298ec6463b8b593
                           .group:00000000 wm4.ai_lite_math_helpers.h.28.5a4e48e259ebe557bbbffc7ac6527059
                           .group:00000000 wm4.ai_math_helpers.h.23.a19c785e74bb0bde4af288ca79a63b1f
                           .group:00000000 wm4.core_log.h.19.dbcf060b9a897e8bc8903452f7768b3b
                           .group:00000000 wm4.core_private.h.38.c86eca07862e08e6af28e4a25308dec9
                           .group:00000000 wm4.ai_common_config.h.19.fb67468a4f6fea8360e0f37e5f15139c
                           .group:00000000 wm4.core_datatypes.h.20.58ef6790ff0a420b96cf262297c683be
                           .group:00000000 wm4.core_common.h.65.4551a4f0a625b0033601444691182d61
                           .group:00000000 wm4.layers_common.h.30.b37bee6f76b8177da41061225fdf3d98
                           .group:00000000 wm4.layers_list.h.38.597d64c0da3bd66032dd7b6f2140ca64
                           .group:00000000 wm4.layers_common.h.162.48d6ce1fc28d2c9f3e577717d3440b72
                           .group:00000000 wm4.ai_lite.h.19.9f8b519f46333304e1e5858b36e90592
                           .group:00000000 wm4.ai_lite_interface.h.39.74c820fd88c5a59637552e47cb0a5e08
                           .group:00000000 wm4.lite_nl_list.h.71.82af4649e7198012c12f18657d35b60a
                           .group:00000000 wm4.lite_pool_f32.h.19.ea8272c420c3cb80b24c7967417cd16e
                           .group:00000000 wm4.layers_generic.h.20.cfdfcf3e49665b526d3aad72d3499238
                           .group:00000000 wm4.layers_ml_treeensembleclassifier.h.20.1b484c65846fc8b1b6d60458adee6a2f
                           .group:00000000 wm4.layers_conv2d_dqnn.h.19.58bd281048af34dc1f0e1185dd771f04
                           .group:00000000 wm4.assert.h.11.d99a111e320bc5106fc4046225782672
                           .group:00000000 wm4.errno.h.2.ba016d646105af6cad23be83630b6a3f
                           .group:00000000 wm4.errno.h.9.ae5ea2b0ff9ea6e39e585807e35200d3
                           .group:00000000 wm4.ll_aton_util.h.34.a290753adbb2447ca7ee3415db495399

UNDEFINED SYMBOLS
memset
forward_conv2d_if32of32wf32_group
forward_gemm
forward_matmul
forward_upsample_zeros
forward_resize
forward_sm
forward_relu
forward_clip
forward_prelu
forward_elu
forward_relu_thresholded
forward_selu
forward_ceil
forward_floor
forward_exp
forward_log
forward_acos
forward_acosh
forward_asin
forward_asinh
forward_atan
ARM GAS  C:\Users\Antonio\AppData\Local\Temp\cc6EBOZH.s 			page 162


forward_atanh
forward_cos
forward_cosh
forward_sin
forward_sinh
forward_tanh
forward_tan
forward_sigmoid
forward_sqrt
forward_erf
forward_soft_plus
forward_soft_sign
forward_hard_sigmoid
forward_swish
forward_hard_swish
forward_hardmax
forward_abs
forward_neg
forward_reciprocal
forward_round
forward_eltwise
ai_sum
ai_sum_buffer
forward_ap
forward_mp
forward_argmax
forward_gather
forward_argmin
forward_reduce_log_sum_exp
forward_reduce
sqrtf
forward_instanceNormalization
forward_norm
forward_sign
forward_lrn
forward_tile
forward_concat
ai_min
ai_max
ai_sub_buffer
ai_mul_buffer
ai_div_buffer
ai_pow_buffer
ai_equal_buffer
ai_greater_buffer
ai_less_buffer
ai_greater_or_equal_buffer
ai_less_or_equal_buffer
ai_min_buffer
ai_max_buffer
ai_floor_mod_buffer
ai_sub
ai_mul
ai_div
ai_pow
ai_equal
ai_greater
ARM GAS  C:\Users\Antonio\AppData\Local\Temp\cc6EBOZH.s 			page 163


ai_less
ai_greater_or_equal
ai_less_or_equal
ai_floor_mod
