ARM GAS  C:\Users\Antonio\AppData\Local\Temp\cc6EBOZH.s 			page 1


   1              		.arch armv8.1-m.main
   2              		.fpu fpv5-d16
   3              		.arch_extension dsp
   4              		.arch_extension fp
   5              		.arch_extension fp.dp
   6              		.arch_extension mve
   7              		.arch_extension mve.fp
   8              		.eabi_attribute 5, "cortex-m55"
   9              		.eabi_attribute 28, 1
  10              		.eabi_attribute 20, 1
  11              		.eabi_attribute 21, 1
  12              		.eabi_attribute 23, 3
  13              		.eabi_attribute 24, 1
  14              		.eabi_attribute 25, 1
  15              		.eabi_attribute 26, 1
  16              		.eabi_attribute 30, 4
  17              		.eabi_attribute 34, 1
  18              		.eabi_attribute 38, 1
  19              		.eabi_attribute 18, 4
  20              		.file	"ll_sw_float.c"
  21              		.text
  22              	.Ltext0:
  23              		.cfi_sections	.debug_frame
  24              		.file 1 "../../Middlewares/AI_Runtime/Npu/ll_aton/ll_sw_float.c"
  25              		.section	.text.ll_sw_forward_conv,"ax",%progbits
  26              		.align	1
  27              		.global	ll_sw_forward_conv
  28              		.syntax unified
  29              		.thumb
  30              		.thumb_func
  32              	ll_sw_forward_conv:
  33              	.LVL0:
  34              	.LFB15:
   1:../../Middlewares/AI_Runtime/Npu/ll_aton/ll_sw_float.c **** /**
   2:../../Middlewares/AI_Runtime/Npu/ll_aton/ll_sw_float.c ****  ******************************************************************************
   3:../../Middlewares/AI_Runtime/Npu/ll_aton/ll_sw_float.c ****  * @file    ll_sw_float.c
   4:../../Middlewares/AI_Runtime/Npu/ll_aton/ll_sw_float.c ****  * @author  SRA Artificial Intelligence & Embedded Architectures
   5:../../Middlewares/AI_Runtime/Npu/ll_aton/ll_sw_float.c ****  * @brief   Low Level Software library for Floating Point inference interfacing with EmbedNets(c)
   6:../../Middlewares/AI_Runtime/Npu/ll_aton/ll_sw_float.c ****  ******************************************************************************
   7:../../Middlewares/AI_Runtime/Npu/ll_aton/ll_sw_float.c ****  * @attention
   8:../../Middlewares/AI_Runtime/Npu/ll_aton/ll_sw_float.c ****  *
   9:../../Middlewares/AI_Runtime/Npu/ll_aton/ll_sw_float.c ****  * Copyright (c) 2024 STMicroelectronics.
  10:../../Middlewares/AI_Runtime/Npu/ll_aton/ll_sw_float.c ****  * All rights reserved.
  11:../../Middlewares/AI_Runtime/Npu/ll_aton/ll_sw_float.c ****  *
  12:../../Middlewares/AI_Runtime/Npu/ll_aton/ll_sw_float.c ****  * This software is licensed under terms that can be found in the LICENSE file
  13:../../Middlewares/AI_Runtime/Npu/ll_aton/ll_sw_float.c ****  * in the root directory of this software component.
  14:../../Middlewares/AI_Runtime/Npu/ll_aton/ll_sw_float.c ****  * If no LICENSE file comes with this software, it is provided AS-IS.
  15:../../Middlewares/AI_Runtime/Npu/ll_aton/ll_sw_float.c ****  *
  16:../../Middlewares/AI_Runtime/Npu/ll_aton/ll_sw_float.c ****  ******************************************************************************
  17:../../Middlewares/AI_Runtime/Npu/ll_aton/ll_sw_float.c ****  */
  18:../../Middlewares/AI_Runtime/Npu/ll_aton/ll_sw_float.c **** 
  19:../../Middlewares/AI_Runtime/Npu/ll_aton/ll_sw_float.c **** #include "ll_aton_config.h"
  20:../../Middlewares/AI_Runtime/Npu/ll_aton/ll_sw_float.c **** 
  21:../../Middlewares/AI_Runtime/Npu/ll_aton/ll_sw_float.c **** #if LL_ATON_SW_FALLBACK == 1
  22:../../Middlewares/AI_Runtime/Npu/ll_aton/ll_sw_float.c **** 
  23:../../Middlewares/AI_Runtime/Npu/ll_aton/ll_sw_float.c **** #include <assert.h>
  24:../../Middlewares/AI_Runtime/Npu/ll_aton/ll_sw_float.c **** #include <stdint.h>
ARM GAS  C:\Users\Antonio\AppData\Local\Temp\cc6EBOZH.s 			page 2


  25:../../Middlewares/AI_Runtime/Npu/ll_aton/ll_sw_float.c **** #include <stdio.h>
  26:../../Middlewares/AI_Runtime/Npu/ll_aton/ll_sw_float.c **** 
  27:../../Middlewares/AI_Runtime/Npu/ll_aton/ll_sw_float.c **** #include "ll_sw.h"
  28:../../Middlewares/AI_Runtime/Npu/ll_aton/ll_sw_float.c **** #include "ll_sw_float.h"
  29:../../Middlewares/AI_Runtime/Npu/ll_aton/ll_sw_float.c **** 
  30:../../Middlewares/AI_Runtime/Npu/ll_aton/ll_sw_float.c **** #include "ai_datatypes_internal.h"
  31:../../Middlewares/AI_Runtime/Npu/ll_aton/ll_sw_float.c **** #include "ai_math_helpers.h"
  32:../../Middlewares/AI_Runtime/Npu/ll_aton/ll_sw_float.c **** #include "core_private.h"
  33:../../Middlewares/AI_Runtime/Npu/ll_aton/ll_sw_float.c **** #include "layers.h"
  34:../../Middlewares/AI_Runtime/Npu/ll_aton/ll_sw_float.c **** #include "ll_aton_util.h"
  35:../../Middlewares/AI_Runtime/Npu/ll_aton/ll_sw_float.c **** 
  36:../../Middlewares/AI_Runtime/Npu/ll_aton/ll_sw_float.c **** #define FORMAT AI_ARRAY_FORMAT_FLOAT
  37:../../Middlewares/AI_Runtime/Npu/ll_aton/ll_sw_float.c **** 
  38:../../Middlewares/AI_Runtime/Npu/ll_aton/ll_sw_float.c **** #define SHAPE_INIT(a_, b_, c_, d_) AI_SHAPE_INIT(4, (d_), (c_), (b_), (a_))
  39:../../Middlewares/AI_Runtime/Npu/ll_aton/ll_sw_float.c **** 
  40:../../Middlewares/AI_Runtime/Npu/ll_aton/ll_sw_float.c **** #define SHAPE_2D_INIT(h_, w_) AI_SHAPE_2D_INIT((w_), (h_))
  41:../../Middlewares/AI_Runtime/Npu/ll_aton/ll_sw_float.c **** 
  42:../../Middlewares/AI_Runtime/Npu/ll_aton/ll_sw_float.c **** #define STRIDE_INIT(a_, b_, c_, d_) AI_STRIDE_INIT(4, (d_), (c_), (b_), (a_))
  43:../../Middlewares/AI_Runtime/Npu/ll_aton/ll_sw_float.c **** 
  44:../../Middlewares/AI_Runtime/Npu/ll_aton/ll_sw_float.c **** #define TENSORS(...) __VA_ARGS__
  45:../../Middlewares/AI_Runtime/Npu/ll_aton/ll_sw_float.c **** 
  46:../../Middlewares/AI_Runtime/Npu/ll_aton/ll_sw_float.c **** /* Managing shape index to be consistent with the enum in embednets ai_platform.h */
  47:../../Middlewares/AI_Runtime/Npu/ll_aton/ll_sw_float.c **** static int helper_emit_shape_index_axis(int onnx_axis)
  48:../../Middlewares/AI_Runtime/Npu/ll_aton/ll_sw_float.c **** {
  49:../../Middlewares/AI_Runtime/Npu/ll_aton/ll_sw_float.c ****   switch (onnx_axis)
  50:../../Middlewares/AI_Runtime/Npu/ll_aton/ll_sw_float.c ****   {
  51:../../Middlewares/AI_Runtime/Npu/ll_aton/ll_sw_float.c ****   case 0:
  52:../../Middlewares/AI_Runtime/Npu/ll_aton/ll_sw_float.c ****     return AI_SHAPE_IN_CHANNEL;
  53:../../Middlewares/AI_Runtime/Npu/ll_aton/ll_sw_float.c ****   case 1:
  54:../../Middlewares/AI_Runtime/Npu/ll_aton/ll_sw_float.c ****     return AI_SHAPE_CHANNEL;
  55:../../Middlewares/AI_Runtime/Npu/ll_aton/ll_sw_float.c ****   case 2:
  56:../../Middlewares/AI_Runtime/Npu/ll_aton/ll_sw_float.c ****     return AI_SHAPE_HEIGHT; // note the switch required with case 3
  57:../../Middlewares/AI_Runtime/Npu/ll_aton/ll_sw_float.c ****   case 3:
  58:../../Middlewares/AI_Runtime/Npu/ll_aton/ll_sw_float.c ****     return AI_SHAPE_WIDTH; // note the switch required with case 2
  59:../../Middlewares/AI_Runtime/Npu/ll_aton/ll_sw_float.c ****   default:
  60:../../Middlewares/AI_Runtime/Npu/ll_aton/ll_sw_float.c **** #ifdef LL_SW_ENABLE_ASSERTS
  61:../../Middlewares/AI_Runtime/Npu/ll_aton/ll_sw_float.c ****     LL_ATON_ASSERT(0 && "axis index not supported");
  62:../../Middlewares/AI_Runtime/Npu/ll_aton/ll_sw_float.c **** #endif
  63:../../Middlewares/AI_Runtime/Npu/ll_aton/ll_sw_float.c ****     return -1;
  64:../../Middlewares/AI_Runtime/Npu/ll_aton/ll_sw_float.c ****   }
  65:../../Middlewares/AI_Runtime/Npu/ll_aton/ll_sw_float.c **** }
  66:../../Middlewares/AI_Runtime/Npu/ll_aton/ll_sw_float.c **** 
  67:../../Middlewares/AI_Runtime/Npu/ll_aton/ll_sw_float.c **** //##########################################################################################
  68:../../Middlewares/AI_Runtime/Npu/ll_aton/ll_sw_float.c **** /** Conv forward function */
  69:../../Middlewares/AI_Runtime/Npu/ll_aton/ll_sw_float.c **** void ll_sw_forward_conv(/* int processor, */ void *sw_info_struct)
  70:../../Middlewares/AI_Runtime/Npu/ll_aton/ll_sw_float.c **** {
  35              		.loc 1 70 1 view -0
  36              		.cfi_startproc
  37              		@ args = 0, pretend = 0, frame = 488
  38              		@ frame_needed = 0, uses_anonymous_args = 0
  71:../../Middlewares/AI_Runtime/Npu/ll_aton/ll_sw_float.c ****   Conv_sw_info *sw_info = (Conv_sw_info *)sw_info_struct;
  39              		.loc 1 71 3 view .LVU1
  72:../../Middlewares/AI_Runtime/Npu/ll_aton/ll_sw_float.c ****   // array init
  73:../../Middlewares/AI_Runtime/Npu/ll_aton/ll_sw_float.c ****   AI_ARRAY_OBJ_DECLARE(input_output_array, FORMAT, sw_info->general.input.mem.start_offset,
  40              		.loc 1 73 3 view .LVU2
  70:../../Middlewares/AI_Runtime/Npu/ll_aton/ll_sw_float.c ****   Conv_sw_info *sw_info = (Conv_sw_info *)sw_info_struct;
  41              		.loc 1 70 1 is_stmt 0 view .LVU3
ARM GAS  C:\Users\Antonio\AppData\Local\Temp\cc6EBOZH.s 			page 3


  42 0000 2DE9F04F 		push	{r4, r5, r6, r7, r8, r9, r10, fp, lr}
  43              		.cfi_def_cfa_offset 36
  44              		.cfi_offset 4, -36
  45              		.cfi_offset 5, -32
  46              		.cfi_offset 6, -28
  47              		.cfi_offset 7, -24
  48              		.cfi_offset 8, -20
  49              		.cfi_offset 9, -16
  50              		.cfi_offset 10, -12
  51              		.cfi_offset 11, -8
  52              		.cfi_offset 14, -4
  74:../../Middlewares/AI_Runtime/Npu/ll_aton/ll_sw_float.c ****                        sw_info->general.input.mem.start_offset, sw_info->general.input.dim.num_elem
  75:../../Middlewares/AI_Runtime/Npu/ll_aton/ll_sw_float.c ****   AI_ARRAY_OBJ_DECLARE(conv_weights_array, FORMAT, sw_info->weights.mem.start_offset, sw_info->weig
  76:../../Middlewares/AI_Runtime/Npu/ll_aton/ll_sw_float.c ****                        sw_info->weights.dim.num_elem, )
  77:../../Middlewares/AI_Runtime/Npu/ll_aton/ll_sw_float.c ****   AI_ARRAY_OBJ_DECLARE(conv_output_array, FORMAT, sw_info->general.output.mem.start_offset,
  78:../../Middlewares/AI_Runtime/Npu/ll_aton/ll_sw_float.c ****                        sw_info->general.output.mem.start_offset, sw_info->general.output.dim.num_el
  79:../../Middlewares/AI_Runtime/Npu/ll_aton/ll_sw_float.c **** 
  80:../../Middlewares/AI_Runtime/Npu/ll_aton/ll_sw_float.c ****   AI_TENSOR_OBJ_DECLARE(conv_weights, , 0x0, 4,
  53              		.loc 1 80 3 view .LVU4
  54 0004 0021     		movs	r1, #0
  55 0006 4FF0827E 		mov	lr, #17039360
  56 000a 40F2014A 		movw	r10, #1025
  77:../../Middlewares/AI_Runtime/Npu/ll_aton/ll_sw_float.c ****                        sw_info->general.output.mem.start_offset, sw_info->general.output.dim.num_el
  57              		.loc 1 77 3 view .LVU5
  58 000e 026C     		ldr	r2, [r0, #64]
  70:../../Middlewares/AI_Runtime/Npu/ll_aton/ll_sw_float.c ****   Conv_sw_info *sw_info = (Conv_sw_info *)sw_info_struct;
  59              		.loc 1 70 1 view .LVU6
  60 0010 FBB0     		sub	sp, sp, #492
  61              		.cfi_def_cfa_offset 528
  62              		.loc 1 80 3 view .LVU7
  63 0012 40F2024C 		movw	ip, #1026
  77:../../Middlewares/AI_Runtime/Npu/ll_aton/ll_sw_float.c ****                        sw_info->general.output.mem.start_offset, sw_info->general.output.dim.num_el
  64              		.loc 1 77 3 view .LVU8
  65 0016 1692     		str	r2, [sp, #88]
  66 0018 426D     		ldr	r2, [r0, #84]
  73:../../Middlewares/AI_Runtime/Npu/ll_aton/ll_sw_float.c ****                        sw_info->general.input.mem.start_offset, sw_info->general.input.dim.num_elem
  67              		.loc 1 73 3 view .LVU9
  68 001a 4369     		ldr	r3, [r0, #20]
  77:../../Middlewares/AI_Runtime/Npu/ll_aton/ll_sw_float.c ****                        sw_info->general.output.mem.start_offset, sw_info->general.output.dim.num_el
  69              		.loc 1 77 3 view .LVU10
  70 001c CDE91722 		strd	r2, r2, [sp, #92]
  71              		.loc 1 80 3 view .LVU11
  72 0020 426E     		ldr	r2, [r0, #100]
  73:../../Middlewares/AI_Runtime/Npu/ll_aton/ll_sw_float.c ****                        sw_info->general.input.mem.start_offset, sw_info->general.input.dim.num_elem
  73              		.loc 1 73 3 view .LVU12
  74 0022 0E93     		str	r3, [sp, #56]
  75              		.loc 1 80 3 view .LVU13
  76 0024 1992     		str	r2, [sp, #100]
  73:../../Middlewares/AI_Runtime/Npu/ll_aton/ll_sw_float.c ****                        sw_info->general.input.mem.start_offset, sw_info->general.input.dim.num_elem
  77              		.loc 1 73 3 view .LVU14
  78 0026 836A     		ldr	r3, [r0, #40]
  79              		.loc 1 80 3 view .LVU15
  80 0028 026E     		ldr	r2, [r0, #96]
  73:../../Middlewares/AI_Runtime/Npu/ll_aton/ll_sw_float.c ****                        sw_info->general.input.mem.start_offset, sw_info->general.input.dim.num_elem
  81              		.loc 1 73 3 view .LVU16
  82 002a CDE90F33 		strd	r3, r3, [sp, #60]
  75:../../Middlewares/AI_Runtime/Npu/ll_aton/ll_sw_float.c ****                        sw_info->weights.dim.num_elem, )
ARM GAS  C:\Users\Antonio\AppData\Local\Temp\cc6EBOZH.s 			page 4


  83              		.loc 1 75 3 is_stmt 1 view .LVU17
  84              		.loc 1 80 3 is_stmt 0 view .LVU18
  85 002e 1A92     		str	r2, [sp, #104]
  75:../../Middlewares/AI_Runtime/Npu/ll_aton/ll_sw_float.c ****                        sw_info->weights.dim.num_elem, )
  86              		.loc 1 75 3 view .LVU19
  87 0030 C36E     		ldr	r3, [r0, #108]
  88              		.loc 1 80 3 view .LVU20
  89 0032 C26D     		ldr	r2, [r0, #92]
  73:../../Middlewares/AI_Runtime/Npu/ll_aton/ll_sw_float.c ****                        sw_info->general.input.mem.start_offset, sw_info->general.input.dim.num_elem
  90              		.loc 1 73 3 view .LVU21
  91 0034 DFF840B2 		ldr	fp, .L5+8
  75:../../Middlewares/AI_Runtime/Npu/ll_aton/ll_sw_float.c ****                        sw_info->weights.dim.num_elem, )
  92              		.loc 1 75 3 view .LVU22
  93 0038 1293     		str	r3, [sp, #72]
  94              		.loc 1 80 3 view .LVU23
  95 003a 1B92     		str	r2, [sp, #108]
  75:../../Middlewares/AI_Runtime/Npu/ll_aton/ll_sw_float.c ****                        sw_info->weights.dim.num_elem, )
  96              		.loc 1 75 3 view .LVU24
  97 003c D0F88030 		ldr	r3, [r0, #128]
  98              		.loc 1 80 3 view .LVU25
  99 0040 826E     		ldr	r2, [r0, #104]
 100 0042 19AE     		add	r6, sp, #100
  75:../../Middlewares/AI_Runtime/Npu/ll_aton/ll_sw_float.c ****                        sw_info->weights.dim.num_elem, )
 101              		.loc 1 75 3 view .LVU26
 102 0044 CDE91333 		strd	r3, r3, [sp, #76]
  77:../../Middlewares/AI_Runtime/Npu/ll_aton/ll_sw_float.c ****                        sw_info->general.output.mem.start_offset, sw_info->general.output.dim.num_el
 103              		.loc 1 77 3 is_stmt 1 view .LVU27
 104              		.loc 1 80 3 view .LVU28
 105 0048 1C92     		str	r2, [sp, #112]
 106 004a CDE9411E 		strd	r1, lr, [sp, #260]
  73:../../Middlewares/AI_Runtime/Npu/ll_aton/ll_sw_float.c ****                        sw_info->general.input.mem.start_offset, sw_info->general.input.dim.num_elem
 107              		.loc 1 73 3 is_stmt 0 view .LVU29
 108 004e CDF834B0 		str	fp, [sp, #52]
  75:../../Middlewares/AI_Runtime/Npu/ll_aton/ll_sw_float.c ****                        sw_info->weights.dim.num_elem, )
 109              		.loc 1 75 3 view .LVU30
 110 0052 CDF844B0 		str	fp, [sp, #68]
  77:../../Middlewares/AI_Runtime/Npu/ll_aton/ll_sw_float.c ****                        sw_info->general.output.mem.start_offset, sw_info->general.output.dim.num_el
 111              		.loc 1 77 3 view .LVU31
 112 0056 CDF854B0 		str	fp, [sp, #84]
 113              		.loc 1 80 3 view .LVU32
 114 005a CDF80CA1 		str	r10, [sp, #268]
 115 005e 4496     		str	r6, [sp, #272]
 116 0060 C26F     		ldr	r2, [r0, #124]
  75:../../Middlewares/AI_Runtime/Npu/ll_aton/ll_sw_float.c ****                        sw_info->weights.dim.num_elem, )
 117              		.loc 1 75 3 view .LVU33
 118 0062 11AD     		add	r5, sp, #68
 119              		.loc 1 80 3 view .LVU34
 120 0064 CDE91D22 		strd	r2, r2, [sp, #116]
 121 0068 426F     		ldr	r2, [r0, #116]
 122 006a 1DAE     		add	r6, sp, #116
 123 006c 1F92     		str	r2, [sp, #124]
 124 006e 026F     		ldr	r2, [r0, #112]
 125 0070 CDE94665 		strd	r6, r5, [sp, #280]
  81:../../Middlewares/AI_Runtime/Npu/ll_aton/ll_sw_float.c ****                         SHAPE_INIT(sw_info->weights.dim.tensor_b, sw_info->weights.dim.tensor_h,
  82:../../Middlewares/AI_Runtime/Npu/ll_aton/ll_sw_float.c ****                                    sw_info->weights.dim.tensor_w, sw_info->weights.dim.tensor_c),
  83:../../Middlewares/AI_Runtime/Npu/ll_aton/ll_sw_float.c ****                         STRIDE_INIT(sw_info->weights.stride.h, sw_info->weights.stride.w, sw_info->
  84:../../Middlewares/AI_Runtime/Npu/ll_aton/ll_sw_float.c ****                                     sw_info->weights.stride.b),
ARM GAS  C:\Users\Antonio\AppData\Local\Temp\cc6EBOZH.s 			page 5


  85:../../Middlewares/AI_Runtime/Npu/ll_aton/ll_sw_float.c ****                         1, &conv_weights_array, NULL);
 126              		.loc 1 85 54 is_stmt 1 view .LVU35
  86:../../Middlewares/AI_Runtime/Npu/ll_aton/ll_sw_float.c ****   AI_TENSOR_OBJ_DECLARE(input_output, , 0x0, 4,
 127              		.loc 1 86 3 view .LVU36
  80:../../Middlewares/AI_Runtime/Npu/ll_aton/ll_sw_float.c ****                         SHAPE_INIT(sw_info->weights.dim.tensor_b, sw_info->weights.dim.tensor_h,
 128              		.loc 1 80 3 is_stmt 0 view .LVU37
 129 0074 2092     		str	r2, [sp, #128]
 130              		.loc 1 86 3 view .LVU38
 131 0076 0269     		ldr	r2, [r0, #16]
 132 0078 21AD     		add	r5, sp, #132
 133 007a 2192     		str	r2, [sp, #132]
 134 007c C268     		ldr	r2, [r0, #12]
 135 007e CDE94B5C 		strd	r5, ip, [sp, #300]
 136 0082 2292     		str	r2, [sp, #136]
 137 0084 8268     		ldr	r2, [r0, #8]
  73:../../Middlewares/AI_Runtime/Npu/ll_aton/ll_sw_float.c ****                        sw_info->general.input.mem.start_offset, sw_info->general.input.dim.num_elem
 138              		.loc 1 73 3 view .LVU39
 139 0086 0DAC     		add	r4, sp, #52
 140              		.loc 1 86 3 view .LVU40
 141 0088 2392     		str	r2, [sp, #140]
 142 008a 4268     		ldr	r2, [r0, #4]
 143 008c 25AD     		add	r5, sp, #148
 144 008e 2492     		str	r2, [sp, #144]
 145 0090 426A     		ldr	r2, [r0, #36]
 146 0092 CDE9481E 		strd	r1, lr, [sp, #288]
 147 0096 2592     		str	r2, [sp, #148]
 148 0098 026A     		ldr	r2, [r0, #32]
  80:../../Middlewares/AI_Runtime/Npu/ll_aton/ll_sw_float.c ****                         SHAPE_INIT(sw_info->weights.dim.tensor_b, sw_info->weights.dim.tensor_h,
 149              		.loc 1 80 3 view .LVU41
 150 009a CDF814C1 		str	ip, [sp, #276]
 151              		.loc 1 86 3 view .LVU42
 152 009e 2692     		str	r2, [sp, #152]
 153 00a0 C269     		ldr	r2, [r0, #28]
 154 00a2 CDF828A1 		str	r10, [sp, #296]
 155 00a6 2792     		str	r2, [sp, #156]
 156 00a8 8269     		ldr	r2, [r0, #24]
  77:../../Middlewares/AI_Runtime/Npu/ll_aton/ll_sw_float.c ****                        sw_info->general.output.mem.start_offset, sw_info->general.output.dim.num_el
 157              		.loc 1 77 3 view .LVU43
 158 00aa 15AB     		add	r3, sp, #84
 159              		.loc 1 86 3 view .LVU44
 160 00ac 2892     		str	r2, [sp, #160]
 161 00ae CDE94D54 		strd	r5, r4, [sp, #308]
  87:../../Middlewares/AI_Runtime/Npu/ll_aton/ll_sw_float.c ****                         SHAPE_INIT(sw_info->general.input.dim.tensor_h, sw_info->general.input.dim.
  88:../../Middlewares/AI_Runtime/Npu/ll_aton/ll_sw_float.c ****                                    sw_info->general.input.dim.tensor_c, sw_info->general.input.dim.
  89:../../Middlewares/AI_Runtime/Npu/ll_aton/ll_sw_float.c ****                         STRIDE_INIT(sw_info->general.input.stride.h, sw_info->general.input.stride.
  90:../../Middlewares/AI_Runtime/Npu/ll_aton/ll_sw_float.c ****                                     sw_info->general.input.stride.c, sw_info->general.input.stride.
  91:../../Middlewares/AI_Runtime/Npu/ll_aton/ll_sw_float.c ****                         1, &input_output_array, NULL);
 162              		.loc 1 91 54 is_stmt 1 view .LVU45
  92:../../Middlewares/AI_Runtime/Npu/ll_aton/ll_sw_float.c ****   AI_TENSOR_OBJ_DECLARE(conv_output, , 0x0, 4,
 163              		.loc 1 92 3 view .LVU46
 164              	.LBB2:
  93:../../Middlewares/AI_Runtime/Npu/ll_aton/ll_sw_float.c ****                         SHAPE_INIT(sw_info->general.output.dim.tensor_h, sw_info->general.output.di
  94:../../Middlewares/AI_Runtime/Npu/ll_aton/ll_sw_float.c ****                                    sw_info->general.output.dim.tensor_c, sw_info->general.output.di
  95:../../Middlewares/AI_Runtime/Npu/ll_aton/ll_sw_float.c ****                         STRIDE_INIT(sw_info->general.output.stride.h, sw_info->general.output.strid
  96:../../Middlewares/AI_Runtime/Npu/ll_aton/ll_sw_float.c ****                                     sw_info->general.output.stride.c, sw_info->general.output.strid
  97:../../Middlewares/AI_Runtime/Npu/ll_aton/ll_sw_float.c ****                         1, &conv_output_array, NULL);
  98:../../Middlewares/AI_Runtime/Npu/ll_aton/ll_sw_float.c **** 
ARM GAS  C:\Users\Antonio\AppData\Local\Temp\cc6EBOZH.s 			page 6


  99:../../Middlewares/AI_Runtime/Npu/ll_aton/ll_sw_float.c ****   if (sw_info->bias.mem.start_offset != NULL)
 100:../../Middlewares/AI_Runtime/Npu/ll_aton/ll_sw_float.c ****   {
 101:../../Middlewares/AI_Runtime/Npu/ll_aton/ll_sw_float.c ****     AI_ARRAY_OBJ_DECLARE(conv_bias_array, FORMAT, sw_info->bias.mem.start_offset, sw_info->bias.mem
 102:../../Middlewares/AI_Runtime/Npu/ll_aton/ll_sw_float.c ****                          sw_info->bias.dim.num_elem, )
 103:../../Middlewares/AI_Runtime/Npu/ll_aton/ll_sw_float.c ****     AI_TENSOR_OBJ_DECLARE(
 104:../../Middlewares/AI_Runtime/Npu/ll_aton/ll_sw_float.c ****         conv_bias, , 0x0, 4,
 105:../../Middlewares/AI_Runtime/Npu/ll_aton/ll_sw_float.c ****         SHAPE_INIT(sw_info->bias.dim.tensor_h, sw_info->bias.dim.tensor_w, sw_info->bias.dim.tensor
 106:../../Middlewares/AI_Runtime/Npu/ll_aton/ll_sw_float.c ****                    sw_info->bias.dim.tensor_b),
 107:../../Middlewares/AI_Runtime/Npu/ll_aton/ll_sw_float.c ****         STRIDE_INIT(sw_info->bias.stride.h, sw_info->bias.stride.w, sw_info->bias.stride.c, sw_info
 108:../../Middlewares/AI_Runtime/Npu/ll_aton/ll_sw_float.c ****         &conv_bias_array, NULL);
 109:../../Middlewares/AI_Runtime/Npu/ll_aton/ll_sw_float.c **** 
 110:../../Middlewares/AI_Runtime/Npu/ll_aton/ll_sw_float.c ****     // tensor chain initialization
 111:../../Middlewares/AI_Runtime/Npu/ll_aton/ll_sw_float.c ****     AI_TENSOR_CHAIN_OBJ_DECLARE(conv_chain, , 4, AI_TENSOR_LIST_OBJ_INIT(AI_FLAG_NONE, 1, TENSORS(&
 112:../../Middlewares/AI_Runtime/Npu/ll_aton/ll_sw_float.c ****                                 AI_TENSOR_LIST_OBJ_INIT(AI_FLAG_NONE, 1, TENSORS(&conv_output)),
 113:../../Middlewares/AI_Runtime/Npu/ll_aton/ll_sw_float.c ****                                 AI_TENSOR_LIST_OBJ_INIT(AI_FLAG_NONE, 3, TENSORS(&conv_weights, &co
 114:../../Middlewares/AI_Runtime/Npu/ll_aton/ll_sw_float.c ****                                 AI_TENSOR_LIST_OBJ_INIT(AI_FLAG_NONE, 2, TENSORS(NULL, NULL)))
 115:../../Middlewares/AI_Runtime/Npu/ll_aton/ll_sw_float.c ****     // layer initialization
 116:../../Middlewares/AI_Runtime/Npu/ll_aton/ll_sw_float.c ****     AI_LAYER_OBJ_DECLARE(conv_layer, 1, CONV2D_TYPE, 0x0, NULL, conv2d, forward_conv2d_if32of32wf32
 165              		.loc 1 116 5 is_stmt 0 view .LVU47
 166 00b2 D0E94878 		ldrd	r7, r8, [r0, #288]
 167 00b6 D0E94C56 		ldrd	r5, r6, [r0, #304]
 168              	.LBE2:
  92:../../Middlewares/AI_Runtime/Npu/ll_aton/ll_sw_float.c ****   AI_TENSOR_OBJ_DECLARE(conv_output, , 0x0, 4,
 169              		.loc 1 92 3 view .LVU48
 170 00ba C26B     		ldr	r2, [r0, #60]
 171 00bc 29AC     		add	r4, sp, #164
 172 00be 2992     		str	r2, [sp, #164]
 173 00c0 826B     		ldr	r2, [r0, #56]
 174 00c2 CDE9524C 		strd	r4, ip, [sp, #328]
 175 00c6 2A92     		str	r2, [sp, #168]
 176 00c8 426B     		ldr	r2, [r0, #52]
 177 00ca 2DAC     		add	r4, sp, #180
 178 00cc 2B92     		str	r2, [sp, #172]
 179 00ce 026B     		ldr	r2, [r0, #48]
 180 00d0 CDE95443 		strd	r4, r3, [sp, #336]
  97:../../Middlewares/AI_Runtime/Npu/ll_aton/ll_sw_float.c **** 
 181              		.loc 1 97 53 is_stmt 1 view .LVU49
  99:../../Middlewares/AI_Runtime/Npu/ll_aton/ll_sw_float.c ****   {
 182              		.loc 1 99 3 view .LVU50
  92:../../Middlewares/AI_Runtime/Npu/ll_aton/ll_sw_float.c ****                         SHAPE_INIT(sw_info->general.output.dim.tensor_h, sw_info->general.output.di
 183              		.loc 1 92 3 is_stmt 0 view .LVU51
 184 00d4 2C92     		str	r2, [sp, #176]
 185 00d6 026D     		ldr	r2, [r0, #80]
 186 00d8 CDE94F1E 		strd	r1, lr, [sp, #316]
 187 00dc 2D92     		str	r2, [sp, #180]
 188 00de C26C     		ldr	r2, [r0, #76]
  99:../../Middlewares/AI_Runtime/Npu/ll_aton/ll_sw_float.c ****   {
 189              		.loc 1 99 24 view .LVU52
 190 00e0 D0F8D830 		ldr	r3, [r0, #216]
  92:../../Middlewares/AI_Runtime/Npu/ll_aton/ll_sw_float.c ****                         SHAPE_INIT(sw_info->general.output.dim.tensor_h, sw_info->general.output.di
 191              		.loc 1 92 3 view .LVU53
 192 00e4 2E92     		str	r2, [sp, #184]
 193 00e6 826C     		ldr	r2, [r0, #72]
 194              	.LBB3:
 195              		.loc 1 116 5 view .LVU54
 196 00e8 D0F80C91 		ldr	r9, [r0, #268]
 197              	.LBE3:
ARM GAS  C:\Users\Antonio\AppData\Local\Temp\cc6EBOZH.s 			page 7


  92:../../Middlewares/AI_Runtime/Npu/ll_aton/ll_sw_float.c ****                         SHAPE_INIT(sw_info->general.output.dim.tensor_h, sw_info->general.output.di
 198              		.loc 1 92 3 view .LVU55
 199 00ec 2F92     		str	r2, [sp, #188]
 200 00ee 426C     		ldr	r2, [r0, #68]
 201 00f0 CDF844A1 		str	r10, [sp, #324]
 202 00f4 3092     		str	r2, [sp, #192]
 203              	.LBB4:
 204              		.loc 1 116 5 view .LVU56
 205 00f6 D0F81021 		ldr	r2, [r0, #272]
 206 00fa 0092     		str	r2, [sp]
 207 00fc D0F81421 		ldr	r2, [r0, #276]
 208 0100 0192     		str	r2, [sp, #4]
 209 0102 D0F81821 		ldr	r2, [r0, #280]
 210 0106 0292     		str	r2, [sp, #8]
 211 0108 D0F81C21 		ldr	r2, [r0, #284]
 212 010c 0392     		str	r2, [sp, #12]
 213              	.LBE4:
  99:../../Middlewares/AI_Runtime/Npu/ll_aton/ll_sw_float.c ****   {
 214              		.loc 1 99 6 view .LVU57
 215 010e 002B     		cmp	r3, #0
 216 0110 6ED0     		beq	.L2
 217              	.LBB5:
 101:../../Middlewares/AI_Runtime/Npu/ll_aton/ll_sw_float.c ****                          sw_info->bias.dim.num_elem, )
 218              		.loc 1 101 5 is_stmt 1 view .LVU58
 219 0112 D0F8C440 		ldr	r4, [r0, #196]
 220 0116 3493     		str	r3, [sp, #208]
 103:../../Middlewares/AI_Runtime/Npu/ll_aton/ll_sw_float.c ****         conv_bias, , 0x0, 4,
 221              		.loc 1 103 5 view .LVU59
 101:../../Middlewares/AI_Runtime/Npu/ll_aton/ll_sw_float.c ****                          sw_info->bias.dim.num_elem, )
 222              		.loc 1 101 5 is_stmt 0 view .LVU60
 223 0118 CDE93243 		strd	r4, r3, [sp, #200]
 103:../../Middlewares/AI_Runtime/Npu/ll_aton/ll_sw_float.c ****         conv_bias, , 0x0, 4,
 224              		.loc 1 103 5 view .LVU61
 225 011c 35AB     		add	r3, sp, #212
 226 011e CDE9593C 		strd	r3, ip, [sp, #356]
 101:../../Middlewares/AI_Runtime/Npu/ll_aton/ll_sw_float.c ****                          sw_info->bias.dim.num_elem, )
 227              		.loc 1 101 5 view .LVU62
 228 0122 31AA     		add	r2, sp, #196
 103:../../Middlewares/AI_Runtime/Npu/ll_aton/ll_sw_float.c ****         conv_bias, , 0x0, 4,
 229              		.loc 1 103 5 view .LVU63
 230 0124 39AB     		add	r3, sp, #228
 231 0126 CDE95B32 		strd	r3, r2, [sp, #364]
 108:../../Middlewares/AI_Runtime/Npu/ll_aton/ll_sw_float.c **** 
 232              		.loc 1 108 32 is_stmt 1 view .LVU64
 111:../../Middlewares/AI_Runtime/Npu/ll_aton/ll_sw_float.c ****                                 AI_TENSOR_LIST_OBJ_INIT(AI_FLAG_NONE, 1, TENSORS(&conv_output)),
 233              		.loc 1 111 5 view .LVU65
 234 012a 0423     		movs	r3, #4
 235 012c 0693     		str	r3, [sp, #24]
 236 012e 0123     		movs	r3, #1
 103:../../Middlewares/AI_Runtime/Npu/ll_aton/ll_sw_float.c ****         conv_bias, , 0x0, 4,
 237              		.loc 1 103 5 is_stmt 0 view .LVU66
 238 0130 D0F8C040 		ldr	r4, [r0, #192]
 111:../../Middlewares/AI_Runtime/Npu/ll_aton/ll_sw_float.c ****                                 AI_TENSOR_LIST_OBJ_INIT(AI_FLAG_NONE, 1, TENSORS(&conv_output)),
 239              		.loc 1 111 5 view .LVU67
 240 0134 48AA     		add	r2, sp, #288
 103:../../Middlewares/AI_Runtime/Npu/ll_aton/ll_sw_float.c ****         conv_bias, , 0x0, 4,
 241              		.loc 1 103 5 view .LVU68
ARM GAS  C:\Users\Antonio\AppData\Local\Temp\cc6EBOZH.s 			page 8


 242 0136 3594     		str	r4, [sp, #212]
 243 0138 D0F8BC40 		ldr	r4, [r0, #188]
 111:../../Middlewares/AI_Runtime/Npu/ll_aton/ll_sw_float.c ****                                 AI_TENSOR_LIST_OBJ_INIT(AI_FLAG_NONE, 1, TENSORS(&conv_output)),
 244              		.loc 1 111 5 view .LVU69
 245 013c 0492     		str	r2, [sp, #16]
 103:../../Middlewares/AI_Runtime/Npu/ll_aton/ll_sw_float.c ****         conv_bias, , 0x0, 4,
 246              		.loc 1 103 5 view .LVU70
 247 013e 3694     		str	r4, [sp, #216]
 248 0140 D0F8B840 		ldr	r4, [r0, #184]
 111:../../Middlewares/AI_Runtime/Npu/ll_aton/ll_sw_float.c ****                                 AI_TENSOR_LIST_OBJ_INIT(AI_FLAG_NONE, 1, TENSORS(&conv_output)),
 249              		.loc 1 111 5 view .LVU71
 250 0144 04AA     		add	r2, sp, #16
 103:../../Middlewares/AI_Runtime/Npu/ll_aton/ll_sw_float.c ****         conv_bias, , 0x0, 4,
 251              		.loc 1 103 5 view .LVU72
 252 0146 3794     		str	r4, [sp, #220]
 253 0148 D0F8B440 		ldr	r4, [r0, #180]
 254 014c CDE9561E 		strd	r1, lr, [sp, #344]
 255 0150 3894     		str	r4, [sp, #224]
 256 0152 D0F8D440 		ldr	r4, [r0, #212]
 101:../../Middlewares/AI_Runtime/Npu/ll_aton/ll_sw_float.c ****                          sw_info->bias.dim.num_elem, )
 257              		.loc 1 101 5 view .LVU73
 258 0156 CDF8C4B0 		str	fp, [sp, #196]
 103:../../Middlewares/AI_Runtime/Npu/ll_aton/ll_sw_float.c ****         conv_bias, , 0x0, 4,
 259              		.loc 1 103 5 view .LVU74
 260 015a 3994     		str	r4, [sp, #228]
 261 015c D0F8D040 		ldr	r4, [r0, #208]
 111:../../Middlewares/AI_Runtime/Npu/ll_aton/ll_sw_float.c ****                                 AI_TENSOR_LIST_OBJ_INIT(AI_FLAG_NONE, 1, TENSORS(&conv_output)),
 262              		.loc 1 111 5 view .LVU75
 263 0160 5D93     		str	r3, [sp, #372]
 103:../../Middlewares/AI_Runtime/Npu/ll_aton/ll_sw_float.c ****         conv_bias, , 0x0, 4,
 264              		.loc 1 103 5 view .LVU76
 265 0162 3A94     		str	r4, [sp, #232]
 266 0164 D0F8CC40 		ldr	r4, [r0, #204]
 267 0168 D0F8C800 		ldr	r0, [r0, #200]
 268              	.LVL1:
 103:../../Middlewares/AI_Runtime/Npu/ll_aton/ll_sw_float.c ****         conv_bias, , 0x0, 4,
 269              		.loc 1 103 5 view .LVU77
 270 016c CDF860A1 		str	r10, [sp, #352]
 271 0170 3C90     		str	r0, [sp, #240]
 272 0172 3B94     		str	r4, [sp, #236]
 111:../../Middlewares/AI_Runtime/Npu/ll_aton/ll_sw_float.c ****                                 AI_TENSOR_LIST_OBJ_INIT(AI_FLAG_NONE, 1, TENSORS(&conv_output)),
 273              		.loc 1 111 5 view .LVU78
 274 0174 CDE95E21 		strd	r2, r1, [sp, #376]
 275 0178 6093     		str	r3, [sp, #384]
 276 017a 05AB     		add	r3, sp, #20
 277 017c CDE96131 		strd	r3, r1, [sp, #388]
 278 0180 0323     		movs	r3, #3
 279 0182 6393     		str	r3, [sp, #396]
 280 0184 0AAB     		add	r3, sp, #40
 281 0186 CDE96431 		strd	r3, r1, [sp, #400]
 282 018a 0223     		movs	r3, #2
 283 018c 4FAA     		add	r2, sp, #316
 284 018e 6693     		str	r3, [sp, #408]
 285 0190 08AB     		add	r3, sp, #32
 286 0192 CDE96731 		strd	r3, r1, [sp, #412]
 287 0196 0592     		str	r2, [sp, #20]
 288 0198 5DAB     		add	r3, sp, #372
ARM GAS  C:\Users\Antonio\AppData\Local\Temp\cc6EBOZH.s 			page 9


 289 019a 41AA     		add	r2, sp, #260
 290 019c 0A92     		str	r2, [sp, #40]
 291 019e 0793     		str	r3, [sp, #28]
 292              		.loc 1 116 5 is_stmt 1 view .LVU79
 111:../../Middlewares/AI_Runtime/Npu/ll_aton/ll_sw_float.c ****                                 AI_TENSOR_LIST_OBJ_INIT(AI_FLAG_NONE, 1, TENSORS(&conv_output)),
 293              		.loc 1 111 5 is_stmt 0 view .LVU80
 294 01a0 56AA     		add	r2, sp, #344
 295              		.loc 1 116 5 view .LVU81
 296 01a2 334B     		ldr	r3, .L5
 111:../../Middlewares/AI_Runtime/Npu/ll_aton/ll_sw_float.c ****                                 AI_TENSOR_LIST_OBJ_INIT(AI_FLAG_NONE, 1, TENSORS(&conv_output)),
 297              		.loc 1 111 5 view .LVU82
 298 01a4 CDE90B21 		strd	r2, r1, [sp, #44]
 299              		.loc 1 116 5 view .LVU83
 300 01a8 6AA8     		add	r0, sp, #424
 301 01aa 4022     		movs	r2, #64
 302 01ac 6993     		str	r3, [sp, #420]
 111:../../Middlewares/AI_Runtime/Npu/ll_aton/ll_sw_float.c ****                                 AI_TENSOR_LIST_OBJ_INIT(AI_FLAG_NONE, 1, TENSORS(&conv_output)),
 303              		.loc 1 111 5 view .LVU84
 304 01ae CDE90811 		strd	r1, r1, [sp, #32]
 305              		.loc 1 116 5 view .LVU85
 306 01b2 FFF7FEFF 		bl	memset
 307              	.LVL2:
 308 01b6 2F4B     		ldr	r3, .L5+4
 111:../../Middlewares/AI_Runtime/Npu/ll_aton/ll_sw_float.c ****                                 AI_TENSOR_LIST_OBJ_INIT(AI_FLAG_NONE, 1, TENSORS(&conv_output)),
 309              		.loc 1 111 5 view .LVU86
 310 01b8 0DF1180B 		add	fp, sp, #24
 311              		.loc 1 116 5 view .LVU87
 312 01bc CDE96E3B 		strd	r3, fp, [sp, #440]
 313 01c0 009B     		ldr	r3, [sp]
 314 01c2 CDE97387 		strd	r8, r7, [sp, #460]
 315 01c6 3D93     		str	r3, [sp, #244]
 316 01c8 019B     		ldr	r3, [sp, #4]
 317 01ca CDE97565 		strd	r6, r5, [sp, #468]
 318 01ce 3E93     		str	r3, [sp, #248]
 319 01d0 029B     		ldr	r3, [sp, #8]
 320 01d2 CDF8C091 		str	r9, [sp, #448]
 321 01d6 3F93     		str	r3, [sp, #252]
 322 01d8 039B     		ldr	r3, [sp, #12]
 323 01da CDF8DCA1 		str	r10, [sp, #476]
 324 01de 4093     		str	r3, [sp, #256]
 325 01e0 3DAB     		add	r3, sp, #244
 326              	.L4:
 327              	.LBE5:
 328              	.LBB6:
 117:../../Middlewares/AI_Runtime/Npu/ll_aton/ll_sw_float.c ****                          NULL, NULL, , .groups = sw_info->ngroup, .nl_params = NULL, .nl_func = NUL
 118:../../Middlewares/AI_Runtime/Npu/ll_aton/ll_sw_float.c ****                          .filter_stride = SHAPE_2D_INIT(sw_info->strides[0],
 119:../../Middlewares/AI_Runtime/Npu/ll_aton/ll_sw_float.c ****                                                         sw_info->strides[1]), // controlla perche' 
 120:../../Middlewares/AI_Runtime/Npu/ll_aton/ll_sw_float.c ****                          .filter_pad =
 121:../../Middlewares/AI_Runtime/Npu/ll_aton/ll_sw_float.c ****                              SHAPE_INIT(sw_info->pads[3], sw_info->pads[2], sw_info->pads[1], sw_in
 122:../../Middlewares/AI_Runtime/Npu/ll_aton/ll_sw_float.c ****                          .dilation = SHAPE_2D_INIT(sw_info->dilations[0], sw_info->dilations[1]), )
 123:../../Middlewares/AI_Runtime/Npu/ll_aton/ll_sw_float.c ****     conv_layer.forward(AI_LAYER_OBJ(&conv_layer));
 124:../../Middlewares/AI_Runtime/Npu/ll_aton/ll_sw_float.c ****   }
 125:../../Middlewares/AI_Runtime/Npu/ll_aton/ll_sw_float.c ****   else
 126:../../Middlewares/AI_Runtime/Npu/ll_aton/ll_sw_float.c ****   {
 127:../../Middlewares/AI_Runtime/Npu/ll_aton/ll_sw_float.c ****     // tensor chain initialization
 128:../../Middlewares/AI_Runtime/Npu/ll_aton/ll_sw_float.c ****     AI_TENSOR_CHAIN_OBJ_DECLARE(conv_chain, , 4, AI_TENSOR_LIST_OBJ_INIT(AI_FLAG_NONE, 1, TENSORS(&
 129:../../Middlewares/AI_Runtime/Npu/ll_aton/ll_sw_float.c ****                                 AI_TENSOR_LIST_OBJ_INIT(AI_FLAG_NONE, 1, TENSORS(&conv_output)),
ARM GAS  C:\Users\Antonio\AppData\Local\Temp\cc6EBOZH.s 			page 10


 130:../../Middlewares/AI_Runtime/Npu/ll_aton/ll_sw_float.c ****                                 AI_TENSOR_LIST_OBJ_INIT(AI_FLAG_NONE, 3, TENSORS(&conv_weights, NUL
 131:../../Middlewares/AI_Runtime/Npu/ll_aton/ll_sw_float.c ****                                 AI_TENSOR_LIST_OBJ_INIT(AI_FLAG_NONE, 2, TENSORS(NULL, NULL)))
 132:../../Middlewares/AI_Runtime/Npu/ll_aton/ll_sw_float.c ****     // layer initialization
 133:../../Middlewares/AI_Runtime/Npu/ll_aton/ll_sw_float.c ****     AI_LAYER_OBJ_DECLARE(conv_layer, 1, CONV2D_TYPE, 0x0, NULL, conv2d, forward_conv2d_if32of32wf32
 134:../../Middlewares/AI_Runtime/Npu/ll_aton/ll_sw_float.c ****                          NULL, NULL, , .groups = sw_info->ngroup, .nl_params = NULL, .nl_func = NUL
 135:../../Middlewares/AI_Runtime/Npu/ll_aton/ll_sw_float.c ****                          .filter_stride = SHAPE_2D_INIT(sw_info->strides[0],
 136:../../Middlewares/AI_Runtime/Npu/ll_aton/ll_sw_float.c ****                                                         sw_info->strides[1]), // controlla perche' 
 137:../../Middlewares/AI_Runtime/Npu/ll_aton/ll_sw_float.c ****                          .filter_pad =
 138:../../Middlewares/AI_Runtime/Npu/ll_aton/ll_sw_float.c ****                              SHAPE_INIT(sw_info->pads[3], sw_info->pads[2], sw_info->pads[1], sw_in
 139:../../Middlewares/AI_Runtime/Npu/ll_aton/ll_sw_float.c ****                          .dilation = SHAPE_2D_INIT(sw_info->dilations[0], sw_info->dilations[1]), )
 140:../../Middlewares/AI_Runtime/Npu/ll_aton/ll_sw_float.c ****     conv_layer.forward(AI_LAYER_OBJ(&conv_layer));
 329              		.loc 1 140 5 view .LVU88
 330 01e2 69A8     		add	r0, sp, #420
 133:../../Middlewares/AI_Runtime/Npu/ll_aton/ll_sw_float.c ****                          NULL, NULL, , .groups = sw_info->ngroup, .nl_params = NULL, .nl_func = NUL
 331              		.loc 1 133 5 view .LVU89
 332 01e4 7893     		str	r3, [sp, #480]
 333              		.loc 1 140 5 is_stmt 1 view .LVU90
 334 01e6 FFF7FEFF 		bl	forward_conv2d_if32of32wf32_group
 335              	.LVL3:
 336              	.LBE6:
 141:../../Middlewares/AI_Runtime/Npu/ll_aton/ll_sw_float.c ****   }
 142:../../Middlewares/AI_Runtime/Npu/ll_aton/ll_sw_float.c **** }
 337              		.loc 1 142 1 is_stmt 0 view .LVU91
 338 01ea 7BB0     		add	sp, sp, #492
 339              		.cfi_remember_state
 340              		.cfi_def_cfa_offset 36
 341              		@ sp needed
 342 01ec BDE8F08F 		pop	{r4, r5, r6, r7, r8, r9, r10, fp, pc}
 343              	.LVL4:
 344              	.L2:
 345              		.cfi_restore_state
 346              	.LBB7:
 128:../../Middlewares/AI_Runtime/Npu/ll_aton/ll_sw_float.c ****                                 AI_TENSOR_LIST_OBJ_INIT(AI_FLAG_NONE, 1, TENSORS(&conv_output)),
 347              		.loc 1 128 5 is_stmt 1 view .LVU92
 348 01f0 0422     		movs	r2, #4
 349 01f2 3592     		str	r2, [sp, #212]
 350 01f4 0122     		movs	r2, #1
 351 01f6 5D92     		str	r2, [sp, #372]
 352 01f8 6092     		str	r2, [sp, #384]
 353 01fa 31AA     		add	r2, sp, #196
 354 01fc CDE96123 		strd	r2, r3, [sp, #388]
 355 0200 0322     		movs	r2, #3
 356 0202 6392     		str	r2, [sp, #396]
 357 0204 41AA     		add	r2, sp, #260
 358 0206 CDE93D23 		strd	r2, r3, [sp, #244]
 359 020a 3DAA     		add	r2, sp, #244
 360 020c CDE96423 		strd	r2, r3, [sp, #400]
 361 0210 0222     		movs	r2, #2
 362 0212 6692     		str	r2, [sp, #408]
 363 0214 39AA     		add	r2, sp, #228
 364 0216 CDE96723 		strd	r2, r3, [sp, #412]
 365 021a 5DAA     		add	r2, sp, #372
 366 021c 0AA9     		add	r1, sp, #40
 367 021e 3692     		str	r2, [sp, #216]
 133:../../Middlewares/AI_Runtime/Npu/ll_aton/ll_sw_float.c ****                          NULL, NULL, , .groups = sw_info->ngroup, .nl_params = NULL, .nl_func = NUL
 368              		.loc 1 133 5 view .LVU93
 369 0220 134A     		ldr	r2, .L5
ARM GAS  C:\Users\Antonio\AppData\Local\Temp\cc6EBOZH.s 			page 11


 128:../../Middlewares/AI_Runtime/Npu/ll_aton/ll_sw_float.c ****                                 AI_TENSOR_LIST_OBJ_INIT(AI_FLAG_NONE, 1, TENSORS(&conv_output)),
 370              		.loc 1 128 5 is_stmt 0 view .LVU94
 371 0222 CDE95E13 		strd	r1, r3, [sp, #376]
 372 0226 48A8     		add	r0, sp, #288
 373              	.LVL5:
 128:../../Middlewares/AI_Runtime/Npu/ll_aton/ll_sw_float.c ****                                 AI_TENSOR_LIST_OBJ_INIT(AI_FLAG_NONE, 1, TENSORS(&conv_output)),
 374              		.loc 1 128 5 view .LVU95
 375 0228 4FA9     		add	r1, sp, #316
 376 022a 0A90     		str	r0, [sp, #40]
 377 022c 3191     		str	r1, [sp, #196]
 133:../../Middlewares/AI_Runtime/Npu/ll_aton/ll_sw_float.c ****                          NULL, NULL, , .groups = sw_info->ngroup, .nl_params = NULL, .nl_func = NUL
 378              		.loc 1 133 5 view .LVU96
 379 022e 6992     		str	r2, [sp, #420]
 380 0230 1946     		mov	r1, r3
 381 0232 4022     		movs	r2, #64
 382 0234 6AA8     		add	r0, sp, #424
 128:../../Middlewares/AI_Runtime/Npu/ll_aton/ll_sw_float.c ****                                 AI_TENSOR_LIST_OBJ_INIT(AI_FLAG_NONE, 1, TENSORS(&conv_output)),
 383              		.loc 1 128 5 view .LVU97
 384 0236 CDE93933 		strd	r3, r3, [sp, #228]
 385 023a 3F93     		str	r3, [sp, #252]
 133:../../Middlewares/AI_Runtime/Npu/ll_aton/ll_sw_float.c ****                          NULL, NULL, , .groups = sw_info->ngroup, .nl_params = NULL, .nl_func = NUL
 386              		.loc 1 133 5 view .LVU98
 387 023c FFF7FEFF 		bl	memset
 388              	.LVL6:
 389 0240 0C4B     		ldr	r3, .L5+4
 128:../../Middlewares/AI_Runtime/Npu/ll_aton/ll_sw_float.c ****                                 AI_TENSOR_LIST_OBJ_INIT(AI_FLAG_NONE, 1, TENSORS(&conv_output)),
 390              		.loc 1 128 5 view .LVU99
 391 0242 0DF1D40B 		add	fp, sp, #212
 133:../../Middlewares/AI_Runtime/Npu/ll_aton/ll_sw_float.c ****                          NULL, NULL, , .groups = sw_info->ngroup, .nl_params = NULL, .nl_func = NUL
 392              		.loc 1 133 5 view .LVU100
 393 0246 CDE96E3B 		strd	r3, fp, [sp, #440]
 394 024a 009B     		ldr	r3, [sp]
 395 024c CDE97387 		strd	r8, r7, [sp, #460]
 396 0250 5693     		str	r3, [sp, #344]
 397 0252 019B     		ldr	r3, [sp, #4]
 398 0254 CDE97565 		strd	r6, r5, [sp, #468]
 399 0258 5793     		str	r3, [sp, #348]
 400 025a 029B     		ldr	r3, [sp, #8]
 401 025c CDF8C091 		str	r9, [sp, #448]
 402 0260 5893     		str	r3, [sp, #352]
 403 0262 039B     		ldr	r3, [sp, #12]
 404 0264 CDF8DCA1 		str	r10, [sp, #476]
 405 0268 5993     		str	r3, [sp, #356]
 406 026a 56AB     		add	r3, sp, #344
 407 026c B9E7     		b	.L4
 408              	.L6:
 409 026e 00BF     		.align	2
 410              	.L5:
 411 0270 03010100 		.word	65795
 412 0274 00000000 		.word	forward_conv2d_if32of32wf32_group
 413 0278 40108200 		.word	8523840
 414              	.LBE7:
 415              		.cfi_endproc
 416              	.LFE15:
 418              		.section	.text.ll_sw_forward_gemm,"ax",%progbits
 419              		.align	1
 420              		.global	ll_sw_forward_gemm
ARM GAS  C:\Users\Antonio\AppData\Local\Temp\cc6EBOZH.s 			page 12


 421              		.syntax unified
 422              		.thumb
 423              		.thumb_func
 425              	ll_sw_forward_gemm:
 426              	.LVL7:
 427              	.LFB16:
 143:../../Middlewares/AI_Runtime/Npu/ll_aton/ll_sw_float.c **** 
 144:../../Middlewares/AI_Runtime/Npu/ll_aton/ll_sw_float.c **** //##########################################################################################
 145:../../Middlewares/AI_Runtime/Npu/ll_aton/ll_sw_float.c **** /** GEMM forward function */
 146:../../Middlewares/AI_Runtime/Npu/ll_aton/ll_sw_float.c **** void ll_sw_forward_gemm(/* int processor, */ void *sw_info_struct)
 147:../../Middlewares/AI_Runtime/Npu/ll_aton/ll_sw_float.c **** {
 428              		.loc 1 147 1 is_stmt 1 view -0
 429              		.cfi_startproc
 430              		@ args = 0, pretend = 0, frame = 424
 431              		@ frame_needed = 0, uses_anonymous_args = 0
 148:../../Middlewares/AI_Runtime/Npu/ll_aton/ll_sw_float.c ****   Gemm_sw_info *sw_info = (Gemm_sw_info *)sw_info_struct;
 432              		.loc 1 148 3 view .LVU102
 149:../../Middlewares/AI_Runtime/Npu/ll_aton/ll_sw_float.c ****   // array init
 150:../../Middlewares/AI_Runtime/Npu/ll_aton/ll_sw_float.c ****   AI_ARRAY_OBJ_DECLARE(input_output_array, FORMAT, sw_info->general.input.mem.start_offset,
 433              		.loc 1 150 3 view .LVU103
 147:../../Middlewares/AI_Runtime/Npu/ll_aton/ll_sw_float.c ****   Gemm_sw_info *sw_info = (Gemm_sw_info *)sw_info_struct;
 434              		.loc 1 147 1 is_stmt 0 view .LVU104
 435 0000 2DE9F041 		push	{r4, r5, r6, r7, r8, lr}
 436              		.cfi_def_cfa_offset 24
 437              		.cfi_offset 4, -24
 438              		.cfi_offset 5, -20
 439              		.cfi_offset 6, -16
 440              		.cfi_offset 7, -12
 441              		.cfi_offset 8, -8
 442              		.cfi_offset 14, -4
 443              		.loc 1 150 3 view .LVU105
 444 0004 694B     		ldr	r3, .L8
 147:../../Middlewares/AI_Runtime/Npu/ll_aton/ll_sw_float.c ****   Gemm_sw_info *sw_info = (Gemm_sw_info *)sw_info_struct;
 445              		.loc 1 147 1 view .LVU106
 446 0006 EAB0     		sub	sp, sp, #424
 447              		.cfi_def_cfa_offset 448
 448              		.loc 1 150 3 view .LVU107
 449 0008 0893     		str	r3, [sp, #32]
 151:../../Middlewares/AI_Runtime/Npu/ll_aton/ll_sw_float.c ****                        sw_info->general.input.mem.start_offset, sw_info->general.input.dim.num_elem
 152:../../Middlewares/AI_Runtime/Npu/ll_aton/ll_sw_float.c **** 
 153:../../Middlewares/AI_Runtime/Npu/ll_aton/ll_sw_float.c ****   AI_ARRAY_OBJ_DECLARE(gemm_operand_b_array, FORMAT, sw_info->operand_b.mem.start_offset,
 450              		.loc 1 153 3 view .LVU108
 451 000a 0C93     		str	r3, [sp, #48]
 154:../../Middlewares/AI_Runtime/Npu/ll_aton/ll_sw_float.c ****                        sw_info->operand_b.mem.start_offset, sw_info->operand_b.dim.num_elem, )
 155:../../Middlewares/AI_Runtime/Npu/ll_aton/ll_sw_float.c **** 
 156:../../Middlewares/AI_Runtime/Npu/ll_aton/ll_sw_float.c ****   AI_ARRAY_OBJ_DECLARE(gemm_operand_c_array, FORMAT, sw_info->operand_c.mem.start_offset,
 452              		.loc 1 156 3 view .LVU109
 453 000c 1093     		str	r3, [sp, #64]
 157:../../Middlewares/AI_Runtime/Npu/ll_aton/ll_sw_float.c ****                        sw_info->operand_c.mem.start_offset, sw_info->operand_c.dim.num_elem, )
 158:../../Middlewares/AI_Runtime/Npu/ll_aton/ll_sw_float.c **** 
 159:../../Middlewares/AI_Runtime/Npu/ll_aton/ll_sw_float.c ****   AI_ARRAY_OBJ_DECLARE(gemm_output_array, FORMAT, sw_info->general.output.mem.start_offset,
 454              		.loc 1 159 3 view .LVU110
 455 000e 1493     		str	r3, [sp, #80]
 456 0010 036C     		ldr	r3, [r0, #64]
 160:../../Middlewares/AI_Runtime/Npu/ll_aton/ll_sw_float.c ****                        sw_info->general.output.mem.start_offset, sw_info->general.output.dim.num_el
 161:../../Middlewares/AI_Runtime/Npu/ll_aton/ll_sw_float.c **** 
 162:../../Middlewares/AI_Runtime/Npu/ll_aton/ll_sw_float.c ****   AI_TENSOR_OBJ_DECLARE(input_output, , 0x0, 4,
ARM GAS  C:\Users\Antonio\AppData\Local\Temp\cc6EBOZH.s 			page 13


 457              		.loc 1 162 3 view .LVU111
 458 0012 4FF0827C 		mov	ip, #17039360
 159:../../Middlewares/AI_Runtime/Npu/ll_aton/ll_sw_float.c ****                        sw_info->general.output.mem.start_offset, sw_info->general.output.dim.num_el
 459              		.loc 1 159 3 view .LVU112
 460 0016 1593     		str	r3, [sp, #84]
 461 0018 436D     		ldr	r3, [r0, #84]
 462              		.loc 1 162 3 view .LVU113
 463 001a 40F20148 		movw	r8, #1025
 159:../../Middlewares/AI_Runtime/Npu/ll_aton/ll_sw_float.c ****                        sw_info->general.output.mem.start_offset, sw_info->general.output.dim.num_el
 464              		.loc 1 159 3 view .LVU114
 465 001e CDE91633 		strd	r3, r3, [sp, #88]
 466              		.loc 1 162 3 view .LVU115
 467 0022 0023     		movs	r3, #0
 468 0024 40F2024E 		movw	lr, #1026
 150:../../Middlewares/AI_Runtime/Npu/ll_aton/ll_sw_float.c ****                        sw_info->general.input.mem.start_offset, sw_info->general.input.dim.num_elem
 469              		.loc 1 150 3 view .LVU116
 470 0028 4269     		ldr	r2, [r0, #20]
 471              		.loc 1 162 3 view .LVU117
 472 002a 0669     		ldr	r6, [r0, #16]
 150:../../Middlewares/AI_Runtime/Npu/ll_aton/ll_sw_float.c ****                        sw_info->general.input.mem.start_offset, sw_info->general.input.dim.num_elem
 473              		.loc 1 150 3 view .LVU118
 474 002c 0992     		str	r2, [sp, #36]
 475 002e 826A     		ldr	r2, [r0, #40]
 476              		.loc 1 162 3 view .LVU119
 477 0030 CDE9383C 		strd	r3, ip, [sp, #224]
 150:../../Middlewares/AI_Runtime/Npu/ll_aton/ll_sw_float.c ****                        sw_info->general.input.mem.start_offset, sw_info->general.input.dim.num_elem
 478              		.loc 1 150 3 view .LVU120
 479 0034 CDE90A22 		strd	r2, r2, [sp, #40]
 153:../../Middlewares/AI_Runtime/Npu/ll_aton/ll_sw_float.c ****                        sw_info->operand_b.mem.start_offset, sw_info->operand_b.dim.num_elem, )
 480              		.loc 1 153 3 is_stmt 1 view .LVU121
 481 0038 C26E     		ldr	r2, [r0, #108]
 482              		.loc 1 162 3 is_stmt 0 view .LVU122
 483 003a CDF8E880 		str	r8, [sp, #232]
 153:../../Middlewares/AI_Runtime/Npu/ll_aton/ll_sw_float.c ****                        sw_info->operand_b.mem.start_offset, sw_info->operand_b.dim.num_elem, )
 484              		.loc 1 153 3 view .LVU123
 485 003e 0D92     		str	r2, [sp, #52]
 486 0040 D0F88020 		ldr	r2, [r0, #128]
 487              		.loc 1 162 3 view .LVU124
 488 0044 1896     		str	r6, [sp, #96]
 153:../../Middlewares/AI_Runtime/Npu/ll_aton/ll_sw_float.c ****                        sw_info->operand_b.mem.start_offset, sw_info->operand_b.dim.num_elem, )
 489              		.loc 1 153 3 view .LVU125
 490 0046 CDE90E22 		strd	r2, r2, [sp, #56]
 156:../../Middlewares/AI_Runtime/Npu/ll_aton/ll_sw_float.c ****                        sw_info->operand_c.mem.start_offset, sw_info->operand_c.dim.num_elem, )
 491              		.loc 1 156 3 is_stmt 1 view .LVU126
 492 004a D0F89820 		ldr	r2, [r0, #152]
 493              		.loc 1 162 3 is_stmt 0 view .LVU127
 494 004e 18AF     		add	r7, sp, #96
 156:../../Middlewares/AI_Runtime/Npu/ll_aton/ll_sw_float.c ****                        sw_info->operand_c.mem.start_offset, sw_info->operand_c.dim.num_elem, )
 495              		.loc 1 156 3 view .LVU128
 496 0050 1192     		str	r2, [sp, #68]
 497 0052 D0F8AC20 		ldr	r2, [r0, #172]
 150:../../Middlewares/AI_Runtime/Npu/ll_aton/ll_sw_float.c ****                        sw_info->general.input.mem.start_offset, sw_info->general.input.dim.num_elem
 498              		.loc 1 150 3 view .LVU129
 499 0056 08AD     		add	r5, sp, #32
 156:../../Middlewares/AI_Runtime/Npu/ll_aton/ll_sw_float.c ****                        sw_info->operand_c.mem.start_offset, sw_info->operand_c.dim.num_elem, )
 500              		.loc 1 156 3 view .LVU130
 501 0058 CDE91222 		strd	r2, r2, [sp, #72]
ARM GAS  C:\Users\Antonio\AppData\Local\Temp\cc6EBOZH.s 			page 14


 159:../../Middlewares/AI_Runtime/Npu/ll_aton/ll_sw_float.c ****                        sw_info->general.output.mem.start_offset, sw_info->general.output.dim.num_el
 502              		.loc 1 159 3 is_stmt 1 view .LVU131
 503              		.loc 1 162 3 view .LVU132
 504 005c C668     		ldr	r6, [r0, #12]
 505 005e 3B97     		str	r7, [sp, #236]
 506 0060 1996     		str	r6, [sp, #100]
 507 0062 8668     		ldr	r6, [r0, #8]
 508 0064 1CAF     		add	r7, sp, #112
 509 0066 CDE93D75 		strd	r7, r5, [sp, #244]
 163:../../Middlewares/AI_Runtime/Npu/ll_aton/ll_sw_float.c ****                         SHAPE_INIT(sw_info->general.input.dim.tensor_h, sw_info->general.input.dim.
 164:../../Middlewares/AI_Runtime/Npu/ll_aton/ll_sw_float.c ****                                    sw_info->general.input.dim.tensor_c, sw_info->general.input.dim.
 165:../../Middlewares/AI_Runtime/Npu/ll_aton/ll_sw_float.c ****                         STRIDE_INIT(sw_info->general.input.stride.h, sw_info->general.input.stride.
 166:../../Middlewares/AI_Runtime/Npu/ll_aton/ll_sw_float.c ****                                     sw_info->general.input.stride.c, sw_info->general.input.stride.
 167:../../Middlewares/AI_Runtime/Npu/ll_aton/ll_sw_float.c ****                         1, &input_output_array, NULL);
 510              		.loc 1 167 54 view .LVU133
 168:../../Middlewares/AI_Runtime/Npu/ll_aton/ll_sw_float.c ****   AI_TENSOR_OBJ_DECLARE(gemm_operand_b, , 0x0, 4,
 511              		.loc 1 168 3 view .LVU134
 162:../../Middlewares/AI_Runtime/Npu/ll_aton/ll_sw_float.c ****                         SHAPE_INIT(sw_info->general.input.dim.tensor_h, sw_info->general.input.dim.
 512              		.loc 1 162 3 is_stmt 0 view .LVU135
 513 006a 1A96     		str	r6, [sp, #104]
 514              		.loc 1 168 3 view .LVU136
 515 006c 856E     		ldr	r5, [r0, #104]
 162:../../Middlewares/AI_Runtime/Npu/ll_aton/ll_sw_float.c ****                         SHAPE_INIT(sw_info->general.input.dim.tensor_h, sw_info->general.input.dim.
 516              		.loc 1 162 3 view .LVU137
 517 006e 4668     		ldr	r6, [r0, #4]
 518              		.loc 1 168 3 view .LVU138
 519 0070 2095     		str	r5, [sp, #128]
 162:../../Middlewares/AI_Runtime/Npu/ll_aton/ll_sw_float.c ****                         SHAPE_INIT(sw_info->general.input.dim.tensor_h, sw_info->general.input.dim.
 520              		.loc 1 162 3 view .LVU139
 521 0072 1B96     		str	r6, [sp, #108]
 522              		.loc 1 168 3 view .LVU140
 523 0074 456E     		ldr	r5, [r0, #100]
 162:../../Middlewares/AI_Runtime/Npu/ll_aton/ll_sw_float.c ****                         SHAPE_INIT(sw_info->general.input.dim.tensor_h, sw_info->general.input.dim.
 524              		.loc 1 162 3 view .LVU141
 525 0076 466A     		ldr	r6, [r0, #36]
 526              		.loc 1 168 3 view .LVU142
 527 0078 2195     		str	r5, [sp, #132]
 162:../../Middlewares/AI_Runtime/Npu/ll_aton/ll_sw_float.c ****                         SHAPE_INIT(sw_info->general.input.dim.tensor_h, sw_info->general.input.dim.
 528              		.loc 1 162 3 view .LVU143
 529 007a 1C96     		str	r6, [sp, #112]
 530              		.loc 1 168 3 view .LVU144
 531 007c 056E     		ldr	r5, [r0, #96]
 162:../../Middlewares/AI_Runtime/Npu/ll_aton/ll_sw_float.c ****                         SHAPE_INIT(sw_info->general.input.dim.tensor_h, sw_info->general.input.dim.
 532              		.loc 1 162 3 view .LVU145
 533 007e 066A     		ldr	r6, [r0, #32]
 534              		.loc 1 168 3 view .LVU146
 535 0080 2295     		str	r5, [sp, #136]
 162:../../Middlewares/AI_Runtime/Npu/ll_aton/ll_sw_float.c ****                         SHAPE_INIT(sw_info->general.input.dim.tensor_h, sw_info->general.input.dim.
 536              		.loc 1 162 3 view .LVU147
 537 0082 1D96     		str	r6, [sp, #116]
 538              		.loc 1 168 3 view .LVU148
 539 0084 C56D     		ldr	r5, [r0, #92]
 162:../../Middlewares/AI_Runtime/Npu/ll_aton/ll_sw_float.c ****                         SHAPE_INIT(sw_info->general.input.dim.tensor_h, sw_info->general.input.dim.
 540              		.loc 1 162 3 view .LVU149
 541 0086 C669     		ldr	r6, [r0, #28]
 542              		.loc 1 168 3 view .LVU150
 543 0088 20AF     		add	r7, sp, #128
ARM GAS  C:\Users\Antonio\AppData\Local\Temp\cc6EBOZH.s 			page 15


 162:../../Middlewares/AI_Runtime/Npu/ll_aton/ll_sw_float.c ****                         SHAPE_INIT(sw_info->general.input.dim.tensor_h, sw_info->general.input.dim.
 544              		.loc 1 162 3 view .LVU151
 545 008a 1E96     		str	r6, [sp, #120]
 546              		.loc 1 168 3 view .LVU152
 547 008c 2395     		str	r5, [sp, #140]
 162:../../Middlewares/AI_Runtime/Npu/ll_aton/ll_sw_float.c ****                         SHAPE_INIT(sw_info->general.input.dim.tensor_h, sw_info->general.input.dim.
 548              		.loc 1 162 3 view .LVU153
 549 008e 8669     		ldr	r6, [r0, #24]
 550              		.loc 1 168 3 view .LVU154
 551 0090 C56F     		ldr	r5, [r0, #124]
 552 0092 CDE9427E 		strd	r7, lr, [sp, #264]
 153:../../Middlewares/AI_Runtime/Npu/ll_aton/ll_sw_float.c ****                        sw_info->operand_b.mem.start_offset, sw_info->operand_b.dim.num_elem, )
 553              		.loc 1 153 3 view .LVU155
 554 0096 0CAC     		add	r4, sp, #48
 555              		.loc 1 168 3 view .LVU156
 556 0098 24AF     		add	r7, sp, #144
 557 009a CDE93F3C 		strd	r3, ip, [sp, #252]
 162:../../Middlewares/AI_Runtime/Npu/ll_aton/ll_sw_float.c ****                         SHAPE_INIT(sw_info->general.input.dim.tensor_h, sw_info->general.input.dim.
 558              		.loc 1 162 3 view .LVU157
 559 009e CDF8F0E0 		str	lr, [sp, #240]
 560 00a2 1F96     		str	r6, [sp, #124]
 561              		.loc 1 168 3 view .LVU158
 562 00a4 CDF80481 		str	r8, [sp, #260]
 563 00a8 2495     		str	r5, [sp, #144]
 564 00aa CDE94474 		strd	r7, r4, [sp, #272]
 169:../../Middlewares/AI_Runtime/Npu/ll_aton/ll_sw_float.c ****                         SHAPE_INIT(sw_info->operand_b.dim.tensor_h, sw_info->operand_b.dim.tensor_w
 170:../../Middlewares/AI_Runtime/Npu/ll_aton/ll_sw_float.c ****                                    sw_info->operand_b.dim.tensor_c, sw_info->operand_b.dim.tensor_b
 171:../../Middlewares/AI_Runtime/Npu/ll_aton/ll_sw_float.c ****                         STRIDE_INIT(sw_info->operand_b.stride.h, sw_info->operand_b.stride.w,
 172:../../Middlewares/AI_Runtime/Npu/ll_aton/ll_sw_float.c ****                                     sw_info->operand_b.stride.c, sw_info->operand_b.stride.b),
 173:../../Middlewares/AI_Runtime/Npu/ll_aton/ll_sw_float.c ****                         1, &gemm_operand_b_array, NULL);
 565              		.loc 1 173 56 is_stmt 1 view .LVU159
 174:../../Middlewares/AI_Runtime/Npu/ll_aton/ll_sw_float.c ****   AI_TENSOR_OBJ_DECLARE(gemm_operand_c, , 0x0, 4,
 566              		.loc 1 174 3 view .LVU160
 567 00ae D0F89440 		ldr	r4, [r0, #148]
 168:../../Middlewares/AI_Runtime/Npu/ll_aton/ll_sw_float.c ****                         SHAPE_INIT(sw_info->operand_b.dim.tensor_h, sw_info->operand_b.dim.tensor_w
 568              		.loc 1 168 3 is_stmt 0 view .LVU161
 569 00b2 856F     		ldr	r5, [r0, #120]
 570              		.loc 1 174 3 view .LVU162
 571 00b4 2894     		str	r4, [sp, #160]
 572 00b6 D0F89040 		ldr	r4, [r0, #144]
 168:../../Middlewares/AI_Runtime/Npu/ll_aton/ll_sw_float.c ****                         SHAPE_INIT(sw_info->operand_b.dim.tensor_h, sw_info->operand_b.dim.tensor_w
 573              		.loc 1 168 3 view .LVU163
 574 00ba 2595     		str	r5, [sp, #148]
 575              		.loc 1 174 3 view .LVU164
 576 00bc 2994     		str	r4, [sp, #164]
 577 00be D0F88C40 		ldr	r4, [r0, #140]
 168:../../Middlewares/AI_Runtime/Npu/ll_aton/ll_sw_float.c ****                         SHAPE_INIT(sw_info->operand_b.dim.tensor_h, sw_info->operand_b.dim.tensor_w
 578              		.loc 1 168 3 view .LVU165
 579 00c2 456F     		ldr	r5, [r0, #116]
 580              		.loc 1 174 3 view .LVU166
 581 00c4 2A94     		str	r4, [sp, #168]
 582 00c6 D0F88840 		ldr	r4, [r0, #136]
 168:../../Middlewares/AI_Runtime/Npu/ll_aton/ll_sw_float.c ****                         SHAPE_INIT(sw_info->operand_b.dim.tensor_h, sw_info->operand_b.dim.tensor_w
 583              		.loc 1 168 3 view .LVU167
 584 00ca 2695     		str	r5, [sp, #152]
 585              		.loc 1 174 3 view .LVU168
 586 00cc 2B94     		str	r4, [sp, #172]
ARM GAS  C:\Users\Antonio\AppData\Local\Temp\cc6EBOZH.s 			page 16


 587 00ce D0F8A840 		ldr	r4, [r0, #168]
 168:../../Middlewares/AI_Runtime/Npu/ll_aton/ll_sw_float.c ****                         SHAPE_INIT(sw_info->operand_b.dim.tensor_h, sw_info->operand_b.dim.tensor_w
 588              		.loc 1 168 3 view .LVU169
 589 00d2 056F     		ldr	r5, [r0, #112]
 590              		.loc 1 174 3 view .LVU170
 591 00d4 2C94     		str	r4, [sp, #176]
 592 00d6 D0F8A440 		ldr	r4, [r0, #164]
 156:../../Middlewares/AI_Runtime/Npu/ll_aton/ll_sw_float.c ****                        sw_info->operand_c.mem.start_offset, sw_info->operand_c.dim.num_elem, )
 593              		.loc 1 156 3 view .LVU171
 594 00da 10A9     		add	r1, sp, #64
 595              		.loc 1 174 3 view .LVU172
 596 00dc 2D94     		str	r4, [sp, #180]
 597 00de D0F8A040 		ldr	r4, [r0, #160]
 168:../../Middlewares/AI_Runtime/Npu/ll_aton/ll_sw_float.c ****                         SHAPE_INIT(sw_info->operand_b.dim.tensor_h, sw_info->operand_b.dim.tensor_w
 598              		.loc 1 168 3 view .LVU173
 599 00e2 2795     		str	r5, [sp, #156]
 600              		.loc 1 174 3 view .LVU174
 601 00e4 2E94     		str	r4, [sp, #184]
 602 00e6 D0F89C40 		ldr	r4, [r0, #156]
 603 00ea 28AD     		add	r5, sp, #160
 604 00ec 2F94     		str	r4, [sp, #188]
 605 00ee 2CAC     		add	r4, sp, #176
 606 00f0 CDE9463C 		strd	r3, ip, [sp, #280]
 607 00f4 CDE94B41 		strd	r4, r1, [sp, #300]
 175:../../Middlewares/AI_Runtime/Npu/ll_aton/ll_sw_float.c ****                         SHAPE_INIT(sw_info->operand_c.dim.tensor_h, sw_info->operand_c.dim.tensor_w
 176:../../Middlewares/AI_Runtime/Npu/ll_aton/ll_sw_float.c ****                                    sw_info->operand_c.dim.tensor_c, sw_info->operand_c.dim.tensor_b
 177:../../Middlewares/AI_Runtime/Npu/ll_aton/ll_sw_float.c ****                         STRIDE_INIT(sw_info->operand_c.stride.h, sw_info->operand_c.stride.w,
 178:../../Middlewares/AI_Runtime/Npu/ll_aton/ll_sw_float.c ****                                     sw_info->operand_c.stride.c, sw_info->operand_c.stride.b),
 179:../../Middlewares/AI_Runtime/Npu/ll_aton/ll_sw_float.c ****                         1, &gemm_operand_c_array, NULL);
 608              		.loc 1 179 56 is_stmt 1 view .LVU175
 180:../../Middlewares/AI_Runtime/Npu/ll_aton/ll_sw_float.c **** 
 181:../../Middlewares/AI_Runtime/Npu/ll_aton/ll_sw_float.c ****   AI_TENSOR_OBJ_DECLARE(gemm_output, , 0x0, 4,
 609              		.loc 1 181 3 view .LVU176
 174:../../Middlewares/AI_Runtime/Npu/ll_aton/ll_sw_float.c ****                         SHAPE_INIT(sw_info->operand_c.dim.tensor_h, sw_info->operand_c.dim.tensor_w
 610              		.loc 1 174 3 is_stmt 0 view .LVU177
 611 00f8 CDE9495E 		strd	r5, lr, [sp, #292]
 612 00fc CDF82081 		str	r8, [sp, #288]
 613              		.loc 1 181 3 view .LVU178
 614 0100 CDE94D3C 		strd	r3, ip, [sp, #308]
 615 0104 C16B     		ldr	r1, [r0, #60]
 159:../../Middlewares/AI_Runtime/Npu/ll_aton/ll_sw_float.c ****                        sw_info->general.output.mem.start_offset, sw_info->general.output.dim.num_el
 616              		.loc 1 159 3 view .LVU179
 617 0106 14AA     		add	r2, sp, #80
 618              		.loc 1 181 3 view .LVU180
 619 0108 3091     		str	r1, [sp, #192]
 620 010a 816B     		ldr	r1, [r0, #56]
 182:../../Middlewares/AI_Runtime/Npu/ll_aton/ll_sw_float.c ****                         SHAPE_INIT(sw_info->general.output.dim.tensor_h, sw_info->general.output.di
 183:../../Middlewares/AI_Runtime/Npu/ll_aton/ll_sw_float.c ****                                    sw_info->general.output.dim.tensor_c, sw_info->general.output.di
 184:../../Middlewares/AI_Runtime/Npu/ll_aton/ll_sw_float.c ****                         STRIDE_INIT(sw_info->general.output.stride.h, sw_info->general.output.strid
 185:../../Middlewares/AI_Runtime/Npu/ll_aton/ll_sw_float.c ****                                     sw_info->general.output.stride.c, sw_info->general.output.strid
 186:../../Middlewares/AI_Runtime/Npu/ll_aton/ll_sw_float.c ****                         1, &gemm_output_array, NULL);
 187:../../Middlewares/AI_Runtime/Npu/ll_aton/ll_sw_float.c ****   // tensor chain initialization
 188:../../Middlewares/AI_Runtime/Npu/ll_aton/ll_sw_float.c ****   AI_TENSOR_CHAIN_OBJ_DECLARE(
 621              		.loc 1 188 3 view .LVU181
 622 010c 38AC     		add	r4, sp, #224
 181:../../Middlewares/AI_Runtime/Npu/ll_aton/ll_sw_float.c ****                         SHAPE_INIT(sw_info->general.output.dim.tensor_h, sw_info->general.output.di
 623              		.loc 1 181 3 view .LVU182
ARM GAS  C:\Users\Antonio\AppData\Local\Temp\cc6EBOZH.s 			page 17


 624 010e 3191     		str	r1, [sp, #196]
 625 0110 416B     		ldr	r1, [r0, #52]
 626              		.loc 1 188 3 view .LVU183
 627 0112 0594     		str	r4, [sp, #20]
 181:../../Middlewares/AI_Runtime/Npu/ll_aton/ll_sw_float.c ****                         SHAPE_INIT(sw_info->general.output.dim.tensor_h, sw_info->general.output.di
 628              		.loc 1 181 3 view .LVU184
 629 0114 3291     		str	r1, [sp, #200]
 630 0116 016B     		ldr	r1, [r0, #48]
 631              		.loc 1 188 3 view .LVU185
 632 0118 3FAC     		add	r4, sp, #252
 181:../../Middlewares/AI_Runtime/Npu/ll_aton/ll_sw_float.c ****                         SHAPE_INIT(sw_info->general.output.dim.tensor_h, sw_info->general.output.di
 633              		.loc 1 181 3 view .LVU186
 634 011a 3391     		str	r1, [sp, #204]
 635 011c 30A9     		add	r1, sp, #192
 636 011e CDE9501E 		strd	r1, lr, [sp, #320]
 637 0122 016D     		ldr	r1, [r0, #80]
 638              		.loc 1 188 3 view .LVU187
 639 0124 0694     		str	r4, [sp, #24]
 181:../../Middlewares/AI_Runtime/Npu/ll_aton/ll_sw_float.c ****                         SHAPE_INIT(sw_info->general.output.dim.tensor_h, sw_info->general.output.di
 640              		.loc 1 181 3 view .LVU188
 641 0126 3491     		str	r1, [sp, #208]
 642 0128 C16C     		ldr	r1, [r0, #76]
 643              		.loc 1 188 3 view .LVU189
 644 012a 46AC     		add	r4, sp, #280
 181:../../Middlewares/AI_Runtime/Npu/ll_aton/ll_sw_float.c ****                         SHAPE_INIT(sw_info->general.output.dim.tensor_h, sw_info->general.output.di
 645              		.loc 1 181 3 view .LVU190
 646 012c 3591     		str	r1, [sp, #212]
 647 012e 816C     		ldr	r1, [r0, #72]
 648 0130 CDF83C81 		str	r8, [sp, #316]
 649 0134 3691     		str	r1, [sp, #216]
 650 0136 416C     		ldr	r1, [r0, #68]
 651              		.loc 1 188 3 view .LVU191
 652 0138 0794     		str	r4, [sp, #28]
 181:../../Middlewares/AI_Runtime/Npu/ll_aton/ll_sw_float.c ****                         SHAPE_INIT(sw_info->general.output.dim.tensor_h, sw_info->general.output.di
 653              		.loc 1 181 3 view .LVU192
 654 013a 3791     		str	r1, [sp, #220]
 655 013c 34A9     		add	r1, sp, #208
 656 013e CDE95212 		strd	r1, r2, [sp, #328]
 186:../../Middlewares/AI_Runtime/Npu/ll_aton/ll_sw_float.c ****   // tensor chain initialization
 657              		.loc 1 186 53 is_stmt 1 view .LVU193
 658              		.loc 1 188 3 view .LVU194
 659 0142 0422     		movs	r2, #4
 660 0144 0392     		str	r2, [sp, #12]
 661 0146 0322     		movs	r2, #3
 662 0148 5E92     		str	r2, [sp, #376]
 663 014a 05AA     		add	r2, sp, #20
 664 014c CDE95F23 		strd	r2, r3, [sp, #380]
 665 0150 0122     		movs	r2, #1
 666 0152 6192     		str	r2, [sp, #388]
 667 0154 4DAA     		add	r2, sp, #308
 668 0156 0092     		str	r2, [sp]
 669 0158 01AA     		add	r2, sp, #4
 670 015a CDF888D1 		str	sp, [sp, #392]
 671 015e CDE96333 		strd	r3, r3, [sp, #396]
 672 0162 CDE96523 		strd	r2, r3, [sp, #404]
 673 0166 02AA     		add	r2, sp, #8
 674 0168 CDE96823 		strd	r2, r3, [sp, #416]
ARM GAS  C:\Users\Antonio\AppData\Local\Temp\cc6EBOZH.s 			page 18


 675 016c 5EAA     		add	r2, sp, #376
 676 016e 0492     		str	r2, [sp, #16]
 189:../../Middlewares/AI_Runtime/Npu/ll_aton/ll_sw_float.c ****       gemm_chain, , 4,
 190:../../Middlewares/AI_Runtime/Npu/ll_aton/ll_sw_float.c ****       AI_TENSOR_LIST_OBJ_INIT(AI_FLAG_NONE, 3, TENSORS(&input_output, &gemm_operand_b, &gemm_operan
 191:../../Middlewares/AI_Runtime/Npu/ll_aton/ll_sw_float.c ****       AI_TENSOR_LIST_OBJ_INIT(AI_FLAG_NONE, 1, TENSORS(&gemm_output)), AI_TENSOR_LIST_OBJ_EMPTY,
 192:../../Middlewares/AI_Runtime/Npu/ll_aton/ll_sw_float.c ****       AI_TENSOR_LIST_OBJ_EMPTY)
 193:../../Middlewares/AI_Runtime/Npu/ll_aton/ll_sw_float.c ****   // layer initialization
 194:../../Middlewares/AI_Runtime/Npu/ll_aton/ll_sw_float.c ****   AI_LAYER_OBJ_DECLARE(gemm_layer, 1, GEMM_TYPE, 0x0, NULL, gemm, forward_gemm, &gemm_chain, NULL, 
 677              		.loc 1 194 3 view .LVU195
 678 0170 0F4A     		ldr	r2, .L8+4
 679 0172 CDE95633 		strd	r3, r3, [sp, #344]
 680 0176 CDE95423 		strd	r2, r3, [sp, #336]
 188:../../Middlewares/AI_Runtime/Npu/ll_aton/ll_sw_float.c ****       gemm_chain, , 4,
 681              		.loc 1 188 3 is_stmt 0 view .LVU196
 682 017a 0193     		str	r3, [sp, #4]
 683 017c 6793     		str	r3, [sp, #412]
 684 017e 0293     		str	r3, [sp, #8]
 685              		.loc 1 194 3 view .LVU197
 686 0180 5893     		str	r3, [sp, #352]
 687 0182 0C4B     		ldr	r3, .L8+8
 188:../../Middlewares/AI_Runtime/Npu/ll_aton/ll_sw_float.c ****       gemm_chain, , 4,
 688              		.loc 1 188 3 view .LVU198
 689 0184 03A9     		add	r1, sp, #12
 690              		.loc 1 194 3 view .LVU199
 691 0186 CDE95931 		strd	r3, r1, [sp, #356]
 692 018a D0F8B830 		ldr	r3, [r0, #184]	@ float
 693 018e D0F8B420 		ldr	r2, [r0, #180]	@ float
 694 0192 5C93     		str	r3, [sp, #368]	@ float
 695 0194 B0F8BC30 		ldrh	r3, [r0, #188]
 195:../../Middlewares/AI_Runtime/Npu/ll_aton/ll_sw_float.c ****                        .alpha = sw_info->alpha, .beta = sw_info->beta, .tA = sw_info->tA, .tB = sw_
 196:../../Middlewares/AI_Runtime/Npu/ll_aton/ll_sw_float.c ****   gemm_layer.forward(AI_LAYER_OBJ(&gemm_layer));
 696              		.loc 1 196 3 view .LVU200
 697 0198 54A8     		add	r0, sp, #336
 698              	.LVL8:
 194:../../Middlewares/AI_Runtime/Npu/ll_aton/ll_sw_float.c ****                        .alpha = sw_info->alpha, .beta = sw_info->beta, .tA = sw_info->tA, .tB = sw_
 699              		.loc 1 194 3 view .LVU201
 700 019a 5B92     		str	r2, [sp, #364]	@ float
 701 019c ADF87431 		strh	r3, [sp, #372]	@ movhi
 702              		.loc 1 196 3 is_stmt 1 view .LVU202
 703 01a0 FFF7FEFF 		bl	forward_gemm
 704              	.LVL9:
 197:../../Middlewares/AI_Runtime/Npu/ll_aton/ll_sw_float.c **** }
 705              		.loc 1 197 1 is_stmt 0 view .LVU203
 706 01a4 6AB0     		add	sp, sp, #424
 707              		.cfi_def_cfa_offset 24
 708              		@ sp needed
 709 01a6 BDE8F081 		pop	{r4, r5, r6, r7, r8, pc}
 710              	.L9:
 711 01aa 00BF     		.align	2
 712              	.L8:
 713 01ac 40108200 		.word	8523840
 714 01b0 11010100 		.word	65809
 715 01b4 00000000 		.word	forward_gemm
 716              		.cfi_endproc
 717              	.LFE16:
 719              		.section	.text.ll_sw_forward_matmul,"ax",%progbits
 720              		.align	1
ARM GAS  C:\Users\Antonio\AppData\Local\Temp\cc6EBOZH.s 			page 19


 721              		.global	ll_sw_forward_matmul
 722              		.syntax unified
 723              		.thumb
 724              		.thumb_func
 726              	ll_sw_forward_matmul:
 727              	.LVL10:
 728              	.LFB17:
 198:../../Middlewares/AI_Runtime/Npu/ll_aton/ll_sw_float.c **** 
 199:../../Middlewares/AI_Runtime/Npu/ll_aton/ll_sw_float.c **** //##########################################################################################
 200:../../Middlewares/AI_Runtime/Npu/ll_aton/ll_sw_float.c **** /** MatMul forward function */
 201:../../Middlewares/AI_Runtime/Npu/ll_aton/ll_sw_float.c **** void ll_sw_forward_matmul(/* int processor, */ void *sw_info_struct)
 202:../../Middlewares/AI_Runtime/Npu/ll_aton/ll_sw_float.c **** {
 729              		.loc 1 202 1 is_stmt 1 view -0
 730              		.cfi_startproc
 731              		@ args = 0, pretend = 0, frame = 336
 732              		@ frame_needed = 0, uses_anonymous_args = 0
 203:../../Middlewares/AI_Runtime/Npu/ll_aton/ll_sw_float.c ****   Matmul_sw_info *sw_info = (Matmul_sw_info *)sw_info_struct;
 733              		.loc 1 203 3 view .LVU205
 204:../../Middlewares/AI_Runtime/Npu/ll_aton/ll_sw_float.c ****   // array init
 205:../../Middlewares/AI_Runtime/Npu/ll_aton/ll_sw_float.c ****   AI_ARRAY_OBJ_DECLARE(input_output_array, FORMAT, sw_info->general.input.mem.start_offset,
 734              		.loc 1 205 3 view .LVU206
 202:../../Middlewares/AI_Runtime/Npu/ll_aton/ll_sw_float.c ****   Matmul_sw_info *sw_info = (Matmul_sw_info *)sw_info_struct;
 735              		.loc 1 202 1 is_stmt 0 view .LVU207
 736 0000 F0B5     		push	{r4, r5, r6, r7, lr}
 737              		.cfi_def_cfa_offset 20
 738              		.cfi_offset 4, -20
 739              		.cfi_offset 5, -16
 740              		.cfi_offset 6, -12
 741              		.cfi_offset 7, -8
 742              		.cfi_offset 14, -4
 743              		.loc 1 205 3 view .LVU208
 744 0002 4B49     		ldr	r1, .L11
 202:../../Middlewares/AI_Runtime/Npu/ll_aton/ll_sw_float.c ****   Matmul_sw_info *sw_info = (Matmul_sw_info *)sw_info_struct;
 745              		.loc 1 202 1 view .LVU209
 746 0004 D5B0     		sub	sp, sp, #340
 747              		.cfi_def_cfa_offset 360
 748              		.loc 1 205 3 view .LVU210
 749 0006 0791     		str	r1, [sp, #28]
 206:../../Middlewares/AI_Runtime/Npu/ll_aton/ll_sw_float.c ****                        sw_info->general.input.mem.start_offset, sw_info->general.input.dim.num_elem
 207:../../Middlewares/AI_Runtime/Npu/ll_aton/ll_sw_float.c **** 
 208:../../Middlewares/AI_Runtime/Npu/ll_aton/ll_sw_float.c ****   AI_ARRAY_OBJ_DECLARE(matmul_operand_b_array, FORMAT, sw_info->operand_b.mem.start_offset,
 750              		.loc 1 208 3 view .LVU211
 751 0008 0B91     		str	r1, [sp, #44]
 209:../../Middlewares/AI_Runtime/Npu/ll_aton/ll_sw_float.c ****                        sw_info->operand_b.mem.start_offset, sw_info->operand_b.dim.num_elem, )
 210:../../Middlewares/AI_Runtime/Npu/ll_aton/ll_sw_float.c **** 
 211:../../Middlewares/AI_Runtime/Npu/ll_aton/ll_sw_float.c ****   AI_ARRAY_OBJ_DECLARE(matmul_output_array, FORMAT, sw_info->general.output.mem.start_offset,
 752              		.loc 1 211 3 view .LVU212
 753 000a 0F91     		str	r1, [sp, #60]
 754 000c 016C     		ldr	r1, [r0, #64]
 212:../../Middlewares/AI_Runtime/Npu/ll_aton/ll_sw_float.c ****                        sw_info->general.output.mem.start_offset, sw_info->general.output.dim.num_el
 213:../../Middlewares/AI_Runtime/Npu/ll_aton/ll_sw_float.c **** 
 214:../../Middlewares/AI_Runtime/Npu/ll_aton/ll_sw_float.c ****   AI_TENSOR_OBJ_DECLARE(input_output, , 0x0, 4,
 755              		.loc 1 214 3 view .LVU213
 756 000e 4FF0827C 		mov	ip, #17039360
 211:../../Middlewares/AI_Runtime/Npu/ll_aton/ll_sw_float.c ****                        sw_info->general.output.mem.start_offset, sw_info->general.output.dim.num_el
 757              		.loc 1 211 3 view .LVU214
 758 0012 1091     		str	r1, [sp, #64]
ARM GAS  C:\Users\Antonio\AppData\Local\Temp\cc6EBOZH.s 			page 20


 759 0014 416D     		ldr	r1, [r0, #84]
 760              		.loc 1 214 3 view .LVU215
 761 0016 40F20146 		movw	r6, #1025
 211:../../Middlewares/AI_Runtime/Npu/ll_aton/ll_sw_float.c ****                        sw_info->general.output.mem.start_offset, sw_info->general.output.dim.num_el
 762              		.loc 1 211 3 view .LVU216
 763 001a CDE91111 		strd	r1, r1, [sp, #68]
 764              		.loc 1 214 3 view .LVU217
 765 001e 0021     		movs	r1, #0
 766 0020 0769     		ldr	r7, [r0, #16]
 205:../../Middlewares/AI_Runtime/Npu/ll_aton/ll_sw_float.c ****                        sw_info->general.input.mem.start_offset, sw_info->general.input.dim.num_elem
 767              		.loc 1 205 3 view .LVU218
 768 0022 4369     		ldr	r3, [r0, #20]
 769              		.loc 1 214 3 view .LVU219
 770 0024 1397     		str	r7, [sp, #76]
 771 0026 C768     		ldr	r7, [r0, #12]
 205:../../Middlewares/AI_Runtime/Npu/ll_aton/ll_sw_float.c ****                        sw_info->general.input.mem.start_offset, sw_info->general.input.dim.num_elem
 772              		.loc 1 205 3 view .LVU220
 773 0028 0893     		str	r3, [sp, #32]
 774              		.loc 1 214 3 view .LVU221
 775 002a 1497     		str	r7, [sp, #80]
 776 002c 8768     		ldr	r7, [r0, #8]
 205:../../Middlewares/AI_Runtime/Npu/ll_aton/ll_sw_float.c ****                        sw_info->general.input.mem.start_offset, sw_info->general.input.dim.num_elem
 777              		.loc 1 205 3 view .LVU222
 778 002e 836A     		ldr	r3, [r0, #40]
 779              		.loc 1 214 3 view .LVU223
 780 0030 1597     		str	r7, [sp, #84]
 781 0032 4768     		ldr	r7, [r0, #4]
 205:../../Middlewares/AI_Runtime/Npu/ll_aton/ll_sw_float.c ****                        sw_info->general.input.mem.start_offset, sw_info->general.input.dim.num_elem
 782              		.loc 1 205 3 view .LVU224
 783 0034 CDE90933 		strd	r3, r3, [sp, #36]
 208:../../Middlewares/AI_Runtime/Npu/ll_aton/ll_sw_float.c ****                        sw_info->operand_b.mem.start_offset, sw_info->operand_b.dim.num_elem, )
 784              		.loc 1 208 3 is_stmt 1 view .LVU225
 785              		.loc 1 214 3 is_stmt 0 view .LVU226
 786 0038 1697     		str	r7, [sp, #88]
 787 003a 40F20247 		movw	r7, #1026
 208:../../Middlewares/AI_Runtime/Npu/ll_aton/ll_sw_float.c ****                        sw_info->operand_b.mem.start_offset, sw_info->operand_b.dim.num_elem, )
 788              		.loc 1 208 3 view .LVU227
 789 003e C36E     		ldr	r3, [r0, #108]
 790              		.loc 1 214 3 view .LVU228
 791 0040 13AD     		add	r5, sp, #76
 208:../../Middlewares/AI_Runtime/Npu/ll_aton/ll_sw_float.c ****                        sw_info->operand_b.mem.start_offset, sw_info->operand_b.dim.num_elem, )
 792              		.loc 1 208 3 view .LVU229
 793 0042 0C93     		str	r3, [sp, #48]
 794 0044 D0F88030 		ldr	r3, [r0, #128]
 795              		.loc 1 214 3 view .LVU230
 796 0048 CDE92B1C 		strd	r1, ip, [sp, #172]
 208:../../Middlewares/AI_Runtime/Npu/ll_aton/ll_sw_float.c ****                        sw_info->operand_b.mem.start_offset, sw_info->operand_b.dim.num_elem, )
 797              		.loc 1 208 3 view .LVU231
 798 004c CDE90D33 		strd	r3, r3, [sp, #52]
 211:../../Middlewares/AI_Runtime/Npu/ll_aton/ll_sw_float.c ****                        sw_info->general.output.mem.start_offset, sw_info->general.output.dim.num_el
 799              		.loc 1 211 3 is_stmt 1 view .LVU232
 800              		.loc 1 214 3 view .LVU233
 801 0050 2D96     		str	r6, [sp, #180]
 802 0052 2E95     		str	r5, [sp, #184]
 803 0054 456A     		ldr	r5, [r0, #36]
 205:../../Middlewares/AI_Runtime/Npu/ll_aton/ll_sw_float.c ****                        sw_info->general.input.mem.start_offset, sw_info->general.input.dim.num_elem
 804              		.loc 1 205 3 is_stmt 0 view .LVU234
ARM GAS  C:\Users\Antonio\AppData\Local\Temp\cc6EBOZH.s 			page 21


 805 0056 07AC     		add	r4, sp, #28
 806              		.loc 1 214 3 view .LVU235
 807 0058 1795     		str	r5, [sp, #92]
 808 005a 056A     		ldr	r5, [r0, #32]
 208:../../Middlewares/AI_Runtime/Npu/ll_aton/ll_sw_float.c ****                        sw_info->operand_b.mem.start_offset, sw_info->operand_b.dim.num_elem, )
 809              		.loc 1 208 3 view .LVU236
 810 005c 0BAA     		add	r2, sp, #44
 811              		.loc 1 214 3 view .LVU237
 812 005e 1895     		str	r5, [sp, #96]
 813 0060 C569     		ldr	r5, [r0, #28]
 215:../../Middlewares/AI_Runtime/Npu/ll_aton/ll_sw_float.c ****                         SHAPE_INIT(sw_info->general.input.dim.tensor_h, sw_info->general.input.dim.
 216:../../Middlewares/AI_Runtime/Npu/ll_aton/ll_sw_float.c ****                                    sw_info->general.input.dim.tensor_c, sw_info->general.input.dim.
 217:../../Middlewares/AI_Runtime/Npu/ll_aton/ll_sw_float.c ****                         STRIDE_INIT(sw_info->general.input.stride.h, sw_info->general.input.stride.
 218:../../Middlewares/AI_Runtime/Npu/ll_aton/ll_sw_float.c ****                                     sw_info->general.input.stride.c, sw_info->general.input.stride.
 219:../../Middlewares/AI_Runtime/Npu/ll_aton/ll_sw_float.c ****                         1, &input_output_array, NULL);
 220:../../Middlewares/AI_Runtime/Npu/ll_aton/ll_sw_float.c ****   AI_TENSOR_OBJ_DECLARE(matmul_operand_b, , 0x0, 4,
 814              		.loc 1 220 3 view .LVU238
 815 0062 CDE9321C 		strd	r1, ip, [sp, #200]
 214:../../Middlewares/AI_Runtime/Npu/ll_aton/ll_sw_float.c ****                         SHAPE_INIT(sw_info->general.input.dim.tensor_h, sw_info->general.input.dim.
 816              		.loc 1 214 3 view .LVU239
 817 0066 1995     		str	r5, [sp, #100]
 818 0068 8569     		ldr	r5, [r0, #24]
 819 006a 2F97     		str	r7, [sp, #188]
 820 006c 1A95     		str	r5, [sp, #104]
 821 006e 17AD     		add	r5, sp, #92
 822 0070 CDE93054 		strd	r5, r4, [sp, #192]
 219:../../Middlewares/AI_Runtime/Npu/ll_aton/ll_sw_float.c ****   AI_TENSOR_OBJ_DECLARE(matmul_operand_b, , 0x0, 4,
 823              		.loc 1 219 54 is_stmt 1 view .LVU240
 824              		.loc 1 220 3 view .LVU241
 825 0074 846E     		ldr	r4, [r0, #104]
 826 0076 3496     		str	r6, [sp, #208]
 827 0078 1B94     		str	r4, [sp, #108]
 828 007a 446E     		ldr	r4, [r0, #100]
 211:../../Middlewares/AI_Runtime/Npu/ll_aton/ll_sw_float.c ****                        sw_info->general.output.mem.start_offset, sw_info->general.output.dim.num_el
 829              		.loc 1 211 3 is_stmt 0 view .LVU242
 830 007c 0FAB     		add	r3, sp, #60
 831              		.loc 1 220 3 view .LVU243
 832 007e 1C94     		str	r4, [sp, #112]
 833 0080 046E     		ldr	r4, [r0, #96]
 834 0082 1D94     		str	r4, [sp, #116]
 835 0084 C46D     		ldr	r4, [r0, #92]
 836 0086 1E94     		str	r4, [sp, #120]
 837 0088 1BAC     		add	r4, sp, #108
 838 008a CDE93547 		strd	r4, r7, [sp, #212]
 839 008e C46F     		ldr	r4, [r0, #124]
 840 0090 1F94     		str	r4, [sp, #124]
 841 0092 846F     		ldr	r4, [r0, #120]
 842 0094 2094     		str	r4, [sp, #128]
 843 0096 446F     		ldr	r4, [r0, #116]
 844 0098 2194     		str	r4, [sp, #132]
 845 009a 046F     		ldr	r4, [r0, #112]
 846 009c 2294     		str	r4, [sp, #136]
 847 009e 1FAC     		add	r4, sp, #124
 848 00a0 CDE93742 		strd	r4, r2, [sp, #220]
 221:../../Middlewares/AI_Runtime/Npu/ll_aton/ll_sw_float.c ****                         SHAPE_INIT(sw_info->operand_b.dim.tensor_h, sw_info->operand_b.dim.tensor_w
 222:../../Middlewares/AI_Runtime/Npu/ll_aton/ll_sw_float.c ****                                    sw_info->operand_b.dim.tensor_c, sw_info->operand_b.dim.tensor_b
 223:../../Middlewares/AI_Runtime/Npu/ll_aton/ll_sw_float.c ****                         STRIDE_INIT(sw_info->operand_b.stride.h, sw_info->operand_b.stride.w,
ARM GAS  C:\Users\Antonio\AppData\Local\Temp\cc6EBOZH.s 			page 22


 224:../../Middlewares/AI_Runtime/Npu/ll_aton/ll_sw_float.c ****                                     sw_info->operand_b.stride.c, sw_info->operand_b.stride.b),
 225:../../Middlewares/AI_Runtime/Npu/ll_aton/ll_sw_float.c ****                         1, &matmul_operand_b_array, NULL);
 849              		.loc 1 225 58 is_stmt 1 view .LVU244
 226:../../Middlewares/AI_Runtime/Npu/ll_aton/ll_sw_float.c **** 
 227:../../Middlewares/AI_Runtime/Npu/ll_aton/ll_sw_float.c ****   AI_TENSOR_OBJ_DECLARE(matmul_output, , 0x0, 4,
 850              		.loc 1 227 3 view .LVU245
 851 00a4 C26B     		ldr	r2, [r0, #60]
 852 00a6 CDE9391C 		strd	r1, ip, [sp, #228]
 853 00aa 2392     		str	r2, [sp, #140]
 854 00ac 826B     		ldr	r2, [r0, #56]
 855 00ae 3B96     		str	r6, [sp, #236]
 856 00b0 2492     		str	r2, [sp, #144]
 857 00b2 426B     		ldr	r2, [r0, #52]
 228:../../Middlewares/AI_Runtime/Npu/ll_aton/ll_sw_float.c ****                         SHAPE_INIT(sw_info->general.output.dim.tensor_h, sw_info->general.output.di
 229:../../Middlewares/AI_Runtime/Npu/ll_aton/ll_sw_float.c ****                                    sw_info->general.output.dim.tensor_c, sw_info->general.output.di
 230:../../Middlewares/AI_Runtime/Npu/ll_aton/ll_sw_float.c ****                         STRIDE_INIT(sw_info->general.output.stride.h, sw_info->general.output.strid
 231:../../Middlewares/AI_Runtime/Npu/ll_aton/ll_sw_float.c ****                                     sw_info->general.output.stride.c, sw_info->general.output.strid
 232:../../Middlewares/AI_Runtime/Npu/ll_aton/ll_sw_float.c ****                         1, &matmul_output_array, NULL);
 233:../../Middlewares/AI_Runtime/Npu/ll_aton/ll_sw_float.c ****   // tensor chain initialization
 234:../../Middlewares/AI_Runtime/Npu/ll_aton/ll_sw_float.c ****   AI_TENSOR_CHAIN_OBJ_DECLARE(matmul_chain, , 4,
 858              		.loc 1 234 3 is_stmt 0 view .LVU246
 859 00b4 03AC     		add	r4, sp, #12
 227:../../Middlewares/AI_Runtime/Npu/ll_aton/ll_sw_float.c ****                         SHAPE_INIT(sw_info->general.output.dim.tensor_h, sw_info->general.output.di
 860              		.loc 1 227 3 view .LVU247
 861 00b6 2592     		str	r2, [sp, #148]
 862 00b8 026B     		ldr	r2, [r0, #48]
 863 00ba 2692     		str	r2, [sp, #152]
 864 00bc 23AA     		add	r2, sp, #140
 865 00be CDE93C27 		strd	r2, r7, [sp, #240]
 866 00c2 026D     		ldr	r2, [r0, #80]
 867 00c4 2792     		str	r2, [sp, #156]
 868 00c6 C26C     		ldr	r2, [r0, #76]
 869 00c8 2892     		str	r2, [sp, #160]
 870 00ca 826C     		ldr	r2, [r0, #72]
 871 00cc 2992     		str	r2, [sp, #164]
 872 00ce 426C     		ldr	r2, [r0, #68]
 235:../../Middlewares/AI_Runtime/Npu/ll_aton/ll_sw_float.c ****                               AI_TENSOR_LIST_OBJ_INIT(AI_FLAG_NONE, 2, TENSORS(&input_output, &matm
 236:../../Middlewares/AI_Runtime/Npu/ll_aton/ll_sw_float.c ****                               AI_TENSOR_LIST_OBJ_INIT(AI_FLAG_NONE, 1, TENSORS(&matmul_output)),
 237:../../Middlewares/AI_Runtime/Npu/ll_aton/ll_sw_float.c ****                               AI_TENSOR_LIST_OBJ_EMPTY, AI_TENSOR_LIST_OBJ_EMPTY)
 238:../../Middlewares/AI_Runtime/Npu/ll_aton/ll_sw_float.c ****   // layer initialization
 239:../../Middlewares/AI_Runtime/Npu/ll_aton/ll_sw_float.c ****   AI_LAYER_OBJ_DECLARE(matmul_layer, 1, NL_TYPE, 0x0, NULL, nl, forward_matmul, &matmul_chain, NULL
 873              		.loc 1 239 3 view .LVU248
 874 00d0 41A8     		add	r0, sp, #260
 875              	.LVL11:
 227:../../Middlewares/AI_Runtime/Npu/ll_aton/ll_sw_float.c ****                         SHAPE_INIT(sw_info->general.output.dim.tensor_h, sw_info->general.output.di
 876              		.loc 1 227 3 view .LVU249
 877 00d2 2A92     		str	r2, [sp, #168]
 878 00d4 27AA     		add	r2, sp, #156
 879 00d6 CDE93E23 		strd	r2, r3, [sp, #248]
 232:../../Middlewares/AI_Runtime/Npu/ll_aton/ll_sw_float.c ****   // tensor chain initialization
 880              		.loc 1 232 55 is_stmt 1 view .LVU250
 234:../../Middlewares/AI_Runtime/Npu/ll_aton/ll_sw_float.c ****                               AI_TENSOR_LIST_OBJ_INIT(AI_FLAG_NONE, 2, TENSORS(&input_output, &matm
 881              		.loc 1 234 3 view .LVU251
 882 00da 0423     		movs	r3, #4
 883 00dc 0393     		str	r3, [sp, #12]
 884 00de 0223     		movs	r3, #2
 885 00e0 4893     		str	r3, [sp, #288]
ARM GAS  C:\Users\Antonio\AppData\Local\Temp\cc6EBOZH.s 			page 23


 886 00e2 05AB     		add	r3, sp, #20
 887 00e4 CDE94931 		strd	r3, r1, [sp, #292]
 888 00e8 0123     		movs	r3, #1
 889 00ea 2BAA     		add	r2, sp, #172
 890 00ec 4B93     		str	r3, [sp, #300]
 891 00ee 39AB     		add	r3, sp, #228
 892 00f0 0592     		str	r2, [sp, #20]
 893 00f2 0093     		str	r3, [sp]
 894 00f4 32AA     		add	r2, sp, #200
 895 00f6 01AB     		add	r3, sp, #4
 896 00f8 0692     		str	r2, [sp, #24]
 897 00fa CDF830D1 		str	sp, [sp, #304]
 898 00fe CDE94F31 		strd	r3, r1, [sp, #316]
 899 0102 02AB     		add	r3, sp, #8
 900 0104 CDE95231 		strd	r3, r1, [sp, #328]
 901 0108 48AB     		add	r3, sp, #288
 902 010a 0493     		str	r3, [sp, #16]
 903              		.loc 1 239 3 view .LVU252
 904 010c 094B     		ldr	r3, .L11+4
 905 010e 1C22     		movs	r2, #28
 234:../../Middlewares/AI_Runtime/Npu/ll_aton/ll_sw_float.c ****                               AI_TENSOR_LIST_OBJ_INIT(AI_FLAG_NONE, 2, TENSORS(&input_output, &matm
 906              		.loc 1 234 3 is_stmt 0 view .LVU253
 907 0110 CDE94D11 		strd	r1, r1, [sp, #308]
 908 0114 0191     		str	r1, [sp, #4]
 909 0116 5191     		str	r1, [sp, #324]
 910 0118 0291     		str	r1, [sp, #8]
 911              		.loc 1 239 3 view .LVU254
 912 011a 4093     		str	r3, [sp, #256]
 913 011c FFF7FEFF 		bl	memset
 914              	.LVL12:
 915 0120 054B     		ldr	r3, .L11+8
 240:../../Middlewares/AI_Runtime/Npu/ll_aton/ll_sw_float.c ****   matmul_layer.forward(AI_LAYER_OBJ(&matmul_layer));
 916              		.loc 1 240 3 view .LVU255
 917 0122 40A8     		add	r0, sp, #256
 239:../../Middlewares/AI_Runtime/Npu/ll_aton/ll_sw_float.c ****   matmul_layer.forward(AI_LAYER_OBJ(&matmul_layer));
 918              		.loc 1 239 3 view .LVU256
 919 0124 CDE94534 		strd	r3, r4, [sp, #276]
 920              		.loc 1 240 3 is_stmt 1 view .LVU257
 921 0128 FFF7FEFF 		bl	forward_matmul
 922              	.LVL13:
 241:../../Middlewares/AI_Runtime/Npu/ll_aton/ll_sw_float.c **** }
 923              		.loc 1 241 1 is_stmt 0 view .LVU258
 924 012c 55B0     		add	sp, sp, #340
 925              		.cfi_def_cfa_offset 20
 926              		@ sp needed
 927 012e F0BD     		pop	{r4, r5, r6, r7, pc}
 928              	.L12:
 929              		.align	2
 930              	.L11:
 931 0130 40108200 		.word	8523840
 932 0134 07010100 		.word	65799
 933 0138 00000000 		.word	forward_matmul
 934              		.cfi_endproc
 935              	.LFE17:
 937              		.section	.text.ll_sw_forward_resize,"ax",%progbits
 938              		.align	1
 939              		.global	ll_sw_forward_resize
ARM GAS  C:\Users\Antonio\AppData\Local\Temp\cc6EBOZH.s 			page 24


 940              		.syntax unified
 941              		.thumb
 942              		.thumb_func
 944              	ll_sw_forward_resize:
 945              	.LVL14:
 946              	.LFB18:
 242:../../Middlewares/AI_Runtime/Npu/ll_aton/ll_sw_float.c **** 
 243:../../Middlewares/AI_Runtime/Npu/ll_aton/ll_sw_float.c **** //##########################################################################################
 244:../../Middlewares/AI_Runtime/Npu/ll_aton/ll_sw_float.c **** /** Resize forward function */
 245:../../Middlewares/AI_Runtime/Npu/ll_aton/ll_sw_float.c **** void ll_sw_forward_resize(/* int processor, */ void *sw_info_struct)
 246:../../Middlewares/AI_Runtime/Npu/ll_aton/ll_sw_float.c **** {
 947              		.loc 1 246 1 is_stmt 1 view -0
 948              		.cfi_startproc
 949              		@ args = 0, pretend = 0, frame = 320
 950              		@ frame_needed = 0, uses_anonymous_args = 0
 247:../../Middlewares/AI_Runtime/Npu/ll_aton/ll_sw_float.c ****   Resize_sw_info *sw_info = (Resize_sw_info *)sw_info_struct;
 951              		.loc 1 247 3 view .LVU260
 248:../../Middlewares/AI_Runtime/Npu/ll_aton/ll_sw_float.c ****   // array init
 249:../../Middlewares/AI_Runtime/Npu/ll_aton/ll_sw_float.c ****   AI_ARRAY_OBJ_DECLARE(input_output_array, FORMAT, sw_info->general.input.mem.start_offset,
 952              		.loc 1 249 3 view .LVU261
 246:../../Middlewares/AI_Runtime/Npu/ll_aton/ll_sw_float.c ****   Resize_sw_info *sw_info = (Resize_sw_info *)sw_info_struct;
 953              		.loc 1 246 1 is_stmt 0 view .LVU262
 954 0000 2DE9F041 		push	{r4, r5, r6, r7, r8, lr}
 955              		.cfi_def_cfa_offset 24
 956              		.cfi_offset 4, -24
 957              		.cfi_offset 5, -20
 958              		.cfi_offset 6, -16
 959              		.cfi_offset 7, -12
 960              		.cfi_offset 8, -8
 961              		.cfi_offset 14, -4
 962              		.loc 1 249 3 view .LVU263
 963 0004 4269     		ldr	r2, [r0, #20]
 246:../../Middlewares/AI_Runtime/Npu/ll_aton/ll_sw_float.c ****   Resize_sw_info *sw_info = (Resize_sw_info *)sw_info_struct;
 964              		.loc 1 246 1 view .LVU264
 965 0006 D0B0     		sub	sp, sp, #320
 966              		.cfi_def_cfa_offset 344
 967              		.loc 1 249 3 view .LVU265
 968 0008 0992     		str	r2, [sp, #36]
 969 000a 826A     		ldr	r2, [r0, #40]
 970 000c 08AC     		add	r4, sp, #32
 971 000e C4E90222 		strd	r2, r2, [r4, #8]
 250:../../Middlewares/AI_Runtime/Npu/ll_aton/ll_sw_float.c ****                        sw_info->general.input.mem.start_offset, sw_info->general.input.dim.num_elem
 251:../../Middlewares/AI_Runtime/Npu/ll_aton/ll_sw_float.c **** 
 252:../../Middlewares/AI_Runtime/Npu/ll_aton/ll_sw_float.c ****   AI_ARRAY_OBJ_DECLARE(resize_scales_array, FORMAT, sw_info->scales.mem.start_offset, sw_info->scal
 972              		.loc 1 252 3 is_stmt 1 view .LVU266
 249:../../Middlewares/AI_Runtime/Npu/ll_aton/ll_sw_float.c ****                        sw_info->general.input.mem.start_offset, sw_info->general.input.dim.num_elem
 973              		.loc 1 249 3 is_stmt 0 view .LVU267
 974 0012 594B     		ldr	r3, .L20
 253:../../Middlewares/AI_Runtime/Npu/ll_aton/ll_sw_float.c ****                        sw_info->scales.dim.num_elem, )
 254:../../Middlewares/AI_Runtime/Npu/ll_aton/ll_sw_float.c **** 
 255:../../Middlewares/AI_Runtime/Npu/ll_aton/ll_sw_float.c ****   ai_array *resize_roi_array_ptr = NULL;
 256:../../Middlewares/AI_Runtime/Npu/ll_aton/ll_sw_float.c ****   ai_array resize_roi_array;
 257:../../Middlewares/AI_Runtime/Npu/ll_aton/ll_sw_float.c ****   if (sw_info->roi.mem.start_offset != NULL)
 975              		.loc 1 257 23 view .LVU268
 976 0014 D0F8AC20 		ldr	r2, [r0, #172]
 252:../../Middlewares/AI_Runtime/Npu/ll_aton/ll_sw_float.c ****                        sw_info->scales.dim.num_elem, )
 977              		.loc 1 252 3 view .LVU269
ARM GAS  C:\Users\Antonio\AppData\Local\Temp\cc6EBOZH.s 			page 25


 978 0018 D0F88050 		ldr	r5, [r0, #128]
 255:../../Middlewares/AI_Runtime/Npu/ll_aton/ll_sw_float.c ****   ai_array resize_roi_array;
 979              		.loc 1 255 3 is_stmt 1 view .LVU270
 980              	.LVL15:
 256:../../Middlewares/AI_Runtime/Npu/ll_aton/ll_sw_float.c ****   if (sw_info->roi.mem.start_offset != NULL)
 981              		.loc 1 256 3 view .LVU271
 982              		.loc 1 257 3 view .LVU272
 249:../../Middlewares/AI_Runtime/Npu/ll_aton/ll_sw_float.c ****                        sw_info->general.input.mem.start_offset, sw_info->general.input.dim.num_elem
 983              		.loc 1 249 3 is_stmt 0 view .LVU273
 984 001c 2360     		str	r3, [r4]
 985              		.loc 1 257 6 view .LVU274
 986 001e 32B1     		cbz	r2, .L14
 987              	.LBB8:
 258:../../Middlewares/AI_Runtime/Npu/ll_aton/ll_sw_float.c ****   {
 259:../../Middlewares/AI_Runtime/Npu/ll_aton/ll_sw_float.c ****     resize_roi_array = (ai_array)AI_ARRAY_OBJ_INIT(FORMAT, sw_info->roi.mem.start_offset, sw_info->
 988              		.loc 1 259 5 is_stmt 1 view .LVU275
 989              		.loc 1 259 34 is_stmt 0 view .LVU276
 990 0020 D0F89810 		ldr	r1, [r0, #152]
 991              		.loc 1 259 22 view .LVU277
 992 0024 CDE90E22 		strd	r2, r2, [sp, #56]
 260:../../Middlewares/AI_Runtime/Npu/ll_aton/ll_sw_float.c ****                                                    sw_info->roi.dim.num_elem);
 261:../../Middlewares/AI_Runtime/Npu/ll_aton/ll_sw_float.c ****     resize_roi_array_ptr = &resize_roi_array;
 993              		.loc 1 261 5 is_stmt 1 view .LVU278
 994              	.LVL16:
 259:../../Middlewares/AI_Runtime/Npu/ll_aton/ll_sw_float.c ****                                                    sw_info->roi.dim.num_elem);
 995              		.loc 1 259 22 is_stmt 0 view .LVU279
 996 0028 CDE90C31 		strd	r3, r1, [sp, #48]
 997              		.loc 1 261 26 view .LVU280
 998 002c 0CAA     		add	r2, sp, #48
 999              	.LVL17:
 1000              	.L14:
 1001              		.loc 1 261 26 view .LVU281
 1002              	.LBE8:
 262:../../Middlewares/AI_Runtime/Npu/ll_aton/ll_sw_float.c ****   }
 263:../../Middlewares/AI_Runtime/Npu/ll_aton/ll_sw_float.c **** 
 264:../../Middlewares/AI_Runtime/Npu/ll_aton/ll_sw_float.c ****   AI_ARRAY_OBJ_DECLARE(resize_output_array, FORMAT, sw_info->general.output.mem.start_offset,
 1003              		.loc 1 264 3 is_stmt 1 view .LVU282
 1004 002e 036C     		ldr	r3, [r0, #64]
 265:../../Middlewares/AI_Runtime/Npu/ll_aton/ll_sw_float.c ****                        sw_info->general.output.mem.start_offset, sw_info->general.output.dim.num_el
 266:../../Middlewares/AI_Runtime/Npu/ll_aton/ll_sw_float.c **** 
 267:../../Middlewares/AI_Runtime/Npu/ll_aton/ll_sw_float.c ****   AI_TENSOR_OBJ_DECLARE(input_output, , 0x0, 4,
 1005              		.loc 1 267 3 is_stmt 0 view .LVU283
 1006 0030 4FF0827E 		mov	lr, #17039360
 264:../../Middlewares/AI_Runtime/Npu/ll_aton/ll_sw_float.c ****                        sw_info->general.output.mem.start_offset, sw_info->general.output.dim.num_el
 1007              		.loc 1 264 3 view .LVU284
 1008 0034 1193     		str	r3, [sp, #68]
 1009 0036 436D     		ldr	r3, [r0, #84]
 1010              		.loc 1 267 3 view .LVU285
 1011 0038 40F2014C 		movw	ip, #1025
 1012 003c 40F20248 		movw	r8, #1026
 264:../../Middlewares/AI_Runtime/Npu/ll_aton/ll_sw_float.c ****                        sw_info->general.output.mem.start_offset, sw_info->general.output.dim.num_el
 1013              		.loc 1 264 3 view .LVU286
 1014 0040 CDE91233 		strd	r3, r3, [sp, #72]
 1015              		.loc 1 267 3 is_stmt 1 view .LVU287
 1016 0044 0023     		movs	r3, #0
 1017 0046 0769     		ldr	r7, [r0, #16]
 264:../../Middlewares/AI_Runtime/Npu/ll_aton/ll_sw_float.c ****                        sw_info->general.output.mem.start_offset, sw_info->general.output.dim.num_el
ARM GAS  C:\Users\Antonio\AppData\Local\Temp\cc6EBOZH.s 			page 26


 1018              		.loc 1 264 3 is_stmt 0 view .LVU288
 1019 0048 4B4E     		ldr	r6, .L20
 1020              		.loc 1 267 3 view .LVU289
 1021 004a 1497     		str	r7, [sp, #80]
 1022 004c C768     		ldr	r7, [r0, #12]
 264:../../Middlewares/AI_Runtime/Npu/ll_aton/ll_sw_float.c ****                        sw_info->general.output.mem.start_offset, sw_info->general.output.dim.num_el
 1023              		.loc 1 264 3 view .LVU290
 1024 004e 1096     		str	r6, [sp, #64]
 1025              		.loc 1 267 3 view .LVU291
 1026 0050 1597     		str	r7, [sp, #84]
 1027 0052 8768     		ldr	r7, [r0, #8]
 1028 0054 CDE9283E 		strd	r3, lr, [sp, #160]
 1029 0058 1697     		str	r7, [sp, #88]
 1030 005a 4768     		ldr	r7, [r0, #4]
 268:../../Middlewares/AI_Runtime/Npu/ll_aton/ll_sw_float.c ****                         SHAPE_INIT(sw_info->general.input.dim.tensor_h, sw_info->general.input.dim.
 269:../../Middlewares/AI_Runtime/Npu/ll_aton/ll_sw_float.c ****                                    sw_info->general.input.dim.tensor_c, sw_info->general.input.dim.
 270:../../Middlewares/AI_Runtime/Npu/ll_aton/ll_sw_float.c ****                         STRIDE_INIT(sw_info->general.input.stride.h, sw_info->general.input.stride.
 271:../../Middlewares/AI_Runtime/Npu/ll_aton/ll_sw_float.c ****                                     sw_info->general.input.stride.c, sw_info->general.input.stride.
 272:../../Middlewares/AI_Runtime/Npu/ll_aton/ll_sw_float.c ****                         1, &input_output_array, NULL);
 273:../../Middlewares/AI_Runtime/Npu/ll_aton/ll_sw_float.c ****   AI_TENSOR_OBJ_DECLARE(resize_scales, , 0x0, 4,
 274:../../Middlewares/AI_Runtime/Npu/ll_aton/ll_sw_float.c ****                         SHAPE_INIT(sw_info->scales.dim.tensor_h, sw_info->scales.dim.tensor_w,
 275:../../Middlewares/AI_Runtime/Npu/ll_aton/ll_sw_float.c ****                                    sw_info->scales.dim.tensor_c, sw_info->scales.dim.tensor_b),
 276:../../Middlewares/AI_Runtime/Npu/ll_aton/ll_sw_float.c ****                         STRIDE_INIT(sw_info->scales.stride.h, sw_info->scales.stride.w, sw_info->sc
 277:../../Middlewares/AI_Runtime/Npu/ll_aton/ll_sw_float.c ****                                     sw_info->scales.stride.b),
 278:../../Middlewares/AI_Runtime/Npu/ll_aton/ll_sw_float.c ****                         1, &resize_scales_array, NULL);
 279:../../Middlewares/AI_Runtime/Npu/ll_aton/ll_sw_float.c **** 
 280:../../Middlewares/AI_Runtime/Npu/ll_aton/ll_sw_float.c ****   AI_TENSOR_OBJ_DECLARE(resize_output, , 0x0, 4,
 1031              		.loc 1 280 3 view .LVU292
 1032 005c CDE92F3E 		strd	r3, lr, [sp, #188]
 267:../../Middlewares/AI_Runtime/Npu/ll_aton/ll_sw_float.c ****                         SHAPE_INIT(sw_info->general.input.dim.tensor_h, sw_info->general.input.dim.
 1033              		.loc 1 267 3 view .LVU293
 1034 0060 1797     		str	r7, [sp, #92]
 1035 0062 14AF     		add	r7, sp, #80
 1036 0064 2B97     		str	r7, [sp, #172]
 1037 0066 476A     		ldr	r7, [r0, #36]
 1038 0068 CDF8A8C0 		str	ip, [sp, #168]
 1039 006c 1897     		str	r7, [sp, #96]
 1040 006e 076A     		ldr	r7, [r0, #32]
 1041 0070 CDF8B080 		str	r8, [sp, #176]
 1042 0074 1997     		str	r7, [sp, #100]
 1043 0076 C769     		ldr	r7, [r0, #28]
 1044              		.loc 1 280 3 view .LVU294
 1045 0078 CDF8C4C0 		str	ip, [sp, #196]
 267:../../Middlewares/AI_Runtime/Npu/ll_aton/ll_sw_float.c ****                         SHAPE_INIT(sw_info->general.input.dim.tensor_h, sw_info->general.input.dim.
 1046              		.loc 1 267 3 view .LVU295
 1047 007c 1A97     		str	r7, [sp, #104]
 1048 007e 8769     		ldr	r7, [r0, #24]
 264:../../Middlewares/AI_Runtime/Npu/ll_aton/ll_sw_float.c ****                        sw_info->general.output.mem.start_offset, sw_info->general.output.dim.num_el
 1049              		.loc 1 264 3 view .LVU296
 1050 0080 10A9     		add	r1, sp, #64
 267:../../Middlewares/AI_Runtime/Npu/ll_aton/ll_sw_float.c ****                         SHAPE_INIT(sw_info->general.input.dim.tensor_h, sw_info->general.input.dim.
 1051              		.loc 1 267 3 view .LVU297
 1052 0082 1B97     		str	r7, [sp, #108]
 1053 0084 18AF     		add	r7, sp, #96
 1054 0086 CDE92D74 		strd	r7, r4, [sp, #180]
 272:../../Middlewares/AI_Runtime/Npu/ll_aton/ll_sw_float.c ****   AI_TENSOR_OBJ_DECLARE(resize_scales, , 0x0, 4,
 1055              		.loc 1 272 54 is_stmt 1 view .LVU298
ARM GAS  C:\Users\Antonio\AppData\Local\Temp\cc6EBOZH.s 			page 27


 273:../../Middlewares/AI_Runtime/Npu/ll_aton/ll_sw_float.c ****                         SHAPE_INIT(sw_info->scales.dim.tensor_h, sw_info->scales.dim.tensor_w,
 1056              		.loc 1 273 3 view .LVU299
 1057              	.LVL18:
 278:../../Middlewares/AI_Runtime/Npu/ll_aton/ll_sw_float.c **** 
 1058              		.loc 1 278 55 view .LVU300
 1059              		.loc 1 280 3 view .LVU301
 1060 008a C46B     		ldr	r4, [r0, #60]
 281:../../Middlewares/AI_Runtime/Npu/ll_aton/ll_sw_float.c ****                         SHAPE_INIT(sw_info->general.output.dim.tensor_h, sw_info->general.output.di
 282:../../Middlewares/AI_Runtime/Npu/ll_aton/ll_sw_float.c ****                                    sw_info->general.output.dim.tensor_c, sw_info->general.output.di
 283:../../Middlewares/AI_Runtime/Npu/ll_aton/ll_sw_float.c ****                         STRIDE_INIT(sw_info->general.output.stride.h, sw_info->general.output.strid
 284:../../Middlewares/AI_Runtime/Npu/ll_aton/ll_sw_float.c ****                                     sw_info->general.output.stride.c, sw_info->general.output.strid
 285:../../Middlewares/AI_Runtime/Npu/ll_aton/ll_sw_float.c ****                         1, &resize_output_array, NULL);
 286:../../Middlewares/AI_Runtime/Npu/ll_aton/ll_sw_float.c ****   // tensor chain initialization
 287:../../Middlewares/AI_Runtime/Npu/ll_aton/ll_sw_float.c ****   AI_TENSOR_CHAIN_OBJ_DECLARE(resize_chain, , 4, AI_TENSOR_LIST_OBJ_INIT(AI_FLAG_NONE, 1, TENSORS(&
 1061              		.loc 1 287 3 is_stmt 0 view .LVU302
 1062 008c 28AF     		add	r7, sp, #160
 280:../../Middlewares/AI_Runtime/Npu/ll_aton/ll_sw_float.c ****                         SHAPE_INIT(sw_info->general.output.dim.tensor_h, sw_info->general.output.di
 1063              		.loc 1 280 3 view .LVU303
 1064 008e 1C94     		str	r4, [sp, #112]
 1065 0090 846B     		ldr	r4, [r0, #56]
 1066              		.loc 1 287 3 view .LVU304
 1067 0092 0097     		str	r7, [sp]
 280:../../Middlewares/AI_Runtime/Npu/ll_aton/ll_sw_float.c ****                         SHAPE_INIT(sw_info->general.output.dim.tensor_h, sw_info->general.output.di
 1068              		.loc 1 280 3 view .LVU305
 1069 0094 1D94     		str	r4, [sp, #116]
 1070 0096 446B     		ldr	r4, [r0, #52]
 1071              		.loc 1 287 3 view .LVU306
 1072 0098 2FAF     		add	r7, sp, #188
 280:../../Middlewares/AI_Runtime/Npu/ll_aton/ll_sw_float.c ****                         SHAPE_INIT(sw_info->general.output.dim.tensor_h, sw_info->general.output.di
 1073              		.loc 1 280 3 view .LVU307
 1074 009a 1E94     		str	r4, [sp, #120]
 1075 009c 046B     		ldr	r4, [r0, #48]
 1076              		.loc 1 287 3 view .LVU308
 1077 009e CDF8DCD0 		str	sp, [sp, #220]
 280:../../Middlewares/AI_Runtime/Npu/ll_aton/ll_sw_float.c ****                         SHAPE_INIT(sw_info->general.output.dim.tensor_h, sw_info->general.output.di
 1078              		.loc 1 280 3 view .LVU309
 1079 00a2 1F94     		str	r4, [sp, #124]
 1080 00a4 1CAC     		add	r4, sp, #112
 1081 00a6 CDE93248 		strd	r4, r8, [sp, #200]
 1082 00aa 046D     		ldr	r4, [r0, #80]
 1083              		.loc 1 287 3 view .LVU310
 1084 00ac 0197     		str	r7, [sp, #4]
 280:../../Middlewares/AI_Runtime/Npu/ll_aton/ll_sw_float.c ****                         SHAPE_INIT(sw_info->general.output.dim.tensor_h, sw_info->general.output.di
 1085              		.loc 1 280 3 view .LVU311
 1086 00ae 2094     		str	r4, [sp, #128]
 1087 00b0 C46C     		ldr	r4, [r0, #76]
 1088              		.loc 1 287 3 view .LVU312
 1089 00b2 3C93     		str	r3, [sp, #240]
 280:../../Middlewares/AI_Runtime/Npu/ll_aton/ll_sw_float.c ****                         SHAPE_INIT(sw_info->general.output.dim.tensor_h, sw_info->general.output.di
 1090              		.loc 1 280 3 view .LVU313
 1091 00b4 2194     		str	r4, [sp, #132]
 1092 00b6 846C     		ldr	r4, [r0, #72]
 1093              		.loc 1 287 3 view .LVU314
 1094 00b8 0293     		str	r3, [sp, #8]
 280:../../Middlewares/AI_Runtime/Npu/ll_aton/ll_sw_float.c ****                         SHAPE_INIT(sw_info->general.output.dim.tensor_h, sw_info->general.output.di
 1095              		.loc 1 280 3 view .LVU315
 1096 00ba 2294     		str	r4, [sp, #136]
ARM GAS  C:\Users\Antonio\AppData\Local\Temp\cc6EBOZH.s 			page 28


 1097 00bc 446C     		ldr	r4, [r0, #68]
 1098 00be 2394     		str	r4, [sp, #140]
 1099 00c0 20AC     		add	r4, sp, #128
 1100 00c2 CDE93441 		strd	r4, r1, [sp, #208]
 285:../../Middlewares/AI_Runtime/Npu/ll_aton/ll_sw_float.c ****   // tensor chain initialization
 1101              		.loc 1 285 55 is_stmt 1 view .LVU316
 1102              		.loc 1 287 3 view .LVU317
 1103 00c6 0421     		movs	r1, #4
 1104 00c8 0491     		str	r1, [sp, #16]
 1105 00ca 0121     		movs	r1, #1
 1106 00cc CDE93831 		strd	r3, r1, [sp, #224]
 1107 00d0 3691     		str	r1, [sp, #216]
 1108 00d2 01A9     		add	r1, sp, #4
 1109 00d4 CDE93A13 		strd	r1, r3, [sp, #232]
 1110 00d8 02A9     		add	r1, sp, #8
 1111 00da CDE93D13 		strd	r1, r3, [sp, #244]
 1112 00de 03A9     		add	r1, sp, #12
 1113 00e0 CDE94013 		strd	r1, r3, [sp, #256]
 1114 00e4 36A9     		add	r1, sp, #216
 1115 00e6 0591     		str	r1, [sp, #20]
 288:../../Middlewares/AI_Runtime/Npu/ll_aton/ll_sw_float.c ****                               AI_TENSOR_LIST_OBJ_INIT(AI_FLAG_NONE, 1, TENSORS(&resize_output)),
 289:../../Middlewares/AI_Runtime/Npu/ll_aton/ll_sw_float.c ****                               AI_TENSOR_LIST_OBJ_EMPTY, AI_TENSOR_LIST_OBJ_EMPTY)
 290:../../Middlewares/AI_Runtime/Npu/ll_aton/ll_sw_float.c **** 
 291:../../Middlewares/AI_Runtime/Npu/ll_aton/ll_sw_float.c ****   // extrapolating the scales values needed
 292:../../Middlewares/AI_Runtime/Npu/ll_aton/ll_sw_float.c ****   const ai_tensor *p = &resize_scales;
 1116              		.loc 1 292 3 view .LVU318
 1117              	.LVL19:
 293:../../Middlewares/AI_Runtime/Npu/ll_aton/ll_sw_float.c ****   const ai_float *s = AI_ARRAY_OBJ_DATA(p->data, ai_float);
 1118              		.loc 1 293 3 view .LVU319
 294:../../Middlewares/AI_Runtime/Npu/ll_aton/ll_sw_float.c ****   AI_ARRAY_OBJ_DECLARE_STATIC(rs, ai_float, AI_ARRAY_FORMAT_FLOAT, AI_CONST, 2, s[2], s[3])
 1119              		.loc 1 294 3 view .LVU320
 1120 00e8 0221     		movs	r1, #2
 1121 00ea 2591     		str	r1, [sp, #148]
 1122 00ec 06A9     		add	r1, sp, #24
 1123 00ee 2496     		str	r6, [sp, #144]
 1124 00f0 AE68     		ldr	r6, [r5, #8]	@ float
 1125 00f2 ED68     		ldr	r5, [r5, #12]	@ float
 1126              	.LVL20:
 1127              		.loc 1 294 3 is_stmt 0 view .LVU321
 1128 00f4 CDE92613 		strd	r1, r3, [sp, #152]
 295:../../Middlewares/AI_Runtime/Npu/ll_aton/ll_sw_float.c **** 
 296:../../Middlewares/AI_Runtime/Npu/ll_aton/ll_sw_float.c ****   // layer initialization
 297:../../Middlewares/AI_Runtime/Npu/ll_aton/ll_sw_float.c ****   if ((ai_resize_mode)sw_info->mode == AI_RESIZE_ZEROS)
 1129              		.loc 1 297 3 is_stmt 1 view .LVU322
 1130              		.loc 1 297 30 is_stmt 0 view .LVU323
 1131 00f8 90F8EC10 		ldrb	r1, [r0, #236]	@ zero_extendqisi2
 287:../../Middlewares/AI_Runtime/Npu/ll_aton/ll_sw_float.c ****                               AI_TENSOR_LIST_OBJ_INIT(AI_FLAG_NONE, 1, TENSORS(&resize_output)),
 1132              		.loc 1 287 3 view .LVU324
 1133 00fc 04AC     		add	r4, sp, #16
 294:../../Middlewares/AI_Runtime/Npu/ll_aton/ll_sw_float.c ****   AI_ARRAY_OBJ_DECLARE_STATIC(rs, ai_float, AI_ARRAY_FORMAT_FLOAT, AI_CONST, 2, s[2], s[3])
 1134              		.loc 1 294 3 view .LVU325
 1135 00fe 0795     		str	r5, [sp, #28]	@ float
 287:../../Middlewares/AI_Runtime/Npu/ll_aton/ll_sw_float.c ****                               AI_TENSOR_LIST_OBJ_INIT(AI_FLAG_NONE, 1, TENSORS(&resize_output)),
 1136              		.loc 1 287 3 view .LVU326
 1137 0100 3F93     		str	r3, [sp, #252]
 1138 0102 0393     		str	r3, [sp, #12]
 294:../../Middlewares/AI_Runtime/Npu/ll_aton/ll_sw_float.c ****   AI_ARRAY_OBJ_DECLARE_STATIC(rs, ai_float, AI_ARRAY_FORMAT_FLOAT, AI_CONST, 2, s[2], s[3])
ARM GAS  C:\Users\Antonio\AppData\Local\Temp\cc6EBOZH.s 			page 29


 1139              		.loc 1 294 3 view .LVU327
 1140 0104 0696     		str	r6, [sp, #24]	@ float
 1141 0106 24AD     		add	r5, sp, #144
 1142              		.loc 1 297 6 view .LVU328
 1143 0108 99B9     		cbnz	r1, .L15
 1144              	.LBB9:
 298:../../Middlewares/AI_Runtime/Npu/ll_aton/ll_sw_float.c ****   {
 299:../../Middlewares/AI_Runtime/Npu/ll_aton/ll_sw_float.c ****     AI_LAYER_OBJ_DECLARE(resize_layer, 1, UPSAMPLE_TYPE, 0x0, NULL, upsample, forward_upsample_zero
 1145              		.loc 1 299 5 is_stmt 1 view .LVU329
 1146 010a 1C4B     		ldr	r3, .L20+4
 300:../../Middlewares/AI_Runtime/Npu/ll_aton/ll_sw_float.c ****                          NULL, NULL, , .mode = AI_UPSAMPLE_ZEROS, .center = false, .scales = AI_ARR
 301:../../Middlewares/AI_Runtime/Npu/ll_aton/ll_sw_float.c ****                          .nearest_mode = AI_ROUND_PREFER_FLOOR)
 302:../../Middlewares/AI_Runtime/Npu/ll_aton/ll_sw_float.c ****     resize_layer.forward(AI_LAYER_OBJ(&resize_layer));
 1147              		.loc 1 302 5 is_stmt 0 view .LVU330
 1148 010c 42A8     		add	r0, sp, #264
 1149              	.LVL21:
 299:../../Middlewares/AI_Runtime/Npu/ll_aton/ll_sw_float.c ****                          NULL, NULL, , .mode = AI_UPSAMPLE_ZEROS, .center = false, .scales = AI_ARR
 1150              		.loc 1 299 5 view .LVU331
 1151 010e CDE94231 		strd	r3, r1, [sp, #264]
 1152 0112 1B4B     		ldr	r3, .L20+8
 1153 0114 CDE94411 		strd	r1, r1, [sp, #272]
 1154 0118 CDE94734 		strd	r3, r4, [sp, #284]
 1155 011c 4691     		str	r1, [sp, #280]
 1156 011e ADF82411 		strh	r1, [sp, #292]	@ movhi
 1157 0122 4A95     		str	r5, [sp, #296]
 1158 0124 8DF82C11 		strb	r1, [sp, #300]
 1159              		.loc 1 302 5 is_stmt 1 view .LVU332
 1160 0128 FFF7FEFF 		bl	forward_upsample_zeros
 1161              	.LVL22:
 1162              	.L13:
 1163              		.loc 1 302 5 is_stmt 0 view .LVU333
 1164              	.LBE9:
 303:../../Middlewares/AI_Runtime/Npu/ll_aton/ll_sw_float.c ****   }
 304:../../Middlewares/AI_Runtime/Npu/ll_aton/ll_sw_float.c ****   else
 305:../../Middlewares/AI_Runtime/Npu/ll_aton/ll_sw_float.c ****   {
 306:../../Middlewares/AI_Runtime/Npu/ll_aton/ll_sw_float.c ****     AI_LAYER_OBJ_DECLARE(resize_layer, 1, RESIZE_TYPE, 0x0, NULL, resize, forward_resize, &resize_c
 307:../../Middlewares/AI_Runtime/Npu/ll_aton/ll_sw_float.c ****                          .cubic_coeff_a = sw_info->cubic_coeff_a, .exclude_outside = sw_info->exclu
 308:../../Middlewares/AI_Runtime/Npu/ll_aton/ll_sw_float.c ****                          .extrapol_val = sw_info->extrapol_val, .mode = (ai_resize_mode)sw_info->mo
 309:../../Middlewares/AI_Runtime/Npu/ll_aton/ll_sw_float.c ****                          .nearest_mode = (ai_nearest_mode)sw_info->nearest_mode,
 310:../../Middlewares/AI_Runtime/Npu/ll_aton/ll_sw_float.c ****                          .coord_transf_mode = (ai_coord_transf_mode)sw_info->coord_transf_mode,
 311:../../Middlewares/AI_Runtime/Npu/ll_aton/ll_sw_float.c ****                          .scales = AI_ARRAY_OBJ(&rs), .roi = resize_roi_array_ptr)
 312:../../Middlewares/AI_Runtime/Npu/ll_aton/ll_sw_float.c ****     resize_layer.forward(AI_LAYER_OBJ(&resize_layer));
 313:../../Middlewares/AI_Runtime/Npu/ll_aton/ll_sw_float.c ****   }
 314:../../Middlewares/AI_Runtime/Npu/ll_aton/ll_sw_float.c **** }
 1165              		.loc 1 314 1 view .LVU334
 1166 012c 50B0     		add	sp, sp, #320
 1167              		.cfi_remember_state
 1168              		.cfi_def_cfa_offset 24
 1169              		@ sp needed
 1170 012e BDE8F081 		pop	{r4, r5, r6, r7, r8, pc}
 1171              	.LVL23:
 1172              	.L15:
 1173              		.cfi_restore_state
 1174              	.LBB10:
 306:../../Middlewares/AI_Runtime/Npu/ll_aton/ll_sw_float.c ****                          .cubic_coeff_a = sw_info->cubic_coeff_a, .exclude_outside = sw_info->exclu
 1175              		.loc 1 306 5 is_stmt 1 view .LVU335
 1176 0132 144E     		ldr	r6, .L20+12
ARM GAS  C:\Users\Antonio\AppData\Local\Temp\cc6EBOZH.s 			page 30


 1177 0134 CDE94433 		strd	r3, r3, [sp, #272]
 1178 0138 CDE94263 		strd	r6, r3, [sp, #264]
 1179 013c 4693     		str	r3, [sp, #280]
 1180 013e 124B     		ldr	r3, .L20+16
 1181 0140 CDE94E52 		strd	r5, r2, [sp, #312]
 312:../../Middlewares/AI_Runtime/Npu/ll_aton/ll_sw_float.c ****   }
 1182              		.loc 1 312 5 view .LVU336
 306:../../Middlewares/AI_Runtime/Npu/ll_aton/ll_sw_float.c ****                          .cubic_coeff_a = sw_info->cubic_coeff_a, .exclude_outside = sw_info->exclu
 1183              		.loc 1 306 5 is_stmt 0 view .LVU337
 1184 0144 CDE94734 		strd	r3, r4, [sp, #284]
 1185 0148 90F8EE30 		ldrb	r3, [r0, #238]	@ zero_extendqisi2
 1186 014c 8DF83411 		strb	r1, [sp, #308]
 1187 0150 8DF82431 		strb	r3, [sp, #292]
 1188 0154 D0F8E030 		ldr	r3, [r0, #224]	@ float
 1189 0158 4A93     		str	r3, [sp, #296]	@ float
 1190 015a 90F8E430 		ldrb	r3, [r0, #228]	@ zero_extendqisi2
 1191 015e 8DF82C31 		strb	r3, [sp, #300]
 1192 0162 D0F8E830 		ldr	r3, [r0, #232]	@ float
 1193 0166 4C93     		str	r3, [sp, #304]	@ float
 1194 0168 90F8ED30 		ldrb	r3, [r0, #237]	@ zero_extendqisi2
 312:../../Middlewares/AI_Runtime/Npu/ll_aton/ll_sw_float.c ****   }
 1195              		.loc 1 312 5 view .LVU338
 1196 016c 42A8     		add	r0, sp, #264
 1197              	.LVL24:
 306:../../Middlewares/AI_Runtime/Npu/ll_aton/ll_sw_float.c ****                          .cubic_coeff_a = sw_info->cubic_coeff_a, .exclude_outside = sw_info->exclu
 1198              		.loc 1 306 5 view .LVU339
 1199 016e 8DF83531 		strb	r3, [sp, #309]
 312:../../Middlewares/AI_Runtime/Npu/ll_aton/ll_sw_float.c ****   }
 1200              		.loc 1 312 5 view .LVU340
 1201 0172 FFF7FEFF 		bl	forward_resize
 1202              	.LVL25:
 312:../../Middlewares/AI_Runtime/Npu/ll_aton/ll_sw_float.c ****   }
 1203              		.loc 1 312 5 view .LVU341
 1204              	.LBE10:
 1205              		.loc 1 314 1 view .LVU342
 1206 0176 D9E7     		b	.L13
 1207              	.L21:
 1208              		.align	2
 1209              	.L20:
 1210 0178 40108200 		.word	8523840
 1211 017c 12010100 		.word	65810
 1212 0180 00000000 		.word	forward_upsample_zeros
 1213 0184 1B010100 		.word	65819
 1214 0188 00000000 		.word	forward_resize
 1215              		.cfi_endproc
 1216              	.LFE18:
 1218              		.section	.text.ll_sw_forward_softmax,"ax",%progbits
 1219              		.align	1
 1220              		.global	ll_sw_forward_softmax
 1221              		.syntax unified
 1222              		.thumb
 1223              		.thumb_func
 1225              	ll_sw_forward_softmax:
 1226              	.LVL26:
 1227              	.LFB19:
 315:../../Middlewares/AI_Runtime/Npu/ll_aton/ll_sw_float.c **** 
 316:../../Middlewares/AI_Runtime/Npu/ll_aton/ll_sw_float.c **** //##########################################################################################
ARM GAS  C:\Users\Antonio\AppData\Local\Temp\cc6EBOZH.s 			page 31


 317:../../Middlewares/AI_Runtime/Npu/ll_aton/ll_sw_float.c **** /** Softmax forward function */
 318:../../Middlewares/AI_Runtime/Npu/ll_aton/ll_sw_float.c **** void ll_sw_forward_softmax(/* int processor, */ void *sw_info_struct)
 319:../../Middlewares/AI_Runtime/Npu/ll_aton/ll_sw_float.c **** {
 1228              		.loc 1 319 1 is_stmt 1 view -0
 1229              		.cfi_startproc
 1230              		@ args = 0, pretend = 0, frame = 336
 1231              		@ frame_needed = 0, uses_anonymous_args = 0
 320:../../Middlewares/AI_Runtime/Npu/ll_aton/ll_sw_float.c ****   Softmax_sw_info *sw_info = (Softmax_sw_info *)sw_info_struct;
 1232              		.loc 1 320 3 view .LVU344
 321:../../Middlewares/AI_Runtime/Npu/ll_aton/ll_sw_float.c **** 
 322:../../Middlewares/AI_Runtime/Npu/ll_aton/ll_sw_float.c ****   // array init
 323:../../Middlewares/AI_Runtime/Npu/ll_aton/ll_sw_float.c ****   int32_t format = sw_info->general.input.format.is_signed ? (AI_ARRAY_FORMAT_S8 | AI_FMT_FLAG_IS_I
 1233              		.loc 1 323 3 view .LVU345
 324:../../Middlewares/AI_Runtime/Npu/ll_aton/ll_sw_float.c ****                                                            : (AI_ARRAY_FORMAT_U8 | AI_FMT_FLAG_IS_I
 1234              		.loc 1 324 60 is_stmt 0 view .LVU346
 1235 0000 90F82C10 		ldrb	r1, [r0, #44]	@ zero_extendqisi2
 1236              		.loc 1 324 60 discriminator 1 view .LVU347
 1237 0004 564B     		ldr	r3, .L29
 1238 0006 574A     		ldr	r2, .L29+4
 1239 0008 0029     		cmp	r1, #0
 319:../../Middlewares/AI_Runtime/Npu/ll_aton/ll_sw_float.c ****   Softmax_sw_info *sw_info = (Softmax_sw_info *)sw_info_struct;
 1240              		.loc 1 319 1 view .LVU348
 1241 000a F0B5     		push	{r4, r5, r6, r7, lr}
 1242              		.cfi_def_cfa_offset 20
 1243              		.cfi_offset 4, -20
 1244              		.cfi_offset 5, -16
 1245              		.cfi_offset 6, -12
 1246              		.cfi_offset 7, -8
 1247              		.cfi_offset 14, -4
 1248              		.loc 1 324 60 discriminator 1 view .LVU349
 1249 000c 08BF     		it	eq
 1250 000e 1946     		moveq	r1, r3
 319:../../Middlewares/AI_Runtime/Npu/ll_aton/ll_sw_float.c ****   Softmax_sw_info *sw_info = (Softmax_sw_info *)sw_info_struct;
 1251              		.loc 1 319 1 view .LVU350
 1252 0010 0446     		mov	r4, r0
 1253              		.loc 1 324 60 discriminator 1 view .LVU351
 1254 0012 18BF     		it	ne
 1255 0014 1146     		movne	r1, r2
 1256              	.LVL27:
 325:../../Middlewares/AI_Runtime/Npu/ll_aton/ll_sw_float.c ****   AI_ARRAY_OBJ_DECLARE(input_output_array, format, sw_info->general.input.mem.start_offset,
 1257              		.loc 1 325 3 is_stmt 1 view .LVU352
 319:../../Middlewares/AI_Runtime/Npu/ll_aton/ll_sw_float.c ****   Softmax_sw_info *sw_info = (Softmax_sw_info *)sw_info_struct;
 1258              		.loc 1 319 1 is_stmt 0 view .LVU353
 1259 0016 D5B0     		sub	sp, sp, #340
 1260              		.cfi_def_cfa_offset 360
 1261              		.loc 1 325 3 view .LVU354
 1262 0018 0691     		str	r1, [sp, #24]
 1263 001a 6169     		ldr	r1, [r4, #20]
 1264              	.LVL28:
 326:../../Middlewares/AI_Runtime/Npu/ll_aton/ll_sw_float.c ****                        sw_info->general.input.mem.start_offset, sw_info->general.input.dim.num_elem
 327:../../Middlewares/AI_Runtime/Npu/ll_aton/ll_sw_float.c **** 
 328:../../Middlewares/AI_Runtime/Npu/ll_aton/ll_sw_float.c ****   format = sw_info->general.output.format.is_signed ? (AI_ARRAY_FORMAT_S8 | AI_FMT_FLAG_IS_IO)
 329:../../Middlewares/AI_Runtime/Npu/ll_aton/ll_sw_float.c ****                                                     : (AI_ARRAY_FORMAT_U8 | AI_FMT_FLAG_IS_IO);
 330:../../Middlewares/AI_Runtime/Npu/ll_aton/ll_sw_float.c ****   AI_ARRAY_OBJ_DECLARE(softmax_output_array, format, sw_info->general.output.mem.start_offset,
 331:../../Middlewares/AI_Runtime/Npu/ll_aton/ll_sw_float.c ****                        sw_info->general.output.mem.start_offset, sw_info->general.output.dim.num_el
 332:../../Middlewares/AI_Runtime/Npu/ll_aton/ll_sw_float.c **** 
 333:../../Middlewares/AI_Runtime/Npu/ll_aton/ll_sw_float.c ****   AI_ARRAY_OBJ_DECLARE(sm_scratch0_array, AI_ARRAY_FORMAT_S32, sw_info->scratch.mem.start_offset,
ARM GAS  C:\Users\Antonio\AppData\Local\Temp\cc6EBOZH.s 			page 32


 334:../../Middlewares/AI_Runtime/Npu/ll_aton/ll_sw_float.c ****                        sw_info->scratch.mem.start_offset, sw_info->scratch.dim.num_elem, )
 335:../../Middlewares/AI_Runtime/Npu/ll_aton/ll_sw_float.c **** 
 336:../../Middlewares/AI_Runtime/Npu/ll_aton/ll_sw_float.c ****   AI_TENSOR_OBJ_DECLARE(input_output, , 0x0, 4,
 1265              		.loc 1 336 3 view .LVU355
 1266 001c 4FF0827C 		mov	ip, #17039360
 325:../../Middlewares/AI_Runtime/Npu/ll_aton/ll_sw_float.c ****   AI_ARRAY_OBJ_DECLARE(input_output_array, format, sw_info->general.input.mem.start_offset,
 1267              		.loc 1 325 3 view .LVU356
 1268 0020 0791     		str	r1, [sp, #28]
 1269 0022 A16A     		ldr	r1, [r4, #40]
 1270              		.loc 1 336 3 view .LVU357
 1271 0024 40F20146 		movw	r6, #1025
 325:../../Middlewares/AI_Runtime/Npu/ll_aton/ll_sw_float.c ****   AI_ARRAY_OBJ_DECLARE(input_output_array, format, sw_info->general.input.mem.start_offset,
 1272              		.loc 1 325 3 view .LVU358
 1273 0028 CDE90811 		strd	r1, r1, [sp, #32]
 328:../../Middlewares/AI_Runtime/Npu/ll_aton/ll_sw_float.c ****                                                     : (AI_ARRAY_FORMAT_U8 | AI_FMT_FLAG_IS_IO);
 1274              		.loc 1 328 3 is_stmt 1 view .LVU359
 329:../../Middlewares/AI_Runtime/Npu/ll_aton/ll_sw_float.c ****   AI_ARRAY_OBJ_DECLARE(softmax_output_array, format, sw_info->general.output.mem.start_offset,
 1275              		.loc 1 329 53 is_stmt 0 view .LVU360
 1276 002c 94F85810 		ldrb	r1, [r4, #88]	@ zero_extendqisi2
 1277              		.loc 1 336 3 view .LVU361
 1278 0030 2769     		ldr	r7, [r4, #16]
 329:../../Middlewares/AI_Runtime/Npu/ll_aton/ll_sw_float.c ****   AI_ARRAY_OBJ_DECLARE(softmax_output_array, format, sw_info->general.output.mem.start_offset,
 1279              		.loc 1 329 53 discriminator 1 view .LVU362
 1280 0032 0029     		cmp	r1, #0
 333:../../Middlewares/AI_Runtime/Npu/ll_aton/ll_sw_float.c ****                        sw_info->scratch.mem.start_offset, sw_info->scratch.dim.num_elem, )
 1281              		.loc 1 333 3 view .LVU363
 1282 0034 4C49     		ldr	r1, .L29+8
 329:../../Middlewares/AI_Runtime/Npu/ll_aton/ll_sw_float.c ****   AI_ARRAY_OBJ_DECLARE(softmax_output_array, format, sw_info->general.output.mem.start_offset,
 1283              		.loc 1 329 53 discriminator 1 view .LVU364
 1284 0036 18BF     		it	ne
 1285 0038 1346     		movne	r3, r2
 1286              	.LVL29:
 330:../../Middlewares/AI_Runtime/Npu/ll_aton/ll_sw_float.c ****                        sw_info->general.output.mem.start_offset, sw_info->general.output.dim.num_el
 1287              		.loc 1 330 3 is_stmt 1 view .LVU365
 333:../../Middlewares/AI_Runtime/Npu/ll_aton/ll_sw_float.c ****                        sw_info->scratch.mem.start_offset, sw_info->scratch.dim.num_elem, )
 1288              		.loc 1 333 3 is_stmt 0 view .LVU366
 1289 003a 0E91     		str	r1, [sp, #56]
 1290 003c E16E     		ldr	r1, [r4, #108]
 330:../../Middlewares/AI_Runtime/Npu/ll_aton/ll_sw_float.c ****                        sw_info->general.output.mem.start_offset, sw_info->general.output.dim.num_el
 1291              		.loc 1 330 3 view .LVU367
 1292 003e 0A93     		str	r3, [sp, #40]
 333:../../Middlewares/AI_Runtime/Npu/ll_aton/ll_sw_float.c ****                        sw_info->scratch.mem.start_offset, sw_info->scratch.dim.num_elem, )
 1293              		.loc 1 333 3 view .LVU368
 1294 0040 0F91     		str	r1, [sp, #60]
 1295 0042 D4F88010 		ldr	r1, [r4, #128]
 330:../../Middlewares/AI_Runtime/Npu/ll_aton/ll_sw_float.c ****                        sw_info->general.output.mem.start_offset, sw_info->general.output.dim.num_el
 1296              		.loc 1 330 3 view .LVU369
 1297 0046 236C     		ldr	r3, [r4, #64]
 1298              	.LVL30:
 333:../../Middlewares/AI_Runtime/Npu/ll_aton/ll_sw_float.c ****                        sw_info->scratch.mem.start_offset, sw_info->scratch.dim.num_elem, )
 1299              		.loc 1 333 3 view .LVU370
 1300 0048 CDE91011 		strd	r1, r1, [sp, #64]
 1301              		.loc 1 336 3 view .LVU371
 1302 004c 0021     		movs	r1, #0
 1303 004e 1297     		str	r7, [sp, #72]
 1304 0050 E768     		ldr	r7, [r4, #12]
 330:../../Middlewares/AI_Runtime/Npu/ll_aton/ll_sw_float.c ****                        sw_info->general.output.mem.start_offset, sw_info->general.output.dim.num_el
ARM GAS  C:\Users\Antonio\AppData\Local\Temp\cc6EBOZH.s 			page 33


 1305              		.loc 1 330 3 view .LVU372
 1306 0052 0B93     		str	r3, [sp, #44]
 1307              		.loc 1 336 3 view .LVU373
 1308 0054 1397     		str	r7, [sp, #76]
 330:../../Middlewares/AI_Runtime/Npu/ll_aton/ll_sw_float.c ****                        sw_info->general.output.mem.start_offset, sw_info->general.output.dim.num_el
 1309              		.loc 1 330 3 view .LVU374
 1310 0056 636D     		ldr	r3, [r4, #84]
 1311              		.loc 1 336 3 view .LVU375
 1312 0058 A768     		ldr	r7, [r4, #8]
 1313 005a CDE92A1C 		strd	r1, ip, [sp, #168]
 330:../../Middlewares/AI_Runtime/Npu/ll_aton/ll_sw_float.c ****                        sw_info->general.output.mem.start_offset, sw_info->general.output.dim.num_el
 1314              		.loc 1 330 3 view .LVU376
 1315 005e CDE90C33 		strd	r3, r3, [sp, #48]
 333:../../Middlewares/AI_Runtime/Npu/ll_aton/ll_sw_float.c ****                        sw_info->scratch.mem.start_offset, sw_info->scratch.dim.num_elem, )
 1316              		.loc 1 333 3 is_stmt 1 view .LVU377
 1317              		.loc 1 336 3 view .LVU378
 1318 0062 2C96     		str	r6, [sp, #176]
 1319 0064 1497     		str	r7, [sp, #80]
 1320 0066 6768     		ldr	r7, [r4, #4]
 1321 0068 12AD     		add	r5, sp, #72
 1322 006a 1597     		str	r7, [sp, #84]
 1323 006c 40F20247 		movw	r7, #1026
 1324 0070 2D95     		str	r5, [sp, #180]
 1325 0072 656A     		ldr	r5, [r4, #36]
 325:../../Middlewares/AI_Runtime/Npu/ll_aton/ll_sw_float.c ****                        sw_info->general.input.mem.start_offset, sw_info->general.input.dim.num_elem
 1326              		.loc 1 325 3 is_stmt 0 view .LVU379
 1327 0074 06A8     		add	r0, sp, #24
 1328              	.LVL31:
 1329              		.loc 1 336 3 view .LVU380
 1330 0076 1695     		str	r5, [sp, #88]
 1331 0078 256A     		ldr	r5, [r4, #32]
 337:../../Middlewares/AI_Runtime/Npu/ll_aton/ll_sw_float.c ****                         SHAPE_INIT(sw_info->general.input.dim.tensor_h, sw_info->general.input.dim.
 338:../../Middlewares/AI_Runtime/Npu/ll_aton/ll_sw_float.c ****                                    sw_info->general.input.dim.tensor_c, sw_info->general.input.dim.
 339:../../Middlewares/AI_Runtime/Npu/ll_aton/ll_sw_float.c ****                         STRIDE_INIT(sw_info->general.input.stride.h, sw_info->general.input.stride.
 340:../../Middlewares/AI_Runtime/Npu/ll_aton/ll_sw_float.c ****                                     sw_info->general.input.stride.c, sw_info->general.input.stride.
 341:../../Middlewares/AI_Runtime/Npu/ll_aton/ll_sw_float.c ****                         1, &input_output_array, NULL);
 342:../../Middlewares/AI_Runtime/Npu/ll_aton/ll_sw_float.c **** 
 343:../../Middlewares/AI_Runtime/Npu/ll_aton/ll_sw_float.c ****   AI_TENSOR_OBJ_DECLARE(softmax_output, , 0x0, 4,
 1332              		.loc 1 343 3 view .LVU381
 1333 007a CDE9311C 		strd	r1, ip, [sp, #196]
 336:../../Middlewares/AI_Runtime/Npu/ll_aton/ll_sw_float.c ****                         SHAPE_INIT(sw_info->general.input.dim.tensor_h, sw_info->general.input.dim.
 1334              		.loc 1 336 3 view .LVU382
 1335 007e 1795     		str	r5, [sp, #92]
 1336 0080 E569     		ldr	r5, [r4, #28]
 1337 0082 2E97     		str	r7, [sp, #184]
 1338 0084 1895     		str	r5, [sp, #96]
 1339 0086 A569     		ldr	r5, [r4, #24]
 1340              		.loc 1 343 3 view .LVU383
 1341 0088 3396     		str	r6, [sp, #204]
 336:../../Middlewares/AI_Runtime/Npu/ll_aton/ll_sw_float.c ****                         SHAPE_INIT(sw_info->general.input.dim.tensor_h, sw_info->general.input.dim.
 1342              		.loc 1 336 3 view .LVU384
 1343 008a 1995     		str	r5, [sp, #100]
 1344 008c 16AD     		add	r5, sp, #88
 1345 008e CDE92F50 		strd	r5, r0, [sp, #188]
 341:../../Middlewares/AI_Runtime/Npu/ll_aton/ll_sw_float.c **** 
 1346              		.loc 1 341 54 is_stmt 1 view .LVU385
 1347              		.loc 1 343 3 view .LVU386
ARM GAS  C:\Users\Antonio\AppData\Local\Temp\cc6EBOZH.s 			page 34


 1348 0092 E06B     		ldr	r0, [r4, #60]
 330:../../Middlewares/AI_Runtime/Npu/ll_aton/ll_sw_float.c ****                        sw_info->general.output.mem.start_offset, sw_info->general.output.dim.num_el
 1349              		.loc 1 330 3 is_stmt 0 view .LVU387
 1350 0094 0AAA     		add	r2, sp, #40
 1351              	.LVL32:
 1352              		.loc 1 343 3 view .LVU388
 1353 0096 1A90     		str	r0, [sp, #104]
 1354 0098 A06B     		ldr	r0, [r4, #56]
 333:../../Middlewares/AI_Runtime/Npu/ll_aton/ll_sw_float.c ****                        sw_info->scratch.mem.start_offset, sw_info->scratch.dim.num_elem, )
 1355              		.loc 1 333 3 view .LVU389
 1356 009a 0EAB     		add	r3, sp, #56
 1357              		.loc 1 343 3 view .LVU390
 1358 009c 1B90     		str	r0, [sp, #108]
 1359 009e 606B     		ldr	r0, [r4, #52]
 344:../../Middlewares/AI_Runtime/Npu/ll_aton/ll_sw_float.c ****                         SHAPE_INIT(sw_info->general.output.dim.tensor_h, sw_info->general.output.di
 345:../../Middlewares/AI_Runtime/Npu/ll_aton/ll_sw_float.c ****                                    sw_info->general.output.dim.tensor_c, sw_info->general.output.di
 346:../../Middlewares/AI_Runtime/Npu/ll_aton/ll_sw_float.c ****                         STRIDE_INIT(sw_info->general.output.stride.h, sw_info->general.output.strid
 347:../../Middlewares/AI_Runtime/Npu/ll_aton/ll_sw_float.c ****                                     sw_info->general.output.stride.c, sw_info->general.output.strid
 348:../../Middlewares/AI_Runtime/Npu/ll_aton/ll_sw_float.c ****                         1, &softmax_output_array, NULL);
 349:../../Middlewares/AI_Runtime/Npu/ll_aton/ll_sw_float.c **** 
 350:../../Middlewares/AI_Runtime/Npu/ll_aton/ll_sw_float.c ****   AI_TENSOR_OBJ_DECLARE(sm_scratch0, , 0x0, 4,
 351:../../Middlewares/AI_Runtime/Npu/ll_aton/ll_sw_float.c ****                         SHAPE_INIT(sw_info->scratch.dim.tensor_h, sw_info->scratch.dim.tensor_w,
 352:../../Middlewares/AI_Runtime/Npu/ll_aton/ll_sw_float.c ****                                    sw_info->scratch.dim.tensor_c, sw_info->scratch.dim.tensor_b),
 353:../../Middlewares/AI_Runtime/Npu/ll_aton/ll_sw_float.c ****                         STRIDE_INIT(sw_info->scratch.stride.h, sw_info->scratch.stride.w, sw_info->
 354:../../Middlewares/AI_Runtime/Npu/ll_aton/ll_sw_float.c ****                                     sw_info->scratch.stride.b),
 355:../../Middlewares/AI_Runtime/Npu/ll_aton/ll_sw_float.c ****                         1, &sm_scratch0_array, NULL);
 356:../../Middlewares/AI_Runtime/Npu/ll_aton/ll_sw_float.c **** 
 357:../../Middlewares/AI_Runtime/Npu/ll_aton/ll_sw_float.c ****   // tensor chain initialization
 358:../../Middlewares/AI_Runtime/Npu/ll_aton/ll_sw_float.c ****   AI_TENSOR_CHAIN_OBJ_DECLARE(softmax_chain, , 4, AI_TENSOR_LIST_OBJ_INIT(AI_FLAG_NONE, 1, TENSORS(
 1360              		.loc 1 358 3 view .LVU391
 1361 00a0 04AD     		add	r5, sp, #16
 343:../../Middlewares/AI_Runtime/Npu/ll_aton/ll_sw_float.c ****                         SHAPE_INIT(sw_info->general.output.dim.tensor_h, sw_info->general.output.di
 1362              		.loc 1 343 3 view .LVU392
 1363 00a2 1C90     		str	r0, [sp, #112]
 1364 00a4 206B     		ldr	r0, [r4, #48]
 1365 00a6 1D90     		str	r0, [sp, #116]
 1366 00a8 1AA8     		add	r0, sp, #104
 1367 00aa CDE93407 		strd	r0, r7, [sp, #208]
 1368 00ae 206D     		ldr	r0, [r4, #80]
 1369 00b0 1E90     		str	r0, [sp, #120]
 1370 00b2 E06C     		ldr	r0, [r4, #76]
 1371 00b4 1F90     		str	r0, [sp, #124]
 1372 00b6 A06C     		ldr	r0, [r4, #72]
 1373 00b8 2090     		str	r0, [sp, #128]
 1374 00ba 606C     		ldr	r0, [r4, #68]
 350:../../Middlewares/AI_Runtime/Npu/ll_aton/ll_sw_float.c ****                         SHAPE_INIT(sw_info->scratch.dim.tensor_h, sw_info->scratch.dim.tensor_w,
 1375              		.loc 1 350 3 view .LVU393
 1376 00bc CDE9381C 		strd	r1, ip, [sp, #224]
 343:../../Middlewares/AI_Runtime/Npu/ll_aton/ll_sw_float.c ****                         SHAPE_INIT(sw_info->general.output.dim.tensor_h, sw_info->general.output.di
 1377              		.loc 1 343 3 view .LVU394
 1378 00c0 2190     		str	r0, [sp, #132]
 1379 00c2 1EA8     		add	r0, sp, #120
 1380 00c4 CDE93602 		strd	r0, r2, [sp, #216]
 348:../../Middlewares/AI_Runtime/Npu/ll_aton/ll_sw_float.c **** 
 1381              		.loc 1 348 56 is_stmt 1 view .LVU395
 350:../../Middlewares/AI_Runtime/Npu/ll_aton/ll_sw_float.c ****                         SHAPE_INIT(sw_info->scratch.dim.tensor_h, sw_info->scratch.dim.tensor_w,
 1382              		.loc 1 350 3 view .LVU396
ARM GAS  C:\Users\Antonio\AppData\Local\Temp\cc6EBOZH.s 			page 35


 1383 00c8 A26E     		ldr	r2, [r4, #104]
 1384              	.LVL33:
 350:../../Middlewares/AI_Runtime/Npu/ll_aton/ll_sw_float.c ****                         SHAPE_INIT(sw_info->scratch.dim.tensor_h, sw_info->scratch.dim.tensor_w,
 1385              		.loc 1 350 3 is_stmt 0 view .LVU397
 1386 00ca 3A96     		str	r6, [sp, #232]
 1387 00cc 2292     		str	r2, [sp, #136]
 1388 00ce 626E     		ldr	r2, [r4, #100]
 1389              		.loc 1 358 3 view .LVU398
 1390 00d0 CDF824D1 		str	sp, [sp, #292]
 350:../../Middlewares/AI_Runtime/Npu/ll_aton/ll_sw_float.c ****                         SHAPE_INIT(sw_info->scratch.dim.tensor_h, sw_info->scratch.dim.tensor_w,
 1391              		.loc 1 350 3 view .LVU399
 1392 00d4 2392     		str	r2, [sp, #140]
 1393 00d6 226E     		ldr	r2, [r4, #96]
 1394              		.loc 1 358 3 view .LVU400
 1395 00d8 31A8     		add	r0, sp, #196
 350:../../Middlewares/AI_Runtime/Npu/ll_aton/ll_sw_float.c ****                         SHAPE_INIT(sw_info->scratch.dim.tensor_h, sw_info->scratch.dim.tensor_w,
 1396              		.loc 1 350 3 view .LVU401
 1397 00da 2492     		str	r2, [sp, #144]
 1398 00dc E26D     		ldr	r2, [r4, #92]
 1399 00de 2592     		str	r2, [sp, #148]
 1400 00e0 22AA     		add	r2, sp, #136
 1401 00e2 CDE93B27 		strd	r2, r7, [sp, #236]
 1402 00e6 E26F     		ldr	r2, [r4, #124]
 1403 00e8 2692     		str	r2, [sp, #152]
 1404 00ea A26F     		ldr	r2, [r4, #120]
 1405 00ec 2792     		str	r2, [sp, #156]
 1406 00ee 626F     		ldr	r2, [r4, #116]
 1407 00f0 2892     		str	r2, [sp, #160]
 1408 00f2 226F     		ldr	r2, [r4, #112]
 1409 00f4 2992     		str	r2, [sp, #164]
 1410 00f6 26AA     		add	r2, sp, #152
 1411 00f8 CDE93D23 		strd	r2, r3, [sp, #244]
 355:../../Middlewares/AI_Runtime/Npu/ll_aton/ll_sw_float.c **** 
 1412              		.loc 1 355 53 is_stmt 1 view .LVU402
 1413              		.loc 1 358 3 view .LVU403
 1414 00fc 0423     		movs	r3, #4
 1415 00fe 0493     		str	r3, [sp, #16]
 1416 0100 0123     		movs	r3, #1
 1417 0102 2AAA     		add	r2, sp, #168
 1418 0104 4893     		str	r3, [sp, #288]
 1419 0106 0092     		str	r2, [sp]
 1420 0108 CDE94A13 		strd	r1, r3, [sp, #296]
 1421 010c 01AA     		add	r2, sp, #4
 1422 010e 5193     		str	r3, [sp, #324]
 1423 0110 03AB     		add	r3, sp, #12
 1424 0112 CDE94C21 		strd	r2, r1, [sp, #304]
 1425 0116 CDE95231 		strd	r3, r1, [sp, #328]
 1426 011a 02AA     		add	r2, sp, #8
 1427 011c 48AB     		add	r3, sp, #288
 1428 011e CDE94F21 		strd	r2, r1, [sp, #316]
 1429 0122 0593     		str	r3, [sp, #20]
 359:../../Middlewares/AI_Runtime/Npu/ll_aton/ll_sw_float.c ****                               AI_TENSOR_LIST_OBJ_INIT(AI_FLAG_NONE, 1, TENSORS(&softmax_output)),
 360:../../Middlewares/AI_Runtime/Npu/ll_aton/ll_sw_float.c ****                               AI_TENSOR_LIST_OBJ_EMPTY, AI_TENSOR_LIST_OBJ_INIT(AI_FLAG_NONE, 1, TE
 361:../../Middlewares/AI_Runtime/Npu/ll_aton/ll_sw_float.c **** 
 362:../../Middlewares/AI_Runtime/Npu/ll_aton/ll_sw_float.c ****   AI_LAYER_OBJ_DECLARE(sm_layer, 1, SM_TYPE, 0x0, NULL, sm, forward_sm, &softmax_chain, NULL, NULL,
 1430              		.loc 1 362 3 view .LVU404
 358:../../Middlewares/AI_Runtime/Npu/ll_aton/ll_sw_float.c ****                               AI_TENSOR_LIST_OBJ_INIT(AI_FLAG_NONE, 1, TENSORS(&softmax_output)),
ARM GAS  C:\Users\Antonio\AppData\Local\Temp\cc6EBOZH.s 			page 36


 1431              		.loc 1 358 3 is_stmt 0 view .LVU405
 1432 0124 38AA     		add	r2, sp, #224
 1433              		.loc 1 362 3 view .LVU406
 1434 0126 114B     		ldr	r3, .L29+12
 358:../../Middlewares/AI_Runtime/Npu/ll_aton/ll_sw_float.c ****                               AI_TENSOR_LIST_OBJ_INIT(AI_FLAG_NONE, 1, TENSORS(&softmax_output)),
 1435              		.loc 1 358 3 view .LVU407
 1436 0128 0190     		str	r0, [sp, #4]
 1437 012a 0392     		str	r2, [sp, #12]
 1438              		.loc 1 362 3 view .LVU408
 1439 012c 40A8     		add	r0, sp, #256
 1440 012e 2022     		movs	r2, #32
 358:../../Middlewares/AI_Runtime/Npu/ll_aton/ll_sw_float.c ****                               AI_TENSOR_LIST_OBJ_INIT(AI_FLAG_NONE, 1, TENSORS(&softmax_output)),
 1441              		.loc 1 358 3 view .LVU409
 1442 0130 4E91     		str	r1, [sp, #312]
 1443 0132 0291     		str	r1, [sp, #8]
 1444              		.loc 1 362 3 view .LVU410
 1445 0134 3F93     		str	r3, [sp, #252]
 1446 0136 FFF7FEFF 		bl	memset
 1447              	.LVL34:
 1448              		.loc 1 362 3 view .LVU411
 1449 013a 0D4B     		ldr	r3, .L29+16
 363:../../Middlewares/AI_Runtime/Npu/ll_aton/ll_sw_float.c ****                        .axis = helper_emit_shape_index_axis(sw_info->axis))
 364:../../Middlewares/AI_Runtime/Npu/ll_aton/ll_sw_float.c ****   sm_layer.forward(AI_LAYER_OBJ(&sm_layer));
 1450              		.loc 1 364 3 view .LVU412
 1451 013c 3FA8     		add	r0, sp, #252
 362:../../Middlewares/AI_Runtime/Npu/ll_aton/ll_sw_float.c ****                        .axis = helper_emit_shape_index_axis(sw_info->axis))
 1452              		.loc 1 362 3 view .LVU413
 1453 013e CDE94435 		strd	r3, r5, [sp, #272]
 1454              	.LVL35:
 1455              	.LBB13:
 1456              	.LBI13:
  47:../../Middlewares/AI_Runtime/Npu/ll_aton/ll_sw_float.c **** {
 1457              		.loc 1 47 12 is_stmt 1 view .LVU414
  49:../../Middlewares/AI_Runtime/Npu/ll_aton/ll_sw_float.c ****   {
 1458              		.loc 1 49 3 view .LVU415
 1459 0142 D4F88830 		ldr	r3, [r4, #136]
 1460 0146 032B     		cmp	r3, #3
 1461              	.LBE13:
 362:../../Middlewares/AI_Runtime/Npu/ll_aton/ll_sw_float.c ****                        .axis = helper_emit_shape_index_axis(sw_info->axis))
 1462              		.loc 1 362 3 is_stmt 0 view .LVU416
 1463 0148 8EBF     		itee	hi
 1464 014a 4FF0FF33 		movhi	r3, #-1
 1465              	.LVL36:
 362:../../Middlewares/AI_Runtime/Npu/ll_aton/ll_sw_float.c ****                        .axis = helper_emit_shape_index_axis(sw_info->axis))
 1466              		.loc 1 362 3 view .LVU417
 1467 014e 094A     		ldrls	r2, .L29+20
 1468 0150 D356     		ldrsbls	r3, [r2, r3]
 362:../../Middlewares/AI_Runtime/Npu/ll_aton/ll_sw_float.c ****                        .axis = helper_emit_shape_index_axis(sw_info->axis))
 1469              		.loc 1 362 3 discriminator 1 view .LVU418
 1470 0152 ADF81C31 		strh	r3, [sp, #284]	@ movhi
 1471              		.loc 1 364 3 is_stmt 1 view .LVU419
 1472 0156 FFF7FEFF 		bl	forward_sm
 1473              	.LVL37:
 365:../../Middlewares/AI_Runtime/Npu/ll_aton/ll_sw_float.c **** }
 1474              		.loc 1 365 1 is_stmt 0 view .LVU420
 1475 015a 55B0     		add	sp, sp, #340
 1476              		.cfi_def_cfa_offset 20
ARM GAS  C:\Users\Antonio\AppData\Local\Temp\cc6EBOZH.s 			page 37


 1477              		@ sp needed
 1478 015c F0BD     		pop	{r4, r5, r6, r7, pc}
 1479              	.LVL38:
 1480              	.L30:
 1481              		.loc 1 365 1 view .LVU421
 1482 015e 00BF     		.align	2
 1483              	.L29:
 1484 0160 40040408 		.word	134480960
 1485 0164 40048408 		.word	142869568
 1486 0168 40108400 		.word	8654912
 1487 016c 0C010100 		.word	65804
 1488 0170 00000000 		.word	forward_sm
 1489 0174 00000000 		.word	CSWTCH.4
 1490              		.cfi_endproc
 1491              	.LFE19:
 1493              		.section	.text.ll_sw_forward_activ,"ax",%progbits
 1494              		.align	1
 1495              		.global	ll_sw_forward_activ
 1496              		.syntax unified
 1497              		.thumb
 1498              		.thumb_func
 1500              	ll_sw_forward_activ:
 1501              	.LVL39:
 1502              	.LFB20:
 366:../../Middlewares/AI_Runtime/Npu/ll_aton/ll_sw_float.c **** 
 367:../../Middlewares/AI_Runtime/Npu/ll_aton/ll_sw_float.c **** //##########################################################################################
 368:../../Middlewares/AI_Runtime/Npu/ll_aton/ll_sw_float.c **** /** activ forward function  */
 369:../../Middlewares/AI_Runtime/Npu/ll_aton/ll_sw_float.c **** void ll_sw_forward_activ(/* int processor, */ void *sw_info_struct)
 370:../../Middlewares/AI_Runtime/Npu/ll_aton/ll_sw_float.c **** {
 1503              		.loc 1 370 1 is_stmt 1 view -0
 1504              		.cfi_startproc
 1505              		@ args = 0, pretend = 0, frame = 408
 1506              		@ frame_needed = 0, uses_anonymous_args = 0
 371:../../Middlewares/AI_Runtime/Npu/ll_aton/ll_sw_float.c ****   Activ_sw_info *sw_info = (Activ_sw_info *)sw_info_struct;
 1507              		.loc 1 371 3 view .LVU423
 372:../../Middlewares/AI_Runtime/Npu/ll_aton/ll_sw_float.c ****   // array init
 373:../../Middlewares/AI_Runtime/Npu/ll_aton/ll_sw_float.c ****   AI_ARRAY_OBJ_DECLARE(input_output_array, FORMAT, sw_info->general.input.mem.start_offset,
 1508              		.loc 1 373 3 view .LVU424
 370:../../Middlewares/AI_Runtime/Npu/ll_aton/ll_sw_float.c ****   Activ_sw_info *sw_info = (Activ_sw_info *)sw_info_struct;
 1509              		.loc 1 370 1 is_stmt 0 view .LVU425
 1510 0000 F0B5     		push	{r4, r5, r6, r7, lr}
 1511              		.cfi_def_cfa_offset 20
 1512              		.cfi_offset 4, -20
 1513              		.cfi_offset 5, -16
 1514              		.cfi_offset 6, -12
 1515              		.cfi_offset 7, -8
 1516              		.cfi_offset 14, -4
 1517              		.loc 1 373 3 view .LVU426
 1518 0002 4369     		ldr	r3, [r0, #20]
 370:../../Middlewares/AI_Runtime/Npu/ll_aton/ll_sw_float.c ****   Activ_sw_info *sw_info = (Activ_sw_info *)sw_info_struct;
 1519              		.loc 1 370 1 view .LVU427
 1520 0004 E7B0     		sub	sp, sp, #412
 1521              		.cfi_def_cfa_offset 432
 1522              		.loc 1 373 3 view .LVU428
 1523 0006 0E93     		str	r3, [sp, #56]
 1524 0008 836A     		ldr	r3, [r0, #40]
 374:../../Middlewares/AI_Runtime/Npu/ll_aton/ll_sw_float.c ****                        sw_info->general.input.mem.start_offset, sw_info->general.input.dim.num_elem
ARM GAS  C:\Users\Antonio\AppData\Local\Temp\cc6EBOZH.s 			page 38


 375:../../Middlewares/AI_Runtime/Npu/ll_aton/ll_sw_float.c ****   AI_ARRAY_OBJ_DECLARE(activ_output_array, FORMAT, sw_info->general.output.mem.start_offset,
 376:../../Middlewares/AI_Runtime/Npu/ll_aton/ll_sw_float.c ****                        sw_info->general.output.mem.start_offset, sw_info->general.output.dim.num_el
 377:../../Middlewares/AI_Runtime/Npu/ll_aton/ll_sw_float.c ****   // tensors init
 378:../../Middlewares/AI_Runtime/Npu/ll_aton/ll_sw_float.c ****   AI_TENSOR_OBJ_DECLARE(input_output, , 0x0, 4,
 1525              		.loc 1 378 3 view .LVU429
 1526 000a 15AF     		add	r7, sp, #84
 373:../../Middlewares/AI_Runtime/Npu/ll_aton/ll_sw_float.c ****                        sw_info->general.input.mem.start_offset, sw_info->general.input.dim.num_elem
 1527              		.loc 1 373 3 view .LVU430
 1528 000c CDE90F33 		strd	r3, r3, [sp, #60]
 375:../../Middlewares/AI_Runtime/Npu/ll_aton/ll_sw_float.c ****                        sw_info->general.output.mem.start_offset, sw_info->general.output.dim.num_el
 1529              		.loc 1 375 3 is_stmt 1 view .LVU431
 1530 0010 036C     		ldr	r3, [r0, #64]
 1531              		.loc 1 378 3 is_stmt 0 view .LVU432
 1532 0012 4FF0827C 		mov	ip, #17039360
 375:../../Middlewares/AI_Runtime/Npu/ll_aton/ll_sw_float.c ****                        sw_info->general.output.mem.start_offset, sw_info->general.output.dim.num_el
 1533              		.loc 1 375 3 view .LVU433
 1534 0016 1293     		str	r3, [sp, #72]
 1535 0018 436D     		ldr	r3, [r0, #84]
 1536              		.loc 1 378 3 view .LVU434
 1537 001a 40F2014E 		movw	lr, #1025
 375:../../Middlewares/AI_Runtime/Npu/ll_aton/ll_sw_float.c ****                        sw_info->general.output.mem.start_offset, sw_info->general.output.dim.num_el
 1538              		.loc 1 375 3 view .LVU435
 1539 001e CDE91333 		strd	r3, r3, [sp, #76]
 1540              		.loc 1 378 3 is_stmt 1 view .LVU436
 1541 0022 3497     		str	r7, [sp, #208]
 1542 0024 0023     		movs	r3, #0
 1543 0026 40F20247 		movw	r7, #1026
 1544 002a 0569     		ldr	r5, [r0, #16]
 1545 002c 466A     		ldr	r6, [r0, #36]
 1546 002e 1595     		str	r5, [sp, #84]
 1547 0030 C568     		ldr	r5, [r0, #12]
 373:../../Middlewares/AI_Runtime/Npu/ll_aton/ll_sw_float.c ****                        sw_info->general.input.mem.start_offset, sw_info->general.input.dim.num_elem
 1548              		.loc 1 373 3 is_stmt 0 view .LVU437
 1549 0032 9049     		ldr	r1, .L70
 1550              		.loc 1 378 3 view .LVU438
 1551 0034 1695     		str	r5, [sp, #88]
 1552 0036 8568     		ldr	r5, [r0, #8]
 1553 0038 1996     		str	r6, [sp, #100]
 1554 003a 1795     		str	r5, [sp, #92]
 1555 003c 066A     		ldr	r6, [r0, #32]
 1556 003e 4568     		ldr	r5, [r0, #4]
 373:../../Middlewares/AI_Runtime/Npu/ll_aton/ll_sw_float.c ****                        sw_info->general.input.mem.start_offset, sw_info->general.input.dim.num_elem
 1557              		.loc 1 373 3 view .LVU439
 1558 0040 0DAC     		add	r4, sp, #52
 1559              		.loc 1 378 3 view .LVU440
 1560 0042 1895     		str	r5, [sp, #96]
 1561 0044 3597     		str	r7, [sp, #212]
 1562 0046 19AD     		add	r5, sp, #100
 1563 0048 CDE9313C 		strd	r3, ip, [sp, #196]
 373:../../Middlewares/AI_Runtime/Npu/ll_aton/ll_sw_float.c ****                        sw_info->general.input.mem.start_offset, sw_info->general.input.dim.num_elem
 1564              		.loc 1 373 3 view .LVU441
 1565 004c 0D91     		str	r1, [sp, #52]
 375:../../Middlewares/AI_Runtime/Npu/ll_aton/ll_sw_float.c ****                        sw_info->general.output.mem.start_offset, sw_info->general.output.dim.num_el
 1566              		.loc 1 375 3 view .LVU442
 1567 004e 1191     		str	r1, [sp, #68]
 1568              		.loc 1 378 3 view .LVU443
 1569 0050 CDF8CCE0 		str	lr, [sp, #204]
ARM GAS  C:\Users\Antonio\AppData\Local\Temp\cc6EBOZH.s 			page 39


 1570 0054 1A96     		str	r6, [sp, #104]
 1571 0056 C669     		ldr	r6, [r0, #28]
 1572 0058 CDE93654 		strd	r5, r4, [sp, #216]
 379:../../Middlewares/AI_Runtime/Npu/ll_aton/ll_sw_float.c ****                         SHAPE_INIT(sw_info->general.input.dim.tensor_h, sw_info->general.input.dim.
 380:../../Middlewares/AI_Runtime/Npu/ll_aton/ll_sw_float.c ****                                    sw_info->general.input.dim.tensor_c, sw_info->general.input.dim.
 381:../../Middlewares/AI_Runtime/Npu/ll_aton/ll_sw_float.c ****                         STRIDE_INIT(sw_info->general.input.stride.h, sw_info->general.input.stride.
 382:../../Middlewares/AI_Runtime/Npu/ll_aton/ll_sw_float.c ****                                     sw_info->general.input.stride.c, sw_info->general.input.stride.
 383:../../Middlewares/AI_Runtime/Npu/ll_aton/ll_sw_float.c ****                         1, &input_output_array, NULL)
 384:../../Middlewares/AI_Runtime/Npu/ll_aton/ll_sw_float.c ****   AI_TENSOR_OBJ_DECLARE(activ_output, , 0x0, 4,
 1573              		.loc 1 384 3 is_stmt 1 view .LVU444
 1574 005c 1DAC     		add	r4, sp, #116
 375:../../Middlewares/AI_Runtime/Npu/ll_aton/ll_sw_float.c ****                        sw_info->general.output.mem.start_offset, sw_info->general.output.dim.num_el
 1575              		.loc 1 375 3 is_stmt 0 view .LVU445
 1576 005e 11AA     		add	r2, sp, #68
 1577              		.loc 1 384 3 view .LVU446
 1578 0060 CDE93B47 		strd	r4, r7, [sp, #236]
 378:../../Middlewares/AI_Runtime/Npu/ll_aton/ll_sw_float.c ****                         SHAPE_INIT(sw_info->general.input.dim.tensor_h, sw_info->general.input.dim.
 1579              		.loc 1 378 3 view .LVU447
 1580 0064 1B96     		str	r6, [sp, #108]
 1581              		.loc 1 384 3 view .LVU448
 1582 0066 21AC     		add	r4, sp, #132
 378:../../Middlewares/AI_Runtime/Npu/ll_aton/ll_sw_float.c ****                         SHAPE_INIT(sw_info->general.input.dim.tensor_h, sw_info->general.input.dim.
 1583              		.loc 1 378 3 view .LVU449
 1584 0068 8669     		ldr	r6, [r0, #24]
 1585              		.loc 1 384 3 view .LVU450
 1586 006a CDE93D42 		strd	r4, r2, [sp, #244]
 385:../../Middlewares/AI_Runtime/Npu/ll_aton/ll_sw_float.c ****                         SHAPE_INIT(sw_info->general.output.dim.tensor_h, sw_info->general.output.di
 386:../../Middlewares/AI_Runtime/Npu/ll_aton/ll_sw_float.c ****                                    sw_info->general.output.dim.tensor_c, sw_info->general.output.di
 387:../../Middlewares/AI_Runtime/Npu/ll_aton/ll_sw_float.c ****                         STRIDE_INIT(sw_info->general.output.stride.h, sw_info->general.output.strid
 388:../../Middlewares/AI_Runtime/Npu/ll_aton/ll_sw_float.c ****                                     sw_info->general.output.stride.c, sw_info->general.output.strid
 389:../../Middlewares/AI_Runtime/Npu/ll_aton/ll_sw_float.c ****                         1, &activ_output_array, NULL)
 390:../../Middlewares/AI_Runtime/Npu/ll_aton/ll_sw_float.c ****   // tensor chains init
 391:../../Middlewares/AI_Runtime/Npu/ll_aton/ll_sw_float.c ****   AI_TENSOR_CHAIN_OBJ_DECLARE(activ_chain, , 4, AI_TENSOR_LIST_OBJ_INIT(AI_FLAG_NONE, 1, TENSORS(&i
 1587              		.loc 1 391 3 is_stmt 1 view .LVU451
 1588 006e 0424     		movs	r4, #4
 378:../../Middlewares/AI_Runtime/Npu/ll_aton/ll_sw_float.c ****                         SHAPE_INIT(sw_info->general.input.dim.tensor_h, sw_info->general.input.dim.
 1589              		.loc 1 378 3 is_stmt 0 view .LVU452
 1590 0070 1C96     		str	r6, [sp, #112]
 1591              		.loc 1 391 3 view .LVU453
 1592 0072 0126     		movs	r6, #1
 384:../../Middlewares/AI_Runtime/Npu/ll_aton/ll_sw_float.c ****                         SHAPE_INIT(sw_info->general.output.dim.tensor_h, sw_info->general.output.di
 1593              		.loc 1 384 3 view .LVU454
 1594 0074 C56B     		ldr	r5, [r0, #60]
 1595              		.loc 1 391 3 view .LVU455
 1596 0076 02AF     		add	r7, sp, #8
 384:../../Middlewares/AI_Runtime/Npu/ll_aton/ll_sw_float.c ****                         SHAPE_INIT(sw_info->general.output.dim.tensor_h, sw_info->general.output.di
 1597              		.loc 1 384 3 view .LVU456
 1598 0078 1D95     		str	r5, [sp, #116]
 1599 007a 856B     		ldr	r5, [r0, #56]
 1600              		.loc 1 391 3 view .LVU457
 1601 007c 0994     		str	r4, [sp, #36]
 384:../../Middlewares/AI_Runtime/Npu/ll_aton/ll_sw_float.c ****                         SHAPE_INIT(sw_info->general.output.dim.tensor_h, sw_info->general.output.di
 1602              		.loc 1 384 3 view .LVU458
 1603 007e 1E95     		str	r5, [sp, #120]
 1604 0080 456B     		ldr	r5, [r0, #52]
 1605              		.loc 1 391 3 view .LVU459
 1606 0082 6C44     		add	r4, sp, r4
ARM GAS  C:\Users\Antonio\AppData\Local\Temp\cc6EBOZH.s 			page 40


 384:../../Middlewares/AI_Runtime/Npu/ll_aton/ll_sw_float.c ****                         SHAPE_INIT(sw_info->general.output.dim.tensor_h, sw_info->general.output.di
 1607              		.loc 1 384 3 view .LVU460
 1608 0084 1F95     		str	r5, [sp, #124]
 1609 0086 056B     		ldr	r5, [r0, #48]
 1610 0088 CDE9383C 		strd	r3, ip, [sp, #224]
 1611 008c 2095     		str	r5, [sp, #128]
 1612 008e 056D     		ldr	r5, [r0, #80]
 1613 0090 CDF8E8E0 		str	lr, [sp, #232]
 1614 0094 2195     		str	r5, [sp, #132]
 1615 0096 C56C     		ldr	r5, [r0, #76]
 1616              		.loc 1 391 3 view .LVU461
 1617 0098 4E96     		str	r6, [sp, #312]
 384:../../Middlewares/AI_Runtime/Npu/ll_aton/ll_sw_float.c ****                         SHAPE_INIT(sw_info->general.output.dim.tensor_h, sw_info->general.output.di
 1618              		.loc 1 384 3 view .LVU462
 1619 009a 2295     		str	r5, [sp, #136]
 1620 009c 856C     		ldr	r5, [r0, #72]
 1621              		.loc 1 391 3 view .LVU463
 1622 009e 09AA     		add	r2, sp, #36
 384:../../Middlewares/AI_Runtime/Npu/ll_aton/ll_sw_float.c ****                         SHAPE_INIT(sw_info->general.output.dim.tensor_h, sw_info->general.output.di
 1623              		.loc 1 384 3 view .LVU464
 1624 00a0 2395     		str	r5, [sp, #140]
 1625 00a2 456C     		ldr	r5, [r0, #68]
 1626 00a4 2495     		str	r5, [sp, #144]
 1627              		.loc 1 391 3 view .LVU465
 1628 00a6 31AD     		add	r5, sp, #196
 1629 00a8 2560     		str	r5, [r4]
 1630 00aa CDE94F43 		strd	r4, r3, [sp, #316]
 1631 00ae CDE95273 		strd	r7, r3, [sp, #328]
 1632 00b2 03AF     		add	r7, sp, #12
 1633 00b4 CDE95573 		strd	r7, r3, [sp, #340]
 1634 00b8 04AF     		add	r7, sp, #16
 1635 00ba CDE95873 		strd	r7, r3, [sp, #352]
 1636 00be 4EAF     		add	r7, sp, #312
 1637 00c0 5760     		str	r7, [r2, #4]
 392:../../Middlewares/AI_Runtime/Npu/ll_aton/ll_sw_float.c ****                               AI_TENSOR_LIST_OBJ_INIT(AI_FLAG_NONE, 1, TENSORS(&activ_output)),
 393:../../Middlewares/AI_Runtime/Npu/ll_aton/ll_sw_float.c ****                               AI_TENSOR_LIST_OBJ_EMPTY, AI_TENSOR_LIST_OBJ_EMPTY)
 394:../../Middlewares/AI_Runtime/Npu/ll_aton/ll_sw_float.c **** 
 395:../../Middlewares/AI_Runtime/Npu/ll_aton/ll_sw_float.c ****   // layer initialization
 396:../../Middlewares/AI_Runtime/Npu/ll_aton/ll_sw_float.c ****   switch (sw_info->general.type)
 1638              		.loc 1 396 3 is_stmt 1 view .LVU466
 1639 00c2 0778     		ldrb	r7, [r0]	@ zero_extendqisi2
 391:../../Middlewares/AI_Runtime/Npu/ll_aton/ll_sw_float.c ****                               AI_TENSOR_LIST_OBJ_INIT(AI_FLAG_NONE, 1, TENSORS(&activ_output)),
 1640              		.loc 1 391 3 is_stmt 0 view .LVU467
 1641 00c4 38AC     		add	r4, sp, #224
 1642              		.loc 1 396 3 view .LVU468
 1643 00c6 013F     		subs	r7, r7, #1
 391:../../Middlewares/AI_Runtime/Npu/ll_aton/ll_sw_float.c ****                               AI_TENSOR_LIST_OBJ_INIT(AI_FLAG_NONE, 1, TENSORS(&activ_output)),
 1644              		.loc 1 391 3 view .LVU469
 1645 00c8 5196     		str	r6, [sp, #324]
 1646 00ca 0294     		str	r4, [sp, #8]
 1647 00cc 5493     		str	r3, [sp, #336]
 1648 00ce 0393     		str	r3, [sp, #12]
 1649 00d0 5793     		str	r3, [sp, #348]
 1650 00d2 0493     		str	r3, [sp, #16]
 1651              		.loc 1 396 3 view .LVU470
 1652 00d4 4E2F     		cmp	r7, #78
 1653 00d6 5DD8     		bhi	.L31
ARM GAS  C:\Users\Antonio\AppData\Local\Temp\cc6EBOZH.s 			page 41


 1654 00d8 DFE817F0 		tbh	[pc, r7, lsl #1]
 1655              	.L34:
 1656 00dc 4F00     		.2byte	(.L68-.L34)/2
 1657 00de 7A00     		.2byte	(.L67-.L34)/2
 1658 00e0 EE00     		.2byte	(.L66-.L34)/2
 1659 00e2 D600     		.2byte	(.L65-.L34)/2
 1660 00e4 0601     		.2byte	(.L64-.L34)/2
 1661 00e6 5C00     		.2byte	(.L31-.L34)/2
 1662 00e8 5C00     		.2byte	(.L31-.L34)/2
 1663 00ea 5C00     		.2byte	(.L31-.L34)/2
 1664 00ec 5C00     		.2byte	(.L31-.L34)/2
 1665 00ee 5C00     		.2byte	(.L31-.L34)/2
 1666 00f0 5C00     		.2byte	(.L31-.L34)/2
 1667 00f2 5C00     		.2byte	(.L31-.L34)/2
 1668 00f4 5C00     		.2byte	(.L31-.L34)/2
 1669 00f6 5C00     		.2byte	(.L31-.L34)/2
 1670 00f8 5C00     		.2byte	(.L31-.L34)/2
 1671 00fa 5C00     		.2byte	(.L31-.L34)/2
 1672 00fc 5C00     		.2byte	(.L31-.L34)/2
 1673 00fe 5C00     		.2byte	(.L31-.L34)/2
 1674 0100 5C00     		.2byte	(.L31-.L34)/2
 1675 0102 0202     		.2byte	(.L63-.L34)/2
 1676 0104 9201     		.2byte	(.L62-.L34)/2
 1677 0106 A001     		.2byte	(.L61-.L34)/2
 1678 0108 5A01     		.2byte	(.L60-.L34)/2
 1679 010a 6801     		.2byte	(.L59-.L34)/2
 1680 010c 7601     		.2byte	(.L58-.L34)/2
 1681 010e 8401     		.2byte	(.L57-.L34)/2
 1682 0110 F401     		.2byte	(.L56-.L34)/2
 1683 0112 E601     		.2byte	(.L55-.L34)/2
 1684 0114 AE01     		.2byte	(.L54-.L34)/2
 1685 0116 BC01     		.2byte	(.L53-.L34)/2
 1686 0118 CA01     		.2byte	(.L52-.L34)/2
 1687 011a D801     		.2byte	(.L51-.L34)/2
 1688 011c 1002     		.2byte	(.L50-.L34)/2
 1689 011e 2201     		.2byte	(.L49-.L34)/2
 1690 0120 5C00     		.2byte	(.L31-.L34)/2
 1691 0122 3001     		.2byte	(.L48-.L34)/2
 1692 0124 3E01     		.2byte	(.L47-.L34)/2
 1693 0126 4C01     		.2byte	(.L46-.L34)/2
 1694 0128 5C00     		.2byte	(.L31-.L34)/2
 1695 012a 5C00     		.2byte	(.L31-.L34)/2
 1696 012c 5C00     		.2byte	(.L31-.L34)/2
 1697 012e 5C00     		.2byte	(.L31-.L34)/2
 1698 0130 5C00     		.2byte	(.L31-.L34)/2
 1699 0132 5C00     		.2byte	(.L31-.L34)/2
 1700 0134 5C00     		.2byte	(.L31-.L34)/2
 1701 0136 1E02     		.2byte	(.L45-.L34)/2
 1702 0138 5C00     		.2byte	(.L31-.L34)/2
 1703 013a 5C00     		.2byte	(.L31-.L34)/2
 1704 013c 5C00     		.2byte	(.L31-.L34)/2
 1705 013e 5C00     		.2byte	(.L31-.L34)/2
 1706 0140 5C00     		.2byte	(.L31-.L34)/2
 1707 0142 5C00     		.2byte	(.L31-.L34)/2
 1708 0144 5C00     		.2byte	(.L31-.L34)/2
 1709 0146 5C00     		.2byte	(.L31-.L34)/2
 1710 0148 5C00     		.2byte	(.L31-.L34)/2
ARM GAS  C:\Users\Antonio\AppData\Local\Temp\cc6EBOZH.s 			page 42


 1711 014a 5E00     		.2byte	(.L44-.L34)/2
 1712 014c 7802     		.2byte	(.L43-.L34)/2
 1713 014e B002     		.2byte	(.L42-.L34)/2
 1714 0150 A202     		.2byte	(.L41-.L34)/2
 1715 0152 9402     		.2byte	(.L40-.L34)/2
 1716 0154 BE02     		.2byte	(.L39-.L34)/2
 1717 0156 5C00     		.2byte	(.L31-.L34)/2
 1718 0158 5C00     		.2byte	(.L31-.L34)/2
 1719 015a 5C00     		.2byte	(.L31-.L34)/2
 1720 015c 5C00     		.2byte	(.L31-.L34)/2
 1721 015e 5C00     		.2byte	(.L31-.L34)/2
 1722 0160 5C00     		.2byte	(.L31-.L34)/2
 1723 0162 6A02     		.2byte	(.L38-.L34)/2
 1724 0164 2C02     		.2byte	(.L37-.L34)/2
 1725 0166 5C00     		.2byte	(.L31-.L34)/2
 1726 0168 5C00     		.2byte	(.L31-.L34)/2
 1727 016a 5C00     		.2byte	(.L31-.L34)/2
 1728 016c 5C00     		.2byte	(.L31-.L34)/2
 1729 016e 5C00     		.2byte	(.L31-.L34)/2
 1730 0170 5C00     		.2byte	(.L31-.L34)/2
 1731 0172 CC02     		.2byte	(.L36-.L34)/2
 1732 0174 DA02     		.2byte	(.L35-.L34)/2
 1733 0176 5C00     		.2byte	(.L31-.L34)/2
 1734 0178 E802     		.2byte	(.L33-.L34)/2
 1735              		.p2align 1
 1736              	.L68:
 1737              	.LBB14:
 397:../../Middlewares/AI_Runtime/Npu/ll_aton/ll_sw_float.c ****   {
 398:../../Middlewares/AI_Runtime/Npu/ll_aton/ll_sw_float.c ****   case LL_SW_RELU:
 399:../../Middlewares/AI_Runtime/Npu/ll_aton/ll_sw_float.c ****   {
 400:../../Middlewares/AI_Runtime/Npu/ll_aton/ll_sw_float.c ****     AI_LAYER_OBJ_DECLARE(nonlinearity_layer, 2, NL_TYPE, 0x0, NULL, nl, forward_relu, &activ_chain,
 1738              		.loc 1 400 5 is_stmt 1 view .LVU471
 1739 017a 3F49     		ldr	r1, .L70+4
 401:../../Middlewares/AI_Runtime/Npu/ll_aton/ll_sw_float.c ****                          .nl_params = NULL, )
 402:../../Middlewares/AI_Runtime/Npu/ll_aton/ll_sw_float.c ****     nonlinearity_layer.forward(AI_LAYER_OBJ(&nonlinearity_layer));
 1740              		.loc 1 402 5 is_stmt 0 view .LVU472
 1741 017c 5AA8     		add	r0, sp, #360
 1742              	.LVL40:
 400:../../Middlewares/AI_Runtime/Npu/ll_aton/ll_sw_float.c ****                          .nl_params = NULL, )
 1743              		.loc 1 400 5 view .LVU473
 1744 017e CDE95A13 		strd	r1, r3, [sp, #360]
 1745 0182 3E49     		ldr	r1, .L70+8
 1746 0184 CDE95C33 		strd	r3, r3, [sp, #368]
 1747 0188 CDE95F12 		strd	r1, r2, [sp, #380]
 1748 018c 5E93     		str	r3, [sp, #376]
 1749 018e 6193     		str	r3, [sp, #388]
 1750              		.loc 1 402 5 is_stmt 1 view .LVU474
 1751 0190 FFF7FEFF 		bl	forward_relu
 1752              	.LVL41:
 1753              	.LBE14:
 403:../../Middlewares/AI_Runtime/Npu/ll_aton/ll_sw_float.c ****   }
 404:../../Middlewares/AI_Runtime/Npu/ll_aton/ll_sw_float.c ****   break;
 1754              		.loc 1 404 3 view .LVU475
 1755              	.L31:
 405:../../Middlewares/AI_Runtime/Npu/ll_aton/ll_sw_float.c ****   case LL_SW_CLIP:
 406:../../Middlewares/AI_Runtime/Npu/ll_aton/ll_sw_float.c ****   {
 407:../../Middlewares/AI_Runtime/Npu/ll_aton/ll_sw_float.c ****     AI_ARRAY_OBJ_DECLARE_STATIC(clip_layer_params, ai_float, AI_ARRAY_FORMAT_FLOAT, AI_CONST, 2, sw
ARM GAS  C:\Users\Antonio\AppData\Local\Temp\cc6EBOZH.s 			page 43


 408:../../Middlewares/AI_Runtime/Npu/ll_aton/ll_sw_float.c ****                                 sw_info->max)
 409:../../Middlewares/AI_Runtime/Npu/ll_aton/ll_sw_float.c ****     AI_LAYER_OBJ_DECLARE(nonlinearity_layer, 2, NL_TYPE, 0x0, NULL, nl, forward_clip, &activ_chain,
 410:../../Middlewares/AI_Runtime/Npu/ll_aton/ll_sw_float.c ****                          .nl_params = AI_ARRAY_OBJ(&clip_layer_params))
 411:../../Middlewares/AI_Runtime/Npu/ll_aton/ll_sw_float.c ****     nonlinearity_layer.forward(AI_LAYER_OBJ(&nonlinearity_layer));
 412:../../Middlewares/AI_Runtime/Npu/ll_aton/ll_sw_float.c ****   }
 413:../../Middlewares/AI_Runtime/Npu/ll_aton/ll_sw_float.c ****   break;
 414:../../Middlewares/AI_Runtime/Npu/ll_aton/ll_sw_float.c ****   case LL_SW_PRELU:
 415:../../Middlewares/AI_Runtime/Npu/ll_aton/ll_sw_float.c ****   {
 416:../../Middlewares/AI_Runtime/Npu/ll_aton/ll_sw_float.c ****     AI_ARRAY_OBJ_DECLARE(activ_operand_array, FORMAT, sw_info->operand.mem.start_offset,
 417:../../Middlewares/AI_Runtime/Npu/ll_aton/ll_sw_float.c ****                          sw_info->operand.mem.start_offset, sw_info->operand.dim.num_elem, )
 418:../../Middlewares/AI_Runtime/Npu/ll_aton/ll_sw_float.c **** 
 419:../../Middlewares/AI_Runtime/Npu/ll_aton/ll_sw_float.c ****     AI_TENSOR_OBJ_DECLARE(activ_operand, , 0x0, 4,
 420:../../Middlewares/AI_Runtime/Npu/ll_aton/ll_sw_float.c ****                           SHAPE_INIT(sw_info->operand.dim.tensor_h, sw_info->operand.dim.tensor_w,
 421:../../Middlewares/AI_Runtime/Npu/ll_aton/ll_sw_float.c ****                                      sw_info->operand.dim.tensor_c, sw_info->operand.dim.tensor_b),
 422:../../Middlewares/AI_Runtime/Npu/ll_aton/ll_sw_float.c ****                           STRIDE_INIT(sw_info->operand.stride.h, sw_info->operand.stride.w, sw_info
 423:../../Middlewares/AI_Runtime/Npu/ll_aton/ll_sw_float.c ****                                       sw_info->operand.stride.b),
 424:../../Middlewares/AI_Runtime/Npu/ll_aton/ll_sw_float.c ****                           1, &activ_operand_array, NULL)
 425:../../Middlewares/AI_Runtime/Npu/ll_aton/ll_sw_float.c **** 
 426:../../Middlewares/AI_Runtime/Npu/ll_aton/ll_sw_float.c ****     // tensor chains init
 427:../../Middlewares/AI_Runtime/Npu/ll_aton/ll_sw_float.c ****     AI_TENSOR_CHAIN_OBJ_DECLARE(
 428:../../Middlewares/AI_Runtime/Npu/ll_aton/ll_sw_float.c ****         prelu_activ_chain, , 4, AI_TENSOR_LIST_OBJ_INIT(AI_FLAG_NONE, 1, TENSORS(&input_output)),
 429:../../Middlewares/AI_Runtime/Npu/ll_aton/ll_sw_float.c ****         AI_TENSOR_LIST_OBJ_INIT(AI_FLAG_NONE, 1, TENSORS(&activ_output)),
 430:../../Middlewares/AI_Runtime/Npu/ll_aton/ll_sw_float.c ****         AI_TENSOR_LIST_OBJ_INIT(AI_FLAG_NONE, 1, TENSORS(&activ_operand)), AI_TENSOR_LIST_OBJ_EMPTY
 431:../../Middlewares/AI_Runtime/Npu/ll_aton/ll_sw_float.c **** 
 432:../../Middlewares/AI_Runtime/Npu/ll_aton/ll_sw_float.c ****     AI_LAYER_OBJ_DECLARE(nonlinearity_layer, 2, NL_TYPE, 0x0, NULL, nl, forward_prelu, &prelu_activ
 433:../../Middlewares/AI_Runtime/Npu/ll_aton/ll_sw_float.c ****                          .nl_params = NULL, )
 434:../../Middlewares/AI_Runtime/Npu/ll_aton/ll_sw_float.c ****     nonlinearity_layer.forward(AI_LAYER_OBJ(&nonlinearity_layer));
 435:../../Middlewares/AI_Runtime/Npu/ll_aton/ll_sw_float.c ****   }
 436:../../Middlewares/AI_Runtime/Npu/ll_aton/ll_sw_float.c ****   break;
 437:../../Middlewares/AI_Runtime/Npu/ll_aton/ll_sw_float.c ****   case LL_SW_ELU:
 438:../../Middlewares/AI_Runtime/Npu/ll_aton/ll_sw_float.c ****   {
 439:../../Middlewares/AI_Runtime/Npu/ll_aton/ll_sw_float.c ****     // defining the array of params needed
 440:../../Middlewares/AI_Runtime/Npu/ll_aton/ll_sw_float.c ****     AI_ARRAY_OBJ_DECLARE_STATIC(elu_layer_params, ai_float, FORMAT, , 1, sw_info->alpha)
 441:../../Middlewares/AI_Runtime/Npu/ll_aton/ll_sw_float.c **** 
 442:../../Middlewares/AI_Runtime/Npu/ll_aton/ll_sw_float.c ****     AI_LAYER_OBJ_DECLARE(nonlinearity_layer, 2, NL_TYPE, 0x0, NULL, nl, forward_elu, &activ_chain, 
 443:../../Middlewares/AI_Runtime/Npu/ll_aton/ll_sw_float.c ****                          .nl_params = AI_ARRAY_OBJ(&elu_layer_params), )
 444:../../Middlewares/AI_Runtime/Npu/ll_aton/ll_sw_float.c ****     nonlinearity_layer.forward(AI_LAYER_OBJ(&nonlinearity_layer));
 445:../../Middlewares/AI_Runtime/Npu/ll_aton/ll_sw_float.c ****   }
 446:../../Middlewares/AI_Runtime/Npu/ll_aton/ll_sw_float.c ****   break;
 447:../../Middlewares/AI_Runtime/Npu/ll_aton/ll_sw_float.c ****   case LL_SW_THRESHOLDEDRELU:
 448:../../Middlewares/AI_Runtime/Npu/ll_aton/ll_sw_float.c ****   {
 449:../../Middlewares/AI_Runtime/Npu/ll_aton/ll_sw_float.c ****     // defining the array of params needed
 450:../../Middlewares/AI_Runtime/Npu/ll_aton/ll_sw_float.c ****     AI_ARRAY_OBJ_DECLARE_STATIC(thresholdedrelu_layer_params, ai_float, FORMAT, , 1, sw_info->alpha
 451:../../Middlewares/AI_Runtime/Npu/ll_aton/ll_sw_float.c **** 
 452:../../Middlewares/AI_Runtime/Npu/ll_aton/ll_sw_float.c ****     AI_LAYER_OBJ_DECLARE(nonlinearity_layer, 2, NL_TYPE, 0x0, NULL, nl, forward_relu_thresholded, &
 453:../../Middlewares/AI_Runtime/Npu/ll_aton/ll_sw_float.c ****                          NULL, , .nl_params = AI_ARRAY_OBJ(&thresholdedrelu_layer_params), )
 454:../../Middlewares/AI_Runtime/Npu/ll_aton/ll_sw_float.c ****     nonlinearity_layer.forward(AI_LAYER_OBJ(&nonlinearity_layer));
 455:../../Middlewares/AI_Runtime/Npu/ll_aton/ll_sw_float.c ****   }
 456:../../Middlewares/AI_Runtime/Npu/ll_aton/ll_sw_float.c ****   break;
 457:../../Middlewares/AI_Runtime/Npu/ll_aton/ll_sw_float.c ****   case LL_SW_SELU:
 458:../../Middlewares/AI_Runtime/Npu/ll_aton/ll_sw_float.c ****   {
 459:../../Middlewares/AI_Runtime/Npu/ll_aton/ll_sw_float.c ****     // defining the array of params needed
 460:../../Middlewares/AI_Runtime/Npu/ll_aton/ll_sw_float.c ****     AI_ARRAY_OBJ_DECLARE_STATIC(selu_layer_params, ai_float, FORMAT, , 2, sw_info->alpha, sw_info->
 461:../../Middlewares/AI_Runtime/Npu/ll_aton/ll_sw_float.c **** 
 462:../../Middlewares/AI_Runtime/Npu/ll_aton/ll_sw_float.c ****     AI_LAYER_OBJ_DECLARE(nonlinearity_layer, 2, NL_TYPE, 0x0, NULL, nl, forward_selu, &activ_chain,
 463:../../Middlewares/AI_Runtime/Npu/ll_aton/ll_sw_float.c ****                          .nl_params = AI_ARRAY_OBJ(&selu_layer_params), )
 464:../../Middlewares/AI_Runtime/Npu/ll_aton/ll_sw_float.c ****     nonlinearity_layer.forward(AI_LAYER_OBJ(&nonlinearity_layer));
ARM GAS  C:\Users\Antonio\AppData\Local\Temp\cc6EBOZH.s 			page 44


 465:../../Middlewares/AI_Runtime/Npu/ll_aton/ll_sw_float.c ****   }
 466:../../Middlewares/AI_Runtime/Npu/ll_aton/ll_sw_float.c ****   break;
 467:../../Middlewares/AI_Runtime/Npu/ll_aton/ll_sw_float.c ****   case LL_SW_CEIL:
 468:../../Middlewares/AI_Runtime/Npu/ll_aton/ll_sw_float.c ****   {
 469:../../Middlewares/AI_Runtime/Npu/ll_aton/ll_sw_float.c ****     AI_LAYER_OBJ_DECLARE(nonlinearity_layer, 2, NL_TYPE, 0x0, NULL, nl, forward_ceil, &activ_chain,
 470:../../Middlewares/AI_Runtime/Npu/ll_aton/ll_sw_float.c ****                          .nl_params = NULL, )
 471:../../Middlewares/AI_Runtime/Npu/ll_aton/ll_sw_float.c ****     nonlinearity_layer.forward(AI_LAYER_OBJ(&nonlinearity_layer));
 472:../../Middlewares/AI_Runtime/Npu/ll_aton/ll_sw_float.c ****   }
 473:../../Middlewares/AI_Runtime/Npu/ll_aton/ll_sw_float.c ****   break;
 474:../../Middlewares/AI_Runtime/Npu/ll_aton/ll_sw_float.c ****   case LL_SW_FLOOR:
 475:../../Middlewares/AI_Runtime/Npu/ll_aton/ll_sw_float.c ****   {
 476:../../Middlewares/AI_Runtime/Npu/ll_aton/ll_sw_float.c ****     AI_LAYER_OBJ_DECLARE(nonlinearity_layer, 2, NL_TYPE, 0x0, NULL, nl, forward_floor, &activ_chain
 477:../../Middlewares/AI_Runtime/Npu/ll_aton/ll_sw_float.c ****                          .nl_params = NULL, )
 478:../../Middlewares/AI_Runtime/Npu/ll_aton/ll_sw_float.c ****     nonlinearity_layer.forward(AI_LAYER_OBJ(&nonlinearity_layer));
 479:../../Middlewares/AI_Runtime/Npu/ll_aton/ll_sw_float.c ****   }
 480:../../Middlewares/AI_Runtime/Npu/ll_aton/ll_sw_float.c ****   break;
 481:../../Middlewares/AI_Runtime/Npu/ll_aton/ll_sw_float.c ****   case LL_SW_EXP:
 482:../../Middlewares/AI_Runtime/Npu/ll_aton/ll_sw_float.c ****   {
 483:../../Middlewares/AI_Runtime/Npu/ll_aton/ll_sw_float.c ****     AI_LAYER_OBJ_DECLARE(nonlinearity_layer, 2, NL_TYPE, 0x0, NULL, nl, forward_exp, &activ_chain, 
 484:../../Middlewares/AI_Runtime/Npu/ll_aton/ll_sw_float.c ****                          .nl_params = NULL, )
 485:../../Middlewares/AI_Runtime/Npu/ll_aton/ll_sw_float.c ****     nonlinearity_layer.forward(AI_LAYER_OBJ(&nonlinearity_layer));
 486:../../Middlewares/AI_Runtime/Npu/ll_aton/ll_sw_float.c ****   }
 487:../../Middlewares/AI_Runtime/Npu/ll_aton/ll_sw_float.c ****   break;
 488:../../Middlewares/AI_Runtime/Npu/ll_aton/ll_sw_float.c ****   case LL_SW_LOG:
 489:../../Middlewares/AI_Runtime/Npu/ll_aton/ll_sw_float.c ****   {
 490:../../Middlewares/AI_Runtime/Npu/ll_aton/ll_sw_float.c ****     AI_LAYER_OBJ_DECLARE(nonlinearity_layer, 2, NL_TYPE, 0x0, NULL, nl, forward_log, &activ_chain, 
 491:../../Middlewares/AI_Runtime/Npu/ll_aton/ll_sw_float.c ****                          .nl_params = NULL, )
 492:../../Middlewares/AI_Runtime/Npu/ll_aton/ll_sw_float.c ****     nonlinearity_layer.forward(AI_LAYER_OBJ(&nonlinearity_layer));
 493:../../Middlewares/AI_Runtime/Npu/ll_aton/ll_sw_float.c ****   }
 494:../../Middlewares/AI_Runtime/Npu/ll_aton/ll_sw_float.c ****   break;
 495:../../Middlewares/AI_Runtime/Npu/ll_aton/ll_sw_float.c ****   case LL_SW_ACOS:
 496:../../Middlewares/AI_Runtime/Npu/ll_aton/ll_sw_float.c ****   {
 497:../../Middlewares/AI_Runtime/Npu/ll_aton/ll_sw_float.c ****     AI_LAYER_OBJ_DECLARE(nonlinearity_layer, 2, NL_TYPE, 0x0, NULL, nl, forward_acos, &activ_chain,
 498:../../Middlewares/AI_Runtime/Npu/ll_aton/ll_sw_float.c ****                          .nl_params = NULL, )
 499:../../Middlewares/AI_Runtime/Npu/ll_aton/ll_sw_float.c ****     nonlinearity_layer.forward(AI_LAYER_OBJ(&nonlinearity_layer));
 500:../../Middlewares/AI_Runtime/Npu/ll_aton/ll_sw_float.c ****   }
 501:../../Middlewares/AI_Runtime/Npu/ll_aton/ll_sw_float.c ****   break;
 502:../../Middlewares/AI_Runtime/Npu/ll_aton/ll_sw_float.c ****   case LL_SW_ACOSH:
 503:../../Middlewares/AI_Runtime/Npu/ll_aton/ll_sw_float.c ****   {
 504:../../Middlewares/AI_Runtime/Npu/ll_aton/ll_sw_float.c ****     AI_LAYER_OBJ_DECLARE(nonlinearity_layer, 2, NL_TYPE, 0x0, NULL, nl, forward_acosh, &activ_chain
 505:../../Middlewares/AI_Runtime/Npu/ll_aton/ll_sw_float.c ****                          .nl_params = NULL, )
 506:../../Middlewares/AI_Runtime/Npu/ll_aton/ll_sw_float.c ****     nonlinearity_layer.forward(AI_LAYER_OBJ(&nonlinearity_layer));
 507:../../Middlewares/AI_Runtime/Npu/ll_aton/ll_sw_float.c ****   }
 508:../../Middlewares/AI_Runtime/Npu/ll_aton/ll_sw_float.c ****   break;
 509:../../Middlewares/AI_Runtime/Npu/ll_aton/ll_sw_float.c ****   case LL_SW_ASIN:
 510:../../Middlewares/AI_Runtime/Npu/ll_aton/ll_sw_float.c ****   {
 511:../../Middlewares/AI_Runtime/Npu/ll_aton/ll_sw_float.c ****     AI_LAYER_OBJ_DECLARE(nonlinearity_layer, 2, NL_TYPE, 0x0, NULL, nl, forward_asin, &activ_chain,
 512:../../Middlewares/AI_Runtime/Npu/ll_aton/ll_sw_float.c ****                          .nl_params = NULL, )
 513:../../Middlewares/AI_Runtime/Npu/ll_aton/ll_sw_float.c ****     nonlinearity_layer.forward(AI_LAYER_OBJ(&nonlinearity_layer));
 514:../../Middlewares/AI_Runtime/Npu/ll_aton/ll_sw_float.c ****   }
 515:../../Middlewares/AI_Runtime/Npu/ll_aton/ll_sw_float.c ****   break;
 516:../../Middlewares/AI_Runtime/Npu/ll_aton/ll_sw_float.c ****   case LL_SW_ASINH:
 517:../../Middlewares/AI_Runtime/Npu/ll_aton/ll_sw_float.c ****   {
 518:../../Middlewares/AI_Runtime/Npu/ll_aton/ll_sw_float.c ****     AI_LAYER_OBJ_DECLARE(nonlinearity_layer, 2, NL_TYPE, 0x0, NULL, nl, forward_asinh, &activ_chain
 519:../../Middlewares/AI_Runtime/Npu/ll_aton/ll_sw_float.c ****                          .nl_params = NULL, )
 520:../../Middlewares/AI_Runtime/Npu/ll_aton/ll_sw_float.c ****     nonlinearity_layer.forward(AI_LAYER_OBJ(&nonlinearity_layer));
 521:../../Middlewares/AI_Runtime/Npu/ll_aton/ll_sw_float.c ****   }
ARM GAS  C:\Users\Antonio\AppData\Local\Temp\cc6EBOZH.s 			page 45


 522:../../Middlewares/AI_Runtime/Npu/ll_aton/ll_sw_float.c ****   break;
 523:../../Middlewares/AI_Runtime/Npu/ll_aton/ll_sw_float.c ****   case LL_SW_ATAN:
 524:../../Middlewares/AI_Runtime/Npu/ll_aton/ll_sw_float.c ****   {
 525:../../Middlewares/AI_Runtime/Npu/ll_aton/ll_sw_float.c ****     AI_LAYER_OBJ_DECLARE(nonlinearity_layer, 2, NL_TYPE, 0x0, NULL, nl, forward_atan, &activ_chain,
 526:../../Middlewares/AI_Runtime/Npu/ll_aton/ll_sw_float.c ****                          .nl_params = NULL, )
 527:../../Middlewares/AI_Runtime/Npu/ll_aton/ll_sw_float.c ****     nonlinearity_layer.forward(AI_LAYER_OBJ(&nonlinearity_layer));
 528:../../Middlewares/AI_Runtime/Npu/ll_aton/ll_sw_float.c ****   }
 529:../../Middlewares/AI_Runtime/Npu/ll_aton/ll_sw_float.c ****   break;
 530:../../Middlewares/AI_Runtime/Npu/ll_aton/ll_sw_float.c ****   case LL_SW_ATANH:
 531:../../Middlewares/AI_Runtime/Npu/ll_aton/ll_sw_float.c ****   {
 532:../../Middlewares/AI_Runtime/Npu/ll_aton/ll_sw_float.c ****     AI_LAYER_OBJ_DECLARE(nonlinearity_layer, 2, NL_TYPE, 0x0, NULL, nl, forward_atanh, &activ_chain
 533:../../Middlewares/AI_Runtime/Npu/ll_aton/ll_sw_float.c ****                          .nl_params = NULL, )
 534:../../Middlewares/AI_Runtime/Npu/ll_aton/ll_sw_float.c ****     nonlinearity_layer.forward(AI_LAYER_OBJ(&nonlinearity_layer));
 535:../../Middlewares/AI_Runtime/Npu/ll_aton/ll_sw_float.c ****   }
 536:../../Middlewares/AI_Runtime/Npu/ll_aton/ll_sw_float.c ****   break;
 537:../../Middlewares/AI_Runtime/Npu/ll_aton/ll_sw_float.c ****   case LL_SW_COS:
 538:../../Middlewares/AI_Runtime/Npu/ll_aton/ll_sw_float.c ****   {
 539:../../Middlewares/AI_Runtime/Npu/ll_aton/ll_sw_float.c ****     AI_LAYER_OBJ_DECLARE(nonlinearity_layer, 2, NL_TYPE, 0x0, NULL, nl, forward_cos, &activ_chain, 
 540:../../Middlewares/AI_Runtime/Npu/ll_aton/ll_sw_float.c ****                          .nl_params = NULL, )
 541:../../Middlewares/AI_Runtime/Npu/ll_aton/ll_sw_float.c ****     nonlinearity_layer.forward(AI_LAYER_OBJ(&nonlinearity_layer));
 542:../../Middlewares/AI_Runtime/Npu/ll_aton/ll_sw_float.c ****   }
 543:../../Middlewares/AI_Runtime/Npu/ll_aton/ll_sw_float.c ****   break;
 544:../../Middlewares/AI_Runtime/Npu/ll_aton/ll_sw_float.c ****   case LL_SW_COSH:
 545:../../Middlewares/AI_Runtime/Npu/ll_aton/ll_sw_float.c ****   {
 546:../../Middlewares/AI_Runtime/Npu/ll_aton/ll_sw_float.c ****     AI_LAYER_OBJ_DECLARE(nonlinearity_layer, 2, NL_TYPE, 0x0, NULL, nl, forward_cosh, &activ_chain,
 547:../../Middlewares/AI_Runtime/Npu/ll_aton/ll_sw_float.c ****                          .nl_params = NULL, )
 548:../../Middlewares/AI_Runtime/Npu/ll_aton/ll_sw_float.c ****     nonlinearity_layer.forward(AI_LAYER_OBJ(&nonlinearity_layer));
 549:../../Middlewares/AI_Runtime/Npu/ll_aton/ll_sw_float.c ****   }
 550:../../Middlewares/AI_Runtime/Npu/ll_aton/ll_sw_float.c ****   break;
 551:../../Middlewares/AI_Runtime/Npu/ll_aton/ll_sw_float.c ****   case LL_SW_SIN:
 552:../../Middlewares/AI_Runtime/Npu/ll_aton/ll_sw_float.c ****   {
 553:../../Middlewares/AI_Runtime/Npu/ll_aton/ll_sw_float.c ****     AI_LAYER_OBJ_DECLARE(nonlinearity_layer, 2, NL_TYPE, 0x0, NULL, nl, forward_sin, &activ_chain, 
 554:../../Middlewares/AI_Runtime/Npu/ll_aton/ll_sw_float.c ****                          .nl_params = NULL, )
 555:../../Middlewares/AI_Runtime/Npu/ll_aton/ll_sw_float.c ****     nonlinearity_layer.forward(AI_LAYER_OBJ(&nonlinearity_layer));
 556:../../Middlewares/AI_Runtime/Npu/ll_aton/ll_sw_float.c ****   }
 557:../../Middlewares/AI_Runtime/Npu/ll_aton/ll_sw_float.c ****   break;
 558:../../Middlewares/AI_Runtime/Npu/ll_aton/ll_sw_float.c ****   case LL_SW_SINH:
 559:../../Middlewares/AI_Runtime/Npu/ll_aton/ll_sw_float.c ****   {
 560:../../Middlewares/AI_Runtime/Npu/ll_aton/ll_sw_float.c ****     AI_LAYER_OBJ_DECLARE(nonlinearity_layer, 2, NL_TYPE, 0x0, NULL, nl, forward_sinh, &activ_chain,
 561:../../Middlewares/AI_Runtime/Npu/ll_aton/ll_sw_float.c ****                          .nl_params = NULL, )
 562:../../Middlewares/AI_Runtime/Npu/ll_aton/ll_sw_float.c ****     nonlinearity_layer.forward(AI_LAYER_OBJ(&nonlinearity_layer));
 563:../../Middlewares/AI_Runtime/Npu/ll_aton/ll_sw_float.c ****   }
 564:../../Middlewares/AI_Runtime/Npu/ll_aton/ll_sw_float.c ****   break;
 565:../../Middlewares/AI_Runtime/Npu/ll_aton/ll_sw_float.c ****   case LL_SW_TANH:
 566:../../Middlewares/AI_Runtime/Npu/ll_aton/ll_sw_float.c ****   {
 567:../../Middlewares/AI_Runtime/Npu/ll_aton/ll_sw_float.c ****     AI_LAYER_OBJ_DECLARE(nonlinearity_layer, 2, NL_TYPE, 0x0, NULL, nl, forward_tanh, &activ_chain,
 568:../../Middlewares/AI_Runtime/Npu/ll_aton/ll_sw_float.c ****                          .nl_params = NULL, )
 569:../../Middlewares/AI_Runtime/Npu/ll_aton/ll_sw_float.c ****     nonlinearity_layer.forward(AI_LAYER_OBJ(&nonlinearity_layer));
 570:../../Middlewares/AI_Runtime/Npu/ll_aton/ll_sw_float.c ****   }
 571:../../Middlewares/AI_Runtime/Npu/ll_aton/ll_sw_float.c ****   break;
 572:../../Middlewares/AI_Runtime/Npu/ll_aton/ll_sw_float.c ****   case LL_SW_TAN:
 573:../../Middlewares/AI_Runtime/Npu/ll_aton/ll_sw_float.c ****   {
 574:../../Middlewares/AI_Runtime/Npu/ll_aton/ll_sw_float.c ****     AI_LAYER_OBJ_DECLARE(nonlinearity_layer, 2, NL_TYPE, 0x0, NULL, nl, forward_tan, &activ_chain, 
 575:../../Middlewares/AI_Runtime/Npu/ll_aton/ll_sw_float.c ****                          .nl_params = NULL, )
 576:../../Middlewares/AI_Runtime/Npu/ll_aton/ll_sw_float.c ****     nonlinearity_layer.forward(AI_LAYER_OBJ(&nonlinearity_layer));
 577:../../Middlewares/AI_Runtime/Npu/ll_aton/ll_sw_float.c ****   }
 578:../../Middlewares/AI_Runtime/Npu/ll_aton/ll_sw_float.c ****   break;
ARM GAS  C:\Users\Antonio\AppData\Local\Temp\cc6EBOZH.s 			page 46


 579:../../Middlewares/AI_Runtime/Npu/ll_aton/ll_sw_float.c ****   case LL_SW_SIGMOID:
 580:../../Middlewares/AI_Runtime/Npu/ll_aton/ll_sw_float.c ****   {
 581:../../Middlewares/AI_Runtime/Npu/ll_aton/ll_sw_float.c ****     AI_LAYER_OBJ_DECLARE(nonlinearity_layer, 2, NL_TYPE, 0x0, NULL, nl, forward_sigmoid, &activ_cha
 582:../../Middlewares/AI_Runtime/Npu/ll_aton/ll_sw_float.c ****                          .nl_params = NULL, )
 583:../../Middlewares/AI_Runtime/Npu/ll_aton/ll_sw_float.c ****     nonlinearity_layer.forward(AI_LAYER_OBJ(&nonlinearity_layer));
 584:../../Middlewares/AI_Runtime/Npu/ll_aton/ll_sw_float.c ****   }
 585:../../Middlewares/AI_Runtime/Npu/ll_aton/ll_sw_float.c ****   break;
 586:../../Middlewares/AI_Runtime/Npu/ll_aton/ll_sw_float.c ****   case LL_SW_SQRT:
 587:../../Middlewares/AI_Runtime/Npu/ll_aton/ll_sw_float.c ****   {
 588:../../Middlewares/AI_Runtime/Npu/ll_aton/ll_sw_float.c ****     AI_LAYER_OBJ_DECLARE(nonlinearity_layer, 2, NL_TYPE, 0x0, NULL, nl, forward_sqrt, &activ_chain,
 589:../../Middlewares/AI_Runtime/Npu/ll_aton/ll_sw_float.c ****                          .nl_params = NULL, )
 590:../../Middlewares/AI_Runtime/Npu/ll_aton/ll_sw_float.c ****     nonlinearity_layer.forward(AI_LAYER_OBJ(&nonlinearity_layer));
 591:../../Middlewares/AI_Runtime/Npu/ll_aton/ll_sw_float.c ****   }
 592:../../Middlewares/AI_Runtime/Npu/ll_aton/ll_sw_float.c ****   break;
 593:../../Middlewares/AI_Runtime/Npu/ll_aton/ll_sw_float.c ****   case LL_SW_ERF:
 594:../../Middlewares/AI_Runtime/Npu/ll_aton/ll_sw_float.c ****   {
 595:../../Middlewares/AI_Runtime/Npu/ll_aton/ll_sw_float.c ****     AI_LAYER_OBJ_DECLARE(nonlinearity_layer, 2, NL_TYPE, 0x0, NULL, nl, forward_erf, &activ_chain, 
 596:../../Middlewares/AI_Runtime/Npu/ll_aton/ll_sw_float.c ****                          .nl_params = NULL, )
 597:../../Middlewares/AI_Runtime/Npu/ll_aton/ll_sw_float.c ****     nonlinearity_layer.forward(AI_LAYER_OBJ(&nonlinearity_layer));
 598:../../Middlewares/AI_Runtime/Npu/ll_aton/ll_sw_float.c ****   }
 599:../../Middlewares/AI_Runtime/Npu/ll_aton/ll_sw_float.c ****   break;
 600:../../Middlewares/AI_Runtime/Npu/ll_aton/ll_sw_float.c ****   case LL_SW_SOFTPLUS:
 601:../../Middlewares/AI_Runtime/Npu/ll_aton/ll_sw_float.c ****   {
 602:../../Middlewares/AI_Runtime/Npu/ll_aton/ll_sw_float.c ****     AI_LAYER_OBJ_DECLARE(nonlinearity_layer, 2, NL_TYPE, 0x0, NULL, nl, forward_soft_plus, &activ_c
 603:../../Middlewares/AI_Runtime/Npu/ll_aton/ll_sw_float.c ****                          .nl_params = NULL, )
 604:../../Middlewares/AI_Runtime/Npu/ll_aton/ll_sw_float.c ****     nonlinearity_layer.forward(AI_LAYER_OBJ(&nonlinearity_layer));
 605:../../Middlewares/AI_Runtime/Npu/ll_aton/ll_sw_float.c ****   }
 606:../../Middlewares/AI_Runtime/Npu/ll_aton/ll_sw_float.c ****   break;
 607:../../Middlewares/AI_Runtime/Npu/ll_aton/ll_sw_float.c ****   case LL_SW_SOFTSIGN:
 608:../../Middlewares/AI_Runtime/Npu/ll_aton/ll_sw_float.c ****   {
 609:../../Middlewares/AI_Runtime/Npu/ll_aton/ll_sw_float.c ****     AI_LAYER_OBJ_DECLARE(nonlinearity_layer, 2, NL_TYPE, 0x0, NULL, nl, forward_soft_sign, &activ_c
 610:../../Middlewares/AI_Runtime/Npu/ll_aton/ll_sw_float.c ****                          .nl_params = NULL, )
 611:../../Middlewares/AI_Runtime/Npu/ll_aton/ll_sw_float.c ****     nonlinearity_layer.forward(AI_LAYER_OBJ(&nonlinearity_layer));
 612:../../Middlewares/AI_Runtime/Npu/ll_aton/ll_sw_float.c ****   }
 613:../../Middlewares/AI_Runtime/Npu/ll_aton/ll_sw_float.c ****   break;
 614:../../Middlewares/AI_Runtime/Npu/ll_aton/ll_sw_float.c ****   case LL_SW_HARDSIGMOID:
 615:../../Middlewares/AI_Runtime/Npu/ll_aton/ll_sw_float.c ****   {
 616:../../Middlewares/AI_Runtime/Npu/ll_aton/ll_sw_float.c ****     AI_ARRAY_OBJ_DECLARE_STATIC(hard_sigmoid_layer_params, ai_float, AI_ARRAY_FORMAT_FLOAT, AI_CONS
 617:../../Middlewares/AI_Runtime/Npu/ll_aton/ll_sw_float.c ****                                 sw_info->beta)
 618:../../Middlewares/AI_Runtime/Npu/ll_aton/ll_sw_float.c ****     AI_LAYER_OBJ_DECLARE(nonlinearity_layer, 2, NL_TYPE, 0x0, NULL, nl, forward_hard_sigmoid, &acti
 619:../../Middlewares/AI_Runtime/Npu/ll_aton/ll_sw_float.c ****                          , .nl_params = AI_ARRAY_OBJ(&hard_sigmoid_layer_params), )
 620:../../Middlewares/AI_Runtime/Npu/ll_aton/ll_sw_float.c ****     nonlinearity_layer.forward(AI_LAYER_OBJ(&nonlinearity_layer));
 621:../../Middlewares/AI_Runtime/Npu/ll_aton/ll_sw_float.c ****   }
 622:../../Middlewares/AI_Runtime/Npu/ll_aton/ll_sw_float.c ****   break;
 623:../../Middlewares/AI_Runtime/Npu/ll_aton/ll_sw_float.c ****   case LL_SW_SWISH:
 624:../../Middlewares/AI_Runtime/Npu/ll_aton/ll_sw_float.c ****   {
 625:../../Middlewares/AI_Runtime/Npu/ll_aton/ll_sw_float.c ****     AI_LAYER_OBJ_DECLARE(nonlinearity_layer, 2, NL_TYPE, 0x0, NULL, nl, forward_swish, &activ_chain
 626:../../Middlewares/AI_Runtime/Npu/ll_aton/ll_sw_float.c ****                          .nl_params = NULL, )
 627:../../Middlewares/AI_Runtime/Npu/ll_aton/ll_sw_float.c ****     nonlinearity_layer.forward(AI_LAYER_OBJ(&nonlinearity_layer));
 628:../../Middlewares/AI_Runtime/Npu/ll_aton/ll_sw_float.c ****   }
 629:../../Middlewares/AI_Runtime/Npu/ll_aton/ll_sw_float.c ****   break;
 630:../../Middlewares/AI_Runtime/Npu/ll_aton/ll_sw_float.c ****   case LL_SW_HARDSWISH:
 631:../../Middlewares/AI_Runtime/Npu/ll_aton/ll_sw_float.c ****   {
 632:../../Middlewares/AI_Runtime/Npu/ll_aton/ll_sw_float.c ****     AI_LAYER_OBJ_DECLARE(nonlinearity_layer, 2, NL_TYPE, 0x0, NULL, nl, forward_hard_swish, &activ_
 633:../../Middlewares/AI_Runtime/Npu/ll_aton/ll_sw_float.c ****                          .nl_params = NULL, )
 634:../../Middlewares/AI_Runtime/Npu/ll_aton/ll_sw_float.c ****     nonlinearity_layer.forward(AI_LAYER_OBJ(&nonlinearity_layer));
 635:../../Middlewares/AI_Runtime/Npu/ll_aton/ll_sw_float.c ****   }
ARM GAS  C:\Users\Antonio\AppData\Local\Temp\cc6EBOZH.s 			page 47


 636:../../Middlewares/AI_Runtime/Npu/ll_aton/ll_sw_float.c ****   break;
 637:../../Middlewares/AI_Runtime/Npu/ll_aton/ll_sw_float.c ****   case LL_SW_HARDMAX:
 638:../../Middlewares/AI_Runtime/Npu/ll_aton/ll_sw_float.c ****   {
 639:../../Middlewares/AI_Runtime/Npu/ll_aton/ll_sw_float.c ****     AI_LAYER_OBJ_DECLARE(nonlinearity_layer, 2, NL_TYPE, 0x0, NULL, nl, forward_hardmax, &activ_cha
 640:../../Middlewares/AI_Runtime/Npu/ll_aton/ll_sw_float.c ****                          .nl_params = NULL, )
 641:../../Middlewares/AI_Runtime/Npu/ll_aton/ll_sw_float.c ****     nonlinearity_layer.forward(AI_LAYER_OBJ(&nonlinearity_layer));
 642:../../Middlewares/AI_Runtime/Npu/ll_aton/ll_sw_float.c ****   }
 643:../../Middlewares/AI_Runtime/Npu/ll_aton/ll_sw_float.c ****   break;
 644:../../Middlewares/AI_Runtime/Npu/ll_aton/ll_sw_float.c ****   case LL_SW_ABS:
 645:../../Middlewares/AI_Runtime/Npu/ll_aton/ll_sw_float.c ****   {
 646:../../Middlewares/AI_Runtime/Npu/ll_aton/ll_sw_float.c ****     AI_LAYER_OBJ_DECLARE(nonlinearity_layer, 2, NL_TYPE, 0x0, NULL, nl, forward_abs, &activ_chain, 
 647:../../Middlewares/AI_Runtime/Npu/ll_aton/ll_sw_float.c ****                          .nl_params = NULL, )
 648:../../Middlewares/AI_Runtime/Npu/ll_aton/ll_sw_float.c ****     nonlinearity_layer.forward(AI_LAYER_OBJ(&nonlinearity_layer));
 649:../../Middlewares/AI_Runtime/Npu/ll_aton/ll_sw_float.c ****   }
 650:../../Middlewares/AI_Runtime/Npu/ll_aton/ll_sw_float.c ****   break;
 651:../../Middlewares/AI_Runtime/Npu/ll_aton/ll_sw_float.c ****   case LL_SW_NEG:
 652:../../Middlewares/AI_Runtime/Npu/ll_aton/ll_sw_float.c ****   {
 653:../../Middlewares/AI_Runtime/Npu/ll_aton/ll_sw_float.c ****     AI_LAYER_OBJ_DECLARE(nonlinearity_layer, 2, NL_TYPE, 0x0, NULL, nl, forward_neg, &activ_chain, 
 654:../../Middlewares/AI_Runtime/Npu/ll_aton/ll_sw_float.c ****                          .nl_params = NULL, )
 655:../../Middlewares/AI_Runtime/Npu/ll_aton/ll_sw_float.c ****     nonlinearity_layer.forward(AI_LAYER_OBJ(&nonlinearity_layer));
 656:../../Middlewares/AI_Runtime/Npu/ll_aton/ll_sw_float.c ****   }
 657:../../Middlewares/AI_Runtime/Npu/ll_aton/ll_sw_float.c ****   break;
 658:../../Middlewares/AI_Runtime/Npu/ll_aton/ll_sw_float.c ****   case LL_SW_RECIPROCAL:
 659:../../Middlewares/AI_Runtime/Npu/ll_aton/ll_sw_float.c ****   {
 660:../../Middlewares/AI_Runtime/Npu/ll_aton/ll_sw_float.c ****     AI_LAYER_OBJ_DECLARE(nonlinearity_layer, 2, NL_TYPE, 0x0, NULL, nl, forward_reciprocal, &activ_
 661:../../Middlewares/AI_Runtime/Npu/ll_aton/ll_sw_float.c ****                          .nl_params = NULL, )
 662:../../Middlewares/AI_Runtime/Npu/ll_aton/ll_sw_float.c ****     nonlinearity_layer.forward(AI_LAYER_OBJ(&nonlinearity_layer));
 663:../../Middlewares/AI_Runtime/Npu/ll_aton/ll_sw_float.c ****   }
 664:../../Middlewares/AI_Runtime/Npu/ll_aton/ll_sw_float.c ****   break;
 665:../../Middlewares/AI_Runtime/Npu/ll_aton/ll_sw_float.c ****   case LL_SW_ROUND:
 666:../../Middlewares/AI_Runtime/Npu/ll_aton/ll_sw_float.c ****   {
 667:../../Middlewares/AI_Runtime/Npu/ll_aton/ll_sw_float.c ****     AI_LAYER_OBJ_DECLARE(nonlinearity_layer, 2, NL_TYPE, 0x0, NULL, nl, forward_round, &activ_chain
 668:../../Middlewares/AI_Runtime/Npu/ll_aton/ll_sw_float.c ****                          .nl_params = NULL, )
 669:../../Middlewares/AI_Runtime/Npu/ll_aton/ll_sw_float.c ****     nonlinearity_layer.forward(AI_LAYER_OBJ(&nonlinearity_layer));
 670:../../Middlewares/AI_Runtime/Npu/ll_aton/ll_sw_float.c ****   }
 671:../../Middlewares/AI_Runtime/Npu/ll_aton/ll_sw_float.c ****   break;
 672:../../Middlewares/AI_Runtime/Npu/ll_aton/ll_sw_float.c ****   default:
 673:../../Middlewares/AI_Runtime/Npu/ll_aton/ll_sw_float.c **** #ifdef LL_SW_ENABLE_ASSERTS
 674:../../Middlewares/AI_Runtime/Npu/ll_aton/ll_sw_float.c ****     LL_ATON_ASSERT(0 && "NL OPERATION NOT SUPPORTED");
 675:../../Middlewares/AI_Runtime/Npu/ll_aton/ll_sw_float.c **** #endif
 676:../../Middlewares/AI_Runtime/Npu/ll_aton/ll_sw_float.c ****     break;
 677:../../Middlewares/AI_Runtime/Npu/ll_aton/ll_sw_float.c ****   }
 678:../../Middlewares/AI_Runtime/Npu/ll_aton/ll_sw_float.c **** }
 1756              		.loc 1 678 1 is_stmt 0 view .LVU476
 1757 0194 67B0     		add	sp, sp, #412
 1758              		.cfi_remember_state
 1759              		.cfi_def_cfa_offset 20
 1760              		@ sp needed
 1761 0196 F0BD     		pop	{r4, r5, r6, r7, pc}
 1762              	.LVL42:
 1763              	.L44:
 1764              		.cfi_restore_state
 1765              	.LBB15:
 407:../../Middlewares/AI_Runtime/Npu/ll_aton/ll_sw_float.c ****                                 sw_info->max)
 1766              		.loc 1 407 5 is_stmt 1 view .LVU477
 1767 0198 0223     		movs	r3, #2
 1768 019a 4793     		str	r3, [sp, #284]
ARM GAS  C:\Users\Antonio\AppData\Local\Temp\cc6EBOZH.s 			page 48


 1769 019c D0F89430 		ldr	r3, [r0, #148]	@ float
 1770 01a0 4691     		str	r1, [sp, #280]
 1771 01a2 3F93     		str	r3, [sp, #252]	@ float
 1772 01a4 D0F89830 		ldr	r3, [r0, #152]	@ float
 409:../../Middlewares/AI_Runtime/Npu/ll_aton/ll_sw_float.c ****                          .nl_params = AI_ARRAY_OBJ(&clip_layer_params))
 1773              		.loc 1 409 5 is_stmt 0 view .LVU478
 1774 01a8 3349     		ldr	r1, .L70+4
 407:../../Middlewares/AI_Runtime/Npu/ll_aton/ll_sw_float.c ****                                 sw_info->max)
 1775              		.loc 1 407 5 view .LVU479
 1776 01aa 4093     		str	r3, [sp, #256]	@ float
 1777 01ac 3FAB     		add	r3, sp, #252
 1778 01ae 4893     		str	r3, [sp, #288]
 1779 01b0 0023     		movs	r3, #0
 409:../../Middlewares/AI_Runtime/Npu/ll_aton/ll_sw_float.c ****                          .nl_params = AI_ARRAY_OBJ(&clip_layer_params))
 1780              		.loc 1 409 5 view .LVU480
 1781 01b2 CDE95A13 		strd	r1, r3, [sp, #360]
 1782 01b6 CDE95C33 		strd	r3, r3, [sp, #368]
 407:../../Middlewares/AI_Runtime/Npu/ll_aton/ll_sw_float.c ****                                 sw_info->max)
 1783              		.loc 1 407 5 view .LVU481
 1784 01ba 4993     		str	r3, [sp, #292]
 409:../../Middlewares/AI_Runtime/Npu/ll_aton/ll_sw_float.c ****                          .nl_params = AI_ARRAY_OBJ(&clip_layer_params))
 1785              		.loc 1 409 5 is_stmt 1 view .LVU482
 1786 01bc 5E93     		str	r3, [sp, #376]
 1787 01be 304B     		ldr	r3, .L70+12
 411:../../Middlewares/AI_Runtime/Npu/ll_aton/ll_sw_float.c ****   }
 1788              		.loc 1 411 5 is_stmt 0 view .LVU483
 1789 01c0 5AA8     		add	r0, sp, #360
 1790              	.LVL43:
 409:../../Middlewares/AI_Runtime/Npu/ll_aton/ll_sw_float.c ****                          .nl_params = AI_ARRAY_OBJ(&clip_layer_params))
 1791              		.loc 1 409 5 view .LVU484
 1792 01c2 CDE95F32 		strd	r3, r2, [sp, #380]
 1793 01c6 46AB     		add	r3, sp, #280
 1794 01c8 6193     		str	r3, [sp, #388]
 411:../../Middlewares/AI_Runtime/Npu/ll_aton/ll_sw_float.c ****   }
 1795              		.loc 1 411 5 is_stmt 1 view .LVU485
 1796 01ca FFF7FEFF 		bl	forward_clip
 1797              	.LVL44:
 1798              	.LBE15:
 413:../../Middlewares/AI_Runtime/Npu/ll_aton/ll_sw_float.c ****   case LL_SW_PRELU:
 1799              		.loc 1 413 3 view .LVU486
 1800 01ce E1E7     		b	.L31
 1801              	.LVL45:
 1802              	.L67:
 1803              	.LBB16:
 416:../../Middlewares/AI_Runtime/Npu/ll_aton/ll_sw_float.c ****                          sw_info->operand.mem.start_offset, sw_info->operand.dim.num_elem, )
 1804              		.loc 1 416 5 view .LVU487
 1805 01d0 C36E     		ldr	r3, [r0, #108]
 1806 01d2 2591     		str	r1, [sp, #148]
 1807 01d4 2693     		str	r3, [sp, #152]
 1808 01d6 D0F88030 		ldr	r3, [r0, #128]
 419:../../Middlewares/AI_Runtime/Npu/ll_aton/ll_sw_float.c ****                           SHAPE_INIT(sw_info->operand.dim.tensor_h, sw_info->operand.dim.tensor_w,
 1809              		.loc 1 419 5 is_stmt 0 view .LVU488
 1810 01da 4FF08271 		mov	r1, #17039360
 416:../../Middlewares/AI_Runtime/Npu/ll_aton/ll_sw_float.c ****                          sw_info->operand.mem.start_offset, sw_info->operand.dim.num_elem, )
 1811              		.loc 1 416 5 view .LVU489
 1812 01de CDE92733 		strd	r3, r3, [sp, #156]
 419:../../Middlewares/AI_Runtime/Npu/ll_aton/ll_sw_float.c ****                           SHAPE_INIT(sw_info->operand.dim.tensor_h, sw_info->operand.dim.tensor_w,
ARM GAS  C:\Users\Antonio\AppData\Local\Temp\cc6EBOZH.s 			page 49


 1813              		.loc 1 419 5 is_stmt 1 view .LVU490
 1814 01e2 0023     		movs	r3, #0
 1815 01e4 CDE93F31 		strd	r3, r1, [sp, #252]
 1816 01e8 40F20141 		movw	r1, #1025
 1817 01ec 4191     		str	r1, [sp, #260]
 1818 01ee 816E     		ldr	r1, [r0, #104]
 416:../../Middlewares/AI_Runtime/Npu/ll_aton/ll_sw_float.c ****                          sw_info->operand.mem.start_offset, sw_info->operand.dim.num_elem, )
 1819              		.loc 1 416 5 is_stmt 0 view .LVU491
 1820 01f0 25AA     		add	r2, sp, #148
 419:../../Middlewares/AI_Runtime/Npu/ll_aton/ll_sw_float.c ****                           SHAPE_INIT(sw_info->operand.dim.tensor_h, sw_info->operand.dim.tensor_w,
 1821              		.loc 1 419 5 view .LVU492
 1822 01f2 2991     		str	r1, [sp, #164]
 1823 01f4 416E     		ldr	r1, [r0, #100]
 427:../../Middlewares/AI_Runtime/Npu/ll_aton/ll_sw_float.c ****         prelu_activ_chain, , 4, AI_TENSOR_LIST_OBJ_INIT(AI_FLAG_NONE, 1, TENSORS(&input_output)),
 1824              		.loc 1 427 5 view .LVU493
 1825 01f6 0595     		str	r5, [sp, #20]
 419:../../Middlewares/AI_Runtime/Npu/ll_aton/ll_sw_float.c ****                           SHAPE_INIT(sw_info->operand.dim.tensor_h, sw_info->operand.dim.tensor_w,
 1826              		.loc 1 419 5 view .LVU494
 1827 01f8 2A91     		str	r1, [sp, #168]
 1828 01fa 016E     		ldr	r1, [r0, #96]
 1829 01fc 2B91     		str	r1, [sp, #172]
 1830 01fe C16D     		ldr	r1, [r0, #92]
 1831 0200 2C91     		str	r1, [sp, #176]
 1832 0202 29A9     		add	r1, sp, #164
 1833 0204 4291     		str	r1, [sp, #264]
 1834 0206 40F20241 		movw	r1, #1026
 1835 020a 4391     		str	r1, [sp, #268]
 1836 020c C16F     		ldr	r1, [r0, #124]
 1837 020e 2D91     		str	r1, [sp, #180]
 1838 0210 816F     		ldr	r1, [r0, #120]
 1839 0212 2E91     		str	r1, [sp, #184]
 1840 0214 416F     		ldr	r1, [r0, #116]
 1841 0216 2F91     		str	r1, [sp, #188]
 1842 0218 016F     		ldr	r1, [r0, #112]
 427:../../Middlewares/AI_Runtime/Npu/ll_aton/ll_sw_float.c ****         prelu_activ_chain, , 4, AI_TENSOR_LIST_OBJ_INIT(AI_FLAG_NONE, 1, TENSORS(&input_output)),
 1843              		.loc 1 427 5 view .LVU495
 1844 021a 05A8     		add	r0, sp, #20
 1845              	.LVL46:
 419:../../Middlewares/AI_Runtime/Npu/ll_aton/ll_sw_float.c ****                           SHAPE_INIT(sw_info->operand.dim.tensor_h, sw_info->operand.dim.tensor_w,
 1846              		.loc 1 419 5 view .LVU496
 1847 021c 3091     		str	r1, [sp, #192]
 1848 021e 2DA9     		add	r1, sp, #180
 1849 0220 CDE94412 		strd	r1, r2, [sp, #272]
 427:../../Middlewares/AI_Runtime/Npu/ll_aton/ll_sw_float.c ****         prelu_activ_chain, , 4, AI_TENSOR_LIST_OBJ_INIT(AI_FLAG_NONE, 1, TENSORS(&input_output)),
 1850              		.loc 1 427 5 is_stmt 1 view .LVU497
 1851 0224 0421     		movs	r1, #4
 1852 0226 0B91     		str	r1, [sp, #44]
 1853 0228 0121     		movs	r1, #1
 1854 022a 5A91     		str	r1, [sp, #360]
 1855 022c CDE95B03 		strd	r0, r3, [sp, #364]
 1856 0230 5D91     		str	r1, [sp, #372]
 1857 0232 6091     		str	r1, [sp, #384]
 1858 0234 07A9     		add	r1, sp, #28
 1859 0236 CDE96113 		strd	r1, r3, [sp, #388]
 1860 023a 08A9     		add	r1, sp, #32
 1861 023c CDE96413 		strd	r1, r3, [sp, #400]
 1862 0240 5AA9     		add	r1, sp, #360
ARM GAS  C:\Users\Antonio\AppData\Local\Temp\cc6EBOZH.s 			page 50


 1863 0242 0C91     		str	r1, [sp, #48]
 432:../../Middlewares/AI_Runtime/Npu/ll_aton/ll_sw_float.c ****                          .nl_params = NULL, )
 1864              		.loc 1 432 5 view .LVU498
 1865 0244 0C49     		ldr	r1, .L70+4
 427:../../Middlewares/AI_Runtime/Npu/ll_aton/ll_sw_float.c ****         prelu_activ_chain, , 4, AI_TENSOR_LIST_OBJ_INIT(AI_FLAG_NONE, 1, TENSORS(&input_output)),
 1866              		.loc 1 427 5 is_stmt 0 view .LVU499
 1867 0246 06A8     		add	r0, sp, #24
 1868 0248 CDE95E03 		strd	r0, r3, [sp, #376]
 432:../../Middlewares/AI_Runtime/Npu/ll_aton/ll_sw_float.c ****                          .nl_params = NULL, )
 1869              		.loc 1 432 5 view .LVU500
 1870 024c CDE94613 		strd	r1, r3, [sp, #280]
 427:../../Middlewares/AI_Runtime/Npu/ll_aton/ll_sw_float.c ****         prelu_activ_chain, , 4, AI_TENSOR_LIST_OBJ_INIT(AI_FLAG_NONE, 1, TENSORS(&input_output)),
 1871              		.loc 1 427 5 view .LVU501
 1872 0250 3FA8     		add	r0, sp, #252
 432:../../Middlewares/AI_Runtime/Npu/ll_aton/ll_sw_float.c ****                          .nl_params = NULL, )
 1873              		.loc 1 432 5 view .LVU502
 1874 0252 0C49     		ldr	r1, .L70+16
 427:../../Middlewares/AI_Runtime/Npu/ll_aton/ll_sw_float.c ****         prelu_activ_chain, , 4, AI_TENSOR_LIST_OBJ_INIT(AI_FLAG_NONE, 1, TENSORS(&input_output)),
 1875              		.loc 1 427 5 view .LVU503
 1876 0254 0BAA     		add	r2, sp, #44
 1877 0256 0790     		str	r0, [sp, #28]
 434:../../Middlewares/AI_Runtime/Npu/ll_aton/ll_sw_float.c ****   }
 1878              		.loc 1 434 5 view .LVU504
 1879 0258 46A8     		add	r0, sp, #280
 432:../../Middlewares/AI_Runtime/Npu/ll_aton/ll_sw_float.c ****                          .nl_params = NULL, )
 1880              		.loc 1 432 5 view .LVU505
 1881 025a CDE94833 		strd	r3, r3, [sp, #288]
 1882 025e CDE94B12 		strd	r1, r2, [sp, #300]
 427:../../Middlewares/AI_Runtime/Npu/ll_aton/ll_sw_float.c ****         prelu_activ_chain, , 4, AI_TENSOR_LIST_OBJ_INIT(AI_FLAG_NONE, 1, TENSORS(&input_output)),
 1883              		.loc 1 427 5 view .LVU506
 1884 0262 0694     		str	r4, [sp, #24]
 1885 0264 6393     		str	r3, [sp, #396]
 1886 0266 0893     		str	r3, [sp, #32]
 432:../../Middlewares/AI_Runtime/Npu/ll_aton/ll_sw_float.c ****                          .nl_params = NULL, )
 1887              		.loc 1 432 5 view .LVU507
 1888 0268 4A93     		str	r3, [sp, #296]
 1889 026a 4D93     		str	r3, [sp, #308]
 434:../../Middlewares/AI_Runtime/Npu/ll_aton/ll_sw_float.c ****   }
 1890              		.loc 1 434 5 is_stmt 1 view .LVU508
 1891 026c FFF7FEFF 		bl	forward_prelu
 1892              	.LVL47:
 1893              	.LBE16:
 436:../../Middlewares/AI_Runtime/Npu/ll_aton/ll_sw_float.c ****   case LL_SW_ELU:
 1894              		.loc 1 436 3 view .LVU509
 1895 0270 90E7     		b	.L31
 1896              	.L71:
 1897 0272 00BF     		.align	2
 1898              	.L70:
 1899 0274 40108200 		.word	8523840
 1900 0278 07010200 		.word	131335
 1901 027c 00000000 		.word	forward_relu
 1902 0280 00000000 		.word	forward_clip
 1903 0284 00000000 		.word	forward_prelu
 1904              	.LVL48:
 1905              	.L65:
 1906              	.LBB17:
 440:../../Middlewares/AI_Runtime/Npu/ll_aton/ll_sw_float.c **** 
ARM GAS  C:\Users\Antonio\AppData\Local\Temp\cc6EBOZH.s 			page 51


 1907              		.loc 1 440 5 view .LVU510
 1908 0288 D0F88830 		ldr	r3, [r0, #136]	@ float
 1909 028c CDE94616 		strd	r1, r6, [sp, #280]
 1910 0290 3F93     		str	r3, [sp, #252]	@ float
 1911 0292 3FAB     		add	r3, sp, #252
 1912 0294 4893     		str	r3, [sp, #288]
 1913 0296 0023     		movs	r3, #0
 442:../../Middlewares/AI_Runtime/Npu/ll_aton/ll_sw_float.c ****                          .nl_params = AI_ARRAY_OBJ(&elu_layer_params), )
 1914              		.loc 1 442 5 is_stmt 0 view .LVU511
 1915 0298 AD49     		ldr	r1, .L72
 1916 029a CDE95C33 		strd	r3, r3, [sp, #368]
 1917 029e CDE95A13 		strd	r1, r3, [sp, #360]
 440:../../Middlewares/AI_Runtime/Npu/ll_aton/ll_sw_float.c **** 
 1918              		.loc 1 440 5 view .LVU512
 1919 02a2 4993     		str	r3, [sp, #292]
 442:../../Middlewares/AI_Runtime/Npu/ll_aton/ll_sw_float.c ****                          .nl_params = AI_ARRAY_OBJ(&elu_layer_params), )
 1920              		.loc 1 442 5 is_stmt 1 view .LVU513
 1921 02a4 5E93     		str	r3, [sp, #376]
 1922 02a6 AB4B     		ldr	r3, .L72+4
 444:../../Middlewares/AI_Runtime/Npu/ll_aton/ll_sw_float.c ****   }
 1923              		.loc 1 444 5 is_stmt 0 view .LVU514
 1924 02a8 5AA8     		add	r0, sp, #360
 1925              	.LVL49:
 442:../../Middlewares/AI_Runtime/Npu/ll_aton/ll_sw_float.c ****                          .nl_params = AI_ARRAY_OBJ(&elu_layer_params), )
 1926              		.loc 1 442 5 view .LVU515
 1927 02aa CDE95F32 		strd	r3, r2, [sp, #380]
 1928 02ae 46AB     		add	r3, sp, #280
 1929 02b0 6193     		str	r3, [sp, #388]
 444:../../Middlewares/AI_Runtime/Npu/ll_aton/ll_sw_float.c ****   }
 1930              		.loc 1 444 5 is_stmt 1 view .LVU516
 1931 02b2 FFF7FEFF 		bl	forward_elu
 1932              	.LVL50:
 1933              	.LBE17:
 446:../../Middlewares/AI_Runtime/Npu/ll_aton/ll_sw_float.c ****   case LL_SW_THRESHOLDEDRELU:
 1934              		.loc 1 446 3 view .LVU517
 1935 02b6 6DE7     		b	.L31
 1936              	.LVL51:
 1937              	.L66:
 1938              	.LBB18:
 450:../../Middlewares/AI_Runtime/Npu/ll_aton/ll_sw_float.c **** 
 1939              		.loc 1 450 5 view .LVU518
 1940 02b8 D0F88830 		ldr	r3, [r0, #136]	@ float
 1941 02bc CDE94616 		strd	r1, r6, [sp, #280]
 1942 02c0 3F93     		str	r3, [sp, #252]	@ float
 1943 02c2 3FAB     		add	r3, sp, #252
 1944 02c4 4893     		str	r3, [sp, #288]
 1945 02c6 0023     		movs	r3, #0
 452:../../Middlewares/AI_Runtime/Npu/ll_aton/ll_sw_float.c ****                          NULL, , .nl_params = AI_ARRAY_OBJ(&thresholdedrelu_layer_params), )
 1946              		.loc 1 452 5 is_stmt 0 view .LVU519
 1947 02c8 A149     		ldr	r1, .L72
 1948 02ca CDE95C33 		strd	r3, r3, [sp, #368]
 1949 02ce CDE95A13 		strd	r1, r3, [sp, #360]
 450:../../Middlewares/AI_Runtime/Npu/ll_aton/ll_sw_float.c **** 
 1950              		.loc 1 450 5 view .LVU520
 1951 02d2 4993     		str	r3, [sp, #292]
 452:../../Middlewares/AI_Runtime/Npu/ll_aton/ll_sw_float.c ****                          NULL, , .nl_params = AI_ARRAY_OBJ(&thresholdedrelu_layer_params), )
 1952              		.loc 1 452 5 is_stmt 1 view .LVU521
ARM GAS  C:\Users\Antonio\AppData\Local\Temp\cc6EBOZH.s 			page 52


 1953 02d4 5E93     		str	r3, [sp, #376]
 1954 02d6 A04B     		ldr	r3, .L72+8
 454:../../Middlewares/AI_Runtime/Npu/ll_aton/ll_sw_float.c ****   }
 1955              		.loc 1 454 5 is_stmt 0 view .LVU522
 1956 02d8 5AA8     		add	r0, sp, #360
 1957              	.LVL52:
 452:../../Middlewares/AI_Runtime/Npu/ll_aton/ll_sw_float.c ****                          NULL, , .nl_params = AI_ARRAY_OBJ(&thresholdedrelu_layer_params), )
 1958              		.loc 1 452 5 view .LVU523
 1959 02da CDE95F32 		strd	r3, r2, [sp, #380]
 1960 02de 46AB     		add	r3, sp, #280
 1961 02e0 6193     		str	r3, [sp, #388]
 454:../../Middlewares/AI_Runtime/Npu/ll_aton/ll_sw_float.c ****   }
 1962              		.loc 1 454 5 is_stmt 1 view .LVU524
 1963 02e2 FFF7FEFF 		bl	forward_relu_thresholded
 1964              	.LVL53:
 1965              	.LBE18:
 456:../../Middlewares/AI_Runtime/Npu/ll_aton/ll_sw_float.c ****   case LL_SW_SELU:
 1966              		.loc 1 456 3 view .LVU525
 1967 02e6 55E7     		b	.L31
 1968              	.LVL54:
 1969              	.L64:
 1970              	.LBB19:
 460:../../Middlewares/AI_Runtime/Npu/ll_aton/ll_sw_float.c **** 
 1971              		.loc 1 460 5 view .LVU526
 1972 02e8 0223     		movs	r3, #2
 1973 02ea 4793     		str	r3, [sp, #284]
 1974 02ec D0F88830 		ldr	r3, [r0, #136]	@ float
 1975 02f0 4691     		str	r1, [sp, #280]
 1976 02f2 3F93     		str	r3, [sp, #252]	@ float
 1977 02f4 D0F89030 		ldr	r3, [r0, #144]	@ float
 462:../../Middlewares/AI_Runtime/Npu/ll_aton/ll_sw_float.c ****                          .nl_params = AI_ARRAY_OBJ(&selu_layer_params), )
 1978              		.loc 1 462 5 is_stmt 0 view .LVU527
 1979 02f8 9549     		ldr	r1, .L72
 460:../../Middlewares/AI_Runtime/Npu/ll_aton/ll_sw_float.c **** 
 1980              		.loc 1 460 5 view .LVU528
 1981 02fa 4093     		str	r3, [sp, #256]	@ float
 1982 02fc 3FAB     		add	r3, sp, #252
 1983 02fe 4893     		str	r3, [sp, #288]
 1984 0300 0023     		movs	r3, #0
 462:../../Middlewares/AI_Runtime/Npu/ll_aton/ll_sw_float.c ****                          .nl_params = AI_ARRAY_OBJ(&selu_layer_params), )
 1985              		.loc 1 462 5 view .LVU529
 1986 0302 CDE95A13 		strd	r1, r3, [sp, #360]
 1987 0306 CDE95C33 		strd	r3, r3, [sp, #368]
 460:../../Middlewares/AI_Runtime/Npu/ll_aton/ll_sw_float.c **** 
 1988              		.loc 1 460 5 view .LVU530
 1989 030a 4993     		str	r3, [sp, #292]
 462:../../Middlewares/AI_Runtime/Npu/ll_aton/ll_sw_float.c ****                          .nl_params = AI_ARRAY_OBJ(&selu_layer_params), )
 1990              		.loc 1 462 5 is_stmt 1 view .LVU531
 1991 030c 5E93     		str	r3, [sp, #376]
 1992 030e 934B     		ldr	r3, .L72+12
 464:../../Middlewares/AI_Runtime/Npu/ll_aton/ll_sw_float.c ****   }
 1993              		.loc 1 464 5 is_stmt 0 view .LVU532
 1994 0310 5AA8     		add	r0, sp, #360
 1995              	.LVL55:
 462:../../Middlewares/AI_Runtime/Npu/ll_aton/ll_sw_float.c ****                          .nl_params = AI_ARRAY_OBJ(&selu_layer_params), )
 1996              		.loc 1 462 5 view .LVU533
 1997 0312 CDE95F32 		strd	r3, r2, [sp, #380]
ARM GAS  C:\Users\Antonio\AppData\Local\Temp\cc6EBOZH.s 			page 53


 1998 0316 46AB     		add	r3, sp, #280
 1999 0318 6193     		str	r3, [sp, #388]
 464:../../Middlewares/AI_Runtime/Npu/ll_aton/ll_sw_float.c ****   }
 2000              		.loc 1 464 5 is_stmt 1 view .LVU534
 2001 031a FFF7FEFF 		bl	forward_selu
 2002              	.LVL56:
 2003              	.LBE19:
 466:../../Middlewares/AI_Runtime/Npu/ll_aton/ll_sw_float.c ****   case LL_SW_CEIL:
 2004              		.loc 1 466 3 view .LVU535
 2005 031e 39E7     		b	.L31
 2006              	.LVL57:
 2007              	.L49:
 2008              	.LBB20:
 469:../../Middlewares/AI_Runtime/Npu/ll_aton/ll_sw_float.c ****                          .nl_params = NULL, )
 2009              		.loc 1 469 5 view .LVU536
 2010 0320 8B49     		ldr	r1, .L72
 471:../../Middlewares/AI_Runtime/Npu/ll_aton/ll_sw_float.c ****   }
 2011              		.loc 1 471 5 is_stmt 0 view .LVU537
 2012 0322 5AA8     		add	r0, sp, #360
 2013              	.LVL58:
 469:../../Middlewares/AI_Runtime/Npu/ll_aton/ll_sw_float.c ****                          .nl_params = NULL, )
 2014              		.loc 1 469 5 view .LVU538
 2015 0324 CDE95A13 		strd	r1, r3, [sp, #360]
 2016 0328 8D49     		ldr	r1, .L72+16
 2017 032a CDE95C33 		strd	r3, r3, [sp, #368]
 2018 032e CDE95F12 		strd	r1, r2, [sp, #380]
 2019 0332 5E93     		str	r3, [sp, #376]
 2020 0334 6193     		str	r3, [sp, #388]
 471:../../Middlewares/AI_Runtime/Npu/ll_aton/ll_sw_float.c ****   }
 2021              		.loc 1 471 5 is_stmt 1 view .LVU539
 2022 0336 FFF7FEFF 		bl	forward_ceil
 2023              	.LVL59:
 2024              	.LBE20:
 473:../../Middlewares/AI_Runtime/Npu/ll_aton/ll_sw_float.c ****   case LL_SW_FLOOR:
 2025              		.loc 1 473 3 view .LVU540
 2026 033a 2BE7     		b	.L31
 2027              	.LVL60:
 2028              	.L48:
 2029              	.LBB21:
 476:../../Middlewares/AI_Runtime/Npu/ll_aton/ll_sw_float.c ****                          .nl_params = NULL, )
 2030              		.loc 1 476 5 view .LVU541
 2031 033c 8449     		ldr	r1, .L72
 478:../../Middlewares/AI_Runtime/Npu/ll_aton/ll_sw_float.c ****   }
 2032              		.loc 1 478 5 is_stmt 0 view .LVU542
 2033 033e 5AA8     		add	r0, sp, #360
 2034              	.LVL61:
 476:../../Middlewares/AI_Runtime/Npu/ll_aton/ll_sw_float.c ****                          .nl_params = NULL, )
 2035              		.loc 1 476 5 view .LVU543
 2036 0340 CDE95A13 		strd	r1, r3, [sp, #360]
 2037 0344 8749     		ldr	r1, .L72+20
 2038 0346 CDE95C33 		strd	r3, r3, [sp, #368]
 2039 034a CDE95F12 		strd	r1, r2, [sp, #380]
 2040 034e 5E93     		str	r3, [sp, #376]
 2041 0350 6193     		str	r3, [sp, #388]
 478:../../Middlewares/AI_Runtime/Npu/ll_aton/ll_sw_float.c ****   }
 2042              		.loc 1 478 5 is_stmt 1 view .LVU544
 2043 0352 FFF7FEFF 		bl	forward_floor
ARM GAS  C:\Users\Antonio\AppData\Local\Temp\cc6EBOZH.s 			page 54


 2044              	.LVL62:
 2045              	.LBE21:
 480:../../Middlewares/AI_Runtime/Npu/ll_aton/ll_sw_float.c ****   case LL_SW_EXP:
 2046              		.loc 1 480 3 view .LVU545
 2047 0356 1DE7     		b	.L31
 2048              	.LVL63:
 2049              	.L47:
 2050              	.LBB22:
 483:../../Middlewares/AI_Runtime/Npu/ll_aton/ll_sw_float.c ****                          .nl_params = NULL, )
 2051              		.loc 1 483 5 view .LVU546
 2052 0358 7D49     		ldr	r1, .L72
 485:../../Middlewares/AI_Runtime/Npu/ll_aton/ll_sw_float.c ****   }
 2053              		.loc 1 485 5 is_stmt 0 view .LVU547
 2054 035a 5AA8     		add	r0, sp, #360
 2055              	.LVL64:
 483:../../Middlewares/AI_Runtime/Npu/ll_aton/ll_sw_float.c ****                          .nl_params = NULL, )
 2056              		.loc 1 483 5 view .LVU548
 2057 035c CDE95A13 		strd	r1, r3, [sp, #360]
 2058 0360 8149     		ldr	r1, .L72+24
 2059 0362 CDE95C33 		strd	r3, r3, [sp, #368]
 2060 0366 CDE95F12 		strd	r1, r2, [sp, #380]
 2061 036a 5E93     		str	r3, [sp, #376]
 2062 036c 6193     		str	r3, [sp, #388]
 485:../../Middlewares/AI_Runtime/Npu/ll_aton/ll_sw_float.c ****   }
 2063              		.loc 1 485 5 is_stmt 1 view .LVU549
 2064 036e FFF7FEFF 		bl	forward_exp
 2065              	.LVL65:
 2066              	.LBE22:
 487:../../Middlewares/AI_Runtime/Npu/ll_aton/ll_sw_float.c ****   case LL_SW_LOG:
 2067              		.loc 1 487 3 view .LVU550
 2068 0372 0FE7     		b	.L31
 2069              	.LVL66:
 2070              	.L46:
 2071              	.LBB23:
 490:../../Middlewares/AI_Runtime/Npu/ll_aton/ll_sw_float.c ****                          .nl_params = NULL, )
 2072              		.loc 1 490 5 view .LVU551
 2073 0374 7649     		ldr	r1, .L72
 492:../../Middlewares/AI_Runtime/Npu/ll_aton/ll_sw_float.c ****   }
 2074              		.loc 1 492 5 is_stmt 0 view .LVU552
 2075 0376 5AA8     		add	r0, sp, #360
 2076              	.LVL67:
 490:../../Middlewares/AI_Runtime/Npu/ll_aton/ll_sw_float.c ****                          .nl_params = NULL, )
 2077              		.loc 1 490 5 view .LVU553
 2078 0378 CDE95A13 		strd	r1, r3, [sp, #360]
 2079 037c 7B49     		ldr	r1, .L72+28
 2080 037e CDE95C33 		strd	r3, r3, [sp, #368]
 2081 0382 CDE95F12 		strd	r1, r2, [sp, #380]
 2082 0386 5E93     		str	r3, [sp, #376]
 2083 0388 6193     		str	r3, [sp, #388]
 492:../../Middlewares/AI_Runtime/Npu/ll_aton/ll_sw_float.c ****   }
 2084              		.loc 1 492 5 is_stmt 1 view .LVU554
 2085 038a FFF7FEFF 		bl	forward_log
 2086              	.LVL68:
 2087              	.LBE23:
 494:../../Middlewares/AI_Runtime/Npu/ll_aton/ll_sw_float.c ****   case LL_SW_ACOS:
 2088              		.loc 1 494 3 view .LVU555
 2089 038e 01E7     		b	.L31
ARM GAS  C:\Users\Antonio\AppData\Local\Temp\cc6EBOZH.s 			page 55


 2090              	.LVL69:
 2091              	.L60:
 2092              	.LBB24:
 497:../../Middlewares/AI_Runtime/Npu/ll_aton/ll_sw_float.c ****                          .nl_params = NULL, )
 2093              		.loc 1 497 5 view .LVU556
 2094 0390 6F49     		ldr	r1, .L72
 499:../../Middlewares/AI_Runtime/Npu/ll_aton/ll_sw_float.c ****   }
 2095              		.loc 1 499 5 is_stmt 0 view .LVU557
 2096 0392 5AA8     		add	r0, sp, #360
 2097              	.LVL70:
 497:../../Middlewares/AI_Runtime/Npu/ll_aton/ll_sw_float.c ****                          .nl_params = NULL, )
 2098              		.loc 1 497 5 view .LVU558
 2099 0394 CDE95A13 		strd	r1, r3, [sp, #360]
 2100 0398 7549     		ldr	r1, .L72+32
 2101 039a CDE95C33 		strd	r3, r3, [sp, #368]
 2102 039e CDE95F12 		strd	r1, r2, [sp, #380]
 2103 03a2 5E93     		str	r3, [sp, #376]
 2104 03a4 6193     		str	r3, [sp, #388]
 499:../../Middlewares/AI_Runtime/Npu/ll_aton/ll_sw_float.c ****   }
 2105              		.loc 1 499 5 is_stmt 1 view .LVU559
 2106 03a6 FFF7FEFF 		bl	forward_acos
 2107              	.LVL71:
 2108              	.LBE24:
 501:../../Middlewares/AI_Runtime/Npu/ll_aton/ll_sw_float.c ****   case LL_SW_ACOSH:
 2109              		.loc 1 501 3 view .LVU560
 2110 03aa F3E6     		b	.L31
 2111              	.LVL72:
 2112              	.L59:
 2113              	.LBB25:
 504:../../Middlewares/AI_Runtime/Npu/ll_aton/ll_sw_float.c ****                          .nl_params = NULL, )
 2114              		.loc 1 504 5 view .LVU561
 2115 03ac 6849     		ldr	r1, .L72
 506:../../Middlewares/AI_Runtime/Npu/ll_aton/ll_sw_float.c ****   }
 2116              		.loc 1 506 5 is_stmt 0 view .LVU562
 2117 03ae 5AA8     		add	r0, sp, #360
 2118              	.LVL73:
 504:../../Middlewares/AI_Runtime/Npu/ll_aton/ll_sw_float.c ****                          .nl_params = NULL, )
 2119              		.loc 1 504 5 view .LVU563
 2120 03b0 CDE95A13 		strd	r1, r3, [sp, #360]
 2121 03b4 6F49     		ldr	r1, .L72+36
 2122 03b6 CDE95C33 		strd	r3, r3, [sp, #368]
 2123 03ba CDE95F12 		strd	r1, r2, [sp, #380]
 2124 03be 5E93     		str	r3, [sp, #376]
 2125 03c0 6193     		str	r3, [sp, #388]
 506:../../Middlewares/AI_Runtime/Npu/ll_aton/ll_sw_float.c ****   }
 2126              		.loc 1 506 5 is_stmt 1 view .LVU564
 2127 03c2 FFF7FEFF 		bl	forward_acosh
 2128              	.LVL74:
 2129              	.LBE25:
 508:../../Middlewares/AI_Runtime/Npu/ll_aton/ll_sw_float.c ****   case LL_SW_ASIN:
 2130              		.loc 1 508 3 view .LVU565
 2131 03c6 E5E6     		b	.L31
 2132              	.LVL75:
 2133              	.L58:
 2134              	.LBB26:
 511:../../Middlewares/AI_Runtime/Npu/ll_aton/ll_sw_float.c ****                          .nl_params = NULL, )
 2135              		.loc 1 511 5 view .LVU566
ARM GAS  C:\Users\Antonio\AppData\Local\Temp\cc6EBOZH.s 			page 56


 2136 03c8 6149     		ldr	r1, .L72
 513:../../Middlewares/AI_Runtime/Npu/ll_aton/ll_sw_float.c ****   }
 2137              		.loc 1 513 5 is_stmt 0 view .LVU567
 2138 03ca 5AA8     		add	r0, sp, #360
 2139              	.LVL76:
 511:../../Middlewares/AI_Runtime/Npu/ll_aton/ll_sw_float.c ****                          .nl_params = NULL, )
 2140              		.loc 1 511 5 view .LVU568
 2141 03cc CDE95A13 		strd	r1, r3, [sp, #360]
 2142 03d0 6949     		ldr	r1, .L72+40
 2143 03d2 CDE95C33 		strd	r3, r3, [sp, #368]
 2144 03d6 CDE95F12 		strd	r1, r2, [sp, #380]
 2145 03da 5E93     		str	r3, [sp, #376]
 2146 03dc 6193     		str	r3, [sp, #388]
 513:../../Middlewares/AI_Runtime/Npu/ll_aton/ll_sw_float.c ****   }
 2147              		.loc 1 513 5 is_stmt 1 view .LVU569
 2148 03de FFF7FEFF 		bl	forward_asin
 2149              	.LVL77:
 2150              	.LBE26:
 515:../../Middlewares/AI_Runtime/Npu/ll_aton/ll_sw_float.c ****   case LL_SW_ASINH:
 2151              		.loc 1 515 3 view .LVU570
 2152 03e2 D7E6     		b	.L31
 2153              	.LVL78:
 2154              	.L57:
 2155              	.LBB27:
 518:../../Middlewares/AI_Runtime/Npu/ll_aton/ll_sw_float.c ****                          .nl_params = NULL, )
 2156              		.loc 1 518 5 view .LVU571
 2157 03e4 5A49     		ldr	r1, .L72
 520:../../Middlewares/AI_Runtime/Npu/ll_aton/ll_sw_float.c ****   }
 2158              		.loc 1 520 5 is_stmt 0 view .LVU572
 2159 03e6 5AA8     		add	r0, sp, #360
 2160              	.LVL79:
 518:../../Middlewares/AI_Runtime/Npu/ll_aton/ll_sw_float.c ****                          .nl_params = NULL, )
 2161              		.loc 1 518 5 view .LVU573
 2162 03e8 CDE95A13 		strd	r1, r3, [sp, #360]
 2163 03ec 6349     		ldr	r1, .L72+44
 2164 03ee CDE95C33 		strd	r3, r3, [sp, #368]
 2165 03f2 CDE95F12 		strd	r1, r2, [sp, #380]
 2166 03f6 5E93     		str	r3, [sp, #376]
 2167 03f8 6193     		str	r3, [sp, #388]
 520:../../Middlewares/AI_Runtime/Npu/ll_aton/ll_sw_float.c ****   }
 2168              		.loc 1 520 5 is_stmt 1 view .LVU574
 2169 03fa FFF7FEFF 		bl	forward_asinh
 2170              	.LVL80:
 2171              	.LBE27:
 522:../../Middlewares/AI_Runtime/Npu/ll_aton/ll_sw_float.c ****   case LL_SW_ATAN:
 2172              		.loc 1 522 3 view .LVU575
 2173 03fe C9E6     		b	.L31
 2174              	.LVL81:
 2175              	.L62:
 2176              	.LBB28:
 525:../../Middlewares/AI_Runtime/Npu/ll_aton/ll_sw_float.c ****                          .nl_params = NULL, )
 2177              		.loc 1 525 5 view .LVU576
 2178 0400 5349     		ldr	r1, .L72
 527:../../Middlewares/AI_Runtime/Npu/ll_aton/ll_sw_float.c ****   }
 2179              		.loc 1 527 5 is_stmt 0 view .LVU577
 2180 0402 5AA8     		add	r0, sp, #360
 2181              	.LVL82:
ARM GAS  C:\Users\Antonio\AppData\Local\Temp\cc6EBOZH.s 			page 57


 525:../../Middlewares/AI_Runtime/Npu/ll_aton/ll_sw_float.c ****                          .nl_params = NULL, )
 2182              		.loc 1 525 5 view .LVU578
 2183 0404 CDE95A13 		strd	r1, r3, [sp, #360]
 2184 0408 5D49     		ldr	r1, .L72+48
 2185 040a CDE95C33 		strd	r3, r3, [sp, #368]
 2186 040e CDE95F12 		strd	r1, r2, [sp, #380]
 2187 0412 5E93     		str	r3, [sp, #376]
 2188 0414 6193     		str	r3, [sp, #388]
 527:../../Middlewares/AI_Runtime/Npu/ll_aton/ll_sw_float.c ****   }
 2189              		.loc 1 527 5 is_stmt 1 view .LVU579
 2190 0416 FFF7FEFF 		bl	forward_atan
 2191              	.LVL83:
 2192              	.LBE28:
 529:../../Middlewares/AI_Runtime/Npu/ll_aton/ll_sw_float.c ****   case LL_SW_ATANH:
 2193              		.loc 1 529 3 view .LVU580
 2194 041a BBE6     		b	.L31
 2195              	.LVL84:
 2196              	.L61:
 2197              	.LBB29:
 532:../../Middlewares/AI_Runtime/Npu/ll_aton/ll_sw_float.c ****                          .nl_params = NULL, )
 2198              		.loc 1 532 5 view .LVU581
 2199 041c 4C49     		ldr	r1, .L72
 534:../../Middlewares/AI_Runtime/Npu/ll_aton/ll_sw_float.c ****   }
 2200              		.loc 1 534 5 is_stmt 0 view .LVU582
 2201 041e 5AA8     		add	r0, sp, #360
 2202              	.LVL85:
 532:../../Middlewares/AI_Runtime/Npu/ll_aton/ll_sw_float.c ****                          .nl_params = NULL, )
 2203              		.loc 1 532 5 view .LVU583
 2204 0420 CDE95A13 		strd	r1, r3, [sp, #360]
 2205 0424 5749     		ldr	r1, .L72+52
 2206 0426 CDE95C33 		strd	r3, r3, [sp, #368]
 2207 042a CDE95F12 		strd	r1, r2, [sp, #380]
 2208 042e 5E93     		str	r3, [sp, #376]
 2209 0430 6193     		str	r3, [sp, #388]
 534:../../Middlewares/AI_Runtime/Npu/ll_aton/ll_sw_float.c ****   }
 2210              		.loc 1 534 5 is_stmt 1 view .LVU584
 2211 0432 FFF7FEFF 		bl	forward_atanh
 2212              	.LVL86:
 2213              	.LBE29:
 536:../../Middlewares/AI_Runtime/Npu/ll_aton/ll_sw_float.c ****   case LL_SW_COS:
 2214              		.loc 1 536 3 view .LVU585
 2215 0436 ADE6     		b	.L31
 2216              	.LVL87:
 2217              	.L54:
 2218              	.LBB30:
 539:../../Middlewares/AI_Runtime/Npu/ll_aton/ll_sw_float.c ****                          .nl_params = NULL, )
 2219              		.loc 1 539 5 view .LVU586
 2220 0438 4549     		ldr	r1, .L72
 541:../../Middlewares/AI_Runtime/Npu/ll_aton/ll_sw_float.c ****   }
 2221              		.loc 1 541 5 is_stmt 0 view .LVU587
 2222 043a 5AA8     		add	r0, sp, #360
 2223              	.LVL88:
 539:../../Middlewares/AI_Runtime/Npu/ll_aton/ll_sw_float.c ****                          .nl_params = NULL, )
 2224              		.loc 1 539 5 view .LVU588
 2225 043c CDE95A13 		strd	r1, r3, [sp, #360]
 2226 0440 5149     		ldr	r1, .L72+56
 2227 0442 CDE95C33 		strd	r3, r3, [sp, #368]
ARM GAS  C:\Users\Antonio\AppData\Local\Temp\cc6EBOZH.s 			page 58


 2228 0446 CDE95F12 		strd	r1, r2, [sp, #380]
 2229 044a 5E93     		str	r3, [sp, #376]
 2230 044c 6193     		str	r3, [sp, #388]
 541:../../Middlewares/AI_Runtime/Npu/ll_aton/ll_sw_float.c ****   }
 2231              		.loc 1 541 5 is_stmt 1 view .LVU589
 2232 044e FFF7FEFF 		bl	forward_cos
 2233              	.LVL89:
 2234              	.LBE30:
 543:../../Middlewares/AI_Runtime/Npu/ll_aton/ll_sw_float.c ****   case LL_SW_COSH:
 2235              		.loc 1 543 3 view .LVU590
 2236 0452 9FE6     		b	.L31
 2237              	.LVL90:
 2238              	.L53:
 2239              	.LBB31:
 546:../../Middlewares/AI_Runtime/Npu/ll_aton/ll_sw_float.c ****                          .nl_params = NULL, )
 2240              		.loc 1 546 5 view .LVU591
 2241 0454 3E49     		ldr	r1, .L72
 548:../../Middlewares/AI_Runtime/Npu/ll_aton/ll_sw_float.c ****   }
 2242              		.loc 1 548 5 is_stmt 0 view .LVU592
 2243 0456 5AA8     		add	r0, sp, #360
 2244              	.LVL91:
 546:../../Middlewares/AI_Runtime/Npu/ll_aton/ll_sw_float.c ****                          .nl_params = NULL, )
 2245              		.loc 1 546 5 view .LVU593
 2246 0458 CDE95A13 		strd	r1, r3, [sp, #360]
 2247 045c 4B49     		ldr	r1, .L72+60
 2248 045e CDE95C33 		strd	r3, r3, [sp, #368]
 2249 0462 CDE95F12 		strd	r1, r2, [sp, #380]
 2250 0466 5E93     		str	r3, [sp, #376]
 2251 0468 6193     		str	r3, [sp, #388]
 548:../../Middlewares/AI_Runtime/Npu/ll_aton/ll_sw_float.c ****   }
 2252              		.loc 1 548 5 is_stmt 1 view .LVU594
 2253 046a FFF7FEFF 		bl	forward_cosh
 2254              	.LVL92:
 2255              	.LBE31:
 550:../../Middlewares/AI_Runtime/Npu/ll_aton/ll_sw_float.c ****   case LL_SW_SIN:
 2256              		.loc 1 550 3 view .LVU595
 2257 046e 91E6     		b	.L31
 2258              	.LVL93:
 2259              	.L52:
 2260              	.LBB32:
 553:../../Middlewares/AI_Runtime/Npu/ll_aton/ll_sw_float.c ****                          .nl_params = NULL, )
 2261              		.loc 1 553 5 view .LVU596
 2262 0470 3749     		ldr	r1, .L72
 555:../../Middlewares/AI_Runtime/Npu/ll_aton/ll_sw_float.c ****   }
 2263              		.loc 1 555 5 is_stmt 0 view .LVU597
 2264 0472 5AA8     		add	r0, sp, #360
 2265              	.LVL94:
 553:../../Middlewares/AI_Runtime/Npu/ll_aton/ll_sw_float.c ****                          .nl_params = NULL, )
 2266              		.loc 1 553 5 view .LVU598
 2267 0474 CDE95A13 		strd	r1, r3, [sp, #360]
 2268 0478 4549     		ldr	r1, .L72+64
 2269 047a CDE95C33 		strd	r3, r3, [sp, #368]
 2270 047e CDE95F12 		strd	r1, r2, [sp, #380]
 2271 0482 5E93     		str	r3, [sp, #376]
 2272 0484 6193     		str	r3, [sp, #388]
 555:../../Middlewares/AI_Runtime/Npu/ll_aton/ll_sw_float.c ****   }
 2273              		.loc 1 555 5 is_stmt 1 view .LVU599
ARM GAS  C:\Users\Antonio\AppData\Local\Temp\cc6EBOZH.s 			page 59


 2274 0486 FFF7FEFF 		bl	forward_sin
 2275              	.LVL95:
 2276              	.LBE32:
 557:../../Middlewares/AI_Runtime/Npu/ll_aton/ll_sw_float.c ****   case LL_SW_SINH:
 2277              		.loc 1 557 3 view .LVU600
 2278 048a 83E6     		b	.L31
 2279              	.LVL96:
 2280              	.L51:
 2281              	.LBB33:
 560:../../Middlewares/AI_Runtime/Npu/ll_aton/ll_sw_float.c ****                          .nl_params = NULL, )
 2282              		.loc 1 560 5 view .LVU601
 2283 048c 3049     		ldr	r1, .L72
 562:../../Middlewares/AI_Runtime/Npu/ll_aton/ll_sw_float.c ****   }
 2284              		.loc 1 562 5 is_stmt 0 view .LVU602
 2285 048e 5AA8     		add	r0, sp, #360
 2286              	.LVL97:
 560:../../Middlewares/AI_Runtime/Npu/ll_aton/ll_sw_float.c ****                          .nl_params = NULL, )
 2287              		.loc 1 560 5 view .LVU603
 2288 0490 CDE95A13 		strd	r1, r3, [sp, #360]
 2289 0494 3F49     		ldr	r1, .L72+68
 2290 0496 CDE95C33 		strd	r3, r3, [sp, #368]
 2291 049a CDE95F12 		strd	r1, r2, [sp, #380]
 2292 049e 5E93     		str	r3, [sp, #376]
 2293 04a0 6193     		str	r3, [sp, #388]
 562:../../Middlewares/AI_Runtime/Npu/ll_aton/ll_sw_float.c ****   }
 2294              		.loc 1 562 5 is_stmt 1 view .LVU604
 2295 04a2 FFF7FEFF 		bl	forward_sinh
 2296              	.LVL98:
 2297              	.LBE33:
 564:../../Middlewares/AI_Runtime/Npu/ll_aton/ll_sw_float.c ****   case LL_SW_TANH:
 2298              		.loc 1 564 3 view .LVU605
 2299 04a6 75E6     		b	.L31
 2300              	.LVL99:
 2301              	.L55:
 2302              	.LBB34:
 567:../../Middlewares/AI_Runtime/Npu/ll_aton/ll_sw_float.c ****                          .nl_params = NULL, )
 2303              		.loc 1 567 5 view .LVU606
 2304 04a8 2949     		ldr	r1, .L72
 569:../../Middlewares/AI_Runtime/Npu/ll_aton/ll_sw_float.c ****   }
 2305              		.loc 1 569 5 is_stmt 0 view .LVU607
 2306 04aa 5AA8     		add	r0, sp, #360
 2307              	.LVL100:
 567:../../Middlewares/AI_Runtime/Npu/ll_aton/ll_sw_float.c ****                          .nl_params = NULL, )
 2308              		.loc 1 567 5 view .LVU608
 2309 04ac CDE95A13 		strd	r1, r3, [sp, #360]
 2310 04b0 3949     		ldr	r1, .L72+72
 2311 04b2 CDE95C33 		strd	r3, r3, [sp, #368]
 2312 04b6 CDE95F12 		strd	r1, r2, [sp, #380]
 2313 04ba 5E93     		str	r3, [sp, #376]
 2314 04bc 6193     		str	r3, [sp, #388]
 569:../../Middlewares/AI_Runtime/Npu/ll_aton/ll_sw_float.c ****   }
 2315              		.loc 1 569 5 is_stmt 1 view .LVU609
 2316 04be FFF7FEFF 		bl	forward_tanh
 2317              	.LVL101:
 2318              	.LBE34:
 571:../../Middlewares/AI_Runtime/Npu/ll_aton/ll_sw_float.c ****   case LL_SW_TAN:
 2319              		.loc 1 571 3 view .LVU610
ARM GAS  C:\Users\Antonio\AppData\Local\Temp\cc6EBOZH.s 			page 60


 2320 04c2 67E6     		b	.L31
 2321              	.LVL102:
 2322              	.L56:
 2323              	.LBB35:
 574:../../Middlewares/AI_Runtime/Npu/ll_aton/ll_sw_float.c ****                          .nl_params = NULL, )
 2324              		.loc 1 574 5 view .LVU611
 2325 04c4 2249     		ldr	r1, .L72
 576:../../Middlewares/AI_Runtime/Npu/ll_aton/ll_sw_float.c ****   }
 2326              		.loc 1 576 5 is_stmt 0 view .LVU612
 2327 04c6 5AA8     		add	r0, sp, #360
 2328              	.LVL103:
 574:../../Middlewares/AI_Runtime/Npu/ll_aton/ll_sw_float.c ****                          .nl_params = NULL, )
 2329              		.loc 1 574 5 view .LVU613
 2330 04c8 CDE95A13 		strd	r1, r3, [sp, #360]
 2331 04cc 3349     		ldr	r1, .L72+76
 2332 04ce CDE95C33 		strd	r3, r3, [sp, #368]
 2333 04d2 CDE95F12 		strd	r1, r2, [sp, #380]
 2334 04d6 5E93     		str	r3, [sp, #376]
 2335 04d8 6193     		str	r3, [sp, #388]
 576:../../Middlewares/AI_Runtime/Npu/ll_aton/ll_sw_float.c ****   }
 2336              		.loc 1 576 5 is_stmt 1 view .LVU614
 2337 04da FFF7FEFF 		bl	forward_tan
 2338              	.LVL104:
 2339              	.LBE35:
 578:../../Middlewares/AI_Runtime/Npu/ll_aton/ll_sw_float.c ****   case LL_SW_SIGMOID:
 2340              		.loc 1 578 3 view .LVU615
 2341 04de 59E6     		b	.L31
 2342              	.LVL105:
 2343              	.L63:
 2344              	.LBB36:
 581:../../Middlewares/AI_Runtime/Npu/ll_aton/ll_sw_float.c ****                          .nl_params = NULL, )
 2345              		.loc 1 581 5 view .LVU616
 2346 04e0 1B49     		ldr	r1, .L72
 583:../../Middlewares/AI_Runtime/Npu/ll_aton/ll_sw_float.c ****   }
 2347              		.loc 1 583 5 is_stmt 0 view .LVU617
 2348 04e2 5AA8     		add	r0, sp, #360
 2349              	.LVL106:
 581:../../Middlewares/AI_Runtime/Npu/ll_aton/ll_sw_float.c ****                          .nl_params = NULL, )
 2350              		.loc 1 581 5 view .LVU618
 2351 04e4 CDE95A13 		strd	r1, r3, [sp, #360]
 2352 04e8 2D49     		ldr	r1, .L72+80
 2353 04ea CDE95C33 		strd	r3, r3, [sp, #368]
 2354 04ee CDE95F12 		strd	r1, r2, [sp, #380]
 2355 04f2 5E93     		str	r3, [sp, #376]
 2356 04f4 6193     		str	r3, [sp, #388]
 583:../../Middlewares/AI_Runtime/Npu/ll_aton/ll_sw_float.c ****   }
 2357              		.loc 1 583 5 is_stmt 1 view .LVU619
 2358 04f6 FFF7FEFF 		bl	forward_sigmoid
 2359              	.LVL107:
 2360              	.LBE36:
 585:../../Middlewares/AI_Runtime/Npu/ll_aton/ll_sw_float.c ****   case LL_SW_SQRT:
 2361              		.loc 1 585 3 view .LVU620
 2362 04fa 4BE6     		b	.L31
 2363              	.LVL108:
 2364              	.L50:
 2365              	.LBB37:
 588:../../Middlewares/AI_Runtime/Npu/ll_aton/ll_sw_float.c ****                          .nl_params = NULL, )
ARM GAS  C:\Users\Antonio\AppData\Local\Temp\cc6EBOZH.s 			page 61


 2366              		.loc 1 588 5 view .LVU621
 2367 04fc 1449     		ldr	r1, .L72
 590:../../Middlewares/AI_Runtime/Npu/ll_aton/ll_sw_float.c ****   }
 2368              		.loc 1 590 5 is_stmt 0 view .LVU622
 2369 04fe 5AA8     		add	r0, sp, #360
 2370              	.LVL109:
 588:../../Middlewares/AI_Runtime/Npu/ll_aton/ll_sw_float.c ****                          .nl_params = NULL, )
 2371              		.loc 1 588 5 view .LVU623
 2372 0500 CDE95A13 		strd	r1, r3, [sp, #360]
 2373 0504 2749     		ldr	r1, .L72+84
 2374 0506 CDE95C33 		strd	r3, r3, [sp, #368]
 2375 050a CDE95F12 		strd	r1, r2, [sp, #380]
 2376 050e 5E93     		str	r3, [sp, #376]
 2377 0510 6193     		str	r3, [sp, #388]
 590:../../Middlewares/AI_Runtime/Npu/ll_aton/ll_sw_float.c ****   }
 2378              		.loc 1 590 5 is_stmt 1 view .LVU624
 2379 0512 FFF7FEFF 		bl	forward_sqrt
 2380              	.LVL110:
 2381              	.LBE37:
 592:../../Middlewares/AI_Runtime/Npu/ll_aton/ll_sw_float.c ****   case LL_SW_ERF:
 2382              		.loc 1 592 3 view .LVU625
 2383 0516 3DE6     		b	.L31
 2384              	.LVL111:
 2385              	.L45:
 2386              	.LBB38:
 595:../../Middlewares/AI_Runtime/Npu/ll_aton/ll_sw_float.c ****                          .nl_params = NULL, )
 2387              		.loc 1 595 5 view .LVU626
 2388 0518 0D49     		ldr	r1, .L72
 597:../../Middlewares/AI_Runtime/Npu/ll_aton/ll_sw_float.c ****   }
 2389              		.loc 1 597 5 is_stmt 0 view .LVU627
 2390 051a 5AA8     		add	r0, sp, #360
 2391              	.LVL112:
 595:../../Middlewares/AI_Runtime/Npu/ll_aton/ll_sw_float.c ****                          .nl_params = NULL, )
 2392              		.loc 1 595 5 view .LVU628
 2393 051c CDE95A13 		strd	r1, r3, [sp, #360]
 2394 0520 2149     		ldr	r1, .L72+88
 2395 0522 CDE95C33 		strd	r3, r3, [sp, #368]
 2396 0526 CDE95F12 		strd	r1, r2, [sp, #380]
 2397 052a 5E93     		str	r3, [sp, #376]
 2398 052c 6193     		str	r3, [sp, #388]
 597:../../Middlewares/AI_Runtime/Npu/ll_aton/ll_sw_float.c ****   }
 2399              		.loc 1 597 5 is_stmt 1 view .LVU629
 2400 052e FFF7FEFF 		bl	forward_erf
 2401              	.LVL113:
 2402              	.LBE38:
 599:../../Middlewares/AI_Runtime/Npu/ll_aton/ll_sw_float.c ****   case LL_SW_SOFTPLUS:
 2403              		.loc 1 599 3 view .LVU630
 2404 0532 2FE6     		b	.L31
 2405              	.LVL114:
 2406              	.L37:
 2407              	.LBB39:
 602:../../Middlewares/AI_Runtime/Npu/ll_aton/ll_sw_float.c ****                          .nl_params = NULL, )
 2408              		.loc 1 602 5 view .LVU631
 2409 0534 0649     		ldr	r1, .L72
 604:../../Middlewares/AI_Runtime/Npu/ll_aton/ll_sw_float.c ****   }
 2410              		.loc 1 604 5 is_stmt 0 view .LVU632
 2411 0536 5AA8     		add	r0, sp, #360
ARM GAS  C:\Users\Antonio\AppData\Local\Temp\cc6EBOZH.s 			page 62


 2412              	.LVL115:
 602:../../Middlewares/AI_Runtime/Npu/ll_aton/ll_sw_float.c ****                          .nl_params = NULL, )
 2413              		.loc 1 602 5 view .LVU633
 2414 0538 CDE95A13 		strd	r1, r3, [sp, #360]
 2415 053c 1B49     		ldr	r1, .L72+92
 2416 053e CDE95C33 		strd	r3, r3, [sp, #368]
 2417 0542 CDE95F12 		strd	r1, r2, [sp, #380]
 2418 0546 5E93     		str	r3, [sp, #376]
 2419 0548 6193     		str	r3, [sp, #388]
 604:../../Middlewares/AI_Runtime/Npu/ll_aton/ll_sw_float.c ****   }
 2420              		.loc 1 604 5 is_stmt 1 view .LVU634
 2421 054a FFF7FEFF 		bl	forward_soft_plus
 2422              	.LVL116:
 2423              	.LBE39:
 606:../../Middlewares/AI_Runtime/Npu/ll_aton/ll_sw_float.c ****   case LL_SW_SOFTSIGN:
 2424              		.loc 1 606 3 view .LVU635
 2425 054e 21E6     		b	.L31
 2426              	.L73:
 2427              		.align	2
 2428              	.L72:
 2429 0550 07010200 		.word	131335
 2430 0554 00000000 		.word	forward_elu
 2431 0558 00000000 		.word	forward_relu_thresholded
 2432 055c 00000000 		.word	forward_selu
 2433 0560 00000000 		.word	forward_ceil
 2434 0564 00000000 		.word	forward_floor
 2435 0568 00000000 		.word	forward_exp
 2436 056c 00000000 		.word	forward_log
 2437 0570 00000000 		.word	forward_acos
 2438 0574 00000000 		.word	forward_acosh
 2439 0578 00000000 		.word	forward_asin
 2440 057c 00000000 		.word	forward_asinh
 2441 0580 00000000 		.word	forward_atan
 2442 0584 00000000 		.word	forward_atanh
 2443 0588 00000000 		.word	forward_cos
 2444 058c 00000000 		.word	forward_cosh
 2445 0590 00000000 		.word	forward_sin
 2446 0594 00000000 		.word	forward_sinh
 2447 0598 00000000 		.word	forward_tanh
 2448 059c 00000000 		.word	forward_tan
 2449 05a0 00000000 		.word	forward_sigmoid
 2450 05a4 00000000 		.word	forward_sqrt
 2451 05a8 00000000 		.word	forward_erf
 2452 05ac 00000000 		.word	forward_soft_plus
 2453              	.LVL117:
 2454              	.L38:
 2455              	.LBB40:
 609:../../Middlewares/AI_Runtime/Npu/ll_aton/ll_sw_float.c ****                          .nl_params = NULL, )
 2456              		.loc 1 609 5 view .LVU636
 2457 05b0 4549     		ldr	r1, .L74
 611:../../Middlewares/AI_Runtime/Npu/ll_aton/ll_sw_float.c ****   }
 2458              		.loc 1 611 5 is_stmt 0 view .LVU637
 2459 05b2 5AA8     		add	r0, sp, #360
 2460              	.LVL118:
 609:../../Middlewares/AI_Runtime/Npu/ll_aton/ll_sw_float.c ****                          .nl_params = NULL, )
 2461              		.loc 1 609 5 view .LVU638
 2462 05b4 CDE95A13 		strd	r1, r3, [sp, #360]
ARM GAS  C:\Users\Antonio\AppData\Local\Temp\cc6EBOZH.s 			page 63


 2463 05b8 4449     		ldr	r1, .L74+4
 2464 05ba CDE95C33 		strd	r3, r3, [sp, #368]
 2465 05be CDE95F12 		strd	r1, r2, [sp, #380]
 2466 05c2 5E93     		str	r3, [sp, #376]
 2467 05c4 6193     		str	r3, [sp, #388]
 611:../../Middlewares/AI_Runtime/Npu/ll_aton/ll_sw_float.c ****   }
 2468              		.loc 1 611 5 is_stmt 1 view .LVU639
 2469 05c6 FFF7FEFF 		bl	forward_soft_sign
 2470              	.LVL119:
 2471              	.LBE40:
 613:../../Middlewares/AI_Runtime/Npu/ll_aton/ll_sw_float.c ****   case LL_SW_HARDSIGMOID:
 2472              		.loc 1 613 3 view .LVU640
 2473 05ca E3E5     		b	.L31
 2474              	.LVL120:
 2475              	.L43:
 2476              	.LBB41:
 616:../../Middlewares/AI_Runtime/Npu/ll_aton/ll_sw_float.c ****                                 sw_info->beta)
 2477              		.loc 1 616 5 view .LVU641
 2478 05cc 0223     		movs	r3, #2
 2479 05ce 4793     		str	r3, [sp, #284]
 2480 05d0 D0F88830 		ldr	r3, [r0, #136]	@ float
 2481 05d4 4691     		str	r1, [sp, #280]
 2482 05d6 3F93     		str	r3, [sp, #252]	@ float
 2483 05d8 D0F88C30 		ldr	r3, [r0, #140]	@ float
 618:../../Middlewares/AI_Runtime/Npu/ll_aton/ll_sw_float.c ****                          , .nl_params = AI_ARRAY_OBJ(&hard_sigmoid_layer_params), )
 2484              		.loc 1 618 5 is_stmt 0 view .LVU642
 2485 05dc 3A49     		ldr	r1, .L74
 616:../../Middlewares/AI_Runtime/Npu/ll_aton/ll_sw_float.c ****                                 sw_info->beta)
 2486              		.loc 1 616 5 view .LVU643
 2487 05de 4093     		str	r3, [sp, #256]	@ float
 2488 05e0 3FAB     		add	r3, sp, #252
 2489 05e2 4893     		str	r3, [sp, #288]
 2490 05e4 0023     		movs	r3, #0
 618:../../Middlewares/AI_Runtime/Npu/ll_aton/ll_sw_float.c ****                          , .nl_params = AI_ARRAY_OBJ(&hard_sigmoid_layer_params), )
 2491              		.loc 1 618 5 view .LVU644
 2492 05e6 CDE95A13 		strd	r1, r3, [sp, #360]
 2493 05ea CDE95C33 		strd	r3, r3, [sp, #368]
 616:../../Middlewares/AI_Runtime/Npu/ll_aton/ll_sw_float.c ****                                 sw_info->beta)
 2494              		.loc 1 616 5 view .LVU645
 2495 05ee 4993     		str	r3, [sp, #292]
 618:../../Middlewares/AI_Runtime/Npu/ll_aton/ll_sw_float.c ****                          , .nl_params = AI_ARRAY_OBJ(&hard_sigmoid_layer_params), )
 2496              		.loc 1 618 5 is_stmt 1 view .LVU646
 2497 05f0 5E93     		str	r3, [sp, #376]
 2498 05f2 374B     		ldr	r3, .L74+8
 620:../../Middlewares/AI_Runtime/Npu/ll_aton/ll_sw_float.c ****   }
 2499              		.loc 1 620 5 is_stmt 0 view .LVU647
 2500 05f4 5AA8     		add	r0, sp, #360
 2501              	.LVL121:
 618:../../Middlewares/AI_Runtime/Npu/ll_aton/ll_sw_float.c ****                          , .nl_params = AI_ARRAY_OBJ(&hard_sigmoid_layer_params), )
 2502              		.loc 1 618 5 view .LVU648
 2503 05f6 CDE95F32 		strd	r3, r2, [sp, #380]
 2504 05fa 46AB     		add	r3, sp, #280
 2505 05fc 6193     		str	r3, [sp, #388]
 620:../../Middlewares/AI_Runtime/Npu/ll_aton/ll_sw_float.c ****   }
 2506              		.loc 1 620 5 is_stmt 1 view .LVU649
 2507 05fe FFF7FEFF 		bl	forward_hard_sigmoid
 2508              	.LVL122:
ARM GAS  C:\Users\Antonio\AppData\Local\Temp\cc6EBOZH.s 			page 64


 2509              	.LBE41:
 622:../../Middlewares/AI_Runtime/Npu/ll_aton/ll_sw_float.c ****   case LL_SW_SWISH:
 2510              		.loc 1 622 3 view .LVU650
 2511 0602 C7E5     		b	.L31
 2512              	.LVL123:
 2513              	.L40:
 2514              	.LBB42:
 625:../../Middlewares/AI_Runtime/Npu/ll_aton/ll_sw_float.c ****                          .nl_params = NULL, )
 2515              		.loc 1 625 5 view .LVU651
 2516 0604 3049     		ldr	r1, .L74
 627:../../Middlewares/AI_Runtime/Npu/ll_aton/ll_sw_float.c ****   }
 2517              		.loc 1 627 5 is_stmt 0 view .LVU652
 2518 0606 5AA8     		add	r0, sp, #360
 2519              	.LVL124:
 625:../../Middlewares/AI_Runtime/Npu/ll_aton/ll_sw_float.c ****                          .nl_params = NULL, )
 2520              		.loc 1 625 5 view .LVU653
 2521 0608 CDE95A13 		strd	r1, r3, [sp, #360]
 2522 060c 3149     		ldr	r1, .L74+12
 2523 060e CDE95C33 		strd	r3, r3, [sp, #368]
 2524 0612 CDE95F12 		strd	r1, r2, [sp, #380]
 2525 0616 5E93     		str	r3, [sp, #376]
 2526 0618 6193     		str	r3, [sp, #388]
 627:../../Middlewares/AI_Runtime/Npu/ll_aton/ll_sw_float.c ****   }
 2527              		.loc 1 627 5 is_stmt 1 view .LVU654
 2528 061a FFF7FEFF 		bl	forward_swish
 2529              	.LVL125:
 2530              	.LBE42:
 629:../../Middlewares/AI_Runtime/Npu/ll_aton/ll_sw_float.c ****   case LL_SW_HARDSWISH:
 2531              		.loc 1 629 3 view .LVU655
 2532 061e B9E5     		b	.L31
 2533              	.LVL126:
 2534              	.L41:
 2535              	.LBB43:
 632:../../Middlewares/AI_Runtime/Npu/ll_aton/ll_sw_float.c ****                          .nl_params = NULL, )
 2536              		.loc 1 632 5 view .LVU656
 2537 0620 2949     		ldr	r1, .L74
 634:../../Middlewares/AI_Runtime/Npu/ll_aton/ll_sw_float.c ****   }
 2538              		.loc 1 634 5 is_stmt 0 view .LVU657
 2539 0622 5AA8     		add	r0, sp, #360
 2540              	.LVL127:
 632:../../Middlewares/AI_Runtime/Npu/ll_aton/ll_sw_float.c ****                          .nl_params = NULL, )
 2541              		.loc 1 632 5 view .LVU658
 2542 0624 CDE95A13 		strd	r1, r3, [sp, #360]
 2543 0628 2B49     		ldr	r1, .L74+16
 2544 062a CDE95C33 		strd	r3, r3, [sp, #368]
 2545 062e CDE95F12 		strd	r1, r2, [sp, #380]
 2546 0632 5E93     		str	r3, [sp, #376]
 2547 0634 6193     		str	r3, [sp, #388]
 634:../../Middlewares/AI_Runtime/Npu/ll_aton/ll_sw_float.c ****   }
 2548              		.loc 1 634 5 is_stmt 1 view .LVU659
 2549 0636 FFF7FEFF 		bl	forward_hard_swish
 2550              	.LVL128:
 2551              	.LBE43:
 636:../../Middlewares/AI_Runtime/Npu/ll_aton/ll_sw_float.c ****   case LL_SW_HARDMAX:
 2552              		.loc 1 636 3 view .LVU660
 2553 063a ABE5     		b	.L31
 2554              	.LVL129:
ARM GAS  C:\Users\Antonio\AppData\Local\Temp\cc6EBOZH.s 			page 65


 2555              	.L42:
 2556              	.LBB44:
 639:../../Middlewares/AI_Runtime/Npu/ll_aton/ll_sw_float.c ****                          .nl_params = NULL, )
 2557              		.loc 1 639 5 view .LVU661
 2558 063c 2249     		ldr	r1, .L74
 641:../../Middlewares/AI_Runtime/Npu/ll_aton/ll_sw_float.c ****   }
 2559              		.loc 1 641 5 is_stmt 0 view .LVU662
 2560 063e 5AA8     		add	r0, sp, #360
 2561              	.LVL130:
 639:../../Middlewares/AI_Runtime/Npu/ll_aton/ll_sw_float.c ****                          .nl_params = NULL, )
 2562              		.loc 1 639 5 view .LVU663
 2563 0640 CDE95A13 		strd	r1, r3, [sp, #360]
 2564 0644 2549     		ldr	r1, .L74+20
 2565 0646 CDE95C33 		strd	r3, r3, [sp, #368]
 2566 064a CDE95F12 		strd	r1, r2, [sp, #380]
 2567 064e 5E93     		str	r3, [sp, #376]
 2568 0650 6193     		str	r3, [sp, #388]
 641:../../Middlewares/AI_Runtime/Npu/ll_aton/ll_sw_float.c ****   }
 2569              		.loc 1 641 5 is_stmt 1 view .LVU664
 2570 0652 FFF7FEFF 		bl	forward_hardmax
 2571              	.LVL131:
 2572              	.LBE44:
 643:../../Middlewares/AI_Runtime/Npu/ll_aton/ll_sw_float.c ****   case LL_SW_ABS:
 2573              		.loc 1 643 3 view .LVU665
 2574 0656 9DE5     		b	.L31
 2575              	.LVL132:
 2576              	.L39:
 2577              	.LBB45:
 646:../../Middlewares/AI_Runtime/Npu/ll_aton/ll_sw_float.c ****                          .nl_params = NULL, )
 2578              		.loc 1 646 5 view .LVU666
 2579 0658 1B49     		ldr	r1, .L74
 648:../../Middlewares/AI_Runtime/Npu/ll_aton/ll_sw_float.c ****   }
 2580              		.loc 1 648 5 is_stmt 0 view .LVU667
 2581 065a 5AA8     		add	r0, sp, #360
 2582              	.LVL133:
 646:../../Middlewares/AI_Runtime/Npu/ll_aton/ll_sw_float.c ****                          .nl_params = NULL, )
 2583              		.loc 1 646 5 view .LVU668
 2584 065c CDE95A13 		strd	r1, r3, [sp, #360]
 2585 0660 1F49     		ldr	r1, .L74+24
 2586 0662 CDE95C33 		strd	r3, r3, [sp, #368]
 2587 0666 CDE95F12 		strd	r1, r2, [sp, #380]
 2588 066a 5E93     		str	r3, [sp, #376]
 2589 066c 6193     		str	r3, [sp, #388]
 648:../../Middlewares/AI_Runtime/Npu/ll_aton/ll_sw_float.c ****   }
 2590              		.loc 1 648 5 is_stmt 1 view .LVU669
 2591 066e FFF7FEFF 		bl	forward_abs
 2592              	.LVL134:
 2593              	.LBE45:
 650:../../Middlewares/AI_Runtime/Npu/ll_aton/ll_sw_float.c ****   case LL_SW_NEG:
 2594              		.loc 1 650 3 view .LVU670
 2595 0672 8FE5     		b	.L31
 2596              	.LVL135:
 2597              	.L36:
 2598              	.LBB46:
 653:../../Middlewares/AI_Runtime/Npu/ll_aton/ll_sw_float.c ****                          .nl_params = NULL, )
 2599              		.loc 1 653 5 view .LVU671
 2600 0674 1449     		ldr	r1, .L74
ARM GAS  C:\Users\Antonio\AppData\Local\Temp\cc6EBOZH.s 			page 66


 655:../../Middlewares/AI_Runtime/Npu/ll_aton/ll_sw_float.c ****   }
 2601              		.loc 1 655 5 is_stmt 0 view .LVU672
 2602 0676 5AA8     		add	r0, sp, #360
 2603              	.LVL136:
 653:../../Middlewares/AI_Runtime/Npu/ll_aton/ll_sw_float.c ****                          .nl_params = NULL, )
 2604              		.loc 1 653 5 view .LVU673
 2605 0678 CDE95A13 		strd	r1, r3, [sp, #360]
 2606 067c 1949     		ldr	r1, .L74+28
 2607 067e CDE95C33 		strd	r3, r3, [sp, #368]
 2608 0682 CDE95F12 		strd	r1, r2, [sp, #380]
 2609 0686 5E93     		str	r3, [sp, #376]
 2610 0688 6193     		str	r3, [sp, #388]
 655:../../Middlewares/AI_Runtime/Npu/ll_aton/ll_sw_float.c ****   }
 2611              		.loc 1 655 5 is_stmt 1 view .LVU674
 2612 068a FFF7FEFF 		bl	forward_neg
 2613              	.LVL137:
 2614              	.LBE46:
 657:../../Middlewares/AI_Runtime/Npu/ll_aton/ll_sw_float.c ****   case LL_SW_RECIPROCAL:
 2615              		.loc 1 657 3 view .LVU675
 2616 068e 81E5     		b	.L31
 2617              	.LVL138:
 2618              	.L35:
 2619              	.LBB47:
 660:../../Middlewares/AI_Runtime/Npu/ll_aton/ll_sw_float.c ****                          .nl_params = NULL, )
 2620              		.loc 1 660 5 view .LVU676
 2621 0690 0D49     		ldr	r1, .L74
 662:../../Middlewares/AI_Runtime/Npu/ll_aton/ll_sw_float.c ****   }
 2622              		.loc 1 662 5 is_stmt 0 view .LVU677
 2623 0692 5AA8     		add	r0, sp, #360
 2624              	.LVL139:
 660:../../Middlewares/AI_Runtime/Npu/ll_aton/ll_sw_float.c ****                          .nl_params = NULL, )
 2625              		.loc 1 660 5 view .LVU678
 2626 0694 CDE95A13 		strd	r1, r3, [sp, #360]
 2627 0698 1349     		ldr	r1, .L74+32
 2628 069a CDE95C33 		strd	r3, r3, [sp, #368]
 2629 069e CDE95F12 		strd	r1, r2, [sp, #380]
 2630 06a2 5E93     		str	r3, [sp, #376]
 2631 06a4 6193     		str	r3, [sp, #388]
 662:../../Middlewares/AI_Runtime/Npu/ll_aton/ll_sw_float.c ****   }
 2632              		.loc 1 662 5 is_stmt 1 view .LVU679
 2633 06a6 FFF7FEFF 		bl	forward_reciprocal
 2634              	.LVL140:
 2635              	.LBE47:
 664:../../Middlewares/AI_Runtime/Npu/ll_aton/ll_sw_float.c ****   case LL_SW_ROUND:
 2636              		.loc 1 664 3 view .LVU680
 2637 06aa 73E5     		b	.L31
 2638              	.LVL141:
 2639              	.L33:
 2640              	.LBB48:
 667:../../Middlewares/AI_Runtime/Npu/ll_aton/ll_sw_float.c ****                          .nl_params = NULL, )
 2641              		.loc 1 667 5 view .LVU681
 2642 06ac 0649     		ldr	r1, .L74
 669:../../Middlewares/AI_Runtime/Npu/ll_aton/ll_sw_float.c ****   }
 2643              		.loc 1 669 5 is_stmt 0 view .LVU682
 2644 06ae 5AA8     		add	r0, sp, #360
 2645              	.LVL142:
 667:../../Middlewares/AI_Runtime/Npu/ll_aton/ll_sw_float.c ****                          .nl_params = NULL, )
ARM GAS  C:\Users\Antonio\AppData\Local\Temp\cc6EBOZH.s 			page 67


 2646              		.loc 1 667 5 view .LVU683
 2647 06b0 CDE95A13 		strd	r1, r3, [sp, #360]
 2648 06b4 0D49     		ldr	r1, .L74+36
 2649 06b6 CDE95C33 		strd	r3, r3, [sp, #368]
 2650 06ba CDE95F12 		strd	r1, r2, [sp, #380]
 2651 06be 5E93     		str	r3, [sp, #376]
 2652 06c0 6193     		str	r3, [sp, #388]
 669:../../Middlewares/AI_Runtime/Npu/ll_aton/ll_sw_float.c ****   }
 2653              		.loc 1 669 5 is_stmt 1 view .LVU684
 2654 06c2 FFF7FEFF 		bl	forward_round
 2655              	.LVL143:
 2656              	.LBE48:
 671:../../Middlewares/AI_Runtime/Npu/ll_aton/ll_sw_float.c ****   default:
 2657              		.loc 1 671 3 view .LVU685
 2658              		.loc 1 678 1 is_stmt 0 view .LVU686
 2659 06c6 65E5     		b	.L31
 2660              	.L75:
 2661              		.align	2
 2662              	.L74:
 2663 06c8 07010200 		.word	131335
 2664 06cc 00000000 		.word	forward_soft_sign
 2665 06d0 00000000 		.word	forward_hard_sigmoid
 2666 06d4 00000000 		.word	forward_swish
 2667 06d8 00000000 		.word	forward_hard_swish
 2668 06dc 00000000 		.word	forward_hardmax
 2669 06e0 00000000 		.word	forward_abs
 2670 06e4 00000000 		.word	forward_neg
 2671 06e8 00000000 		.word	forward_reciprocal
 2672 06ec 00000000 		.word	forward_round
 2673              		.cfi_endproc
 2674              	.LFE20:
 2676              		.section	.text.ll_sw_forward_arith,"ax",%progbits
 2677              		.align	1
 2678              		.global	ll_sw_forward_arith
 2679              		.syntax unified
 2680              		.thumb
 2681              		.thumb_func
 2683              	ll_sw_forward_arith:
 2684              	.LVL144:
 2685              	.LFB21:
 679:../../Middlewares/AI_Runtime/Npu/ll_aton/ll_sw_float.c **** 
 680:../../Middlewares/AI_Runtime/Npu/ll_aton/ll_sw_float.c **** //##########################################################################################
 681:../../Middlewares/AI_Runtime/Npu/ll_aton/ll_sw_float.c **** /** activ forward function  */
 682:../../Middlewares/AI_Runtime/Npu/ll_aton/ll_sw_float.c **** void ll_sw_forward_arith(/* int processor, */ void *sw_info_struct)
 683:../../Middlewares/AI_Runtime/Npu/ll_aton/ll_sw_float.c **** {
 2686              		.loc 1 683 1 is_stmt 1 view -0
 2687              		.cfi_startproc
 2688              		@ args = 0, pretend = 0, frame = 504
 2689              		@ frame_needed = 0, uses_anonymous_args = 0
 684:../../Middlewares/AI_Runtime/Npu/ll_aton/ll_sw_float.c ****   Arith_sw_info *sw_info = (Arith_sw_info *)sw_info_struct;
 2690              		.loc 1 684 3 view .LVU688
 685:../../Middlewares/AI_Runtime/Npu/ll_aton/ll_sw_float.c ****   // array init
