ARM GAS  C:\Users\Antonio\AppData\Local\Temp\cccQQj0s.s 			page 1


   1              		.arch armv8.1-m.main
   2              		.fpu fpv5-d16
   3              		.arch_extension dsp
   4              		.arch_extension fp
   5              		.arch_extension fp.dp
   6              		.arch_extension mve
   7              		.arch_extension mve.fp
   8              		.eabi_attribute 5, "cortex-m55"
   9              		.eabi_attribute 28, 1
  10              		.eabi_attribute 20, 1
  11              		.eabi_attribute 21, 1
  12              		.eabi_attribute 23, 3
  13              		.eabi_attribute 24, 1
  14              		.eabi_attribute 25, 1
  15              		.eabi_attribute 26, 1
  16              		.eabi_attribute 30, 4
  17              		.eabi_attribute 34, 1
  18              		.eabi_attribute 38, 1
  19              		.eabi_attribute 18, 4
  20              		.file	"mpe_pp_yolov8.c"
  21              		.text
  22              	.Ltext0:
  23              		.cfi_sections	.debug_frame
  24              		.file 1 "../../Middlewares/lib_vision_models_pp/lib_vision_models_pp/Src/mpe_pp_yolov8.c"
  25              		.section	.text.mpe_yolov8_nms_comparator,"ax",%progbits
  26              		.align	1
  27              		.global	mpe_yolov8_nms_comparator
  28              		.syntax unified
  29              		.thumb
  30              		.thumb_func
  32              	mpe_yolov8_nms_comparator:
  33              	.LVL0:
  34              	.LFB2645:
   1:../../Middlewares/lib_vision_models_pp/lib_vision_models_pp/Src/mpe_pp_yolov8.c **** /*---------------------------------------------------------------------------------------------
   2:../../Middlewares/lib_vision_models_pp/lib_vision_models_pp/Src/mpe_pp_yolov8.c ****  * Copyright (c) 2023 STMicroelectronics.
   3:../../Middlewares/lib_vision_models_pp/lib_vision_models_pp/Src/mpe_pp_yolov8.c ****  * All rights reserved.
   4:../../Middlewares/lib_vision_models_pp/lib_vision_models_pp/Src/mpe_pp_yolov8.c ****  *
   5:../../Middlewares/lib_vision_models_pp/lib_vision_models_pp/Src/mpe_pp_yolov8.c ****  * This software is licensed under terms that can be found in the LICENSE file in
   6:../../Middlewares/lib_vision_models_pp/lib_vision_models_pp/Src/mpe_pp_yolov8.c ****  * the root directory of this software component.
   7:../../Middlewares/lib_vision_models_pp/lib_vision_models_pp/Src/mpe_pp_yolov8.c ****  * If no LICENSE file comes with this software, it is provided AS-IS.
   8:../../Middlewares/lib_vision_models_pp/lib_vision_models_pp/Src/mpe_pp_yolov8.c ****  *--------------------------------------------------------------------------------------------*/
   9:../../Middlewares/lib_vision_models_pp/lib_vision_models_pp/Src/mpe_pp_yolov8.c **** 
  10:../../Middlewares/lib_vision_models_pp/lib_vision_models_pp/Src/mpe_pp_yolov8.c **** #include "od_pp_loc.h"
  11:../../Middlewares/lib_vision_models_pp/lib_vision_models_pp/Src/mpe_pp_yolov8.c **** #include "mpe_yolov8_pp_if.h"
  12:../../Middlewares/lib_vision_models_pp/lib_vision_models_pp/Src/mpe_pp_yolov8.c **** #include "vision_models_pp.h"
  13:../../Middlewares/lib_vision_models_pp/lib_vision_models_pp/Src/mpe_pp_yolov8.c **** 
  14:../../Middlewares/lib_vision_models_pp/lib_vision_models_pp/Src/mpe_pp_yolov8.c **** 
  15:../../Middlewares/lib_vision_models_pp/lib_vision_models_pp/Src/mpe_pp_yolov8.c **** /* Can't be removed if qsort is not re-written... */
  16:../../Middlewares/lib_vision_models_pp/lib_vision_models_pp/Src/mpe_pp_yolov8.c **** static int32_t AI_YOLOV8_POSE_PP_SORT_CLASS;
  17:../../Middlewares/lib_vision_models_pp/lib_vision_models_pp/Src/mpe_pp_yolov8.c **** 
  18:../../Middlewares/lib_vision_models_pp/lib_vision_models_pp/Src/mpe_pp_yolov8.c **** 
  19:../../Middlewares/lib_vision_models_pp/lib_vision_models_pp/Src/mpe_pp_yolov8.c **** int32_t mpe_yolov8_nms_comparator(const void *pa, const void *pb)
  20:../../Middlewares/lib_vision_models_pp/lib_vision_models_pp/Src/mpe_pp_yolov8.c **** {
  35              		.loc 1 20 1 view -0
  36              		.cfi_startproc
  37              		@ args = 0, pretend = 0, frame = 0
  38              		@ frame_needed = 0, uses_anonymous_args = 0
ARM GAS  C:\Users\Antonio\AppData\Local\Temp\cccQQj0s.s 			page 2


  21:../../Middlewares/lib_vision_models_pp/lib_vision_models_pp/Src/mpe_pp_yolov8.c ****     mpe_pp_outBuffer_t a = *(mpe_pp_outBuffer_t *)pa;
  39              		.loc 1 21 5 view .LVU1
  22:../../Middlewares/lib_vision_models_pp/lib_vision_models_pp/Src/mpe_pp_yolov8.c ****     mpe_pp_outBuffer_t b = *(mpe_pp_outBuffer_t *)pb;
  40              		.loc 1 22 5 view .LVU2
  23:../../Middlewares/lib_vision_models_pp/lib_vision_models_pp/Src/mpe_pp_yolov8.c **** 
  24:../../Middlewares/lib_vision_models_pp/lib_vision_models_pp/Src/mpe_pp_yolov8.c ****     float32_t diff = 0.0;
  25:../../Middlewares/lib_vision_models_pp/lib_vision_models_pp/Src/mpe_pp_yolov8.c ****     float32_t a_weighted_conf = 0.0;
  26:../../Middlewares/lib_vision_models_pp/lib_vision_models_pp/Src/mpe_pp_yolov8.c ****     float32_t b_weighted_conf = 0.0;
  27:../../Middlewares/lib_vision_models_pp/lib_vision_models_pp/Src/mpe_pp_yolov8.c **** 
  28:../../Middlewares/lib_vision_models_pp/lib_vision_models_pp/Src/mpe_pp_yolov8.c ****     if (a.class_index == AI_YOLOV8_POSE_PP_SORT_CLASS)
  41              		.loc 1 28 23 is_stmt 0 view .LVU3
  42 0000 0F4B     		ldr	r3, .L8
  20:../../Middlewares/lib_vision_models_pp/lib_vision_models_pp/Src/mpe_pp_yolov8.c ****     mpe_pp_outBuffer_t a = *(mpe_pp_outBuffer_t *)pa;
  43              		.loc 1 20 1 view .LVU4
  44 0002 10B5     		push	{r4, lr}
  45              		.cfi_def_cfa_offset 8
  46              		.cfi_offset 4, -8
  47              		.cfi_offset 14, -4
  48              		.loc 1 28 23 view .LVU5
  49 0004 1B68     		ldr	r3, [r3]
  50              		.loc 1 28 8 view .LVU6
  51 0006 4469     		ldr	r4, [r0, #20]
  22:../../Middlewares/lib_vision_models_pp/lib_vision_models_pp/Src/mpe_pp_yolov8.c ****     mpe_pp_outBuffer_t b = *(mpe_pp_outBuffer_t *)pb;
  52              		.loc 1 22 24 view .LVU7
  53 0008 4A69     		ldr	r2, [r1, #20]
  54              	.LVL1:
  24:../../Middlewares/lib_vision_models_pp/lib_vision_models_pp/Src/mpe_pp_yolov8.c ****     float32_t a_weighted_conf = 0.0;
  55              		.loc 1 24 5 is_stmt 1 view .LVU8
  25:../../Middlewares/lib_vision_models_pp/lib_vision_models_pp/Src/mpe_pp_yolov8.c ****     float32_t b_weighted_conf = 0.0;
  56              		.loc 1 25 5 view .LVU9
  26:../../Middlewares/lib_vision_models_pp/lib_vision_models_pp/Src/mpe_pp_yolov8.c **** 
  57              		.loc 1 26 5 view .LVU10
  58              		.loc 1 28 5 view .LVU11
  59              		.loc 1 28 8 is_stmt 0 view .LVU12
  60 000a A342     		cmp	r3, r4
  21:../../Middlewares/lib_vision_models_pp/lib_vision_models_pp/Src/mpe_pp_yolov8.c ****     mpe_pp_outBuffer_t b = *(mpe_pp_outBuffer_t *)pb;
  61              		.loc 1 21 24 view .LVU13
  62 000c 0CBF     		ite	eq
  63 000e D0ED047A 		vldreq.32	s15, [r0, #16]
  29:../../Middlewares/lib_vision_models_pp/lib_vision_models_pp/Src/mpe_pp_yolov8.c ****     {
  30:../../Middlewares/lib_vision_models_pp/lib_vision_models_pp/Src/mpe_pp_yolov8.c ****         a_weighted_conf = a.conf;
  64              		.loc 1 30 9 is_stmt 1 view .LVU14
  65              	.LVL2:
  31:../../Middlewares/lib_vision_models_pp/lib_vision_models_pp/Src/mpe_pp_yolov8.c ****     }
  32:../../Middlewares/lib_vision_models_pp/lib_vision_models_pp/Src/mpe_pp_yolov8.c ****     else
  33:../../Middlewares/lib_vision_models_pp/lib_vision_models_pp/Src/mpe_pp_yolov8.c ****     {
  34:../../Middlewares/lib_vision_models_pp/lib_vision_models_pp/Src/mpe_pp_yolov8.c ****          a_weighted_conf = 0.0;
  66              		.loc 1 34 26 is_stmt 0 view .LVU15
  67 0012 DFED0C7A 		vldrne.32	s15, .L8+4
  68              	.LVL3:
  35:../../Middlewares/lib_vision_models_pp/lib_vision_models_pp/Src/mpe_pp_yolov8.c ****     }
  36:../../Middlewares/lib_vision_models_pp/lib_vision_models_pp/Src/mpe_pp_yolov8.c **** 
  37:../../Middlewares/lib_vision_models_pp/lib_vision_models_pp/Src/mpe_pp_yolov8.c ****     if (b.class_index == AI_YOLOV8_POSE_PP_SORT_CLASS)
  69              		.loc 1 37 5 is_stmt 1 view .LVU16
  70              		.loc 1 37 8 is_stmt 0 view .LVU17
  71 0016 9342     		cmp	r3, r2
  22:../../Middlewares/lib_vision_models_pp/lib_vision_models_pp/Src/mpe_pp_yolov8.c **** 
ARM GAS  C:\Users\Antonio\AppData\Local\Temp\cccQQj0s.s 			page 3


  72              		.loc 1 22 24 view .LVU18
  73 0018 0CBF     		ite	eq
  74 001a 91ED047A 		vldreq.32	s14, [r1, #16]
  38:../../Middlewares/lib_vision_models_pp/lib_vision_models_pp/Src/mpe_pp_yolov8.c ****     {
  39:../../Middlewares/lib_vision_models_pp/lib_vision_models_pp/Src/mpe_pp_yolov8.c ****         b_weighted_conf = b.conf;
  75              		.loc 1 39 9 is_stmt 1 view .LVU19
  76              	.LVL4:
  40:../../Middlewares/lib_vision_models_pp/lib_vision_models_pp/Src/mpe_pp_yolov8.c ****     }
  41:../../Middlewares/lib_vision_models_pp/lib_vision_models_pp/Src/mpe_pp_yolov8.c ****     else
  42:../../Middlewares/lib_vision_models_pp/lib_vision_models_pp/Src/mpe_pp_yolov8.c ****     {
  43:../../Middlewares/lib_vision_models_pp/lib_vision_models_pp/Src/mpe_pp_yolov8.c ****          b_weighted_conf = 0.0;
  77              		.loc 1 43 26 is_stmt 0 view .LVU20
  78 001e 9FED097A 		vldrne.32	s14, .L8+4
  79              	.LVL5:
  44:../../Middlewares/lib_vision_models_pp/lib_vision_models_pp/Src/mpe_pp_yolov8.c ****     }
  45:../../Middlewares/lib_vision_models_pp/lib_vision_models_pp/Src/mpe_pp_yolov8.c **** 
  46:../../Middlewares/lib_vision_models_pp/lib_vision_models_pp/Src/mpe_pp_yolov8.c ****     diff = a_weighted_conf - b_weighted_conf;
  80              		.loc 1 46 5 is_stmt 1 view .LVU21
  81              		.loc 1 46 10 is_stmt 0 view .LVU22
  82 0022 77EEC77A 		vsub.f32	s15, s15, s14
  83              	.LVL6:
  47:../../Middlewares/lib_vision_models_pp/lib_vision_models_pp/Src/mpe_pp_yolov8.c **** 
  48:../../Middlewares/lib_vision_models_pp/lib_vision_models_pp/Src/mpe_pp_yolov8.c ****     if (diff < 0) return 1;
  84              		.loc 1 48 5 is_stmt 1 view .LVU23
  85              		.loc 1 48 8 is_stmt 0 view .LVU24
  86 0026 F5EEC07A 		vcmpe.f32	s15, #0
  87 002a F1EE10FA 		vmrs	APSR_nzcv, FPSCR
  88 002e 04D4     		bmi	.L7
  89              	.LVL7:
  49:../../Middlewares/lib_vision_models_pp/lib_vision_models_pp/Src/mpe_pp_yolov8.c ****     else if (diff > 0) return -1;
  90              		.loc 1 49 10 is_stmt 1 view .LVU25
  91              		.loc 1 49 13 is_stmt 0 view .LVU26
  92 0030 CCBF     		ite	gt
  93 0032 4FF0FF30 		movgt	r0, #-1
  94              	.LVL8:
  95              		.loc 1 49 13 view .LVU27
  96 0036 0020     		movle	r0, #0
  97              	.LVL9:
  98              	.L1:
  50:../../Middlewares/lib_vision_models_pp/lib_vision_models_pp/Src/mpe_pp_yolov8.c ****     return 0;
  51:../../Middlewares/lib_vision_models_pp/lib_vision_models_pp/Src/mpe_pp_yolov8.c **** }
  99              		.loc 1 51 1 view .LVU28
 100 0038 10BD     		pop	{r4, pc}
 101              	.LVL10:
 102              	.L7:
  48:../../Middlewares/lib_vision_models_pp/lib_vision_models_pp/Src/mpe_pp_yolov8.c ****     else if (diff > 0) return -1;
 103              		.loc 1 48 26 discriminator 1 view .LVU29
 104 003a 0120     		movs	r0, #1
 105              	.LVL11:
  48:../../Middlewares/lib_vision_models_pp/lib_vision_models_pp/Src/mpe_pp_yolov8.c ****     else if (diff > 0) return -1;
 106              		.loc 1 48 26 discriminator 1 view .LVU30
 107 003c FCE7     		b	.L1
 108              	.L9:
 109 003e 00BF     		.align	2
 110              	.L8:
 111 0040 00000000 		.word	AI_YOLOV8_POSE_PP_SORT_CLASS
 112 0044 00000000 		.word	0
ARM GAS  C:\Users\Antonio\AppData\Local\Temp\cccQQj0s.s 			page 4


 113              		.cfi_endproc
 114              	.LFE2645:
 116              		.section	.text.mpe_yolo_pp_nmsFiltering_centroid,"ax",%progbits
 117              		.align	1
 118              		.global	mpe_yolo_pp_nmsFiltering_centroid
 119              		.syntax unified
 120              		.thumb
 121              		.thumb_func
 123              	mpe_yolo_pp_nmsFiltering_centroid:
 124              	.LVL12:
 125              	.LFB2646:
  52:../../Middlewares/lib_vision_models_pp/lib_vision_models_pp/Src/mpe_pp_yolov8.c **** 
  53:../../Middlewares/lib_vision_models_pp/lib_vision_models_pp/Src/mpe_pp_yolov8.c **** 
  54:../../Middlewares/lib_vision_models_pp/lib_vision_models_pp/Src/mpe_pp_yolov8.c **** int32_t mpe_yolo_pp_nmsFiltering_centroid(mpe_pp_out_t *pOutput,
  55:../../Middlewares/lib_vision_models_pp/lib_vision_models_pp/Src/mpe_pp_yolov8.c ****                                         mpe_yolov8_pp_static_param_t *pInput_static_param)
  56:../../Middlewares/lib_vision_models_pp/lib_vision_models_pp/Src/mpe_pp_yolov8.c **** {
 126              		.loc 1 56 1 is_stmt 1 view -0
 127              		.cfi_startproc
 128              		@ args = 0, pretend = 0, frame = 8
 129              		@ frame_needed = 0, uses_anonymous_args = 0
  57:../../Middlewares/lib_vision_models_pp/lib_vision_models_pp/Src/mpe_pp_yolov8.c ****     int32_t j, k, limit_counter, detections_per_class;
 130              		.loc 1 57 5 view .LVU32
  58:../../Middlewares/lib_vision_models_pp/lib_vision_models_pp/Src/mpe_pp_yolov8.c **** 
  59:../../Middlewares/lib_vision_models_pp/lib_vision_models_pp/Src/mpe_pp_yolov8.c ****     for (k = 0; k < pInput_static_param->nb_classes; ++k)
 131              		.loc 1 59 5 view .LVU33
  56:../../Middlewares/lib_vision_models_pp/lib_vision_models_pp/Src/mpe_pp_yolov8.c ****     int32_t j, k, limit_counter, detections_per_class;
 132              		.loc 1 56 1 is_stmt 0 view .LVU34
 133 0000 2DE9F74F 		push	{r0, r1, r2, r4, r5, r6, r7, r8, r9, r10, fp, lr}
 134              		.cfi_def_cfa_offset 48
 135              		.cfi_offset 4, -36
 136              		.cfi_offset 5, -32
 137              		.cfi_offset 6, -28
 138              		.cfi_offset 7, -24
 139              		.cfi_offset 8, -20
 140              		.cfi_offset 9, -16
 141              		.cfi_offset 10, -12
 142              		.cfi_offset 11, -8
 143              		.cfi_offset 14, -4
  56:../../Middlewares/lib_vision_models_pp/lib_vision_models_pp/Src/mpe_pp_yolov8.c ****     int32_t j, k, limit_counter, detections_per_class;
 144              		.loc 1 56 1 view .LVU35
 145 0004 0546     		mov	r5, r0
 146 0006 0E46     		mov	r6, r1
 147              		.loc 1 59 12 view .LVU36
 148 0008 0027     		movs	r7, #0
 149              	.LBB2:
 150              	.LBB3:
 151              	.LBB4:
  60:../../Middlewares/lib_vision_models_pp/lib_vision_models_pp/Src/mpe_pp_yolov8.c ****     {
  61:../../Middlewares/lib_vision_models_pp/lib_vision_models_pp/Src/mpe_pp_yolov8.c ****         limit_counter = 0;
  62:../../Middlewares/lib_vision_models_pp/lib_vision_models_pp/Src/mpe_pp_yolov8.c ****         detections_per_class = 0;
  63:../../Middlewares/lib_vision_models_pp/lib_vision_models_pp/Src/mpe_pp_yolov8.c ****         AI_YOLOV8_POSE_PP_SORT_CLASS = k;
  64:../../Middlewares/lib_vision_models_pp/lib_vision_models_pp/Src/mpe_pp_yolov8.c **** 
  65:../../Middlewares/lib_vision_models_pp/lib_vision_models_pp/Src/mpe_pp_yolov8.c **** 
  66:../../Middlewares/lib_vision_models_pp/lib_vision_models_pp/Src/mpe_pp_yolov8.c ****         /* Counts the number of detections with class k */
  67:../../Middlewares/lib_vision_models_pp/lib_vision_models_pp/Src/mpe_pp_yolov8.c ****         for (int32_t i = 0; i < pInput_static_param->nb_detect ; i ++)
  68:../../Middlewares/lib_vision_models_pp/lib_vision_models_pp/Src/mpe_pp_yolov8.c ****         {
  69:../../Middlewares/lib_vision_models_pp/lib_vision_models_pp/Src/mpe_pp_yolov8.c ****             if(pOutput->pOutBuff[i].class_index == k)
ARM GAS  C:\Users\Antonio\AppData\Local\Temp\cccQQj0s.s 			page 5


  70:../../Middlewares/lib_vision_models_pp/lib_vision_models_pp/Src/mpe_pp_yolov8.c ****             {
  71:../../Middlewares/lib_vision_models_pp/lib_vision_models_pp/Src/mpe_pp_yolov8.c ****                 detections_per_class++;
  72:../../Middlewares/lib_vision_models_pp/lib_vision_models_pp/Src/mpe_pp_yolov8.c ****             }
  73:../../Middlewares/lib_vision_models_pp/lib_vision_models_pp/Src/mpe_pp_yolov8.c ****         }
  74:../../Middlewares/lib_vision_models_pp/lib_vision_models_pp/Src/mpe_pp_yolov8.c **** 
  75:../../Middlewares/lib_vision_models_pp/lib_vision_models_pp/Src/mpe_pp_yolov8.c ****         if (detections_per_class > 0)
  76:../../Middlewares/lib_vision_models_pp/lib_vision_models_pp/Src/mpe_pp_yolov8.c ****         {
  77:../../Middlewares/lib_vision_models_pp/lib_vision_models_pp/Src/mpe_pp_yolov8.c ****             /* Sorts detections based on class k */
  78:../../Middlewares/lib_vision_models_pp/lib_vision_models_pp/Src/mpe_pp_yolov8.c ****             qsort(pOutput->pOutBuff,
  79:../../Middlewares/lib_vision_models_pp/lib_vision_models_pp/Src/mpe_pp_yolov8.c ****                   pInput_static_param->nb_detect,
  80:../../Middlewares/lib_vision_models_pp/lib_vision_models_pp/Src/mpe_pp_yolov8.c ****                   sizeof(mpe_pp_outBuffer_t),
  81:../../Middlewares/lib_vision_models_pp/lib_vision_models_pp/Src/mpe_pp_yolov8.c ****                   mpe_yolov8_nms_comparator);
  82:../../Middlewares/lib_vision_models_pp/lib_vision_models_pp/Src/mpe_pp_yolov8.c **** 
  83:../../Middlewares/lib_vision_models_pp/lib_vision_models_pp/Src/mpe_pp_yolov8.c ****             for (int32_t i = 0; i < detections_per_class ; i ++)
  84:../../Middlewares/lib_vision_models_pp/lib_vision_models_pp/Src/mpe_pp_yolov8.c ****             {
  85:../../Middlewares/lib_vision_models_pp/lib_vision_models_pp/Src/mpe_pp_yolov8.c ****                 if (pOutput->pOutBuff[i].conf == 0) continue;
  86:../../Middlewares/lib_vision_models_pp/lib_vision_models_pp/Src/mpe_pp_yolov8.c ****                 float32_t *a = &(pOutput->pOutBuff[i].x_center);
  87:../../Middlewares/lib_vision_models_pp/lib_vision_models_pp/Src/mpe_pp_yolov8.c ****                 for (j = i + 1; j < detections_per_class; j ++)
  88:../../Middlewares/lib_vision_models_pp/lib_vision_models_pp/Src/mpe_pp_yolov8.c ****                 {
  89:../../Middlewares/lib_vision_models_pp/lib_vision_models_pp/Src/mpe_pp_yolov8.c ****                     float32_t *b = &(pOutput->pOutBuff[j].x_center);
  90:../../Middlewares/lib_vision_models_pp/lib_vision_models_pp/Src/mpe_pp_yolov8.c ****                     if (vision_models_box_iou(a, b) > pInput_static_param->iou_threshold)
  91:../../Middlewares/lib_vision_models_pp/lib_vision_models_pp/Src/mpe_pp_yolov8.c ****                     {
  92:../../Middlewares/lib_vision_models_pp/lib_vision_models_pp/Src/mpe_pp_yolov8.c ****                         pOutput->pOutBuff[j].conf = 0;
 152              		.loc 1 92 51 view .LVU37
 153 000a 4FF00008 		mov	r8, #0
 154              	.LVL13:
 155              	.L11:
 156              		.loc 1 92 51 view .LVU38
 157              	.LBE4:
 158              	.LBE3:
 159              	.LBE2:
  59:../../Middlewares/lib_vision_models_pp/lib_vision_models_pp/Src/mpe_pp_yolov8.c ****     {
 160              		.loc 1 59 19 is_stmt 1 discriminator 1 view .LVU39
 161 000e 3368     		ldr	r3, [r6]
 162 0010 BB42     		cmp	r3, r7
 163 0012 03DC     		bgt	.L28
  93:../../Middlewares/lib_vision_models_pp/lib_vision_models_pp/Src/mpe_pp_yolov8.c ****                     }
  94:../../Middlewares/lib_vision_models_pp/lib_vision_models_pp/Src/mpe_pp_yolov8.c ****                 }
  95:../../Middlewares/lib_vision_models_pp/lib_vision_models_pp/Src/mpe_pp_yolov8.c ****             }
  96:../../Middlewares/lib_vision_models_pp/lib_vision_models_pp/Src/mpe_pp_yolov8.c **** 
  97:../../Middlewares/lib_vision_models_pp/lib_vision_models_pp/Src/mpe_pp_yolov8.c ****             /* Limits detections count */
  98:../../Middlewares/lib_vision_models_pp/lib_vision_models_pp/Src/mpe_pp_yolov8.c ****             for (int32_t i = 0; i < detections_per_class; i++)
  99:../../Middlewares/lib_vision_models_pp/lib_vision_models_pp/Src/mpe_pp_yolov8.c ****             {
 100:../../Middlewares/lib_vision_models_pp/lib_vision_models_pp/Src/mpe_pp_yolov8.c ****                 if ((limit_counter < pInput_static_param->max_boxes_limit) &&
 101:../../Middlewares/lib_vision_models_pp/lib_vision_models_pp/Src/mpe_pp_yolov8.c ****                     (pOutput->pOutBuff[i].conf != 0))
 102:../../Middlewares/lib_vision_models_pp/lib_vision_models_pp/Src/mpe_pp_yolov8.c ****                 {
 103:../../Middlewares/lib_vision_models_pp/lib_vision_models_pp/Src/mpe_pp_yolov8.c ****                     limit_counter++;
 104:../../Middlewares/lib_vision_models_pp/lib_vision_models_pp/Src/mpe_pp_yolov8.c ****                 }
 105:../../Middlewares/lib_vision_models_pp/lib_vision_models_pp/Src/mpe_pp_yolov8.c ****                 else
 106:../../Middlewares/lib_vision_models_pp/lib_vision_models_pp/Src/mpe_pp_yolov8.c ****                 {
 107:../../Middlewares/lib_vision_models_pp/lib_vision_models_pp/Src/mpe_pp_yolov8.c ****                     pOutput->pOutBuff[i].conf = 0;
 108:../../Middlewares/lib_vision_models_pp/lib_vision_models_pp/Src/mpe_pp_yolov8.c ****                 }
 109:../../Middlewares/lib_vision_models_pp/lib_vision_models_pp/Src/mpe_pp_yolov8.c ****             }
 110:../../Middlewares/lib_vision_models_pp/lib_vision_models_pp/Src/mpe_pp_yolov8.c ****         }
 111:../../Middlewares/lib_vision_models_pp/lib_vision_models_pp/Src/mpe_pp_yolov8.c ****     }
 112:../../Middlewares/lib_vision_models_pp/lib_vision_models_pp/Src/mpe_pp_yolov8.c ****     return (AI_VISION_MODELS_PP_ERROR_NO);
 164              		.loc 1 112 5 view .LVU40
ARM GAS  C:\Users\Antonio\AppData\Local\Temp\cccQQj0s.s 			page 6


 113:../../Middlewares/lib_vision_models_pp/lib_vision_models_pp/Src/mpe_pp_yolov8.c **** }
 165              		.loc 1 113 1 is_stmt 0 view .LVU41
 166 0014 0020     		movs	r0, #0
 167 0016 03B0     		add	sp, sp, #12
 168              		.cfi_remember_state
 169              		.cfi_def_cfa_offset 36
 170              		@ sp needed
 171 0018 BDE8F08F 		pop	{r4, r5, r6, r7, r8, r9, r10, fp, pc}
 172              	.LVL14:
 173              	.L28:
 174              		.cfi_restore_state
  61:../../Middlewares/lib_vision_models_pp/lib_vision_models_pp/Src/mpe_pp_yolov8.c ****         detections_per_class = 0;
 175              		.loc 1 61 9 is_stmt 1 view .LVU42
  62:../../Middlewares/lib_vision_models_pp/lib_vision_models_pp/Src/mpe_pp_yolov8.c ****         AI_YOLOV8_POSE_PP_SORT_CLASS = k;
 176              		.loc 1 62 9 view .LVU43
  63:../../Middlewares/lib_vision_models_pp/lib_vision_models_pp/Src/mpe_pp_yolov8.c **** 
 177              		.loc 1 63 9 view .LVU44
 178              	.LBB9:
  67:../../Middlewares/lib_vision_models_pp/lib_vision_models_pp/Src/mpe_pp_yolov8.c ****         {
 179              		.loc 1 67 22 is_stmt 0 view .LVU45
 180 001c 0022     		movs	r2, #0
  67:../../Middlewares/lib_vision_models_pp/lib_vision_models_pp/Src/mpe_pp_yolov8.c ****         {
 181              		.loc 1 67 52 discriminator 1 view .LVU46
 182 001e 7169     		ldr	r1, [r6, #20]
 183              	.LBE9:
  63:../../Middlewares/lib_vision_models_pp/lib_vision_models_pp/Src/mpe_pp_yolov8.c **** 
 184              		.loc 1 63 38 view .LVU47
 185 0020 334B     		ldr	r3, .L34
 186 0022 9142     		cmp	r1, r2
 187 0024 1F60     		str	r7, [r3]
  67:../../Middlewares/lib_vision_models_pp/lib_vision_models_pp/Src/mpe_pp_yolov8.c ****         {
 188              		.loc 1 67 9 is_stmt 1 view .LVU48
 189              	.LBB10:
  67:../../Middlewares/lib_vision_models_pp/lib_vision_models_pp/Src/mpe_pp_yolov8.c ****         {
 190              		.loc 1 67 14 view .LVU49
 191              	.LVL15:
  67:../../Middlewares/lib_vision_models_pp/lib_vision_models_pp/Src/mpe_pp_yolov8.c ****         {
 192              		.loc 1 67 14 is_stmt 0 view .LVU50
 193              	.LBE10:
  62:../../Middlewares/lib_vision_models_pp/lib_vision_models_pp/Src/mpe_pp_yolov8.c ****         AI_YOLOV8_POSE_PP_SORT_CLASS = k;
 194              		.loc 1 62 30 view .LVU51
 195 0026 1446     		mov	r4, r2
 196 0028 01F10103 		add	r3, r1, #1
 197              	.LBB11:
  69:../../Middlewares/lib_vision_models_pp/lib_vision_models_pp/Src/mpe_pp_yolov8.c ****             {
 198              		.loc 1 69 36 view .LVU52
 199 002c 4FF01C0C 		mov	ip, #28
 200 0030 B8BF     		it	lt
 201 0032 0123     		movlt	r3, #1
 202              	.LVL16:
 203              	.L12:
  67:../../Middlewares/lib_vision_models_pp/lib_vision_models_pp/Src/mpe_pp_yolov8.c ****         {
 204              		.loc 1 67 31 is_stmt 1 discriminator 1 view .LVU53
 205 0034 013B     		subs	r3, r3, #1
 206 0036 03D1     		bne	.L14
 207              	.LBE11:
  75:../../Middlewares/lib_vision_models_pp/lib_vision_models_pp/Src/mpe_pp_yolov8.c ****         {
ARM GAS  C:\Users\Antonio\AppData\Local\Temp\cccQQj0s.s 			page 7


 208              		.loc 1 75 9 view .LVU54
  75:../../Middlewares/lib_vision_models_pp/lib_vision_models_pp/Src/mpe_pp_yolov8.c ****         {
 209              		.loc 1 75 12 is_stmt 0 view .LVU55
 210 0038 002C     		cmp	r4, #0
 211 003a 0ADC     		bgt	.L15
 212              	.LVL17:
 213              	.L27:
  59:../../Middlewares/lib_vision_models_pp/lib_vision_models_pp/Src/mpe_pp_yolov8.c ****     {
 214              		.loc 1 59 54 is_stmt 1 discriminator 2 view .LVU56
 215 003c 0137     		adds	r7, r7, #1
 216              	.LVL18:
  59:../../Middlewares/lib_vision_models_pp/lib_vision_models_pp/Src/mpe_pp_yolov8.c ****     {
 217              		.loc 1 59 54 is_stmt 0 discriminator 2 view .LVU57
 218 003e E6E7     		b	.L11
 219              	.LVL19:
 220              	.L14:
 221              	.LBB12:
  69:../../Middlewares/lib_vision_models_pp/lib_vision_models_pp/Src/mpe_pp_yolov8.c ****             {
 222              		.loc 1 69 13 is_stmt 1 view .LVU58
  69:../../Middlewares/lib_vision_models_pp/lib_vision_models_pp/Src/mpe_pp_yolov8.c ****             {
 223              		.loc 1 69 36 is_stmt 0 view .LVU59
 224 0040 2868     		ldr	r0, [r5]
 225 0042 0CFB0200 		mla	r0, ip, r2, r0
  69:../../Middlewares/lib_vision_models_pp/lib_vision_models_pp/Src/mpe_pp_yolov8.c ****             {
 226              		.loc 1 69 15 view .LVU60
 227 0046 4069     		ldr	r0, [r0, #20]
  67:../../Middlewares/lib_vision_models_pp/lib_vision_models_pp/Src/mpe_pp_yolov8.c ****         {
 228              		.loc 1 67 68 discriminator 2 view .LVU61
 229 0048 0132     		adds	r2, r2, #1
 230              	.LVL20:
  71:../../Middlewares/lib_vision_models_pp/lib_vision_models_pp/Src/mpe_pp_yolov8.c ****             }
 231              		.loc 1 71 37 view .LVU62
 232 004a B842     		cmp	r0, r7
 233 004c 54EA1494 		cinc	r4, r4, eq
 234              	.LVL21:
  67:../../Middlewares/lib_vision_models_pp/lib_vision_models_pp/Src/mpe_pp_yolov8.c ****         {
 235              		.loc 1 67 68 is_stmt 1 discriminator 2 view .LVU63
  67:../../Middlewares/lib_vision_models_pp/lib_vision_models_pp/Src/mpe_pp_yolov8.c ****         {
 236              		.loc 1 67 68 is_stmt 0 discriminator 2 view .LVU64
 237 0050 F0E7     		b	.L12
 238              	.L15:
  67:../../Middlewares/lib_vision_models_pp/lib_vision_models_pp/Src/mpe_pp_yolov8.c ****         {
 239              		.loc 1 67 68 discriminator 2 view .LVU65
 240              	.LBE12:
  78:../../Middlewares/lib_vision_models_pp/lib_vision_models_pp/Src/mpe_pp_yolov8.c ****                   pInput_static_param->nb_detect,
 241              		.loc 1 78 13 is_stmt 1 view .LVU66
 242 0052 284B     		ldr	r3, .L34+4
 243 0054 1C22     		movs	r2, #28
 244              	.LVL22:
  78:../../Middlewares/lib_vision_models_pp/lib_vision_models_pp/Src/mpe_pp_yolov8.c ****                   pInput_static_param->nb_detect,
 245              		.loc 1 78 13 is_stmt 0 view .LVU67
 246 0056 2868     		ldr	r0, [r5]
 247 0058 FFF7FEFF 		bl	qsort
 248              	.LVL23:
  83:../../Middlewares/lib_vision_models_pp/lib_vision_models_pp/Src/mpe_pp_yolov8.c ****             {
 249              		.loc 1 83 13 is_stmt 1 view .LVU68
 250              	.LBB13:
ARM GAS  C:\Users\Antonio\AppData\Local\Temp\cccQQj0s.s 			page 8


  83:../../Middlewares/lib_vision_models_pp/lib_vision_models_pp/Src/mpe_pp_yolov8.c ****             {
 251              		.loc 1 83 18 view .LVU69
  83:../../Middlewares/lib_vision_models_pp/lib_vision_models_pp/Src/mpe_pp_yolov8.c ****             {
 252              		.loc 1 83 35 discriminator 1 view .LVU70
  83:../../Middlewares/lib_vision_models_pp/lib_vision_models_pp/Src/mpe_pp_yolov8.c ****             {
 253              		.loc 1 83 26 is_stmt 0 view .LVU71
 254 005c 4FF00009 		mov	r9, #0
 255              	.LBB7:
  85:../../Middlewares/lib_vision_models_pp/lib_vision_models_pp/Src/mpe_pp_yolov8.c ****                 float32_t *a = &(pOutput->pOutBuff[i].x_center);
 256              		.loc 1 85 38 view .LVU72
 257 0060 1C23     		movs	r3, #28
 258              	.LVL24:
 259              	.L17:
  85:../../Middlewares/lib_vision_models_pp/lib_vision_models_pp/Src/mpe_pp_yolov8.c ****                 float32_t *a = &(pOutput->pOutBuff[i].x_center);
 260              		.loc 1 85 17 is_stmt 1 view .LVU73
  85:../../Middlewares/lib_vision_models_pp/lib_vision_models_pp/Src/mpe_pp_yolov8.c ****                 float32_t *a = &(pOutput->pOutBuff[i].x_center);
 261              		.loc 1 85 38 is_stmt 0 view .LVU74
 262 0062 2A68     		ldr	r2, [r5]
 263 0064 03FB092B 		mla	fp, r3, r9, r2
  85:../../Middlewares/lib_vision_models_pp/lib_vision_models_pp/Src/mpe_pp_yolov8.c ****                 float32_t *a = &(pOutput->pOutBuff[i].x_center);
 264              		.loc 1 85 20 view .LVU75
 265 0068 DBED047A 		vldr.32	s15, [fp, #16]
 266 006c F5EE407A 		vcmp.f32	s15, #0
 267 0070 F1EE10FA 		vmrs	APSR_nzcv, FPSCR
  87:../../Middlewares/lib_vision_models_pp/lib_vision_models_pp/Src/mpe_pp_yolov8.c ****                 {
 268              		.loc 1 87 24 view .LVU76
 269 0074 09F10109 		add	r9, r9, #1
 270              	.LVL25:
  85:../../Middlewares/lib_vision_models_pp/lib_vision_models_pp/Src/mpe_pp_yolov8.c ****                 float32_t *a = &(pOutput->pOutBuff[i].x_center);
 271              		.loc 1 85 20 view .LVU77
 272 0078 19D1     		bne	.L16
 273              	.L23:
 274              	.LBE7:
  83:../../Middlewares/lib_vision_models_pp/lib_vision_models_pp/Src/mpe_pp_yolov8.c ****             {
 275              		.loc 1 83 62 is_stmt 1 discriminator 2 view .LVU78
 276              	.LVL26:
  83:../../Middlewares/lib_vision_models_pp/lib_vision_models_pp/Src/mpe_pp_yolov8.c ****             {
 277              		.loc 1 83 35 discriminator 1 view .LVU79
 278 007a 4C45     		cmp	r4, r9
 279 007c F1D1     		bne	.L17
 280              	.LBE13:
 281              	.LBB14:
  98:../../Middlewares/lib_vision_models_pp/lib_vision_models_pp/Src/mpe_pp_yolov8.c ****             {
 282              		.loc 1 98 26 is_stmt 0 view .LVU80
 283 007e 0023     		movs	r3, #0
 101:../../Middlewares/lib_vision_models_pp/lib_vision_models_pp/Src/mpe_pp_yolov8.c ****                 {
 284              		.loc 1 101 39 view .LVU81
 285 0080 4FF01C0E 		mov	lr, #28
 286              	.LBE14:
  61:../../Middlewares/lib_vision_models_pp/lib_vision_models_pp/Src/mpe_pp_yolov8.c ****         detections_per_class = 0;
 287              		.loc 1 61 23 view .LVU82
 288 0084 1A46     		mov	r2, r3
 289              	.LBB15:
 100:../../Middlewares/lib_vision_models_pp/lib_vision_models_pp/Src/mpe_pp_yolov8.c ****                     (pOutput->pOutBuff[i].conf != 0))
 290              		.loc 1 100 57 view .LVU83
 291 0086 B068     		ldr	r0, [r6, #8]
 101:../../Middlewares/lib_vision_models_pp/lib_vision_models_pp/Src/mpe_pp_yolov8.c ****                 {
ARM GAS  C:\Users\Antonio\AppData\Local\Temp\cccQQj0s.s 			page 9


 292              		.loc 1 101 29 view .LVU84
 293 0088 D5F800C0 		ldr	ip, [r5]
 294              	.LVL27:
 295              	.L26:
 100:../../Middlewares/lib_vision_models_pp/lib_vision_models_pp/Src/mpe_pp_yolov8.c ****                     (pOutput->pOutBuff[i].conf != 0))
 296              		.loc 1 100 17 is_stmt 1 view .LVU85
 100:../../Middlewares/lib_vision_models_pp/lib_vision_models_pp/Src/mpe_pp_yolov8.c ****                     (pOutput->pOutBuff[i].conf != 0))
 297              		.loc 1 100 20 is_stmt 0 view .LVU86
 298 008c 9042     		cmp	r0, r2
 101:../../Middlewares/lib_vision_models_pp/lib_vision_models_pp/Src/mpe_pp_yolov8.c ****                 {
 299              		.loc 1 101 39 view .LVU87
 300 008e 0EFB03C1 		mla	r1, lr, r3, ip
 100:../../Middlewares/lib_vision_models_pp/lib_vision_models_pp/Src/mpe_pp_yolov8.c ****                     (pOutput->pOutBuff[i].conf != 0))
 301              		.loc 1 100 20 view .LVU88
 302 0092 29DD     		ble	.L24
 100:../../Middlewares/lib_vision_models_pp/lib_vision_models_pp/Src/mpe_pp_yolov8.c ****                     (pOutput->pOutBuff[i].conf != 0))
 303              		.loc 1 100 76 discriminator 1 view .LVU89
 304 0094 D1ED047A 		vldr.32	s15, [r1, #16]
 305 0098 F5EE407A 		vcmp.f32	s15, #0
 306 009c F1EE10FA 		vmrs	APSR_nzcv, FPSCR
 307 00a0 22D0     		beq	.L24
 103:../../Middlewares/lib_vision_models_pp/lib_vision_models_pp/Src/mpe_pp_yolov8.c ****                 }
 308              		.loc 1 103 21 is_stmt 1 view .LVU90
 103:../../Middlewares/lib_vision_models_pp/lib_vision_models_pp/Src/mpe_pp_yolov8.c ****                 }
 309              		.loc 1 103 34 is_stmt 0 view .LVU91
 310 00a2 0132     		adds	r2, r2, #1
 311              	.LVL28:
 312              	.L25:
  98:../../Middlewares/lib_vision_models_pp/lib_vision_models_pp/Src/mpe_pp_yolov8.c ****             {
 313              		.loc 1 98 60 is_stmt 1 discriminator 2 view .LVU92
  98:../../Middlewares/lib_vision_models_pp/lib_vision_models_pp/Src/mpe_pp_yolov8.c ****             {
 314              		.loc 1 98 35 is_stmt 0 discriminator 1 view .LVU93
 315 00a4 013C     		subs	r4, r4, #1
  98:../../Middlewares/lib_vision_models_pp/lib_vision_models_pp/Src/mpe_pp_yolov8.c ****             {
 316              		.loc 1 98 60 discriminator 2 view .LVU94
 317 00a6 03F10103 		add	r3, r3, #1
 318              	.LVL29:
  98:../../Middlewares/lib_vision_models_pp/lib_vision_models_pp/Src/mpe_pp_yolov8.c ****             {
 319              		.loc 1 98 35 is_stmt 1 discriminator 1 view .LVU95
 320 00aa EFD1     		bne	.L26
  98:../../Middlewares/lib_vision_models_pp/lib_vision_models_pp/Src/mpe_pp_yolov8.c ****             {
 321              		.loc 1 98 35 is_stmt 0 discriminator 1 view .LVU96
 322 00ac C6E7     		b	.L27
 323              	.LVL30:
 324              	.L16:
  98:../../Middlewares/lib_vision_models_pp/lib_vision_models_pp/Src/mpe_pp_yolov8.c ****             {
 325              		.loc 1 98 35 discriminator 1 view .LVU97
 326              	.LBE15:
 327              	.LBB16:
 328              	.LBB8:
  86:../../Middlewares/lib_vision_models_pp/lib_vision_models_pp/Src/mpe_pp_yolov8.c ****                 for (j = i + 1; j < detections_per_class; j ++)
 329              		.loc 1 86 17 is_stmt 1 view .LVU98
  87:../../Middlewares/lib_vision_models_pp/lib_vision_models_pp/Src/mpe_pp_yolov8.c ****                 {
 330              		.loc 1 87 17 view .LVU99
  87:../../Middlewares/lib_vision_models_pp/lib_vision_models_pp/Src/mpe_pp_yolov8.c ****                 {
 331              		.loc 1 87 24 is_stmt 0 view .LVU100
 332 00ae CA46     		mov	r10, r9
ARM GAS  C:\Users\Antonio\AppData\Local\Temp\cccQQj0s.s 			page 10


 333              	.LVL31:
 334              	.L19:
  87:../../Middlewares/lib_vision_models_pp/lib_vision_models_pp/Src/mpe_pp_yolov8.c ****                 {
 335              		.loc 1 87 35 is_stmt 1 discriminator 1 view .LVU101
 336 00b0 A245     		cmp	r10, r4
 337              	.LBB5:
  89:../../Middlewares/lib_vision_models_pp/lib_vision_models_pp/Src/mpe_pp_yolov8.c ****                     if (vision_models_box_iou(a, b) > pInput_static_param->iou_threshold)
 338              		.loc 1 89 45 is_stmt 0 view .LVU102
 339 00b2 2968     		ldr	r1, [r5]
 340              	.LBE5:
  87:../../Middlewares/lib_vision_models_pp/lib_vision_models_pp/Src/mpe_pp_yolov8.c ****                 {
 341              		.loc 1 87 35 discriminator 1 view .LVU103
 342 00b4 E1DA     		bge	.L23
 343              	.LBB6:
  89:../../Middlewares/lib_vision_models_pp/lib_vision_models_pp/Src/mpe_pp_yolov8.c ****                     if (vision_models_box_iou(a, b) > pInput_static_param->iou_threshold)
 344              		.loc 1 89 21 is_stmt 1 view .LVU104
 345 00b6 03FB0AF2 		mul	r2, r3, r10
 346              	.LVL32:
  90:../../Middlewares/lib_vision_models_pp/lib_vision_models_pp/Src/mpe_pp_yolov8.c ****                     {
 347              		.loc 1 90 21 view .LVU105
  90:../../Middlewares/lib_vision_models_pp/lib_vision_models_pp/Src/mpe_pp_yolov8.c ****                     {
 348              		.loc 1 90 25 is_stmt 0 view .LVU106
 349 00ba 5846     		mov	r0, fp
 350 00bc 1144     		add	r1, r1, r2
 351              	.LVL33:
  90:../../Middlewares/lib_vision_models_pp/lib_vision_models_pp/Src/mpe_pp_yolov8.c ****                     {
 352              		.loc 1 90 25 view .LVU107
 353 00be 0192     		str	r2, [sp, #4]
 354 00c0 FFF7FEFF 		bl	vision_models_box_iou
 355              	.LVL34:
  90:../../Middlewares/lib_vision_models_pp/lib_vision_models_pp/Src/mpe_pp_yolov8.c ****                     {
 356              		.loc 1 90 24 discriminator 1 view .LVU108
 357 00c4 D6ED047A 		vldr.32	s15, [r6, #16]
 358 00c8 B4EEE70A 		vcmpe.f32	s0, s15
 359 00cc F1EE10FA 		vmrs	APSR_nzcv, FPSCR
  92:../../Middlewares/lib_vision_models_pp/lib_vision_models_pp/Src/mpe_pp_yolov8.c ****                     }
 360              		.loc 1 92 51 view .LVU109
 361 00d0 C4BF     		itt	gt
 362 00d2 2968     		ldrgt	r1, [r5]
 363 00d4 019A     		ldrgt	r2, [sp, #4]
  90:../../Middlewares/lib_vision_models_pp/lib_vision_models_pp/Src/mpe_pp_yolov8.c ****                     {
 364              		.loc 1 90 24 discriminator 1 view .LVU110
 365 00d6 4FF01C03 		mov	r3, #28
  92:../../Middlewares/lib_vision_models_pp/lib_vision_models_pp/Src/mpe_pp_yolov8.c ****                     }
 366              		.loc 1 92 25 is_stmt 1 view .LVU111
  92:../../Middlewares/lib_vision_models_pp/lib_vision_models_pp/Src/mpe_pp_yolov8.c ****                     }
 367              		.loc 1 92 51 is_stmt 0 view .LVU112
 368 00da C4BF     		itt	gt
 369 00dc 8918     		addgt	r1, r1, r2
 370 00de C1F81080 		strgt	r8, [r1, #16]	@ float
 371              	.LBE6:
  87:../../Middlewares/lib_vision_models_pp/lib_vision_models_pp/Src/mpe_pp_yolov8.c ****                 {
 372              		.loc 1 87 61 is_stmt 1 discriminator 2 view .LVU113
 373 00e2 0AF1010A 		add	r10, r10, #1
 374              	.LVL35:
  87:../../Middlewares/lib_vision_models_pp/lib_vision_models_pp/Src/mpe_pp_yolov8.c ****                 {
 375              		.loc 1 87 61 is_stmt 0 discriminator 2 view .LVU114
ARM GAS  C:\Users\Antonio\AppData\Local\Temp\cccQQj0s.s 			page 11


 376 00e6 E3E7     		b	.L19
 377              	.LVL36:
 378              	.L24:
  87:../../Middlewares/lib_vision_models_pp/lib_vision_models_pp/Src/mpe_pp_yolov8.c ****                 {
 379              		.loc 1 87 61 discriminator 2 view .LVU115
 380              	.LBE8:
 381              	.LBE16:
 382              	.LBB17:
 107:../../Middlewares/lib_vision_models_pp/lib_vision_models_pp/Src/mpe_pp_yolov8.c ****                 }
 383              		.loc 1 107 21 is_stmt 1 view .LVU116
 107:../../Middlewares/lib_vision_models_pp/lib_vision_models_pp/Src/mpe_pp_yolov8.c ****                 }
 384              		.loc 1 107 47 is_stmt 0 view .LVU117
 385 00e8 C1F81080 		str	r8, [r1, #16]	@ float
 386 00ec DAE7     		b	.L25
 387              	.L35:
 388 00ee 00BF     		.align	2
 389              	.L34:
 390 00f0 00000000 		.word	AI_YOLOV8_POSE_PP_SORT_CLASS
 391 00f4 00000000 		.word	mpe_yolov8_nms_comparator
 392              	.LBE17:
 393              		.cfi_endproc
 394              	.LFE2646:
 396              		.section	.text.mpe_yolo_pp_scoreFiltering_centroid,"ax",%progbits
 397              		.align	1
 398              		.global	mpe_yolo_pp_scoreFiltering_centroid
 399              		.syntax unified
 400              		.thumb
 401              		.thumb_func
 403              	mpe_yolo_pp_scoreFiltering_centroid:
 404              	.LVL37:
 405              	.LFB2647:
 114:../../Middlewares/lib_vision_models_pp/lib_vision_models_pp/Src/mpe_pp_yolov8.c **** 
 115:../../Middlewares/lib_vision_models_pp/lib_vision_models_pp/Src/mpe_pp_yolov8.c **** 
 116:../../Middlewares/lib_vision_models_pp/lib_vision_models_pp/Src/mpe_pp_yolov8.c **** int32_t mpe_yolo_pp_scoreFiltering_centroid(mpe_pp_out_t *pOutput,
 117:../../Middlewares/lib_vision_models_pp/lib_vision_models_pp/Src/mpe_pp_yolov8.c ****                                           mpe_yolov8_pp_static_param_t *pInput_static_param)
 118:../../Middlewares/lib_vision_models_pp/lib_vision_models_pp/Src/mpe_pp_yolov8.c **** {
 406              		.loc 1 118 1 is_stmt 1 view -0
 407              		.cfi_startproc
 408              		@ args = 0, pretend = 0, frame = 8
 409              		@ frame_needed = 0, uses_anonymous_args = 0
 119:../../Middlewares/lib_vision_models_pp/lib_vision_models_pp/Src/mpe_pp_yolov8.c ****     int32_t det_count = 0;
 410              		.loc 1 119 5 view .LVU119
 120:../../Middlewares/lib_vision_models_pp/lib_vision_models_pp/Src/mpe_pp_yolov8.c **** 
 121:../../Middlewares/lib_vision_models_pp/lib_vision_models_pp/Src/mpe_pp_yolov8.c ****     for (int32_t i = 0; i < pInput_static_param->nb_detect; i++)
 411              		.loc 1 121 5 view .LVU120
 412              	.LBB18:
 413              		.loc 1 121 10 view .LVU121
 414              		.loc 1 121 10 is_stmt 0 view .LVU122
 415              	.LBE18:
 118:../../Middlewares/lib_vision_models_pp/lib_vision_models_pp/Src/mpe_pp_yolov8.c ****     int32_t det_count = 0;
 416              		.loc 1 118 1 view .LVU123
 417 0000 2DE9F74F 		push	{r0, r1, r2, r4, r5, r6, r7, r8, r9, r10, fp, lr}
 418              		.cfi_def_cfa_offset 48
 419              		.cfi_offset 4, -36
 420              		.cfi_offset 5, -32
 421              		.cfi_offset 6, -28
 422              		.cfi_offset 7, -24
ARM GAS  C:\Users\Antonio\AppData\Local\Temp\cccQQj0s.s 			page 12


 423              		.cfi_offset 8, -20
 424              		.cfi_offset 9, -16
 425              		.cfi_offset 10, -12
 426              		.cfi_offset 11, -8
 427              		.cfi_offset 14, -4
 428              	.LBB22:
 429              		.loc 1 121 18 view .LVU124
 430 0004 0025     		movs	r5, #0
 122:../../Middlewares/lib_vision_models_pp/lib_vision_models_pp/Src/mpe_pp_yolov8.c ****     {
 123:../../Middlewares/lib_vision_models_pp/lib_vision_models_pp/Src/mpe_pp_yolov8.c ****         if (pOutput->pOutBuff[i].conf >= pInput_static_param->conf_threshold)
 431              		.loc 1 123 30 view .LVU125
 432 0006 4FF01C0C 		mov	ip, #28
 433              	.LBE22:
 119:../../Middlewares/lib_vision_models_pp/lib_vision_models_pp/Src/mpe_pp_yolov8.c **** 
 434              		.loc 1 119 13 view .LVU126
 435 000a 2F46     		mov	r7, r5
 436 000c 4FF00C08 		mov	r8, #12
 437              	.LBB23:
 121:../../Middlewares/lib_vision_models_pp/lib_vision_models_pp/Src/mpe_pp_yolov8.c ****     {
 438              		.loc 1 121 48 discriminator 1 view .LVU127
 439 0010 D1F814E0 		ldr	lr, [r1, #20]
 440              	.LBE23:
 118:../../Middlewares/lib_vision_models_pp/lib_vision_models_pp/Src/mpe_pp_yolov8.c ****     int32_t det_count = 0;
 441              		.loc 1 118 1 view .LVU128
 442 0014 0190     		str	r0, [sp, #4]
 443              	.LVL38:
 444              	.L37:
 445              	.LBB24:
 121:../../Middlewares/lib_vision_models_pp/lib_vision_models_pp/Src/mpe_pp_yolov8.c ****     {
 446              		.loc 1 121 27 is_stmt 1 discriminator 1 view .LVU129
 447 0016 AE45     		cmp	lr, r5
 448              		.loc 1 123 20 is_stmt 0 view .LVU130
 449 0018 019B     		ldr	r3, [sp, #4]
 121:../../Middlewares/lib_vision_models_pp/lib_vision_models_pp/Src/mpe_pp_yolov8.c ****     {
 450              		.loc 1 121 27 discriminator 1 view .LVU131
 451 001a 04DC     		bgt	.L42
 452              	.LBE24:
 124:../../Middlewares/lib_vision_models_pp/lib_vision_models_pp/Src/mpe_pp_yolov8.c ****         {
 125:../../Middlewares/lib_vision_models_pp/lib_vision_models_pp/Src/mpe_pp_yolov8.c ****             pOutput->pOutBuff[det_count].x_center = pOutput->pOutBuff[i].x_center;
 126:../../Middlewares/lib_vision_models_pp/lib_vision_models_pp/Src/mpe_pp_yolov8.c ****             pOutput->pOutBuff[det_count].y_center = pOutput->pOutBuff[i].y_center;
 127:../../Middlewares/lib_vision_models_pp/lib_vision_models_pp/Src/mpe_pp_yolov8.c ****             pOutput->pOutBuff[det_count].width = pOutput->pOutBuff[i].width;
 128:../../Middlewares/lib_vision_models_pp/lib_vision_models_pp/Src/mpe_pp_yolov8.c ****             pOutput->pOutBuff[det_count].height = pOutput->pOutBuff[i].height;
 129:../../Middlewares/lib_vision_models_pp/lib_vision_models_pp/Src/mpe_pp_yolov8.c ****             pOutput->pOutBuff[det_count].conf = pOutput->pOutBuff[i].conf;
 130:../../Middlewares/lib_vision_models_pp/lib_vision_models_pp/Src/mpe_pp_yolov8.c ****             pOutput->pOutBuff[det_count].class_index = pOutput->pOutBuff[i].class_index;
 131:../../Middlewares/lib_vision_models_pp/lib_vision_models_pp/Src/mpe_pp_yolov8.c ****             for (uint32_t j = 0; j < pInput_static_param->nb_keypoints; j++)
 132:../../Middlewares/lib_vision_models_pp/lib_vision_models_pp/Src/mpe_pp_yolov8.c ****             {
 133:../../Middlewares/lib_vision_models_pp/lib_vision_models_pp/Src/mpe_pp_yolov8.c ****                 pOutput->pOutBuff[det_count].pKeyPoints[j].x = pOutput->pOutBuff[i].pKeyPoints[j].x
 134:../../Middlewares/lib_vision_models_pp/lib_vision_models_pp/Src/mpe_pp_yolov8.c ****                 pOutput->pOutBuff[det_count].pKeyPoints[j].y = pOutput->pOutBuff[i].pKeyPoints[j].y
 135:../../Middlewares/lib_vision_models_pp/lib_vision_models_pp/Src/mpe_pp_yolov8.c ****                 pOutput->pOutBuff[det_count].pKeyPoints[j].conf = pOutput->pOutBuff[i].pKeyPoints[j
 136:../../Middlewares/lib_vision_models_pp/lib_vision_models_pp/Src/mpe_pp_yolov8.c ****             }
 137:../../Middlewares/lib_vision_models_pp/lib_vision_models_pp/Src/mpe_pp_yolov8.c ****             det_count++;
 138:../../Middlewares/lib_vision_models_pp/lib_vision_models_pp/Src/mpe_pp_yolov8.c ****         }
 139:../../Middlewares/lib_vision_models_pp/lib_vision_models_pp/Src/mpe_pp_yolov8.c ****     }
 140:../../Middlewares/lib_vision_models_pp/lib_vision_models_pp/Src/mpe_pp_yolov8.c ****     pOutput->nb_detect = det_count;
 453              		.loc 1 140 5 is_stmt 1 view .LVU132
 141:../../Middlewares/lib_vision_models_pp/lib_vision_models_pp/Src/mpe_pp_yolov8.c **** 
 142:../../Middlewares/lib_vision_models_pp/lib_vision_models_pp/Src/mpe_pp_yolov8.c ****     return (AI_VISION_MODELS_PP_ERROR_NO);
ARM GAS  C:\Users\Antonio\AppData\Local\Temp\cccQQj0s.s 			page 13


 143:../../Middlewares/lib_vision_models_pp/lib_vision_models_pp/Src/mpe_pp_yolov8.c **** }
 454              		.loc 1 143 1 is_stmt 0 view .LVU133
 455 001c 0020     		movs	r0, #0
 140:../../Middlewares/lib_vision_models_pp/lib_vision_models_pp/Src/mpe_pp_yolov8.c **** 
 456              		.loc 1 140 24 view .LVU134
 457 001e 5F60     		str	r7, [r3, #4]
 142:../../Middlewares/lib_vision_models_pp/lib_vision_models_pp/Src/mpe_pp_yolov8.c **** }
 458              		.loc 1 142 5 is_stmt 1 view .LVU135
 459              		.loc 1 143 1 is_stmt 0 view .LVU136
 460 0020 03B0     		add	sp, sp, #12
 461              		.cfi_remember_state
 462              		.cfi_def_cfa_offset 36
 463              		@ sp needed
 464 0022 BDE8F08F 		pop	{r4, r5, r6, r7, r8, r9, r10, fp, pc}
 465              	.LVL39:
 466              	.L42:
 467              		.cfi_restore_state
 468              	.LBB25:
 123:../../Middlewares/lib_vision_models_pp/lib_vision_models_pp/Src/mpe_pp_yolov8.c ****         {
 469              		.loc 1 123 9 is_stmt 1 view .LVU137
 123:../../Middlewares/lib_vision_models_pp/lib_vision_models_pp/Src/mpe_pp_yolov8.c ****         {
 470              		.loc 1 123 20 is_stmt 0 view .LVU138
 471 0026 1B68     		ldr	r3, [r3]
 123:../../Middlewares/lib_vision_models_pp/lib_vision_models_pp/Src/mpe_pp_yolov8.c ****         {
 472              		.loc 1 123 12 view .LVU139
 473 0028 91ED037A 		vldr.32	s14, [r1, #12]
 123:../../Middlewares/lib_vision_models_pp/lib_vision_models_pp/Src/mpe_pp_yolov8.c ****         {
 474              		.loc 1 123 30 view .LVU140
 475 002c 0CFB0532 		mla	r2, ip, r5, r3
 123:../../Middlewares/lib_vision_models_pp/lib_vision_models_pp/Src/mpe_pp_yolov8.c ****         {
 476              		.loc 1 123 33 view .LVU141
 477 0030 D2ED047A 		vldr.32	s15, [r2, #16]
 123:../../Middlewares/lib_vision_models_pp/lib_vision_models_pp/Src/mpe_pp_yolov8.c ****         {
 478              		.loc 1 123 12 view .LVU142
 479 0034 F4EEC77A 		vcmpe.f32	s15, s14
 480 0038 F1EE10FA 		vmrs	APSR_nzcv, FPSCR
 481 003c 16DB     		blt	.L38
 125:../../Middlewares/lib_vision_models_pp/lib_vision_models_pp/Src/mpe_pp_yolov8.c ****             pOutput->pOutBuff[det_count].y_center = pOutput->pOutBuff[i].y_center;
 482              		.loc 1 125 13 is_stmt 1 view .LVU143
 125:../../Middlewares/lib_vision_models_pp/lib_vision_models_pp/Src/mpe_pp_yolov8.c ****             pOutput->pOutBuff[det_count].y_center = pOutput->pOutBuff[i].y_center;
 483              		.loc 1 125 30 is_stmt 0 view .LVU144
 484 003e 0CFB0733 		mla	r3, ip, r7, r3
 125:../../Middlewares/lib_vision_models_pp/lib_vision_models_pp/Src/mpe_pp_yolov8.c ****             pOutput->pOutBuff[det_count].y_center = pOutput->pOutBuff[i].y_center;
 485              		.loc 1 125 73 view .LVU145
 486 0042 1468     		ldr	r4, [r2]	@ float
 487              	.LBB19:
 131:../../Middlewares/lib_vision_models_pp/lib_vision_models_pp/Src/mpe_pp_yolov8.c ****             {
 488              		.loc 1 131 27 view .LVU146
 489 0044 4FF00009 		mov	r9, #0
 490              	.LBE19:
 125:../../Middlewares/lib_vision_models_pp/lib_vision_models_pp/Src/mpe_pp_yolov8.c ****             pOutput->pOutBuff[det_count].y_center = pOutput->pOutBuff[i].y_center;
 491              		.loc 1 125 51 view .LVU147
 492 0048 1C60     		str	r4, [r3]	@ float
 126:../../Middlewares/lib_vision_models_pp/lib_vision_models_pp/Src/mpe_pp_yolov8.c ****             pOutput->pOutBuff[det_count].width = pOutput->pOutBuff[i].width;
 493              		.loc 1 126 13 is_stmt 1 view .LVU148
 126:../../Middlewares/lib_vision_models_pp/lib_vision_models_pp/Src/mpe_pp_yolov8.c ****             pOutput->pOutBuff[det_count].width = pOutput->pOutBuff[i].width;
 494              		.loc 1 126 73 is_stmt 0 view .LVU149
ARM GAS  C:\Users\Antonio\AppData\Local\Temp\cccQQj0s.s 			page 14


 495 004a 5468     		ldr	r4, [r2, #4]	@ float
 126:../../Middlewares/lib_vision_models_pp/lib_vision_models_pp/Src/mpe_pp_yolov8.c ****             pOutput->pOutBuff[det_count].width = pOutput->pOutBuff[i].width;
 496              		.loc 1 126 51 view .LVU150
 497 004c 5C60     		str	r4, [r3, #4]	@ float
 127:../../Middlewares/lib_vision_models_pp/lib_vision_models_pp/Src/mpe_pp_yolov8.c ****             pOutput->pOutBuff[det_count].height = pOutput->pOutBuff[i].height;
 498              		.loc 1 127 13 is_stmt 1 view .LVU151
 127:../../Middlewares/lib_vision_models_pp/lib_vision_models_pp/Src/mpe_pp_yolov8.c ****             pOutput->pOutBuff[det_count].height = pOutput->pOutBuff[i].height;
 499              		.loc 1 127 70 is_stmt 0 view .LVU152
 500 004e 9468     		ldr	r4, [r2, #8]	@ float
 127:../../Middlewares/lib_vision_models_pp/lib_vision_models_pp/Src/mpe_pp_yolov8.c ****             pOutput->pOutBuff[det_count].height = pOutput->pOutBuff[i].height;
 501              		.loc 1 127 48 view .LVU153
 502 0050 9C60     		str	r4, [r3, #8]	@ float
 128:../../Middlewares/lib_vision_models_pp/lib_vision_models_pp/Src/mpe_pp_yolov8.c ****             pOutput->pOutBuff[det_count].conf = pOutput->pOutBuff[i].conf;
 503              		.loc 1 128 13 is_stmt 1 view .LVU154
 128:../../Middlewares/lib_vision_models_pp/lib_vision_models_pp/Src/mpe_pp_yolov8.c ****             pOutput->pOutBuff[det_count].conf = pOutput->pOutBuff[i].conf;
 504              		.loc 1 128 71 is_stmt 0 view .LVU155
 505 0052 D468     		ldr	r4, [r2, #12]	@ float
 129:../../Middlewares/lib_vision_models_pp/lib_vision_models_pp/Src/mpe_pp_yolov8.c ****             pOutput->pOutBuff[det_count].class_index = pOutput->pOutBuff[i].class_index;
 506              		.loc 1 129 47 view .LVU156
 507 0054 C3ED047A 		vstr.32	s15, [r3, #16]
 128:../../Middlewares/lib_vision_models_pp/lib_vision_models_pp/Src/mpe_pp_yolov8.c ****             pOutput->pOutBuff[det_count].conf = pOutput->pOutBuff[i].conf;
 508              		.loc 1 128 49 view .LVU157
 509 0058 DC60     		str	r4, [r3, #12]	@ float
 129:../../Middlewares/lib_vision_models_pp/lib_vision_models_pp/Src/mpe_pp_yolov8.c ****             pOutput->pOutBuff[det_count].class_index = pOutput->pOutBuff[i].class_index;
 510              		.loc 1 129 13 is_stmt 1 view .LVU158
 130:../../Middlewares/lib_vision_models_pp/lib_vision_models_pp/Src/mpe_pp_yolov8.c ****             for (uint32_t j = 0; j < pInput_static_param->nb_keypoints; j++)
 511              		.loc 1 130 13 view .LVU159
 130:../../Middlewares/lib_vision_models_pp/lib_vision_models_pp/Src/mpe_pp_yolov8.c ****             for (uint32_t j = 0; j < pInput_static_param->nb_keypoints; j++)
 512              		.loc 1 130 76 is_stmt 0 view .LVU160
 513 005a 5469     		ldr	r4, [r2, #20]
 130:../../Middlewares/lib_vision_models_pp/lib_vision_models_pp/Src/mpe_pp_yolov8.c ****             for (uint32_t j = 0; j < pInput_static_param->nb_keypoints; j++)
 514              		.loc 1 130 54 view .LVU161
 515 005c 5C61     		str	r4, [r3, #20]
 131:../../Middlewares/lib_vision_models_pp/lib_vision_models_pp/Src/mpe_pp_yolov8.c ****             {
 516              		.loc 1 131 13 is_stmt 1 view .LVU162
 517              	.LBB20:
 131:../../Middlewares/lib_vision_models_pp/lib_vision_models_pp/Src/mpe_pp_yolov8.c ****             {
 518              		.loc 1 131 18 view .LVU163
 519              	.LVL40:
 131:../../Middlewares/lib_vision_models_pp/lib_vision_models_pp/Src/mpe_pp_yolov8.c ****             {
 520              		.loc 1 131 57 is_stmt 0 discriminator 1 view .LVU164
 521 005e 8C69     		ldr	r4, [r1, #24]
 522 0060 04F1010A 		add	r10, r4, #1
 523              	.LVL41:
 524              	.L40:
 131:../../Middlewares/lib_vision_models_pp/lib_vision_models_pp/Src/mpe_pp_yolov8.c ****             {
 525              		.loc 1 131 36 is_stmt 1 discriminator 1 view .LVU165
 526 0064 BAF1010A 		subs	r10, r10, #1
 527 0068 02D1     		bne	.L41
 528              	.LBE20:
 137:../../Middlewares/lib_vision_models_pp/lib_vision_models_pp/Src/mpe_pp_yolov8.c ****         }
 529              		.loc 1 137 13 view .LVU166
 137:../../Middlewares/lib_vision_models_pp/lib_vision_models_pp/Src/mpe_pp_yolov8.c ****         }
 530              		.loc 1 137 22 is_stmt 0 view .LVU167
 531 006a 0137     		adds	r7, r7, #1
 532              	.LVL42:
 533              	.L38:
ARM GAS  C:\Users\Antonio\AppData\Local\Temp\cccQQj0s.s 			page 15


 121:../../Middlewares/lib_vision_models_pp/lib_vision_models_pp/Src/mpe_pp_yolov8.c ****     {
 534              		.loc 1 121 62 is_stmt 1 discriminator 2 view .LVU168
 535 006c 0135     		adds	r5, r5, #1
 536              	.LVL43:
 121:../../Middlewares/lib_vision_models_pp/lib_vision_models_pp/Src/mpe_pp_yolov8.c ****     {
 537              		.loc 1 121 62 is_stmt 0 discriminator 2 view .LVU169
 538 006e D2E7     		b	.L37
 539              	.LVL44:
 540              	.L41:
 541              	.LBB21:
 133:../../Middlewares/lib_vision_models_pp/lib_vision_models_pp/Src/mpe_pp_yolov8.c ****                 pOutput->pOutBuff[det_count].pKeyPoints[j].y = pOutput->pOutBuff[i].pKeyPoints[j].y
 542              		.loc 1 133 17 is_stmt 1 view .LVU170
 543 0070 08FB09F4 		mul	r4, r8, r9
 133:../../Middlewares/lib_vision_models_pp/lib_vision_models_pp/Src/mpe_pp_yolov8.c ****                 pOutput->pOutBuff[det_count].pKeyPoints[j].y = pOutput->pOutBuff[i].pKeyPoints[j].y
 544              		.loc 1 133 95 is_stmt 0 view .LVU171
 545 0074 9669     		ldr	r6, [r2, #24]
 133:../../Middlewares/lib_vision_models_pp/lib_vision_models_pp/Src/mpe_pp_yolov8.c ****                 pOutput->pOutBuff[det_count].pKeyPoints[j].y = pOutput->pOutBuff[i].pKeyPoints[j].y
 546              		.loc 1 133 56 view .LVU172
 547 0076 9869     		ldr	r0, [r3, #24]
 133:../../Middlewares/lib_vision_models_pp/lib_vision_models_pp/Src/mpe_pp_yolov8.c ****                 pOutput->pOutBuff[det_count].pKeyPoints[j].y = pOutput->pOutBuff[i].pKeyPoints[j].y
 548              		.loc 1 133 95 view .LVU173
 549 0078 2644     		add	r6, r6, r4
 133:../../Middlewares/lib_vision_models_pp/lib_vision_models_pp/Src/mpe_pp_yolov8.c ****                 pOutput->pOutBuff[det_count].pKeyPoints[j].y = pOutput->pOutBuff[i].pKeyPoints[j].y
 550              		.loc 1 133 98 view .LVU174
 551 007a D6F800B0 		ldr	fp, [r6]	@ float
 133:../../Middlewares/lib_vision_models_pp/lib_vision_models_pp/Src/mpe_pp_yolov8.c ****                 pOutput->pOutBuff[det_count].pKeyPoints[j].y = pOutput->pOutBuff[i].pKeyPoints[j].y
 552              		.loc 1 133 56 view .LVU175
 553 007e 0444     		add	r4, r4, r0
 133:../../Middlewares/lib_vision_models_pp/lib_vision_models_pp/Src/mpe_pp_yolov8.c ****                 pOutput->pOutBuff[det_count].pKeyPoints[j].y = pOutput->pOutBuff[i].pKeyPoints[j].y
 554              		.loc 1 133 62 view .LVU176
 555 0080 C4F800B0 		str	fp, [r4]	@ float
 134:../../Middlewares/lib_vision_models_pp/lib_vision_models_pp/Src/mpe_pp_yolov8.c ****                 pOutput->pOutBuff[det_count].pKeyPoints[j].conf = pOutput->pOutBuff[i].pKeyPoints[j
 556              		.loc 1 134 17 is_stmt 1 view .LVU177
 134:../../Middlewares/lib_vision_models_pp/lib_vision_models_pp/Src/mpe_pp_yolov8.c ****                 pOutput->pOutBuff[det_count].pKeyPoints[j].conf = pOutput->pOutBuff[i].pKeyPoints[j
 557              		.loc 1 134 98 is_stmt 0 view .LVU178
 558 0084 D6F804B0 		ldr	fp, [r6, #4]	@ float
 135:../../Middlewares/lib_vision_models_pp/lib_vision_models_pp/Src/mpe_pp_yolov8.c ****             }
 559              		.loc 1 135 101 view .LVU179
 560 0088 B668     		ldr	r6, [r6, #8]	@ float
 134:../../Middlewares/lib_vision_models_pp/lib_vision_models_pp/Src/mpe_pp_yolov8.c ****                 pOutput->pOutBuff[det_count].pKeyPoints[j].conf = pOutput->pOutBuff[i].pKeyPoints[j
 561              		.loc 1 134 62 view .LVU180
 562 008a C4F804B0 		str	fp, [r4, #4]	@ float
 135:../../Middlewares/lib_vision_models_pp/lib_vision_models_pp/Src/mpe_pp_yolov8.c ****             }
 563              		.loc 1 135 17 is_stmt 1 view .LVU181
 135:../../Middlewares/lib_vision_models_pp/lib_vision_models_pp/Src/mpe_pp_yolov8.c ****             }
 564              		.loc 1 135 65 is_stmt 0 view .LVU182
 565 008e A660     		str	r6, [r4, #8]	@ float
 131:../../Middlewares/lib_vision_models_pp/lib_vision_models_pp/Src/mpe_pp_yolov8.c ****             {
 566              		.loc 1 131 74 is_stmt 1 discriminator 3 view .LVU183
 567 0090 09F10109 		add	r9, r9, #1
 568              	.LVL45:
 131:../../Middlewares/lib_vision_models_pp/lib_vision_models_pp/Src/mpe_pp_yolov8.c ****             {
 569              		.loc 1 131 74 is_stmt 0 discriminator 3 view .LVU184
 570 0094 E6E7     		b	.L40
 571              	.LBE21:
 572              	.LBE25:
 573              		.cfi_endproc
ARM GAS  C:\Users\Antonio\AppData\Local\Temp\cccQQj0s.s 			page 16


 574              	.LFE2647:
 576              		.section	.text.mpe_yolo_pp_getNNBoxes_centroid,"ax",%progbits
 577              		.align	1
 578              		.global	mpe_yolo_pp_getNNBoxes_centroid
 579              		.syntax unified
 580              		.thumb
 581              		.thumb_func
 583              	mpe_yolo_pp_getNNBoxes_centroid:
 584              	.LVL46:
 585              	.LFB2648:
 144:../../Middlewares/lib_vision_models_pp/lib_vision_models_pp/Src/mpe_pp_yolov8.c **** 
 145:../../Middlewares/lib_vision_models_pp/lib_vision_models_pp/Src/mpe_pp_yolov8.c **** #ifdef AI_MPE_YOLOV8_PP_MVEF_OPTIM // not used : results are worst
 146:../../Middlewares/lib_vision_models_pp/lib_vision_models_pp/Src/mpe_pp_yolov8.c **** int32_t mpe_yolo_pp_getNNBoxes_centroid(mpe_yolov8_pp_in_centroid_t *pInput,
 147:../../Middlewares/lib_vision_models_pp/lib_vision_models_pp/Src/mpe_pp_yolov8.c ****                                       mpe_pp_out_t *pOutput,
 148:../../Middlewares/lib_vision_models_pp/lib_vision_models_pp/Src/mpe_pp_yolov8.c ****                                       mpe_yolov8_pp_static_param_t *pInput_static_param)
 149:../../Middlewares/lib_vision_models_pp/lib_vision_models_pp/Src/mpe_pp_yolov8.c **** {
 150:../../Middlewares/lib_vision_models_pp/lib_vision_models_pp/Src/mpe_pp_yolov8.c ****     int32_t error   = AI_VISION_MODELS_PP_ERROR_NO;
 151:../../Middlewares/lib_vision_models_pp/lib_vision_models_pp/Src/mpe_pp_yolov8.c ****     int32_t nb_classes = pInput_static_param->nb_classes;
 152:../../Middlewares/lib_vision_models_pp/lib_vision_models_pp/Src/mpe_pp_yolov8.c ****     int32_t nb_total_boxes = pInput_static_param->nb_total_boxes;
 153:../../Middlewares/lib_vision_models_pp/lib_vision_models_pp/Src/mpe_pp_yolov8.c ****     float32_t *pRaw_detections = (float32_t *)pInput->pRaw_detections;
 154:../../Middlewares/lib_vision_models_pp/lib_vision_models_pp/Src/mpe_pp_yolov8.c ****     int32_t remaining_boxes = nb_total_boxes;
 155:../../Middlewares/lib_vision_models_pp/lib_vision_models_pp/Src/mpe_pp_yolov8.c **** 
 156:../../Middlewares/lib_vision_models_pp/lib_vision_models_pp/Src/mpe_pp_yolov8.c ****     pInput_static_param->nb_detect =0;
 157:../../Middlewares/lib_vision_models_pp/lib_vision_models_pp/Src/mpe_pp_yolov8.c ****     for (int32_t i = 0; i < nb_total_boxes; i+=4)
 158:../../Middlewares/lib_vision_models_pp/lib_vision_models_pp/Src/mpe_pp_yolov8.c ****     {
 159:../../Middlewares/lib_vision_models_pp/lib_vision_models_pp/Src/mpe_pp_yolov8.c ****         float32_t best_score_array[4];
 160:../../Middlewares/lib_vision_models_pp/lib_vision_models_pp/Src/mpe_pp_yolov8.c ****         uint32_t class_index_array[4];
 161:../../Middlewares/lib_vision_models_pp/lib_vision_models_pp/Src/mpe_pp_yolov8.c **** 
 162:../../Middlewares/lib_vision_models_pp/lib_vision_models_pp/Src/mpe_pp_yolov8.c ****         vision_models_maxi_tr_p_if32ou32(&pRaw_detections[i + AI_YOLOV8_PP_CLASSPROB * nb_total_box
 163:../../Middlewares/lib_vision_models_pp/lib_vision_models_pp/Src/mpe_pp_yolov8.c ****                                          nb_classes,
 164:../../Middlewares/lib_vision_models_pp/lib_vision_models_pp/Src/mpe_pp_yolov8.c ****                                          nb_total_boxes,
 165:../../Middlewares/lib_vision_models_pp/lib_vision_models_pp/Src/mpe_pp_yolov8.c ****                                          best_score_array,
 166:../../Middlewares/lib_vision_models_pp/lib_vision_models_pp/Src/mpe_pp_yolov8.c ****                                          class_index_array,
 167:../../Middlewares/lib_vision_models_pp/lib_vision_models_pp/Src/mpe_pp_yolov8.c ****                                          remaining_boxes);
 168:../../Middlewares/lib_vision_models_pp/lib_vision_models_pp/Src/mpe_pp_yolov8.c ****         for (int _i = 0; _i < ((remaining_boxes>4)?4:remaining_boxes); _i++) {
 169:../../Middlewares/lib_vision_models_pp/lib_vision_models_pp/Src/mpe_pp_yolov8.c **** 
 170:../../Middlewares/lib_vision_models_pp/lib_vision_models_pp/Src/mpe_pp_yolov8.c ****             if (best_score_array[_i] >= pInput_static_param->conf_threshold)
 171:../../Middlewares/lib_vision_models_pp/lib_vision_models_pp/Src/mpe_pp_yolov8.c ****             {
 172:../../Middlewares/lib_vision_models_pp/lib_vision_models_pp/Src/mpe_pp_yolov8.c ****                 pOutput->pOutBuff[pInput_static_param->nb_detect].x_center = pRaw_detections[i + _i
 173:../../Middlewares/lib_vision_models_pp/lib_vision_models_pp/Src/mpe_pp_yolov8.c ****                 pOutput->pOutBuff[pInput_static_param->nb_detect].y_center = pRaw_detections[i + _i
 174:../../Middlewares/lib_vision_models_pp/lib_vision_models_pp/Src/mpe_pp_yolov8.c ****                 pOutput->pOutBuff[pInput_static_param->nb_detect].width = pRaw_detections[i + _i + 
 175:../../Middlewares/lib_vision_models_pp/lib_vision_models_pp/Src/mpe_pp_yolov8.c ****                 pOutput->pOutBuff[pInput_static_param->nb_detect].height = pRaw_detections[i + _i +
 176:../../Middlewares/lib_vision_models_pp/lib_vision_models_pp/Src/mpe_pp_yolov8.c ****                 pOutput->pOutBuff[pInput_static_param->nb_detect].conf = best_score_array[_i];
 177:../../Middlewares/lib_vision_models_pp/lib_vision_models_pp/Src/mpe_pp_yolov8.c ****                 pOutput->pOutBuff[pInput_static_param->nb_detect].class_index = class_index_array[_
 178:../../Middlewares/lib_vision_models_pp/lib_vision_models_pp/Src/mpe_pp_yolov8.c ****                 for (uint32_t j = 0; j <  pInput_static_param->nb_keypoints; j++)
 179:../../Middlewares/lib_vision_models_pp/lib_vision_models_pp/Src/mpe_pp_yolov8.c ****                 {
 180:../../Middlewares/lib_vision_models_pp/lib_vision_models_pp/Src/mpe_pp_yolov8.c ****                     pOutput->pOutBuff[pInput_static_param->nb_detect].keyPoints[j].x    = pRaw_dete
 181:../../Middlewares/lib_vision_models_pp/lib_vision_models_pp/Src/mpe_pp_yolov8.c ****                     pOutput->pOutBuff[pInput_static_param->nb_detect].keyPoints[j].y    = pRaw_dete
 182:../../Middlewares/lib_vision_models_pp/lib_vision_models_pp/Src/mpe_pp_yolov8.c ****                     pOutput->pOutBuff[pInput_static_param->nb_detect].keyPoints[j].conf = pRaw_dete
 183:../../Middlewares/lib_vision_models_pp/lib_vision_models_pp/Src/mpe_pp_yolov8.c ****                 }
 184:../../Middlewares/lib_vision_models_pp/lib_vision_models_pp/Src/mpe_pp_yolov8.c ****                 pInput_static_param->nb_detect++;
 185:../../Middlewares/lib_vision_models_pp/lib_vision_models_pp/Src/mpe_pp_yolov8.c ****             }
 186:../../Middlewares/lib_vision_models_pp/lib_vision_models_pp/Src/mpe_pp_yolov8.c ****         }
 187:../../Middlewares/lib_vision_models_pp/lib_vision_models_pp/Src/mpe_pp_yolov8.c ****         remaining_boxes-=4;
 188:../../Middlewares/lib_vision_models_pp/lib_vision_models_pp/Src/mpe_pp_yolov8.c ****     }
 189:../../Middlewares/lib_vision_models_pp/lib_vision_models_pp/Src/mpe_pp_yolov8.c **** 
 190:../../Middlewares/lib_vision_models_pp/lib_vision_models_pp/Src/mpe_pp_yolov8.c ****     return (error);
ARM GAS  C:\Users\Antonio\AppData\Local\Temp\cccQQj0s.s 			page 17


 191:../../Middlewares/lib_vision_models_pp/lib_vision_models_pp/Src/mpe_pp_yolov8.c **** }
 192:../../Middlewares/lib_vision_models_pp/lib_vision_models_pp/Src/mpe_pp_yolov8.c **** #else
 193:../../Middlewares/lib_vision_models_pp/lib_vision_models_pp/Src/mpe_pp_yolov8.c **** int32_t mpe_yolo_pp_getNNBoxes_centroid(mpe_yolov8_pp_in_centroid_t *pInput,
 194:../../Middlewares/lib_vision_models_pp/lib_vision_models_pp/Src/mpe_pp_yolov8.c ****                                       mpe_pp_out_t *pOutput,
 195:../../Middlewares/lib_vision_models_pp/lib_vision_models_pp/Src/mpe_pp_yolov8.c ****                                       mpe_yolov8_pp_static_param_t *pInput_static_param)
 196:../../Middlewares/lib_vision_models_pp/lib_vision_models_pp/Src/mpe_pp_yolov8.c **** {
 586              		.loc 1 196 1 is_stmt 1 view -0
 587              		.cfi_startproc
 588              		@ args = 0, pretend = 0, frame = 32
 589              		@ frame_needed = 0, uses_anonymous_args = 0
 197:../../Middlewares/lib_vision_models_pp/lib_vision_models_pp/Src/mpe_pp_yolov8.c ****     int32_t error   = AI_VISION_MODELS_PP_ERROR_NO;
 590              		.loc 1 197 5 view .LVU186
 198:../../Middlewares/lib_vision_models_pp/lib_vision_models_pp/Src/mpe_pp_yolov8.c ****     float32_t best_score = 0;
 591              		.loc 1 198 5 view .LVU187
 592              		.loc 1 198 15 is_stmt 0 view .LVU188
 593 0000 0023     		movs	r3, #0
 196:../../Middlewares/lib_vision_models_pp/lib_vision_models_pp/Src/mpe_pp_yolov8.c ****     int32_t error   = AI_VISION_MODELS_PP_ERROR_NO;
 594              		.loc 1 196 1 view .LVU189
 595 0002 2DE9F04F 		push	{r4, r5, r6, r7, r8, r9, r10, fp, lr}
 596              		.cfi_def_cfa_offset 36
 597              		.cfi_offset 4, -36
 598              		.cfi_offset 5, -32
 599              		.cfi_offset 6, -28
 600              		.cfi_offset 7, -24
 601              		.cfi_offset 8, -20
 602              		.cfi_offset 9, -16
 603              		.cfi_offset 10, -12
 604              		.cfi_offset 11, -8
 605              		.cfi_offset 14, -4
 606 0006 4FF00C0A 		mov	r10, #12
 199:../../Middlewares/lib_vision_models_pp/lib_vision_models_pp/Src/mpe_pp_yolov8.c ****     uint32_t class_index = 0;
 607              		.loc 1 199 14 view .LVU190
 608 000a 0027     		movs	r7, #0
 196:../../Middlewares/lib_vision_models_pp/lib_vision_models_pp/Src/mpe_pp_yolov8.c ****     int32_t error   = AI_VISION_MODELS_PP_ERROR_NO;
 609              		.loc 1 196 1 view .LVU191
 610 000c 1446     		mov	r4, r2
 611 000e 8BB0     		sub	sp, sp, #44
 612              		.cfi_def_cfa_offset 80
 200:../../Middlewares/lib_vision_models_pp/lib_vision_models_pp/Src/mpe_pp_yolov8.c ****     int32_t nb_classes = pInput_static_param->nb_classes;
 201:../../Middlewares/lib_vision_models_pp/lib_vision_models_pp/Src/mpe_pp_yolov8.c ****     int32_t nb_total_boxes = pInput_static_param->nb_total_boxes;
 613              		.loc 1 201 13 view .LVU192
 614 0010 5668     		ldr	r6, [r2, #4]
 198:../../Middlewares/lib_vision_models_pp/lib_vision_models_pp/Src/mpe_pp_yolov8.c ****     uint32_t class_index = 0;
 615              		.loc 1 198 15 view .LVU193
 616 0012 0893     		str	r3, [sp, #32]	@ float
 199:../../Middlewares/lib_vision_models_pp/lib_vision_models_pp/Src/mpe_pp_yolov8.c ****     uint32_t class_index = 0;
 617              		.loc 1 199 5 is_stmt 1 view .LVU194
 200:../../Middlewares/lib_vision_models_pp/lib_vision_models_pp/Src/mpe_pp_yolov8.c ****     int32_t nb_classes = pInput_static_param->nb_classes;
 618              		.loc 1 200 13 is_stmt 0 view .LVU195
 619 0014 1368     		ldr	r3, [r2]
 202:../../Middlewares/lib_vision_models_pp/lib_vision_models_pp/Src/mpe_pp_yolov8.c ****     float32_t *pRaw_detections = (float32_t *)pInput->pRaw_detections;
 620              		.loc 1 202 16 view .LVU196
 621 0016 0568     		ldr	r5, [r0]
 200:../../Middlewares/lib_vision_models_pp/lib_vision_models_pp/Src/mpe_pp_yolov8.c ****     int32_t nb_classes = pInput_static_param->nb_classes;
 622              		.loc 1 200 13 view .LVU197
 623 0018 0493     		str	r3, [sp, #16]
 624              	.LBB26:
ARM GAS  C:\Users\Antonio\AppData\Local\Temp\cccQQj0s.s 			page 18


 203:../../Middlewares/lib_vision_models_pp/lib_vision_models_pp/Src/mpe_pp_yolov8.c **** 
 204:../../Middlewares/lib_vision_models_pp/lib_vision_models_pp/Src/mpe_pp_yolov8.c ****     pInput_static_param->nb_detect =0;
 205:../../Middlewares/lib_vision_models_pp/lib_vision_models_pp/Src/mpe_pp_yolov8.c ****     for (int32_t i = 0; i < nb_total_boxes; i++)
 206:../../Middlewares/lib_vision_models_pp/lib_vision_models_pp/Src/mpe_pp_yolov8.c ****     {
 207:../../Middlewares/lib_vision_models_pp/lib_vision_models_pp/Src/mpe_pp_yolov8.c ****         vision_models_maxi_tr_if32ou32(&pRaw_detections[i + AI_YOLOV8_PP_CLASSPROB * nb_total_boxes
 625              		.loc 1 207 84 view .LVU198
 626 001a B300     		lsls	r3, r6, #2
 627 001c 0593     		str	r3, [sp, #20]
 628 001e 3301     		lsls	r3, r6, #4
 629 0020 0293     		str	r3, [sp, #8]
 630 0022 0AFB06F3 		mul	r3, r10, r6
 631              	.LBE26:
 196:../../Middlewares/lib_vision_models_pp/lib_vision_models_pp/Src/mpe_pp_yolov8.c ****     int32_t error   = AI_VISION_MODELS_PP_ERROR_NO;
 632              		.loc 1 196 1 view .LVU199
 633 0026 0791     		str	r1, [sp, #28]
 199:../../Middlewares/lib_vision_models_pp/lib_vision_models_pp/Src/mpe_pp_yolov8.c ****     int32_t nb_classes = pInput_static_param->nb_classes;
 634              		.loc 1 199 14 view .LVU200
 635 0028 0997     		str	r7, [sp, #36]
 200:../../Middlewares/lib_vision_models_pp/lib_vision_models_pp/Src/mpe_pp_yolov8.c ****     int32_t nb_total_boxes = pInput_static_param->nb_total_boxes;
 636              		.loc 1 200 5 is_stmt 1 view .LVU201
 637              	.LVL47:
 201:../../Middlewares/lib_vision_models_pp/lib_vision_models_pp/Src/mpe_pp_yolov8.c ****     float32_t *pRaw_detections = (float32_t *)pInput->pRaw_detections;
 638              		.loc 1 201 5 view .LVU202
 202:../../Middlewares/lib_vision_models_pp/lib_vision_models_pp/Src/mpe_pp_yolov8.c **** 
 639              		.loc 1 202 5 view .LVU203
 204:../../Middlewares/lib_vision_models_pp/lib_vision_models_pp/Src/mpe_pp_yolov8.c ****     for (int32_t i = 0; i < nb_total_boxes; i++)
 640              		.loc 1 204 5 view .LVU204
 204:../../Middlewares/lib_vision_models_pp/lib_vision_models_pp/Src/mpe_pp_yolov8.c ****     for (int32_t i = 0; i < nb_total_boxes; i++)
 641              		.loc 1 204 36 is_stmt 0 view .LVU205
 642 002a 5761     		str	r7, [r2, #20]
 205:../../Middlewares/lib_vision_models_pp/lib_vision_models_pp/Src/mpe_pp_yolov8.c ****     {
 643              		.loc 1 205 5 is_stmt 1 view .LVU206
 644              	.LBB30:
 205:../../Middlewares/lib_vision_models_pp/lib_vision_models_pp/Src/mpe_pp_yolov8.c ****     {
 645              		.loc 1 205 10 view .LVU207
 646              	.LVL48:
 205:../../Middlewares/lib_vision_models_pp/lib_vision_models_pp/Src/mpe_pp_yolov8.c ****     {
 647              		.loc 1 205 10 is_stmt 0 view .LVU208
 648 002c 05EB8608 		add	r8, r5, r6, lsl #2
 649 0030 4FEAC609 		lsl	r9, r6, #3
 650 0034 0693     		str	r3, [sp, #24]
 651              	.LVL49:
 652              	.L45:
 205:../../Middlewares/lib_vision_models_pp/lib_vision_models_pp/Src/mpe_pp_yolov8.c ****     {
 653              		.loc 1 205 27 is_stmt 1 discriminator 1 view .LVU209
 654 0036 B742     		cmp	r7, r6
 655 0038 03DB     		blt	.L50
 656              	.LBE30:
 208:../../Middlewares/lib_vision_models_pp/lib_vision_models_pp/Src/mpe_pp_yolov8.c ****                                  nb_classes,
 209:../../Middlewares/lib_vision_models_pp/lib_vision_models_pp/Src/mpe_pp_yolov8.c ****                                  nb_total_boxes,
 210:../../Middlewares/lib_vision_models_pp/lib_vision_models_pp/Src/mpe_pp_yolov8.c ****                                  &best_score,
 211:../../Middlewares/lib_vision_models_pp/lib_vision_models_pp/Src/mpe_pp_yolov8.c ****                                  &class_index);
 212:../../Middlewares/lib_vision_models_pp/lib_vision_models_pp/Src/mpe_pp_yolov8.c **** 
 213:../../Middlewares/lib_vision_models_pp/lib_vision_models_pp/Src/mpe_pp_yolov8.c ****         if (best_score >= pInput_static_param->conf_threshold)
 214:../../Middlewares/lib_vision_models_pp/lib_vision_models_pp/Src/mpe_pp_yolov8.c ****         {
 215:../../Middlewares/lib_vision_models_pp/lib_vision_models_pp/Src/mpe_pp_yolov8.c ****             pOutput->pOutBuff[pInput_static_param->nb_detect].x_center = pRaw_detections[i + AI_YOL
 216:../../Middlewares/lib_vision_models_pp/lib_vision_models_pp/Src/mpe_pp_yolov8.c ****             pOutput->pOutBuff[pInput_static_param->nb_detect].y_center = pRaw_detections[i + AI_YOL
ARM GAS  C:\Users\Antonio\AppData\Local\Temp\cccQQj0s.s 			page 19


 217:../../Middlewares/lib_vision_models_pp/lib_vision_models_pp/Src/mpe_pp_yolov8.c ****             pOutput->pOutBuff[pInput_static_param->nb_detect].width = pRaw_detections[i + AI_YOLOV8
 218:../../Middlewares/lib_vision_models_pp/lib_vision_models_pp/Src/mpe_pp_yolov8.c ****             pOutput->pOutBuff[pInput_static_param->nb_detect].height = pRaw_detections[i + AI_YOLOV
 219:../../Middlewares/lib_vision_models_pp/lib_vision_models_pp/Src/mpe_pp_yolov8.c ****             pOutput->pOutBuff[pInput_static_param->nb_detect].conf = best_score;
 220:../../Middlewares/lib_vision_models_pp/lib_vision_models_pp/Src/mpe_pp_yolov8.c ****             pOutput->pOutBuff[pInput_static_param->nb_detect].class_index = class_index;
 221:../../Middlewares/lib_vision_models_pp/lib_vision_models_pp/Src/mpe_pp_yolov8.c ****             for (uint32_t j = 0; j < pInput_static_param->nb_keypoints; j++)
 222:../../Middlewares/lib_vision_models_pp/lib_vision_models_pp/Src/mpe_pp_yolov8.c ****             {
 223:../../Middlewares/lib_vision_models_pp/lib_vision_models_pp/Src/mpe_pp_yolov8.c ****                 pOutput->pOutBuff[pInput_static_param->nb_detect].pKeyPoints[j].x = pRaw_detections
 224:../../Middlewares/lib_vision_models_pp/lib_vision_models_pp/Src/mpe_pp_yolov8.c ****                 pOutput->pOutBuff[pInput_static_param->nb_detect].pKeyPoints[j].y = pRaw_detections
 225:../../Middlewares/lib_vision_models_pp/lib_vision_models_pp/Src/mpe_pp_yolov8.c ****                 pOutput->pOutBuff[pInput_static_param->nb_detect].pKeyPoints[j].conf = pRaw_detecti
 226:../../Middlewares/lib_vision_models_pp/lib_vision_models_pp/Src/mpe_pp_yolov8.c ****             }
 227:../../Middlewares/lib_vision_models_pp/lib_vision_models_pp/Src/mpe_pp_yolov8.c ****             pInput_static_param->nb_detect++;
 228:../../Middlewares/lib_vision_models_pp/lib_vision_models_pp/Src/mpe_pp_yolov8.c ****         }
 229:../../Middlewares/lib_vision_models_pp/lib_vision_models_pp/Src/mpe_pp_yolov8.c ****     }
 230:../../Middlewares/lib_vision_models_pp/lib_vision_models_pp/Src/mpe_pp_yolov8.c **** 
 231:../../Middlewares/lib_vision_models_pp/lib_vision_models_pp/Src/mpe_pp_yolov8.c ****     return (error);
 657              		.loc 1 231 5 view .LVU210
 232:../../Middlewares/lib_vision_models_pp/lib_vision_models_pp/Src/mpe_pp_yolov8.c **** }
 658              		.loc 1 232 1 is_stmt 0 view .LVU211
 659 003a 0020     		movs	r0, #0
 660 003c 0BB0     		add	sp, sp, #44
 661              		.cfi_remember_state
 662              		.cfi_def_cfa_offset 36
 663              		@ sp needed
 664 003e BDE8F08F 		pop	{r4, r5, r6, r7, r8, r9, r10, fp, pc}
 665              	.LVL50:
 666              	.L50:
 667              		.cfi_restore_state
 668              	.LBB31:
 207:../../Middlewares/lib_vision_models_pp/lib_vision_models_pp/Src/mpe_pp_yolov8.c ****                                  nb_classes,
 669              		.loc 1 207 9 is_stmt 1 view .LVU212
 670 0042 0298     		ldr	r0, [sp, #8]
 671 0044 09AB     		add	r3, sp, #36
 672 0046 0093     		str	r3, [sp]
 673 0048 3246     		mov	r2, r6
 674 004a 0499     		ldr	r1, [sp, #16]
 675 004c 08AB     		add	r3, sp, #32
 676 004e 2818     		adds	r0, r5, r0
 677 0050 FFF7FEFF 		bl	vision_models_maxi_tr_if32ou32
 678              	.LVL51:
 213:../../Middlewares/lib_vision_models_pp/lib_vision_models_pp/Src/mpe_pp_yolov8.c ****         {
 679              		.loc 1 213 9 view .LVU213
 213:../../Middlewares/lib_vision_models_pp/lib_vision_models_pp/Src/mpe_pp_yolov8.c ****         {
 680              		.loc 1 213 24 is_stmt 0 view .LVU214
 681 0054 DDED087A 		vldr.32	s15, [sp, #32]
 213:../../Middlewares/lib_vision_models_pp/lib_vision_models_pp/Src/mpe_pp_yolov8.c ****         {
 682              		.loc 1 213 12 view .LVU215
 683 0058 94ED037A 		vldr.32	s14, [r4, #12]
 684 005c B4EEE77A 		vcmpe.f32	s14, s15
 685 0060 F1EE10FA 		vmrs	APSR_nzcv, FPSCR
 686 0064 25D8     		bhi	.L46
 215:../../Middlewares/lib_vision_models_pp/lib_vision_models_pp/Src/mpe_pp_yolov8.c ****             pOutput->pOutBuff[pInput_static_param->nb_detect].y_center = pRaw_detections[i + AI_YOL
 687              		.loc 1 215 13 is_stmt 1 view .LVU216
 215:../../Middlewares/lib_vision_models_pp/lib_vision_models_pp/Src/mpe_pp_yolov8.c ****             pOutput->pOutBuff[pInput_static_param->nb_detect].y_center = pRaw_detections[i + AI_YOL
 688              		.loc 1 215 30 is_stmt 0 view .LVU217
 689 0066 1C22     		movs	r2, #28
 690 0068 079B     		ldr	r3, [sp, #28]
 215:../../Middlewares/lib_vision_models_pp/lib_vision_models_pp/Src/mpe_pp_yolov8.c ****             pOutput->pOutBuff[pInput_static_param->nb_detect].y_center = pRaw_detections[i + AI_YOL
ARM GAS  C:\Users\Antonio\AppData\Local\Temp\cccQQj0s.s 			page 20


 691              		.loc 1 215 50 view .LVU218
 692 006a D4F814C0 		ldr	ip, [r4, #20]
 215:../../Middlewares/lib_vision_models_pp/lib_vision_models_pp/Src/mpe_pp_yolov8.c ****             pOutput->pOutBuff[pInput_static_param->nb_detect].y_center = pRaw_detections[i + AI_YOL
 693              		.loc 1 215 30 view .LVU219
 694 006e 1B68     		ldr	r3, [r3]
 695              	.LBB27:
 221:../../Middlewares/lib_vision_models_pp/lib_vision_models_pp/Src/mpe_pp_yolov8.c ****             {
 696              		.loc 1 221 27 view .LVU220
 697 0070 4FF0000E 		mov	lr, #0
 698              	.LBE27:
 215:../../Middlewares/lib_vision_models_pp/lib_vision_models_pp/Src/mpe_pp_yolov8.c ****             pOutput->pOutBuff[pInput_static_param->nb_detect].y_center = pRaw_detections[i + AI_YOL
 699              		.loc 1 215 30 view .LVU221
 700 0074 02FB0C33 		mla	r3, r2, ip, r3
 215:../../Middlewares/lib_vision_models_pp/lib_vision_models_pp/Src/mpe_pp_yolov8.c ****             pOutput->pOutBuff[pInput_static_param->nb_detect].y_center = pRaw_detections[i + AI_YOL
 701              		.loc 1 215 89 view .LVU222
 702 0078 2A68     		ldr	r2, [r5]	@ float
 703 007a 0299     		ldr	r1, [sp, #8]
 215:../../Middlewares/lib_vision_models_pp/lib_vision_models_pp/Src/mpe_pp_yolov8.c ****             pOutput->pOutBuff[pInput_static_param->nb_detect].y_center = pRaw_detections[i + AI_YOL
 704              		.loc 1 215 72 view .LVU223
 705 007c 1A60     		str	r2, [r3]	@ float
 216:../../Middlewares/lib_vision_models_pp/lib_vision_models_pp/Src/mpe_pp_yolov8.c ****             pOutput->pOutBuff[pInput_static_param->nb_detect].width = pRaw_detections[i + AI_YOLOV8
 706              		.loc 1 216 13 is_stmt 1 view .LVU224
 216:../../Middlewares/lib_vision_models_pp/lib_vision_models_pp/Src/mpe_pp_yolov8.c ****             pOutput->pOutBuff[pInput_static_param->nb_detect].width = pRaw_detections[i + AI_YOLOV8
 707              		.loc 1 216 89 is_stmt 0 view .LVU225
 708 007e D8F80020 		ldr	r2, [r8]	@ float
 709 0082 4144     		add	r1, r8, r1
 216:../../Middlewares/lib_vision_models_pp/lib_vision_models_pp/Src/mpe_pp_yolov8.c ****             pOutput->pOutBuff[pInput_static_param->nb_detect].width = pRaw_detections[i + AI_YOLOV8
 710              		.loc 1 216 72 view .LVU226
 711 0084 5A60     		str	r2, [r3, #4]	@ float
 217:../../Middlewares/lib_vision_models_pp/lib_vision_models_pp/Src/mpe_pp_yolov8.c ****             pOutput->pOutBuff[pInput_static_param->nb_detect].height = pRaw_detections[i + AI_YOLOV
 712              		.loc 1 217 13 is_stmt 1 view .LVU227
 217:../../Middlewares/lib_vision_models_pp/lib_vision_models_pp/Src/mpe_pp_yolov8.c ****             pOutput->pOutBuff[pInput_static_param->nb_detect].height = pRaw_detections[i + AI_YOLOV
 713              		.loc 1 217 86 is_stmt 0 view .LVU228
 714 0086 05EB0902 		add	r2, r5, r9
 715 008a 1268     		ldr	r2, [r2]	@ float
 217:../../Middlewares/lib_vision_models_pp/lib_vision_models_pp/Src/mpe_pp_yolov8.c ****             pOutput->pOutBuff[pInput_static_param->nb_detect].height = pRaw_detections[i + AI_YOLOV
 716              		.loc 1 217 69 view .LVU229
 717 008c 9A60     		str	r2, [r3, #8]	@ float
 218:../../Middlewares/lib_vision_models_pp/lib_vision_models_pp/Src/mpe_pp_yolov8.c ****             pOutput->pOutBuff[pInput_static_param->nb_detect].conf = best_score;
 718              		.loc 1 218 13 is_stmt 1 view .LVU230
 218:../../Middlewares/lib_vision_models_pp/lib_vision_models_pp/Src/mpe_pp_yolov8.c ****             pOutput->pOutBuff[pInput_static_param->nb_detect].conf = best_score;
 719              		.loc 1 218 87 is_stmt 0 view .LVU231
 720 008e 08EB0902 		add	r2, r8, r9
 721 0092 1268     		ldr	r2, [r2]	@ float
 219:../../Middlewares/lib_vision_models_pp/lib_vision_models_pp/Src/mpe_pp_yolov8.c ****             pOutput->pOutBuff[pInput_static_param->nb_detect].class_index = class_index;
 722              		.loc 1 219 68 view .LVU232
 723 0094 C3ED047A 		vstr.32	s15, [r3, #16]
 218:../../Middlewares/lib_vision_models_pp/lib_vision_models_pp/Src/mpe_pp_yolov8.c ****             pOutput->pOutBuff[pInput_static_param->nb_detect].conf = best_score;
 724              		.loc 1 218 70 view .LVU233
 725 0098 DA60     		str	r2, [r3, #12]	@ float
 219:../../Middlewares/lib_vision_models_pp/lib_vision_models_pp/Src/mpe_pp_yolov8.c ****             pOutput->pOutBuff[pInput_static_param->nb_detect].class_index = class_index;
 726              		.loc 1 219 13 is_stmt 1 view .LVU234
 220:../../Middlewares/lib_vision_models_pp/lib_vision_models_pp/Src/mpe_pp_yolov8.c ****             for (uint32_t j = 0; j < pInput_static_param->nb_keypoints; j++)
 727              		.loc 1 220 13 view .LVU235
 220:../../Middlewares/lib_vision_models_pp/lib_vision_models_pp/Src/mpe_pp_yolov8.c ****             for (uint32_t j = 0; j < pInput_static_param->nb_keypoints; j++)
 728              		.loc 1 220 75 is_stmt 0 view .LVU236
 729 009a 099A     		ldr	r2, [sp, #36]
ARM GAS  C:\Users\Antonio\AppData\Local\Temp\cccQQj0s.s 			page 21


 730 009c 5A61     		str	r2, [r3, #20]
 221:../../Middlewares/lib_vision_models_pp/lib_vision_models_pp/Src/mpe_pp_yolov8.c ****             {
 731              		.loc 1 221 13 is_stmt 1 view .LVU237
 732              	.LBB28:
 221:../../Middlewares/lib_vision_models_pp/lib_vision_models_pp/Src/mpe_pp_yolov8.c ****             {
 733              		.loc 1 221 18 view .LVU238
 734              	.LVL52:
 221:../../Middlewares/lib_vision_models_pp/lib_vision_models_pp/Src/mpe_pp_yolov8.c ****             {
 735              		.loc 1 221 57 is_stmt 0 discriminator 1 view .LVU239
 736 009e A269     		ldr	r2, [r4, #24]
 223:../../Middlewares/lib_vision_models_pp/lib_vision_models_pp/Src/mpe_pp_yolov8.c ****                 pOutput->pOutBuff[pInput_static_param->nb_detect].pKeyPoints[j].y = pRaw_detections
 737              		.loc 1 223 77 view .LVU240
 738 00a0 0132     		adds	r2, r2, #1
 739 00a2 0392     		str	r2, [sp, #12]
 740              	.LVL53:
 741              	.L48:
 221:../../Middlewares/lib_vision_models_pp/lib_vision_models_pp/Src/mpe_pp_yolov8.c ****             {
 742              		.loc 1 221 36 is_stmt 1 discriminator 1 view .LVU241
 743 00a4 039A     		ldr	r2, [sp, #12]
 744 00a6 013A     		subs	r2, r2, #1
 745 00a8 0392     		str	r2, [sp, #12]
 746 00aa 07D1     		bne	.L49
 747              	.LBE28:
 227:../../Middlewares/lib_vision_models_pp/lib_vision_models_pp/Src/mpe_pp_yolov8.c ****         }
 748              		.loc 1 227 13 view .LVU242
 227:../../Middlewares/lib_vision_models_pp/lib_vision_models_pp/Src/mpe_pp_yolov8.c ****         }
 749              		.loc 1 227 43 is_stmt 0 view .LVU243
 750 00ac 0CF10103 		add	r3, ip, #1
 751 00b0 6361     		str	r3, [r4, #20]
 752              	.LVL54:
 753              	.L46:
 205:../../Middlewares/lib_vision_models_pp/lib_vision_models_pp/Src/mpe_pp_yolov8.c ****     {
 754              		.loc 1 205 46 is_stmt 1 discriminator 2 view .LVU244
 755 00b2 0137     		adds	r7, r7, #1
 756              	.LVL55:
 205:../../Middlewares/lib_vision_models_pp/lib_vision_models_pp/Src/mpe_pp_yolov8.c ****     {
 757              		.loc 1 205 46 is_stmt 0 discriminator 2 view .LVU245
 758 00b4 0435     		adds	r5, r5, #4
 759 00b6 08F10408 		add	r8, r8, #4
 760 00ba BCE7     		b	.L45
 761              	.LVL56:
 762              	.L49:
 763              	.LBB29:
 223:../../Middlewares/lib_vision_models_pp/lib_vision_models_pp/Src/mpe_pp_yolov8.c ****                 pOutput->pOutBuff[pInput_static_param->nb_detect].pKeyPoints[j].y = pRaw_detections
 764              		.loc 1 223 17 is_stmt 1 view .LVU246
 223:../../Middlewares/lib_vision_models_pp/lib_vision_models_pp/Src/mpe_pp_yolov8.c ****                 pOutput->pOutBuff[pInput_static_param->nb_detect].pKeyPoints[j].y = pRaw_detections
 765              		.loc 1 223 77 is_stmt 0 view .LVU247
 766 00bc 9869     		ldr	r0, [r3, #24]
 223:../../Middlewares/lib_vision_models_pp/lib_vision_models_pp/Src/mpe_pp_yolov8.c ****                 pOutput->pOutBuff[pInput_static_param->nb_detect].pKeyPoints[j].y = pRaw_detections
 767              		.loc 1 223 100 view .LVU248
 768 00be D1F800B0 		ldr	fp, [r1]	@ float
 223:../../Middlewares/lib_vision_models_pp/lib_vision_models_pp/Src/mpe_pp_yolov8.c ****                 pOutput->pOutBuff[pInput_static_param->nb_detect].pKeyPoints[j].y = pRaw_detections
 769              		.loc 1 223 77 view .LVU249
 770 00c2 0AFB0E00 		mla	r0, r10, lr, r0
 224:../../Middlewares/lib_vision_models_pp/lib_vision_models_pp/Src/mpe_pp_yolov8.c ****                 pOutput->pOutBuff[pInput_static_param->nb_detect].pKeyPoints[j].conf = pRaw_detecti
 771              		.loc 1 224 100 view .LVU250
 772 00c6 059A     		ldr	r2, [sp, #20]
ARM GAS  C:\Users\Antonio\AppData\Local\Temp\cccQQj0s.s 			page 22


 223:../../Middlewares/lib_vision_models_pp/lib_vision_models_pp/Src/mpe_pp_yolov8.c ****                 pOutput->pOutBuff[pInput_static_param->nb_detect].pKeyPoints[j].y = pRaw_detections
 773              		.loc 1 223 83 view .LVU251
 774 00c8 C0F800B0 		str	fp, [r0]	@ float
 224:../../Middlewares/lib_vision_models_pp/lib_vision_models_pp/Src/mpe_pp_yolov8.c ****                 pOutput->pOutBuff[pInput_static_param->nb_detect].pKeyPoints[j].conf = pRaw_detecti
 775              		.loc 1 224 17 is_stmt 1 view .LVU252
 224:../../Middlewares/lib_vision_models_pp/lib_vision_models_pp/Src/mpe_pp_yolov8.c ****                 pOutput->pOutBuff[pInput_static_param->nb_detect].pKeyPoints[j].conf = pRaw_detecti
 776              		.loc 1 224 100 is_stmt 0 view .LVU253
 777 00cc 01EB020B 		add	fp, r1, r2
 778 00d0 DBF800B0 		ldr	fp, [fp]	@ float
 779 00d4 069A     		ldr	r2, [sp, #24]
 224:../../Middlewares/lib_vision_models_pp/lib_vision_models_pp/Src/mpe_pp_yolov8.c ****                 pOutput->pOutBuff[pInput_static_param->nb_detect].pKeyPoints[j].conf = pRaw_detecti
 780              		.loc 1 224 83 view .LVU254
 781 00d6 C0F804B0 		str	fp, [r0, #4]	@ float
 225:../../Middlewares/lib_vision_models_pp/lib_vision_models_pp/Src/mpe_pp_yolov8.c ****             }
 782              		.loc 1 225 17 is_stmt 1 view .LVU255
 225:../../Middlewares/lib_vision_models_pp/lib_vision_models_pp/Src/mpe_pp_yolov8.c ****             }
 783              		.loc 1 225 103 is_stmt 0 view .LVU256
 784 00da 01EB090B 		add	fp, r1, r9
 785 00de DBF800B0 		ldr	fp, [fp]	@ float
 221:../../Middlewares/lib_vision_models_pp/lib_vision_models_pp/Src/mpe_pp_yolov8.c ****             {
 786              		.loc 1 221 74 discriminator 3 view .LVU257
 787 00e2 0EF1010E 		add	lr, lr, #1
 788              	.LVL57:
 225:../../Middlewares/lib_vision_models_pp/lib_vision_models_pp/Src/mpe_pp_yolov8.c ****             }
 789              		.loc 1 225 86 view .LVU258
 790 00e6 C0F808B0 		str	fp, [r0, #8]	@ float
 221:../../Middlewares/lib_vision_models_pp/lib_vision_models_pp/Src/mpe_pp_yolov8.c ****             {
 791              		.loc 1 221 74 is_stmt 1 discriminator 3 view .LVU259
 792              	.LVL58:
 221:../../Middlewares/lib_vision_models_pp/lib_vision_models_pp/Src/mpe_pp_yolov8.c ****             {
 793              		.loc 1 221 74 is_stmt 0 discriminator 3 view .LVU260
 794 00ea 1144     		add	r1, r1, r2
 795 00ec DAE7     		b	.L48
 796              	.LBE29:
 797              	.LBE31:
 798              		.cfi_endproc
 799              	.LFE2648:
 801              		.section	.text.mpe_yolov8_pp_reset,"ax",%progbits
 802              		.align	1
 803              		.global	mpe_yolov8_pp_reset
 804              		.syntax unified
 805              		.thumb
 806              		.thumb_func
 808              	mpe_yolov8_pp_reset:
 809              	.LVL59:
 810              	.LFB2649:
 233:../../Middlewares/lib_vision_models_pp/lib_vision_models_pp/Src/mpe_pp_yolov8.c **** #endif
 234:../../Middlewares/lib_vision_models_pp/lib_vision_models_pp/Src/mpe_pp_yolov8.c **** 
 235:../../Middlewares/lib_vision_models_pp/lib_vision_models_pp/Src/mpe_pp_yolov8.c **** /* ----------------------       Exported routines      ---------------------- */
 236:../../Middlewares/lib_vision_models_pp/lib_vision_models_pp/Src/mpe_pp_yolov8.c **** 
 237:../../Middlewares/lib_vision_models_pp/lib_vision_models_pp/Src/mpe_pp_yolov8.c **** int32_t mpe_yolov8_pp_reset(mpe_yolov8_pp_static_param_t *pInput_static_param)
 238:../../Middlewares/lib_vision_models_pp/lib_vision_models_pp/Src/mpe_pp_yolov8.c **** {
 811              		.loc 1 238 1 is_stmt 1 view -0
 812              		.cfi_startproc
 813              		@ args = 0, pretend = 0, frame = 0
 814              		@ frame_needed = 0, uses_anonymous_args = 0
 815              		@ link register save eliminated.
ARM GAS  C:\Users\Antonio\AppData\Local\Temp\cccQQj0s.s 			page 23


 239:../../Middlewares/lib_vision_models_pp/lib_vision_models_pp/Src/mpe_pp_yolov8.c ****     /* Initializations */
 240:../../Middlewares/lib_vision_models_pp/lib_vision_models_pp/Src/mpe_pp_yolov8.c ****     pInput_static_param->nb_detect = 0;
 816              		.loc 1 240 5 view .LVU262
 238:../../Middlewares/lib_vision_models_pp/lib_vision_models_pp/Src/mpe_pp_yolov8.c ****     /* Initializations */
 817              		.loc 1 238 1 is_stmt 0 view .LVU263
 818 0000 0346     		mov	r3, r0
 819              		.loc 1 240 36 view .LVU264
 820 0002 0020     		movs	r0, #0
 821              	.LVL60:
 822              		.loc 1 240 36 view .LVU265
 823 0004 5861     		str	r0, [r3, #20]
 241:../../Middlewares/lib_vision_models_pp/lib_vision_models_pp/Src/mpe_pp_yolov8.c **** 
 242:../../Middlewares/lib_vision_models_pp/lib_vision_models_pp/Src/mpe_pp_yolov8.c ****     return (AI_VISION_MODELS_PP_ERROR_NO);
 824              		.loc 1 242 5 is_stmt 1 view .LVU266
 243:../../Middlewares/lib_vision_models_pp/lib_vision_models_pp/Src/mpe_pp_yolov8.c **** }
 825              		.loc 1 243 1 is_stmt 0 view .LVU267
 826 0006 7047     		bx	lr
 827              		.cfi_endproc
 828              	.LFE2649:
 830              		.section	.text.mpe_yolov8_pp_process,"ax",%progbits
 831              		.align	1
 832              		.global	mpe_yolov8_pp_process
 833              		.syntax unified
 834              		.thumb
 835              		.thumb_func
 837              	mpe_yolov8_pp_process:
 838              	.LVL61:
 839              	.LFB2650:
 244:../../Middlewares/lib_vision_models_pp/lib_vision_models_pp/Src/mpe_pp_yolov8.c **** 
 245:../../Middlewares/lib_vision_models_pp/lib_vision_models_pp/Src/mpe_pp_yolov8.c **** 
 246:../../Middlewares/lib_vision_models_pp/lib_vision_models_pp/Src/mpe_pp_yolov8.c **** int32_t mpe_yolov8_pp_process(mpe_yolov8_pp_in_centroid_t *pInput,
 247:../../Middlewares/lib_vision_models_pp/lib_vision_models_pp/Src/mpe_pp_yolov8.c ****                                 mpe_pp_out_t *pOutput,
 248:../../Middlewares/lib_vision_models_pp/lib_vision_models_pp/Src/mpe_pp_yolov8.c ****                                 mpe_yolov8_pp_static_param_t *pInput_static_param)
 249:../../Middlewares/lib_vision_models_pp/lib_vision_models_pp/Src/mpe_pp_yolov8.c **** {
 840              		.loc 1 249 1 is_stmt 1 view -0
 841              		.cfi_startproc
 842              		@ args = 0, pretend = 0, frame = 0
 843              		@ frame_needed = 0, uses_anonymous_args = 0
 250:../../Middlewares/lib_vision_models_pp/lib_vision_models_pp/Src/mpe_pp_yolov8.c ****     int32_t error   = AI_VISION_MODELS_PP_ERROR_NO;
 844              		.loc 1 250 5 view .LVU269
 251:../../Middlewares/lib_vision_models_pp/lib_vision_models_pp/Src/mpe_pp_yolov8.c **** 
 252:../../Middlewares/lib_vision_models_pp/lib_vision_models_pp/Src/mpe_pp_yolov8.c ****     /* Call Get NN boxes first */
 253:../../Middlewares/lib_vision_models_pp/lib_vision_models_pp/Src/mpe_pp_yolov8.c ****     error = mpe_yolo_pp_getNNBoxes_centroid(pInput,
 845              		.loc 1 253 5 view .LVU270
 249:../../Middlewares/lib_vision_models_pp/lib_vision_models_pp/Src/mpe_pp_yolov8.c ****     int32_t error   = AI_VISION_MODELS_PP_ERROR_NO;
 846              		.loc 1 249 1 is_stmt 0 view .LVU271
 847 0000 38B5     		push	{r3, r4, r5, lr}
 848              		.cfi_def_cfa_offset 16
 849              		.cfi_offset 3, -16
 850              		.cfi_offset 4, -12
 851              		.cfi_offset 5, -8
 852              		.cfi_offset 14, -4
 249:../../Middlewares/lib_vision_models_pp/lib_vision_models_pp/Src/mpe_pp_yolov8.c ****     int32_t error   = AI_VISION_MODELS_PP_ERROR_NO;
 853              		.loc 1 249 1 view .LVU272
 854 0002 0C46     		mov	r4, r1
 855 0004 1546     		mov	r5, r2
 856              		.loc 1 253 13 view .LVU273
ARM GAS  C:\Users\Antonio\AppData\Local\Temp\cccQQj0s.s 			page 24


 857 0006 FFF7FEFF 		bl	mpe_yolo_pp_getNNBoxes_centroid
 858              	.LVL62:
 254:../../Middlewares/lib_vision_models_pp/lib_vision_models_pp/Src/mpe_pp_yolov8.c ****                                           pOutput,
 255:../../Middlewares/lib_vision_models_pp/lib_vision_models_pp/Src/mpe_pp_yolov8.c ****                                           pInput_static_param);
 256:../../Middlewares/lib_vision_models_pp/lib_vision_models_pp/Src/mpe_pp_yolov8.c ****     if (error != AI_VISION_MODELS_PP_ERROR_NO) return (error);
 859              		.loc 1 256 5 is_stmt 1 view .LVU274
 860              		.loc 1 256 8 is_stmt 0 view .LVU275
 861 000a 50B9     		cbnz	r0, .L53
 257:../../Middlewares/lib_vision_models_pp/lib_vision_models_pp/Src/mpe_pp_yolov8.c **** 
 258:../../Middlewares/lib_vision_models_pp/lib_vision_models_pp/Src/mpe_pp_yolov8.c ****     /* Then NMS */
 259:../../Middlewares/lib_vision_models_pp/lib_vision_models_pp/Src/mpe_pp_yolov8.c ****     error = mpe_yolo_pp_nmsFiltering_centroid(pOutput,
 862              		.loc 1 259 5 is_stmt 1 view .LVU276
 863              		.loc 1 259 13 is_stmt 0 view .LVU277
 864 000c 2946     		mov	r1, r5
 865 000e 2046     		mov	r0, r4
 866              	.LVL63:
 867              		.loc 1 259 13 view .LVU278
 868 0010 FFF7FEFF 		bl	mpe_yolo_pp_nmsFiltering_centroid
 869              	.LVL64:
 260:../../Middlewares/lib_vision_models_pp/lib_vision_models_pp/Src/mpe_pp_yolov8.c ****                                             pInput_static_param);
 261:../../Middlewares/lib_vision_models_pp/lib_vision_models_pp/Src/mpe_pp_yolov8.c ****     if (error != AI_VISION_MODELS_PP_ERROR_NO) return (error);
 870              		.loc 1 261 5 is_stmt 1 view .LVU279
 871              		.loc 1 261 8 is_stmt 0 view .LVU280
 872 0014 28B9     		cbnz	r0, .L53
 262:../../Middlewares/lib_vision_models_pp/lib_vision_models_pp/Src/mpe_pp_yolov8.c **** 
 263:../../Middlewares/lib_vision_models_pp/lib_vision_models_pp/Src/mpe_pp_yolov8.c ****     /* And score re-filtering */
 264:../../Middlewares/lib_vision_models_pp/lib_vision_models_pp/Src/mpe_pp_yolov8.c ****     error = mpe_yolo_pp_scoreFiltering_centroid(pOutput,
 873              		.loc 1 264 5 is_stmt 1 view .LVU281
 874              		.loc 1 264 13 is_stmt 0 view .LVU282
 875 0016 2946     		mov	r1, r5
 876 0018 2046     		mov	r0, r4
 877              	.LVL65:
 265:../../Middlewares/lib_vision_models_pp/lib_vision_models_pp/Src/mpe_pp_yolov8.c ****                                               pInput_static_param);
 266:../../Middlewares/lib_vision_models_pp/lib_vision_models_pp/Src/mpe_pp_yolov8.c **** 
 267:../../Middlewares/lib_vision_models_pp/lib_vision_models_pp/Src/mpe_pp_yolov8.c ****     return (error);
 268:../../Middlewares/lib_vision_models_pp/lib_vision_models_pp/Src/mpe_pp_yolov8.c **** }
 878              		.loc 1 268 1 view .LVU283
 879 001a BDE83840 		pop	{r3, r4, r5, lr}
 880              		.cfi_remember_state
 881              		.cfi_restore 14
 882              		.cfi_restore 5
 883              		.cfi_restore 4
 884              		.cfi_restore 3
 885              		.cfi_def_cfa_offset 0
 886              	.LVL66:
 264:../../Middlewares/lib_vision_models_pp/lib_vision_models_pp/Src/mpe_pp_yolov8.c ****                                               pInput_static_param);
 887              		.loc 1 264 13 view .LVU284
 888 001e FFF7FEBF 		b	mpe_yolo_pp_scoreFiltering_centroid
 889              	.LVL67:
 890              	.L53:
 891              		.cfi_restore_state
 892              		.loc 1 268 1 view .LVU285
 893 0022 38BD     		pop	{r3, r4, r5, pc}
 894              		.loc 1 268 1 view .LVU286
 895              		.cfi_endproc
 896              	.LFE2650:
 898              		.section	.bss.AI_YOLOV8_POSE_PP_SORT_CLASS,"aw",%nobits
ARM GAS  C:\Users\Antonio\AppData\Local\Temp\cccQQj0s.s 			page 25


 899              		.align	2
 902              	AI_YOLOV8_POSE_PP_SORT_CLASS:
 903 0000 00000000 		.space	4
 904              		.text
 905              	.Letext0:
 906              		.file 2 "C:\\ST\\STM32CubeIDE_1.19.0\\STM32CubeIDE\\plugins\\com.st.stm32cube.ide.mcu.externaltool
 907              		.file 3 "C:\\ST\\STM32CubeIDE_1.19.0\\STM32CubeIDE\\plugins\\com.st.stm32cube.ide.mcu.externaltool
 908              		.file 4 "C:\\ST\\STM32CubeIDE_1.19.0\\STM32CubeIDE\\plugins\\com.st.stm32cube.ide.mcu.externaltool
 909              		.file 5 "C:\\ST\\STM32CubeIDE_1.19.0\\STM32CubeIDE\\plugins\\com.st.stm32cube.ide.mcu.externaltool
 910              		.file 6 "../../Middlewares/lib_vision_models_pp/lib_vision_models_pp/Inc/mpe_pp_output_if.h"
 911              		.file 7 "../../Middlewares/lib_vision_models_pp/lib_vision_models_pp/Inc/mpe_yolov8_pp_if.h"
 912              		.file 8 "../../Middlewares/lib_vision_models_pp/lib_vision_models_pp/Src/vision_models_pp.h"
ARM GAS  C:\Users\Antonio\AppData\Local\Temp\cccQQj0s.s 			page 26

