ARM GAS  C:\Users\Antonio\AppData\Local\Temp\ccV4ycTn.s 			page 1


   1              		.arch armv8.1-m.main
   2              		.fpu fpv5-d16
   3              		.arch_extension dsp
   4              		.arch_extension fp
   5              		.arch_extension fp.dp
   6              		.arch_extension mve
   7              		.arch_extension mve.fp
   8              		.eabi_attribute 5, "cortex-m55"
   9              		.eabi_attribute 28, 1
  10              		.eabi_attribute 20, 1
  11              		.eabi_attribute 21, 1
  12              		.eabi_attribute 23, 3
  13              		.eabi_attribute 24, 1
  14              		.eabi_attribute 25, 1
  15              		.eabi_attribute 26, 1
  16              		.eabi_attribute 30, 4
  17              		.eabi_attribute 34, 1
  18              		.eabi_attribute 38, 1
  19              		.eabi_attribute 18, 4
  20              		.file	"ninja_fruit_game.c"
  21              		.text
  22              	.Ltext0:
  23              		.cfi_sections	.debug_frame
  24              		.file 1 "Src/ninja_fruit_game.c"
  25              		.section	.text.NinjaGame_Init,"ax",%progbits
  26              		.align	1
  27              		.global	NinjaGame_Init
  28              		.syntax unified
  29              		.thumb
  30              		.thumb_func
  32              	NinjaGame_Init:
  33              	.LVL0:
  34              	.LFB3339:
   1:Src/ninja_fruit_game.c **** 
   2:Src/ninja_fruit_game.c **** /**
   3:Src/ninja_fruit_game.c ****  ******************************************************************************
   4:Src/ninja_fruit_game.c ****  * @file    ninja_fruit_game.c
   5:Src/ninja_fruit_game.c ****  * @author  Antonio Mendoza
   6:Src/ninja_fruit_game.c ****  * @brief   Ninja Fruit Game Implementation
   7:Src/ninja_fruit_game.c ****  ******************************************************************************
   8:Src/ninja_fruit_game.c ****  */
   9:Src/ninja_fruit_game.c **** 
  10:Src/ninja_fruit_game.c **** #include "ninja_fruit_game.h"
  11:Src/ninja_fruit_game.c **** #include "utils.h"
  12:Src/ninja_fruit_game.c **** #include <stdlib.h>
  13:Src/ninja_fruit_game.c **** #include <math.h>
  14:Src/ninja_fruit_game.c **** 
  15:Src/ninja_fruit_game.c **** 
  16:Src/ninja_fruit_game.c **** #define SCREEN_WIDTH 800
  17:Src/ninja_fruit_game.c **** #define SCREEN_HEIGHT 480
  18:Src/ninja_fruit_game.c **** 
  19:Src/ninja_fruit_game.c **** // Fruit colors
  20:Src/ninja_fruit_game.c **** static const uint32_t fruit_colors[FRUIT_TYPES_COUNT] = {
  21:Src/ninja_fruit_game.c ****     UTIL_LCD_COLOR_RED,     // Apple
  22:Src/ninja_fruit_game.c ****     UTIL_LCD_COLOR_ORANGE,  // Orange
  23:Src/ninja_fruit_game.c ****     UTIL_LCD_COLOR_YELLOW,  // Banana
  24:Src/ninja_fruit_game.c ****     0xFFFF8080              // Strawberry (pink)
ARM GAS  C:\Users\Antonio\AppData\Local\Temp\ccV4ycTn.s 			page 2


  25:Src/ninja_fruit_game.c **** };
  26:Src/ninja_fruit_game.c **** 
  27:Src/ninja_fruit_game.c **** // Fruit names for display
  28:Src/ninja_fruit_game.c **** static const char* fruit_names[FRUIT_TYPES_COUNT] = {
  29:Src/ninja_fruit_game.c ****     "Apple", "Orange", "Banana", "Berry"
  30:Src/ninja_fruit_game.c **** };
  31:Src/ninja_fruit_game.c **** 
  32:Src/ninja_fruit_game.c **** void NinjaGame_Init(NinjaGame_t *game)
  33:Src/ninja_fruit_game.c **** {
  35              		.loc 1 33 1 view -0
  36              		.cfi_startproc
  37              		@ args = 0, pretend = 0, frame = 0
  38              		@ frame_needed = 0, uses_anonymous_args = 0
  34:Src/ninja_fruit_game.c ****     memset(game, 0, sizeof(NinjaGame_t));
  39              		.loc 1 34 5 view .LVU1
  33:Src/ninja_fruit_game.c ****     memset(game, 0, sizeof(NinjaGame_t));
  40              		.loc 1 33 1 is_stmt 0 view .LVU2
  41 0000 10B5     		push	{r4, lr}
  42              		.cfi_def_cfa_offset 8
  43              		.cfi_offset 4, -8
  44              		.cfi_offset 14, -4
  45              		.loc 1 34 5 view .LVU3
  46 0002 4FF49072 		mov	r2, #288
  47 0006 0021     		movs	r1, #0
  33:Src/ninja_fruit_game.c ****     memset(game, 0, sizeof(NinjaGame_t));
  48              		.loc 1 33 1 view .LVU4
  49 0008 0446     		mov	r4, r0
  50              		.loc 1 34 5 view .LVU5
  51 000a FFF7FEFF 		bl	memset
  52              	.LVL1:
  35:Src/ninja_fruit_game.c **** 
  36:Src/ninja_fruit_game.c ****     // Initialize all fruits as inactive
  37:Src/ninja_fruit_game.c ****     for (int i = 0; i < MAX_FRUITS; i++) {
  53              		.loc 1 37 5 is_stmt 1 view .LVU6
  54              	.LBB2:
  55              		.loc 1 37 10 view .LVU7
  56              		.loc 1 37 23 discriminator 1 view .LVU8
  38:Src/ninja_fruit_game.c ****         game->fruits[i].state = FRUIT_STATE_INACTIVE;
  57              		.loc 1 38 9 view .LVU9
  58              		.loc 1 38 31 is_stmt 0 view .LVU10
  59 000e 0323     		movs	r3, #3
  60 0010 6374     		strb	r3, [r4, #17]
  37:Src/ninja_fruit_game.c ****         game->fruits[i].state = FRUIT_STATE_INACTIVE;
  61              		.loc 1 37 38 is_stmt 1 discriminator 3 view .LVU11
  62              	.LVL2:
  37:Src/ninja_fruit_game.c ****         game->fruits[i].state = FRUIT_STATE_INACTIVE;
  63              		.loc 1 37 23 discriminator 1 view .LVU12
  64              		.loc 1 38 9 view .LVU13
  65              		.loc 1 38 31 is_stmt 0 view .LVU14
  66 0012 84F83130 		strb	r3, [r4, #49]
  37:Src/ninja_fruit_game.c ****         game->fruits[i].state = FRUIT_STATE_INACTIVE;
  67              		.loc 1 37 38 is_stmt 1 discriminator 3 view .LVU15
  68              	.LVL3:
  37:Src/ninja_fruit_game.c ****         game->fruits[i].state = FRUIT_STATE_INACTIVE;
  69              		.loc 1 37 23 discriminator 1 view .LVU16
  70              		.loc 1 38 9 view .LVU17
  71              		.loc 1 38 31 is_stmt 0 view .LVU18
ARM GAS  C:\Users\Antonio\AppData\Local\Temp\ccV4ycTn.s 			page 3


  72 0016 84F85130 		strb	r3, [r4, #81]
  37:Src/ninja_fruit_game.c ****         game->fruits[i].state = FRUIT_STATE_INACTIVE;
  73              		.loc 1 37 38 is_stmt 1 discriminator 3 view .LVU19
  74              	.LVL4:
  37:Src/ninja_fruit_game.c ****         game->fruits[i].state = FRUIT_STATE_INACTIVE;
  75              		.loc 1 37 23 discriminator 1 view .LVU20
  76              		.loc 1 38 9 view .LVU21
  77              		.loc 1 38 31 is_stmt 0 view .LVU22
  78 001a 84F87130 		strb	r3, [r4, #113]
  37:Src/ninja_fruit_game.c ****         game->fruits[i].state = FRUIT_STATE_INACTIVE;
  79              		.loc 1 37 38 is_stmt 1 discriminator 3 view .LVU23
  80              	.LVL5:
  37:Src/ninja_fruit_game.c ****         game->fruits[i].state = FRUIT_STATE_INACTIVE;
  81              		.loc 1 37 23 discriminator 1 view .LVU24
  82              		.loc 1 38 9 view .LVU25
  83              		.loc 1 38 31 is_stmt 0 view .LVU26
  84 001e 84F89130 		strb	r3, [r4, #145]
  37:Src/ninja_fruit_game.c ****         game->fruits[i].state = FRUIT_STATE_INACTIVE;
  85              		.loc 1 37 38 is_stmt 1 discriminator 3 view .LVU27
  86              	.LVL6:
  37:Src/ninja_fruit_game.c ****         game->fruits[i].state = FRUIT_STATE_INACTIVE;
  87              		.loc 1 37 23 discriminator 1 view .LVU28
  88              		.loc 1 38 9 view .LVU29
  89              		.loc 1 38 31 is_stmt 0 view .LVU30
  90 0022 84F8B130 		strb	r3, [r4, #177]
  37:Src/ninja_fruit_game.c ****         game->fruits[i].state = FRUIT_STATE_INACTIVE;
  91              		.loc 1 37 38 is_stmt 1 discriminator 3 view .LVU31
  92              	.LVL7:
  37:Src/ninja_fruit_game.c ****         game->fruits[i].state = FRUIT_STATE_INACTIVE;
  93              		.loc 1 37 23 discriminator 1 view .LVU32
  94              		.loc 1 38 9 view .LVU33
  95              		.loc 1 38 31 is_stmt 0 view .LVU34
  96 0026 84F8D130 		strb	r3, [r4, #209]
  37:Src/ninja_fruit_game.c ****         game->fruits[i].state = FRUIT_STATE_INACTIVE;
  97              		.loc 1 37 38 is_stmt 1 discriminator 3 view .LVU35
  98              	.LVL8:
  37:Src/ninja_fruit_game.c ****         game->fruits[i].state = FRUIT_STATE_INACTIVE;
  99              		.loc 1 37 23 discriminator 1 view .LVU36
 100              		.loc 1 38 9 view .LVU37
 101              		.loc 1 38 31 is_stmt 0 view .LVU38
 102 002a 84F8F130 		strb	r3, [r4, #241]
  37:Src/ninja_fruit_game.c ****         game->fruits[i].state = FRUIT_STATE_INACTIVE;
 103              		.loc 1 37 38 is_stmt 1 discriminator 3 view .LVU39
 104              	.LVL9:
  37:Src/ninja_fruit_game.c ****         game->fruits[i].state = FRUIT_STATE_INACTIVE;
 105              		.loc 1 37 23 discriminator 1 view .LVU40
 106              	.LBE2:
  39:Src/ninja_fruit_game.c ****     }
  40:Src/ninja_fruit_game.c **** 
  41:Src/ninja_fruit_game.c ****     game->spawn_rate_multiplier = 1.0f;
 107              		.loc 1 41 5 view .LVU41
 108              		.loc 1 41 33 is_stmt 0 view .LVU42
 109 002e 4FF07E53 		mov	r3, #1065353216
 110 0032 C4F81831 		str	r3, [r4, #280]	@ float
  42:Src/ninja_fruit_game.c ****     game->level = 1;
 111              		.loc 1 42 5 is_stmt 1 view .LVU43
 112              		.loc 1 42 17 is_stmt 0 view .LVU44
ARM GAS  C:\Users\Antonio\AppData\Local\Temp\ccV4ycTn.s 			page 4


 113 0036 0123     		movs	r3, #1
 114 0038 C4F81431 		str	r3, [r4, #276]
  43:Src/ninja_fruit_game.c ****     game->mode = NINJA_MODE_SLICE;
 115              		.loc 1 43 5 is_stmt 1 view .LVU45
  44:Src/ninja_fruit_game.c **** }
 116              		.loc 1 44 1 is_stmt 0 view .LVU46
 117 003c 10BD     		pop	{r4, pc}
 118              		.loc 1 44 1 view .LVU47
 119              		.cfi_endproc
 120              	.LFE3339:
 122              		.section	.rodata.NinjaGame_Render.str1.1,"aMS",%progbits,1
 123              	.LC0:
 124 0000 4E494E4A 		.ascii	"NINJA FRUIT SLICER\000"
 124      41204652 
 124      55495420 
 124      534C4943 
 124      455200
 125              	.LC1:
 126 0013 4D616B65 		.ascii	"Make any gesture to start!\000"
 126      20616E79 
 126      20676573 
 126      74757265 
 126      20746F20 
 127              	.LC2:
 128 002e 536C6963 		.ascii	"Slice fruits with arm swipes\000"
 128      65206672 
 128      75697473 
 128      20776974 
 128      68206172 
 129              	.LC3:
 130 004b 446F6E27 		.ascii	"Don't let %d fruits fall!\000"
 130      74206C65 
 130      74202564 
 130      20667275 
 130      69747320 
 131              	.LC4:
 132 0065 47414D45 		.ascii	"GAME OVER!\000"
 132      204F5645 
 132      522100
 133              	.LC5:
 134 0070 46696E61 		.ascii	"Final Score: %lu\000"
 134      6C205363 
 134      6F72653A 
 134      20256C75 
 134      00
 135              	.LC6:
 136 0081 4C657665 		.ascii	"Level Reached: %lu\000"
 136      6C205265 
 136      61636865 
 136      643A2025 
 136      6C7500
 137              	.LC7:
 138 0094 4D616B65 		.ascii	"Make any gesture to restart\000"
 138      20616E79 
 138      20676573 
 138      74757265 
 138      20746F20 
ARM GAS  C:\Users\Antonio\AppData\Local\Temp\ccV4ycTn.s 			page 5


 139              	.LC8:
 140 00b0 53636F72 		.ascii	"Score: %lu\000"
 140      653A2025 
 140      6C7500
 141              	.LC9:
 142 00bb 4C657665 		.ascii	"Level: %lu\000"
 142      6C3A2025 
 142      6C7500
 143              	.LC10:
 144 00c6 4D697373 		.ascii	"Missed: %lu/%d\000"
 144      65643A20 
 144      256C752F 
 144      256400
 145              	.LC11:
 146 00d5 54696D65 		.ascii	"Time: %lus\000"
 146      3A20256C 
 146      757300
 147              		.section	.text.NinjaGame_Render,"ax",%progbits
 148              		.align	1
 149              		.global	NinjaGame_Render
 150              		.syntax unified
 151              		.thumb
 152              		.thumb_func
 154              	NinjaGame_Render:
 155              	.LVL10:
 156              	.LFB3346:
  45:Src/ninja_fruit_game.c **** 
  46:Src/ninja_fruit_game.c **** void NinjaGame_Update(NinjaGame_t *game, GestureDetector_t *gesture_detector, spe_pp_outBuffer_t *k
  47:Src/ninja_fruit_game.c **** {
  48:Src/ninja_fruit_game.c ****     uint32_t current_time = HAL_GetTick();
  49:Src/ninja_fruit_game.c **** 
  50:Src/ninja_fruit_game.c ****     // Start game on first gesture detection
  51:Src/ninja_fruit_game.c ****     if (!game->game_started && !game->game_over) {
  52:Src/ninja_fruit_game.c ****         GestureType_t current_gesture = Gesture_GetCurrentDisplayGesture(gesture_detector);
  53:Src/ninja_fruit_game.c ****         if (current_gesture != GESTURE_NONE) {
  54:Src/ninja_fruit_game.c ****             game->game_started = 1;
  55:Src/ninja_fruit_game.c ****             game->game_start_time = current_time;
  56:Src/ninja_fruit_game.c ****         }
  57:Src/ninja_fruit_game.c ****         return;
  58:Src/ninja_fruit_game.c ****     }
  59:Src/ninja_fruit_game.c **** 
  60:Src/ninja_fruit_game.c ****     if (game->game_over) {
  61:Src/ninja_fruit_game.c ****         // Check for restart gesture
  62:Src/ninja_fruit_game.c ****         GestureType_t current_gesture = Gesture_GetCurrentDisplayGesture(gesture_detector);
  63:Src/ninja_fruit_game.c ****         if (current_gesture != GESTURE_NONE) {
  64:Src/ninja_fruit_game.c ****             NinjaGame_Reset(game);
  65:Src/ninja_fruit_game.c ****         }
  66:Src/ninja_fruit_game.c ****         return;
  67:Src/ninja_fruit_game.c ****     }
  68:Src/ninja_fruit_game.c **** 
  69:Src/ninja_fruit_game.c ****     // Update difficulty based on time played
  70:Src/ninja_fruit_game.c ****     uint32_t game_time = current_time - game->game_start_time;
  71:Src/ninja_fruit_game.c ****     game->level = (game_time / 30000) + 1; // Increase level every 30 seconds
  72:Src/ninja_fruit_game.c ****     game->spawn_rate_multiplier = 1.0f + (game->level - 1) * 0.3f;
  73:Src/ninja_fruit_game.c **** 
  74:Src/ninja_fruit_game.c ****     // Spawn new fruits
  75:Src/ninja_fruit_game.c ****     uint32_t spawn_interval = FRUIT_SPAWN_INTERVAL / game->spawn_rate_multiplier;
ARM GAS  C:\Users\Antonio\AppData\Local\Temp\ccV4ycTn.s 			page 6


  76:Src/ninja_fruit_game.c ****     if (current_time - game->last_spawn_time > spawn_interval) {
  77:Src/ninja_fruit_game.c ****         SpawnFruit(game);
  78:Src/ninja_fruit_game.c ****         game->last_spawn_time = current_time;
  79:Src/ninja_fruit_game.c ****     }
  80:Src/ninja_fruit_game.c **** 
  81:Src/ninja_fruit_game.c ****     // Update existing fruits
  82:Src/ninja_fruit_game.c ****     UpdateFruits(game);
  83:Src/ninja_fruit_game.c **** 
  84:Src/ninja_fruit_game.c ****     if (game->mode == NINJA_MODE_SLICE) {
  85:Src/ninja_fruit_game.c ****             // Check for slicing gestures
  86:Src/ninja_fruit_game.c ****             GestureType_t detected_gesture = Gesture_GetCurrentDisplayGesture(gesture_detector);
  87:Src/ninja_fruit_game.c **** 
  88:Src/ninja_fruit_game.c ****             if (detected_gesture == GESTURE_LEFT_ARM_SWIPE_LEFT ||
  89:Src/ninja_fruit_game.c ****                 detected_gesture == GESTURE_LEFT_ARM_SWIPE_RIGHT ||
  90:Src/ninja_fruit_game.c ****                 detected_gesture == GESTURE_RIGHT_ARM_SWIPE_LEFT ||
  91:Src/ninja_fruit_game.c ****                 detected_gesture == GESTURE_RIGHT_ARM_SWIPE_RIGHT ||
  92:Src/ninja_fruit_game.c ****                 detected_gesture == GESTURE_SWORD_OVERHEAD_STRIKE ||
  93:Src/ninja_fruit_game.c ****                 detected_gesture == GESTURE_SWORD_SIDE_SLASH) {
  94:Src/ninja_fruit_game.c **** 
  95:Src/ninja_fruit_game.c ****                 // Create swipe trajectory from wrist movement
  96:Src/ninja_fruit_game.c ****                 SwipeTrajectory_t swipe = {0};
  97:Src/ninja_fruit_game.c **** 
  98:Src/ninja_fruit_game.c ****                 // Get current wrist position
  99:Src/ninja_fruit_game.c ****                 if (detected_gesture == GESTURE_LEFT_ARM_SWIPE_LEFT || detected_gesture == GESTURE_
 100:Src/ninja_fruit_game.c ****                     swipe.end_x = keypoints[KEYPOINT_LEFT_WRIST].x_center;
 101:Src/ninja_fruit_game.c ****                     swipe.end_y = keypoints[KEYPOINT_LEFT_WRIST].y_center;
 102:Src/ninja_fruit_game.c ****                 } else {
 103:Src/ninja_fruit_game.c ****                     swipe.end_x = keypoints[KEYPOINT_RIGHT_WRIST].x_center;
 104:Src/ninja_fruit_game.c ****                     swipe.end_y = keypoints[KEYPOINT_RIGHT_WRIST].y_center;
 105:Src/ninja_fruit_game.c ****                 }
 106:Src/ninja_fruit_game.c ****                 // Estimate start position based on gesture direction
 107:Src/ninja_fruit_game.c ****                            float32_t dx = (detected_gesture == GESTURE_LEFT_ARM_SWIPE_RIGHT ||
 108:Src/ninja_fruit_game.c ****                                           detected_gesture == GESTURE_RIGHT_ARM_SWIPE_RIGHT) ? -0.2
 109:Src/ninja_fruit_game.c ****                            float32_t dy = (detected_gesture == GESTURE_SWORD_OVERHEAD_STRIKE) ? -0.
 110:Src/ninja_fruit_game.c **** 		      swipe.start_x = swipe.end_x + dx;
 111:Src/ninja_fruit_game.c **** 			  swipe.start_y = swipe.end_y + dy;
 112:Src/ninja_fruit_game.c **** 			  swipe.timestamp = current_time;
 113:Src/ninja_fruit_game.c **** 			  swipe.active = 1;
 114:Src/ninja_fruit_game.c **** 			  CheckSlices(game, &swipe);
 115:Src/ninja_fruit_game.c ****         }
 116:Src/ninja_fruit_game.c ****     	} else {
 117:Src/ninja_fruit_game.c ****             // Pop mode: check if wrists are inside fruit circles
 118:Src/ninja_fruit_game.c ****             CheckBubblePops(game, keypoints);
 119:Src/ninja_fruit_game.c ****         }
 120:Src/ninja_fruit_game.c **** 
 121:Src/ninja_fruit_game.c **** 
 122:Src/ninja_fruit_game.c ****     // Check game over condition
 123:Src/ninja_fruit_game.c ****     if (game->missed_count >= MAX_MISSED_FRUITS) {
 124:Src/ninja_fruit_game.c ****         game->game_over = 1;
 125:Src/ninja_fruit_game.c ****     }
 126:Src/ninja_fruit_game.c **** }
 127:Src/ninja_fruit_game.c **** 
 128:Src/ninja_fruit_game.c **** static void SpawnFruit(NinjaGame_t *game)
 129:Src/ninja_fruit_game.c **** {
 130:Src/ninja_fruit_game.c ****     // Find inactive fruit slot
 131:Src/ninja_fruit_game.c ****     for (int i = 0; i < MAX_FRUITS; i++) {
 132:Src/ninja_fruit_game.c ****         if (game->fruits[i].state == FRUIT_STATE_INACTIVE) {
ARM GAS  C:\Users\Antonio\AppData\Local\Temp\ccV4ycTn.s 			page 7


 133:Src/ninja_fruit_game.c ****             Fruit_t *fruit = &game->fruits[i];
 134:Src/ninja_fruit_game.c **** 
 135:Src/ninja_fruit_game.c ****             // Random spawn position at top of screen
 136:Src/ninja_fruit_game.c ****             fruit->x = 0.25f + (rand() % 500) / 1000.0f; // Random X between 0.1 and 0.9
 137:Src/ninja_fruit_game.c ****             fruit->y = 0.03 + (FRUIT_SIZE/2)/SCREEN_HEIGHT;
 138:Src/ninja_fruit_game.c **** 
 139:Src/ninja_fruit_game.c ****             // Random horizontal drift
 140:Src/ninja_fruit_game.c ****             fruit->velocity_x = ((rand() % 100) - 50) / 10000.0f; // Small horizontal movement
 141:Src/ninja_fruit_game.c ****             fruit->velocity_y = FRUIT_FALL_SPEED + ((rand() % 50) / 1000.0f); // Random fall speed 
 142:Src/ninja_fruit_game.c **** 
 143:Src/ninja_fruit_game.c ****             // Random fruit type
 144:Src/ninja_fruit_game.c ****             fruit->type = rand() % FRUIT_TYPES_COUNT;
 145:Src/ninja_fruit_game.c ****             fruit->state = FRUIT_STATE_FALLING;
 146:Src/ninja_fruit_game.c ****             fruit->spawn_time = HAL_GetTick();
 147:Src/ninja_fruit_game.c **** 
 148:Src/ninja_fruit_game.c ****             break;
 149:Src/ninja_fruit_game.c ****         }
 150:Src/ninja_fruit_game.c ****     }
 151:Src/ninja_fruit_game.c **** }
 152:Src/ninja_fruit_game.c **** 
 153:Src/ninja_fruit_game.c **** static void UpdateFruits(NinjaGame_t *game)
 154:Src/ninja_fruit_game.c **** {
 155:Src/ninja_fruit_game.c ****     uint32_t current_time = HAL_GetTick();
 156:Src/ninja_fruit_game.c ****     float32_t dt = 0.016f; // Assuming ~60fps update rate
 157:Src/ninja_fruit_game.c **** 
 158:Src/ninja_fruit_game.c ****     for (int i = 0; i < MAX_FRUITS; i++) {
 159:Src/ninja_fruit_game.c ****         Fruit_t *fruit = &game->fruits[i];
 160:Src/ninja_fruit_game.c **** 
 161:Src/ninja_fruit_game.c ****         if (fruit->state == FRUIT_STATE_FALLING) {
 162:Src/ninja_fruit_game.c ****             // Update position
 163:Src/ninja_fruit_game.c ****             fruit->y += fruit->velocity_y * dt;
 164:Src/ninja_fruit_game.c ****             fruit->x += fruit->velocity_x * dt;
 165:Src/ninja_fruit_game.c **** 
 166:Src/ninja_fruit_game.c ****             // Check if fruit fell off screen
 167:Src/ninja_fruit_game.c ****             if (fruit->y > (0.98- (FRUIT_SIZE/2)/SCREEN_HEIGHT)) {
 168:Src/ninja_fruit_game.c ****                 fruit->state = FRUIT_STATE_MISSED;
 169:Src/ninja_fruit_game.c ****                 game->missed_count++;
 170:Src/ninja_fruit_game.c ****             }
 171:Src/ninja_fruit_game.c ****         }
 172:Src/ninja_fruit_game.c ****         else if (fruit->state == FRUIT_STATE_SLICED) {
 173:Src/ninja_fruit_game.c ****             // Remove sliced fruits after animation time
 174:Src/ninja_fruit_game.c ****             if (current_time - fruit->slice_time > SLICE_ANIMATION_TIME) {
 175:Src/ninja_fruit_game.c ****                 fruit->state = FRUIT_STATE_INACTIVE;
 176:Src/ninja_fruit_game.c ****             }
 177:Src/ninja_fruit_game.c ****         }
 178:Src/ninja_fruit_game.c ****         else if (fruit->state == FRUIT_STATE_MISSED) {
 179:Src/ninja_fruit_game.c ****             // Remove missed fruits immediately
 180:Src/ninja_fruit_game.c ****             fruit->state = FRUIT_STATE_INACTIVE;
 181:Src/ninja_fruit_game.c ****         }
 182:Src/ninja_fruit_game.c ****     }
 183:Src/ninja_fruit_game.c **** }
 184:Src/ninja_fruit_game.c **** 
 185:Src/ninja_fruit_game.c **** static void CheckSlices(NinjaGame_t *game, SwipeTrajectory_t *swipe)
 186:Src/ninja_fruit_game.c **** {
 187:Src/ninja_fruit_game.c ****     if (!swipe->active) return;
 188:Src/ninja_fruit_game.c **** 
 189:Src/ninja_fruit_game.c ****     for (int i = 0; i < MAX_FRUITS; i++) {
ARM GAS  C:\Users\Antonio\AppData\Local\Temp\ccV4ycTn.s 			page 8


 190:Src/ninja_fruit_game.c ****         Fruit_t *fruit = &game->fruits[i];
 191:Src/ninja_fruit_game.c **** 
 192:Src/ninja_fruit_game.c ****         if (fruit->state == FRUIT_STATE_FALLING) {
 193:Src/ninja_fruit_game.c ****             // Check if swipe line intersects with fruit circle
 194:Src/ninja_fruit_game.c ****             float32_t radius = FRUIT_SIZE / 2.0f / 800.0f; // Normalized radius
 195:Src/ninja_fruit_game.c **** 
 196:Src/ninja_fruit_game.c ****             if (LineIntersectsCircle(swipe->start_x, swipe->start_y,
 197:Src/ninja_fruit_game.c ****                                    swipe->end_x, swipe->end_y,
 198:Src/ninja_fruit_game.c ****                                    fruit->x, fruit->y, radius)) {
 199:Src/ninja_fruit_game.c **** 
 200:Src/ninja_fruit_game.c ****                 // Fruit sliced!
 201:Src/ninja_fruit_game.c ****                 fruit->state = FRUIT_STATE_SLICED;
 202:Src/ninja_fruit_game.c ****                 fruit->slice_time = HAL_GetTick();
 203:Src/ninja_fruit_game.c ****                 fruit->slice_direction = (swipe->end_x > swipe->start_x) ? 1 : 0;
 204:Src/ninja_fruit_game.c **** 
 205:Src/ninja_fruit_game.c ****                 // Increase score based on fruit type and level
 206:Src/ninja_fruit_game.c ****                 uint32_t base_score = 10;
 207:Src/ninja_fruit_game.c ****                 switch (fruit->type) {
 208:Src/ninja_fruit_game.c ****                     case FRUIT_APPLE: base_score = 10; break;
 209:Src/ninja_fruit_game.c ****                     case FRUIT_ORANGE: base_score = 15; break;
 210:Src/ninja_fruit_game.c ****                     case FRUIT_BANANA: base_score = 20; break;
 211:Src/ninja_fruit_game.c ****                     case FRUIT_STRAWBERRY: base_score = 25; break;
 212:Src/ninja_fruit_game.c ****                 }
 213:Src/ninja_fruit_game.c **** 
 214:Src/ninja_fruit_game.c ****                 game->score += base_score * game->level;
 215:Src/ninja_fruit_game.c ****             }
 216:Src/ninja_fruit_game.c ****         }
 217:Src/ninja_fruit_game.c ****     }
 218:Src/ninja_fruit_game.c **** }
 219:Src/ninja_fruit_game.c **** 
 220:Src/ninja_fruit_game.c **** static void CheckBubblePops(NinjaGame_t *game, spe_pp_outBuffer_t *keypoints)
 221:Src/ninja_fruit_game.c **** {
 222:Src/ninja_fruit_game.c ****     float32_t lx = keypoints[KEYPOINT_LEFT_WRIST].x_center;
 223:Src/ninja_fruit_game.c ****     float32_t ly = keypoints[KEYPOINT_LEFT_WRIST].y_center;
 224:Src/ninja_fruit_game.c ****     float32_t rx = keypoints[KEYPOINT_RIGHT_WRIST].x_center;
 225:Src/ninja_fruit_game.c ****     float32_t ry = keypoints[KEYPOINT_RIGHT_WRIST].y_center;
 226:Src/ninja_fruit_game.c ****     float32_t radius = FRUIT_SIZE / 2.0f / 800.0f;
 227:Src/ninja_fruit_game.c ****     float32_t radius_sq = radius * radius;
 228:Src/ninja_fruit_game.c **** 
 229:Src/ninja_fruit_game.c ****     for (int i = 0; i < MAX_FRUITS; i++) {
 230:Src/ninja_fruit_game.c ****         Fruit_t *fruit = &game->fruits[i];
 231:Src/ninja_fruit_game.c **** 
 232:Src/ninja_fruit_game.c ****         if (fruit->state == FRUIT_STATE_FALLING) {
 233:Src/ninja_fruit_game.c ****             float32_t dx = lx - fruit->x;
 234:Src/ninja_fruit_game.c ****             float32_t dy = ly - fruit->y;
 235:Src/ninja_fruit_game.c ****             float32_t dist_left_sq = dx * dx + dy * dy;
 236:Src/ninja_fruit_game.c **** 
 237:Src/ninja_fruit_game.c ****             dx = rx - fruit->x;
 238:Src/ninja_fruit_game.c ****             dy = ry - fruit->y;
 239:Src/ninja_fruit_game.c ****             float32_t dist_right_sq = dx * dx + dy * dy;
 240:Src/ninja_fruit_game.c **** 
 241:Src/ninja_fruit_game.c ****             if (dist_left_sq <= radius_sq || dist_right_sq <= radius_sq) {
 242:Src/ninja_fruit_game.c ****                 fruit->state = FRUIT_STATE_SLICED;
 243:Src/ninja_fruit_game.c ****                 fruit->slice_time = HAL_GetTick();
 244:Src/ninja_fruit_game.c ****                 fruit->slice_direction = 0;
 245:Src/ninja_fruit_game.c **** 
 246:Src/ninja_fruit_game.c ****                 uint32_t base_score = 10;
ARM GAS  C:\Users\Antonio\AppData\Local\Temp\ccV4ycTn.s 			page 9


 247:Src/ninja_fruit_game.c ****                 switch (fruit->type) {
 248:Src/ninja_fruit_game.c ****                     case FRUIT_APPLE: base_score = 10; break;
 249:Src/ninja_fruit_game.c ****                     case FRUIT_ORANGE: base_score = 15; break;
 250:Src/ninja_fruit_game.c ****                     case FRUIT_BANANA: base_score = 20; break;
 251:Src/ninja_fruit_game.c ****                     case FRUIT_STRAWBERRY: base_score = 25; break;
 252:Src/ninja_fruit_game.c ****                 }
 253:Src/ninja_fruit_game.c ****                 game->score += base_score * game->level;
 254:Src/ninja_fruit_game.c ****             }
 255:Src/ninja_fruit_game.c ****         }
 256:Src/ninja_fruit_game.c ****     }
 257:Src/ninja_fruit_game.c **** }
 258:Src/ninja_fruit_game.c **** 
 259:Src/ninja_fruit_game.c **** 
 260:Src/ninja_fruit_game.c **** static uint8_t LineIntersectsCircle(float32_t x1, float32_t y1, float32_t x2, float32_t y2,
 261:Src/ninja_fruit_game.c ****                                    float32_t cx, float32_t cy, float32_t radius)
 262:Src/ninja_fruit_game.c **** {
 263:Src/ninja_fruit_game.c ****     // Calculate distance from circle center to line segment
 264:Src/ninja_fruit_game.c ****     float32_t dx = x2 - x1;
 265:Src/ninja_fruit_game.c ****     float32_t dy = y2 - y1;
 266:Src/ninja_fruit_game.c ****     float32_t length = sqrtf(dx*dx + dy*dy);
 267:Src/ninja_fruit_game.c **** 
 268:Src/ninja_fruit_game.c ****     if (length < 0.001f) return 0; // Degenerate line
 269:Src/ninja_fruit_game.c **** 
 270:Src/ninja_fruit_game.c ****     // Normalize direction vector
 271:Src/ninja_fruit_game.c ****     dx /= length;
 272:Src/ninja_fruit_game.c ****     dy /= length;
 273:Src/ninja_fruit_game.c **** 
 274:Src/ninja_fruit_game.c ****     // Vector from line start to circle center
 275:Src/ninja_fruit_game.c ****     float32_t fx = cx - x1;
 276:Src/ninja_fruit_game.c ****     float32_t fy = cy - y1;
 277:Src/ninja_fruit_game.c **** 
 278:Src/ninja_fruit_game.c ****     // Project circle center onto line
 279:Src/ninja_fruit_game.c ****     float32_t t = fx * dx + fy * dy;
 280:Src/ninja_fruit_game.c **** 
 281:Src/ninja_fruit_game.c ****     // Clamp to line segment
 282:Src/ninja_fruit_game.c ****     if (t < 0) t = 0;
 283:Src/ninja_fruit_game.c ****     if (t > length) t = length;
 284:Src/ninja_fruit_game.c **** 
 285:Src/ninja_fruit_game.c ****     // Find closest point on line segment
 286:Src/ninja_fruit_game.c ****     float32_t closest_x = x1 + t * dx;
 287:Src/ninja_fruit_game.c ****     float32_t closest_y = y1 + t * dy;
 288:Src/ninja_fruit_game.c **** 
 289:Src/ninja_fruit_game.c ****     // Check distance to circle
 290:Src/ninja_fruit_game.c ****     float32_t dist_sq = (cx - closest_x) * (cx - closest_x) + (cy - closest_y) * (cy - closest_y);
 291:Src/ninja_fruit_game.c **** 
 292:Src/ninja_fruit_game.c ****     return dist_sq <= (radius * radius);
 293:Src/ninja_fruit_game.c **** }
 294:Src/ninja_fruit_game.c **** 
 295:Src/ninja_fruit_game.c **** void NinjaGame_Render(NinjaGame_t *game)
 296:Src/ninja_fruit_game.c **** {
 157              		.loc 1 296 1 is_stmt 1 view -0
 158              		.cfi_startproc
 159              		@ args = 0, pretend = 0, frame = 8
 160              		@ frame_needed = 0, uses_anonymous_args = 0
 297:Src/ninja_fruit_game.c ****     uint32_t screen_width = SCREEN_WIDTH;
 161              		.loc 1 297 5 view .LVU49
 298:Src/ninja_fruit_game.c ****     uint32_t screen_height = SCREEN_HEIGHT;
ARM GAS  C:\Users\Antonio\AppData\Local\Temp\ccV4ycTn.s 			page 10


 162              		.loc 1 298 5 view .LVU50
 299:Src/ninja_fruit_game.c **** 
 300:Src/ninja_fruit_game.c ****     if (!game->game_started && !game->game_over) {
 163              		.loc 1 300 5 view .LVU51
 296:Src/ninja_fruit_game.c ****     uint32_t screen_width = SCREEN_WIDTH;
 164              		.loc 1 296 1 is_stmt 0 view .LVU52
 165 0000 2DE9F041 		push	{r4, r5, r6, r7, r8, lr}
 166              		.cfi_def_cfa_offset 24
 167              		.cfi_offset 4, -24
 168              		.cfi_offset 5, -20
 169              		.cfi_offset 6, -16
 170              		.cfi_offset 7, -12
 171              		.cfi_offset 8, -8
 172              		.cfi_offset 14, -4
 173 0004 2DED088B 		vpush.64	{d8, d9, d10, d11}
 174              		.cfi_def_cfa_offset 56
 175              		.cfi_offset 80, -56
 176              		.cfi_offset 81, -52
 177              		.cfi_offset 82, -48
 178              		.cfi_offset 83, -44
 179              		.cfi_offset 84, -40
 180              		.cfi_offset 85, -36
 181              		.cfi_offset 86, -32
 182              		.cfi_offset 87, -28
 183              		.loc 1 300 8 view .LVU53
 184 0008 B0F80C51 		ldrh	r5, [r0, #268]
 296:Src/ninja_fruit_game.c ****     uint32_t screen_width = SCREEN_WIDTH;
 185              		.loc 1 296 1 view .LVU54
 186 000c 0446     		mov	r4, r0
 187 000e 84B0     		sub	sp, sp, #16
 188              		.cfi_def_cfa_offset 72
 189              		.loc 1 300 8 view .LVU55
 190 0010 6DBB     		cbnz	r5, .L3
 191              	.LBB12:
 301:Src/ninja_fruit_game.c ****         // Show start screen
 302:Src/ninja_fruit_game.c ****         UTIL_LCD_SetBackColor(0x40000000);
 192              		.loc 1 302 9 is_stmt 1 view .LVU56
 193 0012 4FF08040 		mov	r0, #1073741824
 194              	.LVL11:
 195              		.loc 1 302 9 is_stmt 0 view .LVU57
 196 0016 FFF7FEFF 		bl	UTIL_LCD_SetBackColor
 197              	.LVL12:
 303:Src/ninja_fruit_game.c ****         UTIL_LCDEx_PrintfAt(0, LINE(8), CENTER_MODE, "NINJA FRUIT SLICER");
 198              		.loc 1 303 9 is_stmt 1 view .LVU58
 199              		.loc 1 303 32 is_stmt 0 view .LVU59
 200 001a FFF7FEFF 		bl	UTIL_LCD_GetFont
 201              	.LVL13:
 202              		.loc 1 303 32 discriminator 1 view .LVU60
 203 001e C188     		ldrh	r1, [r0, #6]
 204              		.loc 1 303 9 discriminator 1 view .LVU61
 205 0020 0122     		movs	r2, #1
 206 0022 984B     		ldr	r3, .L18
 207 0024 C900     		lsls	r1, r1, #3
 208 0026 2846     		mov	r0, r5
 209 0028 FFF7FEFF 		bl	UTIL_LCDEx_PrintfAt
 210              	.LVL14:
 304:Src/ninja_fruit_game.c ****         UTIL_LCDEx_PrintfAt(0, LINE(10), CENTER_MODE, "Make any gesture to start!");
ARM GAS  C:\Users\Antonio\AppData\Local\Temp\ccV4ycTn.s 			page 11


 211              		.loc 1 304 9 is_stmt 1 view .LVU62
 212              		.loc 1 304 32 is_stmt 0 view .LVU63
 213 002c FFF7FEFF 		bl	UTIL_LCD_GetFont
 214              	.LVL15:
 215              		.loc 1 304 32 discriminator 1 view .LVU64
 216 0030 C188     		ldrh	r1, [r0, #6]
 217              		.loc 1 304 9 discriminator 1 view .LVU65
 218 0032 0A20     		movs	r0, #10
 219 0034 0122     		movs	r2, #1
 220 0036 4143     		muls	r1, r0, r1
 221 0038 934B     		ldr	r3, .L18+4
 222 003a 2846     		mov	r0, r5
 223 003c FFF7FEFF 		bl	UTIL_LCDEx_PrintfAt
 224              	.LVL16:
 305:Src/ninja_fruit_game.c ****         UTIL_LCDEx_PrintfAt(0, LINE(12), CENTER_MODE, "Slice fruits with arm swipes");
 225              		.loc 1 305 9 is_stmt 1 view .LVU66
 226              		.loc 1 305 32 is_stmt 0 view .LVU67
 227 0040 FFF7FEFF 		bl	UTIL_LCD_GetFont
 228              	.LVL17:
 229              		.loc 1 305 32 discriminator 1 view .LVU68
 230 0044 C188     		ldrh	r1, [r0, #6]
 231              		.loc 1 305 9 discriminator 1 view .LVU69
 232 0046 0C20     		movs	r0, #12
 233 0048 0122     		movs	r2, #1
 234 004a 4143     		muls	r1, r0, r1
 235 004c 8F4B     		ldr	r3, .L18+8
 236 004e 2846     		mov	r0, r5
 237 0050 FFF7FEFF 		bl	UTIL_LCDEx_PrintfAt
 238              	.LVL18:
 306:Src/ninja_fruit_game.c ****         UTIL_LCDEx_PrintfAt(0, LINE(13), CENTER_MODE, "Don't let %d fruits fall!", MAX_MISSED_FRUIT
 239              		.loc 1 306 9 is_stmt 1 view .LVU70
 240              		.loc 1 306 32 is_stmt 0 view .LVU71
 241 0054 FFF7FEFF 		bl	UTIL_LCD_GetFont
 242              	.LVL19:
 243              		.loc 1 306 32 discriminator 1 view .LVU72
 244 0058 C188     		ldrh	r1, [r0, #6]
 245              		.loc 1 306 9 discriminator 1 view .LVU73
 246 005a 0D20     		movs	r0, #13
 247 005c 0523     		movs	r3, #5
 248 005e 4143     		muls	r1, r0, r1
 249 0060 0122     		movs	r2, #1
 250 0062 2846     		mov	r0, r5
 251 0064 0093     		str	r3, [sp]
 252 0066 8A4B     		ldr	r3, .L18+12
 253              	.LVL20:
 254              	.L16:
 255              		.loc 1 306 9 discriminator 1 view .LVU74
 256              	.LBE12:
 257              	.LBB13:
 258              	.LBB14:
 307:Src/ninja_fruit_game.c ****         UTIL_LCD_SetBackColor(0);
 308:Src/ninja_fruit_game.c ****         return;
 309:Src/ninja_fruit_game.c ****     }
 310:Src/ninja_fruit_game.c **** 
 311:Src/ninja_fruit_game.c ****     if (game->game_over) {
 312:Src/ninja_fruit_game.c ****         // Show game over screen
 313:Src/ninja_fruit_game.c ****         UTIL_LCD_SetBackColor(0x40FF0000);
ARM GAS  C:\Users\Antonio\AppData\Local\Temp\ccV4ycTn.s 			page 12


 314:Src/ninja_fruit_game.c ****         UTIL_LCDEx_PrintfAt(0, LINE(8), CENTER_MODE, "GAME OVER!");
 315:Src/ninja_fruit_game.c ****         UTIL_LCDEx_PrintfAt(0, LINE(10), CENTER_MODE, "Final Score: %lu", game->score);
 316:Src/ninja_fruit_game.c ****         UTIL_LCDEx_PrintfAt(0, LINE(11), CENTER_MODE, "Level Reached: %lu", game->level);
 317:Src/ninja_fruit_game.c ****         UTIL_LCDEx_PrintfAt(0, LINE(13), CENTER_MODE, "Make any gesture to restart");
 318:Src/ninja_fruit_game.c ****         UTIL_LCD_SetBackColor(0);
 319:Src/ninja_fruit_game.c ****         return;
 320:Src/ninja_fruit_game.c ****     }
 321:Src/ninja_fruit_game.c **** 
 322:Src/ninja_fruit_game.c ****     // Render fruits
 323:Src/ninja_fruit_game.c ****     for (int i = 0; i < MAX_FRUITS; i++) {
 324:Src/ninja_fruit_game.c ****         if (game->fruits[i].state != FRUIT_STATE_INACTIVE) {
 325:Src/ninja_fruit_game.c ****             RenderFruit(&game->fruits[i], screen_width, screen_height);
 326:Src/ninja_fruit_game.c ****         }
 327:Src/ninja_fruit_game.c ****     }
 328:Src/ninja_fruit_game.c **** 
 329:Src/ninja_fruit_game.c ****     // Render UI
 330:Src/ninja_fruit_game.c ****     RenderUI(game);
 331:Src/ninja_fruit_game.c **** }
 332:Src/ninja_fruit_game.c **** 
 333:Src/ninja_fruit_game.c **** static void RenderFruit(Fruit_t *fruit, uint32_t screen_width, uint32_t screen_height)
 334:Src/ninja_fruit_game.c **** {
 335:Src/ninja_fruit_game.c ****     // Convert normalized coordinates to screen coordinates
 336:Src/ninja_fruit_game.c ****     int screen_x = (int)(fruit->x * screen_width);
 337:Src/ninja_fruit_game.c ****     int screen_y = (int)(fruit->y * screen_height);
 338:Src/ninja_fruit_game.c **** 
 339:Src/ninja_fruit_game.c ****     uint32_t color = fruit_colors[fruit->type];
 340:Src/ninja_fruit_game.c **** 
 341:Src/ninja_fruit_game.c ****     if (fruit->state == FRUIT_STATE_FALLING) {
 342:Src/ninja_fruit_game.c ****         // Draw whole fruit
 343:Src/ninja_fruit_game.c ****         UTIL_LCD_FillCircle(screen_x, screen_y, FRUIT_SIZE/2, color);
 344:Src/ninja_fruit_game.c **** 
 345:Src/ninja_fruit_game.c ****         // Add highlight for 3D effect
 346:Src/ninja_fruit_game.c ****         UTIL_LCD_FillCircle(screen_x - FRUIT_SIZE/6, screen_y - FRUIT_SIZE/6, FRUIT_SIZE/8,
 347:Src/ninja_fruit_game.c ****                            UTIL_LCD_COLOR_WHITE);
 348:Src/ninja_fruit_game.c ****     }
 349:Src/ninja_fruit_game.c ****     else if (fruit->state == FRUIT_STATE_SLICED) {
 350:Src/ninja_fruit_game.c ****         // Draw sliced fruit halves
 351:Src/ninja_fruit_game.c ****         uint32_t elapsed = HAL_GetTick() - fruit->slice_time;
 352:Src/ninja_fruit_game.c ****         float32_t separation = (elapsed / (float32_t)SLICE_ANIMATION_TIME) * FRUIT_SIZE;
 353:Src/ninja_fruit_game.c **** 
 354:Src/ninja_fruit_game.c ****         if (fruit->slice_direction) {
 355:Src/ninja_fruit_game.c ****             // Right slice - left half moves left, right half moves right
 356:Src/ninja_fruit_game.c ****             UTIL_LCD_FillCircle(screen_x - separation/2, screen_y + separation/4, FRUIT_SIZE/3, col
 357:Src/ninja_fruit_game.c ****             UTIL_LCD_FillCircle(screen_x + separation/2, screen_y + separation/4, FRUIT_SIZE/3, col
 358:Src/ninja_fruit_game.c ****         } else {
 359:Src/ninja_fruit_game.c ****             // Left slice
 360:Src/ninja_fruit_game.c ****             UTIL_LCD_FillCircle(screen_x + separation/2, screen_y + separation/4, FRUIT_SIZE/3, col
 361:Src/ninja_fruit_game.c ****             UTIL_LCD_FillCircle(screen_x - separation/2, screen_y + separation/4, FRUIT_SIZE/3, col
 362:Src/ninja_fruit_game.c ****         }
 363:Src/ninja_fruit_game.c ****     }
 364:Src/ninja_fruit_game.c **** }
 365:Src/ninja_fruit_game.c **** 
 366:Src/ninja_fruit_game.c **** static void RenderUI(NinjaGame_t *game)
 367:Src/ninja_fruit_game.c **** {
 368:Src/ninja_fruit_game.c ****     UTIL_LCD_SetBackColor(0x40000000);
 369:Src/ninja_fruit_game.c **** 
 370:Src/ninja_fruit_game.c ****     // Score
ARM GAS  C:\Users\Antonio\AppData\Local\Temp\ccV4ycTn.s 			page 13


 371:Src/ninja_fruit_game.c ****     UTIL_LCD_SetTextColor(UTIL_LCD_COLOR_WHITE);
 372:Src/ninja_fruit_game.c ****     UTIL_LCDEx_PrintfAt(0, LINE(1), LEFT_MODE, "Score: %lu", game->score);
 373:Src/ninja_fruit_game.c **** 
 374:Src/ninja_fruit_game.c ****     // Level
 375:Src/ninja_fruit_game.c ****     UTIL_LCDEx_PrintfAt(0, LINE(2), LEFT_MODE, "Level: %lu", game->level);
 376:Src/ninja_fruit_game.c **** 
 377:Src/ninja_fruit_game.c ****     // Missed fruits
 378:Src/ninja_fruit_game.c ****     if (game->missed_count > MAX_MISSED_FRUITS / 2) {
 379:Src/ninja_fruit_game.c ****         UTIL_LCD_SetTextColor(UTIL_LCD_COLOR_RED);
 380:Src/ninja_fruit_game.c ****     }
 381:Src/ninja_fruit_game.c ****     UTIL_LCDEx_PrintfAt(0, LINE(3), LEFT_MODE, "Missed: %lu/%d", game->missed_count, MAX_MISSED_FRU
 382:Src/ninja_fruit_game.c ****     UTIL_LCD_SetTextColor(UTIL_LCD_COLOR_WHITE);
 383:Src/ninja_fruit_game.c **** 
 384:Src/ninja_fruit_game.c ****     // Game time
 385:Src/ninja_fruit_game.c ****     uint32_t game_time = (HAL_GetTick() - game->game_start_time) / 1000;
 386:Src/ninja_fruit_game.c ****     UTIL_LCDEx_PrintfAt(600, LINE(1), LEFT_MODE, "Time: %lus", game_time);
 259              		.loc 1 386 5 discriminator 1 view .LVU75
 260 0068 FFF7FEFF 		bl	UTIL_LCDEx_PrintfAt
 261              	.LVL21:
 262 006c 33E0     		b	.L17
 263              	.LVL22:
 264              	.L3:
 265              		.loc 1 386 5 discriminator 1 view .LVU76
 266              	.LBE14:
 267              	.LBE13:
 311:Src/ninja_fruit_game.c ****         // Show game over screen
 268              		.loc 1 311 5 is_stmt 1 view .LVU77
 311:Src/ninja_fruit_game.c ****         // Show game over screen
 269              		.loc 1 311 8 is_stmt 0 view .LVU78
 270 006e 90F80C31 		ldrb	r3, [r0, #268]	@ zero_extendqisi2
 271 0072 002B     		cmp	r3, #0
 272 0074 37D0     		beq	.L4
 273              	.LBB18:
 313:Src/ninja_fruit_game.c ****         UTIL_LCDEx_PrintfAt(0, LINE(8), CENTER_MODE, "GAME OVER!");
 274              		.loc 1 313 9 is_stmt 1 view .LVU79
 275 0076 8748     		ldr	r0, .L18+16
 276              	.LVL23:
 313:Src/ninja_fruit_game.c ****         UTIL_LCDEx_PrintfAt(0, LINE(8), CENTER_MODE, "GAME OVER!");
 277              		.loc 1 313 9 is_stmt 0 view .LVU80
 278 0078 FFF7FEFF 		bl	UTIL_LCD_SetBackColor
 279              	.LVL24:
 314:Src/ninja_fruit_game.c ****         UTIL_LCDEx_PrintfAt(0, LINE(10), CENTER_MODE, "Final Score: %lu", game->score);
 280              		.loc 1 314 9 is_stmt 1 view .LVU81
 314:Src/ninja_fruit_game.c ****         UTIL_LCDEx_PrintfAt(0, LINE(10), CENTER_MODE, "Final Score: %lu", game->score);
 281              		.loc 1 314 32 is_stmt 0 view .LVU82
 282 007c FFF7FEFF 		bl	UTIL_LCD_GetFont
 283              	.LVL25:
 314:Src/ninja_fruit_game.c ****         UTIL_LCDEx_PrintfAt(0, LINE(10), CENTER_MODE, "Final Score: %lu", game->score);
 284              		.loc 1 314 32 discriminator 1 view .LVU83
 285 0080 C188     		ldrh	r1, [r0, #6]
 314:Src/ninja_fruit_game.c ****         UTIL_LCDEx_PrintfAt(0, LINE(10), CENTER_MODE, "Final Score: %lu", game->score);
 286              		.loc 1 314 9 discriminator 1 view .LVU84
 287 0082 0122     		movs	r2, #1
 288 0084 844B     		ldr	r3, .L18+20
 289 0086 C900     		lsls	r1, r1, #3
 290 0088 0020     		movs	r0, #0
 291 008a FFF7FEFF 		bl	UTIL_LCDEx_PrintfAt
ARM GAS  C:\Users\Antonio\AppData\Local\Temp\ccV4ycTn.s 			page 14


 292              	.LVL26:
 315:Src/ninja_fruit_game.c ****         UTIL_LCDEx_PrintfAt(0, LINE(11), CENTER_MODE, "Level Reached: %lu", game->level);
 293              		.loc 1 315 9 is_stmt 1 view .LVU85
 315:Src/ninja_fruit_game.c ****         UTIL_LCDEx_PrintfAt(0, LINE(11), CENTER_MODE, "Level Reached: %lu", game->level);
 294              		.loc 1 315 32 is_stmt 0 view .LVU86
 295 008e FFF7FEFF 		bl	UTIL_LCD_GetFont
 296              	.LVL27:
 315:Src/ninja_fruit_game.c ****         UTIL_LCDEx_PrintfAt(0, LINE(11), CENTER_MODE, "Level Reached: %lu", game->level);
 297              		.loc 1 315 32 discriminator 1 view .LVU87
 298 0092 C188     		ldrh	r1, [r0, #6]
 315:Src/ninja_fruit_game.c ****         UTIL_LCDEx_PrintfAt(0, LINE(11), CENTER_MODE, "Level Reached: %lu", game->level);
 299              		.loc 1 315 9 discriminator 1 view .LVU88
 300 0094 0A20     		movs	r0, #10
 301 0096 D4F80031 		ldr	r3, [r4, #256]
 302 009a 4143     		muls	r1, r0, r1
 303 009c 0122     		movs	r2, #1
 304 009e 0093     		str	r3, [sp]
 305 00a0 0020     		movs	r0, #0
 306 00a2 7E4B     		ldr	r3, .L18+24
 307 00a4 FFF7FEFF 		bl	UTIL_LCDEx_PrintfAt
 308              	.LVL28:
 316:Src/ninja_fruit_game.c ****         UTIL_LCDEx_PrintfAt(0, LINE(13), CENTER_MODE, "Make any gesture to restart");
 309              		.loc 1 316 9 is_stmt 1 view .LVU89
 316:Src/ninja_fruit_game.c ****         UTIL_LCDEx_PrintfAt(0, LINE(13), CENTER_MODE, "Make any gesture to restart");
 310              		.loc 1 316 32 is_stmt 0 view .LVU90
 311 00a8 FFF7FEFF 		bl	UTIL_LCD_GetFont
 312              	.LVL29:
 316:Src/ninja_fruit_game.c ****         UTIL_LCDEx_PrintfAt(0, LINE(13), CENTER_MODE, "Make any gesture to restart");
 313              		.loc 1 316 32 discriminator 1 view .LVU91
 314 00ac C188     		ldrh	r1, [r0, #6]
 316:Src/ninja_fruit_game.c ****         UTIL_LCDEx_PrintfAt(0, LINE(13), CENTER_MODE, "Make any gesture to restart");
 315              		.loc 1 316 9 discriminator 1 view .LVU92
 316 00ae 0B20     		movs	r0, #11
 317 00b0 D4F81431 		ldr	r3, [r4, #276]
 318 00b4 4143     		muls	r1, r0, r1
 319 00b6 0122     		movs	r2, #1
 320 00b8 0093     		str	r3, [sp]
 321 00ba 0020     		movs	r0, #0
 322 00bc 784B     		ldr	r3, .L18+28
 323 00be FFF7FEFF 		bl	UTIL_LCDEx_PrintfAt
 324              	.LVL30:
 317:Src/ninja_fruit_game.c ****         UTIL_LCD_SetBackColor(0);
 325              		.loc 1 317 9 is_stmt 1 view .LVU93
 317:Src/ninja_fruit_game.c ****         UTIL_LCD_SetBackColor(0);
 326              		.loc 1 317 32 is_stmt 0 view .LVU94
 327 00c2 FFF7FEFF 		bl	UTIL_LCD_GetFont
 328              	.LVL31:
 317:Src/ninja_fruit_game.c ****         UTIL_LCD_SetBackColor(0);
 329              		.loc 1 317 32 discriminator 1 view .LVU95
 330 00c6 C188     		ldrh	r1, [r0, #6]
 317:Src/ninja_fruit_game.c ****         UTIL_LCD_SetBackColor(0);
 331              		.loc 1 317 9 discriminator 1 view .LVU96
 332 00c8 0D20     		movs	r0, #13
 333 00ca 0122     		movs	r2, #1
 334 00cc 4143     		muls	r1, r0, r1
 335 00ce 754B     		ldr	r3, .L18+32
 336 00d0 0020     		movs	r0, #0
ARM GAS  C:\Users\Antonio\AppData\Local\Temp\ccV4ycTn.s 			page 15


 337 00d2 FFF7FEFF 		bl	UTIL_LCDEx_PrintfAt
 338              	.LVL32:
 318:Src/ninja_fruit_game.c ****         return;
 339              		.loc 1 318 9 is_stmt 1 view .LVU97
 340              	.L17:
 318:Src/ninja_fruit_game.c ****         return;
 341              		.loc 1 318 9 is_stmt 0 view .LVU98
 342              	.LBE18:
 343              	.LBB19:
 344              	.LBB15:
 387:Src/ninja_fruit_game.c **** 
 388:Src/ninja_fruit_game.c ****     UTIL_LCD_SetBackColor(0);
 345              		.loc 1 388 5 is_stmt 1 view .LVU99
 346 00d6 0020     		movs	r0, #0
 347              	.LBE15:
 348              	.LBE19:
 331:Src/ninja_fruit_game.c **** 
 349              		.loc 1 331 1 is_stmt 0 view .LVU100
 350 00d8 04B0     		add	sp, sp, #16
 351              		.cfi_remember_state
 352              		.cfi_def_cfa_offset 56
 353              		@ sp needed
 354 00da BDEC088B 		vldm	sp!, {d8-d11}
 355              		.cfi_restore 86
 356              		.cfi_restore 87
 357              		.cfi_restore 84
 358              		.cfi_restore 85
 359              		.cfi_restore 82
 360              		.cfi_restore 83
 361              		.cfi_restore 80
 362              		.cfi_restore 81
 363              		.cfi_def_cfa_offset 24
 364 00de BDE8F041 		pop	{r4, r5, r6, r7, r8, lr}
 365              		.cfi_restore 14
 366              		.cfi_restore 8
 367              		.cfi_restore 7
 368              		.cfi_restore 6
 369              		.cfi_restore 5
 370              		.cfi_restore 4
 371              		.cfi_def_cfa_offset 0
 372              	.LBB20:
 373              	.LBB16:
 374              		.loc 1 388 5 view .LVU101
 375 00e2 FFF7FEBF 		b	UTIL_LCD_SetBackColor
 376              	.LVL33:
 377              	.L4:
 378              		.cfi_restore_state
 379              		.loc 1 388 5 view .LVU102
 380 00e6 0546     		mov	r5, r0
 381              	.LBE16:
 382              	.LBE20:
 383              	.LBB21:
 384              	.LBB22:
 385              	.LBB23:
 336:Src/ninja_fruit_game.c ****     int screen_y = (int)(fruit->y * screen_height);
 386              		.loc 1 336 35 view .LVU103
 387 00e8 9FED6F9A 		vldr.32	s18, .L18+36
ARM GAS  C:\Users\Antonio\AppData\Local\Temp\ccV4ycTn.s 			page 16


 337:Src/ninja_fruit_game.c **** 
 388              		.loc 1 337 35 view .LVU104
 389 00ec DFED6F9A 		vldr.32	s19, .L18+40
 339:Src/ninja_fruit_game.c **** 
 390              		.loc 1 339 14 view .LVU105
 391 00f0 DFF8D481 		ldr	r8, .L18+68
 392 00f4 00F58077 		add	r7, r0, #256
 393              	.LVL34:
 394              	.L8:
 339:Src/ninja_fruit_game.c **** 
 395              		.loc 1 339 14 view .LVU106
 396              	.LBE23:
 397              	.LBE22:
 324:Src/ninja_fruit_game.c ****             RenderFruit(&game->fruits[i], screen_width, screen_height);
 398              		.loc 1 324 9 is_stmt 1 view .LVU107
 324:Src/ninja_fruit_game.c ****             RenderFruit(&game->fruits[i], screen_width, screen_height);
 399              		.loc 1 324 28 is_stmt 0 view .LVU108
 400 00f8 6B7C     		ldrb	r3, [r5, #17]	@ zero_extendqisi2
 324:Src/ninja_fruit_game.c ****             RenderFruit(&game->fruits[i], screen_width, screen_height);
 401              		.loc 1 324 12 view .LVU109
 402 00fa 032B     		cmp	r3, #3
 403 00fc 23D0     		beq	.L5
 325:Src/ninja_fruit_game.c ****         }
 404              		.loc 1 325 13 is_stmt 1 view .LVU110
 405              	.LVL35:
 406              	.LBB28:
 407              	.LBI22:
 333:Src/ninja_fruit_game.c **** {
 408              		.loc 1 333 13 view .LVU111
 409              	.LBB26:
 336:Src/ninja_fruit_game.c ****     int screen_y = (int)(fruit->y * screen_height);
 410              		.loc 1 336 5 view .LVU112
 336:Src/ninja_fruit_game.c ****     int screen_y = (int)(fruit->y * screen_height);
 411              		.loc 1 336 35 is_stmt 0 view .LVU113
 412 00fe D5ED008A 		vldr.32	s17, [r5]
 337:Src/ninja_fruit_game.c **** 
 413              		.loc 1 337 35 view .LVU114
 414 0102 95ED018A 		vldr.32	s16, [r5, #4]
 336:Src/ninja_fruit_game.c ****     int screen_y = (int)(fruit->y * screen_height);
 415              		.loc 1 336 35 view .LVU115
 416 0106 68EE898A 		vmul.f32	s17, s17, s18
 337:Src/ninja_fruit_game.c **** 
 417              		.loc 1 337 35 view .LVU116
 418 010a 28EE298A 		vmul.f32	s16, s16, s19
 339:Src/ninja_fruit_game.c **** 
 419              		.loc 1 339 40 view .LVU117
 420 010e 2A7C     		ldrb	r2, [r5, #16]	@ zero_extendqisi2
 336:Src/ninja_fruit_game.c ****     int screen_y = (int)(fruit->y * screen_height);
 421              		.loc 1 336 9 view .LVU118
 422 0110 FDEEE88A 		vcvt.s32.f32	s17, s17
 423              	.LVL36:
 337:Src/ninja_fruit_game.c **** 
 424              		.loc 1 337 5 is_stmt 1 view .LVU119
 337:Src/ninja_fruit_game.c **** 
 425              		.loc 1 337 9 is_stmt 0 view .LVU120
 426 0114 BDEEC88A 		vcvt.s32.f32	s16, s16
 427              	.LVL37:
ARM GAS  C:\Users\Antonio\AppData\Local\Temp\ccV4ycTn.s 			page 17


 339:Src/ninja_fruit_game.c **** 
 428              		.loc 1 339 5 is_stmt 1 view .LVU121
 339:Src/ninja_fruit_game.c **** 
 429              		.loc 1 339 14 is_stmt 0 view .LVU122
 430 0118 58F82260 		ldr	r6, [r8, r2, lsl #2]
 431              	.LVL38:
 341:Src/ninja_fruit_game.c ****         // Draw whole fruit
 432              		.loc 1 341 5 is_stmt 1 view .LVU123
 341:Src/ninja_fruit_game.c ****         // Draw whole fruit
 433              		.loc 1 341 8 is_stmt 0 view .LVU124
 434 011c 002B     		cmp	r3, #0
 435 011e 60D1     		bne	.L6
 343:Src/ninja_fruit_game.c **** 
 436              		.loc 1 343 9 is_stmt 1 view .LVU125
 437 0120 3346     		mov	r3, r6
 438 0122 0F22     		movs	r2, #15
 439 0124 18EE101A 		vmov	r1, s16	@ int
 440 0128 18EE900A 		vmov	r0, s17	@ int
 441 012c FFF7FEFF 		bl	UTIL_LCD_FillCircle
 442              	.LVL39:
 346:Src/ninja_fruit_game.c ****                            UTIL_LCD_COLOR_WHITE);
 443              		.loc 1 346 9 view .LVU126
 444 0130 18EE101A 		vmov	r1, s16	@ int
 445 0134 18EE900A 		vmov	r0, s17	@ int
 446 0138 4FF0FF33 		mov	r3, #-1
 447 013c 0322     		movs	r2, #3
 448 013e 0539     		subs	r1, r1, #5
 449 0140 0538     		subs	r0, r0, #5
 450              	.LVL40:
 451              	.L14:
 452              	.LBB24:
 361:Src/ninja_fruit_game.c ****         }
 453              		.loc 1 361 13 is_stmt 0 view .LVU127
 454 0142 FFF7FEFF 		bl	UTIL_LCD_FillCircle
 455              	.LVL41:
 456              	.L5:
 361:Src/ninja_fruit_game.c ****         }
 457              		.loc 1 361 13 view .LVU128
 458              	.LBE24:
 459              	.LBE26:
 460              	.LBE28:
 323:Src/ninja_fruit_game.c ****         if (game->fruits[i].state != FRUIT_STATE_INACTIVE) {
 461              		.loc 1 323 38 is_stmt 1 discriminator 2 view .LVU129
 323:Src/ninja_fruit_game.c ****         if (game->fruits[i].state != FRUIT_STATE_INACTIVE) {
 462              		.loc 1 323 23 discriminator 1 view .LVU130
 463 0146 2035     		adds	r5, r5, #32
 464 0148 BD42     		cmp	r5, r7
 465 014a D5D1     		bne	.L8
 466              	.LBE21:
 330:Src/ninja_fruit_game.c **** }
 467              		.loc 1 330 5 view .LVU131
 468              	.LVL42:
 469              	.LBB30:
 470              	.LBI13:
 366:Src/ninja_fruit_game.c **** {
 471              		.loc 1 366 13 view .LVU132
 472              	.LBB17:
ARM GAS  C:\Users\Antonio\AppData\Local\Temp\ccV4ycTn.s 			page 18


 368:Src/ninja_fruit_game.c **** 
 473              		.loc 1 368 5 view .LVU133
 474 014c 4FF08040 		mov	r0, #1073741824
 475 0150 FFF7FEFF 		bl	UTIL_LCD_SetBackColor
 476              	.LVL43:
 371:Src/ninja_fruit_game.c ****     UTIL_LCDEx_PrintfAt(0, LINE(1), LEFT_MODE, "Score: %lu", game->score);
 477              		.loc 1 371 5 view .LVU134
 478 0154 4FF0FF30 		mov	r0, #-1
 479 0158 FFF7FEFF 		bl	UTIL_LCD_SetTextColor
 480              	.LVL44:
 372:Src/ninja_fruit_game.c **** 
 481              		.loc 1 372 5 view .LVU135
 372:Src/ninja_fruit_game.c **** 
 482              		.loc 1 372 28 is_stmt 0 view .LVU136
 483 015c FFF7FEFF 		bl	UTIL_LCD_GetFont
 484              	.LVL45:
 372:Src/ninja_fruit_game.c **** 
 485              		.loc 1 372 5 discriminator 1 view .LVU137
 486 0160 D4F80031 		ldr	r3, [r4, #256]
 487 0164 C188     		ldrh	r1, [r0, #6]
 488 0166 0322     		movs	r2, #3
 489 0168 0093     		str	r3, [sp]
 490 016a 0020     		movs	r0, #0
 491 016c 504B     		ldr	r3, .L18+44
 492 016e FFF7FEFF 		bl	UTIL_LCDEx_PrintfAt
 493              	.LVL46:
 375:Src/ninja_fruit_game.c **** 
 494              		.loc 1 375 5 is_stmt 1 view .LVU138
 375:Src/ninja_fruit_game.c **** 
 495              		.loc 1 375 28 is_stmt 0 view .LVU139
 496 0172 FFF7FEFF 		bl	UTIL_LCD_GetFont
 497              	.LVL47:
 375:Src/ninja_fruit_game.c **** 
 498              		.loc 1 375 5 discriminator 1 view .LVU140
 499 0176 D4F81431 		ldr	r3, [r4, #276]
 375:Src/ninja_fruit_game.c **** 
 500              		.loc 1 375 28 discriminator 1 view .LVU141
 501 017a C188     		ldrh	r1, [r0, #6]
 375:Src/ninja_fruit_game.c **** 
 502              		.loc 1 375 5 discriminator 1 view .LVU142
 503 017c 0322     		movs	r2, #3
 504 017e 0093     		str	r3, [sp]
 505 0180 0020     		movs	r0, #0
 506 0182 4C4B     		ldr	r3, .L18+48
 507 0184 4900     		lsls	r1, r1, #1
 508 0186 FFF7FEFF 		bl	UTIL_LCDEx_PrintfAt
 509              	.LVL48:
 378:Src/ninja_fruit_game.c ****         UTIL_LCD_SetTextColor(UTIL_LCD_COLOR_RED);
 510              		.loc 1 378 5 is_stmt 1 view .LVU143
 378:Src/ninja_fruit_game.c ****         UTIL_LCD_SetTextColor(UTIL_LCD_COLOR_RED);
 511              		.loc 1 378 8 is_stmt 0 view .LVU144
 512 018a D4F80431 		ldr	r3, [r4, #260]
 513 018e 022B     		cmp	r3, #2
 514 0190 02D9     		bls	.L9
 379:Src/ninja_fruit_game.c ****     }
 515              		.loc 1 379 9 is_stmt 1 view .LVU145
 516 0192 4948     		ldr	r0, .L18+52
ARM GAS  C:\Users\Antonio\AppData\Local\Temp\ccV4ycTn.s 			page 19


 517 0194 FFF7FEFF 		bl	UTIL_LCD_SetTextColor
 518              	.LVL49:
 519              	.L9:
 381:Src/ninja_fruit_game.c ****     UTIL_LCD_SetTextColor(UTIL_LCD_COLOR_WHITE);
 520              		.loc 1 381 5 view .LVU146
 381:Src/ninja_fruit_game.c ****     UTIL_LCD_SetTextColor(UTIL_LCD_COLOR_WHITE);
 521              		.loc 1 381 28 is_stmt 0 view .LVU147
 522 0198 FFF7FEFF 		bl	UTIL_LCD_GetFont
 523              	.LVL50:
 381:Src/ninja_fruit_game.c ****     UTIL_LCD_SetTextColor(UTIL_LCD_COLOR_WHITE);
 524              		.loc 1 381 5 discriminator 1 view .LVU148
 525 019c 0523     		movs	r3, #5
 381:Src/ninja_fruit_game.c ****     UTIL_LCD_SetTextColor(UTIL_LCD_COLOR_WHITE);
 526              		.loc 1 381 28 discriminator 1 view .LVU149
 527 019e C188     		ldrh	r1, [r0, #6]
 381:Src/ninja_fruit_game.c ****     UTIL_LCD_SetTextColor(UTIL_LCD_COLOR_WHITE);
 528              		.loc 1 381 5 discriminator 1 view .LVU150
 529 01a0 0193     		str	r3, [sp, #4]
 530 01a2 D4F80431 		ldr	r3, [r4, #260]
 531 01a6 0322     		movs	r2, #3
 532 01a8 01EB4101 		add	r1, r1, r1, lsl #1
 533 01ac 0093     		str	r3, [sp]
 534 01ae 0020     		movs	r0, #0
 535 01b0 424B     		ldr	r3, .L18+56
 536 01b2 FFF7FEFF 		bl	UTIL_LCDEx_PrintfAt
 537              	.LVL51:
 382:Src/ninja_fruit_game.c **** 
 538              		.loc 1 382 5 is_stmt 1 view .LVU151
 539 01b6 4FF0FF30 		mov	r0, #-1
 540 01ba FFF7FEFF 		bl	UTIL_LCD_SetTextColor
 541              	.LVL52:
 385:Src/ninja_fruit_game.c ****     UTIL_LCDEx_PrintfAt(600, LINE(1), LEFT_MODE, "Time: %lus", game_time);
 542              		.loc 1 385 5 view .LVU152
 385:Src/ninja_fruit_game.c ****     UTIL_LCDEx_PrintfAt(600, LINE(1), LEFT_MODE, "Time: %lus", game_time);
 543              		.loc 1 385 27 is_stmt 0 view .LVU153
 544 01be FFF7FEFF 		bl	HAL_GetTick
 545              	.LVL53:
 385:Src/ninja_fruit_game.c ****     UTIL_LCDEx_PrintfAt(600, LINE(1), LEFT_MODE, "Time: %lus", game_time);
 546              		.loc 1 385 14 discriminator 1 view .LVU154
 547 01c2 4FF47A73 		mov	r3, #1000
 385:Src/ninja_fruit_game.c ****     UTIL_LCDEx_PrintfAt(600, LINE(1), LEFT_MODE, "Time: %lus", game_time);
 548              		.loc 1 385 41 discriminator 1 view .LVU155
 549 01c6 D4F81041 		ldr	r4, [r4, #272]
 550              	.LVL54:
 385:Src/ninja_fruit_game.c ****     UTIL_LCDEx_PrintfAt(600, LINE(1), LEFT_MODE, "Time: %lus", game_time);
 551              		.loc 1 385 41 discriminator 1 view .LVU156
 552 01ca 041B     		subs	r4, r0, r4
 385:Src/ninja_fruit_game.c ****     UTIL_LCDEx_PrintfAt(600, LINE(1), LEFT_MODE, "Time: %lus", game_time);
 553              		.loc 1 385 14 discriminator 1 view .LVU157
 554 01cc B4FBF3F4 		udiv	r4, r4, r3
 555              	.LVL55:
 386:Src/ninja_fruit_game.c **** 
 556              		.loc 1 386 5 is_stmt 1 view .LVU158
 386:Src/ninja_fruit_game.c **** 
 557              		.loc 1 386 30 is_stmt 0 view .LVU159
 558 01d0 FFF7FEFF 		bl	UTIL_LCD_GetFont
 559              	.LVL56:
ARM GAS  C:\Users\Antonio\AppData\Local\Temp\ccV4ycTn.s 			page 20


 386:Src/ninja_fruit_game.c **** 
 560              		.loc 1 386 5 discriminator 1 view .LVU160
 561 01d4 0322     		movs	r2, #3
 562 01d6 C188     		ldrh	r1, [r0, #6]
 563 01d8 394B     		ldr	r3, .L18+60
 564 01da 4FF41670 		mov	r0, #600
 565 01de 0094     		str	r4, [sp]
 566 01e0 42E7     		b	.L16
 567              	.LVL57:
 568              	.L6:
 386:Src/ninja_fruit_game.c **** 
 569              		.loc 1 386 5 discriminator 1 view .LVU161
 570              	.LBE17:
 571              	.LBE30:
 572              	.LBB31:
 573              	.LBB29:
 574              	.LBB27:
 349:Src/ninja_fruit_game.c ****         // Draw sliced fruit halves
 575              		.loc 1 349 10 is_stmt 1 view .LVU162
 349:Src/ninja_fruit_game.c ****         // Draw sliced fruit halves
 576              		.loc 1 349 13 is_stmt 0 view .LVU163
 577 01e2 012B     		cmp	r3, #1
 578 01e4 AFD1     		bne	.L5
 579              	.LBB25:
 351:Src/ninja_fruit_game.c ****         float32_t separation = (elapsed / (float32_t)SLICE_ANIMATION_TIME) * FRUIT_SIZE;
 580              		.loc 1 351 9 is_stmt 1 view .LVU164
 351:Src/ninja_fruit_game.c ****         float32_t separation = (elapsed / (float32_t)SLICE_ANIMATION_TIME) * FRUIT_SIZE;
 581              		.loc 1 351 28 is_stmt 0 view .LVU165
 582 01e6 FFF7FEFF 		bl	HAL_GetTick
 583              	.LVL58:
 352:Src/ninja_fruit_game.c **** 
 584              		.loc 1 352 9 is_stmt 1 view .LVU166
 351:Src/ninja_fruit_game.c ****         float32_t separation = (elapsed / (float32_t)SLICE_ANIMATION_TIME) * FRUIT_SIZE;
 585              		.loc 1 351 18 is_stmt 0 discriminator 1 view .LVU167
 586 01ea AB69     		ldr	r3, [r5, #24]
 352:Src/ninja_fruit_game.c **** 
 587              		.loc 1 352 41 view .LVU168
 588 01ec 9FED357A 		vldr.32	s14, .L18+64
 351:Src/ninja_fruit_game.c ****         float32_t separation = (elapsed / (float32_t)SLICE_ANIMATION_TIME) * FRUIT_SIZE;
 589              		.loc 1 351 18 discriminator 1 view .LVU169
 590 01f0 C01A     		subs	r0, r0, r3
 591              	.LVL59:
 352:Src/ninja_fruit_game.c **** 
 592              		.loc 1 352 41 view .LVU170
 593 01f2 07EE900A 		vmov	s15, r0	@ int
 594 01f6 F8EE677A 		vcvt.f32.u32	s15, s15
 595 01fa 87EE87AA 		vdiv.f32	s20, s15, s14
 352:Src/ninja_fruit_game.c **** 
 596              		.loc 1 352 19 view .LVU171
 597 01fe F3EE0E7A 		vmov.f32	s15, #3.0e+1
 598 0202 F8EEE88A 		vcvt.f32.s32	s17, s17
 599              	.LVL60:
 352:Src/ninja_fruit_game.c **** 
 600              		.loc 1 352 19 view .LVU172
 601 0206 2AEE27AA 		vmul.f32	s20, s20, s15
 602              	.LVL61:
 354:Src/ninja_fruit_game.c ****             // Right slice - left half moves left, right half moves right
ARM GAS  C:\Users\Antonio\AppData\Local\Temp\ccV4ycTn.s 			page 21


 603              		.loc 1 354 9 is_stmt 1 view .LVU173
 354:Src/ninja_fruit_game.c ****             // Right slice - left half moves left, right half moves right
 604              		.loc 1 354 12 is_stmt 0 view .LVU174
 605 020a 2B7F     		ldrb	r3, [r5, #28]	@ zero_extendqisi2
 606 020c B1EE4ABA 		vneg.f32	s22, s20
 607 0210 F6EE00AA 		vmov.f32	s21, #5.0e-1
 608 0214 B8EEC88A 		vcvt.f32.s32	s16, s16
 609              	.LVL62:
 354:Src/ninja_fruit_game.c ****             // Right slice - left half moves left, right half moves right
 610              		.loc 1 354 12 view .LVU175
 611 0218 F5EE007A 		vmov.f32	s15, #2.5e-1
 356:Src/ninja_fruit_game.c ****             UTIL_LCD_FillCircle(screen_x + separation/2, screen_y + separation/4, FRUIT_SIZE/3, col
 612              		.loc 1 356 42 view .LVU176
 613 021c B0EE687A 		vmov.f32	s14, s17
 354:Src/ninja_fruit_game.c ****             // Right slice - left half moves left, right half moves right
 614              		.loc 1 354 12 view .LVU177
 615 0220 DBB1     		cbz	r3, .L7
 356:Src/ninja_fruit_game.c ****             UTIL_LCD_FillCircle(screen_x + separation/2, screen_y + separation/4, FRUIT_SIZE/3, col
 616              		.loc 1 356 13 is_stmt 1 view .LVU178
 356:Src/ninja_fruit_game.c ****             UTIL_LCD_FillCircle(screen_x + separation/2, screen_y + separation/4, FRUIT_SIZE/3, col
 617              		.loc 1 356 67 is_stmt 0 view .LVU179
 618 0222 AAEE278A 		vfma.f32	s16, s20, s15
 356:Src/ninja_fruit_game.c ****             UTIL_LCD_FillCircle(screen_x + separation/2, screen_y + separation/4, FRUIT_SIZE/3, col
 619              		.loc 1 356 42 view .LVU180
 620 0226 ABEE2A7A 		vfma.f32	s14, s22, s21
 356:Src/ninja_fruit_game.c ****             UTIL_LCD_FillCircle(screen_x + separation/2, screen_y + separation/4, FRUIT_SIZE/3, col
 621              		.loc 1 356 13 view .LVU181
 622 022a FCEEC87A 		vcvt.u32.f32	s15, s16
 623 022e 17EE901A 		vmov	r1, s15	@ int
 624 0232 CDED037A 		vstr.32	s15, [sp, #12]	@ int
 625 0236 FCEEC77A 		vcvt.u32.f32	s15, s14
 626 023a 3346     		mov	r3, r6
 627 023c 0A22     		movs	r2, #10
 628 023e 17EE900A 		vmov	r0, s15	@ int
 629              	.LVL63:
 356:Src/ninja_fruit_game.c ****             UTIL_LCD_FillCircle(screen_x + separation/2, screen_y + separation/4, FRUIT_SIZE/3, col
 630              		.loc 1 356 13 view .LVU182
 631 0242 FFF7FEFF 		bl	UTIL_LCD_FillCircle
 632              	.LVL64:
 357:Src/ninja_fruit_game.c ****         } else {
 633              		.loc 1 357 13 is_stmt 1 view .LVU183
 357:Src/ninja_fruit_game.c ****         } else {
 634              		.loc 1 357 42 is_stmt 0 view .LVU184
 635 0246 EAEE2A8A 		vfma.f32	s17, s20, s21
 636              	.L15:
 361:Src/ninja_fruit_game.c ****         }
 637              		.loc 1 361 13 view .LVU185
 638 024a FCEEE87A 		vcvt.u32.f32	s15, s17
 639 024e 3346     		mov	r3, r6
 640 0250 0A22     		movs	r2, #10
 641 0252 17EE900A 		vmov	r0, s15	@ int
 642 0256 0399     		ldr	r1, [sp, #12]
 643 0258 73E7     		b	.L14
 644              	.LVL65:
 645              	.L7:
 360:Src/ninja_fruit_game.c ****             UTIL_LCD_FillCircle(screen_x - separation/2, screen_y + separation/4, FRUIT_SIZE/3, col
 646              		.loc 1 360 13 is_stmt 1 view .LVU186
ARM GAS  C:\Users\Antonio\AppData\Local\Temp\ccV4ycTn.s 			page 22


 360:Src/ninja_fruit_game.c ****             UTIL_LCD_FillCircle(screen_x - separation/2, screen_y + separation/4, FRUIT_SIZE/3, col
 647              		.loc 1 360 67 is_stmt 0 view .LVU187
 648 025a AAEE278A 		vfma.f32	s16, s20, s15
 360:Src/ninja_fruit_game.c ****             UTIL_LCD_FillCircle(screen_x - separation/2, screen_y + separation/4, FRUIT_SIZE/3, col
 649              		.loc 1 360 42 view .LVU188
 650 025e AAEE2A7A 		vfma.f32	s14, s20, s21
 360:Src/ninja_fruit_game.c ****             UTIL_LCD_FillCircle(screen_x - separation/2, screen_y + separation/4, FRUIT_SIZE/3, col
 651              		.loc 1 360 13 view .LVU189
 652 0262 FCEEC87A 		vcvt.u32.f32	s15, s16
 653 0266 17EE901A 		vmov	r1, s15	@ int
 654 026a CDED037A 		vstr.32	s15, [sp, #12]	@ int
 655 026e FCEEC77A 		vcvt.u32.f32	s15, s14
 656 0272 3346     		mov	r3, r6
 657 0274 0A22     		movs	r2, #10
 658 0276 17EE900A 		vmov	r0, s15	@ int
 659              	.LVL66:
 360:Src/ninja_fruit_game.c ****             UTIL_LCD_FillCircle(screen_x - separation/2, screen_y + separation/4, FRUIT_SIZE/3, col
 660              		.loc 1 360 13 view .LVU190
 661 027a FFF7FEFF 		bl	UTIL_LCD_FillCircle
 662              	.LVL67:
 361:Src/ninja_fruit_game.c ****         }
 663              		.loc 1 361 13 is_stmt 1 view .LVU191
 361:Src/ninja_fruit_game.c ****         }
 664              		.loc 1 361 42 is_stmt 0 view .LVU192
 665 027e EBEE2A8A 		vfma.f32	s17, s22, s21
 666 0282 E2E7     		b	.L15
 667              	.L19:
 668              		.align	2
 669              	.L18:
 670 0284 00000000 		.word	.LC0
 671 0288 13000000 		.word	.LC1
 672 028c 2E000000 		.word	.LC2
 673 0290 4B000000 		.word	.LC3
 674 0294 0000FF40 		.word	1090453504
 675 0298 65000000 		.word	.LC4
 676 029c 70000000 		.word	.LC5
 677 02a0 81000000 		.word	.LC6
 678 02a4 94000000 		.word	.LC7
 679 02a8 00004844 		.word	1145569280
 680 02ac 0000F043 		.word	1139802112
 681 02b0 B0000000 		.word	.LC8
 682 02b4 BB000000 		.word	.LC9
 683 02b8 0000FFFF 		.word	-65536
 684 02bc C6000000 		.word	.LC10
 685 02c0 D5000000 		.word	.LC11
 686 02c4 0000FA43 		.word	1140457472
 687 02c8 00000000 		.word	fruit_colors
 688              	.LBE25:
 689              	.LBE27:
 690              	.LBE29:
 691              	.LBE31:
 692              		.cfi_endproc
 693              	.LFE3346:
 695              		.section	.text.NinjaGame_Reset,"ax",%progbits
 696              		.align	1
 697              		.global	NinjaGame_Reset
 698              		.syntax unified
ARM GAS  C:\Users\Antonio\AppData\Local\Temp\ccV4ycTn.s 			page 23


 699              		.thumb
 700              		.thumb_func
 702              	NinjaGame_Reset:
 703              	.LVL68:
 704              	.LFB3349:
 389:Src/ninja_fruit_game.c **** }
 390:Src/ninja_fruit_game.c **** 
 391:Src/ninja_fruit_game.c **** void NinjaGame_Reset(NinjaGame_t *game)
 392:Src/ninja_fruit_game.c **** {
 705              		.loc 1 392 1 is_stmt 1 view -0
 706              		.cfi_startproc
 707              		@ args = 0, pretend = 0, frame = 0
 708              		@ frame_needed = 0, uses_anonymous_args = 0
 393:Src/ninja_fruit_game.c ****     // Reset game state but keep high score for comparison
 394:Src/ninja_fruit_game.c ****     uint32_t high_score = (game->score > 0) ? game->score : 0;
 709              		.loc 1 394 5 view .LVU194
 392:Src/ninja_fruit_game.c ****     // Reset game state but keep high score for comparison
 710              		.loc 1 392 1 is_stmt 0 view .LVU195
 711 0000 10B5     		push	{r4, lr}
 712              		.cfi_def_cfa_offset 8
 713              		.cfi_offset 4, -8
 714              		.cfi_offset 14, -4
 392:Src/ninja_fruit_game.c ****     // Reset game state but keep high score for comparison
 715              		.loc 1 392 1 view .LVU196
 716 0002 0446     		mov	r4, r0
 717              	.LVL69:
 395:Src/ninja_fruit_game.c **** 
 396:Src/ninja_fruit_game.c ****     NinjaGame_Init(game);
 718              		.loc 1 396 5 is_stmt 1 view .LVU197
 719 0004 FFF7FEFF 		bl	NinjaGame_Init
 720              	.LVL70:
 397:Src/ninja_fruit_game.c ****     game->game_started = 1;
 721              		.loc 1 397 5 view .LVU198
 722              		.loc 1 397 24 is_stmt 0 view .LVU199
 723 0008 0123     		movs	r3, #1
 724 000a 84F80D31 		strb	r3, [r4, #269]
 398:Src/ninja_fruit_game.c ****     game->game_start_time = HAL_GetTick();
 725              		.loc 1 398 5 is_stmt 1 view .LVU200
 726              		.loc 1 398 29 is_stmt 0 view .LVU201
 727 000e FFF7FEFF 		bl	HAL_GetTick
 728              	.LVL71:
 729              		.loc 1 398 27 discriminator 1 view .LVU202
 730 0012 C4F81001 		str	r0, [r4, #272]
 399:Src/ninja_fruit_game.c **** 
 400:Src/ninja_fruit_game.c ****     // Could store high score for display
 401:Src/ninja_fruit_game.c **** }
 731              		.loc 1 401 1 view .LVU203
 732 0016 10BD     		pop	{r4, pc}
 733              		.loc 1 401 1 view .LVU204
 734              		.cfi_endproc
 735              	.LFE3349:
 737              		.section	.text.NinjaGame_Update,"ax",%progbits
 738              		.align	1
 739              		.global	NinjaGame_Update
 740              		.syntax unified
 741              		.thumb
 742              		.thumb_func
ARM GAS  C:\Users\Antonio\AppData\Local\Temp\ccV4ycTn.s 			page 24


 744              	NinjaGame_Update:
 745              	.LVL72:
 746              	.LFB3340:
  47:Src/ninja_fruit_game.c ****     uint32_t current_time = HAL_GetTick();
 747              		.loc 1 47 1 is_stmt 1 view -0
 748              		.cfi_startproc
 749              		@ args = 0, pretend = 0, frame = 0
 750              		@ frame_needed = 0, uses_anonymous_args = 0
  48:Src/ninja_fruit_game.c **** 
 751              		.loc 1 48 5 view .LVU206
  47:Src/ninja_fruit_game.c ****     uint32_t current_time = HAL_GetTick();
 752              		.loc 1 47 1 is_stmt 0 view .LVU207
 753 0000 2DE9F041 		push	{r4, r5, r6, r7, r8, lr}
 754              		.cfi_def_cfa_offset 24
 755              		.cfi_offset 4, -24
 756              		.cfi_offset 5, -20
 757              		.cfi_offset 6, -16
 758              		.cfi_offset 7, -12
 759              		.cfi_offset 8, -8
 760              		.cfi_offset 14, -4
 761 0004 0446     		mov	r4, r0
 762 0006 2DED0A8B 		vpush.64	{d8, d9, d10, d11, d12}
 763              		.cfi_def_cfa_offset 64
 764              		.cfi_offset 80, -64
 765              		.cfi_offset 81, -60
 766              		.cfi_offset 82, -56
 767              		.cfi_offset 83, -52
 768              		.cfi_offset 84, -48
 769              		.cfi_offset 85, -44
 770              		.cfi_offset 86, -40
 771              		.cfi_offset 87, -36
 772              		.cfi_offset 88, -32
 773              		.cfi_offset 89, -28
  47:Src/ninja_fruit_game.c ****     uint32_t current_time = HAL_GetTick();
 774              		.loc 1 47 1 view .LVU208
 775 000a 8846     		mov	r8, r1
 776 000c 1646     		mov	r6, r2
  48:Src/ninja_fruit_game.c **** 
 777              		.loc 1 48 29 view .LVU209
 778 000e FFF7FEFF 		bl	HAL_GetTick
 779              	.LVL73:
  51:Src/ninja_fruit_game.c ****         GestureType_t current_gesture = Gesture_GetCurrentDisplayGesture(gesture_detector);
 780              		.loc 1 51 8 view .LVU210
 781 0012 B4F80C31 		ldrh	r3, [r4, #268]
  48:Src/ninja_fruit_game.c **** 
 782              		.loc 1 48 29 view .LVU211
 783 0016 0746     		mov	r7, r0
 784              	.LVL74:
  51:Src/ninja_fruit_game.c ****         GestureType_t current_gesture = Gesture_GetCurrentDisplayGesture(gesture_detector);
 785              		.loc 1 51 5 is_stmt 1 view .LVU212
  51:Src/ninja_fruit_game.c ****         GestureType_t current_gesture = Gesture_GetCurrentDisplayGesture(gesture_detector);
 786              		.loc 1 51 8 is_stmt 0 view .LVU213
 787 0018 6BB9     		cbnz	r3, .L22
 788              	.LBB62:
  52:Src/ninja_fruit_game.c ****         if (current_gesture != GESTURE_NONE) {
 789              		.loc 1 52 9 is_stmt 1 view .LVU214
  52:Src/ninja_fruit_game.c ****         if (current_gesture != GESTURE_NONE) {
ARM GAS  C:\Users\Antonio\AppData\Local\Temp\ccV4ycTn.s 			page 25


 790              		.loc 1 52 41 is_stmt 0 view .LVU215
 791 001a 4046     		mov	r0, r8
 792              	.LVL75:
  52:Src/ninja_fruit_game.c ****         if (current_gesture != GESTURE_NONE) {
 793              		.loc 1 52 41 view .LVU216
 794 001c FFF7FEFF 		bl	Gesture_GetCurrentDisplayGesture
 795              	.LVL76:
  53:Src/ninja_fruit_game.c ****             game->game_started = 1;
 796              		.loc 1 53 9 is_stmt 1 view .LVU217
  53:Src/ninja_fruit_game.c ****             game->game_started = 1;
 797              		.loc 1 53 12 is_stmt 0 view .LVU218
 798 0020 C0B2     		uxtb	r0, r0
  53:Src/ninja_fruit_game.c ****             game->game_started = 1;
 799              		.loc 1 53 12 view .LVU219
 800 0022 20B1     		cbz	r0, .L21
  54:Src/ninja_fruit_game.c ****             game->game_start_time = current_time;
 801              		.loc 1 54 13 is_stmt 1 view .LVU220
  54:Src/ninja_fruit_game.c ****             game->game_start_time = current_time;
 802              		.loc 1 54 32 is_stmt 0 view .LVU221
 803 0024 0123     		movs	r3, #1
  55:Src/ninja_fruit_game.c ****         }
 804              		.loc 1 55 35 view .LVU222
 805 0026 C4F81071 		str	r7, [r4, #272]
  54:Src/ninja_fruit_game.c ****             game->game_start_time = current_time;
 806              		.loc 1 54 32 view .LVU223
 807 002a 84F80D31 		strb	r3, [r4, #269]
  55:Src/ninja_fruit_game.c ****         }
 808              		.loc 1 55 13 is_stmt 1 view .LVU224
 809              	.LVL77:
 810              	.L21:
  55:Src/ninja_fruit_game.c ****         }
 811              		.loc 1 55 13 is_stmt 0 view .LVU225
 812              	.LBE62:
 126:Src/ninja_fruit_game.c **** 
 813              		.loc 1 126 1 view .LVU226
 814 002e BDEC0A8B 		vldm	sp!, {d8-d12}
 815              		.cfi_remember_state
 816              		.cfi_restore 88
 817              		.cfi_restore 89
 818              		.cfi_restore 86
 819              		.cfi_restore 87
 820              		.cfi_restore 84
 821              		.cfi_restore 85
 822              		.cfi_restore 82
 823              		.cfi_restore 83
 824              		.cfi_restore 80
 825              		.cfi_restore 81
 826              		.cfi_def_cfa_offset 24
 827 0032 BDE8F081 		pop	{r4, r5, r6, r7, r8, pc}
 828              	.LVL78:
 829              	.L22:
 830              		.cfi_restore_state
  60:Src/ninja_fruit_game.c ****         // Check for restart gesture
 831              		.loc 1 60 5 is_stmt 1 view .LVU227
  60:Src/ninja_fruit_game.c ****         // Check for restart gesture
 832              		.loc 1 60 8 is_stmt 0 view .LVU228
 833 0036 94F80C21 		ldrb	r2, [r4, #268]	@ zero_extendqisi2
ARM GAS  C:\Users\Antonio\AppData\Local\Temp\ccV4ycTn.s 			page 26


 834 003a 62B1     		cbz	r2, .L25
 835              	.LBB63:
  62:Src/ninja_fruit_game.c ****         if (current_gesture != GESTURE_NONE) {
 836              		.loc 1 62 9 is_stmt 1 view .LVU229
  62:Src/ninja_fruit_game.c ****         if (current_gesture != GESTURE_NONE) {
 837              		.loc 1 62 41 is_stmt 0 view .LVU230
 838 003c 4046     		mov	r0, r8
 839              	.LVL79:
  62:Src/ninja_fruit_game.c ****         if (current_gesture != GESTURE_NONE) {
 840              		.loc 1 62 41 view .LVU231
 841 003e FFF7FEFF 		bl	Gesture_GetCurrentDisplayGesture
 842              	.LVL80:
  63:Src/ninja_fruit_game.c ****             NinjaGame_Reset(game);
 843              		.loc 1 63 9 is_stmt 1 view .LVU232
  63:Src/ninja_fruit_game.c ****             NinjaGame_Reset(game);
 844              		.loc 1 63 12 is_stmt 0 view .LVU233
 845 0042 C0B2     		uxtb	r0, r0
  63:Src/ninja_fruit_game.c ****             NinjaGame_Reset(game);
 846              		.loc 1 63 12 view .LVU234
 847 0044 0028     		cmp	r0, #0
 848 0046 F2D0     		beq	.L21
  64:Src/ninja_fruit_game.c ****         }
 849              		.loc 1 64 13 is_stmt 1 view .LVU235
 850              	.LBE63:
 126:Src/ninja_fruit_game.c **** 
 851              		.loc 1 126 1 is_stmt 0 view .LVU236
 852 0048 BDEC0A8B 		vldm	sp!, {d8-d12}
 853              		.cfi_remember_state
 854              		.cfi_restore 88
 855              		.cfi_restore 89
 856              		.cfi_restore 86
 857              		.cfi_restore 87
 858              		.cfi_restore 84
 859              		.cfi_restore 85
 860              		.cfi_restore 82
 861              		.cfi_restore 83
 862              		.cfi_restore 80
 863              		.cfi_restore 81
 864              		.cfi_def_cfa_offset 24
 865              	.LBB64:
  64:Src/ninja_fruit_game.c ****         }
 866              		.loc 1 64 13 view .LVU237
 867 004c 2046     		mov	r0, r4
 868              	.LVL81:
  64:Src/ninja_fruit_game.c ****         }
 869              		.loc 1 64 13 view .LVU238
 870              	.LBE64:
 126:Src/ninja_fruit_game.c **** 
 871              		.loc 1 126 1 view .LVU239
 872 004e BDE8F041 		pop	{r4, r5, r6, r7, r8, lr}
 873              		.cfi_restore 14
 874              		.cfi_restore 8
 875              		.cfi_restore 7
 876              		.cfi_restore 6
 877              		.cfi_restore 5
 878              		.cfi_restore 4
 879              		.cfi_def_cfa_offset 0
ARM GAS  C:\Users\Antonio\AppData\Local\Temp\ccV4ycTn.s 			page 27


 880              	.LVL82:
 881              	.LBB65:
  64:Src/ninja_fruit_game.c ****         }
 882              		.loc 1 64 13 view .LVU240
 883 0052 FFF7FEBF 		b	NinjaGame_Reset
 884              	.LVL83:
 885              	.L25:
 886              		.cfi_restore_state
  64:Src/ninja_fruit_game.c ****         }
 887              		.loc 1 64 13 view .LVU241
 888              	.LBE65:
  70:Src/ninja_fruit_game.c ****     game->level = (game_time / 30000) + 1; // Increase level every 30 seconds
 889              		.loc 1 70 5 is_stmt 1 view .LVU242
  71:Src/ninja_fruit_game.c ****     game->spawn_rate_multiplier = 1.0f + (game->level - 1) * 0.3f;
 890              		.loc 1 71 5 view .LVU243
  71:Src/ninja_fruit_game.c ****     game->spawn_rate_multiplier = 1.0f + (game->level - 1) * 0.3f;
 891              		.loc 1 71 30 is_stmt 0 view .LVU244
 892 0056 47F23051 		movw	r1, #30000
  70:Src/ninja_fruit_game.c ****     game->level = (game_time / 30000) + 1; // Increase level every 30 seconds
 893              		.loc 1 70 14 view .LVU245
 894 005a D4F81031 		ldr	r3, [r4, #272]
  72:Src/ninja_fruit_game.c **** 
 895              		.loc 1 72 40 view .LVU246
 896 005e DFEDD86A 		vldr.32	s13, .L72+8
  70:Src/ninja_fruit_game.c ****     game->level = (game_time / 30000) + 1; // Increase level every 30 seconds
 897              		.loc 1 70 14 view .LVU247
 898 0062 C31A     		subs	r3, r0, r3
 899              	.LVL84:
  71:Src/ninja_fruit_game.c ****     game->spawn_rate_multiplier = 1.0f + (game->level - 1) * 0.3f;
 900              		.loc 1 71 30 view .LVU248
 901 0064 B3FBF1F3 		udiv	r3, r3, r1
 902              	.LVL85:
  72:Src/ninja_fruit_game.c **** 
 903              		.loc 1 72 60 view .LVU249
 904 0068 07EE903A 		vmov	s15, r3	@ int
  72:Src/ninja_fruit_game.c **** 
 905              		.loc 1 72 40 view .LVU250
 906 006c B7EE007A 		vmov.f32	s14, #1.0e+0
  72:Src/ninja_fruit_game.c **** 
 907              		.loc 1 72 60 view .LVU251
 908 0070 F8EEE77A 		vcvt.f32.s32	s15, s15
  72:Src/ninja_fruit_game.c **** 
 909              		.loc 1 72 40 view .LVU252
 910 0074 A7EEA67A 		vfma.f32	s14, s15, s13
  75:Src/ninja_fruit_game.c ****     if (current_time - game->last_spawn_time > spawn_interval) {
 911              		.loc 1 75 52 view .LVU253
 912 0078 DFEDD26A 		vldr.32	s13, .L72+12
 913 007c C6EE877A 		vdiv.f32	s15, s13, s14
  75:Src/ninja_fruit_game.c ****     if (current_time - game->last_spawn_time > spawn_interval) {
 914              		.loc 1 75 14 view .LVU254
 915 0080 FCEEE77A 		vcvt.u32.f32	s15, s15
  71:Src/ninja_fruit_game.c ****     game->spawn_rate_multiplier = 1.0f + (game->level - 1) * 0.3f;
 916              		.loc 1 71 39 view .LVU255
 917 0084 591C     		adds	r1, r3, #1
  71:Src/ninja_fruit_game.c ****     game->spawn_rate_multiplier = 1.0f + (game->level - 1) * 0.3f;
 918              		.loc 1 71 17 view .LVU256
 919 0086 C4F81411 		str	r1, [r4, #276]
ARM GAS  C:\Users\Antonio\AppData\Local\Temp\ccV4ycTn.s 			page 28


  72:Src/ninja_fruit_game.c **** 
 920              		.loc 1 72 5 is_stmt 1 view .LVU257
  76:Src/ninja_fruit_game.c ****         SpawnFruit(game);
 921              		.loc 1 76 8 is_stmt 0 view .LVU258
 922 008a 17EE901A 		vmov	r1, s15	@ int
  76:Src/ninja_fruit_game.c ****         SpawnFruit(game);
 923              		.loc 1 76 22 view .LVU259
 924 008e D4F80831 		ldr	r3, [r4, #264]
  72:Src/ninja_fruit_game.c **** 
 925              		.loc 1 72 33 view .LVU260
 926 0092 84ED467A 		vstr.32	s14, [r4, #280]
  75:Src/ninja_fruit_game.c ****     if (current_time - game->last_spawn_time > spawn_interval) {
 927              		.loc 1 75 5 is_stmt 1 view .LVU261
 928              	.LVL86:
  76:Src/ninja_fruit_game.c ****         SpawnFruit(game);
 929              		.loc 1 76 5 view .LVU262
  76:Src/ninja_fruit_game.c ****         SpawnFruit(game);
 930              		.loc 1 76 22 is_stmt 0 view .LVU263
 931 0096 C31A     		subs	r3, r0, r3
  76:Src/ninja_fruit_game.c ****         SpawnFruit(game);
 932              		.loc 1 76 8 view .LVU264
 933 0098 8B42     		cmp	r3, r1
 934 009a 57D9     		bls	.L27
 935              	.LBB66:
 936              	.LBB67:
 131:Src/ninja_fruit_game.c ****         if (game->fruits[i].state == FRUIT_STATE_INACTIVE) {
 937              		.loc 1 131 14 view .LVU265
 938 009c 1346     		mov	r3, r2
 132:Src/ninja_fruit_game.c ****             Fruit_t *fruit = &game->fruits[i];
 939              		.loc 1 132 28 view .LVU266
 940 009e 0822     		movs	r2, #8
 941 00a0 04F11101 		add	r1, r4, #17
 942              	.LVL87:
 943              	.L30:
 132:Src/ninja_fruit_game.c ****             Fruit_t *fruit = &game->fruits[i];
 944              		.loc 1 132 9 is_stmt 1 view .LVU267
 945 00a4 5D01     		lsls	r5, r3, #5
 132:Src/ninja_fruit_game.c ****             Fruit_t *fruit = &game->fruits[i];
 946              		.loc 1 132 12 is_stmt 0 view .LVU268
 947 00a6 485D     		ldrb	r0, [r1, r5]	@ zero_extendqisi2
 948 00a8 0328     		cmp	r0, #3
 949 00aa 40F09F80 		bne	.L28
 950              	.LBB68:
 133:Src/ninja_fruit_game.c **** 
 951              		.loc 1 133 13 is_stmt 1 view .LVU269
 952              	.LVL88:
 136:Src/ninja_fruit_game.c ****             fruit->y = 0.03 + (FRUIT_SIZE/2)/SCREEN_HEIGHT;
 953              		.loc 1 136 13 view .LVU270
 136:Src/ninja_fruit_game.c ****             fruit->y = 0.03 + (FRUIT_SIZE/2)/SCREEN_HEIGHT;
 954              		.loc 1 136 33 is_stmt 0 view .LVU271
 955 00ae FFF7FEFF 		bl	rand
 956              	.LVL89:
 136:Src/ninja_fruit_game.c ****             fruit->y = 0.03 + (FRUIT_SIZE/2)/SCREEN_HEIGHT;
 957              		.loc 1 136 40 discriminator 1 view .LVU272
 958 00b2 4FF4FA73 		mov	r3, #500
 959 00b6 90FBF3F2 		sdiv	r2, r0, r3
 960 00ba 02FB1300 		mls	r0, r2, r3, r0
ARM GAS  C:\Users\Antonio\AppData\Local\Temp\ccV4ycTn.s 			page 29


 136:Src/ninja_fruit_game.c ****             fruit->y = 0.03 + (FRUIT_SIZE/2)/SCREEN_HEIGHT;
 961              		.loc 1 136 47 discriminator 1 view .LVU273
 962 00be 07EE900A 		vmov	s15, r0	@ int
 963 00c2 9FEDC18A 		vldr.32	s16, .L72+16
 964 00c6 F8EEE77A 		vcvt.f32.s32	s15, s15
 965 00ca 87EE887A 		vdiv.f32	s14, s15, s16
 136:Src/ninja_fruit_game.c ****             fruit->y = 0.03 + (FRUIT_SIZE/2)/SCREEN_HEIGHT;
 966              		.loc 1 136 30 discriminator 1 view .LVU274
 967 00ce F5EE007A 		vmov.f32	s15, #2.5e-1
 968 00d2 77EE277A 		vadd.f32	s15, s14, s15
 137:Src/ninja_fruit_game.c **** 
 969              		.loc 1 137 22 view .LVU275
 970 00d6 BD4B     		ldr	r3, .L72+20
 971 00d8 2544     		add	r5, r5, r4
 136:Src/ninja_fruit_game.c ****             fruit->y = 0.03 + (FRUIT_SIZE/2)/SCREEN_HEIGHT;
 972              		.loc 1 136 22 discriminator 1 view .LVU276
 973 00da C5ED007A 		vstr.32	s15, [r5]
 137:Src/ninja_fruit_game.c **** 
 974              		.loc 1 137 13 is_stmt 1 view .LVU277
 137:Src/ninja_fruit_game.c **** 
 975              		.loc 1 137 22 is_stmt 0 view .LVU278
 976 00de 6B60     		str	r3, [r5, #4]	@ float
 140:Src/ninja_fruit_game.c ****             fruit->velocity_y = FRUIT_FALL_SPEED + ((rand() % 50) / 1000.0f); // Random fall speed 
 977              		.loc 1 140 13 is_stmt 1 view .LVU279
 140:Src/ninja_fruit_game.c ****             fruit->velocity_y = FRUIT_FALL_SPEED + ((rand() % 50) / 1000.0f); // Random fall speed 
 978              		.loc 1 140 35 is_stmt 0 view .LVU280
 979 00e0 FFF7FEFF 		bl	rand
 980              	.LVL90:
 140:Src/ninja_fruit_game.c ****             fruit->velocity_y = FRUIT_FALL_SPEED + ((rand() % 50) / 1000.0f); // Random fall speed 
 981              		.loc 1 140 42 discriminator 1 view .LVU281
 982 00e4 6423     		movs	r3, #100
 983 00e6 90FBF3F2 		sdiv	r2, r0, r3
 984 00ea 02FB1303 		mls	r3, r2, r3, r0
 140:Src/ninja_fruit_game.c ****             fruit->velocity_y = FRUIT_FALL_SPEED + ((rand() % 50) / 1000.0f); // Random fall speed 
 985              		.loc 1 140 49 discriminator 1 view .LVU282
 986 00ee 323B     		subs	r3, r3, #50
 140:Src/ninja_fruit_game.c ****             fruit->velocity_y = FRUIT_FALL_SPEED + ((rand() % 50) / 1000.0f); // Random fall speed 
 987              		.loc 1 140 55 discriminator 1 view .LVU283
 988 00f0 07EE903A 		vmov	s15, r3	@ int
 989 00f4 DFEDB66A 		vldr.32	s13, .L72+24
 990 00f8 F8EEE77A 		vcvt.f32.s32	s15, s15
 991 00fc 87EEA67A 		vdiv.f32	s14, s15, s13
 140:Src/ninja_fruit_game.c ****             fruit->velocity_y = FRUIT_FALL_SPEED + ((rand() % 50) / 1000.0f); // Random fall speed 
 992              		.loc 1 140 31 discriminator 1 view .LVU284
 993 0100 85ED037A 		vstr.32	s14, [r5, #12]
 141:Src/ninja_fruit_game.c **** 
 994              		.loc 1 141 13 is_stmt 1 view .LVU285
 141:Src/ninja_fruit_game.c **** 
 995              		.loc 1 141 54 is_stmt 0 view .LVU286
 996 0104 FFF7FEFF 		bl	rand
 997              	.LVL91:
 141:Src/ninja_fruit_game.c **** 
 998              		.loc 1 141 61 discriminator 1 view .LVU287
 999 0108 3223     		movs	r3, #50
 1000 010a 90FBF3F2 		sdiv	r2, r0, r3
 1001 010e 02FB1300 		mls	r0, r2, r3, r0
 141:Src/ninja_fruit_game.c **** 
ARM GAS  C:\Users\Antonio\AppData\Local\Temp\ccV4ycTn.s 			page 30


 1002              		.loc 1 141 67 discriminator 1 view .LVU288
 1003 0112 07EE900A 		vmov	s15, r0	@ int
 1004 0116 F8EEE77A 		vcvt.f32.s32	s15, s15
 1005 011a 87EE887A 		vdiv.f32	s14, s15, s16
 141:Src/ninja_fruit_game.c **** 
 1006              		.loc 1 141 50 discriminator 1 view .LVU289
 1007 011e DFEDAD7A 		vldr.32	s15, .L72+28
 1008 0122 77EE277A 		vadd.f32	s15, s14, s15
 141:Src/ninja_fruit_game.c **** 
 1009              		.loc 1 141 31 discriminator 1 view .LVU290
 1010 0126 C5ED027A 		vstr.32	s15, [r5, #8]
 144:Src/ninja_fruit_game.c ****             fruit->state = FRUIT_STATE_FALLING;
 1011              		.loc 1 144 13 is_stmt 1 view .LVU291
 144:Src/ninja_fruit_game.c ****             fruit->state = FRUIT_STATE_FALLING;
 1012              		.loc 1 144 27 is_stmt 0 view .LVU292
 1013 012a FFF7FEFF 		bl	rand
 1014              	.LVL92:
 144:Src/ninja_fruit_game.c ****             fruit->state = FRUIT_STATE_FALLING;
 1015              		.loc 1 144 34 discriminator 1 view .LVU293
 1016 012e 4242     		rsbs	r2, r0, #0
 1017 0130 00F00303 		and	r3, r0, #3
 1018 0134 02F00302 		and	r2, r2, #3
 1019 0138 53EA42B3 		csneg	r3, r3, r2, mi
 1020 013c 2B74     		strb	r3, [r5, #16]
 145:Src/ninja_fruit_game.c ****             fruit->spawn_time = HAL_GetTick();
 1021              		.loc 1 145 13 is_stmt 1 view .LVU294
 145:Src/ninja_fruit_game.c ****             fruit->spawn_time = HAL_GetTick();
 1022              		.loc 1 145 26 is_stmt 0 view .LVU295
 1023 013e 0023     		movs	r3, #0
 1024 0140 6B74     		strb	r3, [r5, #17]
 146:Src/ninja_fruit_game.c **** 
 1025              		.loc 1 146 13 is_stmt 1 view .LVU296
 146:Src/ninja_fruit_game.c **** 
 1026              		.loc 1 146 33 is_stmt 0 view .LVU297
 1027 0142 FFF7FEFF 		bl	HAL_GetTick
 1028              	.LVL93:
 146:Src/ninja_fruit_game.c **** 
 1029              		.loc 1 146 31 discriminator 1 view .LVU298
 1030 0146 6861     		str	r0, [r5, #20]
 148:Src/ninja_fruit_game.c ****         }
 1031              		.loc 1 148 13 is_stmt 1 view .LVU299
 1032              	.LVL94:
 1033              	.L29:
 148:Src/ninja_fruit_game.c ****         }
 1034              		.loc 1 148 13 is_stmt 0 view .LVU300
 1035              	.LBE68:
 1036              	.LBE67:
 1037              	.LBE66:
  78:Src/ninja_fruit_game.c ****     }
 1038              		.loc 1 78 9 is_stmt 1 view .LVU301
  78:Src/ninja_fruit_game.c ****     }
 1039              		.loc 1 78 31 is_stmt 0 view .LVU302
 1040 0148 C4F80871 		str	r7, [r4, #264]
 1041              	.L27:
  82:Src/ninja_fruit_game.c **** 
 1042              		.loc 1 82 5 is_stmt 1 view .LVU303
 1043              	.LVL95:
ARM GAS  C:\Users\Antonio\AppData\Local\Temp\ccV4ycTn.s 			page 31


 1044              	.LBB70:
 1045              	.LBI70:
 153:Src/ninja_fruit_game.c **** {
 1046              		.loc 1 153 13 view .LVU304
 1047              	.LBB71:
 155:Src/ninja_fruit_game.c ****     float32_t dt = 0.016f; // Assuming ~60fps update rate
 1048              		.loc 1 155 5 view .LVU305
 155:Src/ninja_fruit_game.c ****     float32_t dt = 0.016f; // Assuming ~60fps update rate
 1049              		.loc 1 155 29 is_stmt 0 view .LVU306
 1050 014c FFF7FEFF 		bl	HAL_GetTick
 1051              	.LVL96:
 156:Src/ninja_fruit_game.c **** 
 1052              		.loc 1 156 5 is_stmt 1 view .LVU307
 158:Src/ninja_fruit_game.c ****         Fruit_t *fruit = &game->fruits[i];
 1053              		.loc 1 158 5 view .LVU308
 1054              	.LBB72:
 158:Src/ninja_fruit_game.c ****         Fruit_t *fruit = &game->fruits[i];
 1055              		.loc 1 158 10 view .LVU309
 158:Src/ninja_fruit_game.c ****         Fruit_t *fruit = &game->fruits[i];
 1056              		.loc 1 158 23 discriminator 1 view .LVU310
 1057 0150 2546     		mov	r5, r4
 1058              	.LBE72:
 155:Src/ninja_fruit_game.c ****     float32_t dt = 0.016f; // Assuming ~60fps update rate
 1059              		.loc 1 155 29 is_stmt 0 view .LVU311
 1060 0152 2346     		mov	r3, r4
 1061              	.LBB75:
 1062              	.LBB73:
 163:Src/ninja_fruit_game.c ****             fruit->x += fruit->velocity_x * dt;
 1063              		.loc 1 163 22 view .LVU312
 1064 0154 DFEDA06A 		vldr.32	s13, .L72+32
 167:Src/ninja_fruit_game.c ****                 fruit->state = FRUIT_STATE_MISSED;
 1065              		.loc 1 167 16 view .LVU313
 1066 0158 9FED975B 		vldr.64	d5, .L72
 168:Src/ninja_fruit_game.c ****                 game->missed_count++;
 1067              		.loc 1 168 30 view .LVU314
 1068 015c 4FF0020C 		mov	ip, #2
 1069 0160 0822     		movs	r2, #8
 1070 0162 04F58077 		add	r7, r4, #256
 1071              	.LVL97:
 1072              	.L36:
 159:Src/ninja_fruit_game.c **** 
 1073              		.loc 1 159 9 is_stmt 1 view .LVU315
 161:Src/ninja_fruit_game.c ****             // Update position
 1074              		.loc 1 161 9 view .LVU316
 161:Src/ninja_fruit_game.c ****             // Update position
 1075              		.loc 1 161 18 is_stmt 0 view .LVU317
 1076 0166 597C     		ldrb	r1, [r3, #17]	@ zero_extendqisi2
 161:Src/ninja_fruit_game.c ****             // Update position
 1077              		.loc 1 161 12 view .LVU318
 1078 0168 0029     		cmp	r1, #0
 1079 016a 45D1     		bne	.L31
 163:Src/ninja_fruit_game.c ****             fruit->x += fruit->velocity_x * dt;
 1080              		.loc 1 163 13 is_stmt 1 view .LVU319
 163:Src/ninja_fruit_game.c ****             fruit->x += fruit->velocity_x * dt;
 1081              		.loc 1 163 22 is_stmt 0 view .LVU320
 1082 016c D3ED027A 		vldr.32	s15, [r3, #8]
 1083 0170 93ED017A 		vldr.32	s14, [r3, #4]
ARM GAS  C:\Users\Antonio\AppData\Local\Temp\ccV4ycTn.s 			page 32


 164:Src/ninja_fruit_game.c **** 
 1084              		.loc 1 164 22 view .LVU321
 1085 0174 93ED036A 		vldr.32	s12, [r3, #12]
 163:Src/ninja_fruit_game.c ****             fruit->x += fruit->velocity_x * dt;
 1086              		.loc 1 163 22 view .LVU322
 1087 0178 A7EEA67A 		vfma.f32	s14, s15, s13
 164:Src/ninja_fruit_game.c **** 
 1088              		.loc 1 164 22 view .LVU323
 1089 017c D3ED007A 		vldr.32	s15, [r3]
 1090 0180 E6EE267A 		vfma.f32	s15, s12, s13
 163:Src/ninja_fruit_game.c ****             fruit->x += fruit->velocity_x * dt;
 1091              		.loc 1 163 22 view .LVU324
 1092 0184 83ED017A 		vstr.32	s14, [r3, #4]
 164:Src/ninja_fruit_game.c **** 
 1093              		.loc 1 164 13 is_stmt 1 view .LVU325
 164:Src/ninja_fruit_game.c **** 
 1094              		.loc 1 164 22 is_stmt 0 view .LVU326
 1095 0188 C3ED007A 		vstr.32	s15, [r3]
 167:Src/ninja_fruit_game.c ****                 fruit->state = FRUIT_STATE_MISSED;
 1096              		.loc 1 167 13 is_stmt 1 view .LVU327
 167:Src/ninja_fruit_game.c ****                 fruit->state = FRUIT_STATE_MISSED;
 1097              		.loc 1 167 22 is_stmt 0 view .LVU328
 1098 018c B7EEC77A 		vcvt.f64.f32	d7, s14
 167:Src/ninja_fruit_game.c ****                 fruit->state = FRUIT_STATE_MISSED;
 1099              		.loc 1 167 16 view .LVU329
 1100 0190 B4EEC57B 		vcmpe.f64	d7, d5
 1101 0194 F1EE10FA 		vmrs	APSR_nzcv, FPSCR
 1102 0198 06DD     		ble	.L33
 168:Src/ninja_fruit_game.c ****                 game->missed_count++;
 1103              		.loc 1 168 17 is_stmt 1 view .LVU330
 168:Src/ninja_fruit_game.c ****                 game->missed_count++;
 1104              		.loc 1 168 30 is_stmt 0 view .LVU331
 1105 019a 83F811C0 		strb	ip, [r3, #17]
 169:Src/ninja_fruit_game.c ****             }
 1106              		.loc 1 169 17 is_stmt 1 view .LVU332
 169:Src/ninja_fruit_game.c ****             }
 1107              		.loc 1 169 35 is_stmt 0 view .LVU333
 1108 019e D4F80411 		ldr	r1, [r4, #260]
 1109 01a2 0131     		adds	r1, r1, #1
 1110 01a4 C4F80411 		str	r1, [r4, #260]
 1111              	.L33:
 169:Src/ninja_fruit_game.c ****             }
 1112              		.loc 1 169 35 view .LVU334
 1113              	.LBE73:
 158:Src/ninja_fruit_game.c ****         Fruit_t *fruit = &game->fruits[i];
 1114              		.loc 1 158 38 is_stmt 1 discriminator 2 view .LVU335
 158:Src/ninja_fruit_game.c ****         Fruit_t *fruit = &game->fruits[i];
 1115              		.loc 1 158 23 discriminator 1 view .LVU336
 1116 01a8 013A     		subs	r2, r2, #1
 1117 01aa 03F12003 		add	r3, r3, #32
 1118 01ae DAD1     		bne	.L36
 1119              	.LVL98:
 158:Src/ninja_fruit_game.c ****         Fruit_t *fruit = &game->fruits[i];
 1120              		.loc 1 158 23 is_stmt 0 discriminator 1 view .LVU337
 1121              	.LBE75:
 1122              	.LBE71:
 1123              	.LBE70:
ARM GAS  C:\Users\Antonio\AppData\Local\Temp\ccV4ycTn.s 			page 33


  84:Src/ninja_fruit_game.c ****             // Check for slicing gestures
 1124              		.loc 1 84 5 is_stmt 1 view .LVU338
  84:Src/ninja_fruit_game.c ****             // Check for slicing gestures
 1125              		.loc 1 84 8 is_stmt 0 view .LVU339
 1126 01b0 94F81C31 		ldrb	r3, [r4, #284]	@ zero_extendqisi2
 1127 01b4 002B     		cmp	r3, #0
 1128 01b6 40F0B580 		bne	.L37
 1129              	.LBB78:
  86:Src/ninja_fruit_game.c **** 
 1130              		.loc 1 86 13 is_stmt 1 view .LVU340
  86:Src/ninja_fruit_game.c **** 
 1131              		.loc 1 86 46 is_stmt 0 view .LVU341
 1132 01ba 4046     		mov	r0, r8
 1133 01bc FFF7FEFF 		bl	Gesture_GetCurrentDisplayGesture
 1134              	.LVL99:
  86:Src/ninja_fruit_game.c **** 
 1135              		.loc 1 86 27 discriminator 1 view .LVU342
 1136 01c0 C0B2     		uxtb	r0, r0
 1137              	.LVL100:
  88:Src/ninja_fruit_game.c ****                 detected_gesture == GESTURE_LEFT_ARM_SWIPE_RIGHT ||
 1138              		.loc 1 88 13 is_stmt 1 view .LVU343
  88:Src/ninja_fruit_game.c ****                 detected_gesture == GESTURE_LEFT_ARM_SWIPE_RIGHT ||
 1139              		.loc 1 88 16 is_stmt 0 view .LVU344
 1140 01c2 C31E     		subs	r3, r0, #3
 1141 01c4 012B     		cmp	r3, #1
 1142 01c6 24D9     		bls	.L38
  89:Src/ninja_fruit_game.c ****                 detected_gesture == GESTURE_RIGHT_ARM_SWIPE_LEFT ||
 1143              		.loc 1 89 66 view .LVU345
 1144 01c8 431E     		subs	r3, r0, #1
 1145 01ca 012B     		cmp	r3, #1
 1146 01cc 03D9     		bls	.L39
  91:Src/ninja_fruit_game.c ****                 detected_gesture == GESTURE_SWORD_OVERHEAD_STRIKE ||
 1147              		.loc 1 91 67 view .LVU346
 1148 01ce 831F     		subs	r3, r0, #6
 1149 01d0 012B     		cmp	r3, #1
 1150 01d2 00F29980 		bhi	.L50
 1151              	.L39:
 1152              	.LBB79:
  96:Src/ninja_fruit_game.c **** 
 1153              		.loc 1 96 17 is_stmt 1 view .LVU347
  99:Src/ninja_fruit_game.c ****                     swipe.end_x = keypoints[KEYPOINT_LEFT_WRIST].x_center;
 1154              		.loc 1 99 17 view .LVU348
 103:Src/ninja_fruit_game.c ****                     swipe.end_y = keypoints[KEYPOINT_RIGHT_WRIST].y_center;
 1155              		.loc 1 103 21 view .LVU349
 1156 01d6 0628     		cmp	r0, #6
 103:Src/ninja_fruit_game.c ****                     swipe.end_y = keypoints[KEYPOINT_RIGHT_WRIST].y_center;
 1157              		.loc 1 103 66 is_stmt 0 view .LVU350
 1158 01d8 96ED12AA 		vldr.32	s20, [r6, #72]
 1159              	.LVL101:
 104:Src/ninja_fruit_game.c ****                 }
 1160              		.loc 1 104 21 is_stmt 1 view .LVU351
 104:Src/ninja_fruit_game.c ****                 }
 1161              		.loc 1 104 66 is_stmt 0 view .LVU352
 1162 01dc D6ED13BA 		vldr.32	s23, [r6, #76]
 1163              	.LVL102:
 107:Src/ninja_fruit_game.c ****                                           detected_gesture == GESTURE_RIGHT_ARM_SWIPE_RIGHT) ? -0.2
 1164              		.loc 1 107 28 is_stmt 1 view .LVU353
ARM GAS  C:\Users\Antonio\AppData\Local\Temp\ccV4ycTn.s 			page 34


 107:Src/ninja_fruit_game.c ****                                           detected_gesture == GESTURE_RIGHT_ARM_SWIPE_RIGHT) ? -0.2
 1165              		.loc 1 107 28 is_stmt 0 view .LVU354
 1166 01e0 1DD1     		bne	.L42
 104:Src/ninja_fruit_game.c ****                 }
 1167              		.loc 1 104 66 view .LVU355
 1168 01e2 9FED7E8A 		vldr.32	s16, .L72+36
 1169 01e6 9FED7E9A 		vldr.32	s18, .L72+40
 1170 01ea 21E0     		b	.L41
 1171              	.LVL103:
 1172              	.L28:
 104:Src/ninja_fruit_game.c ****                 }
 1173              		.loc 1 104 66 view .LVU356
 1174              	.LBE79:
 1175              	.LBE78:
 1176              	.LBB100:
 1177              	.LBB69:
 131:Src/ninja_fruit_game.c ****         if (game->fruits[i].state == FRUIT_STATE_INACTIVE) {
 1178              		.loc 1 131 38 is_stmt 1 discriminator 2 view .LVU357
 131:Src/ninja_fruit_game.c ****         if (game->fruits[i].state == FRUIT_STATE_INACTIVE) {
 1179              		.loc 1 131 23 is_stmt 0 discriminator 1 view .LVU358
 1180 01ec 013A     		subs	r2, r2, #1
 131:Src/ninja_fruit_game.c ****         if (game->fruits[i].state == FRUIT_STATE_INACTIVE) {
 1181              		.loc 1 131 38 discriminator 2 view .LVU359
 1182 01ee 03F10103 		add	r3, r3, #1
 1183              	.LVL104:
 131:Src/ninja_fruit_game.c ****         if (game->fruits[i].state == FRUIT_STATE_INACTIVE) {
 1184              		.loc 1 131 23 is_stmt 1 discriminator 1 view .LVU360
 1185 01f2 7FF457AF 		bne	.L30
 1186 01f6 A7E7     		b	.L29
 1187              	.LVL105:
 1188              	.L31:
 131:Src/ninja_fruit_game.c ****         if (game->fruits[i].state == FRUIT_STATE_INACTIVE) {
 1189              		.loc 1 131 23 is_stmt 0 discriminator 1 view .LVU361
 1190              	.LBE69:
 1191              	.LBE100:
 1192              	.LBB101:
 1193              	.LBB77:
 1194              	.LBB76:
 1195              	.LBB74:
 172:Src/ninja_fruit_game.c ****             // Remove sliced fruits after animation time
 1196              		.loc 1 172 14 is_stmt 1 view .LVU362
 172:Src/ninja_fruit_game.c ****             // Remove sliced fruits after animation time
 1197              		.loc 1 172 17 is_stmt 0 view .LVU363
 1198 01f8 0129     		cmp	r1, #1
 1199 01fa 07D1     		bne	.L34
 174:Src/ninja_fruit_game.c ****                 fruit->state = FRUIT_STATE_INACTIVE;
 1200              		.loc 1 174 13 is_stmt 1 view .LVU364
 174:Src/ninja_fruit_game.c ****                 fruit->state = FRUIT_STATE_INACTIVE;
 1201              		.loc 1 174 30 is_stmt 0 view .LVU365
 1202 01fc 9969     		ldr	r1, [r3, #24]
 1203 01fe 411A     		subs	r1, r0, r1
 174:Src/ninja_fruit_game.c ****                 fruit->state = FRUIT_STATE_INACTIVE;
 1204              		.loc 1 174 16 view .LVU366
 1205 0200 B1F5FA7F 		cmp	r1, #500
 1206 0204 D0D9     		bls	.L33
 1207              	.L70:
 180:Src/ninja_fruit_game.c ****         }
ARM GAS  C:\Users\Antonio\AppData\Local\Temp\ccV4ycTn.s 			page 35


 1208              		.loc 1 180 13 is_stmt 1 view .LVU367
 180:Src/ninja_fruit_game.c ****         }
 1209              		.loc 1 180 26 is_stmt 0 view .LVU368
 1210 0206 0321     		movs	r1, #3
 1211 0208 5974     		strb	r1, [r3, #17]
 1212 020a CDE7     		b	.L33
 1213              	.L34:
 178:Src/ninja_fruit_game.c ****             // Remove missed fruits immediately
 1214              		.loc 1 178 14 is_stmt 1 view .LVU369
 178:Src/ninja_fruit_game.c ****             // Remove missed fruits immediately
 1215              		.loc 1 178 17 is_stmt 0 view .LVU370
 1216 020c 0229     		cmp	r1, #2
 1217 020e CBD1     		bne	.L33
 1218 0210 F9E7     		b	.L70
 1219              	.LVL106:
 1220              	.L38:
 178:Src/ninja_fruit_game.c ****             // Remove missed fruits immediately
 1221              		.loc 1 178 17 view .LVU371
 1222              	.LBE74:
 1223              	.LBE76:
 1224              	.LBE77:
 1225              	.LBE101:
 1226              	.LBB102:
 1227              	.LBB98:
 100:Src/ninja_fruit_game.c ****                     swipe.end_y = keypoints[KEYPOINT_LEFT_WRIST].y_center;
 1228              		.loc 1 100 21 is_stmt 1 view .LVU372
 1229 0212 0428     		cmp	r0, #4
 100:Src/ninja_fruit_game.c ****                     swipe.end_y = keypoints[KEYPOINT_LEFT_WRIST].y_center;
 1230              		.loc 1 100 65 is_stmt 0 view .LVU373
 1231 0214 96ED0FAA 		vldr.32	s20, [r6, #60]
 1232              	.LVL107:
 101:Src/ninja_fruit_game.c ****                 } else {
 1233              		.loc 1 101 21 is_stmt 1 view .LVU374
 101:Src/ninja_fruit_game.c ****                 } else {
 1234              		.loc 1 101 65 is_stmt 0 view .LVU375
 1235 0218 D6ED10BA 		vldr.32	s23, [r6, #64]
 1236              	.LVL108:
 107:Src/ninja_fruit_game.c ****                                           detected_gesture == GESTURE_RIGHT_ARM_SWIPE_RIGHT) ? -0.2
 1237              		.loc 1 107 28 is_stmt 1 view .LVU376
 1238 021c 7CD0     		beq	.L56
 1239              	.L42:
 1240              	.LVL109:
 104:Src/ninja_fruit_game.c ****                 }
 1241              		.loc 1 104 66 is_stmt 0 view .LVU377
 1242 021e 9FED718A 		vldr.32	s16, .L72+44
 1243 0222 DFED6E7A 		vldr.32	s15, .L72+36
 1244 0226 0228     		cmp	r0, #2
 1245 0228 08FE278A 		vseleq.f32	s16, s16, s15
 1246              	.L71:
 101:Src/ninja_fruit_game.c ****                 } else {
 1247              		.loc 1 101 65 view .LVU378
 1248 022c 9FED6E9A 		vldr.32	s18, .L72+48
 1249              	.L41:
 1250              	.LVL110:
 110:Src/ninja_fruit_game.c **** 			  swipe.start_y = swipe.end_y + dy;
 1251              		.loc 1 110 9 is_stmt 1 view .LVU379
 110:Src/ninja_fruit_game.c **** 			  swipe.start_y = swipe.end_y + dy;
ARM GAS  C:\Users\Antonio\AppData\Local\Temp\ccV4ycTn.s 			page 36


 1252              		.loc 1 110 37 is_stmt 0 view .LVU380
 1253 0230 38EE0A8A 		vadd.f32	s16, s16, s20
 111:Src/ninja_fruit_game.c **** 			  swipe.timestamp = current_time;
 1254              		.loc 1 111 6 is_stmt 1 view .LVU381
 111:Src/ninja_fruit_game.c **** 			  swipe.timestamp = current_time;
 1255              		.loc 1 111 34 is_stmt 0 view .LVU382
 1256 0234 39EE2B9A 		vadd.f32	s18, s18, s23
 1257              	.LVL111:
 112:Src/ninja_fruit_game.c **** 			  swipe.active = 1;
 1258              		.loc 1 112 6 is_stmt 1 view .LVU383
 113:Src/ninja_fruit_game.c **** 			  CheckSlices(game, &swipe);
 1259              		.loc 1 113 6 view .LVU384
 114:Src/ninja_fruit_game.c ****         }
 1260              		.loc 1 114 6 view .LVU385
 1261              	.LBB80:
 1262              	.LBI80:
 185:Src/ninja_fruit_game.c **** {
 1263              		.loc 1 185 13 view .LVU386
 187:Src/ninja_fruit_game.c **** 
 1264              		.loc 1 187 5 view .LVU387
 1265              	.LBB81:
 189:Src/ninja_fruit_game.c ****         Fruit_t *fruit = &game->fruits[i];
 1266              		.loc 1 189 23 discriminator 1 view .LVU388
 1267              	.LBB82:
 1268              	.LBB83:
 1269              	.LBB84:
 1270              	.LBB85:
 268:Src/ninja_fruit_game.c **** 
 1271              		.loc 1 268 8 is_stmt 0 view .LVU389
 1272 0238 DFED6CAA 		vldr.32	s21, .L72+52
 1273              	.LBE85:
 1274              	.LBE84:
 196:Src/ninja_fruit_game.c ****                                    swipe->end_x, swipe->end_y,
 1275              		.loc 1 196 16 discriminator 1 view .LVU390
 1276 023c 9FED6CBA 		vldr.32	s22, .L72+56
 1277              	.LVL112:
 1278              	.L49:
 196:Src/ninja_fruit_game.c ****                                    swipe->end_x, swipe->end_y,
 1279              		.loc 1 196 16 discriminator 1 view .LVU391
 1280              	.LBE83:
 190:Src/ninja_fruit_game.c **** 
 1281              		.loc 1 190 9 is_stmt 1 view .LVU392
 192:Src/ninja_fruit_game.c ****             // Check if swipe line intersects with fruit circle
 1282              		.loc 1 192 9 view .LVU393
 192:Src/ninja_fruit_game.c ****             // Check if swipe line intersects with fruit circle
 1283              		.loc 1 192 12 is_stmt 0 view .LVU394
 1284 0240 6B7C     		ldrb	r3, [r5, #17]	@ zero_extendqisi2
 1285 0242 002B     		cmp	r3, #0
 1286 0244 5DD1     		bne	.L44
 1287              	.LBB93:
 194:Src/ninja_fruit_game.c **** 
 1288              		.loc 1 194 13 is_stmt 1 view .LVU395
 1289              	.LVL113:
 196:Src/ninja_fruit_game.c ****                                    swipe->end_x, swipe->end_y,
 1290              		.loc 1 196 13 view .LVU396
 1291              	.LBB89:
 1292              	.LBB86:
ARM GAS  C:\Users\Antonio\AppData\Local\Temp\ccV4ycTn.s 			page 37


 265:Src/ninja_fruit_game.c ****     float32_t length = sqrtf(dx*dx + dy*dy);
 1293              		.loc 1 265 15 is_stmt 0 view .LVU397
 1294 0246 3BEEC9CA 		vsub.f32	s24, s23, s18
 264:Src/ninja_fruit_game.c ****     float32_t dy = y2 - y1;
 1295              		.loc 1 264 15 view .LVU398
 1296 024a 7AEE48CA 		vsub.f32	s25, s20, s16
 266:Src/ninja_fruit_game.c **** 
 1297              		.loc 1 266 40 view .LVU399
 1298 024e 2CEE0C0A 		vmul.f32	s0, s24, s24
 266:Src/ninja_fruit_game.c **** 
 1299              		.loc 1 266 24 view .LVU400
 1300 0252 ACEEAC0A 		vfma.f32	s0, s25, s25
 1301              	.LBE86:
 1302              	.LBE89:
 196:Src/ninja_fruit_game.c ****                                    swipe->end_x, swipe->end_y,
 1303              		.loc 1 196 17 view .LVU401
 1304 0256 D5ED009A 		vldr.32	s19, [r5]
 1305 025a D5ED018A 		vldr.32	s17, [r5, #4]
 1306              	.LVL114:
 1307              	.LBB90:
 1308              	.LBI84:
 260:Src/ninja_fruit_game.c ****                                    float32_t cx, float32_t cy, float32_t radius)
 1309              		.loc 1 260 16 is_stmt 1 view .LVU402
 1310              	.LBB87:
 264:Src/ninja_fruit_game.c ****     float32_t dy = y2 - y1;
 1311              		.loc 1 264 5 view .LVU403
 265:Src/ninja_fruit_game.c ****     float32_t length = sqrtf(dx*dx + dy*dy);
 1312              		.loc 1 265 5 view .LVU404
 266:Src/ninja_fruit_game.c **** 
 1313              		.loc 1 266 5 view .LVU405
 266:Src/ninja_fruit_game.c **** 
 1314              		.loc 1 266 24 is_stmt 0 view .LVU406
 1315 025e FFF7FEFF 		bl	sqrtf
 1316              	.LVL115:
 268:Src/ninja_fruit_game.c **** 
 1317              		.loc 1 268 5 is_stmt 1 view .LVU407
 268:Src/ninja_fruit_game.c **** 
 1318              		.loc 1 268 8 is_stmt 0 view .LVU408
 1319 0262 B4EEEA0A 		vcmpe.f32	s0, s21
 1320 0266 F1EE10FA 		vmrs	APSR_nzcv, FPSCR
 1321 026a 4AD4     		bmi	.L44
 271:Src/ninja_fruit_game.c ****     dy /= length;
 1322              		.loc 1 271 5 is_stmt 1 view .LVU409
 272:Src/ninja_fruit_game.c **** 
 1323              		.loc 1 272 8 is_stmt 0 view .LVU410
 1324 026c CCEE006A 		vdiv.f32	s13, s24, s0
 276:Src/ninja_fruit_game.c **** 
 1325              		.loc 1 276 15 view .LVU411
 1326 0270 78EEC97A 		vsub.f32	s15, s17, s18
 271:Src/ninja_fruit_game.c ****     dy /= length;
 1327              		.loc 1 271 8 view .LVU412
 1328 0274 8CEE806A 		vdiv.f32	s12, s25, s0
 1329              	.LVL116:
 272:Src/ninja_fruit_game.c **** 
 1330              		.loc 1 272 5 is_stmt 1 view .LVU413
 275:Src/ninja_fruit_game.c ****     float32_t fy = cy - y1;
 1331              		.loc 1 275 5 view .LVU414
ARM GAS  C:\Users\Antonio\AppData\Local\Temp\ccV4ycTn.s 			page 38


 276:Src/ninja_fruit_game.c **** 
 1332              		.loc 1 276 5 view .LVU415
 279:Src/ninja_fruit_game.c **** 
 1333              		.loc 1 279 5 view .LVU416
 275:Src/ninja_fruit_game.c ****     float32_t fy = cy - y1;
 1334              		.loc 1 275 15 is_stmt 0 view .LVU417
 1335 0278 39EEC87A 		vsub.f32	s14, s19, s16
 1336              	.LVL117:
 279:Src/ninja_fruit_game.c **** 
 1337              		.loc 1 279 32 view .LVU418
 1338 027c 67EEA67A 		vmul.f32	s15, s15, s13
 1339              	.LVL118:
 279:Src/ninja_fruit_game.c **** 
 1340              		.loc 1 279 15 view .LVU419
 1341 0280 E6EE077A 		vfma.f32	s15, s12, s14
 1342              	.LVL119:
 282:Src/ninja_fruit_game.c ****     if (t > length) t = length;
 1343              		.loc 1 282 5 is_stmt 1 view .LVU420
 282:Src/ninja_fruit_game.c ****     if (t > length) t = length;
 1344              		.loc 1 282 8 is_stmt 0 view .LVU421
 1345 0284 F5EEC07A 		vcmpe.f32	s15, #0
 1346 0288 F1EE10FA 		vmrs	APSR_nzcv, FPSCR
 1347 028c 47D4     		bmi	.L59
 283:Src/ninja_fruit_game.c **** 
 1348              		.loc 1 283 5 is_stmt 1 view .LVU422
 283:Src/ninja_fruit_game.c **** 
 1349              		.loc 1 283 8 is_stmt 0 view .LVU423
 1350 028e B4EEE70A 		vcmpe.f32	s0, s15
 1351 0292 F1EE10FA 		vmrs	APSR_nzcv, FPSCR
 1352 0296 58BF     		it	pl
 1353 0298 B0EE670A 		vmovpl.f32	s0, s15
 1354              	.LVL120:
 1355              	.L46:
 286:Src/ninja_fruit_game.c ****     float32_t closest_y = y1 + t * dy;
 1356              		.loc 1 286 5 is_stmt 1 view .LVU424
 287:Src/ninja_fruit_game.c **** 
 1357              		.loc 1 287 15 is_stmt 0 view .LVU425
 1358 029c F0EE497A 		vmov.f32	s15, s18
 286:Src/ninja_fruit_game.c ****     float32_t closest_y = y1 + t * dy;
 1359              		.loc 1 286 15 view .LVU426
 1360 02a0 B0EE487A 		vmov.f32	s14, s16
 1361              	.LVL121:
 287:Src/ninja_fruit_game.c **** 
 1362              		.loc 1 287 15 view .LVU427
 1363 02a4 E6EE807A 		vfma.f32	s15, s13, s0
 286:Src/ninja_fruit_game.c ****     float32_t closest_y = y1 + t * dy;
 1364              		.loc 1 286 15 view .LVU428
 1365 02a8 A6EE007A 		vfma.f32	s14, s12, s0
 1366              	.LVL122:
 287:Src/ninja_fruit_game.c **** 
 1367              		.loc 1 287 5 is_stmt 1 view .LVU429
 290:Src/ninja_fruit_game.c **** 
 1368              		.loc 1 290 5 view .LVU430
 290:Src/ninja_fruit_game.c **** 
 1369              		.loc 1 290 67 is_stmt 0 view .LVU431
 1370 02ac 78EEE78A 		vsub.f32	s17, s17, s15
 1371              	.LVL123:
ARM GAS  C:\Users\Antonio\AppData\Local\Temp\ccV4ycTn.s 			page 39


 290:Src/ninja_fruit_game.c **** 
 1372              		.loc 1 290 29 view .LVU432
 1373 02b0 79EEC79A 		vsub.f32	s19, s19, s14
 1374              	.LVL124:
 290:Src/ninja_fruit_game.c **** 
 1375              		.loc 1 290 80 view .LVU433
 1376 02b4 68EEA88A 		vmul.f32	s17, s17, s17
 290:Src/ninja_fruit_game.c **** 
 1377              		.loc 1 290 15 view .LVU434
 1378 02b8 E9EEA98A 		vfma.f32	s17, s19, s19
 1379              	.LVL125:
 292:Src/ninja_fruit_game.c **** }
 1380              		.loc 1 292 5 is_stmt 1 view .LVU435
 292:Src/ninja_fruit_game.c **** }
 1381              		.loc 1 292 5 is_stmt 0 view .LVU436
 1382              	.LBE87:
 1383              	.LBE90:
 196:Src/ninja_fruit_game.c ****                                    swipe->end_x, swipe->end_y,
 1384              		.loc 1 196 16 discriminator 1 view .LVU437
 1385 02bc F4EECB8A 		vcmpe.f32	s17, s22
 1386 02c0 F1EE10FA 		vmrs	APSR_nzcv, FPSCR
 1387 02c4 1DD8     		bhi	.L44
 1388              	.LBB91:
 201:Src/ninja_fruit_game.c ****                 fruit->slice_time = HAL_GetTick();
 1389              		.loc 1 201 17 is_stmt 1 view .LVU438
 201:Src/ninja_fruit_game.c ****                 fruit->slice_time = HAL_GetTick();
 1390              		.loc 1 201 30 is_stmt 0 view .LVU439
 1391 02c6 0123     		movs	r3, #1
 1392 02c8 6B74     		strb	r3, [r5, #17]
 202:Src/ninja_fruit_game.c ****                 fruit->slice_direction = (swipe->end_x > swipe->start_x) ? 1 : 0;
 1393              		.loc 1 202 17 is_stmt 1 view .LVU440
 202:Src/ninja_fruit_game.c ****                 fruit->slice_direction = (swipe->end_x > swipe->start_x) ? 1 : 0;
 1394              		.loc 1 202 37 is_stmt 0 view .LVU441
 1395 02ca FFF7FEFF 		bl	HAL_GetTick
 1396              	.LVL126:
 203:Src/ninja_fruit_game.c **** 
 1397              		.loc 1 203 78 view .LVU442
 1398 02ce B4EECA8A 		vcmpe.f32	s16, s20
 1399 02d2 F1EE10FA 		vmrs	APSR_nzcv, FPSCR
 1400 02d6 4CBF     		ite	mi
 1401 02d8 0123     		movmi	r3, #1
 1402 02da 0023     		movpl	r3, #0
 1403 02dc 2B77     		strb	r3, [r5, #28]
 207:Src/ninja_fruit_game.c ****                     case FRUIT_APPLE: base_score = 10; break;
 1404              		.loc 1 207 30 view .LVU443
 1405 02de 2B7C     		ldrb	r3, [r5, #16]	@ zero_extendqisi2
 202:Src/ninja_fruit_game.c ****                 fruit->slice_direction = (swipe->end_x > swipe->start_x) ? 1 : 0;
 1406              		.loc 1 202 35 discriminator 1 view .LVU444
 1407 02e0 A861     		str	r0, [r5, #24]
 203:Src/ninja_fruit_game.c **** 
 1408              		.loc 1 203 17 is_stmt 1 view .LVU445
 206:Src/ninja_fruit_game.c ****                 switch (fruit->type) {
 1409              		.loc 1 206 17 view .LVU446
 1410              	.LVL127:
 207:Src/ninja_fruit_game.c ****                     case FRUIT_APPLE: base_score = 10; break;
 1411              		.loc 1 207 17 view .LVU447
 1412 02e2 5A1E     		subs	r2, r3, #1
ARM GAS  C:\Users\Antonio\AppData\Local\Temp\ccV4ycTn.s 			page 40


 1413 02e4 022A     		cmp	r2, #2
 1414 02e6 03EB8303 		add	r3, r3, r3, lsl #2
 1415 02ea 03F10A03 		add	r3, r3, #10
 1416 02ee 88BF     		it	hi
 1417 02f0 0A23     		movhi	r3, #10
 1418              	.LVL128:
 214:Src/ninja_fruit_game.c ****             }
 1419              		.loc 1 214 17 view .LVU448
 214:Src/ninja_fruit_game.c ****             }
 1420              		.loc 1 214 29 is_stmt 0 view .LVU449
 1421 02f2 D4F80021 		ldr	r2, [r4, #256]
 214:Src/ninja_fruit_game.c ****             }
 1422              		.loc 1 214 43 view .LVU450
 1423 02f6 D4F81411 		ldr	r1, [r4, #276]
 214:Src/ninja_fruit_game.c ****             }
 1424              		.loc 1 214 29 view .LVU451
 1425 02fa 01FB0322 		mla	r2, r1, r3, r2
 1426 02fe C4F80021 		str	r2, [r4, #256]
 1427              	.LVL129:
 1428              	.L44:
 214:Src/ninja_fruit_game.c ****             }
 1429              		.loc 1 214 29 view .LVU452
 1430              	.LBE91:
 1431              	.LBE93:
 1432              	.LBE82:
 189:Src/ninja_fruit_game.c ****         Fruit_t *fruit = &game->fruits[i];
 1433              		.loc 1 189 38 is_stmt 1 discriminator 2 view .LVU453
 189:Src/ninja_fruit_game.c ****         Fruit_t *fruit = &game->fruits[i];
 1434              		.loc 1 189 23 discriminator 1 view .LVU454
 1435 0302 2035     		adds	r5, r5, #32
 1436 0304 BD42     		cmp	r5, r7
 1437 0306 9BD1     		bne	.L49
 1438              	.LVL130:
 1439              	.L50:
 189:Src/ninja_fruit_game.c ****         Fruit_t *fruit = &game->fruits[i];
 1440              		.loc 1 189 23 is_stmt 0 discriminator 1 view .LVU455
 1441              	.LBE81:
 1442              	.LBE80:
 1443              	.LBE98:
 1444              	.LBE102:
 123:Src/ninja_fruit_game.c ****         game->game_over = 1;
 1445              		.loc 1 123 5 is_stmt 1 view .LVU456
 123:Src/ninja_fruit_game.c ****         game->game_over = 1;
 1446              		.loc 1 123 8 is_stmt 0 view .LVU457
 1447 0308 D4F80431 		ldr	r3, [r4, #260]
 1448 030c 042B     		cmp	r3, #4
 124:Src/ninja_fruit_game.c ****     }
 1449              		.loc 1 124 9 is_stmt 1 view .LVU458
 124:Src/ninja_fruit_game.c ****     }
 1450              		.loc 1 124 25 is_stmt 0 view .LVU459
 1451 030e 84BF     		itt	hi
 1452 0310 0123     		movhi	r3, #1
 1453 0312 84F80C31 		strbhi	r3, [r4, #268]
 1454 0316 8AE6     		b	.L21
 1455              	.LVL131:
 1456              	.L56:
 1457              	.LBB103:
ARM GAS  C:\Users\Antonio\AppData\Local\Temp\ccV4ycTn.s 			page 41


 1458              	.LBB99:
 101:Src/ninja_fruit_game.c ****                 } else {
 1459              		.loc 1 101 65 view .LVU460
 1460 0318 9FED328A 		vldr.32	s16, .L72+44
 1461 031c 86E7     		b	.L71
 1462              	.LVL132:
 1463              	.L59:
 1464              	.LBB97:
 1465              	.LBB96:
 1466              	.LBB95:
 1467              	.LBB94:
 1468              	.LBB92:
 1469              	.LBB88:
 282:Src/ninja_fruit_game.c ****     if (t > length) t = length;
 1470              		.loc 1 282 18 discriminator 1 view .LVU461
 1471 031e 9FED320A 		vldr.32	s0, .L72+48
 1472              	.LVL133:
 282:Src/ninja_fruit_game.c ****     if (t > length) t = length;
 1473              		.loc 1 282 18 discriminator 1 view .LVU462
 1474 0322 BBE7     		b	.L46
 1475              	.LVL134:
 1476              	.L37:
 282:Src/ninja_fruit_game.c ****     if (t > length) t = length;
 1477              		.loc 1 282 18 discriminator 1 view .LVU463
 1478              	.LBE88:
 1479              	.LBE92:
 1480              	.LBE94:
 1481              	.LBE95:
 1482              	.LBE96:
 1483              	.LBE97:
 1484              	.LBE99:
 1485              	.LBE103:
 118:Src/ninja_fruit_game.c ****         }
 1486              		.loc 1 118 13 is_stmt 1 view .LVU464
 1487              	.LBB104:
 1488              	.LBI104:
 220:Src/ninja_fruit_game.c **** {
 1489              		.loc 1 220 13 view .LVU465
 1490              	.LBB105:
 222:Src/ninja_fruit_game.c ****     float32_t ly = keypoints[KEYPOINT_LEFT_WRIST].y_center;
 1491              		.loc 1 222 5 view .LVU466
 222:Src/ninja_fruit_game.c ****     float32_t ly = keypoints[KEYPOINT_LEFT_WRIST].y_center;
 1492              		.loc 1 222 15 is_stmt 0 view .LVU467
 1493 0324 D6ED0F8A 		vldr.32	s17, [r6, #60]
 1494              	.LVL135:
 223:Src/ninja_fruit_game.c ****     float32_t rx = keypoints[KEYPOINT_RIGHT_WRIST].x_center;
 1495              		.loc 1 223 5 is_stmt 1 view .LVU468
 223:Src/ninja_fruit_game.c ****     float32_t rx = keypoints[KEYPOINT_RIGHT_WRIST].x_center;
 1496              		.loc 1 223 15 is_stmt 0 view .LVU469
 1497 0328 96ED109A 		vldr.32	s18, [r6, #64]
 1498              	.LVL136:
 224:Src/ninja_fruit_game.c ****     float32_t ry = keypoints[KEYPOINT_RIGHT_WRIST].y_center;
 1499              		.loc 1 224 5 is_stmt 1 view .LVU470
 224:Src/ninja_fruit_game.c ****     float32_t ry = keypoints[KEYPOINT_RIGHT_WRIST].y_center;
 1500              		.loc 1 224 15 is_stmt 0 view .LVU471
 1501 032c D6ED129A 		vldr.32	s19, [r6, #72]
 1502              	.LVL137:
ARM GAS  C:\Users\Antonio\AppData\Local\Temp\ccV4ycTn.s 			page 42


 225:Src/ninja_fruit_game.c ****     float32_t radius = FRUIT_SIZE / 2.0f / 800.0f;
 1503              		.loc 1 225 5 is_stmt 1 view .LVU472
 225:Src/ninja_fruit_game.c ****     float32_t radius = FRUIT_SIZE / 2.0f / 800.0f;
 1504              		.loc 1 225 15 is_stmt 0 view .LVU473
 1505 0330 96ED13AA 		vldr.32	s20, [r6, #76]
 1506              	.LVL138:
 226:Src/ninja_fruit_game.c ****     float32_t radius_sq = radius * radius;
 1507              		.loc 1 226 5 is_stmt 1 view .LVU474
 227:Src/ninja_fruit_game.c **** 
 1508              		.loc 1 227 5 view .LVU475
 229:Src/ninja_fruit_game.c ****         Fruit_t *fruit = &game->fruits[i];
 1509              		.loc 1 229 5 view .LVU476
 1510              	.LBB106:
 229:Src/ninja_fruit_game.c ****         Fruit_t *fruit = &game->fruits[i];
 1511              		.loc 1 229 10 view .LVU477
 229:Src/ninja_fruit_game.c ****         Fruit_t *fruit = &game->fruits[i];
 1512              		.loc 1 229 23 discriminator 1 view .LVU478
 1513              	.LBB107:
 1514              	.LBB108:
 241:Src/ninja_fruit_game.c ****                 fruit->state = FRUIT_STATE_SLICED;
 1515              		.loc 1 241 16 is_stmt 0 view .LVU479
 1516 0334 9FED2E8A 		vldr.32	s16, .L72+56
 1517              	.LBB109:
 242:Src/ninja_fruit_game.c ****                 fruit->slice_time = HAL_GetTick();
 1518              		.loc 1 242 30 view .LVU480
 1519 0338 0126     		movs	r6, #1
 1520              	.LVL139:
 244:Src/ninja_fruit_game.c **** 
 1521              		.loc 1 244 40 view .LVU481
 1522 033a 4FF00008 		mov	r8, #0
 1523              	.LVL140:
 1524              	.L55:
 244:Src/ninja_fruit_game.c **** 
 1525              		.loc 1 244 40 view .LVU482
 1526              	.LBE109:
 1527              	.LBE108:
 230:Src/ninja_fruit_game.c **** 
 1528              		.loc 1 230 9 is_stmt 1 view .LVU483
 232:Src/ninja_fruit_game.c ****             float32_t dx = lx - fruit->x;
 1529              		.loc 1 232 9 view .LVU484
 232:Src/ninja_fruit_game.c ****             float32_t dx = lx - fruit->x;
 1530              		.loc 1 232 12 is_stmt 0 view .LVU485
 1531 033e 6B7C     		ldrb	r3, [r5, #17]	@ zero_extendqisi2
 1532 0340 A3BB     		cbnz	r3, .L51
 1533              	.LBB111:
 233:Src/ninja_fruit_game.c ****             float32_t dy = ly - fruit->y;
 1534              		.loc 1 233 13 is_stmt 1 view .LVU486
 234:Src/ninja_fruit_game.c ****             float32_t dist_left_sq = dx * dx + dy * dy;
 1535              		.loc 1 234 38 is_stmt 0 view .LVU487
 1536 0342 D5ED016A 		vldr.32	s13, [r5, #4]
 233:Src/ninja_fruit_game.c ****             float32_t dy = ly - fruit->y;
 1537              		.loc 1 233 38 view .LVU488
 1538 0346 D5ED007A 		vldr.32	s15, [r5]
 234:Src/ninja_fruit_game.c ****             float32_t dist_left_sq = dx * dx + dy * dy;
 1539              		.loc 1 234 23 view .LVU489
 1540 034a 39EE667A 		vsub.f32	s14, s18, s13
 233:Src/ninja_fruit_game.c ****             float32_t dy = ly - fruit->y;
ARM GAS  C:\Users\Antonio\AppData\Local\Temp\ccV4ycTn.s 			page 43


 1541              		.loc 1 233 23 view .LVU490
 1542 034e 38EEE76A 		vsub.f32	s12, s17, s15
 1543              	.LVL141:
 234:Src/ninja_fruit_game.c ****             float32_t dist_left_sq = dx * dx + dy * dy;
 1544              		.loc 1 234 13 is_stmt 1 view .LVU491
 235:Src/ninja_fruit_game.c **** 
 1545              		.loc 1 235 13 view .LVU492
 235:Src/ninja_fruit_game.c **** 
 1546              		.loc 1 235 51 is_stmt 0 view .LVU493
 1547 0352 27EE077A 		vmul.f32	s14, s14, s14
 1548              	.LVL142:
 235:Src/ninja_fruit_game.c **** 
 1549              		.loc 1 235 23 view .LVU494
 1550 0356 A6EE067A 		vfma.f32	s14, s12, s12
 1551              	.LVL143:
 237:Src/ninja_fruit_game.c ****             dy = ry - fruit->y;
 1552              		.loc 1 237 13 is_stmt 1 view .LVU495
 238:Src/ninja_fruit_game.c ****             float32_t dist_right_sq = dx * dx + dy * dy;
 1553              		.loc 1 238 13 view .LVU496
 239:Src/ninja_fruit_game.c **** 
 1554              		.loc 1 239 13 view .LVU497
 241:Src/ninja_fruit_game.c ****                 fruit->state = FRUIT_STATE_SLICED;
 1555              		.loc 1 241 13 view .LVU498
 241:Src/ninja_fruit_game.c ****                 fruit->state = FRUIT_STATE_SLICED;
 1556              		.loc 1 241 16 is_stmt 0 view .LVU499
 1557 035a B4EEC87A 		vcmpe.f32	s14, s16
 1558 035e F1EE10FA 		vmrs	APSR_nzcv, FPSCR
 1559 0362 0CD9     		bls	.L52
 237:Src/ninja_fruit_game.c ****             dy = ry - fruit->y;
 1560              		.loc 1 237 16 view .LVU500
 1561 0364 79EEE77A 		vsub.f32	s15, s19, s15
 238:Src/ninja_fruit_game.c ****             float32_t dist_right_sq = dx * dx + dy * dy;
 1562              		.loc 1 238 16 view .LVU501
 1563 0368 3AEE667A 		vsub.f32	s14, s20, s13
 1564              	.LVL144:
 239:Src/ninja_fruit_game.c **** 
 1565              		.loc 1 239 42 view .LVU502
 1566 036c 67EEA77A 		vmul.f32	s15, s15, s15
 239:Src/ninja_fruit_game.c **** 
 1567              		.loc 1 239 23 view .LVU503
 1568 0370 E7EE077A 		vfma.f32	s15, s14, s14
 241:Src/ninja_fruit_game.c ****                 fruit->state = FRUIT_STATE_SLICED;
 1569              		.loc 1 241 43 discriminator 1 view .LVU504
 1570 0374 F4EEC87A 		vcmpe.f32	s15, s16
 1571 0378 F1EE10FA 		vmrs	APSR_nzcv, FPSCR
 1572 037c 16D8     		bhi	.L51
 1573              	.L52:
 1574              	.LBB110:
 242:Src/ninja_fruit_game.c ****                 fruit->slice_time = HAL_GetTick();
 1575              		.loc 1 242 17 is_stmt 1 view .LVU505
 242:Src/ninja_fruit_game.c ****                 fruit->slice_time = HAL_GetTick();
 1576              		.loc 1 242 30 is_stmt 0 view .LVU506
 1577 037e 6E74     		strb	r6, [r5, #17]
 243:Src/ninja_fruit_game.c ****                 fruit->slice_direction = 0;
 1578              		.loc 1 243 17 is_stmt 1 view .LVU507
 243:Src/ninja_fruit_game.c ****                 fruit->slice_direction = 0;
 1579              		.loc 1 243 37 is_stmt 0 view .LVU508
ARM GAS  C:\Users\Antonio\AppData\Local\Temp\ccV4ycTn.s 			page 44


 1580 0380 FFF7FEFF 		bl	HAL_GetTick
 1581              	.LVL145:
 247:Src/ninja_fruit_game.c ****                     case FRUIT_APPLE: base_score = 10; break;
 1582              		.loc 1 247 30 view .LVU509
 1583 0384 2B7C     		ldrb	r3, [r5, #16]	@ zero_extendqisi2
 243:Src/ninja_fruit_game.c ****                 fruit->slice_direction = 0;
 1584              		.loc 1 243 35 discriminator 1 view .LVU510
 1585 0386 A861     		str	r0, [r5, #24]
 244:Src/ninja_fruit_game.c **** 
 1586              		.loc 1 244 17 is_stmt 1 view .LVU511
 1587 0388 5A1E     		subs	r2, r3, #1
 1588 038a 022A     		cmp	r2, #2
 1589 038c 03EB8303 		add	r3, r3, r3, lsl #2
 1590 0390 03F10A03 		add	r3, r3, #10
 1591 0394 88BF     		it	hi
 1592 0396 0A23     		movhi	r3, #10
 244:Src/ninja_fruit_game.c **** 
 1593              		.loc 1 244 40 is_stmt 0 view .LVU512
 1594 0398 85F81C80 		strb	r8, [r5, #28]
 246:Src/ninja_fruit_game.c ****                 switch (fruit->type) {
 1595              		.loc 1 246 17 is_stmt 1 view .LVU513
 1596              	.LVL146:
 247:Src/ninja_fruit_game.c ****                     case FRUIT_APPLE: base_score = 10; break;
 1597              		.loc 1 247 17 view .LVU514
 253:Src/ninja_fruit_game.c ****             }
 1598              		.loc 1 253 17 view .LVU515
 253:Src/ninja_fruit_game.c ****             }
 1599              		.loc 1 253 29 is_stmt 0 view .LVU516
 1600 039c D4F80021 		ldr	r2, [r4, #256]
 253:Src/ninja_fruit_game.c ****             }
 1601              		.loc 1 253 43 view .LVU517
 1602 03a0 D4F81411 		ldr	r1, [r4, #276]
 253:Src/ninja_fruit_game.c ****             }
 1603              		.loc 1 253 29 view .LVU518
 1604 03a4 01FB0322 		mla	r2, r1, r3, r2
 1605 03a8 C4F80021 		str	r2, [r4, #256]
 1606              	.LVL147:
 1607              	.L51:
 253:Src/ninja_fruit_game.c ****             }
 1608              		.loc 1 253 29 view .LVU519
 1609              	.LBE110:
 1610              	.LBE111:
 1611              	.LBE107:
 229:Src/ninja_fruit_game.c ****         Fruit_t *fruit = &game->fruits[i];
 1612              		.loc 1 229 38 is_stmt 1 discriminator 2 view .LVU520
 229:Src/ninja_fruit_game.c ****         Fruit_t *fruit = &game->fruits[i];
 1613              		.loc 1 229 23 discriminator 1 view .LVU521
 1614 03ac 2035     		adds	r5, r5, #32
 1615 03ae BD42     		cmp	r5, r7
 1616 03b0 C5D1     		bne	.L55
 1617 03b2 A9E7     		b	.L50
 1618              	.L73:
 1619 03b4 AFF30080 		.align	3
 1620              	.L72:
 1621 03b8 5C8FC2F5 		.word	-171798692
 1622 03bc 285CEF3F 		.word	1072651304
 1623 03c0 9A99993E 		.word	1050253722
ARM GAS  C:\Users\Antonio\AppData\Local\Temp\ccV4ycTn.s 			page 45


 1624 03c4 0000FA44 		.word	1157234688
 1625 03c8 00007A44 		.word	1148846080
 1626 03cc 8FC2F53C 		.word	1022739087
 1627 03d0 00401C46 		.word	1176256512
 1628 03d4 9A99193E 		.word	1041865114
 1629 03d8 6F12833C 		.word	1015222895
 1630 03dc CDCC4C3E 		.word	1045220557
 1631 03e0 9A9999BE 		.word	-1097229926
 1632 03e4 CDCC4CBE 		.word	-1102263091
 1633 03e8 00000000 		.word	0
 1634 03ec 6F12833A 		.word	981668463
 1635 03f0 EC51B839 		.word	968380908
 1636              	.LBE106:
 1637              	.LBE105:
 1638              	.LBE104:
 1639              		.cfi_endproc
 1640              	.LFE3340:
 1642              		.section	.text.NinjaGame_SetMode,"ax",%progbits
 1643              		.align	1
 1644              		.global	NinjaGame_SetMode
 1645              		.syntax unified
 1646              		.thumb
 1647              		.thumb_func
 1649              	NinjaGame_SetMode:
 1650              	.LVL148:
 1651              	.LFB3350:
 402:Src/ninja_fruit_game.c **** 
 403:Src/ninja_fruit_game.c **** void NinjaGame_SetMode(NinjaGame_t *game, NinjaGameMode_t mode)
 404:Src/ninja_fruit_game.c **** {
 1652              		.loc 1 404 1 view -0
 1653              		.cfi_startproc
 1654              		@ args = 0, pretend = 0, frame = 0
 1655              		@ frame_needed = 0, uses_anonymous_args = 0
 1656              		@ link register save eliminated.
 405:Src/ninja_fruit_game.c ****     game->mode = mode;
 1657              		.loc 1 405 5 view .LVU523
 1658              		.loc 1 405 16 is_stmt 0 view .LVU524
 1659 0000 80F81C11 		strb	r1, [r0, #284]
 406:Src/ninja_fruit_game.c **** }
 1660              		.loc 1 406 1 view .LVU525
 1661 0004 7047     		bx	lr
 1662              		.cfi_endproc
 1663              	.LFE3350:
 1665              		.section	.rodata.fruit_colors,"a"
 1666              		.align	2
 1669              	fruit_colors:
 1670 0000 0000FFFF 		.word	-65536
 1671 0004 00A5FFFF 		.word	-23296
 1672 0008 00FFFFFF 		.word	-256
 1673 000c 8080FFFF 		.word	-32640
 1674              		.text
 1675              	.Letext0:
 1676              		.file 2 "C:\\ST\\STM32CubeIDE_1.19.0\\STM32CubeIDE\\plugins\\com.st.stm32cube.ide.mcu.externaltool
 1677              		.file 3 "C:\\ST\\STM32CubeIDE_1.19.0\\STM32CubeIDE\\plugins\\com.st.stm32cube.ide.mcu.externaltool
 1678              		.file 4 "C:\\ST\\STM32CubeIDE_1.19.0\\STM32CubeIDE\\plugins\\com.st.stm32cube.ide.mcu.externaltool
 1679              		.file 5 "../../STM32Cube_FW_N6/Utilities/lcd/../Fonts/fonts.h"
 1680              		.file 6 "C:\\ST\\STM32CubeIDE_1.19.0\\STM32CubeIDE\\plugins\\com.st.stm32cube.ide.mcu.externaltool
ARM GAS  C:\Users\Antonio\AppData\Local\Temp\ccV4ycTn.s 			page 46


 1681              		.file 7 "../../Middlewares/lib_vision_models_pp/lib_vision_models_pp/Inc/spe_pp_output_if.h"
 1682              		.file 8 "../../STM32Cube_FW_N6/Utilities/lcd/stm32_lcd.h"
 1683              		.file 9 "Inc/gesture_detection.h"
 1684              		.file 10 "Inc/ninja_fruit_game.h"
 1685              		.file 11 "C:\\ST\\STM32CubeIDE_1.19.0\\STM32CubeIDE\\plugins\\com.st.stm32cube.ide.mcu.externaltoo
 1686              		.file 12 "../../STM32Cube_FW_N6/Drivers/STM32N6xx_HAL_Driver/Inc/stm32n6xx_hal.h"
 1687              		.file 13 "C:\\ST\\STM32CubeIDE_1.19.0\\STM32CubeIDE\\plugins\\com.st.stm32cube.ide.mcu.externaltoo
 1688              		.file 14 "C:\\ST\\STM32CubeIDE_1.19.0\\STM32CubeIDE\\plugins\\com.st.stm32cube.ide.mcu.externaltoo
 1689              		.file 15 "<built-in>"
ARM GAS  C:\Users\Antonio\AppData\Local\Temp\ccV4ycTn.s 			page 47

