ARM GAS  C:\Users\Antonio\AppData\Local\Temp\ccDsuHnY.s 			page 1


   1              		.arch armv8.1-m.main
   2              		.fpu fpv5-d16
   3              		.arch_extension dsp
   4              		.arch_extension fp
   5              		.arch_extension fp.dp
   6              		.arch_extension mve
   7              		.arch_extension mve.fp
   8              		.eabi_attribute 5, "cortex-m55"
   9              		.eabi_attribute 28, 1
  10              		.eabi_attribute 20, 1
  11              		.eabi_attribute 21, 1
  12              		.eabi_attribute 23, 3
  13              		.eabi_attribute 24, 1
  14              		.eabi_attribute 25, 1
  15              		.eabi_attribute 26, 1
  16              		.eabi_attribute 30, 4
  17              		.eabi_attribute 34, 1
  18              		.eabi_attribute 38, 1
  19              		.eabi_attribute 18, 4
  20              		.file	"stm32n6xx_hal_cortex.c"
  21              		.text
  22              	.Ltext0:
  23              		.cfi_sections	.debug_frame
  24              		.file 1 "../../STM32Cube_FW_N6/Drivers/STM32N6xx_HAL_Driver/Src/stm32n6xx_hal_cortex.c"
  25              		.section	.rodata.MPU_ConfigRegion.str1.1,"aMS",%progbits,1
  26              	.LC0:
  27 0000 2E2E2F2E 		.ascii	"../../STM32Cube_FW_N6/Drivers/STM32N6xx_HAL_Driver/"
  27      2E2F5354 
  27      4D333243 
  27      7562655F 
  27      46575F4E 
  28 0033 5372632F 		.ascii	"Src/stm32n6xx_hal_cortex.c\000"
  28      73746D33 
  28      326E3678 
  28      785F6861 
  28      6C5F636F 
  29              		.section	.text.MPU_ConfigRegion,"ax",%progbits
  30              		.align	1
  31              		.syntax unified
  32              		.thumb
  33              		.thumb_func
  35              	MPU_ConfigRegion:
  36              	.LVL0:
  37              	.LFB863:
   1:../../STM32Cube_FW_N6/Drivers/STM32N6xx_HAL_Driver/Src/stm32n6xx_hal_cortex.c **** /**
   2:../../STM32Cube_FW_N6/Drivers/STM32N6xx_HAL_Driver/Src/stm32n6xx_hal_cortex.c ****   ******************************************************************************
   3:../../STM32Cube_FW_N6/Drivers/STM32N6xx_HAL_Driver/Src/stm32n6xx_hal_cortex.c ****   * @file    stm32n6xx_hal_cortex.c
   4:../../STM32Cube_FW_N6/Drivers/STM32N6xx_HAL_Driver/Src/stm32n6xx_hal_cortex.c ****   * @author  MCD Application Team
   5:../../STM32Cube_FW_N6/Drivers/STM32N6xx_HAL_Driver/Src/stm32n6xx_hal_cortex.c ****   * @brief   CORTEX HAL module driver.
   6:../../STM32Cube_FW_N6/Drivers/STM32N6xx_HAL_Driver/Src/stm32n6xx_hal_cortex.c ****   *          This file provides firmware functions to manage the following
   7:../../STM32Cube_FW_N6/Drivers/STM32N6xx_HAL_Driver/Src/stm32n6xx_hal_cortex.c ****   *          functionalities of the CORTEX:
   8:../../STM32Cube_FW_N6/Drivers/STM32N6xx_HAL_Driver/Src/stm32n6xx_hal_cortex.c ****   *           + Initialization and Configuration functions
   9:../../STM32Cube_FW_N6/Drivers/STM32N6xx_HAL_Driver/Src/stm32n6xx_hal_cortex.c ****   *           + Peripheral Control functions
  10:../../STM32Cube_FW_N6/Drivers/STM32N6xx_HAL_Driver/Src/stm32n6xx_hal_cortex.c ****   *
  11:../../STM32Cube_FW_N6/Drivers/STM32N6xx_HAL_Driver/Src/stm32n6xx_hal_cortex.c ****   ******************************************************************************
  12:../../STM32Cube_FW_N6/Drivers/STM32N6xx_HAL_Driver/Src/stm32n6xx_hal_cortex.c ****   * @attention
  13:../../STM32Cube_FW_N6/Drivers/STM32N6xx_HAL_Driver/Src/stm32n6xx_hal_cortex.c ****   *
ARM GAS  C:\Users\Antonio\AppData\Local\Temp\ccDsuHnY.s 			page 2


  14:../../STM32Cube_FW_N6/Drivers/STM32N6xx_HAL_Driver/Src/stm32n6xx_hal_cortex.c ****   * Copyright (c) 2023 STMicroelectronics.
  15:../../STM32Cube_FW_N6/Drivers/STM32N6xx_HAL_Driver/Src/stm32n6xx_hal_cortex.c ****   * All rights reserved.
  16:../../STM32Cube_FW_N6/Drivers/STM32N6xx_HAL_Driver/Src/stm32n6xx_hal_cortex.c ****   *
  17:../../STM32Cube_FW_N6/Drivers/STM32N6xx_HAL_Driver/Src/stm32n6xx_hal_cortex.c ****   * This software is licensed under terms that can be found in the LICENSE file
  18:../../STM32Cube_FW_N6/Drivers/STM32N6xx_HAL_Driver/Src/stm32n6xx_hal_cortex.c ****   * in the root directory of this software component.
  19:../../STM32Cube_FW_N6/Drivers/STM32N6xx_HAL_Driver/Src/stm32n6xx_hal_cortex.c ****   * If no LICENSE file comes with this software, it is provided AS-IS.
  20:../../STM32Cube_FW_N6/Drivers/STM32N6xx_HAL_Driver/Src/stm32n6xx_hal_cortex.c ****   *
  21:../../STM32Cube_FW_N6/Drivers/STM32N6xx_HAL_Driver/Src/stm32n6xx_hal_cortex.c ****   ******************************************************************************
  22:../../STM32Cube_FW_N6/Drivers/STM32N6xx_HAL_Driver/Src/stm32n6xx_hal_cortex.c ****   @verbatim
  23:../../STM32Cube_FW_N6/Drivers/STM32N6xx_HAL_Driver/Src/stm32n6xx_hal_cortex.c ****   ==============================================================================
  24:../../STM32Cube_FW_N6/Drivers/STM32N6xx_HAL_Driver/Src/stm32n6xx_hal_cortex.c ****                         ##### How to use this driver #####
  25:../../STM32Cube_FW_N6/Drivers/STM32N6xx_HAL_Driver/Src/stm32n6xx_hal_cortex.c ****   ==============================================================================
  26:../../STM32Cube_FW_N6/Drivers/STM32N6xx_HAL_Driver/Src/stm32n6xx_hal_cortex.c **** 
  27:../../STM32Cube_FW_N6/Drivers/STM32N6xx_HAL_Driver/Src/stm32n6xx_hal_cortex.c ****     [..]
  28:../../STM32Cube_FW_N6/Drivers/STM32N6xx_HAL_Driver/Src/stm32n6xx_hal_cortex.c ****     *** How to configure Interrupts using CORTEX HAL driver ***
  29:../../STM32Cube_FW_N6/Drivers/STM32N6xx_HAL_Driver/Src/stm32n6xx_hal_cortex.c ****     ===========================================================
  30:../../STM32Cube_FW_N6/Drivers/STM32N6xx_HAL_Driver/Src/stm32n6xx_hal_cortex.c ****     [..]
  31:../../STM32Cube_FW_N6/Drivers/STM32N6xx_HAL_Driver/Src/stm32n6xx_hal_cortex.c ****     This section provides functions allowing to configure the NVIC interrupts (IRQ).
  32:../../STM32Cube_FW_N6/Drivers/STM32N6xx_HAL_Driver/Src/stm32n6xx_hal_cortex.c ****     The Cortex-M55 exceptions are managed by CMSIS functions.
  33:../../STM32Cube_FW_N6/Drivers/STM32N6xx_HAL_Driver/Src/stm32n6xx_hal_cortex.c **** 
  34:../../STM32Cube_FW_N6/Drivers/STM32N6xx_HAL_Driver/Src/stm32n6xx_hal_cortex.c ****     (#) Configure the NVIC Priority Grouping using HAL_NVIC_SetPriorityGrouping() function.
  35:../../STM32Cube_FW_N6/Drivers/STM32N6xx_HAL_Driver/Src/stm32n6xx_hal_cortex.c ****     (#) Configure the priority of the selected IRQ Channels using HAL_NVIC_SetPriority().
  36:../../STM32Cube_FW_N6/Drivers/STM32N6xx_HAL_Driver/Src/stm32n6xx_hal_cortex.c ****     (#) Enable the selected IRQ Channels using HAL_NVIC_EnableIRQ().
  37:../../STM32Cube_FW_N6/Drivers/STM32N6xx_HAL_Driver/Src/stm32n6xx_hal_cortex.c **** 
  38:../../STM32Cube_FW_N6/Drivers/STM32N6xx_HAL_Driver/Src/stm32n6xx_hal_cortex.c ****      -@- When the NVIC_PRIORITYGROUP_0 is selected, IRQ pre-emption is no more possible.
  39:../../STM32Cube_FW_N6/Drivers/STM32N6xx_HAL_Driver/Src/stm32n6xx_hal_cortex.c ****          The pending IRQ priority will be managed only by the sub priority.
  40:../../STM32Cube_FW_N6/Drivers/STM32N6xx_HAL_Driver/Src/stm32n6xx_hal_cortex.c **** 
  41:../../STM32Cube_FW_N6/Drivers/STM32N6xx_HAL_Driver/Src/stm32n6xx_hal_cortex.c ****      -@- IRQ priority order (sorted by highest to lowest priority):
  42:../../STM32Cube_FW_N6/Drivers/STM32N6xx_HAL_Driver/Src/stm32n6xx_hal_cortex.c ****         (+@) Lowest pre-emption priority
  43:../../STM32Cube_FW_N6/Drivers/STM32N6xx_HAL_Driver/Src/stm32n6xx_hal_cortex.c ****         (+@) Lowest sub priority
  44:../../STM32Cube_FW_N6/Drivers/STM32N6xx_HAL_Driver/Src/stm32n6xx_hal_cortex.c ****         (+@) Lowest hardware priority (IRQ number)
  45:../../STM32Cube_FW_N6/Drivers/STM32N6xx_HAL_Driver/Src/stm32n6xx_hal_cortex.c **** 
  46:../../STM32Cube_FW_N6/Drivers/STM32N6xx_HAL_Driver/Src/stm32n6xx_hal_cortex.c ****     [..]
  47:../../STM32Cube_FW_N6/Drivers/STM32N6xx_HAL_Driver/Src/stm32n6xx_hal_cortex.c ****     *** How to configure SysTick using CORTEX HAL driver ***
  48:../../STM32Cube_FW_N6/Drivers/STM32N6xx_HAL_Driver/Src/stm32n6xx_hal_cortex.c ****     ========================================================
  49:../../STM32Cube_FW_N6/Drivers/STM32N6xx_HAL_Driver/Src/stm32n6xx_hal_cortex.c ****     [..]
  50:../../STM32Cube_FW_N6/Drivers/STM32N6xx_HAL_Driver/Src/stm32n6xx_hal_cortex.c ****     Setup SysTick Timer for time base.
  51:../../STM32Cube_FW_N6/Drivers/STM32N6xx_HAL_Driver/Src/stm32n6xx_hal_cortex.c **** 
  52:../../STM32Cube_FW_N6/Drivers/STM32N6xx_HAL_Driver/Src/stm32n6xx_hal_cortex.c ****    (+) The HAL_SYSTICK_Config() function calls the SysTick_Config() function which
  53:../../STM32Cube_FW_N6/Drivers/STM32N6xx_HAL_Driver/Src/stm32n6xx_hal_cortex.c ****        is a CMSIS function that:
  54:../../STM32Cube_FW_N6/Drivers/STM32N6xx_HAL_Driver/Src/stm32n6xx_hal_cortex.c ****         (++) Configures the SysTick Reload register with value passed as function parameter.
  55:../../STM32Cube_FW_N6/Drivers/STM32N6xx_HAL_Driver/Src/stm32n6xx_hal_cortex.c ****         (++) Configures the SysTick IRQ priority to the lowest value (0x0F).
  56:../../STM32Cube_FW_N6/Drivers/STM32N6xx_HAL_Driver/Src/stm32n6xx_hal_cortex.c ****         (++) Resets the SysTick Counter register.
  57:../../STM32Cube_FW_N6/Drivers/STM32N6xx_HAL_Driver/Src/stm32n6xx_hal_cortex.c ****         (++) Configures the SysTick Counter clock source to be Core Clock Source (HCLK).
  58:../../STM32Cube_FW_N6/Drivers/STM32N6xx_HAL_Driver/Src/stm32n6xx_hal_cortex.c ****         (++) Enables the SysTick Interrupt.
  59:../../STM32Cube_FW_N6/Drivers/STM32N6xx_HAL_Driver/Src/stm32n6xx_hal_cortex.c ****         (++) Starts the SysTick Counter.
  60:../../STM32Cube_FW_N6/Drivers/STM32N6xx_HAL_Driver/Src/stm32n6xx_hal_cortex.c **** 
  61:../../STM32Cube_FW_N6/Drivers/STM32N6xx_HAL_Driver/Src/stm32n6xx_hal_cortex.c ****    (+) You can change the SysTick Clock source to be HCLK_Div8 by calling the macro
  62:../../STM32Cube_FW_N6/Drivers/STM32N6xx_HAL_Driver/Src/stm32n6xx_hal_cortex.c ****        __HAL_CORTEX_SYSTICKCLK_CONFIG(SYSTICK_CLKSOURCE_HCLK_DIV8) just after the
  63:../../STM32Cube_FW_N6/Drivers/STM32N6xx_HAL_Driver/Src/stm32n6xx_hal_cortex.c ****        HAL_SYSTICK_Config() function call. The __HAL_CORTEX_SYSTICKCLK_CONFIG() macro is defined
  64:../../STM32Cube_FW_N6/Drivers/STM32N6xx_HAL_Driver/Src/stm32n6xx_hal_cortex.c ****        inside the stm32n6xx_hal_cortex.h file.
  65:../../STM32Cube_FW_N6/Drivers/STM32N6xx_HAL_Driver/Src/stm32n6xx_hal_cortex.c **** 
  66:../../STM32Cube_FW_N6/Drivers/STM32N6xx_HAL_Driver/Src/stm32n6xx_hal_cortex.c ****    (+) You can change the SysTick IRQ priority by calling the
  67:../../STM32Cube_FW_N6/Drivers/STM32N6xx_HAL_Driver/Src/stm32n6xx_hal_cortex.c ****        HAL_NVIC_SetPriority(SysTick_IRQn,...) function just after the HAL_SYSTICK_Config() function
  68:../../STM32Cube_FW_N6/Drivers/STM32N6xx_HAL_Driver/Src/stm32n6xx_hal_cortex.c ****        call. The HAL_NVIC_SetPriority() call the NVIC_SetPriority() function which is a CMSIS funct
  69:../../STM32Cube_FW_N6/Drivers/STM32N6xx_HAL_Driver/Src/stm32n6xx_hal_cortex.c **** 
  70:../../STM32Cube_FW_N6/Drivers/STM32N6xx_HAL_Driver/Src/stm32n6xx_hal_cortex.c ****    (+) To adjust the SysTick time base, use the following formula:
ARM GAS  C:\Users\Antonio\AppData\Local\Temp\ccDsuHnY.s 			page 3


  71:../../STM32Cube_FW_N6/Drivers/STM32N6xx_HAL_Driver/Src/stm32n6xx_hal_cortex.c **** 
  72:../../STM32Cube_FW_N6/Drivers/STM32N6xx_HAL_Driver/Src/stm32n6xx_hal_cortex.c ****        Reload Value = SysTick Counter Clock (Hz) x  Desired Time base (s)
  73:../../STM32Cube_FW_N6/Drivers/STM32N6xx_HAL_Driver/Src/stm32n6xx_hal_cortex.c ****        (++) Reload Value is the parameter to be passed for HAL_SYSTICK_Config() function
  74:../../STM32Cube_FW_N6/Drivers/STM32N6xx_HAL_Driver/Src/stm32n6xx_hal_cortex.c ****        (++) Reload Value should not exceed 0xFFFFFF
  75:../../STM32Cube_FW_N6/Drivers/STM32N6xx_HAL_Driver/Src/stm32n6xx_hal_cortex.c **** 
  76:../../STM32Cube_FW_N6/Drivers/STM32N6xx_HAL_Driver/Src/stm32n6xx_hal_cortex.c ****     [..]
  77:../../STM32Cube_FW_N6/Drivers/STM32N6xx_HAL_Driver/Src/stm32n6xx_hal_cortex.c ****     *** How to configure MPU (secure and non secure) using CORTEX HAL driver ***
  78:../../STM32Cube_FW_N6/Drivers/STM32N6xx_HAL_Driver/Src/stm32n6xx_hal_cortex.c ****     ============================================================================
  79:../../STM32Cube_FW_N6/Drivers/STM32N6xx_HAL_Driver/Src/stm32n6xx_hal_cortex.c ****     [..]
  80:../../STM32Cube_FW_N6/Drivers/STM32N6xx_HAL_Driver/Src/stm32n6xx_hal_cortex.c ****     This section provides functions allowing to configure both secure and non-secure MPUs.
  81:../../STM32Cube_FW_N6/Drivers/STM32N6xx_HAL_Driver/Src/stm32n6xx_hal_cortex.c **** 
  82:../../STM32Cube_FW_N6/Drivers/STM32N6xx_HAL_Driver/Src/stm32n6xx_hal_cortex.c ****     (#) Enable the MPU using HAL_MPU_Enable() function.
  83:../../STM32Cube_FW_N6/Drivers/STM32N6xx_HAL_Driver/Src/stm32n6xx_hal_cortex.c ****     (#) Disable the MPU using HAL_MPU_Disable() function.
  84:../../STM32Cube_FW_N6/Drivers/STM32N6xx_HAL_Driver/Src/stm32n6xx_hal_cortex.c ****     (#) Enable the MPU using HAL_MPU_Enable_NS() function to address the non secure MPU.
  85:../../STM32Cube_FW_N6/Drivers/STM32N6xx_HAL_Driver/Src/stm32n6xx_hal_cortex.c ****     (#) Disable the MPU using HAL_MPU_Disable_NS() function to address the non secure MPU.
  86:../../STM32Cube_FW_N6/Drivers/STM32N6xx_HAL_Driver/Src/stm32n6xx_hal_cortex.c ****     (#) Configure the MPU region using HAL_MPU_ConfigRegion()
  87:../../STM32Cube_FW_N6/Drivers/STM32N6xx_HAL_Driver/Src/stm32n6xx_hal_cortex.c ****         and HAL_MPU_ConfigRegion_NS() to address the non secure MPU.
  88:../../STM32Cube_FW_N6/Drivers/STM32N6xx_HAL_Driver/Src/stm32n6xx_hal_cortex.c ****     (#) Configure the MPU Memory attributes using HAL_MPU_ConfigMemoryAttributes()
  89:../../STM32Cube_FW_N6/Drivers/STM32N6xx_HAL_Driver/Src/stm32n6xx_hal_cortex.c ****         and HAL_MPU_ConfigMemoryAttributes_NS() to address the non secure MPU.
  90:../../STM32Cube_FW_N6/Drivers/STM32N6xx_HAL_Driver/Src/stm32n6xx_hal_cortex.c **** 
  91:../../STM32Cube_FW_N6/Drivers/STM32N6xx_HAL_Driver/Src/stm32n6xx_hal_cortex.c ****     A device memory has the following attributes:
  92:../../STM32Cube_FW_N6/Drivers/STM32N6xx_HAL_Driver/Src/stm32n6xx_hal_cortex.c ****     (#) G or nG: gathering or non-gathering. (multiple accesses to a device can be merged into a si
  93:../../STM32Cube_FW_N6/Drivers/STM32N6xx_HAL_Driver/Src/stm32n6xx_hal_cortex.c ****     transaction except for operations with memory ordering semantics, for example, memory barrier
  94:../../STM32Cube_FW_N6/Drivers/STM32N6xx_HAL_Driver/Src/stm32n6xx_hal_cortex.c ****     instructions, load acquire/store release).
  95:../../STM32Cube_FW_N6/Drivers/STM32N6xx_HAL_Driver/Src/stm32n6xx_hal_cortex.c ****     (#) R or nR: reordering
  96:../../STM32Cube_FW_N6/Drivers/STM32N6xx_HAL_Driver/Src/stm32n6xx_hal_cortex.c ****     (#) E or nE: early write acknowledge (similar to bufferable)
  97:../../STM32Cube_FW_N6/Drivers/STM32N6xx_HAL_Driver/Src/stm32n6xx_hal_cortex.c **** 
  98:../../STM32Cube_FW_N6/Drivers/STM32N6xx_HAL_Driver/Src/stm32n6xx_hal_cortex.c ****     Only four combinations of these attributes are valid:
  99:../../STM32Cube_FW_N6/Drivers/STM32N6xx_HAL_Driver/Src/stm32n6xx_hal_cortex.c ****     (#) device-nGnRnE: equivalent to Armv7-M strongly ordered memory type
 100:../../STM32Cube_FW_N6/Drivers/STM32N6xx_HAL_Driver/Src/stm32n6xx_hal_cortex.c ****     (#) device-nGnRE: equivalent to Armv7-M device memory
 101:../../STM32Cube_FW_N6/Drivers/STM32N6xx_HAL_Driver/Src/stm32n6xx_hal_cortex.c ****     (#) device-nGRE: new to Armv8-M
 102:../../STM32Cube_FW_N6/Drivers/STM32N6xx_HAL_Driver/Src/stm32n6xx_hal_cortex.c ****     (#) device-GRE: new to Armv8-M
 103:../../STM32Cube_FW_N6/Drivers/STM32N6xx_HAL_Driver/Src/stm32n6xx_hal_cortex.c **** 
 104:../../STM32Cube_FW_N6/Drivers/STM32N6xx_HAL_Driver/Src/stm32n6xx_hal_cortex.c ****     A normal memory has the following attributes:
 105:../../STM32Cube_FW_N6/Drivers/STM32N6xx_HAL_Driver/Src/stm32n6xx_hal_cortex.c ****     (#) Cache Allocation attribute : set when a cache line is allocated (no allocation, read/write/
 106:../../STM32Cube_FW_N6/Drivers/STM32N6xx_HAL_Driver/Src/stm32n6xx_hal_cortex.c ****     (#) Cache write policy : write through (write to cache AND memory), write back (memory is writt
 107:../../STM32Cube_FW_N6/Drivers/STM32N6xx_HAL_Driver/Src/stm32n6xx_hal_cortex.c ****     (#) Transient : indicates that the region will be used for a short period of time
 108:../../STM32Cube_FW_N6/Drivers/STM32N6xx_HAL_Driver/Src/stm32n6xx_hal_cortex.c ****     For normal memory, attributes can be set for inner and outer caches separately.
 109:../../STM32Cube_FW_N6/Drivers/STM32N6xx_HAL_Driver/Src/stm32n6xx_hal_cortex.c ****     Note that outer attributes set to 0 change the memory to device mode. Both inner and outer attr
 110:../../STM32Cube_FW_N6/Drivers/STM32N6xx_HAL_Driver/Src/stm32n6xx_hal_cortex.c **** 
 111:../../STM32Cube_FW_N6/Drivers/STM32N6xx_HAL_Driver/Src/stm32n6xx_hal_cortex.c ****     Sample configurations
 112:../../STM32Cube_FW_N6/Drivers/STM32N6xx_HAL_Driver/Src/stm32n6xx_hal_cortex.c ****     (#) Inner-outer cacheable, write back, read-write allocate INNER_OUTER(MPU_RW_ALLOCATE | MPU_WR
 113:../../STM32Cube_FW_N6/Drivers/STM32N6xx_HAL_Driver/Src/stm32n6xx_hal_cortex.c ****     (#) Inner write back, read allocation, outer non-cacheable (MPU_R_ALLOCATE | MPU_WRITE_BACK) | 
 114:../../STM32Cube_FW_N6/Drivers/STM32N6xx_HAL_Driver/Src/stm32n6xx_hal_cortex.c ****     For detail on memory attributes, refer to the ARMv8-m MPU documentation.
 115:../../STM32Cube_FW_N6/Drivers/STM32N6xx_HAL_Driver/Src/stm32n6xx_hal_cortex.c **** 
 116:../../STM32Cube_FW_N6/Drivers/STM32N6xx_HAL_Driver/Src/stm32n6xx_hal_cortex.c ****     On STM32N6xx, the MPUs are split memory into regions (up to sixteen for both Secure and Non-Sec
 117:../../STM32Cube_FW_N6/Drivers/STM32N6xx_HAL_Driver/Src/stm32n6xx_hal_cortex.c ****     The secure MPU is only available when TrustZone is activated.
 118:../../STM32Cube_FW_N6/Drivers/STM32N6xx_HAL_Driver/Src/stm32n6xx_hal_cortex.c **** 
 119:../../STM32Cube_FW_N6/Drivers/STM32N6xx_HAL_Driver/Src/stm32n6xx_hal_cortex.c ****     (#) Enable the MPU using HAL_MPU_Enable() function or HAL_MPU_Enable_NS function for non-secure
 120:../../STM32Cube_FW_N6/Drivers/STM32N6xx_HAL_Driver/Src/stm32n6xx_hal_cortex.c ****     (#) Disable the MPU using HAL_MPU_Disable() function or HAL_MPU_Disable_NS function for non-sec
 121:../../STM32Cube_FW_N6/Drivers/STM32N6xx_HAL_Driver/Src/stm32n6xx_hal_cortex.c ****     (#) Enable the MPU region using HAL_MPU_EnableRegion() function or HAL_MPU_EnableRegion_NS func
 122:../../STM32Cube_FW_N6/Drivers/STM32N6xx_HAL_Driver/Src/stm32n6xx_hal_cortex.c ****     (#) Disable the MPU region using HAL_MPU_DisableRegion() function or HAL_MPU_DisableRegion_NS f
 123:../../STM32Cube_FW_N6/Drivers/STM32N6xx_HAL_Driver/Src/stm32n6xx_hal_cortex.c ****     (#) Configure the MPU region using HAL_MPU_ConfigRegion() function or HAL_MPU_ConfigRegion_NS f
 124:../../STM32Cube_FW_N6/Drivers/STM32N6xx_HAL_Driver/Src/stm32n6xx_hal_cortex.c ****         for non-secure MPU.
 125:../../STM32Cube_FW_N6/Drivers/STM32N6xx_HAL_Driver/Src/stm32n6xx_hal_cortex.c ****     (#) Configure the MPU memory attributes using HAL_MPU_ConfigMemoryAttributes() function or
 126:../../STM32Cube_FW_N6/Drivers/STM32N6xx_HAL_Driver/Src/stm32n6xx_hal_cortex.c ****         HAL_MPU_ConfigMemoryAttributes_NS function for non-secure MPU.
 127:../../STM32Cube_FW_N6/Drivers/STM32N6xx_HAL_Driver/Src/stm32n6xx_hal_cortex.c **** 
ARM GAS  C:\Users\Antonio\AppData\Local\Temp\ccDsuHnY.s 			page 4


 128:../../STM32Cube_FW_N6/Drivers/STM32N6xx_HAL_Driver/Src/stm32n6xx_hal_cortex.c ****     (#) The HAL_MPU_XXX_NS functions are only available when TrustZone is activated and CPU in secu
 129:../../STM32Cube_FW_N6/Drivers/STM32N6xx_HAL_Driver/Src/stm32n6xx_hal_cortex.c ****         _NS functions are targeting non secure MPU, in any other cases APIs without NS shall be use
 130:../../STM32Cube_FW_N6/Drivers/STM32N6xx_HAL_Driver/Src/stm32n6xx_hal_cortex.c **** 
 131:../../STM32Cube_FW_N6/Drivers/STM32N6xx_HAL_Driver/Src/stm32n6xx_hal_cortex.c ****   @endverbatim
 132:../../STM32Cube_FW_N6/Drivers/STM32N6xx_HAL_Driver/Src/stm32n6xx_hal_cortex.c ****   ******************************************************************************
 133:../../STM32Cube_FW_N6/Drivers/STM32N6xx_HAL_Driver/Src/stm32n6xx_hal_cortex.c **** 
 134:../../STM32Cube_FW_N6/Drivers/STM32N6xx_HAL_Driver/Src/stm32n6xx_hal_cortex.c ****   The table below gives the allowed values of the pre-emption priority and subpriority according
 135:../../STM32Cube_FW_N6/Drivers/STM32N6xx_HAL_Driver/Src/stm32n6xx_hal_cortex.c ****   to the Priority Grouping configuration performed by HAL_NVIC_SetPriorityGrouping() function.
 136:../../STM32Cube_FW_N6/Drivers/STM32N6xx_HAL_Driver/Src/stm32n6xx_hal_cortex.c **** 
 137:../../STM32Cube_FW_N6/Drivers/STM32N6xx_HAL_Driver/Src/stm32n6xx_hal_cortex.c ****     ===============================================================================================
 138:../../STM32Cube_FW_N6/Drivers/STM32N6xx_HAL_Driver/Src/stm32n6xx_hal_cortex.c ****       NVIC_PriorityGroup   | NVIC_IRQChannelPreemptionPriority | NVIC_IRQChannelSubPriority  |     
 139:../../STM32Cube_FW_N6/Drivers/STM32N6xx_HAL_Driver/Src/stm32n6xx_hal_cortex.c ****     ===============================================================================================
 140:../../STM32Cube_FW_N6/Drivers/STM32N6xx_HAL_Driver/Src/stm32n6xx_hal_cortex.c ****      NVIC_PRIORITYGROUP_0  |                0                  |            0-15             | 0 bi
 141:../../STM32Cube_FW_N6/Drivers/STM32N6xx_HAL_Driver/Src/stm32n6xx_hal_cortex.c ****                            |                                   |                             | 4 bi
 142:../../STM32Cube_FW_N6/Drivers/STM32N6xx_HAL_Driver/Src/stm32n6xx_hal_cortex.c ****     -----------------------------------------------------------------------------------------------
 143:../../STM32Cube_FW_N6/Drivers/STM32N6xx_HAL_Driver/Src/stm32n6xx_hal_cortex.c ****      NVIC_PRIORITYGROUP_1  |                0-1                |            0-7              | 1 bi
 144:../../STM32Cube_FW_N6/Drivers/STM32N6xx_HAL_Driver/Src/stm32n6xx_hal_cortex.c ****                            |                                   |                             | 3 bi
 145:../../STM32Cube_FW_N6/Drivers/STM32N6xx_HAL_Driver/Src/stm32n6xx_hal_cortex.c ****     -----------------------------------------------------------------------------------------------
 146:../../STM32Cube_FW_N6/Drivers/STM32N6xx_HAL_Driver/Src/stm32n6xx_hal_cortex.c ****      NVIC_PRIORITYGROUP_2  |                0-3                |            0-3              | 2 bi
 147:../../STM32Cube_FW_N6/Drivers/STM32N6xx_HAL_Driver/Src/stm32n6xx_hal_cortex.c ****                            |                                   |                             | 2 bi
 148:../../STM32Cube_FW_N6/Drivers/STM32N6xx_HAL_Driver/Src/stm32n6xx_hal_cortex.c ****     -----------------------------------------------------------------------------------------------
 149:../../STM32Cube_FW_N6/Drivers/STM32N6xx_HAL_Driver/Src/stm32n6xx_hal_cortex.c ****      NVIC_PRIORITYGROUP_3  |                0-7                |            0-1              | 3 bi
 150:../../STM32Cube_FW_N6/Drivers/STM32N6xx_HAL_Driver/Src/stm32n6xx_hal_cortex.c ****                            |                                   |                             | 1 bi
 151:../../STM32Cube_FW_N6/Drivers/STM32N6xx_HAL_Driver/Src/stm32n6xx_hal_cortex.c ****     -----------------------------------------------------------------------------------------------
 152:../../STM32Cube_FW_N6/Drivers/STM32N6xx_HAL_Driver/Src/stm32n6xx_hal_cortex.c ****      NVIC_PRIORITYGROUP_4  |                0-15               |            0                | 4 bi
 153:../../STM32Cube_FW_N6/Drivers/STM32N6xx_HAL_Driver/Src/stm32n6xx_hal_cortex.c ****                            |                                   |                             | 0 bi
 154:../../STM32Cube_FW_N6/Drivers/STM32N6xx_HAL_Driver/Src/stm32n6xx_hal_cortex.c ****     ===============================================================================================
 155:../../STM32Cube_FW_N6/Drivers/STM32N6xx_HAL_Driver/Src/stm32n6xx_hal_cortex.c ****   */
 156:../../STM32Cube_FW_N6/Drivers/STM32N6xx_HAL_Driver/Src/stm32n6xx_hal_cortex.c **** 
 157:../../STM32Cube_FW_N6/Drivers/STM32N6xx_HAL_Driver/Src/stm32n6xx_hal_cortex.c **** /* Includes ------------------------------------------------------------------*/
 158:../../STM32Cube_FW_N6/Drivers/STM32N6xx_HAL_Driver/Src/stm32n6xx_hal_cortex.c **** #include "stm32n6xx_hal.h"
 159:../../STM32Cube_FW_N6/Drivers/STM32N6xx_HAL_Driver/Src/stm32n6xx_hal_cortex.c **** 
 160:../../STM32Cube_FW_N6/Drivers/STM32N6xx_HAL_Driver/Src/stm32n6xx_hal_cortex.c **** /** @addtogroup STM32N6xx_HAL_Driver
 161:../../STM32Cube_FW_N6/Drivers/STM32N6xx_HAL_Driver/Src/stm32n6xx_hal_cortex.c ****   * @{
 162:../../STM32Cube_FW_N6/Drivers/STM32N6xx_HAL_Driver/Src/stm32n6xx_hal_cortex.c ****   */
 163:../../STM32Cube_FW_N6/Drivers/STM32N6xx_HAL_Driver/Src/stm32n6xx_hal_cortex.c **** 
 164:../../STM32Cube_FW_N6/Drivers/STM32N6xx_HAL_Driver/Src/stm32n6xx_hal_cortex.c **** /** @addtogroup CORTEX
 165:../../STM32Cube_FW_N6/Drivers/STM32N6xx_HAL_Driver/Src/stm32n6xx_hal_cortex.c ****   * @brief CORTEX HAL module driver
 166:../../STM32Cube_FW_N6/Drivers/STM32N6xx_HAL_Driver/Src/stm32n6xx_hal_cortex.c ****   * @{
 167:../../STM32Cube_FW_N6/Drivers/STM32N6xx_HAL_Driver/Src/stm32n6xx_hal_cortex.c ****   */
 168:../../STM32Cube_FW_N6/Drivers/STM32N6xx_HAL_Driver/Src/stm32n6xx_hal_cortex.c **** 
 169:../../STM32Cube_FW_N6/Drivers/STM32N6xx_HAL_Driver/Src/stm32n6xx_hal_cortex.c **** #ifdef HAL_CORTEX_MODULE_ENABLED
 170:../../STM32Cube_FW_N6/Drivers/STM32N6xx_HAL_Driver/Src/stm32n6xx_hal_cortex.c **** 
 171:../../STM32Cube_FW_N6/Drivers/STM32N6xx_HAL_Driver/Src/stm32n6xx_hal_cortex.c **** /* Private types -------------------------------------------------------------*/
 172:../../STM32Cube_FW_N6/Drivers/STM32N6xx_HAL_Driver/Src/stm32n6xx_hal_cortex.c **** /* Private variables ---------------------------------------------------------*/
 173:../../STM32Cube_FW_N6/Drivers/STM32N6xx_HAL_Driver/Src/stm32n6xx_hal_cortex.c **** /* Private constants ---------------------------------------------------------*/
 174:../../STM32Cube_FW_N6/Drivers/STM32N6xx_HAL_Driver/Src/stm32n6xx_hal_cortex.c **** /* Private macros ------------------------------------------------------------*/
 175:../../STM32Cube_FW_N6/Drivers/STM32N6xx_HAL_Driver/Src/stm32n6xx_hal_cortex.c **** /* Private functions ---------------------------------------------------------*/
 176:../../STM32Cube_FW_N6/Drivers/STM32N6xx_HAL_Driver/Src/stm32n6xx_hal_cortex.c **** /** @defgroup CORTEX_Private_Functions CORTEX Private Functions
 177:../../STM32Cube_FW_N6/Drivers/STM32N6xx_HAL_Driver/Src/stm32n6xx_hal_cortex.c ****   * @{
 178:../../STM32Cube_FW_N6/Drivers/STM32N6xx_HAL_Driver/Src/stm32n6xx_hal_cortex.c ****   */
 179:../../STM32Cube_FW_N6/Drivers/STM32N6xx_HAL_Driver/Src/stm32n6xx_hal_cortex.c **** static void MPU_ConfigRegion(MPU_Type *MPUx, const MPU_Region_InitTypeDef *pMPU_RegionInit);
 180:../../STM32Cube_FW_N6/Drivers/STM32N6xx_HAL_Driver/Src/stm32n6xx_hal_cortex.c **** static void MPU_ConfigMemoryAttributes(MPU_Type *MPUx, const MPU_Attributes_InitTypeDef *pMPU_Attri
 181:../../STM32Cube_FW_N6/Drivers/STM32N6xx_HAL_Driver/Src/stm32n6xx_hal_cortex.c **** /**
 182:../../STM32Cube_FW_N6/Drivers/STM32N6xx_HAL_Driver/Src/stm32n6xx_hal_cortex.c ****   * @}
 183:../../STM32Cube_FW_N6/Drivers/STM32N6xx_HAL_Driver/Src/stm32n6xx_hal_cortex.c ****   */
 184:../../STM32Cube_FW_N6/Drivers/STM32N6xx_HAL_Driver/Src/stm32n6xx_hal_cortex.c **** 
ARM GAS  C:\Users\Antonio\AppData\Local\Temp\ccDsuHnY.s 			page 5


 185:../../STM32Cube_FW_N6/Drivers/STM32N6xx_HAL_Driver/Src/stm32n6xx_hal_cortex.c **** /* Exported functions --------------------------------------------------------*/
 186:../../STM32Cube_FW_N6/Drivers/STM32N6xx_HAL_Driver/Src/stm32n6xx_hal_cortex.c **** 
 187:../../STM32Cube_FW_N6/Drivers/STM32N6xx_HAL_Driver/Src/stm32n6xx_hal_cortex.c **** /** @addtogroup CORTEX_Exported_Functions
 188:../../STM32Cube_FW_N6/Drivers/STM32N6xx_HAL_Driver/Src/stm32n6xx_hal_cortex.c ****   * @{
 189:../../STM32Cube_FW_N6/Drivers/STM32N6xx_HAL_Driver/Src/stm32n6xx_hal_cortex.c ****   */
 190:../../STM32Cube_FW_N6/Drivers/STM32N6xx_HAL_Driver/Src/stm32n6xx_hal_cortex.c **** 
 191:../../STM32Cube_FW_N6/Drivers/STM32N6xx_HAL_Driver/Src/stm32n6xx_hal_cortex.c **** 
 192:../../STM32Cube_FW_N6/Drivers/STM32N6xx_HAL_Driver/Src/stm32n6xx_hal_cortex.c **** /** @addtogroup CORTEX_Exported_Functions_Group1
 193:../../STM32Cube_FW_N6/Drivers/STM32N6xx_HAL_Driver/Src/stm32n6xx_hal_cortex.c ****   *  @brief    Initialization and Configuration functions
 194:../../STM32Cube_FW_N6/Drivers/STM32N6xx_HAL_Driver/Src/stm32n6xx_hal_cortex.c ****   *
 195:../../STM32Cube_FW_N6/Drivers/STM32N6xx_HAL_Driver/Src/stm32n6xx_hal_cortex.c **** @verbatim
 196:../../STM32Cube_FW_N6/Drivers/STM32N6xx_HAL_Driver/Src/stm32n6xx_hal_cortex.c ****   ==============================================================================
 197:../../STM32Cube_FW_N6/Drivers/STM32N6xx_HAL_Driver/Src/stm32n6xx_hal_cortex.c ****               ##### Initialization and Configuration functions #####
 198:../../STM32Cube_FW_N6/Drivers/STM32N6xx_HAL_Driver/Src/stm32n6xx_hal_cortex.c ****   ==============================================================================
 199:../../STM32Cube_FW_N6/Drivers/STM32N6xx_HAL_Driver/Src/stm32n6xx_hal_cortex.c ****     [..]
 200:../../STM32Cube_FW_N6/Drivers/STM32N6xx_HAL_Driver/Src/stm32n6xx_hal_cortex.c ****       This section provides the CORTEX HAL driver functions allowing to configure Interrupts
 201:../../STM32Cube_FW_N6/Drivers/STM32N6xx_HAL_Driver/Src/stm32n6xx_hal_cortex.c ****       SysTick functionalities
 202:../../STM32Cube_FW_N6/Drivers/STM32N6xx_HAL_Driver/Src/stm32n6xx_hal_cortex.c **** 
 203:../../STM32Cube_FW_N6/Drivers/STM32N6xx_HAL_Driver/Src/stm32n6xx_hal_cortex.c **** @endverbatim
 204:../../STM32Cube_FW_N6/Drivers/STM32N6xx_HAL_Driver/Src/stm32n6xx_hal_cortex.c ****   * @{
 205:../../STM32Cube_FW_N6/Drivers/STM32N6xx_HAL_Driver/Src/stm32n6xx_hal_cortex.c ****   */
 206:../../STM32Cube_FW_N6/Drivers/STM32N6xx_HAL_Driver/Src/stm32n6xx_hal_cortex.c **** 
 207:../../STM32Cube_FW_N6/Drivers/STM32N6xx_HAL_Driver/Src/stm32n6xx_hal_cortex.c **** 
 208:../../STM32Cube_FW_N6/Drivers/STM32N6xx_HAL_Driver/Src/stm32n6xx_hal_cortex.c **** /**
 209:../../STM32Cube_FW_N6/Drivers/STM32N6xx_HAL_Driver/Src/stm32n6xx_hal_cortex.c ****   * @brief  Set the priority grouping field (pre-emption priority and subpriority)
 210:../../STM32Cube_FW_N6/Drivers/STM32N6xx_HAL_Driver/Src/stm32n6xx_hal_cortex.c ****   *         using the required unlock sequence.
 211:../../STM32Cube_FW_N6/Drivers/STM32N6xx_HAL_Driver/Src/stm32n6xx_hal_cortex.c ****   * @param  PriorityGroup The priority grouping bits length.
 212:../../STM32Cube_FW_N6/Drivers/STM32N6xx_HAL_Driver/Src/stm32n6xx_hal_cortex.c ****   *         This parameter can be one of the following values:
 213:../../STM32Cube_FW_N6/Drivers/STM32N6xx_HAL_Driver/Src/stm32n6xx_hal_cortex.c ****   *         @arg NVIC_PRIORITYGROUP_0  0 bit  for pre-emption priority,
 214:../../STM32Cube_FW_N6/Drivers/STM32N6xx_HAL_Driver/Src/stm32n6xx_hal_cortex.c ****   *                                    4 bits for subpriority
 215:../../STM32Cube_FW_N6/Drivers/STM32N6xx_HAL_Driver/Src/stm32n6xx_hal_cortex.c ****   *         @arg NVIC_PRIORITYGROUP_1  1 bit  for pre-emption priority,
 216:../../STM32Cube_FW_N6/Drivers/STM32N6xx_HAL_Driver/Src/stm32n6xx_hal_cortex.c ****   *                                    3 bits for subpriority
 217:../../STM32Cube_FW_N6/Drivers/STM32N6xx_HAL_Driver/Src/stm32n6xx_hal_cortex.c ****   *         @arg NVIC_PRIORITYGROUP_2  2 bits for pre-emption priority,
 218:../../STM32Cube_FW_N6/Drivers/STM32N6xx_HAL_Driver/Src/stm32n6xx_hal_cortex.c ****   *                                    2 bits for subpriority
 219:../../STM32Cube_FW_N6/Drivers/STM32N6xx_HAL_Driver/Src/stm32n6xx_hal_cortex.c ****   *         @arg NVIC_PRIORITYGROUP_3  3 bits for pre-emption priority,
 220:../../STM32Cube_FW_N6/Drivers/STM32N6xx_HAL_Driver/Src/stm32n6xx_hal_cortex.c ****   *                                    1 bit  for subpriority
 221:../../STM32Cube_FW_N6/Drivers/STM32N6xx_HAL_Driver/Src/stm32n6xx_hal_cortex.c ****   *         @arg NVIC_PRIORITYGROUP_4  4 bits for pre-emption priority,
 222:../../STM32Cube_FW_N6/Drivers/STM32N6xx_HAL_Driver/Src/stm32n6xx_hal_cortex.c ****   *                                    0 bit  for subpriority
 223:../../STM32Cube_FW_N6/Drivers/STM32N6xx_HAL_Driver/Src/stm32n6xx_hal_cortex.c ****   * @note   When the NVIC_PriorityGroup_0 is selected, IRQ pre-emption is no more possible.
 224:../../STM32Cube_FW_N6/Drivers/STM32N6xx_HAL_Driver/Src/stm32n6xx_hal_cortex.c ****   *         The pending IRQ priority will be managed only by the subpriority.
 225:../../STM32Cube_FW_N6/Drivers/STM32N6xx_HAL_Driver/Src/stm32n6xx_hal_cortex.c ****   * @retval None
 226:../../STM32Cube_FW_N6/Drivers/STM32N6xx_HAL_Driver/Src/stm32n6xx_hal_cortex.c ****   */
 227:../../STM32Cube_FW_N6/Drivers/STM32N6xx_HAL_Driver/Src/stm32n6xx_hal_cortex.c **** void HAL_NVIC_SetPriorityGrouping(uint32_t PriorityGroup)
 228:../../STM32Cube_FW_N6/Drivers/STM32N6xx_HAL_Driver/Src/stm32n6xx_hal_cortex.c **** {
 229:../../STM32Cube_FW_N6/Drivers/STM32N6xx_HAL_Driver/Src/stm32n6xx_hal_cortex.c ****   /* Check the parameters */
 230:../../STM32Cube_FW_N6/Drivers/STM32N6xx_HAL_Driver/Src/stm32n6xx_hal_cortex.c ****   assert_param(IS_NVIC_PRIORITY_GROUP(PriorityGroup));
 231:../../STM32Cube_FW_N6/Drivers/STM32N6xx_HAL_Driver/Src/stm32n6xx_hal_cortex.c **** 
 232:../../STM32Cube_FW_N6/Drivers/STM32N6xx_HAL_Driver/Src/stm32n6xx_hal_cortex.c ****   /* Set the PRIGROUP[10:8] bits according to the PriorityGroup parameter value */
 233:../../STM32Cube_FW_N6/Drivers/STM32N6xx_HAL_Driver/Src/stm32n6xx_hal_cortex.c ****   NVIC_SetPriorityGrouping(PriorityGroup);
 234:../../STM32Cube_FW_N6/Drivers/STM32N6xx_HAL_Driver/Src/stm32n6xx_hal_cortex.c **** }
 235:../../STM32Cube_FW_N6/Drivers/STM32N6xx_HAL_Driver/Src/stm32n6xx_hal_cortex.c **** 
 236:../../STM32Cube_FW_N6/Drivers/STM32N6xx_HAL_Driver/Src/stm32n6xx_hal_cortex.c **** /**
 237:../../STM32Cube_FW_N6/Drivers/STM32N6xx_HAL_Driver/Src/stm32n6xx_hal_cortex.c ****   * @brief  Set the priority of an interrupt.
 238:../../STM32Cube_FW_N6/Drivers/STM32N6xx_HAL_Driver/Src/stm32n6xx_hal_cortex.c ****   * @param  IRQn External interrupt number.
 239:../../STM32Cube_FW_N6/Drivers/STM32N6xx_HAL_Driver/Src/stm32n6xx_hal_cortex.c ****   *         This parameter can be an enumerator of IRQn_Type enumeration
 240:../../STM32Cube_FW_N6/Drivers/STM32N6xx_HAL_Driver/Src/stm32n6xx_hal_cortex.c ****   *         (For the complete STM32 Devices IRQ Channels list, please refer
 241:../../STM32Cube_FW_N6/Drivers/STM32N6xx_HAL_Driver/Src/stm32n6xx_hal_cortex.c ****   *         to the appropriate CMSIS device file (stm32n6xxxx.h))
ARM GAS  C:\Users\Antonio\AppData\Local\Temp\ccDsuHnY.s 			page 6


 242:../../STM32Cube_FW_N6/Drivers/STM32N6xx_HAL_Driver/Src/stm32n6xx_hal_cortex.c ****   * @param  PreemptPriority The pre-emption priority for the IRQn channel.
 243:../../STM32Cube_FW_N6/Drivers/STM32N6xx_HAL_Driver/Src/stm32n6xx_hal_cortex.c ****   *         This parameter can be a value between 0 and 15
 244:../../STM32Cube_FW_N6/Drivers/STM32N6xx_HAL_Driver/Src/stm32n6xx_hal_cortex.c ****   *         A lower priority value indicates a higher priority
 245:../../STM32Cube_FW_N6/Drivers/STM32N6xx_HAL_Driver/Src/stm32n6xx_hal_cortex.c ****   * @param  SubPriority the subpriority level for the IRQ channel.
 246:../../STM32Cube_FW_N6/Drivers/STM32N6xx_HAL_Driver/Src/stm32n6xx_hal_cortex.c ****   *         This parameter can be a value between 0 and 15
 247:../../STM32Cube_FW_N6/Drivers/STM32N6xx_HAL_Driver/Src/stm32n6xx_hal_cortex.c ****   *         A lower priority value indicates a higher priority.
 248:../../STM32Cube_FW_N6/Drivers/STM32N6xx_HAL_Driver/Src/stm32n6xx_hal_cortex.c ****   * @retval None
 249:../../STM32Cube_FW_N6/Drivers/STM32N6xx_HAL_Driver/Src/stm32n6xx_hal_cortex.c ****   */
 250:../../STM32Cube_FW_N6/Drivers/STM32N6xx_HAL_Driver/Src/stm32n6xx_hal_cortex.c **** void HAL_NVIC_SetPriority(IRQn_Type IRQn, uint32_t PreemptPriority, uint32_t SubPriority)
 251:../../STM32Cube_FW_N6/Drivers/STM32N6xx_HAL_Driver/Src/stm32n6xx_hal_cortex.c **** {
 252:../../STM32Cube_FW_N6/Drivers/STM32N6xx_HAL_Driver/Src/stm32n6xx_hal_cortex.c ****   uint32_t prioritygroup;
 253:../../STM32Cube_FW_N6/Drivers/STM32N6xx_HAL_Driver/Src/stm32n6xx_hal_cortex.c **** 
 254:../../STM32Cube_FW_N6/Drivers/STM32N6xx_HAL_Driver/Src/stm32n6xx_hal_cortex.c ****   /* Check the parameters */
 255:../../STM32Cube_FW_N6/Drivers/STM32N6xx_HAL_Driver/Src/stm32n6xx_hal_cortex.c ****   assert_param(IS_NVIC_PRIORITY_INTERRUPT(IRQn));
 256:../../STM32Cube_FW_N6/Drivers/STM32N6xx_HAL_Driver/Src/stm32n6xx_hal_cortex.c **** 
 257:../../STM32Cube_FW_N6/Drivers/STM32N6xx_HAL_Driver/Src/stm32n6xx_hal_cortex.c ****   prioritygroup = (NVIC_GetPriorityGrouping() & 0x7U);
 258:../../STM32Cube_FW_N6/Drivers/STM32N6xx_HAL_Driver/Src/stm32n6xx_hal_cortex.c ****   assert_param(IS_NVIC_SUB_PRIORITY(SubPriority, prioritygroup));
 259:../../STM32Cube_FW_N6/Drivers/STM32N6xx_HAL_Driver/Src/stm32n6xx_hal_cortex.c ****   assert_param(IS_NVIC_PREEMPTION_PRIORITY(PreemptPriority, prioritygroup));
 260:../../STM32Cube_FW_N6/Drivers/STM32N6xx_HAL_Driver/Src/stm32n6xx_hal_cortex.c **** 
 261:../../STM32Cube_FW_N6/Drivers/STM32N6xx_HAL_Driver/Src/stm32n6xx_hal_cortex.c ****   NVIC_SetPriority(IRQn, NVIC_EncodePriority(prioritygroup, PreemptPriority, SubPriority));
 262:../../STM32Cube_FW_N6/Drivers/STM32N6xx_HAL_Driver/Src/stm32n6xx_hal_cortex.c **** }
 263:../../STM32Cube_FW_N6/Drivers/STM32N6xx_HAL_Driver/Src/stm32n6xx_hal_cortex.c **** 
 264:../../STM32Cube_FW_N6/Drivers/STM32N6xx_HAL_Driver/Src/stm32n6xx_hal_cortex.c **** /**
 265:../../STM32Cube_FW_N6/Drivers/STM32N6xx_HAL_Driver/Src/stm32n6xx_hal_cortex.c ****   * @brief  Enable a device specific interrupt in the NVIC interrupt controller.
 266:../../STM32Cube_FW_N6/Drivers/STM32N6xx_HAL_Driver/Src/stm32n6xx_hal_cortex.c ****   * @note   To configure interrupts priority correctly, the NVIC_PriorityGroupConfig()
 267:../../STM32Cube_FW_N6/Drivers/STM32N6xx_HAL_Driver/Src/stm32n6xx_hal_cortex.c ****   *         function should be called before.
 268:../../STM32Cube_FW_N6/Drivers/STM32N6xx_HAL_Driver/Src/stm32n6xx_hal_cortex.c ****   * @param  IRQn External interrupt number.
 269:../../STM32Cube_FW_N6/Drivers/STM32N6xx_HAL_Driver/Src/stm32n6xx_hal_cortex.c ****   *         This parameter can be an enumerator of IRQn_Type enumeration
 270:../../STM32Cube_FW_N6/Drivers/STM32N6xx_HAL_Driver/Src/stm32n6xx_hal_cortex.c ****   *         (For the complete STM32 Devices IRQ Channels list, please refer
 271:../../STM32Cube_FW_N6/Drivers/STM32N6xx_HAL_Driver/Src/stm32n6xx_hal_cortex.c ****   *         to the appropriate CMSIS device file (stm32n6xxxx.h))
 272:../../STM32Cube_FW_N6/Drivers/STM32N6xx_HAL_Driver/Src/stm32n6xx_hal_cortex.c ****   * @retval None
 273:../../STM32Cube_FW_N6/Drivers/STM32N6xx_HAL_Driver/Src/stm32n6xx_hal_cortex.c ****   */
 274:../../STM32Cube_FW_N6/Drivers/STM32N6xx_HAL_Driver/Src/stm32n6xx_hal_cortex.c **** void HAL_NVIC_EnableIRQ(IRQn_Type IRQn)
 275:../../STM32Cube_FW_N6/Drivers/STM32N6xx_HAL_Driver/Src/stm32n6xx_hal_cortex.c **** {
 276:../../STM32Cube_FW_N6/Drivers/STM32N6xx_HAL_Driver/Src/stm32n6xx_hal_cortex.c ****   /* Check the parameters */
 277:../../STM32Cube_FW_N6/Drivers/STM32N6xx_HAL_Driver/Src/stm32n6xx_hal_cortex.c ****   assert_param(IS_NVIC_DEVICE_IRQ(IRQn));
 278:../../STM32Cube_FW_N6/Drivers/STM32N6xx_HAL_Driver/Src/stm32n6xx_hal_cortex.c **** 
 279:../../STM32Cube_FW_N6/Drivers/STM32N6xx_HAL_Driver/Src/stm32n6xx_hal_cortex.c ****   /* Enable interrupt */
 280:../../STM32Cube_FW_N6/Drivers/STM32N6xx_HAL_Driver/Src/stm32n6xx_hal_cortex.c ****   NVIC_EnableIRQ(IRQn);
 281:../../STM32Cube_FW_N6/Drivers/STM32N6xx_HAL_Driver/Src/stm32n6xx_hal_cortex.c **** }
 282:../../STM32Cube_FW_N6/Drivers/STM32N6xx_HAL_Driver/Src/stm32n6xx_hal_cortex.c **** 
 283:../../STM32Cube_FW_N6/Drivers/STM32N6xx_HAL_Driver/Src/stm32n6xx_hal_cortex.c **** /**
 284:../../STM32Cube_FW_N6/Drivers/STM32N6xx_HAL_Driver/Src/stm32n6xx_hal_cortex.c ****   * @brief  Disable a device specific interrupt in the NVIC interrupt controller.
 285:../../STM32Cube_FW_N6/Drivers/STM32N6xx_HAL_Driver/Src/stm32n6xx_hal_cortex.c ****   * @param  IRQn External interrupt number.
 286:../../STM32Cube_FW_N6/Drivers/STM32N6xx_HAL_Driver/Src/stm32n6xx_hal_cortex.c ****   *         This parameter can be an enumerator of IRQn_Type enumeration
 287:../../STM32Cube_FW_N6/Drivers/STM32N6xx_HAL_Driver/Src/stm32n6xx_hal_cortex.c ****   *         (For the complete STM32 Devices IRQ Channels list, please refer
 288:../../STM32Cube_FW_N6/Drivers/STM32N6xx_HAL_Driver/Src/stm32n6xx_hal_cortex.c ****   *         to the appropriate CMSIS device file (stm32n6xxxx.h))
 289:../../STM32Cube_FW_N6/Drivers/STM32N6xx_HAL_Driver/Src/stm32n6xx_hal_cortex.c ****   * @retval None
 290:../../STM32Cube_FW_N6/Drivers/STM32N6xx_HAL_Driver/Src/stm32n6xx_hal_cortex.c ****   */
 291:../../STM32Cube_FW_N6/Drivers/STM32N6xx_HAL_Driver/Src/stm32n6xx_hal_cortex.c **** void HAL_NVIC_DisableIRQ(IRQn_Type IRQn)
 292:../../STM32Cube_FW_N6/Drivers/STM32N6xx_HAL_Driver/Src/stm32n6xx_hal_cortex.c **** {
 293:../../STM32Cube_FW_N6/Drivers/STM32N6xx_HAL_Driver/Src/stm32n6xx_hal_cortex.c ****   /* Check the parameters */
 294:../../STM32Cube_FW_N6/Drivers/STM32N6xx_HAL_Driver/Src/stm32n6xx_hal_cortex.c ****   assert_param(IS_NVIC_DEVICE_IRQ(IRQn));
 295:../../STM32Cube_FW_N6/Drivers/STM32N6xx_HAL_Driver/Src/stm32n6xx_hal_cortex.c **** 
 296:../../STM32Cube_FW_N6/Drivers/STM32N6xx_HAL_Driver/Src/stm32n6xx_hal_cortex.c ****   /* Disable interrupt */
 297:../../STM32Cube_FW_N6/Drivers/STM32N6xx_HAL_Driver/Src/stm32n6xx_hal_cortex.c ****   NVIC_DisableIRQ(IRQn);
 298:../../STM32Cube_FW_N6/Drivers/STM32N6xx_HAL_Driver/Src/stm32n6xx_hal_cortex.c **** }
ARM GAS  C:\Users\Antonio\AppData\Local\Temp\ccDsuHnY.s 			page 7


 299:../../STM32Cube_FW_N6/Drivers/STM32N6xx_HAL_Driver/Src/stm32n6xx_hal_cortex.c **** 
 300:../../STM32Cube_FW_N6/Drivers/STM32N6xx_HAL_Driver/Src/stm32n6xx_hal_cortex.c **** /**
 301:../../STM32Cube_FW_N6/Drivers/STM32N6xx_HAL_Driver/Src/stm32n6xx_hal_cortex.c ****   * @brief  Initiate a system reset request to reset the MCU.
 302:../../STM32Cube_FW_N6/Drivers/STM32N6xx_HAL_Driver/Src/stm32n6xx_hal_cortex.c ****   * @retval None
 303:../../STM32Cube_FW_N6/Drivers/STM32N6xx_HAL_Driver/Src/stm32n6xx_hal_cortex.c ****   */
 304:../../STM32Cube_FW_N6/Drivers/STM32N6xx_HAL_Driver/Src/stm32n6xx_hal_cortex.c **** void HAL_NVIC_SystemReset(void)
 305:../../STM32Cube_FW_N6/Drivers/STM32N6xx_HAL_Driver/Src/stm32n6xx_hal_cortex.c **** {
 306:../../STM32Cube_FW_N6/Drivers/STM32N6xx_HAL_Driver/Src/stm32n6xx_hal_cortex.c ****   /* System Reset */
 307:../../STM32Cube_FW_N6/Drivers/STM32N6xx_HAL_Driver/Src/stm32n6xx_hal_cortex.c ****   NVIC_SystemReset();
 308:../../STM32Cube_FW_N6/Drivers/STM32N6xx_HAL_Driver/Src/stm32n6xx_hal_cortex.c **** }
 309:../../STM32Cube_FW_N6/Drivers/STM32N6xx_HAL_Driver/Src/stm32n6xx_hal_cortex.c **** 
 310:../../STM32Cube_FW_N6/Drivers/STM32N6xx_HAL_Driver/Src/stm32n6xx_hal_cortex.c **** /**
 311:../../STM32Cube_FW_N6/Drivers/STM32N6xx_HAL_Driver/Src/stm32n6xx_hal_cortex.c ****   * @brief  Initialize the System Timer with interrupt enabled and start the System Tick Timer (Sys
 312:../../STM32Cube_FW_N6/Drivers/STM32N6xx_HAL_Driver/Src/stm32n6xx_hal_cortex.c ****   *         Counter is in free running mode to generate periodic interrupts.
 313:../../STM32Cube_FW_N6/Drivers/STM32N6xx_HAL_Driver/Src/stm32n6xx_hal_cortex.c ****   * @param  TicksNumb Specifies the ticks Number of ticks between two interrupts.
 314:../../STM32Cube_FW_N6/Drivers/STM32N6xx_HAL_Driver/Src/stm32n6xx_hal_cortex.c ****   * @retval status:  - 0  Function succeeded.
 315:../../STM32Cube_FW_N6/Drivers/STM32N6xx_HAL_Driver/Src/stm32n6xx_hal_cortex.c ****   *                  - 1  Function failed.
 316:../../STM32Cube_FW_N6/Drivers/STM32N6xx_HAL_Driver/Src/stm32n6xx_hal_cortex.c ****   */
 317:../../STM32Cube_FW_N6/Drivers/STM32N6xx_HAL_Driver/Src/stm32n6xx_hal_cortex.c **** uint32_t HAL_SYSTICK_Config(uint32_t TicksNumb)
 318:../../STM32Cube_FW_N6/Drivers/STM32N6xx_HAL_Driver/Src/stm32n6xx_hal_cortex.c **** {
 319:../../STM32Cube_FW_N6/Drivers/STM32N6xx_HAL_Driver/Src/stm32n6xx_hal_cortex.c ****   return SysTick_Config(TicksNumb);
 320:../../STM32Cube_FW_N6/Drivers/STM32N6xx_HAL_Driver/Src/stm32n6xx_hal_cortex.c **** }
 321:../../STM32Cube_FW_N6/Drivers/STM32N6xx_HAL_Driver/Src/stm32n6xx_hal_cortex.c **** /**
 322:../../STM32Cube_FW_N6/Drivers/STM32N6xx_HAL_Driver/Src/stm32n6xx_hal_cortex.c ****   * @}
 323:../../STM32Cube_FW_N6/Drivers/STM32N6xx_HAL_Driver/Src/stm32n6xx_hal_cortex.c ****   */
 324:../../STM32Cube_FW_N6/Drivers/STM32N6xx_HAL_Driver/Src/stm32n6xx_hal_cortex.c **** 
 325:../../STM32Cube_FW_N6/Drivers/STM32N6xx_HAL_Driver/Src/stm32n6xx_hal_cortex.c **** /** @addtogroup CORTEX_Exported_Functions_Group2
 326:../../STM32Cube_FW_N6/Drivers/STM32N6xx_HAL_Driver/Src/stm32n6xx_hal_cortex.c ****   *  @brief   Cortex control functions
 327:../../STM32Cube_FW_N6/Drivers/STM32N6xx_HAL_Driver/Src/stm32n6xx_hal_cortex.c ****   *
 328:../../STM32Cube_FW_N6/Drivers/STM32N6xx_HAL_Driver/Src/stm32n6xx_hal_cortex.c **** @verbatim
 329:../../STM32Cube_FW_N6/Drivers/STM32N6xx_HAL_Driver/Src/stm32n6xx_hal_cortex.c ****   ==============================================================================
 330:../../STM32Cube_FW_N6/Drivers/STM32N6xx_HAL_Driver/Src/stm32n6xx_hal_cortex.c ****                       ##### Peripheral Control functions #####
 331:../../STM32Cube_FW_N6/Drivers/STM32N6xx_HAL_Driver/Src/stm32n6xx_hal_cortex.c ****   ==============================================================================
 332:../../STM32Cube_FW_N6/Drivers/STM32N6xx_HAL_Driver/Src/stm32n6xx_hal_cortex.c ****     [..]
 333:../../STM32Cube_FW_N6/Drivers/STM32N6xx_HAL_Driver/Src/stm32n6xx_hal_cortex.c ****       This subsection provides a set of functions allowing to control the CORTEX
 334:../../STM32Cube_FW_N6/Drivers/STM32N6xx_HAL_Driver/Src/stm32n6xx_hal_cortex.c ****       (NVIC, SYSTICK, MPU) functionalities.
 335:../../STM32Cube_FW_N6/Drivers/STM32N6xx_HAL_Driver/Src/stm32n6xx_hal_cortex.c **** 
 336:../../STM32Cube_FW_N6/Drivers/STM32N6xx_HAL_Driver/Src/stm32n6xx_hal_cortex.c **** 
 337:../../STM32Cube_FW_N6/Drivers/STM32N6xx_HAL_Driver/Src/stm32n6xx_hal_cortex.c **** @endverbatim
 338:../../STM32Cube_FW_N6/Drivers/STM32N6xx_HAL_Driver/Src/stm32n6xx_hal_cortex.c ****   * @{
 339:../../STM32Cube_FW_N6/Drivers/STM32N6xx_HAL_Driver/Src/stm32n6xx_hal_cortex.c ****   */
 340:../../STM32Cube_FW_N6/Drivers/STM32N6xx_HAL_Driver/Src/stm32n6xx_hal_cortex.c **** 
 341:../../STM32Cube_FW_N6/Drivers/STM32N6xx_HAL_Driver/Src/stm32n6xx_hal_cortex.c **** /**
 342:../../STM32Cube_FW_N6/Drivers/STM32N6xx_HAL_Driver/Src/stm32n6xx_hal_cortex.c ****   * @brief  Get the priority grouping field from the NVIC Interrupt Controller.
 343:../../STM32Cube_FW_N6/Drivers/STM32N6xx_HAL_Driver/Src/stm32n6xx_hal_cortex.c ****   * @retval Priority grouping field (SCB->AIRCR [10:8] PRIGROUP field)
 344:../../STM32Cube_FW_N6/Drivers/STM32N6xx_HAL_Driver/Src/stm32n6xx_hal_cortex.c ****   */
 345:../../STM32Cube_FW_N6/Drivers/STM32N6xx_HAL_Driver/Src/stm32n6xx_hal_cortex.c **** uint32_t HAL_NVIC_GetPriorityGrouping(void)
 346:../../STM32Cube_FW_N6/Drivers/STM32N6xx_HAL_Driver/Src/stm32n6xx_hal_cortex.c **** {
 347:../../STM32Cube_FW_N6/Drivers/STM32N6xx_HAL_Driver/Src/stm32n6xx_hal_cortex.c ****   /* Get the PRIGROUP[10:8] field value */
 348:../../STM32Cube_FW_N6/Drivers/STM32N6xx_HAL_Driver/Src/stm32n6xx_hal_cortex.c ****   return NVIC_GetPriorityGrouping();
 349:../../STM32Cube_FW_N6/Drivers/STM32N6xx_HAL_Driver/Src/stm32n6xx_hal_cortex.c **** }
 350:../../STM32Cube_FW_N6/Drivers/STM32N6xx_HAL_Driver/Src/stm32n6xx_hal_cortex.c **** 
 351:../../STM32Cube_FW_N6/Drivers/STM32N6xx_HAL_Driver/Src/stm32n6xx_hal_cortex.c **** /**
 352:../../STM32Cube_FW_N6/Drivers/STM32N6xx_HAL_Driver/Src/stm32n6xx_hal_cortex.c ****   * @brief  Get the priority of an interrupt.
 353:../../STM32Cube_FW_N6/Drivers/STM32N6xx_HAL_Driver/Src/stm32n6xx_hal_cortex.c ****   * @param  IRQn External interrupt number.
 354:../../STM32Cube_FW_N6/Drivers/STM32N6xx_HAL_Driver/Src/stm32n6xx_hal_cortex.c ****   *         This parameter can be an enumerator of IRQn_Type enumeration
 355:../../STM32Cube_FW_N6/Drivers/STM32N6xx_HAL_Driver/Src/stm32n6xx_hal_cortex.c ****   *         (For the complete STM32 Devices IRQ Channels list, please refer
ARM GAS  C:\Users\Antonio\AppData\Local\Temp\ccDsuHnY.s 			page 8


 356:../../STM32Cube_FW_N6/Drivers/STM32N6xx_HAL_Driver/Src/stm32n6xx_hal_cortex.c ****   *         to the appropriate CMSIS device file (stm32n6xxxx.h))
 357:../../STM32Cube_FW_N6/Drivers/STM32N6xx_HAL_Driver/Src/stm32n6xx_hal_cortex.c ****   * @param   PriorityGroup the priority grouping bits length.
 358:../../STM32Cube_FW_N6/Drivers/STM32N6xx_HAL_Driver/Src/stm32n6xx_hal_cortex.c ****   *         This parameter can be one of the following values:
 359:../../STM32Cube_FW_N6/Drivers/STM32N6xx_HAL_Driver/Src/stm32n6xx_hal_cortex.c ****   *           @arg NVIC_PRIORITYGROUP_0  0 bit for pre-emption priority,
 360:../../STM32Cube_FW_N6/Drivers/STM32N6xx_HAL_Driver/Src/stm32n6xx_hal_cortex.c ****   *                                      4 bits for subpriority
 361:../../STM32Cube_FW_N6/Drivers/STM32N6xx_HAL_Driver/Src/stm32n6xx_hal_cortex.c ****   *           @arg NVIC_PRIORITYGROUP_1  1 bit for pre-emption priority,
 362:../../STM32Cube_FW_N6/Drivers/STM32N6xx_HAL_Driver/Src/stm32n6xx_hal_cortex.c ****   *                                      3 bits for subpriority
 363:../../STM32Cube_FW_N6/Drivers/STM32N6xx_HAL_Driver/Src/stm32n6xx_hal_cortex.c ****   *           @arg NVIC_PRIORITYGROUP_2  2 bits for pre-emption priority,
 364:../../STM32Cube_FW_N6/Drivers/STM32N6xx_HAL_Driver/Src/stm32n6xx_hal_cortex.c ****   *                                      2 bits for subpriority
 365:../../STM32Cube_FW_N6/Drivers/STM32N6xx_HAL_Driver/Src/stm32n6xx_hal_cortex.c ****   *           @arg NVIC_PRIORITYGROUP_3  3 bits for pre-emption priority,
 366:../../STM32Cube_FW_N6/Drivers/STM32N6xx_HAL_Driver/Src/stm32n6xx_hal_cortex.c ****   *                                      1 bit for subpriority
 367:../../STM32Cube_FW_N6/Drivers/STM32N6xx_HAL_Driver/Src/stm32n6xx_hal_cortex.c ****   *           @arg NVIC_PRIORITYGROUP_4  4 bits for pre-emption priority,
 368:../../STM32Cube_FW_N6/Drivers/STM32N6xx_HAL_Driver/Src/stm32n6xx_hal_cortex.c ****   *                                      0 bit for subpriority
 369:../../STM32Cube_FW_N6/Drivers/STM32N6xx_HAL_Driver/Src/stm32n6xx_hal_cortex.c ****   * @param  pPreemptPriority Pointer on the Preemptive priority value (starting from 0).
 370:../../STM32Cube_FW_N6/Drivers/STM32N6xx_HAL_Driver/Src/stm32n6xx_hal_cortex.c ****   * @param  pSubPriority Pointer on the Subpriority value (starting from 0).
 371:../../STM32Cube_FW_N6/Drivers/STM32N6xx_HAL_Driver/Src/stm32n6xx_hal_cortex.c ****   * @retval None
 372:../../STM32Cube_FW_N6/Drivers/STM32N6xx_HAL_Driver/Src/stm32n6xx_hal_cortex.c ****   */
 373:../../STM32Cube_FW_N6/Drivers/STM32N6xx_HAL_Driver/Src/stm32n6xx_hal_cortex.c **** void HAL_NVIC_GetPriority(IRQn_Type IRQn, uint32_t PriorityGroup, uint32_t *pPreemptPriority, uint3
 374:../../STM32Cube_FW_N6/Drivers/STM32N6xx_HAL_Driver/Src/stm32n6xx_hal_cortex.c **** {
 375:../../STM32Cube_FW_N6/Drivers/STM32N6xx_HAL_Driver/Src/stm32n6xx_hal_cortex.c ****   /* Check the parameters */
 376:../../STM32Cube_FW_N6/Drivers/STM32N6xx_HAL_Driver/Src/stm32n6xx_hal_cortex.c ****   assert_param(IS_NVIC_PRIORITY_INTERRUPT(IRQn));
 377:../../STM32Cube_FW_N6/Drivers/STM32N6xx_HAL_Driver/Src/stm32n6xx_hal_cortex.c ****   assert_param(IS_NVIC_PRIORITY_GROUP(PriorityGroup));
 378:../../STM32Cube_FW_N6/Drivers/STM32N6xx_HAL_Driver/Src/stm32n6xx_hal_cortex.c **** 
 379:../../STM32Cube_FW_N6/Drivers/STM32N6xx_HAL_Driver/Src/stm32n6xx_hal_cortex.c ****   /* Get priority for Cortex-M system or device specific interrupts */
 380:../../STM32Cube_FW_N6/Drivers/STM32N6xx_HAL_Driver/Src/stm32n6xx_hal_cortex.c ****   NVIC_DecodePriority(NVIC_GetPriority(IRQn), PriorityGroup, pPreemptPriority, pSubPriority);
 381:../../STM32Cube_FW_N6/Drivers/STM32N6xx_HAL_Driver/Src/stm32n6xx_hal_cortex.c **** }
 382:../../STM32Cube_FW_N6/Drivers/STM32N6xx_HAL_Driver/Src/stm32n6xx_hal_cortex.c **** 
 383:../../STM32Cube_FW_N6/Drivers/STM32N6xx_HAL_Driver/Src/stm32n6xx_hal_cortex.c **** /**
 384:../../STM32Cube_FW_N6/Drivers/STM32N6xx_HAL_Driver/Src/stm32n6xx_hal_cortex.c ****   * @brief  Set Pending bit of an external interrupt.
 385:../../STM32Cube_FW_N6/Drivers/STM32N6xx_HAL_Driver/Src/stm32n6xx_hal_cortex.c ****   * @param  IRQn External interrupt number
 386:../../STM32Cube_FW_N6/Drivers/STM32N6xx_HAL_Driver/Src/stm32n6xx_hal_cortex.c ****   *         This parameter can be an enumerator of IRQn_Type enumeration
 387:../../STM32Cube_FW_N6/Drivers/STM32N6xx_HAL_Driver/Src/stm32n6xx_hal_cortex.c ****   *         (For the complete STM32 Devices IRQ Channels list, please refer
 388:../../STM32Cube_FW_N6/Drivers/STM32N6xx_HAL_Driver/Src/stm32n6xx_hal_cortex.c ****   *         to the appropriate CMSIS device file (stm32n6xxxx.h))
 389:../../STM32Cube_FW_N6/Drivers/STM32N6xx_HAL_Driver/Src/stm32n6xx_hal_cortex.c ****   * @retval None
 390:../../STM32Cube_FW_N6/Drivers/STM32N6xx_HAL_Driver/Src/stm32n6xx_hal_cortex.c ****   */
 391:../../STM32Cube_FW_N6/Drivers/STM32N6xx_HAL_Driver/Src/stm32n6xx_hal_cortex.c **** void HAL_NVIC_SetPendingIRQ(IRQn_Type IRQn)
 392:../../STM32Cube_FW_N6/Drivers/STM32N6xx_HAL_Driver/Src/stm32n6xx_hal_cortex.c **** {
 393:../../STM32Cube_FW_N6/Drivers/STM32N6xx_HAL_Driver/Src/stm32n6xx_hal_cortex.c ****   /* Check the parameters */
 394:../../STM32Cube_FW_N6/Drivers/STM32N6xx_HAL_Driver/Src/stm32n6xx_hal_cortex.c ****   assert_param(IS_NVIC_DEVICE_IRQ(IRQn));
 395:../../STM32Cube_FW_N6/Drivers/STM32N6xx_HAL_Driver/Src/stm32n6xx_hal_cortex.c **** 
 396:../../STM32Cube_FW_N6/Drivers/STM32N6xx_HAL_Driver/Src/stm32n6xx_hal_cortex.c ****   /* Set interrupt pending */
 397:../../STM32Cube_FW_N6/Drivers/STM32N6xx_HAL_Driver/Src/stm32n6xx_hal_cortex.c ****   NVIC_SetPendingIRQ(IRQn);
 398:../../STM32Cube_FW_N6/Drivers/STM32N6xx_HAL_Driver/Src/stm32n6xx_hal_cortex.c **** }
 399:../../STM32Cube_FW_N6/Drivers/STM32N6xx_HAL_Driver/Src/stm32n6xx_hal_cortex.c **** 
 400:../../STM32Cube_FW_N6/Drivers/STM32N6xx_HAL_Driver/Src/stm32n6xx_hal_cortex.c **** /**
 401:../../STM32Cube_FW_N6/Drivers/STM32N6xx_HAL_Driver/Src/stm32n6xx_hal_cortex.c ****   * @brief  Get Pending Interrupt (read the pending register in the NVIC
 402:../../STM32Cube_FW_N6/Drivers/STM32N6xx_HAL_Driver/Src/stm32n6xx_hal_cortex.c ****   *         and return the pending bit for the specified interrupt).
 403:../../STM32Cube_FW_N6/Drivers/STM32N6xx_HAL_Driver/Src/stm32n6xx_hal_cortex.c ****   * @param  IRQn External interrupt number.
 404:../../STM32Cube_FW_N6/Drivers/STM32N6xx_HAL_Driver/Src/stm32n6xx_hal_cortex.c ****   *         This parameter can be an enumerator of IRQn_Type enumeration
 405:../../STM32Cube_FW_N6/Drivers/STM32N6xx_HAL_Driver/Src/stm32n6xx_hal_cortex.c ****   *         (For the complete STM32 Devices IRQ Channels list, please refer
 406:../../STM32Cube_FW_N6/Drivers/STM32N6xx_HAL_Driver/Src/stm32n6xx_hal_cortex.c ****   *         to the appropriate CMSIS device file (stm32n6xxxx.h))
 407:../../STM32Cube_FW_N6/Drivers/STM32N6xx_HAL_Driver/Src/stm32n6xx_hal_cortex.c ****   * @retval status: - 0  Interrupt status is not pending.
 408:../../STM32Cube_FW_N6/Drivers/STM32N6xx_HAL_Driver/Src/stm32n6xx_hal_cortex.c ****   *                 - 1  Interrupt status is pending.
 409:../../STM32Cube_FW_N6/Drivers/STM32N6xx_HAL_Driver/Src/stm32n6xx_hal_cortex.c ****   */
 410:../../STM32Cube_FW_N6/Drivers/STM32N6xx_HAL_Driver/Src/stm32n6xx_hal_cortex.c **** uint32_t HAL_NVIC_GetPendingIRQ(IRQn_Type IRQn)
 411:../../STM32Cube_FW_N6/Drivers/STM32N6xx_HAL_Driver/Src/stm32n6xx_hal_cortex.c **** {
 412:../../STM32Cube_FW_N6/Drivers/STM32N6xx_HAL_Driver/Src/stm32n6xx_hal_cortex.c ****   /* Check the parameters */
ARM GAS  C:\Users\Antonio\AppData\Local\Temp\ccDsuHnY.s 			page 9


 413:../../STM32Cube_FW_N6/Drivers/STM32N6xx_HAL_Driver/Src/stm32n6xx_hal_cortex.c ****   assert_param(IS_NVIC_DEVICE_IRQ(IRQn));
 414:../../STM32Cube_FW_N6/Drivers/STM32N6xx_HAL_Driver/Src/stm32n6xx_hal_cortex.c **** 
 415:../../STM32Cube_FW_N6/Drivers/STM32N6xx_HAL_Driver/Src/stm32n6xx_hal_cortex.c ****   /* Return 1 if pending else 0 */
 416:../../STM32Cube_FW_N6/Drivers/STM32N6xx_HAL_Driver/Src/stm32n6xx_hal_cortex.c ****   return NVIC_GetPendingIRQ(IRQn);
 417:../../STM32Cube_FW_N6/Drivers/STM32N6xx_HAL_Driver/Src/stm32n6xx_hal_cortex.c **** }
 418:../../STM32Cube_FW_N6/Drivers/STM32N6xx_HAL_Driver/Src/stm32n6xx_hal_cortex.c **** 
 419:../../STM32Cube_FW_N6/Drivers/STM32N6xx_HAL_Driver/Src/stm32n6xx_hal_cortex.c **** /**
 420:../../STM32Cube_FW_N6/Drivers/STM32N6xx_HAL_Driver/Src/stm32n6xx_hal_cortex.c ****   * @brief  Clear the pending bit of an external interrupt.
 421:../../STM32Cube_FW_N6/Drivers/STM32N6xx_HAL_Driver/Src/stm32n6xx_hal_cortex.c ****   * @param  IRQn External interrupt number.
 422:../../STM32Cube_FW_N6/Drivers/STM32N6xx_HAL_Driver/Src/stm32n6xx_hal_cortex.c ****   *         This parameter can be an enumerator of IRQn_Type enumeration
 423:../../STM32Cube_FW_N6/Drivers/STM32N6xx_HAL_Driver/Src/stm32n6xx_hal_cortex.c ****   *         (For the complete STM32 Devices IRQ Channels list, please refer
 424:../../STM32Cube_FW_N6/Drivers/STM32N6xx_HAL_Driver/Src/stm32n6xx_hal_cortex.c ****   *         to the appropriate CMSIS device file (stm32n6xxxx.h))
 425:../../STM32Cube_FW_N6/Drivers/STM32N6xx_HAL_Driver/Src/stm32n6xx_hal_cortex.c ****   * @retval None
 426:../../STM32Cube_FW_N6/Drivers/STM32N6xx_HAL_Driver/Src/stm32n6xx_hal_cortex.c ****   */
 427:../../STM32Cube_FW_N6/Drivers/STM32N6xx_HAL_Driver/Src/stm32n6xx_hal_cortex.c **** void HAL_NVIC_ClearPendingIRQ(IRQn_Type IRQn)
 428:../../STM32Cube_FW_N6/Drivers/STM32N6xx_HAL_Driver/Src/stm32n6xx_hal_cortex.c **** {
 429:../../STM32Cube_FW_N6/Drivers/STM32N6xx_HAL_Driver/Src/stm32n6xx_hal_cortex.c ****   /* Check the parameters */
 430:../../STM32Cube_FW_N6/Drivers/STM32N6xx_HAL_Driver/Src/stm32n6xx_hal_cortex.c ****   assert_param(IS_NVIC_DEVICE_IRQ(IRQn));
 431:../../STM32Cube_FW_N6/Drivers/STM32N6xx_HAL_Driver/Src/stm32n6xx_hal_cortex.c **** 
 432:../../STM32Cube_FW_N6/Drivers/STM32N6xx_HAL_Driver/Src/stm32n6xx_hal_cortex.c ****   /* Clear pending interrupt */
 433:../../STM32Cube_FW_N6/Drivers/STM32N6xx_HAL_Driver/Src/stm32n6xx_hal_cortex.c ****   NVIC_ClearPendingIRQ(IRQn);
 434:../../STM32Cube_FW_N6/Drivers/STM32N6xx_HAL_Driver/Src/stm32n6xx_hal_cortex.c **** }
 435:../../STM32Cube_FW_N6/Drivers/STM32N6xx_HAL_Driver/Src/stm32n6xx_hal_cortex.c **** 
 436:../../STM32Cube_FW_N6/Drivers/STM32N6xx_HAL_Driver/Src/stm32n6xx_hal_cortex.c **** /**
 437:../../STM32Cube_FW_N6/Drivers/STM32N6xx_HAL_Driver/Src/stm32n6xx_hal_cortex.c ****   * @brief  Get active interrupt (read the active register in NVIC and return the active bit).
 438:../../STM32Cube_FW_N6/Drivers/STM32N6xx_HAL_Driver/Src/stm32n6xx_hal_cortex.c ****   * @param  IRQn External interrupt number
 439:../../STM32Cube_FW_N6/Drivers/STM32N6xx_HAL_Driver/Src/stm32n6xx_hal_cortex.c ****   *         This parameter can be an enumerator of IRQn_Type enumeration
 440:../../STM32Cube_FW_N6/Drivers/STM32N6xx_HAL_Driver/Src/stm32n6xx_hal_cortex.c ****   *         (For the complete STM32 Devices IRQ Channels list, please refer
 441:../../STM32Cube_FW_N6/Drivers/STM32N6xx_HAL_Driver/Src/stm32n6xx_hal_cortex.c ****   *         to the appropriate CMSIS device file (stm32n6xxxx.h))
 442:../../STM32Cube_FW_N6/Drivers/STM32N6xx_HAL_Driver/Src/stm32n6xx_hal_cortex.c ****   * @retval status: - 0  Interrupt status is not pending.
 443:../../STM32Cube_FW_N6/Drivers/STM32N6xx_HAL_Driver/Src/stm32n6xx_hal_cortex.c ****   *                 - 1  Interrupt status is pending.
 444:../../STM32Cube_FW_N6/Drivers/STM32N6xx_HAL_Driver/Src/stm32n6xx_hal_cortex.c ****   */
 445:../../STM32Cube_FW_N6/Drivers/STM32N6xx_HAL_Driver/Src/stm32n6xx_hal_cortex.c **** uint32_t HAL_NVIC_GetActive(IRQn_Type IRQn)
 446:../../STM32Cube_FW_N6/Drivers/STM32N6xx_HAL_Driver/Src/stm32n6xx_hal_cortex.c **** {
 447:../../STM32Cube_FW_N6/Drivers/STM32N6xx_HAL_Driver/Src/stm32n6xx_hal_cortex.c ****   /* Return 1 if active else 0 */
 448:../../STM32Cube_FW_N6/Drivers/STM32N6xx_HAL_Driver/Src/stm32n6xx_hal_cortex.c ****   return NVIC_GetActive(IRQn);
 449:../../STM32Cube_FW_N6/Drivers/STM32N6xx_HAL_Driver/Src/stm32n6xx_hal_cortex.c **** }
 450:../../STM32Cube_FW_N6/Drivers/STM32N6xx_HAL_Driver/Src/stm32n6xx_hal_cortex.c **** 
 451:../../STM32Cube_FW_N6/Drivers/STM32N6xx_HAL_Driver/Src/stm32n6xx_hal_cortex.c **** /**
 452:../../STM32Cube_FW_N6/Drivers/STM32N6xx_HAL_Driver/Src/stm32n6xx_hal_cortex.c ****   * @brief  Configure the SysTick clock source.
 453:../../STM32Cube_FW_N6/Drivers/STM32N6xx_HAL_Driver/Src/stm32n6xx_hal_cortex.c ****   * @param  CLKSource specifies the SysTick clock source.
 454:../../STM32Cube_FW_N6/Drivers/STM32N6xx_HAL_Driver/Src/stm32n6xx_hal_cortex.c ****   *         This parameter can be one of the following values:
 455:../../STM32Cube_FW_N6/Drivers/STM32N6xx_HAL_Driver/Src/stm32n6xx_hal_cortex.c ****   *             @arg SYSTICK_CLKSOURCE_HCLK AHB clock selected as SysTick clock source.
 456:../../STM32Cube_FW_N6/Drivers/STM32N6xx_HAL_Driver/Src/stm32n6xx_hal_cortex.c ****   *             @arg SYSTICK_CLKSOURCE_HCLK_DIV8 AHB clock divided by 8 selected as SysTick clock s
 457:../../STM32Cube_FW_N6/Drivers/STM32N6xx_HAL_Driver/Src/stm32n6xx_hal_cortex.c ****   * @retval None
 458:../../STM32Cube_FW_N6/Drivers/STM32N6xx_HAL_Driver/Src/stm32n6xx_hal_cortex.c ****   */
 459:../../STM32Cube_FW_N6/Drivers/STM32N6xx_HAL_Driver/Src/stm32n6xx_hal_cortex.c **** void HAL_SYSTICK_CLKSourceConfig(uint32_t CLKSource)
 460:../../STM32Cube_FW_N6/Drivers/STM32N6xx_HAL_Driver/Src/stm32n6xx_hal_cortex.c **** {
 461:../../STM32Cube_FW_N6/Drivers/STM32N6xx_HAL_Driver/Src/stm32n6xx_hal_cortex.c ****   /* Check the parameters */
 462:../../STM32Cube_FW_N6/Drivers/STM32N6xx_HAL_Driver/Src/stm32n6xx_hal_cortex.c ****   assert_param(IS_SYSTICK_CLK_SOURCE(CLKSource));
 463:../../STM32Cube_FW_N6/Drivers/STM32N6xx_HAL_Driver/Src/stm32n6xx_hal_cortex.c **** 
 464:../../STM32Cube_FW_N6/Drivers/STM32N6xx_HAL_Driver/Src/stm32n6xx_hal_cortex.c ****   MODIFY_REG(SysTick->CTRL, SysTick_CTRL_CLKSOURCE_Msk, CLKSource);
 465:../../STM32Cube_FW_N6/Drivers/STM32N6xx_HAL_Driver/Src/stm32n6xx_hal_cortex.c **** }
 466:../../STM32Cube_FW_N6/Drivers/STM32N6xx_HAL_Driver/Src/stm32n6xx_hal_cortex.c **** 
 467:../../STM32Cube_FW_N6/Drivers/STM32N6xx_HAL_Driver/Src/stm32n6xx_hal_cortex.c **** /**
 468:../../STM32Cube_FW_N6/Drivers/STM32N6xx_HAL_Driver/Src/stm32n6xx_hal_cortex.c ****   * @brief  Handle SYSTICK interrupt request.
 469:../../STM32Cube_FW_N6/Drivers/STM32N6xx_HAL_Driver/Src/stm32n6xx_hal_cortex.c ****   * @retval None
ARM GAS  C:\Users\Antonio\AppData\Local\Temp\ccDsuHnY.s 			page 10


 470:../../STM32Cube_FW_N6/Drivers/STM32N6xx_HAL_Driver/Src/stm32n6xx_hal_cortex.c ****   */
 471:../../STM32Cube_FW_N6/Drivers/STM32N6xx_HAL_Driver/Src/stm32n6xx_hal_cortex.c **** void HAL_SYSTICK_IRQHandler(void)
 472:../../STM32Cube_FW_N6/Drivers/STM32N6xx_HAL_Driver/Src/stm32n6xx_hal_cortex.c **** {
 473:../../STM32Cube_FW_N6/Drivers/STM32N6xx_HAL_Driver/Src/stm32n6xx_hal_cortex.c ****   HAL_SYSTICK_Callback();
 474:../../STM32Cube_FW_N6/Drivers/STM32N6xx_HAL_Driver/Src/stm32n6xx_hal_cortex.c **** }
 475:../../STM32Cube_FW_N6/Drivers/STM32N6xx_HAL_Driver/Src/stm32n6xx_hal_cortex.c **** 
 476:../../STM32Cube_FW_N6/Drivers/STM32N6xx_HAL_Driver/Src/stm32n6xx_hal_cortex.c **** /**
 477:../../STM32Cube_FW_N6/Drivers/STM32N6xx_HAL_Driver/Src/stm32n6xx_hal_cortex.c ****   * @brief  SYSTICK callback.
 478:../../STM32Cube_FW_N6/Drivers/STM32N6xx_HAL_Driver/Src/stm32n6xx_hal_cortex.c ****   * @retval None
 479:../../STM32Cube_FW_N6/Drivers/STM32N6xx_HAL_Driver/Src/stm32n6xx_hal_cortex.c ****   */
 480:../../STM32Cube_FW_N6/Drivers/STM32N6xx_HAL_Driver/Src/stm32n6xx_hal_cortex.c **** __weak void HAL_SYSTICK_Callback(void)
 481:../../STM32Cube_FW_N6/Drivers/STM32N6xx_HAL_Driver/Src/stm32n6xx_hal_cortex.c **** {
 482:../../STM32Cube_FW_N6/Drivers/STM32N6xx_HAL_Driver/Src/stm32n6xx_hal_cortex.c ****   /* NOTE : This function should not be modified, when the callback is needed,
 483:../../STM32Cube_FW_N6/Drivers/STM32N6xx_HAL_Driver/Src/stm32n6xx_hal_cortex.c ****             the HAL_SYSTICK_Callback could be implemented in the user file
 484:../../STM32Cube_FW_N6/Drivers/STM32N6xx_HAL_Driver/Src/stm32n6xx_hal_cortex.c ****    */
 485:../../STM32Cube_FW_N6/Drivers/STM32N6xx_HAL_Driver/Src/stm32n6xx_hal_cortex.c **** }
 486:../../STM32Cube_FW_N6/Drivers/STM32N6xx_HAL_Driver/Src/stm32n6xx_hal_cortex.c **** 
 487:../../STM32Cube_FW_N6/Drivers/STM32N6xx_HAL_Driver/Src/stm32n6xx_hal_cortex.c **** /**
 488:../../STM32Cube_FW_N6/Drivers/STM32N6xx_HAL_Driver/Src/stm32n6xx_hal_cortex.c ****   * @brief  Clear pending event(s).
 489:../../STM32Cube_FW_N6/Drivers/STM32N6xx_HAL_Driver/Src/stm32n6xx_hal_cortex.c ****   * @retval None
 490:../../STM32Cube_FW_N6/Drivers/STM32N6xx_HAL_Driver/Src/stm32n6xx_hal_cortex.c ****   */
 491:../../STM32Cube_FW_N6/Drivers/STM32N6xx_HAL_Driver/Src/stm32n6xx_hal_cortex.c **** void HAL_CORTEX_ClearEvent(void)
 492:../../STM32Cube_FW_N6/Drivers/STM32N6xx_HAL_Driver/Src/stm32n6xx_hal_cortex.c **** {
 493:../../STM32Cube_FW_N6/Drivers/STM32N6xx_HAL_Driver/Src/stm32n6xx_hal_cortex.c ****   __SEV();
 494:../../STM32Cube_FW_N6/Drivers/STM32N6xx_HAL_Driver/Src/stm32n6xx_hal_cortex.c ****   __WFE();
 495:../../STM32Cube_FW_N6/Drivers/STM32N6xx_HAL_Driver/Src/stm32n6xx_hal_cortex.c **** }
 496:../../STM32Cube_FW_N6/Drivers/STM32N6xx_HAL_Driver/Src/stm32n6xx_hal_cortex.c **** 
 497:../../STM32Cube_FW_N6/Drivers/STM32N6xx_HAL_Driver/Src/stm32n6xx_hal_cortex.c **** /**
 498:../../STM32Cube_FW_N6/Drivers/STM32N6xx_HAL_Driver/Src/stm32n6xx_hal_cortex.c ****   * @brief  Enable the MPU.
 499:../../STM32Cube_FW_N6/Drivers/STM32N6xx_HAL_Driver/Src/stm32n6xx_hal_cortex.c ****   * @param  MPU_Control Specifies the control mode of the MPU during hard fault,
 500:../../STM32Cube_FW_N6/Drivers/STM32N6xx_HAL_Driver/Src/stm32n6xx_hal_cortex.c ****   *                     NMI, FAULTMASK and privileged access to the default memory
 501:../../STM32Cube_FW_N6/Drivers/STM32N6xx_HAL_Driver/Src/stm32n6xx_hal_cortex.c ****   *         This parameter can be one of the following values:
 502:../../STM32Cube_FW_N6/Drivers/STM32N6xx_HAL_Driver/Src/stm32n6xx_hal_cortex.c ****   *            @arg MPU_HFNMI_PRIVDEF_NONE
 503:../../STM32Cube_FW_N6/Drivers/STM32N6xx_HAL_Driver/Src/stm32n6xx_hal_cortex.c ****   *            @arg MPU_HARDFAULT_NMI
 504:../../STM32Cube_FW_N6/Drivers/STM32N6xx_HAL_Driver/Src/stm32n6xx_hal_cortex.c ****   *            @arg MPU_PRIVILEGED_DEFAULT
 505:../../STM32Cube_FW_N6/Drivers/STM32N6xx_HAL_Driver/Src/stm32n6xx_hal_cortex.c ****   *            @arg MPU_HFNMI_PRIVDEF
 506:../../STM32Cube_FW_N6/Drivers/STM32N6xx_HAL_Driver/Src/stm32n6xx_hal_cortex.c ****   * @retval None
 507:../../STM32Cube_FW_N6/Drivers/STM32N6xx_HAL_Driver/Src/stm32n6xx_hal_cortex.c ****   */
 508:../../STM32Cube_FW_N6/Drivers/STM32N6xx_HAL_Driver/Src/stm32n6xx_hal_cortex.c **** void HAL_MPU_Enable(uint32_t MPU_Control)
 509:../../STM32Cube_FW_N6/Drivers/STM32N6xx_HAL_Driver/Src/stm32n6xx_hal_cortex.c **** {
 510:../../STM32Cube_FW_N6/Drivers/STM32N6xx_HAL_Driver/Src/stm32n6xx_hal_cortex.c ****   __DMB(); /* Force any outstanding transfers to complete before enabling MPU */
 511:../../STM32Cube_FW_N6/Drivers/STM32N6xx_HAL_Driver/Src/stm32n6xx_hal_cortex.c **** 
 512:../../STM32Cube_FW_N6/Drivers/STM32N6xx_HAL_Driver/Src/stm32n6xx_hal_cortex.c ****   /* Enable the MPU */
 513:../../STM32Cube_FW_N6/Drivers/STM32N6xx_HAL_Driver/Src/stm32n6xx_hal_cortex.c ****   MPU->CTRL = (MPU_Control | MPU_CTRL_ENABLE_Msk);
 514:../../STM32Cube_FW_N6/Drivers/STM32N6xx_HAL_Driver/Src/stm32n6xx_hal_cortex.c **** 
 515:../../STM32Cube_FW_N6/Drivers/STM32N6xx_HAL_Driver/Src/stm32n6xx_hal_cortex.c ****   /* Enable fault exceptions */
 516:../../STM32Cube_FW_N6/Drivers/STM32N6xx_HAL_Driver/Src/stm32n6xx_hal_cortex.c ****   SCB->SHCSR |= SCB_SHCSR_MEMFAULTENA_Msk;
 517:../../STM32Cube_FW_N6/Drivers/STM32N6xx_HAL_Driver/Src/stm32n6xx_hal_cortex.c **** 
 518:../../STM32Cube_FW_N6/Drivers/STM32N6xx_HAL_Driver/Src/stm32n6xx_hal_cortex.c ****   /* Ensure MPU setting take effects */
 519:../../STM32Cube_FW_N6/Drivers/STM32N6xx_HAL_Driver/Src/stm32n6xx_hal_cortex.c ****   __DSB();
 520:../../STM32Cube_FW_N6/Drivers/STM32N6xx_HAL_Driver/Src/stm32n6xx_hal_cortex.c ****   __ISB();
 521:../../STM32Cube_FW_N6/Drivers/STM32N6xx_HAL_Driver/Src/stm32n6xx_hal_cortex.c **** }
 522:../../STM32Cube_FW_N6/Drivers/STM32N6xx_HAL_Driver/Src/stm32n6xx_hal_cortex.c **** 
 523:../../STM32Cube_FW_N6/Drivers/STM32N6xx_HAL_Driver/Src/stm32n6xx_hal_cortex.c **** #if defined (CPU_IN_SECURE_STATE)
 524:../../STM32Cube_FW_N6/Drivers/STM32N6xx_HAL_Driver/Src/stm32n6xx_hal_cortex.c **** /**
 525:../../STM32Cube_FW_N6/Drivers/STM32N6xx_HAL_Driver/Src/stm32n6xx_hal_cortex.c ****   * @brief  Enable the non-secure MPU.
 526:../../STM32Cube_FW_N6/Drivers/STM32N6xx_HAL_Driver/Src/stm32n6xx_hal_cortex.c ****   * @param  MPU_Control: Specifies the control mode of the MPU during hard fault,
ARM GAS  C:\Users\Antonio\AppData\Local\Temp\ccDsuHnY.s 			page 11


 527:../../STM32Cube_FW_N6/Drivers/STM32N6xx_HAL_Driver/Src/stm32n6xx_hal_cortex.c ****   *                      NMI, FAULTMASK and privileged access to the default memory
 528:../../STM32Cube_FW_N6/Drivers/STM32N6xx_HAL_Driver/Src/stm32n6xx_hal_cortex.c ****   *          This parameter can be one of the following values:
 529:../../STM32Cube_FW_N6/Drivers/STM32N6xx_HAL_Driver/Src/stm32n6xx_hal_cortex.c ****   *            @arg MPU_HFNMI_PRIVDEF_NONE
 530:../../STM32Cube_FW_N6/Drivers/STM32N6xx_HAL_Driver/Src/stm32n6xx_hal_cortex.c ****   *            @arg MPU_HARDFAULT_NMI
 531:../../STM32Cube_FW_N6/Drivers/STM32N6xx_HAL_Driver/Src/stm32n6xx_hal_cortex.c ****   *            @arg MPU_PRIVILEGED_DEFAULT
 532:../../STM32Cube_FW_N6/Drivers/STM32N6xx_HAL_Driver/Src/stm32n6xx_hal_cortex.c ****   *            @arg MPU_HFNMI_PRIVDEF
 533:../../STM32Cube_FW_N6/Drivers/STM32N6xx_HAL_Driver/Src/stm32n6xx_hal_cortex.c ****   * @retval None
 534:../../STM32Cube_FW_N6/Drivers/STM32N6xx_HAL_Driver/Src/stm32n6xx_hal_cortex.c ****   */
 535:../../STM32Cube_FW_N6/Drivers/STM32N6xx_HAL_Driver/Src/stm32n6xx_hal_cortex.c **** void HAL_MPU_Enable_NS(uint32_t MPU_Control)
 536:../../STM32Cube_FW_N6/Drivers/STM32N6xx_HAL_Driver/Src/stm32n6xx_hal_cortex.c **** {
 537:../../STM32Cube_FW_N6/Drivers/STM32N6xx_HAL_Driver/Src/stm32n6xx_hal_cortex.c ****   __DMB(); /* Force any outstanding transfers to complete before enabling MPU */
 538:../../STM32Cube_FW_N6/Drivers/STM32N6xx_HAL_Driver/Src/stm32n6xx_hal_cortex.c **** 
 539:../../STM32Cube_FW_N6/Drivers/STM32N6xx_HAL_Driver/Src/stm32n6xx_hal_cortex.c ****   /* Enable the MPU */
 540:../../STM32Cube_FW_N6/Drivers/STM32N6xx_HAL_Driver/Src/stm32n6xx_hal_cortex.c ****   MPU_NS->CTRL = MPU_Control | MPU_CTRL_ENABLE_Msk;
 541:../../STM32Cube_FW_N6/Drivers/STM32N6xx_HAL_Driver/Src/stm32n6xx_hal_cortex.c **** 
 542:../../STM32Cube_FW_N6/Drivers/STM32N6xx_HAL_Driver/Src/stm32n6xx_hal_cortex.c ****   /* Enable fault exceptions */
 543:../../STM32Cube_FW_N6/Drivers/STM32N6xx_HAL_Driver/Src/stm32n6xx_hal_cortex.c ****   SCB_NS->SHCSR |= SCB_SHCSR_MEMFAULTENA_Msk;
 544:../../STM32Cube_FW_N6/Drivers/STM32N6xx_HAL_Driver/Src/stm32n6xx_hal_cortex.c **** 
 545:../../STM32Cube_FW_N6/Drivers/STM32N6xx_HAL_Driver/Src/stm32n6xx_hal_cortex.c ****   /* Ensure MPU setting take effects */
 546:../../STM32Cube_FW_N6/Drivers/STM32N6xx_HAL_Driver/Src/stm32n6xx_hal_cortex.c ****   __DSB();
 547:../../STM32Cube_FW_N6/Drivers/STM32N6xx_HAL_Driver/Src/stm32n6xx_hal_cortex.c ****   __ISB();
 548:../../STM32Cube_FW_N6/Drivers/STM32N6xx_HAL_Driver/Src/stm32n6xx_hal_cortex.c **** }
 549:../../STM32Cube_FW_N6/Drivers/STM32N6xx_HAL_Driver/Src/stm32n6xx_hal_cortex.c **** #endif /* CPU_IN_SECURE_STATE */
 550:../../STM32Cube_FW_N6/Drivers/STM32N6xx_HAL_Driver/Src/stm32n6xx_hal_cortex.c **** 
 551:../../STM32Cube_FW_N6/Drivers/STM32N6xx_HAL_Driver/Src/stm32n6xx_hal_cortex.c **** /**
 552:../../STM32Cube_FW_N6/Drivers/STM32N6xx_HAL_Driver/Src/stm32n6xx_hal_cortex.c ****   * @brief  Disable the MPU.
 553:../../STM32Cube_FW_N6/Drivers/STM32N6xx_HAL_Driver/Src/stm32n6xx_hal_cortex.c ****   * @retval None
 554:../../STM32Cube_FW_N6/Drivers/STM32N6xx_HAL_Driver/Src/stm32n6xx_hal_cortex.c ****   */
 555:../../STM32Cube_FW_N6/Drivers/STM32N6xx_HAL_Driver/Src/stm32n6xx_hal_cortex.c **** void HAL_MPU_Disable(void)
 556:../../STM32Cube_FW_N6/Drivers/STM32N6xx_HAL_Driver/Src/stm32n6xx_hal_cortex.c **** {
 557:../../STM32Cube_FW_N6/Drivers/STM32N6xx_HAL_Driver/Src/stm32n6xx_hal_cortex.c ****   __DMB(); /* Force any outstanding transfers to complete before disabling MPU */
 558:../../STM32Cube_FW_N6/Drivers/STM32N6xx_HAL_Driver/Src/stm32n6xx_hal_cortex.c **** 
 559:../../STM32Cube_FW_N6/Drivers/STM32N6xx_HAL_Driver/Src/stm32n6xx_hal_cortex.c ****   /* Disable fault exceptions */
 560:../../STM32Cube_FW_N6/Drivers/STM32N6xx_HAL_Driver/Src/stm32n6xx_hal_cortex.c ****   SCB->SHCSR &= ~SCB_SHCSR_MEMFAULTENA_Msk;
 561:../../STM32Cube_FW_N6/Drivers/STM32N6xx_HAL_Driver/Src/stm32n6xx_hal_cortex.c **** 
 562:../../STM32Cube_FW_N6/Drivers/STM32N6xx_HAL_Driver/Src/stm32n6xx_hal_cortex.c ****   /* Disable the MPU */
 563:../../STM32Cube_FW_N6/Drivers/STM32N6xx_HAL_Driver/Src/stm32n6xx_hal_cortex.c ****   MPU->CTRL &= ~MPU_CTRL_ENABLE_Msk;
 564:../../STM32Cube_FW_N6/Drivers/STM32N6xx_HAL_Driver/Src/stm32n6xx_hal_cortex.c **** 
 565:../../STM32Cube_FW_N6/Drivers/STM32N6xx_HAL_Driver/Src/stm32n6xx_hal_cortex.c ****   /* Ensure MPU setting take effects */
 566:../../STM32Cube_FW_N6/Drivers/STM32N6xx_HAL_Driver/Src/stm32n6xx_hal_cortex.c ****   __DSB();
 567:../../STM32Cube_FW_N6/Drivers/STM32N6xx_HAL_Driver/Src/stm32n6xx_hal_cortex.c ****   __ISB();
 568:../../STM32Cube_FW_N6/Drivers/STM32N6xx_HAL_Driver/Src/stm32n6xx_hal_cortex.c **** }
 569:../../STM32Cube_FW_N6/Drivers/STM32N6xx_HAL_Driver/Src/stm32n6xx_hal_cortex.c **** 
 570:../../STM32Cube_FW_N6/Drivers/STM32N6xx_HAL_Driver/Src/stm32n6xx_hal_cortex.c **** #if defined (CPU_IN_SECURE_STATE)
 571:../../STM32Cube_FW_N6/Drivers/STM32N6xx_HAL_Driver/Src/stm32n6xx_hal_cortex.c **** /**
 572:../../STM32Cube_FW_N6/Drivers/STM32N6xx_HAL_Driver/Src/stm32n6xx_hal_cortex.c ****   * @brief  Disable the non-secure MPU.
 573:../../STM32Cube_FW_N6/Drivers/STM32N6xx_HAL_Driver/Src/stm32n6xx_hal_cortex.c ****   * @retval None
 574:../../STM32Cube_FW_N6/Drivers/STM32N6xx_HAL_Driver/Src/stm32n6xx_hal_cortex.c ****   */
 575:../../STM32Cube_FW_N6/Drivers/STM32N6xx_HAL_Driver/Src/stm32n6xx_hal_cortex.c **** void HAL_MPU_Disable_NS(void)
 576:../../STM32Cube_FW_N6/Drivers/STM32N6xx_HAL_Driver/Src/stm32n6xx_hal_cortex.c **** {
 577:../../STM32Cube_FW_N6/Drivers/STM32N6xx_HAL_Driver/Src/stm32n6xx_hal_cortex.c ****   __DMB(); /* Force any outstanding transfers to complete before disabling MPU */
 578:../../STM32Cube_FW_N6/Drivers/STM32N6xx_HAL_Driver/Src/stm32n6xx_hal_cortex.c **** 
 579:../../STM32Cube_FW_N6/Drivers/STM32N6xx_HAL_Driver/Src/stm32n6xx_hal_cortex.c ****   /* Disable fault exceptions */
 580:../../STM32Cube_FW_N6/Drivers/STM32N6xx_HAL_Driver/Src/stm32n6xx_hal_cortex.c ****   SCB_NS->SHCSR &= ~SCB_SHCSR_MEMFAULTENA_Msk;
 581:../../STM32Cube_FW_N6/Drivers/STM32N6xx_HAL_Driver/Src/stm32n6xx_hal_cortex.c **** 
 582:../../STM32Cube_FW_N6/Drivers/STM32N6xx_HAL_Driver/Src/stm32n6xx_hal_cortex.c ****   /* Disable the MPU */
 583:../../STM32Cube_FW_N6/Drivers/STM32N6xx_HAL_Driver/Src/stm32n6xx_hal_cortex.c ****   MPU_NS->CTRL &= ~MPU_CTRL_ENABLE_Msk;
ARM GAS  C:\Users\Antonio\AppData\Local\Temp\ccDsuHnY.s 			page 12


 584:../../STM32Cube_FW_N6/Drivers/STM32N6xx_HAL_Driver/Src/stm32n6xx_hal_cortex.c **** 
 585:../../STM32Cube_FW_N6/Drivers/STM32N6xx_HAL_Driver/Src/stm32n6xx_hal_cortex.c ****   /* Ensure MPU setting take effects */
 586:../../STM32Cube_FW_N6/Drivers/STM32N6xx_HAL_Driver/Src/stm32n6xx_hal_cortex.c ****   __DSB();
 587:../../STM32Cube_FW_N6/Drivers/STM32N6xx_HAL_Driver/Src/stm32n6xx_hal_cortex.c ****   __ISB();
 588:../../STM32Cube_FW_N6/Drivers/STM32N6xx_HAL_Driver/Src/stm32n6xx_hal_cortex.c **** }
 589:../../STM32Cube_FW_N6/Drivers/STM32N6xx_HAL_Driver/Src/stm32n6xx_hal_cortex.c **** #endif /* CPU_IN_SECURE_STATE */
 590:../../STM32Cube_FW_N6/Drivers/STM32N6xx_HAL_Driver/Src/stm32n6xx_hal_cortex.c **** 
 591:../../STM32Cube_FW_N6/Drivers/STM32N6xx_HAL_Driver/Src/stm32n6xx_hal_cortex.c **** /**
 592:../../STM32Cube_FW_N6/Drivers/STM32N6xx_HAL_Driver/Src/stm32n6xx_hal_cortex.c ****   * @brief  Enable the MPU Region.
 593:../../STM32Cube_FW_N6/Drivers/STM32N6xx_HAL_Driver/Src/stm32n6xx_hal_cortex.c ****   * @retval None
 594:../../STM32Cube_FW_N6/Drivers/STM32N6xx_HAL_Driver/Src/stm32n6xx_hal_cortex.c ****   */
 595:../../STM32Cube_FW_N6/Drivers/STM32N6xx_HAL_Driver/Src/stm32n6xx_hal_cortex.c **** void HAL_MPU_EnableRegion(uint32_t RegionNumber)
 596:../../STM32Cube_FW_N6/Drivers/STM32N6xx_HAL_Driver/Src/stm32n6xx_hal_cortex.c **** {
 597:../../STM32Cube_FW_N6/Drivers/STM32N6xx_HAL_Driver/Src/stm32n6xx_hal_cortex.c ****   /* Check the parameters */
 598:../../STM32Cube_FW_N6/Drivers/STM32N6xx_HAL_Driver/Src/stm32n6xx_hal_cortex.c ****   assert_param(IS_MPU_REGION_NUMBER(RegionNumber));
 599:../../STM32Cube_FW_N6/Drivers/STM32N6xx_HAL_Driver/Src/stm32n6xx_hal_cortex.c **** 
 600:../../STM32Cube_FW_N6/Drivers/STM32N6xx_HAL_Driver/Src/stm32n6xx_hal_cortex.c ****   /* Set the Region number */
 601:../../STM32Cube_FW_N6/Drivers/STM32N6xx_HAL_Driver/Src/stm32n6xx_hal_cortex.c ****   MPU->RNR = RegionNumber;
 602:../../STM32Cube_FW_N6/Drivers/STM32N6xx_HAL_Driver/Src/stm32n6xx_hal_cortex.c **** 
 603:../../STM32Cube_FW_N6/Drivers/STM32N6xx_HAL_Driver/Src/stm32n6xx_hal_cortex.c ****   /* Enable the Region */
 604:../../STM32Cube_FW_N6/Drivers/STM32N6xx_HAL_Driver/Src/stm32n6xx_hal_cortex.c ****   SET_BIT(MPU->RLAR, MPU_RLAR_EN_Msk);
 605:../../STM32Cube_FW_N6/Drivers/STM32N6xx_HAL_Driver/Src/stm32n6xx_hal_cortex.c **** }
 606:../../STM32Cube_FW_N6/Drivers/STM32N6xx_HAL_Driver/Src/stm32n6xx_hal_cortex.c **** 
 607:../../STM32Cube_FW_N6/Drivers/STM32N6xx_HAL_Driver/Src/stm32n6xx_hal_cortex.c **** #if defined (CPU_IN_SECURE_STATE)
 608:../../STM32Cube_FW_N6/Drivers/STM32N6xx_HAL_Driver/Src/stm32n6xx_hal_cortex.c **** /**
 609:../../STM32Cube_FW_N6/Drivers/STM32N6xx_HAL_Driver/Src/stm32n6xx_hal_cortex.c ****   * @brief  Enable the non-secure MPU Region.
 610:../../STM32Cube_FW_N6/Drivers/STM32N6xx_HAL_Driver/Src/stm32n6xx_hal_cortex.c ****   * @retval None
 611:../../STM32Cube_FW_N6/Drivers/STM32N6xx_HAL_Driver/Src/stm32n6xx_hal_cortex.c ****   */
 612:../../STM32Cube_FW_N6/Drivers/STM32N6xx_HAL_Driver/Src/stm32n6xx_hal_cortex.c **** void HAL_MPU_EnableRegion_NS(uint32_t RegionNumber)
 613:../../STM32Cube_FW_N6/Drivers/STM32N6xx_HAL_Driver/Src/stm32n6xx_hal_cortex.c **** {
 614:../../STM32Cube_FW_N6/Drivers/STM32N6xx_HAL_Driver/Src/stm32n6xx_hal_cortex.c ****   assert_param(IS_MPU_REGION_NUMBER(RegionNumber));
 615:../../STM32Cube_FW_N6/Drivers/STM32N6xx_HAL_Driver/Src/stm32n6xx_hal_cortex.c **** 
 616:../../STM32Cube_FW_N6/Drivers/STM32N6xx_HAL_Driver/Src/stm32n6xx_hal_cortex.c ****   /* Set the Region number */
 617:../../STM32Cube_FW_N6/Drivers/STM32N6xx_HAL_Driver/Src/stm32n6xx_hal_cortex.c ****   MPU_NS->RNR = RegionNumber;
 618:../../STM32Cube_FW_N6/Drivers/STM32N6xx_HAL_Driver/Src/stm32n6xx_hal_cortex.c **** 
 619:../../STM32Cube_FW_N6/Drivers/STM32N6xx_HAL_Driver/Src/stm32n6xx_hal_cortex.c ****   /* Enable the Region */
 620:../../STM32Cube_FW_N6/Drivers/STM32N6xx_HAL_Driver/Src/stm32n6xx_hal_cortex.c ****   SET_BIT(MPU_NS->RLAR, MPU_RLAR_EN_Msk);
 621:../../STM32Cube_FW_N6/Drivers/STM32N6xx_HAL_Driver/Src/stm32n6xx_hal_cortex.c **** }
 622:../../STM32Cube_FW_N6/Drivers/STM32N6xx_HAL_Driver/Src/stm32n6xx_hal_cortex.c **** #endif /* CPU_IN_SECURE_STATE */
 623:../../STM32Cube_FW_N6/Drivers/STM32N6xx_HAL_Driver/Src/stm32n6xx_hal_cortex.c **** 
 624:../../STM32Cube_FW_N6/Drivers/STM32N6xx_HAL_Driver/Src/stm32n6xx_hal_cortex.c **** /**
 625:../../STM32Cube_FW_N6/Drivers/STM32N6xx_HAL_Driver/Src/stm32n6xx_hal_cortex.c ****   * @brief  Disable the MPU Region.
 626:../../STM32Cube_FW_N6/Drivers/STM32N6xx_HAL_Driver/Src/stm32n6xx_hal_cortex.c ****   * @retval None
 627:../../STM32Cube_FW_N6/Drivers/STM32N6xx_HAL_Driver/Src/stm32n6xx_hal_cortex.c ****   */
 628:../../STM32Cube_FW_N6/Drivers/STM32N6xx_HAL_Driver/Src/stm32n6xx_hal_cortex.c **** void HAL_MPU_DisableRegion(uint32_t RegionNumber)
 629:../../STM32Cube_FW_N6/Drivers/STM32N6xx_HAL_Driver/Src/stm32n6xx_hal_cortex.c **** {
 630:../../STM32Cube_FW_N6/Drivers/STM32N6xx_HAL_Driver/Src/stm32n6xx_hal_cortex.c ****   /* Check the parameters */
 631:../../STM32Cube_FW_N6/Drivers/STM32N6xx_HAL_Driver/Src/stm32n6xx_hal_cortex.c ****   assert_param(IS_MPU_REGION_NUMBER(RegionNumber));
 632:../../STM32Cube_FW_N6/Drivers/STM32N6xx_HAL_Driver/Src/stm32n6xx_hal_cortex.c **** 
 633:../../STM32Cube_FW_N6/Drivers/STM32N6xx_HAL_Driver/Src/stm32n6xx_hal_cortex.c ****   /* Set the Region number */
 634:../../STM32Cube_FW_N6/Drivers/STM32N6xx_HAL_Driver/Src/stm32n6xx_hal_cortex.c ****   MPU->RNR = RegionNumber;
 635:../../STM32Cube_FW_N6/Drivers/STM32N6xx_HAL_Driver/Src/stm32n6xx_hal_cortex.c **** 
 636:../../STM32Cube_FW_N6/Drivers/STM32N6xx_HAL_Driver/Src/stm32n6xx_hal_cortex.c ****   /* Disable the Region */
 637:../../STM32Cube_FW_N6/Drivers/STM32N6xx_HAL_Driver/Src/stm32n6xx_hal_cortex.c ****   CLEAR_BIT(MPU->RLAR, MPU_RLAR_EN_Msk);
 638:../../STM32Cube_FW_N6/Drivers/STM32N6xx_HAL_Driver/Src/stm32n6xx_hal_cortex.c **** }
 639:../../STM32Cube_FW_N6/Drivers/STM32N6xx_HAL_Driver/Src/stm32n6xx_hal_cortex.c **** 
 640:../../STM32Cube_FW_N6/Drivers/STM32N6xx_HAL_Driver/Src/stm32n6xx_hal_cortex.c **** #if defined (CPU_IN_SECURE_STATE)
ARM GAS  C:\Users\Antonio\AppData\Local\Temp\ccDsuHnY.s 			page 13


 641:../../STM32Cube_FW_N6/Drivers/STM32N6xx_HAL_Driver/Src/stm32n6xx_hal_cortex.c **** /**
 642:../../STM32Cube_FW_N6/Drivers/STM32N6xx_HAL_Driver/Src/stm32n6xx_hal_cortex.c ****   * @brief  Disable the non-secure MPU Region.
 643:../../STM32Cube_FW_N6/Drivers/STM32N6xx_HAL_Driver/Src/stm32n6xx_hal_cortex.c ****   * @retval None
 644:../../STM32Cube_FW_N6/Drivers/STM32N6xx_HAL_Driver/Src/stm32n6xx_hal_cortex.c ****   */
 645:../../STM32Cube_FW_N6/Drivers/STM32N6xx_HAL_Driver/Src/stm32n6xx_hal_cortex.c **** void HAL_MPU_DisableRegion_NS(uint32_t RegionNumber)
 646:../../STM32Cube_FW_N6/Drivers/STM32N6xx_HAL_Driver/Src/stm32n6xx_hal_cortex.c **** {
 647:../../STM32Cube_FW_N6/Drivers/STM32N6xx_HAL_Driver/Src/stm32n6xx_hal_cortex.c ****   /* Check the parameters */
 648:../../STM32Cube_FW_N6/Drivers/STM32N6xx_HAL_Driver/Src/stm32n6xx_hal_cortex.c ****   assert_param(IS_MPU_REGION_NUMBER(RegionNumber));
 649:../../STM32Cube_FW_N6/Drivers/STM32N6xx_HAL_Driver/Src/stm32n6xx_hal_cortex.c **** 
 650:../../STM32Cube_FW_N6/Drivers/STM32N6xx_HAL_Driver/Src/stm32n6xx_hal_cortex.c ****   /* Set the Region number */
 651:../../STM32Cube_FW_N6/Drivers/STM32N6xx_HAL_Driver/Src/stm32n6xx_hal_cortex.c ****   MPU_NS->RNR = RegionNumber;
 652:../../STM32Cube_FW_N6/Drivers/STM32N6xx_HAL_Driver/Src/stm32n6xx_hal_cortex.c **** 
 653:../../STM32Cube_FW_N6/Drivers/STM32N6xx_HAL_Driver/Src/stm32n6xx_hal_cortex.c ****   /* Disable the Region */
 654:../../STM32Cube_FW_N6/Drivers/STM32N6xx_HAL_Driver/Src/stm32n6xx_hal_cortex.c ****   CLEAR_BIT(MPU_NS->RLAR, MPU_RLAR_EN_Msk);
 655:../../STM32Cube_FW_N6/Drivers/STM32N6xx_HAL_Driver/Src/stm32n6xx_hal_cortex.c **** }
 656:../../STM32Cube_FW_N6/Drivers/STM32N6xx_HAL_Driver/Src/stm32n6xx_hal_cortex.c **** #endif /* CPU_IN_SECURE_STATE */
 657:../../STM32Cube_FW_N6/Drivers/STM32N6xx_HAL_Driver/Src/stm32n6xx_hal_cortex.c **** 
 658:../../STM32Cube_FW_N6/Drivers/STM32N6xx_HAL_Driver/Src/stm32n6xx_hal_cortex.c **** 
 659:../../STM32Cube_FW_N6/Drivers/STM32N6xx_HAL_Driver/Src/stm32n6xx_hal_cortex.c **** /**
 660:../../STM32Cube_FW_N6/Drivers/STM32N6xx_HAL_Driver/Src/stm32n6xx_hal_cortex.c ****   * @brief  Initialize and configure the Region and the memory to be protected.
 661:../../STM32Cube_FW_N6/Drivers/STM32N6xx_HAL_Driver/Src/stm32n6xx_hal_cortex.c ****   * @param  pMPU_RegionInit Pointer to a MPU_Region_InitTypeDef structure that contains
 662:../../STM32Cube_FW_N6/Drivers/STM32N6xx_HAL_Driver/Src/stm32n6xx_hal_cortex.c ****   *                         the initialization and configuration information.
 663:../../STM32Cube_FW_N6/Drivers/STM32N6xx_HAL_Driver/Src/stm32n6xx_hal_cortex.c ****   * @retval None
 664:../../STM32Cube_FW_N6/Drivers/STM32N6xx_HAL_Driver/Src/stm32n6xx_hal_cortex.c ****   */
 665:../../STM32Cube_FW_N6/Drivers/STM32N6xx_HAL_Driver/Src/stm32n6xx_hal_cortex.c **** void HAL_MPU_ConfigRegion(const MPU_Region_InitTypeDef *pMPU_RegionInit)
 666:../../STM32Cube_FW_N6/Drivers/STM32N6xx_HAL_Driver/Src/stm32n6xx_hal_cortex.c **** {
 667:../../STM32Cube_FW_N6/Drivers/STM32N6xx_HAL_Driver/Src/stm32n6xx_hal_cortex.c ****   MPU_ConfigRegion(MPU, pMPU_RegionInit);
 668:../../STM32Cube_FW_N6/Drivers/STM32N6xx_HAL_Driver/Src/stm32n6xx_hal_cortex.c **** }
 669:../../STM32Cube_FW_N6/Drivers/STM32N6xx_HAL_Driver/Src/stm32n6xx_hal_cortex.c **** 
 670:../../STM32Cube_FW_N6/Drivers/STM32N6xx_HAL_Driver/Src/stm32n6xx_hal_cortex.c **** #if defined (CPU_IN_SECURE_STATE)
 671:../../STM32Cube_FW_N6/Drivers/STM32N6xx_HAL_Driver/Src/stm32n6xx_hal_cortex.c **** /**
 672:../../STM32Cube_FW_N6/Drivers/STM32N6xx_HAL_Driver/Src/stm32n6xx_hal_cortex.c ****   * @brief  Initialize and configure the Region and the memory to be protected for non-secure MPU.
 673:../../STM32Cube_FW_N6/Drivers/STM32N6xx_HAL_Driver/Src/stm32n6xx_hal_cortex.c ****   * @param  pMPU_RegionInit Pointer to a MPU_Region_InitTypeDef structure that contains
 674:../../STM32Cube_FW_N6/Drivers/STM32N6xx_HAL_Driver/Src/stm32n6xx_hal_cortex.c ****   *                         the initialization and configuration information.
 675:../../STM32Cube_FW_N6/Drivers/STM32N6xx_HAL_Driver/Src/stm32n6xx_hal_cortex.c ****   * @retval None
 676:../../STM32Cube_FW_N6/Drivers/STM32N6xx_HAL_Driver/Src/stm32n6xx_hal_cortex.c ****   */
 677:../../STM32Cube_FW_N6/Drivers/STM32N6xx_HAL_Driver/Src/stm32n6xx_hal_cortex.c **** void HAL_MPU_ConfigRegion_NS(const MPU_Region_InitTypeDef *pMPU_RegionInit)
 678:../../STM32Cube_FW_N6/Drivers/STM32N6xx_HAL_Driver/Src/stm32n6xx_hal_cortex.c **** {
 679:../../STM32Cube_FW_N6/Drivers/STM32N6xx_HAL_Driver/Src/stm32n6xx_hal_cortex.c ****   MPU_ConfigRegion(MPU_NS, pMPU_RegionInit);
 680:../../STM32Cube_FW_N6/Drivers/STM32N6xx_HAL_Driver/Src/stm32n6xx_hal_cortex.c **** }
 681:../../STM32Cube_FW_N6/Drivers/STM32N6xx_HAL_Driver/Src/stm32n6xx_hal_cortex.c **** #endif /* CPU_IN_SECURE_STATE */
 682:../../STM32Cube_FW_N6/Drivers/STM32N6xx_HAL_Driver/Src/stm32n6xx_hal_cortex.c **** 
 683:../../STM32Cube_FW_N6/Drivers/STM32N6xx_HAL_Driver/Src/stm32n6xx_hal_cortex.c **** /**
 684:../../STM32Cube_FW_N6/Drivers/STM32N6xx_HAL_Driver/Src/stm32n6xx_hal_cortex.c ****   * @brief  Initialize and configure the memory attributes.
 685:../../STM32Cube_FW_N6/Drivers/STM32N6xx_HAL_Driver/Src/stm32n6xx_hal_cortex.c ****   * @param  pMPU_AttributesInit Pointer to a MPU_Attributes_InitTypeDef structure that contains
 686:../../STM32Cube_FW_N6/Drivers/STM32N6xx_HAL_Driver/Src/stm32n6xx_hal_cortex.c ****   *                             the initialization and configuration information.
 687:../../STM32Cube_FW_N6/Drivers/STM32N6xx_HAL_Driver/Src/stm32n6xx_hal_cortex.c ****   * @retval None
 688:../../STM32Cube_FW_N6/Drivers/STM32N6xx_HAL_Driver/Src/stm32n6xx_hal_cortex.c ****   */
 689:../../STM32Cube_FW_N6/Drivers/STM32N6xx_HAL_Driver/Src/stm32n6xx_hal_cortex.c **** void HAL_MPU_ConfigMemoryAttributes(const MPU_Attributes_InitTypeDef *pMPU_AttributesInit)
 690:../../STM32Cube_FW_N6/Drivers/STM32N6xx_HAL_Driver/Src/stm32n6xx_hal_cortex.c **** {
 691:../../STM32Cube_FW_N6/Drivers/STM32N6xx_HAL_Driver/Src/stm32n6xx_hal_cortex.c ****   MPU_ConfigMemoryAttributes(MPU, pMPU_AttributesInit);
 692:../../STM32Cube_FW_N6/Drivers/STM32N6xx_HAL_Driver/Src/stm32n6xx_hal_cortex.c **** }
 693:../../STM32Cube_FW_N6/Drivers/STM32N6xx_HAL_Driver/Src/stm32n6xx_hal_cortex.c **** 
 694:../../STM32Cube_FW_N6/Drivers/STM32N6xx_HAL_Driver/Src/stm32n6xx_hal_cortex.c **** #if defined (CPU_IN_SECURE_STATE)
 695:../../STM32Cube_FW_N6/Drivers/STM32N6xx_HAL_Driver/Src/stm32n6xx_hal_cortex.c **** /**
 696:../../STM32Cube_FW_N6/Drivers/STM32N6xx_HAL_Driver/Src/stm32n6xx_hal_cortex.c ****   * @brief  Initialize and configure the memory attributes for non-secure MPU.
 697:../../STM32Cube_FW_N6/Drivers/STM32N6xx_HAL_Driver/Src/stm32n6xx_hal_cortex.c ****   * @param  pMPU_AttributesInit Pointer to a MPU_Attributes_InitTypeDef structure that contains
ARM GAS  C:\Users\Antonio\AppData\Local\Temp\ccDsuHnY.s 			page 14


 698:../../STM32Cube_FW_N6/Drivers/STM32N6xx_HAL_Driver/Src/stm32n6xx_hal_cortex.c ****   *                             the initialization and configuration information.
 699:../../STM32Cube_FW_N6/Drivers/STM32N6xx_HAL_Driver/Src/stm32n6xx_hal_cortex.c ****   * @retval None
 700:../../STM32Cube_FW_N6/Drivers/STM32N6xx_HAL_Driver/Src/stm32n6xx_hal_cortex.c ****   */
 701:../../STM32Cube_FW_N6/Drivers/STM32N6xx_HAL_Driver/Src/stm32n6xx_hal_cortex.c **** void HAL_MPU_ConfigMemoryAttributes_NS(const MPU_Attributes_InitTypeDef *pMPU_AttributesInit)
 702:../../STM32Cube_FW_N6/Drivers/STM32N6xx_HAL_Driver/Src/stm32n6xx_hal_cortex.c **** {
 703:../../STM32Cube_FW_N6/Drivers/STM32N6xx_HAL_Driver/Src/stm32n6xx_hal_cortex.c ****   MPU_ConfigMemoryAttributes(MPU_NS, pMPU_AttributesInit);
 704:../../STM32Cube_FW_N6/Drivers/STM32N6xx_HAL_Driver/Src/stm32n6xx_hal_cortex.c **** }
 705:../../STM32Cube_FW_N6/Drivers/STM32N6xx_HAL_Driver/Src/stm32n6xx_hal_cortex.c **** #endif /* CPU_IN_SECURE_STATE */
 706:../../STM32Cube_FW_N6/Drivers/STM32N6xx_HAL_Driver/Src/stm32n6xx_hal_cortex.c **** 
 707:../../STM32Cube_FW_N6/Drivers/STM32N6xx_HAL_Driver/Src/stm32n6xx_hal_cortex.c **** /**
 708:../../STM32Cube_FW_N6/Drivers/STM32N6xx_HAL_Driver/Src/stm32n6xx_hal_cortex.c ****   * @}
 709:../../STM32Cube_FW_N6/Drivers/STM32N6xx_HAL_Driver/Src/stm32n6xx_hal_cortex.c ****   */
 710:../../STM32Cube_FW_N6/Drivers/STM32N6xx_HAL_Driver/Src/stm32n6xx_hal_cortex.c **** 
 711:../../STM32Cube_FW_N6/Drivers/STM32N6xx_HAL_Driver/Src/stm32n6xx_hal_cortex.c **** /**
 712:../../STM32Cube_FW_N6/Drivers/STM32N6xx_HAL_Driver/Src/stm32n6xx_hal_cortex.c ****   * @}
 713:../../STM32Cube_FW_N6/Drivers/STM32N6xx_HAL_Driver/Src/stm32n6xx_hal_cortex.c ****   */
 714:../../STM32Cube_FW_N6/Drivers/STM32N6xx_HAL_Driver/Src/stm32n6xx_hal_cortex.c **** 
 715:../../STM32Cube_FW_N6/Drivers/STM32N6xx_HAL_Driver/Src/stm32n6xx_hal_cortex.c **** /** @addtogroup CORTEX_Private_Functions
 716:../../STM32Cube_FW_N6/Drivers/STM32N6xx_HAL_Driver/Src/stm32n6xx_hal_cortex.c ****   * @{
 717:../../STM32Cube_FW_N6/Drivers/STM32N6xx_HAL_Driver/Src/stm32n6xx_hal_cortex.c ****   */
 718:../../STM32Cube_FW_N6/Drivers/STM32N6xx_HAL_Driver/Src/stm32n6xx_hal_cortex.c **** static void MPU_ConfigRegion(MPU_Type *MPUx, const MPU_Region_InitTypeDef *pMPU_RegionInit)
 719:../../STM32Cube_FW_N6/Drivers/STM32N6xx_HAL_Driver/Src/stm32n6xx_hal_cortex.c **** {
  38              		.loc 1 719 1 view -0
  39              		.cfi_startproc
  40              		@ args = 0, pretend = 0, frame = 0
  41              		@ frame_needed = 0, uses_anonymous_args = 0
 720:../../STM32Cube_FW_N6/Drivers/STM32N6xx_HAL_Driver/Src/stm32n6xx_hal_cortex.c ****   /* Check the parameters */
 721:../../STM32Cube_FW_N6/Drivers/STM32N6xx_HAL_Driver/Src/stm32n6xx_hal_cortex.c ****   assert_param(IS_MPU_REGION_NUMBER(pMPU_RegionInit->Number));
  42              		.loc 1 721 3 view .LVU1
 719:../../STM32Cube_FW_N6/Drivers/STM32N6xx_HAL_Driver/Src/stm32n6xx_hal_cortex.c ****   /* Check the parameters */
  43              		.loc 1 719 1 is_stmt 0 view .LVU2
  44 0000 38B5     		push	{r3, r4, r5, lr}
  45              		.cfi_def_cfa_offset 16
  46              		.cfi_offset 3, -16
  47              		.cfi_offset 4, -12
  48              		.cfi_offset 5, -8
  49              		.cfi_offset 14, -4
  50              		.loc 1 721 3 view .LVU3
  51 0002 4B78     		ldrb	r3, [r1, #1]	@ zero_extendqisi2
 719:../../STM32Cube_FW_N6/Drivers/STM32N6xx_HAL_Driver/Src/stm32n6xx_hal_cortex.c ****   /* Check the parameters */
  52              		.loc 1 719 1 view .LVU4
  53 0004 0546     		mov	r5, r0
  54              		.loc 1 721 3 view .LVU5
  55 0006 0F2B     		cmp	r3, #15
 719:../../STM32Cube_FW_N6/Drivers/STM32N6xx_HAL_Driver/Src/stm32n6xx_hal_cortex.c ****   /* Check the parameters */
  56              		.loc 1 719 1 view .LVU6
  57 0008 0C46     		mov	r4, r1
  58              		.loc 1 721 3 view .LVU7
  59 000a 04D9     		bls	.L2
  60              		.loc 1 721 3 discriminator 1 view .LVU8
  61 000c 40F2D121 		movw	r1, #721
  62              	.LVL1:
  63              		.loc 1 721 3 discriminator 1 view .LVU9
  64 0010 2948     		ldr	r0, .L12
  65              	.LVL2:
  66              		.loc 1 721 3 discriminator 1 view .LVU10
  67 0012 FFF7FEFF 		bl	assert_failed
ARM GAS  C:\Users\Antonio\AppData\Local\Temp\ccDsuHnY.s 			page 15


  68              	.LVL3:
  69              	.L2:
 722:../../STM32Cube_FW_N6/Drivers/STM32N6xx_HAL_Driver/Src/stm32n6xx_hal_cortex.c ****   assert_param(IS_MPU_REGION_ENABLE(pMPU_RegionInit->Enable));
  70              		.loc 1 722 3 is_stmt 1 view .LVU11
  71 0016 2378     		ldrb	r3, [r4]	@ zero_extendqisi2
  72 0018 012B     		cmp	r3, #1
  73 001a 04D9     		bls	.L3
  74              		.loc 1 722 3 is_stmt 0 discriminator 1 view .LVU12
  75 001c 40F2D221 		movw	r1, #722
  76 0020 2548     		ldr	r0, .L12
  77 0022 FFF7FEFF 		bl	assert_failed
  78              	.LVL4:
  79              	.L3:
 723:../../STM32Cube_FW_N6/Drivers/STM32N6xx_HAL_Driver/Src/stm32n6xx_hal_cortex.c **** 
 724:../../STM32Cube_FW_N6/Drivers/STM32N6xx_HAL_Driver/Src/stm32n6xx_hal_cortex.c ****   /* Set the Region number */
 725:../../STM32Cube_FW_N6/Drivers/STM32N6xx_HAL_Driver/Src/stm32n6xx_hal_cortex.c ****   MPUx->RNR = pMPU_RegionInit->Number;
  80              		.loc 1 725 3 is_stmt 1 view .LVU13
  81              		.loc 1 725 30 is_stmt 0 view .LVU14
  82 0026 6378     		ldrb	r3, [r4, #1]	@ zero_extendqisi2
  83              		.loc 1 725 13 view .LVU15
  84 0028 AB60     		str	r3, [r5, #8]
 726:../../STM32Cube_FW_N6/Drivers/STM32N6xx_HAL_Driver/Src/stm32n6xx_hal_cortex.c **** 
 727:../../STM32Cube_FW_N6/Drivers/STM32N6xx_HAL_Driver/Src/stm32n6xx_hal_cortex.c ****   /* Disable the Region */
 728:../../STM32Cube_FW_N6/Drivers/STM32N6xx_HAL_Driver/Src/stm32n6xx_hal_cortex.c ****   CLEAR_BIT(MPUx->RLAR, MPU_RLAR_EN_Msk);
  85              		.loc 1 728 3 is_stmt 1 view .LVU16
  86 002a 2B69     		ldr	r3, [r5, #16]
  87 002c 23F00103 		bic	r3, r3, #1
  88 0030 2B61     		str	r3, [r5, #16]
 729:../../STM32Cube_FW_N6/Drivers/STM32N6xx_HAL_Driver/Src/stm32n6xx_hal_cortex.c **** 
 730:../../STM32Cube_FW_N6/Drivers/STM32N6xx_HAL_Driver/Src/stm32n6xx_hal_cortex.c ****   /* Check the parameters */
 731:../../STM32Cube_FW_N6/Drivers/STM32N6xx_HAL_Driver/Src/stm32n6xx_hal_cortex.c ****   assert_param(IS_MPU_INSTRUCTION_ACCESS(pMPU_RegionInit->DisableExec));
  89              		.loc 1 731 3 view .LVU17
  90 0032 637B     		ldrb	r3, [r4, #13]	@ zero_extendqisi2
  91 0034 012B     		cmp	r3, #1
  92 0036 04D9     		bls	.L4
  93              		.loc 1 731 3 is_stmt 0 discriminator 1 view .LVU18
  94 0038 40F2DB21 		movw	r1, #731
  95 003c 1E48     		ldr	r0, .L12
  96 003e FFF7FEFF 		bl	assert_failed
  97              	.LVL5:
  98              	.L4:
 732:../../STM32Cube_FW_N6/Drivers/STM32N6xx_HAL_Driver/Src/stm32n6xx_hal_cortex.c ****   assert_param(IS_MPU_PRIV_INSTRUCTION_ACCESS(pMPU_RegionInit->DisablePrivExec));
  99              		.loc 1 732 3 is_stmt 1 view .LVU19
 100 0042 A37B     		ldrb	r3, [r4, #14]	@ zero_extendqisi2
 101 0044 012B     		cmp	r3, #1
 102 0046 04D9     		bls	.L5
 103              		.loc 1 732 3 is_stmt 0 discriminator 1 view .LVU20
 104 0048 4FF43771 		mov	r1, #732
 105 004c 1A48     		ldr	r0, .L12
 106 004e FFF7FEFF 		bl	assert_failed
 107              	.LVL6:
 108              	.L5:
 733:../../STM32Cube_FW_N6/Drivers/STM32N6xx_HAL_Driver/Src/stm32n6xx_hal_cortex.c ****   assert_param(IS_MPU_REGION_PERMISSION_ATTRIBUTE(pMPU_RegionInit->AccessPermission));
 109              		.loc 1 733 3 is_stmt 1 view .LVU21
 110 0052 237B     		ldrb	r3, [r4, #12]	@ zero_extendqisi2
 111 0054 032B     		cmp	r3, #3
 112 0056 04D9     		bls	.L6
ARM GAS  C:\Users\Antonio\AppData\Local\Temp\ccDsuHnY.s 			page 16


 113              		.loc 1 733 3 is_stmt 0 discriminator 1 view .LVU22
 114 0058 40F2DD21 		movw	r1, #733
 115 005c 1648     		ldr	r0, .L12
 116 005e FFF7FEFF 		bl	assert_failed
 117              	.LVL7:
 118              	.L6:
 734:../../STM32Cube_FW_N6/Drivers/STM32N6xx_HAL_Driver/Src/stm32n6xx_hal_cortex.c ****   assert_param(IS_MPU_ACCESS_SHAREABLE(pMPU_RegionInit->IsShareable));
 119              		.loc 1 734 3 is_stmt 1 view .LVU23
 120 0062 E37B     		ldrb	r3, [r4, #15]	@ zero_extendqisi2
 121 0064 9A1E     		subs	r2, r3, #2
 122 0066 012A     		cmp	r2, #1
 123 0068 05D9     		bls	.L7
 124              		.loc 1 734 3 is_stmt 0 discriminator 1 view .LVU24
 125 006a 23B1     		cbz	r3, .L7
 126              		.loc 1 734 3 discriminator 2 view .LVU25
 127 006c 40F2DE21 		movw	r1, #734
 128 0070 1148     		ldr	r0, .L12
 129 0072 FFF7FEFF 		bl	assert_failed
 130              	.LVL8:
 131              	.L7:
 735:../../STM32Cube_FW_N6/Drivers/STM32N6xx_HAL_Driver/Src/stm32n6xx_hal_cortex.c ****   assert_param(IS_MPU_ATTRIBUTES_NUMBER(pMPU_RegionInit->AttributesIndex));
 132              		.loc 1 735 3 is_stmt 1 view .LVU26
 133 0076 A378     		ldrb	r3, [r4, #2]	@ zero_extendqisi2
 134 0078 072B     		cmp	r3, #7
 135 007a 04D9     		bls	.L8
 136              		.loc 1 735 3 is_stmt 0 discriminator 1 view .LVU27
 137 007c 40F2DF21 		movw	r1, #735
 138 0080 0D48     		ldr	r0, .L12
 139 0082 FFF7FEFF 		bl	assert_failed
 140              	.LVL9:
 141              	.L8:
 736:../../STM32Cube_FW_N6/Drivers/STM32N6xx_HAL_Driver/Src/stm32n6xx_hal_cortex.c **** 
 737:../../STM32Cube_FW_N6/Drivers/STM32N6xx_HAL_Driver/Src/stm32n6xx_hal_cortex.c ****   MPUx->RBAR = (((uint32_t)pMPU_RegionInit->BaseAddress & 0xFFFFFFE0UL)  |
 142              		.loc 1 737 3 is_stmt 1 view .LVU28
 143              		.loc 1 737 57 is_stmt 0 view .LVU29
 144 0086 6368     		ldr	r3, [r4, #4]
 738:../../STM32Cube_FW_N6/Drivers/STM32N6xx_HAL_Driver/Src/stm32n6xx_hal_cortex.c ****                 ((uint32_t)pMPU_RegionInit->IsShareable      << MPU_RBAR_SH_Pos)  |
 739:../../STM32Cube_FW_N6/Drivers/STM32N6xx_HAL_Driver/Src/stm32n6xx_hal_cortex.c ****                 ((uint32_t)pMPU_RegionInit->AccessPermission << MPU_RBAR_AP_Pos)  |
 740:../../STM32Cube_FW_N6/Drivers/STM32N6xx_HAL_Driver/Src/stm32n6xx_hal_cortex.c ****                 ((uint32_t)pMPU_RegionInit->DisableExec      << MPU_RBAR_XN_Pos));
 145              		.loc 1 740 62 view .LVU30
 146 0088 627B     		ldrb	r2, [r4, #13]	@ zero_extendqisi2
 737:../../STM32Cube_FW_N6/Drivers/STM32N6xx_HAL_Driver/Src/stm32n6xx_hal_cortex.c ****                 ((uint32_t)pMPU_RegionInit->IsShareable      << MPU_RBAR_SH_Pos)  |
 147              		.loc 1 737 57 view .LVU31
 148 008a 23F01F03 		bic	r3, r3, #31
 739:../../STM32Cube_FW_N6/Drivers/STM32N6xx_HAL_Driver/Src/stm32n6xx_hal_cortex.c ****                 ((uint32_t)pMPU_RegionInit->DisableExec      << MPU_RBAR_XN_Pos));
 149              		.loc 1 739 83 view .LVU32
 150 008e 1343     		orrs	r3, r3, r2
 738:../../STM32Cube_FW_N6/Drivers/STM32N6xx_HAL_Driver/Src/stm32n6xx_hal_cortex.c ****                 ((uint32_t)pMPU_RegionInit->IsShareable      << MPU_RBAR_SH_Pos)  |
 151              		.loc 1 738 18 view .LVU33
 152 0090 E27B     		ldrb	r2, [r4, #15]	@ zero_extendqisi2
 739:../../STM32Cube_FW_N6/Drivers/STM32N6xx_HAL_Driver/Src/stm32n6xx_hal_cortex.c ****                 ((uint32_t)pMPU_RegionInit->DisableExec      << MPU_RBAR_XN_Pos));
 153              		.loc 1 739 83 view .LVU34
 154 0092 43EAC203 		orr	r3, r3, r2, lsl #3
 739:../../STM32Cube_FW_N6/Drivers/STM32N6xx_HAL_Driver/Src/stm32n6xx_hal_cortex.c ****                 ((uint32_t)pMPU_RegionInit->DisableExec      << MPU_RBAR_XN_Pos));
 155              		.loc 1 739 18 view .LVU35
 156 0096 227B     		ldrb	r2, [r4, #12]	@ zero_extendqisi2
 739:../../STM32Cube_FW_N6/Drivers/STM32N6xx_HAL_Driver/Src/stm32n6xx_hal_cortex.c ****                 ((uint32_t)pMPU_RegionInit->DisableExec      << MPU_RBAR_XN_Pos));
ARM GAS  C:\Users\Antonio\AppData\Local\Temp\ccDsuHnY.s 			page 17


 157              		.loc 1 739 83 view .LVU36
 158 0098 43EA4203 		orr	r3, r3, r2, lsl #1
 737:../../STM32Cube_FW_N6/Drivers/STM32N6xx_HAL_Driver/Src/stm32n6xx_hal_cortex.c ****                 ((uint32_t)pMPU_RegionInit->IsShareable      << MPU_RBAR_SH_Pos)  |
 159              		.loc 1 737 14 view .LVU37
 160 009c EB60     		str	r3, [r5, #12]
 741:../../STM32Cube_FW_N6/Drivers/STM32N6xx_HAL_Driver/Src/stm32n6xx_hal_cortex.c **** 
 742:../../STM32Cube_FW_N6/Drivers/STM32N6xx_HAL_Driver/Src/stm32n6xx_hal_cortex.c ****   MPUx->RLAR = (((uint32_t)pMPU_RegionInit->LimitAddress & 0xFFFFFFE0UL) |
 161              		.loc 1 742 3 is_stmt 1 view .LVU38
 162              		.loc 1 742 58 is_stmt 0 view .LVU39
 163 009e A368     		ldr	r3, [r4, #8]
 743:../../STM32Cube_FW_N6/Drivers/STM32N6xx_HAL_Driver/Src/stm32n6xx_hal_cortex.c ****                 ((uint32_t)pMPU_RegionInit->DisablePrivExec << MPU_RLAR_PXN_Pos) |
 744:../../STM32Cube_FW_N6/Drivers/STM32N6xx_HAL_Driver/Src/stm32n6xx_hal_cortex.c ****                 ((uint32_t)pMPU_RegionInit->AttributesIndex  << MPU_RLAR_AttrIndx_Pos) |
 745:../../STM32Cube_FW_N6/Drivers/STM32N6xx_HAL_Driver/Src/stm32n6xx_hal_cortex.c ****                 ((uint32_t)pMPU_RegionInit->Enable           << MPU_RLAR_EN_Pos));
 164              		.loc 1 745 62 view .LVU40
 165 00a0 2278     		ldrb	r2, [r4]	@ zero_extendqisi2
 742:../../STM32Cube_FW_N6/Drivers/STM32N6xx_HAL_Driver/Src/stm32n6xx_hal_cortex.c ****                 ((uint32_t)pMPU_RegionInit->DisablePrivExec << MPU_RLAR_PXN_Pos) |
 166              		.loc 1 742 58 view .LVU41
 167 00a2 23F01F03 		bic	r3, r3, #31
 744:../../STM32Cube_FW_N6/Drivers/STM32N6xx_HAL_Driver/Src/stm32n6xx_hal_cortex.c ****                 ((uint32_t)pMPU_RegionInit->Enable           << MPU_RLAR_EN_Pos));
 168              		.loc 1 744 88 view .LVU42
 169 00a6 1343     		orrs	r3, r3, r2
 743:../../STM32Cube_FW_N6/Drivers/STM32N6xx_HAL_Driver/Src/stm32n6xx_hal_cortex.c ****                 ((uint32_t)pMPU_RegionInit->DisablePrivExec << MPU_RLAR_PXN_Pos) |
 170              		.loc 1 743 18 view .LVU43
 171 00a8 A27B     		ldrb	r2, [r4, #14]	@ zero_extendqisi2
 744:../../STM32Cube_FW_N6/Drivers/STM32N6xx_HAL_Driver/Src/stm32n6xx_hal_cortex.c ****                 ((uint32_t)pMPU_RegionInit->Enable           << MPU_RLAR_EN_Pos));
 172              		.loc 1 744 88 view .LVU44
 173 00aa 43EA0213 		orr	r3, r3, r2, lsl #4
 744:../../STM32Cube_FW_N6/Drivers/STM32N6xx_HAL_Driver/Src/stm32n6xx_hal_cortex.c ****                 ((uint32_t)pMPU_RegionInit->Enable           << MPU_RLAR_EN_Pos));
 174              		.loc 1 744 18 view .LVU45
 175 00ae A278     		ldrb	r2, [r4, #2]	@ zero_extendqisi2
 744:../../STM32Cube_FW_N6/Drivers/STM32N6xx_HAL_Driver/Src/stm32n6xx_hal_cortex.c ****                 ((uint32_t)pMPU_RegionInit->Enable           << MPU_RLAR_EN_Pos));
 176              		.loc 1 744 88 view .LVU46
 177 00b0 43EA4203 		orr	r3, r3, r2, lsl #1
 742:../../STM32Cube_FW_N6/Drivers/STM32N6xx_HAL_Driver/Src/stm32n6xx_hal_cortex.c ****                 ((uint32_t)pMPU_RegionInit->DisablePrivExec << MPU_RLAR_PXN_Pos) |
 178              		.loc 1 742 14 view .LVU47
 179 00b4 2B61     		str	r3, [r5, #16]
 746:../../STM32Cube_FW_N6/Drivers/STM32N6xx_HAL_Driver/Src/stm32n6xx_hal_cortex.c **** }
 180              		.loc 1 746 1 view .LVU48
 181 00b6 38BD     		pop	{r3, r4, r5, pc}
 182              	.LVL10:
 183              	.L13:
 184              		.loc 1 746 1 view .LVU49
 185              		.align	2
 186              	.L12:
 187 00b8 00000000 		.word	.LC0
 188              		.cfi_endproc
 189              	.LFE863:
 191              		.section	.text.MPU_ConfigMemoryAttributes,"ax",%progbits
 192              		.align	1
 193              		.syntax unified
 194              		.thumb
 195              		.thumb_func
 197              	MPU_ConfigMemoryAttributes:
 198              	.LVL11:
 199              	.LFB864:
 747:../../STM32Cube_FW_N6/Drivers/STM32N6xx_HAL_Driver/Src/stm32n6xx_hal_cortex.c **** 
 748:../../STM32Cube_FW_N6/Drivers/STM32N6xx_HAL_Driver/Src/stm32n6xx_hal_cortex.c **** static void MPU_ConfigMemoryAttributes(MPU_Type *MPUx, const MPU_Attributes_InitTypeDef *pMPU_Attri
ARM GAS  C:\Users\Antonio\AppData\Local\Temp\ccDsuHnY.s 			page 18


 749:../../STM32Cube_FW_N6/Drivers/STM32N6xx_HAL_Driver/Src/stm32n6xx_hal_cortex.c **** {
 200              		.loc 1 749 1 is_stmt 1 view -0
 201              		.cfi_startproc
 202              		@ args = 0, pretend = 0, frame = 0
 203              		@ frame_needed = 0, uses_anonymous_args = 0
 750:../../STM32Cube_FW_N6/Drivers/STM32N6xx_HAL_Driver/Src/stm32n6xx_hal_cortex.c ****   __IO uint32_t *p_mair;
 204              		.loc 1 750 3 view .LVU51
 751:../../STM32Cube_FW_N6/Drivers/STM32N6xx_HAL_Driver/Src/stm32n6xx_hal_cortex.c ****   uint32_t      attr_values;
 205              		.loc 1 751 3 view .LVU52
 752:../../STM32Cube_FW_N6/Drivers/STM32N6xx_HAL_Driver/Src/stm32n6xx_hal_cortex.c ****   uint32_t      attr_number;
 206              		.loc 1 752 3 view .LVU53
 753:../../STM32Cube_FW_N6/Drivers/STM32N6xx_HAL_Driver/Src/stm32n6xx_hal_cortex.c **** 
 754:../../STM32Cube_FW_N6/Drivers/STM32N6xx_HAL_Driver/Src/stm32n6xx_hal_cortex.c ****   /* Check the parameters */
 755:../../STM32Cube_FW_N6/Drivers/STM32N6xx_HAL_Driver/Src/stm32n6xx_hal_cortex.c ****   assert_param(IS_MPU_ATTRIBUTES_NUMBER(pMPU_AttributesInit->Number));
 207              		.loc 1 755 3 view .LVU54
 749:../../STM32Cube_FW_N6/Drivers/STM32N6xx_HAL_Driver/Src/stm32n6xx_hal_cortex.c ****   __IO uint32_t *p_mair;
 208              		.loc 1 749 1 is_stmt 0 view .LVU55
 209 0000 38B5     		push	{r3, r4, r5, lr}
 210              		.cfi_def_cfa_offset 16
 211              		.cfi_offset 3, -16
 212              		.cfi_offset 4, -12
 213              		.cfi_offset 5, -8
 214              		.cfi_offset 14, -4
 215              		.loc 1 755 3 view .LVU56
 216 0002 0B78     		ldrb	r3, [r1]	@ zero_extendqisi2
 749:../../STM32Cube_FW_N6/Drivers/STM32N6xx_HAL_Driver/Src/stm32n6xx_hal_cortex.c ****   __IO uint32_t *p_mair;
 217              		.loc 1 749 1 view .LVU57
 218 0004 0446     		mov	r4, r0
 219              		.loc 1 755 3 view .LVU58
 220 0006 072B     		cmp	r3, #7
 749:../../STM32Cube_FW_N6/Drivers/STM32N6xx_HAL_Driver/Src/stm32n6xx_hal_cortex.c ****   __IO uint32_t *p_mair;
 221              		.loc 1 749 1 view .LVU59
 222 0008 0D46     		mov	r5, r1
 223              		.loc 1 755 3 view .LVU60
 224 000a 04D9     		bls	.L15
 225              		.loc 1 755 3 discriminator 1 view .LVU61
 226 000c 40F2F321 		movw	r1, #755
 227              	.LVL12:
 228              		.loc 1 755 3 discriminator 1 view .LVU62
 229 0010 0B48     		ldr	r0, .L18
 230              	.LVL13:
 231              		.loc 1 755 3 discriminator 1 view .LVU63
 232 0012 FFF7FEFF 		bl	assert_failed
 233              	.LVL14:
 234              	.L15:
 756:../../STM32Cube_FW_N6/Drivers/STM32N6xx_HAL_Driver/Src/stm32n6xx_hal_cortex.c ****   /* No need to check Attributes value as all 0x0..0xFF possible */
 757:../../STM32Cube_FW_N6/Drivers/STM32N6xx_HAL_Driver/Src/stm32n6xx_hal_cortex.c **** 
 758:../../STM32Cube_FW_N6/Drivers/STM32N6xx_HAL_Driver/Src/stm32n6xx_hal_cortex.c ****   if (pMPU_AttributesInit->Number < MPU_ATTRIBUTES_NUMBER4)
 235              		.loc 1 758 3 is_stmt 1 view .LVU64
 759:../../STM32Cube_FW_N6/Drivers/STM32N6xx_HAL_Driver/Src/stm32n6xx_hal_cortex.c ****   {
 760:../../STM32Cube_FW_N6/Drivers/STM32N6xx_HAL_Driver/Src/stm32n6xx_hal_cortex.c ****     /* Program MPU_MAIR0 */
 761:../../STM32Cube_FW_N6/Drivers/STM32N6xx_HAL_Driver/Src/stm32n6xx_hal_cortex.c ****     p_mair = &(MPUx->MAIR0);
 762:../../STM32Cube_FW_N6/Drivers/STM32N6xx_HAL_Driver/Src/stm32n6xx_hal_cortex.c ****     attr_number = pMPU_AttributesInit->Number;
 763:../../STM32Cube_FW_N6/Drivers/STM32N6xx_HAL_Driver/Src/stm32n6xx_hal_cortex.c ****   }
 764:../../STM32Cube_FW_N6/Drivers/STM32N6xx_HAL_Driver/Src/stm32n6xx_hal_cortex.c ****   else
 765:../../STM32Cube_FW_N6/Drivers/STM32N6xx_HAL_Driver/Src/stm32n6xx_hal_cortex.c ****   {
 766:../../STM32Cube_FW_N6/Drivers/STM32N6xx_HAL_Driver/Src/stm32n6xx_hal_cortex.c ****     /* Program MPU_MAIR1 */
ARM GAS  C:\Users\Antonio\AppData\Local\Temp\ccDsuHnY.s 			page 19


 767:../../STM32Cube_FW_N6/Drivers/STM32N6xx_HAL_Driver/Src/stm32n6xx_hal_cortex.c ****     p_mair = &(MPUx->MAIR1);
 768:../../STM32Cube_FW_N6/Drivers/STM32N6xx_HAL_Driver/Src/stm32n6xx_hal_cortex.c ****     attr_number = (uint32_t)pMPU_AttributesInit->Number - 4U;
 769:../../STM32Cube_FW_N6/Drivers/STM32N6xx_HAL_Driver/Src/stm32n6xx_hal_cortex.c ****   }
 770:../../STM32Cube_FW_N6/Drivers/STM32N6xx_HAL_Driver/Src/stm32n6xx_hal_cortex.c **** 
 771:../../STM32Cube_FW_N6/Drivers/STM32N6xx_HAL_Driver/Src/stm32n6xx_hal_cortex.c ****   attr_values = *(p_mair);
 772:../../STM32Cube_FW_N6/Drivers/STM32N6xx_HAL_Driver/Src/stm32n6xx_hal_cortex.c ****   attr_values &=  ~(0xFFU << (attr_number * 8U));
 236              		.loc 1 772 27 is_stmt 0 view .LVU65
 237 0016 FF21     		movs	r1, #255
 758:../../STM32Cube_FW_N6/Drivers/STM32N6xx_HAL_Driver/Src/stm32n6xx_hal_cortex.c ****   {
 238              		.loc 1 758 26 view .LVU66
 239 0018 2B78     		ldrb	r3, [r5]	@ zero_extendqisi2
 758:../../STM32Cube_FW_N6/Drivers/STM32N6xx_HAL_Driver/Src/stm32n6xx_hal_cortex.c ****   {
 240              		.loc 1 758 6 view .LVU67
 241 001a 032B     		cmp	r3, #3
 761:../../STM32Cube_FW_N6/Drivers/STM32N6xx_HAL_Driver/Src/stm32n6xx_hal_cortex.c ****     attr_number = pMPU_AttributesInit->Number;
 242              		.loc 1 761 5 is_stmt 1 view .LVU68
 761:../../STM32Cube_FW_N6/Drivers/STM32N6xx_HAL_Driver/Src/stm32n6xx_hal_cortex.c ****     attr_number = pMPU_AttributesInit->Number;
 243              		.loc 1 761 12 is_stmt 0 view .LVU69
 244 001c 92BF     		itee	ls
 245 001e 04F13000 		addls	r0, r4, #48
 246              	.LVL15:
 762:../../STM32Cube_FW_N6/Drivers/STM32N6xx_HAL_Driver/Src/stm32n6xx_hal_cortex.c ****   }
 247              		.loc 1 762 5 is_stmt 1 view .LVU70
 767:../../STM32Cube_FW_N6/Drivers/STM32N6xx_HAL_Driver/Src/stm32n6xx_hal_cortex.c ****     attr_number = (uint32_t)pMPU_AttributesInit->Number - 4U;
 248              		.loc 1 767 5 view .LVU71
 767:../../STM32Cube_FW_N6/Drivers/STM32N6xx_HAL_Driver/Src/stm32n6xx_hal_cortex.c ****     attr_number = (uint32_t)pMPU_AttributesInit->Number - 4U;
 249              		.loc 1 767 12 is_stmt 0 view .LVU72
 250 0022 04F13400 		addhi	r0, r4, #52
 251              	.LVL16:
 768:../../STM32Cube_FW_N6/Drivers/STM32N6xx_HAL_Driver/Src/stm32n6xx_hal_cortex.c ****   }
 252              		.loc 1 768 5 is_stmt 1 view .LVU73
 768:../../STM32Cube_FW_N6/Drivers/STM32N6xx_HAL_Driver/Src/stm32n6xx_hal_cortex.c ****   }
 253              		.loc 1 768 17 is_stmt 0 view .LVU74
 254 0026 043B     		subhi	r3, r3, #4
 255              	.LVL17:
 771:../../STM32Cube_FW_N6/Drivers/STM32N6xx_HAL_Driver/Src/stm32n6xx_hal_cortex.c ****   attr_values &=  ~(0xFFU << (attr_number * 8U));
 256              		.loc 1 771 3 is_stmt 1 view .LVU75
 771:../../STM32Cube_FW_N6/Drivers/STM32N6xx_HAL_Driver/Src/stm32n6xx_hal_cortex.c ****   attr_values &=  ~(0xFFU << (attr_number * 8U));
 257              		.loc 1 771 15 is_stmt 0 view .LVU76
 258 0028 0268     		ldr	r2, [r0]
 259              	.LVL18:
 260              		.loc 1 772 3 is_stmt 1 view .LVU77
 261              		.loc 1 772 43 is_stmt 0 view .LVU78
 262 002a DB00     		lsls	r3, r3, #3
 263              	.LVL19:
 773:../../STM32Cube_FW_N6/Drivers/STM32N6xx_HAL_Driver/Src/stm32n6xx_hal_cortex.c ****   *(p_mair) = attr_values | ((uint32_t)pMPU_AttributesInit->Attributes << (attr_number * 8U));
 264              		.loc 1 773 3 is_stmt 1 view .LVU79
 772:../../STM32Cube_FW_N6/Drivers/STM32N6xx_HAL_Driver/Src/stm32n6xx_hal_cortex.c ****   *(p_mair) = attr_values | ((uint32_t)pMPU_AttributesInit->Attributes << (attr_number * 8U));
 265              		.loc 1 772 27 is_stmt 0 view .LVU80
 266 002c 9940     		lsls	r1, r1, r3
 772:../../STM32Cube_FW_N6/Drivers/STM32N6xx_HAL_Driver/Src/stm32n6xx_hal_cortex.c ****   *(p_mair) = attr_values | ((uint32_t)pMPU_AttributesInit->Attributes << (attr_number * 8U));
 267              		.loc 1 772 15 view .LVU81
 268 002e 22EA0102 		bic	r2, r2, r1
 269              	.LVL20:
 270              		.loc 1 773 30 view .LVU82
 271 0032 6978     		ldrb	r1, [r5, #1]	@ zero_extendqisi2
 272              		.loc 1 773 72 view .LVU83
ARM GAS  C:\Users\Antonio\AppData\Local\Temp\ccDsuHnY.s 			page 20


 273 0034 01FA03F3 		lsl	r3, r1, r3
 274              		.loc 1 773 27 view .LVU84
 275 0038 1343     		orrs	r3, r3, r2
 276              		.loc 1 773 13 view .LVU85
 277 003a 0360     		str	r3, [r0]
 278              	.LVL21:
 774:../../STM32Cube_FW_N6/Drivers/STM32N6xx_HAL_Driver/Src/stm32n6xx_hal_cortex.c **** }
 279              		.loc 1 774 1 view .LVU86
 280 003c 38BD     		pop	{r3, r4, r5, pc}
 281              	.LVL22:
 282              	.L19:
 283              		.loc 1 774 1 view .LVU87
 284 003e 00BF     		.align	2
 285              	.L18:
 286 0040 00000000 		.word	.LC0
 287              		.cfi_endproc
 288              	.LFE864:
 290              		.section	.text.HAL_NVIC_SetPriorityGrouping,"ax",%progbits
 291              		.align	1
 292              		.global	HAL_NVIC_SetPriorityGrouping
 293              		.syntax unified
 294              		.thumb
 295              		.thumb_func
 297              	HAL_NVIC_SetPriorityGrouping:
 298              	.LVL23:
 299              	.LFB835:
 228:../../STM32Cube_FW_N6/Drivers/STM32N6xx_HAL_Driver/Src/stm32n6xx_hal_cortex.c ****   /* Check the parameters */
 300              		.loc 1 228 1 is_stmt 1 view -0
 301              		.cfi_startproc
 302              		@ args = 0, pretend = 0, frame = 0
 303              		@ frame_needed = 0, uses_anonymous_args = 0
 230:../../STM32Cube_FW_N6/Drivers/STM32N6xx_HAL_Driver/Src/stm32n6xx_hal_cortex.c **** 
 304              		.loc 1 230 3 view .LVU89
 305 0000 C31E     		subs	r3, r0, #3
 306 0002 042B     		cmp	r3, #4
 228:../../STM32Cube_FW_N6/Drivers/STM32N6xx_HAL_Driver/Src/stm32n6xx_hal_cortex.c ****   /* Check the parameters */
 307              		.loc 1 228 1 is_stmt 0 view .LVU90
 308 0004 10B5     		push	{r4, lr}
 309              		.cfi_def_cfa_offset 8
 310              		.cfi_offset 4, -8
 311              		.cfi_offset 14, -4
 228:../../STM32Cube_FW_N6/Drivers/STM32N6xx_HAL_Driver/Src/stm32n6xx_hal_cortex.c ****   /* Check the parameters */
 312              		.loc 1 228 1 view .LVU91
 313 0006 0446     		mov	r4, r0
 230:../../STM32Cube_FW_N6/Drivers/STM32N6xx_HAL_Driver/Src/stm32n6xx_hal_cortex.c **** 
 314              		.loc 1 230 3 view .LVU92
 315 0008 03D9     		bls	.L21
 230:../../STM32Cube_FW_N6/Drivers/STM32N6xx_HAL_Driver/Src/stm32n6xx_hal_cortex.c **** 
 316              		.loc 1 230 3 discriminator 1 view .LVU93
 317 000a E621     		movs	r1, #230
 318 000c 0948     		ldr	r0, .L22
 319              	.LVL24:
 230:../../STM32Cube_FW_N6/Drivers/STM32N6xx_HAL_Driver/Src/stm32n6xx_hal_cortex.c **** 
 320              		.loc 1 230 3 discriminator 1 view .LVU94
 321 000e FFF7FEFF 		bl	assert_failed
 322              	.LVL25:
 323              	.L21:
ARM GAS  C:\Users\Antonio\AppData\Local\Temp\ccDsuHnY.s 			page 21


 233:../../STM32Cube_FW_N6/Drivers/STM32N6xx_HAL_Driver/Src/stm32n6xx_hal_cortex.c **** }
 324              		.loc 1 233 3 is_stmt 1 view .LVU95
 325              	.LBB38:
 326              	.LBI38:
 327              		.file 2 "../../STM32Cube_FW_N6/Drivers/CMSIS/Include/core_cm55.h"
   1:../../STM32Cube_FW_N6/Drivers/CMSIS/Include/core_cm55.h **** /**************************************************************************//**
   2:../../STM32Cube_FW_N6/Drivers/CMSIS/Include/core_cm55.h ****  * @file     core_cm55.h
   3:../../STM32Cube_FW_N6/Drivers/CMSIS/Include/core_cm55.h ****  * @brief    CMSIS Cortex-M55 Core Peripheral Access Layer Header File
   4:../../STM32Cube_FW_N6/Drivers/CMSIS/Include/core_cm55.h ****  * @version  V1.2.4
   5:../../STM32Cube_FW_N6/Drivers/CMSIS/Include/core_cm55.h ****  * @date     21. April 2022
   6:../../STM32Cube_FW_N6/Drivers/CMSIS/Include/core_cm55.h ****  ******************************************************************************/
   7:../../STM32Cube_FW_N6/Drivers/CMSIS/Include/core_cm55.h **** /*
   8:../../STM32Cube_FW_N6/Drivers/CMSIS/Include/core_cm55.h ****  * Copyright (c) 2018-2022 Arm Limited. All rights reserved.
   9:../../STM32Cube_FW_N6/Drivers/CMSIS/Include/core_cm55.h ****  *
  10:../../STM32Cube_FW_N6/Drivers/CMSIS/Include/core_cm55.h ****  * SPDX-License-Identifier: Apache-2.0
  11:../../STM32Cube_FW_N6/Drivers/CMSIS/Include/core_cm55.h ****  *
  12:../../STM32Cube_FW_N6/Drivers/CMSIS/Include/core_cm55.h ****  * Licensed under the Apache License, Version 2.0 (the License); you may
  13:../../STM32Cube_FW_N6/Drivers/CMSIS/Include/core_cm55.h ****  * not use this file except in compliance with the License.
  14:../../STM32Cube_FW_N6/Drivers/CMSIS/Include/core_cm55.h ****  * You may obtain a copy of the License at
  15:../../STM32Cube_FW_N6/Drivers/CMSIS/Include/core_cm55.h ****  *
  16:../../STM32Cube_FW_N6/Drivers/CMSIS/Include/core_cm55.h ****  * www.apache.org/licenses/LICENSE-2.0
  17:../../STM32Cube_FW_N6/Drivers/CMSIS/Include/core_cm55.h ****  *
  18:../../STM32Cube_FW_N6/Drivers/CMSIS/Include/core_cm55.h ****  * Unless required by applicable law or agreed to in writing, software
  19:../../STM32Cube_FW_N6/Drivers/CMSIS/Include/core_cm55.h ****  * distributed under the License is distributed on an AS IS BASIS, WITHOUT
  20:../../STM32Cube_FW_N6/Drivers/CMSIS/Include/core_cm55.h ****  * WARRANTIES OR CONDITIONS OF ANY KIND, either express or implied.
  21:../../STM32Cube_FW_N6/Drivers/CMSIS/Include/core_cm55.h ****  * See the License for the specific language governing permissions and
  22:../../STM32Cube_FW_N6/Drivers/CMSIS/Include/core_cm55.h ****  * limitations under the License.
  23:../../STM32Cube_FW_N6/Drivers/CMSIS/Include/core_cm55.h ****  */
  24:../../STM32Cube_FW_N6/Drivers/CMSIS/Include/core_cm55.h **** 
  25:../../STM32Cube_FW_N6/Drivers/CMSIS/Include/core_cm55.h **** #if   defined ( __ICCARM__ )
  26:../../STM32Cube_FW_N6/Drivers/CMSIS/Include/core_cm55.h ****   #pragma system_include                        /* treat file as system include file for MISRA chec
  27:../../STM32Cube_FW_N6/Drivers/CMSIS/Include/core_cm55.h **** #elif defined (__clang__)
  28:../../STM32Cube_FW_N6/Drivers/CMSIS/Include/core_cm55.h ****   #pragma clang system_header                   /* treat file as system include file */
  29:../../STM32Cube_FW_N6/Drivers/CMSIS/Include/core_cm55.h **** #elif defined ( __GNUC__ )
  30:../../STM32Cube_FW_N6/Drivers/CMSIS/Include/core_cm55.h ****   #pragma GCC diagnostic ignored "-Wpedantic"   /* disable pedantic warning due to unnamed structs/
  31:../../STM32Cube_FW_N6/Drivers/CMSIS/Include/core_cm55.h **** #endif
  32:../../STM32Cube_FW_N6/Drivers/CMSIS/Include/core_cm55.h **** 
  33:../../STM32Cube_FW_N6/Drivers/CMSIS/Include/core_cm55.h **** #ifndef __CORE_CM55_H_GENERIC
  34:../../STM32Cube_FW_N6/Drivers/CMSIS/Include/core_cm55.h **** #define __CORE_CM55_H_GENERIC
  35:../../STM32Cube_FW_N6/Drivers/CMSIS/Include/core_cm55.h **** 
  36:../../STM32Cube_FW_N6/Drivers/CMSIS/Include/core_cm55.h **** #include <stdint.h>
  37:../../STM32Cube_FW_N6/Drivers/CMSIS/Include/core_cm55.h **** 
  38:../../STM32Cube_FW_N6/Drivers/CMSIS/Include/core_cm55.h **** #ifdef __cplusplus
  39:../../STM32Cube_FW_N6/Drivers/CMSIS/Include/core_cm55.h ****  extern "C" {
  40:../../STM32Cube_FW_N6/Drivers/CMSIS/Include/core_cm55.h **** #endif
  41:../../STM32Cube_FW_N6/Drivers/CMSIS/Include/core_cm55.h **** 
  42:../../STM32Cube_FW_N6/Drivers/CMSIS/Include/core_cm55.h **** /**
  43:../../STM32Cube_FW_N6/Drivers/CMSIS/Include/core_cm55.h ****   \page CMSIS_MISRA_Exceptions  MISRA-C:2004 Compliance Exceptions
  44:../../STM32Cube_FW_N6/Drivers/CMSIS/Include/core_cm55.h ****   CMSIS violates the following MISRA-C:2004 rules:
  45:../../STM32Cube_FW_N6/Drivers/CMSIS/Include/core_cm55.h **** 
  46:../../STM32Cube_FW_N6/Drivers/CMSIS/Include/core_cm55.h ****    \li Required Rule 8.5, object/function definition in header file.<br>
  47:../../STM32Cube_FW_N6/Drivers/CMSIS/Include/core_cm55.h ****      Function definitions in header files are used to allow 'inlining'.
  48:../../STM32Cube_FW_N6/Drivers/CMSIS/Include/core_cm55.h **** 
  49:../../STM32Cube_FW_N6/Drivers/CMSIS/Include/core_cm55.h ****    \li Required Rule 18.4, declaration of union type or object of union type: '{...}'.<br>
  50:../../STM32Cube_FW_N6/Drivers/CMSIS/Include/core_cm55.h ****      Unions are used for effective representation of core registers.
  51:../../STM32Cube_FW_N6/Drivers/CMSIS/Include/core_cm55.h **** 
  52:../../STM32Cube_FW_N6/Drivers/CMSIS/Include/core_cm55.h ****    \li Advisory Rule 19.7, Function-like macro defined.<br>
ARM GAS  C:\Users\Antonio\AppData\Local\Temp\ccDsuHnY.s 			page 22


  53:../../STM32Cube_FW_N6/Drivers/CMSIS/Include/core_cm55.h ****      Function-like macros are used to allow more efficient code.
  54:../../STM32Cube_FW_N6/Drivers/CMSIS/Include/core_cm55.h ****  */
  55:../../STM32Cube_FW_N6/Drivers/CMSIS/Include/core_cm55.h **** 
  56:../../STM32Cube_FW_N6/Drivers/CMSIS/Include/core_cm55.h **** 
  57:../../STM32Cube_FW_N6/Drivers/CMSIS/Include/core_cm55.h **** /*******************************************************************************
  58:../../STM32Cube_FW_N6/Drivers/CMSIS/Include/core_cm55.h ****  *                 CMSIS definitions
  59:../../STM32Cube_FW_N6/Drivers/CMSIS/Include/core_cm55.h ****  ******************************************************************************/
  60:../../STM32Cube_FW_N6/Drivers/CMSIS/Include/core_cm55.h **** /**
  61:../../STM32Cube_FW_N6/Drivers/CMSIS/Include/core_cm55.h ****   \ingroup Cortex_M55
  62:../../STM32Cube_FW_N6/Drivers/CMSIS/Include/core_cm55.h ****   @{
  63:../../STM32Cube_FW_N6/Drivers/CMSIS/Include/core_cm55.h ****  */
  64:../../STM32Cube_FW_N6/Drivers/CMSIS/Include/core_cm55.h **** 
  65:../../STM32Cube_FW_N6/Drivers/CMSIS/Include/core_cm55.h **** #include "cmsis_version.h"
  66:../../STM32Cube_FW_N6/Drivers/CMSIS/Include/core_cm55.h **** 
  67:../../STM32Cube_FW_N6/Drivers/CMSIS/Include/core_cm55.h **** /*  CMSIS CM55 definitions */
  68:../../STM32Cube_FW_N6/Drivers/CMSIS/Include/core_cm55.h **** #define __CM55_CMSIS_VERSION_MAIN  (__CM_CMSIS_VERSION_MAIN)                  /*!< \deprecated [31:
  69:../../STM32Cube_FW_N6/Drivers/CMSIS/Include/core_cm55.h **** #define __CM55_CMSIS_VERSION_SUB   (__CM_CMSIS_VERSION_SUB)                   /*!< \deprecated [15:
  70:../../STM32Cube_FW_N6/Drivers/CMSIS/Include/core_cm55.h **** #define __CM55_CMSIS_VERSION       ((__CM55_CMSIS_VERSION_MAIN << 16U) | \
  71:../../STM32Cube_FW_N6/Drivers/CMSIS/Include/core_cm55.h ****                                      __CM55_CMSIS_VERSION_SUB           )     /*!< \deprecated CMSI
  72:../../STM32Cube_FW_N6/Drivers/CMSIS/Include/core_cm55.h **** 
  73:../../STM32Cube_FW_N6/Drivers/CMSIS/Include/core_cm55.h **** #define __CORTEX_M                      (55U)                                 /*!< Cortex-M Core */
  74:../../STM32Cube_FW_N6/Drivers/CMSIS/Include/core_cm55.h **** 
  75:../../STM32Cube_FW_N6/Drivers/CMSIS/Include/core_cm55.h **** #if defined ( __CC_ARM )
  76:../../STM32Cube_FW_N6/Drivers/CMSIS/Include/core_cm55.h ****   #error Legacy Arm Compiler does not support Armv8.1-M target architecture.
  77:../../STM32Cube_FW_N6/Drivers/CMSIS/Include/core_cm55.h **** #elif defined (__ARMCC_VERSION) && (__ARMCC_VERSION >= 6010050)
  78:../../STM32Cube_FW_N6/Drivers/CMSIS/Include/core_cm55.h ****   #if defined __ARM_FP
  79:../../STM32Cube_FW_N6/Drivers/CMSIS/Include/core_cm55.h ****     #if defined (__FPU_PRESENT) && (__FPU_PRESENT == 1U)
  80:../../STM32Cube_FW_N6/Drivers/CMSIS/Include/core_cm55.h ****       #define __FPU_USED       1U
  81:../../STM32Cube_FW_N6/Drivers/CMSIS/Include/core_cm55.h ****     #else
  82:../../STM32Cube_FW_N6/Drivers/CMSIS/Include/core_cm55.h ****       #error "Compiler generates FPU instructions for a device without an FPU (check __FPU_PRESENT)
  83:../../STM32Cube_FW_N6/Drivers/CMSIS/Include/core_cm55.h ****       #define __FPU_USED       0U
  84:../../STM32Cube_FW_N6/Drivers/CMSIS/Include/core_cm55.h ****     #endif
  85:../../STM32Cube_FW_N6/Drivers/CMSIS/Include/core_cm55.h ****   #else
  86:../../STM32Cube_FW_N6/Drivers/CMSIS/Include/core_cm55.h ****     #define __FPU_USED         0U
  87:../../STM32Cube_FW_N6/Drivers/CMSIS/Include/core_cm55.h ****   #endif
  88:../../STM32Cube_FW_N6/Drivers/CMSIS/Include/core_cm55.h **** 
  89:../../STM32Cube_FW_N6/Drivers/CMSIS/Include/core_cm55.h ****   #if defined(__ARM_FEATURE_DSP)
  90:../../STM32Cube_FW_N6/Drivers/CMSIS/Include/core_cm55.h ****     #if defined(__DSP_PRESENT) && (__DSP_PRESENT == 1U)
  91:../../STM32Cube_FW_N6/Drivers/CMSIS/Include/core_cm55.h ****       #define __DSP_USED       1U
  92:../../STM32Cube_FW_N6/Drivers/CMSIS/Include/core_cm55.h ****     #else
  93:../../STM32Cube_FW_N6/Drivers/CMSIS/Include/core_cm55.h ****       #error "Compiler generates DSP (SIMD) instructions for a devices without DSP extensions (chec
  94:../../STM32Cube_FW_N6/Drivers/CMSIS/Include/core_cm55.h ****       #define __DSP_USED       0U
  95:../../STM32Cube_FW_N6/Drivers/CMSIS/Include/core_cm55.h ****     #endif
  96:../../STM32Cube_FW_N6/Drivers/CMSIS/Include/core_cm55.h ****   #else
  97:../../STM32Cube_FW_N6/Drivers/CMSIS/Include/core_cm55.h ****     #define __DSP_USED         0U
  98:../../STM32Cube_FW_N6/Drivers/CMSIS/Include/core_cm55.h ****   #endif
  99:../../STM32Cube_FW_N6/Drivers/CMSIS/Include/core_cm55.h **** 
 100:../../STM32Cube_FW_N6/Drivers/CMSIS/Include/core_cm55.h **** #elif defined ( __GNUC__ )
 101:../../STM32Cube_FW_N6/Drivers/CMSIS/Include/core_cm55.h ****   #if defined (__VFP_FP__) && !defined(__SOFTFP__)
 102:../../STM32Cube_FW_N6/Drivers/CMSIS/Include/core_cm55.h ****     #if defined (__FPU_PRESENT) && (__FPU_PRESENT == 1U)
 103:../../STM32Cube_FW_N6/Drivers/CMSIS/Include/core_cm55.h ****       #define __FPU_USED       1U
 104:../../STM32Cube_FW_N6/Drivers/CMSIS/Include/core_cm55.h ****     #else
 105:../../STM32Cube_FW_N6/Drivers/CMSIS/Include/core_cm55.h ****       #error "Compiler generates FPU instructions for a device without an FPU (check __FPU_PRESENT)
 106:../../STM32Cube_FW_N6/Drivers/CMSIS/Include/core_cm55.h ****       #define __FPU_USED       0U
 107:../../STM32Cube_FW_N6/Drivers/CMSIS/Include/core_cm55.h ****     #endif
 108:../../STM32Cube_FW_N6/Drivers/CMSIS/Include/core_cm55.h ****   #else
 109:../../STM32Cube_FW_N6/Drivers/CMSIS/Include/core_cm55.h ****     #define __FPU_USED         0U
ARM GAS  C:\Users\Antonio\AppData\Local\Temp\ccDsuHnY.s 			page 23


 110:../../STM32Cube_FW_N6/Drivers/CMSIS/Include/core_cm55.h ****   #endif
 111:../../STM32Cube_FW_N6/Drivers/CMSIS/Include/core_cm55.h **** 
 112:../../STM32Cube_FW_N6/Drivers/CMSIS/Include/core_cm55.h ****   #if defined(__ARM_FEATURE_DSP)
 113:../../STM32Cube_FW_N6/Drivers/CMSIS/Include/core_cm55.h ****     #if defined(__DSP_PRESENT) && (__DSP_PRESENT == 1U)
 114:../../STM32Cube_FW_N6/Drivers/CMSIS/Include/core_cm55.h ****       #define __DSP_USED       1U
 115:../../STM32Cube_FW_N6/Drivers/CMSIS/Include/core_cm55.h ****     #else
 116:../../STM32Cube_FW_N6/Drivers/CMSIS/Include/core_cm55.h ****       #error "Compiler generates DSP (SIMD) instructions for a devices without DSP extensions (chec
 117:../../STM32Cube_FW_N6/Drivers/CMSIS/Include/core_cm55.h ****       #define __DSP_USED         0U
 118:../../STM32Cube_FW_N6/Drivers/CMSIS/Include/core_cm55.h ****     #endif
 119:../../STM32Cube_FW_N6/Drivers/CMSIS/Include/core_cm55.h ****   #else
 120:../../STM32Cube_FW_N6/Drivers/CMSIS/Include/core_cm55.h ****     #define __DSP_USED         0U
 121:../../STM32Cube_FW_N6/Drivers/CMSIS/Include/core_cm55.h ****   #endif
 122:../../STM32Cube_FW_N6/Drivers/CMSIS/Include/core_cm55.h **** 
 123:../../STM32Cube_FW_N6/Drivers/CMSIS/Include/core_cm55.h **** #elif defined ( __ICCARM__ )
 124:../../STM32Cube_FW_N6/Drivers/CMSIS/Include/core_cm55.h ****   #if defined __ARMVFP__
 125:../../STM32Cube_FW_N6/Drivers/CMSIS/Include/core_cm55.h ****     #if defined (__FPU_PRESENT) && (__FPU_PRESENT == 1U)
 126:../../STM32Cube_FW_N6/Drivers/CMSIS/Include/core_cm55.h ****       #define __FPU_USED       1U
 127:../../STM32Cube_FW_N6/Drivers/CMSIS/Include/core_cm55.h ****     #else
 128:../../STM32Cube_FW_N6/Drivers/CMSIS/Include/core_cm55.h ****       #error "Compiler generates FPU instructions for a device without an FPU (check __FPU_PRESENT)
 129:../../STM32Cube_FW_N6/Drivers/CMSIS/Include/core_cm55.h ****       #define __FPU_USED       0U
 130:../../STM32Cube_FW_N6/Drivers/CMSIS/Include/core_cm55.h ****     #endif
 131:../../STM32Cube_FW_N6/Drivers/CMSIS/Include/core_cm55.h ****   #else
 132:../../STM32Cube_FW_N6/Drivers/CMSIS/Include/core_cm55.h ****     #define __FPU_USED         0U
 133:../../STM32Cube_FW_N6/Drivers/CMSIS/Include/core_cm55.h ****   #endif
 134:../../STM32Cube_FW_N6/Drivers/CMSIS/Include/core_cm55.h **** 
 135:../../STM32Cube_FW_N6/Drivers/CMSIS/Include/core_cm55.h ****   #if defined(__ARM_FEATURE_DSP)
 136:../../STM32Cube_FW_N6/Drivers/CMSIS/Include/core_cm55.h ****     #if defined(__DSP_PRESENT) && (__DSP_PRESENT == 1U)
 137:../../STM32Cube_FW_N6/Drivers/CMSIS/Include/core_cm55.h ****       #define __DSP_USED       1U
 138:../../STM32Cube_FW_N6/Drivers/CMSIS/Include/core_cm55.h ****     #else
 139:../../STM32Cube_FW_N6/Drivers/CMSIS/Include/core_cm55.h ****       #error "Compiler generates DSP (SIMD) instructions for a devices without DSP extensions (chec
 140:../../STM32Cube_FW_N6/Drivers/CMSIS/Include/core_cm55.h ****       #define __DSP_USED         0U
 141:../../STM32Cube_FW_N6/Drivers/CMSIS/Include/core_cm55.h ****     #endif
 142:../../STM32Cube_FW_N6/Drivers/CMSIS/Include/core_cm55.h ****   #else
 143:../../STM32Cube_FW_N6/Drivers/CMSIS/Include/core_cm55.h ****     #define __DSP_USED         0U
 144:../../STM32Cube_FW_N6/Drivers/CMSIS/Include/core_cm55.h ****   #endif
 145:../../STM32Cube_FW_N6/Drivers/CMSIS/Include/core_cm55.h **** 
 146:../../STM32Cube_FW_N6/Drivers/CMSIS/Include/core_cm55.h **** #elif defined ( __TI_ARM__ )
 147:../../STM32Cube_FW_N6/Drivers/CMSIS/Include/core_cm55.h ****   #if defined __TI_VFP_SUPPORT__
 148:../../STM32Cube_FW_N6/Drivers/CMSIS/Include/core_cm55.h ****     #if defined (__FPU_PRESENT) && (__FPU_PRESENT == 1U)
 149:../../STM32Cube_FW_N6/Drivers/CMSIS/Include/core_cm55.h ****       #define __FPU_USED       1U
 150:../../STM32Cube_FW_N6/Drivers/CMSIS/Include/core_cm55.h ****     #else
 151:../../STM32Cube_FW_N6/Drivers/CMSIS/Include/core_cm55.h ****       #error "Compiler generates FPU instructions for a device without an FPU (check __FPU_PRESENT)
 152:../../STM32Cube_FW_N6/Drivers/CMSIS/Include/core_cm55.h ****       #define __FPU_USED       0U
 153:../../STM32Cube_FW_N6/Drivers/CMSIS/Include/core_cm55.h ****     #endif
 154:../../STM32Cube_FW_N6/Drivers/CMSIS/Include/core_cm55.h ****   #else
 155:../../STM32Cube_FW_N6/Drivers/CMSIS/Include/core_cm55.h ****     #define __FPU_USED         0U
 156:../../STM32Cube_FW_N6/Drivers/CMSIS/Include/core_cm55.h ****   #endif
 157:../../STM32Cube_FW_N6/Drivers/CMSIS/Include/core_cm55.h **** 
 158:../../STM32Cube_FW_N6/Drivers/CMSIS/Include/core_cm55.h **** #elif defined ( __TASKING__ )
 159:../../STM32Cube_FW_N6/Drivers/CMSIS/Include/core_cm55.h ****   #if defined __FPU_VFP__
 160:../../STM32Cube_FW_N6/Drivers/CMSIS/Include/core_cm55.h ****     #if defined (__FPU_PRESENT) && (__FPU_PRESENT == 1U)
 161:../../STM32Cube_FW_N6/Drivers/CMSIS/Include/core_cm55.h ****       #define __FPU_USED       1U
 162:../../STM32Cube_FW_N6/Drivers/CMSIS/Include/core_cm55.h ****     #else
 163:../../STM32Cube_FW_N6/Drivers/CMSIS/Include/core_cm55.h ****       #error "Compiler generates FPU instructions for a device without an FPU (check __FPU_PRESENT)
 164:../../STM32Cube_FW_N6/Drivers/CMSIS/Include/core_cm55.h ****       #define __FPU_USED       0U
 165:../../STM32Cube_FW_N6/Drivers/CMSIS/Include/core_cm55.h ****     #endif
 166:../../STM32Cube_FW_N6/Drivers/CMSIS/Include/core_cm55.h ****   #else
ARM GAS  C:\Users\Antonio\AppData\Local\Temp\ccDsuHnY.s 			page 24


 167:../../STM32Cube_FW_N6/Drivers/CMSIS/Include/core_cm55.h ****     #define __FPU_USED         0U
 168:../../STM32Cube_FW_N6/Drivers/CMSIS/Include/core_cm55.h ****   #endif
 169:../../STM32Cube_FW_N6/Drivers/CMSIS/Include/core_cm55.h **** 
 170:../../STM32Cube_FW_N6/Drivers/CMSIS/Include/core_cm55.h **** #elif defined ( __CSMC__ )
 171:../../STM32Cube_FW_N6/Drivers/CMSIS/Include/core_cm55.h ****   #if ( __CSMC__ & 0x400U)
 172:../../STM32Cube_FW_N6/Drivers/CMSIS/Include/core_cm55.h ****     #if defined (__FPU_PRESENT) && (__FPU_PRESENT == 1U)
 173:../../STM32Cube_FW_N6/Drivers/CMSIS/Include/core_cm55.h ****       #define __FPU_USED       1U
 174:../../STM32Cube_FW_N6/Drivers/CMSIS/Include/core_cm55.h ****     #else
 175:../../STM32Cube_FW_N6/Drivers/CMSIS/Include/core_cm55.h ****       #error "Compiler generates FPU instructions for a device without an FPU (check __FPU_PRESENT)
 176:../../STM32Cube_FW_N6/Drivers/CMSIS/Include/core_cm55.h ****       #define __FPU_USED       0U
 177:../../STM32Cube_FW_N6/Drivers/CMSIS/Include/core_cm55.h ****     #endif
 178:../../STM32Cube_FW_N6/Drivers/CMSIS/Include/core_cm55.h ****   #else
 179:../../STM32Cube_FW_N6/Drivers/CMSIS/Include/core_cm55.h ****     #define __FPU_USED         0U
 180:../../STM32Cube_FW_N6/Drivers/CMSIS/Include/core_cm55.h ****   #endif
 181:../../STM32Cube_FW_N6/Drivers/CMSIS/Include/core_cm55.h **** 
 182:../../STM32Cube_FW_N6/Drivers/CMSIS/Include/core_cm55.h **** #endif
 183:../../STM32Cube_FW_N6/Drivers/CMSIS/Include/core_cm55.h **** 
 184:../../STM32Cube_FW_N6/Drivers/CMSIS/Include/core_cm55.h **** #include "cmsis_compiler.h"               /* CMSIS compiler specific defines */
 185:../../STM32Cube_FW_N6/Drivers/CMSIS/Include/core_cm55.h **** 
 186:../../STM32Cube_FW_N6/Drivers/CMSIS/Include/core_cm55.h **** 
 187:../../STM32Cube_FW_N6/Drivers/CMSIS/Include/core_cm55.h **** #ifdef __cplusplus
 188:../../STM32Cube_FW_N6/Drivers/CMSIS/Include/core_cm55.h **** }
 189:../../STM32Cube_FW_N6/Drivers/CMSIS/Include/core_cm55.h **** #endif
 190:../../STM32Cube_FW_N6/Drivers/CMSIS/Include/core_cm55.h **** 
 191:../../STM32Cube_FW_N6/Drivers/CMSIS/Include/core_cm55.h **** #endif /* __CORE_CM55_H_GENERIC */
 192:../../STM32Cube_FW_N6/Drivers/CMSIS/Include/core_cm55.h **** 
 193:../../STM32Cube_FW_N6/Drivers/CMSIS/Include/core_cm55.h **** #ifndef __CMSIS_GENERIC
 194:../../STM32Cube_FW_N6/Drivers/CMSIS/Include/core_cm55.h **** 
 195:../../STM32Cube_FW_N6/Drivers/CMSIS/Include/core_cm55.h **** #ifndef __CORE_CM55_H_DEPENDANT
 196:../../STM32Cube_FW_N6/Drivers/CMSIS/Include/core_cm55.h **** #define __CORE_CM55_H_DEPENDANT
 197:../../STM32Cube_FW_N6/Drivers/CMSIS/Include/core_cm55.h **** 
 198:../../STM32Cube_FW_N6/Drivers/CMSIS/Include/core_cm55.h **** #ifdef __cplusplus
 199:../../STM32Cube_FW_N6/Drivers/CMSIS/Include/core_cm55.h ****  extern "C" {
 200:../../STM32Cube_FW_N6/Drivers/CMSIS/Include/core_cm55.h **** #endif
 201:../../STM32Cube_FW_N6/Drivers/CMSIS/Include/core_cm55.h **** 
 202:../../STM32Cube_FW_N6/Drivers/CMSIS/Include/core_cm55.h **** /* check device defines and use defaults */
 203:../../STM32Cube_FW_N6/Drivers/CMSIS/Include/core_cm55.h **** #if defined __CHECK_DEVICE_DEFINES
 204:../../STM32Cube_FW_N6/Drivers/CMSIS/Include/core_cm55.h ****   #ifndef __CM55_REV
 205:../../STM32Cube_FW_N6/Drivers/CMSIS/Include/core_cm55.h ****     #define __CM55_REV               0x0000U
 206:../../STM32Cube_FW_N6/Drivers/CMSIS/Include/core_cm55.h ****     #warning "__CM55_REV not defined in device header file; using default!"
 207:../../STM32Cube_FW_N6/Drivers/CMSIS/Include/core_cm55.h ****   #endif
 208:../../STM32Cube_FW_N6/Drivers/CMSIS/Include/core_cm55.h **** 
 209:../../STM32Cube_FW_N6/Drivers/CMSIS/Include/core_cm55.h ****   #ifndef __FPU_PRESENT
 210:../../STM32Cube_FW_N6/Drivers/CMSIS/Include/core_cm55.h ****     #define __FPU_PRESENT             0U
 211:../../STM32Cube_FW_N6/Drivers/CMSIS/Include/core_cm55.h ****     #warning "__FPU_PRESENT not defined in device header file; using default!"
 212:../../STM32Cube_FW_N6/Drivers/CMSIS/Include/core_cm55.h ****   #endif
 213:../../STM32Cube_FW_N6/Drivers/CMSIS/Include/core_cm55.h **** 
 214:../../STM32Cube_FW_N6/Drivers/CMSIS/Include/core_cm55.h ****   #if __FPU_PRESENT != 0U
 215:../../STM32Cube_FW_N6/Drivers/CMSIS/Include/core_cm55.h ****     #ifndef __FPU_DP
 216:../../STM32Cube_FW_N6/Drivers/CMSIS/Include/core_cm55.h ****       #define __FPU_DP             0U
 217:../../STM32Cube_FW_N6/Drivers/CMSIS/Include/core_cm55.h ****       #warning "__FPU_DP not defined in device header file; using default!"
 218:../../STM32Cube_FW_N6/Drivers/CMSIS/Include/core_cm55.h ****     #endif
 219:../../STM32Cube_FW_N6/Drivers/CMSIS/Include/core_cm55.h ****   #endif
 220:../../STM32Cube_FW_N6/Drivers/CMSIS/Include/core_cm55.h **** 
 221:../../STM32Cube_FW_N6/Drivers/CMSIS/Include/core_cm55.h ****   #ifndef __MPU_PRESENT
 222:../../STM32Cube_FW_N6/Drivers/CMSIS/Include/core_cm55.h ****     #define __MPU_PRESENT             0U
 223:../../STM32Cube_FW_N6/Drivers/CMSIS/Include/core_cm55.h ****     #warning "__MPU_PRESENT not defined in device header file; using default!"
ARM GAS  C:\Users\Antonio\AppData\Local\Temp\ccDsuHnY.s 			page 25


 224:../../STM32Cube_FW_N6/Drivers/CMSIS/Include/core_cm55.h ****   #endif
 225:../../STM32Cube_FW_N6/Drivers/CMSIS/Include/core_cm55.h **** 
 226:../../STM32Cube_FW_N6/Drivers/CMSIS/Include/core_cm55.h ****   #ifndef __ICACHE_PRESENT
 227:../../STM32Cube_FW_N6/Drivers/CMSIS/Include/core_cm55.h ****     #define __ICACHE_PRESENT          0U
 228:../../STM32Cube_FW_N6/Drivers/CMSIS/Include/core_cm55.h ****     #warning "__ICACHE_PRESENT not defined in device header file; using default!"
 229:../../STM32Cube_FW_N6/Drivers/CMSIS/Include/core_cm55.h ****   #endif
 230:../../STM32Cube_FW_N6/Drivers/CMSIS/Include/core_cm55.h **** 
 231:../../STM32Cube_FW_N6/Drivers/CMSIS/Include/core_cm55.h ****   #ifndef __DCACHE_PRESENT
 232:../../STM32Cube_FW_N6/Drivers/CMSIS/Include/core_cm55.h ****     #define __DCACHE_PRESENT          0U
 233:../../STM32Cube_FW_N6/Drivers/CMSIS/Include/core_cm55.h ****     #warning "__DCACHE_PRESENT not defined in device header file; using default!"
 234:../../STM32Cube_FW_N6/Drivers/CMSIS/Include/core_cm55.h ****   #endif
 235:../../STM32Cube_FW_N6/Drivers/CMSIS/Include/core_cm55.h **** 
 236:../../STM32Cube_FW_N6/Drivers/CMSIS/Include/core_cm55.h ****   #ifndef __VTOR_PRESENT
 237:../../STM32Cube_FW_N6/Drivers/CMSIS/Include/core_cm55.h ****     #define __VTOR_PRESENT             1U
 238:../../STM32Cube_FW_N6/Drivers/CMSIS/Include/core_cm55.h ****     #warning "__VTOR_PRESENT not defined in device header file; using default!"
 239:../../STM32Cube_FW_N6/Drivers/CMSIS/Include/core_cm55.h ****   #endif
 240:../../STM32Cube_FW_N6/Drivers/CMSIS/Include/core_cm55.h **** 
 241:../../STM32Cube_FW_N6/Drivers/CMSIS/Include/core_cm55.h ****   #ifndef __PMU_PRESENT
 242:../../STM32Cube_FW_N6/Drivers/CMSIS/Include/core_cm55.h ****     #define __PMU_PRESENT             0U
 243:../../STM32Cube_FW_N6/Drivers/CMSIS/Include/core_cm55.h ****     #warning "__PMU_PRESENT not defined in device header file; using default!"
 244:../../STM32Cube_FW_N6/Drivers/CMSIS/Include/core_cm55.h ****   #endif
 245:../../STM32Cube_FW_N6/Drivers/CMSIS/Include/core_cm55.h **** 
 246:../../STM32Cube_FW_N6/Drivers/CMSIS/Include/core_cm55.h ****   #if __PMU_PRESENT != 0U
 247:../../STM32Cube_FW_N6/Drivers/CMSIS/Include/core_cm55.h ****     #ifndef __PMU_NUM_EVENTCNT
 248:../../STM32Cube_FW_N6/Drivers/CMSIS/Include/core_cm55.h ****       #define __PMU_NUM_EVENTCNT      8U
 249:../../STM32Cube_FW_N6/Drivers/CMSIS/Include/core_cm55.h ****       #warning "__PMU_NUM_EVENTCNT not defined in device header file; using default!"
 250:../../STM32Cube_FW_N6/Drivers/CMSIS/Include/core_cm55.h ****     #elif (__PMU_NUM_EVENTCNT > 8 || __PMU_NUM_EVENTCNT < 2)
 251:../../STM32Cube_FW_N6/Drivers/CMSIS/Include/core_cm55.h ****     #error "__PMU_NUM_EVENTCNT is out of range in device header file!" */
 252:../../STM32Cube_FW_N6/Drivers/CMSIS/Include/core_cm55.h ****     #endif
 253:../../STM32Cube_FW_N6/Drivers/CMSIS/Include/core_cm55.h ****   #endif
 254:../../STM32Cube_FW_N6/Drivers/CMSIS/Include/core_cm55.h **** 
 255:../../STM32Cube_FW_N6/Drivers/CMSIS/Include/core_cm55.h ****   #ifndef __SAUREGION_PRESENT
 256:../../STM32Cube_FW_N6/Drivers/CMSIS/Include/core_cm55.h ****     #define __SAUREGION_PRESENT       0U
 257:../../STM32Cube_FW_N6/Drivers/CMSIS/Include/core_cm55.h ****     #warning "__SAUREGION_PRESENT not defined in device header file; using default!"
 258:../../STM32Cube_FW_N6/Drivers/CMSIS/Include/core_cm55.h ****   #endif
 259:../../STM32Cube_FW_N6/Drivers/CMSIS/Include/core_cm55.h **** 
 260:../../STM32Cube_FW_N6/Drivers/CMSIS/Include/core_cm55.h ****   #ifndef __DSP_PRESENT
 261:../../STM32Cube_FW_N6/Drivers/CMSIS/Include/core_cm55.h ****     #define __DSP_PRESENT             0U
 262:../../STM32Cube_FW_N6/Drivers/CMSIS/Include/core_cm55.h ****     #warning "__DSP_PRESENT not defined in device header file; using default!"
 263:../../STM32Cube_FW_N6/Drivers/CMSIS/Include/core_cm55.h ****   #endif
 264:../../STM32Cube_FW_N6/Drivers/CMSIS/Include/core_cm55.h **** 
 265:../../STM32Cube_FW_N6/Drivers/CMSIS/Include/core_cm55.h ****   #ifndef __NVIC_PRIO_BITS
 266:../../STM32Cube_FW_N6/Drivers/CMSIS/Include/core_cm55.h ****     #define __NVIC_PRIO_BITS          3U
 267:../../STM32Cube_FW_N6/Drivers/CMSIS/Include/core_cm55.h ****     #warning "__NVIC_PRIO_BITS not defined in device header file; using default!"
 268:../../STM32Cube_FW_N6/Drivers/CMSIS/Include/core_cm55.h ****   #endif
 269:../../STM32Cube_FW_N6/Drivers/CMSIS/Include/core_cm55.h **** 
 270:../../STM32Cube_FW_N6/Drivers/CMSIS/Include/core_cm55.h ****   #ifndef __Vendor_SysTickConfig
 271:../../STM32Cube_FW_N6/Drivers/CMSIS/Include/core_cm55.h ****     #define __Vendor_SysTickConfig    0U
 272:../../STM32Cube_FW_N6/Drivers/CMSIS/Include/core_cm55.h ****     #warning "__Vendor_SysTickConfig not defined in device header file; using default!"
 273:../../STM32Cube_FW_N6/Drivers/CMSIS/Include/core_cm55.h ****   #endif
 274:../../STM32Cube_FW_N6/Drivers/CMSIS/Include/core_cm55.h **** #endif
 275:../../STM32Cube_FW_N6/Drivers/CMSIS/Include/core_cm55.h **** 
 276:../../STM32Cube_FW_N6/Drivers/CMSIS/Include/core_cm55.h **** /* IO definitions (access restrictions to peripheral registers) */
 277:../../STM32Cube_FW_N6/Drivers/CMSIS/Include/core_cm55.h **** /**
 278:../../STM32Cube_FW_N6/Drivers/CMSIS/Include/core_cm55.h ****     \defgroup CMSIS_glob_defs CMSIS Global Defines
 279:../../STM32Cube_FW_N6/Drivers/CMSIS/Include/core_cm55.h **** 
 280:../../STM32Cube_FW_N6/Drivers/CMSIS/Include/core_cm55.h ****     <strong>IO Type Qualifiers</strong> are used
ARM GAS  C:\Users\Antonio\AppData\Local\Temp\ccDsuHnY.s 			page 26


 281:../../STM32Cube_FW_N6/Drivers/CMSIS/Include/core_cm55.h ****     \li to specify the access to peripheral variables.
 282:../../STM32Cube_FW_N6/Drivers/CMSIS/Include/core_cm55.h ****     \li for automatic generation of peripheral register debug information.
 283:../../STM32Cube_FW_N6/Drivers/CMSIS/Include/core_cm55.h **** */
 284:../../STM32Cube_FW_N6/Drivers/CMSIS/Include/core_cm55.h **** #ifdef __cplusplus
 285:../../STM32Cube_FW_N6/Drivers/CMSIS/Include/core_cm55.h ****   #define   __I     volatile             /*!< Defines 'read only' permissions */
 286:../../STM32Cube_FW_N6/Drivers/CMSIS/Include/core_cm55.h **** #else
 287:../../STM32Cube_FW_N6/Drivers/CMSIS/Include/core_cm55.h ****   #define   __I     volatile const       /*!< Defines 'read only' permissions */
 288:../../STM32Cube_FW_N6/Drivers/CMSIS/Include/core_cm55.h **** #endif
 289:../../STM32Cube_FW_N6/Drivers/CMSIS/Include/core_cm55.h **** #define     __O     volatile             /*!< Defines 'write only' permissions */
 290:../../STM32Cube_FW_N6/Drivers/CMSIS/Include/core_cm55.h **** #define     __IO    volatile             /*!< Defines 'read / write' permissions */
 291:../../STM32Cube_FW_N6/Drivers/CMSIS/Include/core_cm55.h **** 
 292:../../STM32Cube_FW_N6/Drivers/CMSIS/Include/core_cm55.h **** /* following defines should be used for structure members */
 293:../../STM32Cube_FW_N6/Drivers/CMSIS/Include/core_cm55.h **** #define     __IM     volatile const      /*! Defines 'read only' structure member permissions */
 294:../../STM32Cube_FW_N6/Drivers/CMSIS/Include/core_cm55.h **** #define     __OM     volatile            /*! Defines 'write only' structure member permissions */
 295:../../STM32Cube_FW_N6/Drivers/CMSIS/Include/core_cm55.h **** #define     __IOM    volatile            /*! Defines 'read / write' structure member permissions */
 296:../../STM32Cube_FW_N6/Drivers/CMSIS/Include/core_cm55.h **** 
 297:../../STM32Cube_FW_N6/Drivers/CMSIS/Include/core_cm55.h **** /*@} end of group Cortex_M55 */
 298:../../STM32Cube_FW_N6/Drivers/CMSIS/Include/core_cm55.h **** 
 299:../../STM32Cube_FW_N6/Drivers/CMSIS/Include/core_cm55.h **** 
 300:../../STM32Cube_FW_N6/Drivers/CMSIS/Include/core_cm55.h **** 
 301:../../STM32Cube_FW_N6/Drivers/CMSIS/Include/core_cm55.h **** /*******************************************************************************
 302:../../STM32Cube_FW_N6/Drivers/CMSIS/Include/core_cm55.h ****  *                 Register Abstraction
 303:../../STM32Cube_FW_N6/Drivers/CMSIS/Include/core_cm55.h ****   Core Register contain:
 304:../../STM32Cube_FW_N6/Drivers/CMSIS/Include/core_cm55.h ****   - Core Register
 305:../../STM32Cube_FW_N6/Drivers/CMSIS/Include/core_cm55.h ****   - Core NVIC Register
 306:../../STM32Cube_FW_N6/Drivers/CMSIS/Include/core_cm55.h ****   - Core EWIC Register
 307:../../STM32Cube_FW_N6/Drivers/CMSIS/Include/core_cm55.h ****   - Core SCB Register
 308:../../STM32Cube_FW_N6/Drivers/CMSIS/Include/core_cm55.h ****   - Core SysTick Register
 309:../../STM32Cube_FW_N6/Drivers/CMSIS/Include/core_cm55.h ****   - Core Debug Register
 310:../../STM32Cube_FW_N6/Drivers/CMSIS/Include/core_cm55.h ****   - Core PMU Register
 311:../../STM32Cube_FW_N6/Drivers/CMSIS/Include/core_cm55.h ****   - Core MPU Register
 312:../../STM32Cube_FW_N6/Drivers/CMSIS/Include/core_cm55.h ****   - Core SAU Register
 313:../../STM32Cube_FW_N6/Drivers/CMSIS/Include/core_cm55.h ****   - Core FPU Register
 314:../../STM32Cube_FW_N6/Drivers/CMSIS/Include/core_cm55.h ****  ******************************************************************************/
 315:../../STM32Cube_FW_N6/Drivers/CMSIS/Include/core_cm55.h **** /**
 316:../../STM32Cube_FW_N6/Drivers/CMSIS/Include/core_cm55.h ****   \defgroup CMSIS_core_register Defines and Type Definitions
 317:../../STM32Cube_FW_N6/Drivers/CMSIS/Include/core_cm55.h ****   \brief Type definitions and defines for Cortex-M processor based devices.
 318:../../STM32Cube_FW_N6/Drivers/CMSIS/Include/core_cm55.h **** */
 319:../../STM32Cube_FW_N6/Drivers/CMSIS/Include/core_cm55.h **** 
 320:../../STM32Cube_FW_N6/Drivers/CMSIS/Include/core_cm55.h **** /**
 321:../../STM32Cube_FW_N6/Drivers/CMSIS/Include/core_cm55.h ****   \ingroup    CMSIS_core_register
 322:../../STM32Cube_FW_N6/Drivers/CMSIS/Include/core_cm55.h ****   \defgroup   CMSIS_CORE  Status and Control Registers
 323:../../STM32Cube_FW_N6/Drivers/CMSIS/Include/core_cm55.h ****   \brief      Core Register type definitions.
 324:../../STM32Cube_FW_N6/Drivers/CMSIS/Include/core_cm55.h ****   @{
 325:../../STM32Cube_FW_N6/Drivers/CMSIS/Include/core_cm55.h ****  */
 326:../../STM32Cube_FW_N6/Drivers/CMSIS/Include/core_cm55.h **** 
 327:../../STM32Cube_FW_N6/Drivers/CMSIS/Include/core_cm55.h **** /**
 328:../../STM32Cube_FW_N6/Drivers/CMSIS/Include/core_cm55.h ****   \brief  Union type to access the Application Program Status Register (APSR).
 329:../../STM32Cube_FW_N6/Drivers/CMSIS/Include/core_cm55.h ****  */
 330:../../STM32Cube_FW_N6/Drivers/CMSIS/Include/core_cm55.h **** typedef union
 331:../../STM32Cube_FW_N6/Drivers/CMSIS/Include/core_cm55.h **** {
 332:../../STM32Cube_FW_N6/Drivers/CMSIS/Include/core_cm55.h ****   struct
 333:../../STM32Cube_FW_N6/Drivers/CMSIS/Include/core_cm55.h ****   {
 334:../../STM32Cube_FW_N6/Drivers/CMSIS/Include/core_cm55.h ****     uint32_t _reserved0:16;              /*!< bit:  0..15  Reserved */
 335:../../STM32Cube_FW_N6/Drivers/CMSIS/Include/core_cm55.h ****     uint32_t GE:4;                       /*!< bit: 16..19  Greater than or Equal flags */
 336:../../STM32Cube_FW_N6/Drivers/CMSIS/Include/core_cm55.h ****     uint32_t _reserved1:7;               /*!< bit: 20..26  Reserved */
 337:../../STM32Cube_FW_N6/Drivers/CMSIS/Include/core_cm55.h ****     uint32_t Q:1;                        /*!< bit:     27  Saturation condition flag */
ARM GAS  C:\Users\Antonio\AppData\Local\Temp\ccDsuHnY.s 			page 27


 338:../../STM32Cube_FW_N6/Drivers/CMSIS/Include/core_cm55.h ****     uint32_t V:1;                        /*!< bit:     28  Overflow condition code flag */
 339:../../STM32Cube_FW_N6/Drivers/CMSIS/Include/core_cm55.h ****     uint32_t C:1;                        /*!< bit:     29  Carry condition code flag */
 340:../../STM32Cube_FW_N6/Drivers/CMSIS/Include/core_cm55.h ****     uint32_t Z:1;                        /*!< bit:     30  Zero condition code flag */
 341:../../STM32Cube_FW_N6/Drivers/CMSIS/Include/core_cm55.h ****     uint32_t N:1;                        /*!< bit:     31  Negative condition code flag */
 342:../../STM32Cube_FW_N6/Drivers/CMSIS/Include/core_cm55.h ****   } b;                                   /*!< Structure used for bit  access */
 343:../../STM32Cube_FW_N6/Drivers/CMSIS/Include/core_cm55.h ****   uint32_t w;                            /*!< Type      used for word access */
 344:../../STM32Cube_FW_N6/Drivers/CMSIS/Include/core_cm55.h **** } APSR_Type;
 345:../../STM32Cube_FW_N6/Drivers/CMSIS/Include/core_cm55.h **** 
 346:../../STM32Cube_FW_N6/Drivers/CMSIS/Include/core_cm55.h **** /* APSR Register Definitions */
 347:../../STM32Cube_FW_N6/Drivers/CMSIS/Include/core_cm55.h **** #define APSR_N_Pos                         31U                                            /*!< APSR
 348:../../STM32Cube_FW_N6/Drivers/CMSIS/Include/core_cm55.h **** #define APSR_N_Msk                         (1UL << APSR_N_Pos)                            /*!< APSR
 349:../../STM32Cube_FW_N6/Drivers/CMSIS/Include/core_cm55.h **** 
 350:../../STM32Cube_FW_N6/Drivers/CMSIS/Include/core_cm55.h **** #define APSR_Z_Pos                         30U                                            /*!< APSR
 351:../../STM32Cube_FW_N6/Drivers/CMSIS/Include/core_cm55.h **** #define APSR_Z_Msk                         (1UL << APSR_Z_Pos)                            /*!< APSR
 352:../../STM32Cube_FW_N6/Drivers/CMSIS/Include/core_cm55.h **** 
 353:../../STM32Cube_FW_N6/Drivers/CMSIS/Include/core_cm55.h **** #define APSR_C_Pos                         29U                                            /*!< APSR
 354:../../STM32Cube_FW_N6/Drivers/CMSIS/Include/core_cm55.h **** #define APSR_C_Msk                         (1UL << APSR_C_Pos)                            /*!< APSR
 355:../../STM32Cube_FW_N6/Drivers/CMSIS/Include/core_cm55.h **** 
 356:../../STM32Cube_FW_N6/Drivers/CMSIS/Include/core_cm55.h **** #define APSR_V_Pos                         28U                                            /*!< APSR
 357:../../STM32Cube_FW_N6/Drivers/CMSIS/Include/core_cm55.h **** #define APSR_V_Msk                         (1UL << APSR_V_Pos)                            /*!< APSR
 358:../../STM32Cube_FW_N6/Drivers/CMSIS/Include/core_cm55.h **** 
 359:../../STM32Cube_FW_N6/Drivers/CMSIS/Include/core_cm55.h **** #define APSR_Q_Pos                         27U                                            /*!< APSR
 360:../../STM32Cube_FW_N6/Drivers/CMSIS/Include/core_cm55.h **** #define APSR_Q_Msk                         (1UL << APSR_Q_Pos)                            /*!< APSR
 361:../../STM32Cube_FW_N6/Drivers/CMSIS/Include/core_cm55.h **** 
 362:../../STM32Cube_FW_N6/Drivers/CMSIS/Include/core_cm55.h **** #define APSR_GE_Pos                        16U                                            /*!< APSR
 363:../../STM32Cube_FW_N6/Drivers/CMSIS/Include/core_cm55.h **** #define APSR_GE_Msk                        (0xFUL << APSR_GE_Pos)                         /*!< APSR
 364:../../STM32Cube_FW_N6/Drivers/CMSIS/Include/core_cm55.h **** 
 365:../../STM32Cube_FW_N6/Drivers/CMSIS/Include/core_cm55.h **** 
 366:../../STM32Cube_FW_N6/Drivers/CMSIS/Include/core_cm55.h **** /**
 367:../../STM32Cube_FW_N6/Drivers/CMSIS/Include/core_cm55.h ****   \brief  Union type to access the Interrupt Program Status Register (IPSR).
 368:../../STM32Cube_FW_N6/Drivers/CMSIS/Include/core_cm55.h ****  */
 369:../../STM32Cube_FW_N6/Drivers/CMSIS/Include/core_cm55.h **** typedef union
 370:../../STM32Cube_FW_N6/Drivers/CMSIS/Include/core_cm55.h **** {
 371:../../STM32Cube_FW_N6/Drivers/CMSIS/Include/core_cm55.h ****   struct
 372:../../STM32Cube_FW_N6/Drivers/CMSIS/Include/core_cm55.h ****   {
 373:../../STM32Cube_FW_N6/Drivers/CMSIS/Include/core_cm55.h ****     uint32_t ISR:9;                      /*!< bit:  0.. 8  Exception number */
 374:../../STM32Cube_FW_N6/Drivers/CMSIS/Include/core_cm55.h ****     uint32_t _reserved0:23;              /*!< bit:  9..31  Reserved */
 375:../../STM32Cube_FW_N6/Drivers/CMSIS/Include/core_cm55.h ****   } b;                                   /*!< Structure used for bit  access */
 376:../../STM32Cube_FW_N6/Drivers/CMSIS/Include/core_cm55.h ****   uint32_t w;                            /*!< Type      used for word access */
 377:../../STM32Cube_FW_N6/Drivers/CMSIS/Include/core_cm55.h **** } IPSR_Type;
 378:../../STM32Cube_FW_N6/Drivers/CMSIS/Include/core_cm55.h **** 
 379:../../STM32Cube_FW_N6/Drivers/CMSIS/Include/core_cm55.h **** /* IPSR Register Definitions */
 380:../../STM32Cube_FW_N6/Drivers/CMSIS/Include/core_cm55.h **** #define IPSR_ISR_Pos                        0U                                            /*!< IPSR
 381:../../STM32Cube_FW_N6/Drivers/CMSIS/Include/core_cm55.h **** #define IPSR_ISR_Msk                       (0x1FFUL /*<< IPSR_ISR_Pos*/)                  /*!< IPSR
 382:../../STM32Cube_FW_N6/Drivers/CMSIS/Include/core_cm55.h **** 
 383:../../STM32Cube_FW_N6/Drivers/CMSIS/Include/core_cm55.h **** 
 384:../../STM32Cube_FW_N6/Drivers/CMSIS/Include/core_cm55.h **** /**
 385:../../STM32Cube_FW_N6/Drivers/CMSIS/Include/core_cm55.h ****   \brief  Union type to access the Special-Purpose Program Status Registers (xPSR).
 386:../../STM32Cube_FW_N6/Drivers/CMSIS/Include/core_cm55.h ****  */
 387:../../STM32Cube_FW_N6/Drivers/CMSIS/Include/core_cm55.h **** typedef union
 388:../../STM32Cube_FW_N6/Drivers/CMSIS/Include/core_cm55.h **** {
 389:../../STM32Cube_FW_N6/Drivers/CMSIS/Include/core_cm55.h ****   struct
 390:../../STM32Cube_FW_N6/Drivers/CMSIS/Include/core_cm55.h ****   {
 391:../../STM32Cube_FW_N6/Drivers/CMSIS/Include/core_cm55.h ****     uint32_t ISR:9;                      /*!< bit:  0.. 8  Exception number */
 392:../../STM32Cube_FW_N6/Drivers/CMSIS/Include/core_cm55.h ****     uint32_t _reserved0:7;               /*!< bit:  9..15  Reserved */
 393:../../STM32Cube_FW_N6/Drivers/CMSIS/Include/core_cm55.h ****     uint32_t GE:4;                       /*!< bit: 16..19  Greater than or Equal flags */
 394:../../STM32Cube_FW_N6/Drivers/CMSIS/Include/core_cm55.h ****     uint32_t _reserved1:4;               /*!< bit: 20..23  Reserved */
ARM GAS  C:\Users\Antonio\AppData\Local\Temp\ccDsuHnY.s 			page 28


 395:../../STM32Cube_FW_N6/Drivers/CMSIS/Include/core_cm55.h ****     uint32_t T:1;                        /*!< bit:     24  Thumb bit        (read 0) */
 396:../../STM32Cube_FW_N6/Drivers/CMSIS/Include/core_cm55.h ****     uint32_t IT:2;                       /*!< bit: 25..26  saved IT state   (read 0) */
 397:../../STM32Cube_FW_N6/Drivers/CMSIS/Include/core_cm55.h ****     uint32_t Q:1;                        /*!< bit:     27  Saturation condition flag */
 398:../../STM32Cube_FW_N6/Drivers/CMSIS/Include/core_cm55.h ****     uint32_t V:1;                        /*!< bit:     28  Overflow condition code flag */
 399:../../STM32Cube_FW_N6/Drivers/CMSIS/Include/core_cm55.h ****     uint32_t C:1;                        /*!< bit:     29  Carry condition code flag */
 400:../../STM32Cube_FW_N6/Drivers/CMSIS/Include/core_cm55.h ****     uint32_t Z:1;                        /*!< bit:     30  Zero condition code flag */
 401:../../STM32Cube_FW_N6/Drivers/CMSIS/Include/core_cm55.h ****     uint32_t N:1;                        /*!< bit:     31  Negative condition code flag */
 402:../../STM32Cube_FW_N6/Drivers/CMSIS/Include/core_cm55.h ****   } b;                                   /*!< Structure used for bit  access */
 403:../../STM32Cube_FW_N6/Drivers/CMSIS/Include/core_cm55.h ****   uint32_t w;                            /*!< Type      used for word access */
 404:../../STM32Cube_FW_N6/Drivers/CMSIS/Include/core_cm55.h **** } xPSR_Type;
 405:../../STM32Cube_FW_N6/Drivers/CMSIS/Include/core_cm55.h **** 
 406:../../STM32Cube_FW_N6/Drivers/CMSIS/Include/core_cm55.h **** /* xPSR Register Definitions */
 407:../../STM32Cube_FW_N6/Drivers/CMSIS/Include/core_cm55.h **** #define xPSR_N_Pos                         31U                                            /*!< xPSR
 408:../../STM32Cube_FW_N6/Drivers/CMSIS/Include/core_cm55.h **** #define xPSR_N_Msk                         (1UL << xPSR_N_Pos)                            /*!< xPSR
 409:../../STM32Cube_FW_N6/Drivers/CMSIS/Include/core_cm55.h **** 
 410:../../STM32Cube_FW_N6/Drivers/CMSIS/Include/core_cm55.h **** #define xPSR_Z_Pos                         30U                                            /*!< xPSR
 411:../../STM32Cube_FW_N6/Drivers/CMSIS/Include/core_cm55.h **** #define xPSR_Z_Msk                         (1UL << xPSR_Z_Pos)                            /*!< xPSR
 412:../../STM32Cube_FW_N6/Drivers/CMSIS/Include/core_cm55.h **** 
 413:../../STM32Cube_FW_N6/Drivers/CMSIS/Include/core_cm55.h **** #define xPSR_C_Pos                         29U                                            /*!< xPSR
 414:../../STM32Cube_FW_N6/Drivers/CMSIS/Include/core_cm55.h **** #define xPSR_C_Msk                         (1UL << xPSR_C_Pos)                            /*!< xPSR
 415:../../STM32Cube_FW_N6/Drivers/CMSIS/Include/core_cm55.h **** 
 416:../../STM32Cube_FW_N6/Drivers/CMSIS/Include/core_cm55.h **** #define xPSR_V_Pos                         28U                                            /*!< xPSR
 417:../../STM32Cube_FW_N6/Drivers/CMSIS/Include/core_cm55.h **** #define xPSR_V_Msk                         (1UL << xPSR_V_Pos)                            /*!< xPSR
 418:../../STM32Cube_FW_N6/Drivers/CMSIS/Include/core_cm55.h **** 
 419:../../STM32Cube_FW_N6/Drivers/CMSIS/Include/core_cm55.h **** #define xPSR_Q_Pos                         27U                                            /*!< xPSR
 420:../../STM32Cube_FW_N6/Drivers/CMSIS/Include/core_cm55.h **** #define xPSR_Q_Msk                         (1UL << xPSR_Q_Pos)                            /*!< xPSR
 421:../../STM32Cube_FW_N6/Drivers/CMSIS/Include/core_cm55.h **** 
 422:../../STM32Cube_FW_N6/Drivers/CMSIS/Include/core_cm55.h **** #define xPSR_IT_Pos                        25U                                            /*!< xPSR
 423:../../STM32Cube_FW_N6/Drivers/CMSIS/Include/core_cm55.h **** #define xPSR_IT_Msk                        (3UL << xPSR_IT_Pos)                           /*!< xPSR
 424:../../STM32Cube_FW_N6/Drivers/CMSIS/Include/core_cm55.h **** 
 425:../../STM32Cube_FW_N6/Drivers/CMSIS/Include/core_cm55.h **** #define xPSR_T_Pos                         24U                                            /*!< xPSR
 426:../../STM32Cube_FW_N6/Drivers/CMSIS/Include/core_cm55.h **** #define xPSR_T_Msk                         (1UL << xPSR_T_Pos)                            /*!< xPSR
 427:../../STM32Cube_FW_N6/Drivers/CMSIS/Include/core_cm55.h **** 
 428:../../STM32Cube_FW_N6/Drivers/CMSIS/Include/core_cm55.h **** #define xPSR_GE_Pos                        16U                                            /*!< xPSR
 429:../../STM32Cube_FW_N6/Drivers/CMSIS/Include/core_cm55.h **** #define xPSR_GE_Msk                        (0xFUL << xPSR_GE_Pos)                         /*!< xPSR
 430:../../STM32Cube_FW_N6/Drivers/CMSIS/Include/core_cm55.h **** 
 431:../../STM32Cube_FW_N6/Drivers/CMSIS/Include/core_cm55.h **** #define xPSR_ISR_Pos                        0U                                            /*!< xPSR
 432:../../STM32Cube_FW_N6/Drivers/CMSIS/Include/core_cm55.h **** #define xPSR_ISR_Msk                       (0x1FFUL /*<< xPSR_ISR_Pos*/)                  /*!< xPSR
 433:../../STM32Cube_FW_N6/Drivers/CMSIS/Include/core_cm55.h **** 
 434:../../STM32Cube_FW_N6/Drivers/CMSIS/Include/core_cm55.h **** 
 435:../../STM32Cube_FW_N6/Drivers/CMSIS/Include/core_cm55.h **** /**
 436:../../STM32Cube_FW_N6/Drivers/CMSIS/Include/core_cm55.h ****   \brief  Union type to access the Control Registers (CONTROL).
 437:../../STM32Cube_FW_N6/Drivers/CMSIS/Include/core_cm55.h ****  */
 438:../../STM32Cube_FW_N6/Drivers/CMSIS/Include/core_cm55.h **** typedef union
 439:../../STM32Cube_FW_N6/Drivers/CMSIS/Include/core_cm55.h **** {
 440:../../STM32Cube_FW_N6/Drivers/CMSIS/Include/core_cm55.h ****   struct
 441:../../STM32Cube_FW_N6/Drivers/CMSIS/Include/core_cm55.h ****   {
 442:../../STM32Cube_FW_N6/Drivers/CMSIS/Include/core_cm55.h ****     uint32_t nPRIV:1;                    /*!< bit:      0  Execution privilege in Thread mode */
 443:../../STM32Cube_FW_N6/Drivers/CMSIS/Include/core_cm55.h ****     uint32_t SPSEL:1;                    /*!< bit:      1  Stack-pointer select */
 444:../../STM32Cube_FW_N6/Drivers/CMSIS/Include/core_cm55.h ****     uint32_t FPCA:1;                     /*!< bit:      2  Floating-point context active */
 445:../../STM32Cube_FW_N6/Drivers/CMSIS/Include/core_cm55.h ****     uint32_t SFPA:1;                     /*!< bit:      3  Secure floating-point active */
 446:../../STM32Cube_FW_N6/Drivers/CMSIS/Include/core_cm55.h ****     uint32_t _reserved1:28;              /*!< bit:  4..31  Reserved */
 447:../../STM32Cube_FW_N6/Drivers/CMSIS/Include/core_cm55.h ****   } b;                                   /*!< Structure used for bit  access */
 448:../../STM32Cube_FW_N6/Drivers/CMSIS/Include/core_cm55.h ****   uint32_t w;                            /*!< Type      used for word access */
 449:../../STM32Cube_FW_N6/Drivers/CMSIS/Include/core_cm55.h **** } CONTROL_Type;
 450:../../STM32Cube_FW_N6/Drivers/CMSIS/Include/core_cm55.h **** 
 451:../../STM32Cube_FW_N6/Drivers/CMSIS/Include/core_cm55.h **** /* CONTROL Register Definitions */
ARM GAS  C:\Users\Antonio\AppData\Local\Temp\ccDsuHnY.s 			page 29


 452:../../STM32Cube_FW_N6/Drivers/CMSIS/Include/core_cm55.h **** #define CONTROL_SFPA_Pos                    3U                                            /*!< CONT
 453:../../STM32Cube_FW_N6/Drivers/CMSIS/Include/core_cm55.h **** #define CONTROL_SFPA_Msk                   (1UL << CONTROL_SFPA_Pos)                      /*!< CONT
 454:../../STM32Cube_FW_N6/Drivers/CMSIS/Include/core_cm55.h **** 
 455:../../STM32Cube_FW_N6/Drivers/CMSIS/Include/core_cm55.h **** #define CONTROL_FPCA_Pos                    2U                                            /*!< CONT
 456:../../STM32Cube_FW_N6/Drivers/CMSIS/Include/core_cm55.h **** #define CONTROL_FPCA_Msk                   (1UL << CONTROL_FPCA_Pos)                      /*!< CONT
 457:../../STM32Cube_FW_N6/Drivers/CMSIS/Include/core_cm55.h **** 
 458:../../STM32Cube_FW_N6/Drivers/CMSIS/Include/core_cm55.h **** #define CONTROL_SPSEL_Pos                   1U                                            /*!< CONT
 459:../../STM32Cube_FW_N6/Drivers/CMSIS/Include/core_cm55.h **** #define CONTROL_SPSEL_Msk                  (1UL << CONTROL_SPSEL_Pos)                     /*!< CONT
 460:../../STM32Cube_FW_N6/Drivers/CMSIS/Include/core_cm55.h **** 
 461:../../STM32Cube_FW_N6/Drivers/CMSIS/Include/core_cm55.h **** #define CONTROL_nPRIV_Pos                   0U                                            /*!< CONT
 462:../../STM32Cube_FW_N6/Drivers/CMSIS/Include/core_cm55.h **** #define CONTROL_nPRIV_Msk                  (1UL /*<< CONTROL_nPRIV_Pos*/)                 /*!< CONT
 463:../../STM32Cube_FW_N6/Drivers/CMSIS/Include/core_cm55.h **** 
 464:../../STM32Cube_FW_N6/Drivers/CMSIS/Include/core_cm55.h **** /*@} end of group CMSIS_CORE */
 465:../../STM32Cube_FW_N6/Drivers/CMSIS/Include/core_cm55.h **** 
 466:../../STM32Cube_FW_N6/Drivers/CMSIS/Include/core_cm55.h **** 
 467:../../STM32Cube_FW_N6/Drivers/CMSIS/Include/core_cm55.h **** /**
 468:../../STM32Cube_FW_N6/Drivers/CMSIS/Include/core_cm55.h ****   \ingroup    CMSIS_core_register
 469:../../STM32Cube_FW_N6/Drivers/CMSIS/Include/core_cm55.h ****   \defgroup   CMSIS_NVIC  Nested Vectored Interrupt Controller (NVIC)
 470:../../STM32Cube_FW_N6/Drivers/CMSIS/Include/core_cm55.h ****   \brief      Type definitions for the NVIC Registers
 471:../../STM32Cube_FW_N6/Drivers/CMSIS/Include/core_cm55.h ****   @{
 472:../../STM32Cube_FW_N6/Drivers/CMSIS/Include/core_cm55.h ****  */
 473:../../STM32Cube_FW_N6/Drivers/CMSIS/Include/core_cm55.h **** 
 474:../../STM32Cube_FW_N6/Drivers/CMSIS/Include/core_cm55.h **** /**
 475:../../STM32Cube_FW_N6/Drivers/CMSIS/Include/core_cm55.h ****   \brief  Structure type to access the Nested Vectored Interrupt Controller (NVIC).
 476:../../STM32Cube_FW_N6/Drivers/CMSIS/Include/core_cm55.h ****  */
 477:../../STM32Cube_FW_N6/Drivers/CMSIS/Include/core_cm55.h **** typedef struct
 478:../../STM32Cube_FW_N6/Drivers/CMSIS/Include/core_cm55.h **** {
 479:../../STM32Cube_FW_N6/Drivers/CMSIS/Include/core_cm55.h ****   __IOM uint32_t ISER[16U];              /*!< Offset: 0x000 (R/W)  Interrupt Set Enable Register */
 480:../../STM32Cube_FW_N6/Drivers/CMSIS/Include/core_cm55.h ****         uint32_t RESERVED0[16U];
 481:../../STM32Cube_FW_N6/Drivers/CMSIS/Include/core_cm55.h ****   __IOM uint32_t ICER[16U];              /*!< Offset: 0x080 (R/W)  Interrupt Clear Enable Register 
 482:../../STM32Cube_FW_N6/Drivers/CMSIS/Include/core_cm55.h ****         uint32_t RSERVED1[16U];
 483:../../STM32Cube_FW_N6/Drivers/CMSIS/Include/core_cm55.h ****   __IOM uint32_t ISPR[16U];              /*!< Offset: 0x100 (R/W)  Interrupt Set Pending Register *
 484:../../STM32Cube_FW_N6/Drivers/CMSIS/Include/core_cm55.h ****         uint32_t RESERVED2[16U];
 485:../../STM32Cube_FW_N6/Drivers/CMSIS/Include/core_cm55.h ****   __IOM uint32_t ICPR[16U];              /*!< Offset: 0x180 (R/W)  Interrupt Clear Pending Register
 486:../../STM32Cube_FW_N6/Drivers/CMSIS/Include/core_cm55.h ****         uint32_t RESERVED3[16U];
 487:../../STM32Cube_FW_N6/Drivers/CMSIS/Include/core_cm55.h ****   __IOM uint32_t IABR[16U];              /*!< Offset: 0x200 (R/W)  Interrupt Active bit Register */
 488:../../STM32Cube_FW_N6/Drivers/CMSIS/Include/core_cm55.h ****         uint32_t RESERVED4[16U];
 489:../../STM32Cube_FW_N6/Drivers/CMSIS/Include/core_cm55.h ****   __IOM uint32_t ITNS[16U];              /*!< Offset: 0x280 (R/W)  Interrupt Non-Secure State Regis
 490:../../STM32Cube_FW_N6/Drivers/CMSIS/Include/core_cm55.h ****         uint32_t RESERVED5[16U];
 491:../../STM32Cube_FW_N6/Drivers/CMSIS/Include/core_cm55.h ****   __IOM uint8_t  IPR[496U];              /*!< Offset: 0x300 (R/W)  Interrupt Priority Register (8Bi
 492:../../STM32Cube_FW_N6/Drivers/CMSIS/Include/core_cm55.h ****         uint32_t RESERVED6[580U];
 493:../../STM32Cube_FW_N6/Drivers/CMSIS/Include/core_cm55.h ****   __OM  uint32_t STIR;                   /*!< Offset: 0xE00 ( /W)  Software Trigger Interrupt Regis
 494:../../STM32Cube_FW_N6/Drivers/CMSIS/Include/core_cm55.h **** }  NVIC_Type;
 495:../../STM32Cube_FW_N6/Drivers/CMSIS/Include/core_cm55.h **** 
 496:../../STM32Cube_FW_N6/Drivers/CMSIS/Include/core_cm55.h **** /* Software Triggered Interrupt Register Definitions */
 497:../../STM32Cube_FW_N6/Drivers/CMSIS/Include/core_cm55.h **** #define NVIC_STIR_INTID_Pos                 0U                                         /*!< STIR: I
 498:../../STM32Cube_FW_N6/Drivers/CMSIS/Include/core_cm55.h **** #define NVIC_STIR_INTID_Msk                (0x1FFUL /*<< NVIC_STIR_INTID_Pos*/)        /*!< STIR: I
 499:../../STM32Cube_FW_N6/Drivers/CMSIS/Include/core_cm55.h **** 
 500:../../STM32Cube_FW_N6/Drivers/CMSIS/Include/core_cm55.h **** /*@} end of group CMSIS_NVIC */
 501:../../STM32Cube_FW_N6/Drivers/CMSIS/Include/core_cm55.h **** 
 502:../../STM32Cube_FW_N6/Drivers/CMSIS/Include/core_cm55.h **** 
 503:../../STM32Cube_FW_N6/Drivers/CMSIS/Include/core_cm55.h **** /**
 504:../../STM32Cube_FW_N6/Drivers/CMSIS/Include/core_cm55.h ****   \ingroup  CMSIS_core_register
 505:../../STM32Cube_FW_N6/Drivers/CMSIS/Include/core_cm55.h ****   \defgroup CMSIS_SCB     System Control Block (SCB)
 506:../../STM32Cube_FW_N6/Drivers/CMSIS/Include/core_cm55.h ****   \brief    Type definitions for the System Control Block Registers
 507:../../STM32Cube_FW_N6/Drivers/CMSIS/Include/core_cm55.h ****   @{
 508:../../STM32Cube_FW_N6/Drivers/CMSIS/Include/core_cm55.h ****  */
ARM GAS  C:\Users\Antonio\AppData\Local\Temp\ccDsuHnY.s 			page 30


 509:../../STM32Cube_FW_N6/Drivers/CMSIS/Include/core_cm55.h **** 
 510:../../STM32Cube_FW_N6/Drivers/CMSIS/Include/core_cm55.h **** /**
 511:../../STM32Cube_FW_N6/Drivers/CMSIS/Include/core_cm55.h ****   \brief  Structure type to access the System Control Block (SCB).
 512:../../STM32Cube_FW_N6/Drivers/CMSIS/Include/core_cm55.h ****  */
 513:../../STM32Cube_FW_N6/Drivers/CMSIS/Include/core_cm55.h **** typedef struct
 514:../../STM32Cube_FW_N6/Drivers/CMSIS/Include/core_cm55.h **** {
 515:../../STM32Cube_FW_N6/Drivers/CMSIS/Include/core_cm55.h ****   __IM  uint32_t CPUID;                  /*!< Offset: 0x000 (R/ )  CPUID Base Register */
 516:../../STM32Cube_FW_N6/Drivers/CMSIS/Include/core_cm55.h ****   __IOM uint32_t ICSR;                   /*!< Offset: 0x004 (R/W)  Interrupt Control and State Regi
 517:../../STM32Cube_FW_N6/Drivers/CMSIS/Include/core_cm55.h ****   __IOM uint32_t VTOR;                   /*!< Offset: 0x008 (R/W)  Vector Table Offset Register */
 518:../../STM32Cube_FW_N6/Drivers/CMSIS/Include/core_cm55.h ****   __IOM uint32_t AIRCR;                  /*!< Offset: 0x00C (R/W)  Application Interrupt and Reset 
 519:../../STM32Cube_FW_N6/Drivers/CMSIS/Include/core_cm55.h ****   __IOM uint32_t SCR;                    /*!< Offset: 0x010 (R/W)  System Control Register */
 520:../../STM32Cube_FW_N6/Drivers/CMSIS/Include/core_cm55.h ****   __IOM uint32_t CCR;                    /*!< Offset: 0x014 (R/W)  Configuration Control Register *
 521:../../STM32Cube_FW_N6/Drivers/CMSIS/Include/core_cm55.h ****   __IOM uint8_t  SHPR[12U];              /*!< Offset: 0x018 (R/W)  System Handlers Priority Registe
 522:../../STM32Cube_FW_N6/Drivers/CMSIS/Include/core_cm55.h ****   __IOM uint32_t SHCSR;                  /*!< Offset: 0x024 (R/W)  System Handler Control and State
 523:../../STM32Cube_FW_N6/Drivers/CMSIS/Include/core_cm55.h ****   __IOM uint32_t CFSR;                   /*!< Offset: 0x028 (R/W)  Configurable Fault Status Regist
 524:../../STM32Cube_FW_N6/Drivers/CMSIS/Include/core_cm55.h ****   __IOM uint32_t HFSR;                   /*!< Offset: 0x02C (R/W)  HardFault Status Register */
 525:../../STM32Cube_FW_N6/Drivers/CMSIS/Include/core_cm55.h ****   __IOM uint32_t DFSR;                   /*!< Offset: 0x030 (R/W)  Debug Fault Status Register */
 526:../../STM32Cube_FW_N6/Drivers/CMSIS/Include/core_cm55.h ****   __IOM uint32_t MMFAR;                  /*!< Offset: 0x034 (R/W)  MemManage Fault Address Register
 527:../../STM32Cube_FW_N6/Drivers/CMSIS/Include/core_cm55.h ****   __IOM uint32_t BFAR;                   /*!< Offset: 0x038 (R/W)  BusFault Address Register */
 528:../../STM32Cube_FW_N6/Drivers/CMSIS/Include/core_cm55.h ****   __IOM uint32_t AFSR;                   /*!< Offset: 0x03C (R/W)  Auxiliary Fault Status Register 
 529:../../STM32Cube_FW_N6/Drivers/CMSIS/Include/core_cm55.h ****   __IM  uint32_t ID_PFR[2U];             /*!< Offset: 0x040 (R/ )  Processor Feature Register */
 530:../../STM32Cube_FW_N6/Drivers/CMSIS/Include/core_cm55.h ****   __IM  uint32_t ID_DFR;                 /*!< Offset: 0x048 (R/ )  Debug Feature Register */
 531:../../STM32Cube_FW_N6/Drivers/CMSIS/Include/core_cm55.h ****   __IM  uint32_t ID_AFR;                 /*!< Offset: 0x04C (R/ )  Auxiliary Feature Register */
 532:../../STM32Cube_FW_N6/Drivers/CMSIS/Include/core_cm55.h ****   __IM  uint32_t ID_MMFR[4U];            /*!< Offset: 0x050 (R/ )  Memory Model Feature Register */
 533:../../STM32Cube_FW_N6/Drivers/CMSIS/Include/core_cm55.h ****   __IM  uint32_t ID_ISAR[6U];            /*!< Offset: 0x060 (R/ )  Instruction Set Attributes Regis
 534:../../STM32Cube_FW_N6/Drivers/CMSIS/Include/core_cm55.h ****   __IM  uint32_t CLIDR;                  /*!< Offset: 0x078 (R/ )  Cache Level ID register */
 535:../../STM32Cube_FW_N6/Drivers/CMSIS/Include/core_cm55.h ****   __IM  uint32_t CTR;                    /*!< Offset: 0x07C (R/ )  Cache Type register */
 536:../../STM32Cube_FW_N6/Drivers/CMSIS/Include/core_cm55.h ****   __IM  uint32_t CCSIDR;                 /*!< Offset: 0x080 (R/ )  Cache Size ID Register */
 537:../../STM32Cube_FW_N6/Drivers/CMSIS/Include/core_cm55.h ****   __IOM uint32_t CSSELR;                 /*!< Offset: 0x084 (R/W)  Cache Size Selection Register */
 538:../../STM32Cube_FW_N6/Drivers/CMSIS/Include/core_cm55.h ****   __IOM uint32_t CPACR;                  /*!< Offset: 0x088 (R/W)  Coprocessor Access Control Regis
 539:../../STM32Cube_FW_N6/Drivers/CMSIS/Include/core_cm55.h ****   __IOM uint32_t NSACR;                  /*!< Offset: 0x08C (R/W)  Non-Secure Access Control Regist
 540:../../STM32Cube_FW_N6/Drivers/CMSIS/Include/core_cm55.h ****         uint32_t RESERVED7[21U];
 541:../../STM32Cube_FW_N6/Drivers/CMSIS/Include/core_cm55.h ****   __IOM uint32_t SFSR;                   /*!< Offset: 0x0E4 (R/W)  Secure Fault Status Register */
 542:../../STM32Cube_FW_N6/Drivers/CMSIS/Include/core_cm55.h ****   __IOM uint32_t SFAR;                   /*!< Offset: 0x0E8 (R/W)  Secure Fault Address Register */
 543:../../STM32Cube_FW_N6/Drivers/CMSIS/Include/core_cm55.h ****         uint32_t RESERVED3[69U];
 544:../../STM32Cube_FW_N6/Drivers/CMSIS/Include/core_cm55.h ****   __OM  uint32_t STIR;                   /*!< Offset: 0x200 ( /W)  Software Triggered Interrupt Reg
 545:../../STM32Cube_FW_N6/Drivers/CMSIS/Include/core_cm55.h ****   __IOM uint32_t RFSR;                   /*!< Offset: 0x204 (R/W)  RAS Fault Status Register */
 546:../../STM32Cube_FW_N6/Drivers/CMSIS/Include/core_cm55.h ****         uint32_t RESERVED4[14U];
 547:../../STM32Cube_FW_N6/Drivers/CMSIS/Include/core_cm55.h ****   __IM  uint32_t MVFR0;                  /*!< Offset: 0x240 (R/ )  Media and VFP Feature Register 0
 548:../../STM32Cube_FW_N6/Drivers/CMSIS/Include/core_cm55.h ****   __IM  uint32_t MVFR1;                  /*!< Offset: 0x244 (R/ )  Media and VFP Feature Register 1
 549:../../STM32Cube_FW_N6/Drivers/CMSIS/Include/core_cm55.h ****   __IM  uint32_t MVFR2;                  /*!< Offset: 0x248 (R/ )  Media and VFP Feature Register 2
 550:../../STM32Cube_FW_N6/Drivers/CMSIS/Include/core_cm55.h ****         uint32_t RESERVED5[1U];
 551:../../STM32Cube_FW_N6/Drivers/CMSIS/Include/core_cm55.h ****   __OM  uint32_t ICIALLU;                /*!< Offset: 0x250 ( /W)  I-Cache Invalidate All to PoU */
 552:../../STM32Cube_FW_N6/Drivers/CMSIS/Include/core_cm55.h ****         uint32_t RESERVED6[1U];
 553:../../STM32Cube_FW_N6/Drivers/CMSIS/Include/core_cm55.h ****   __OM  uint32_t ICIMVAU;                /*!< Offset: 0x258 ( /W)  I-Cache Invalidate by MVA to PoU
 554:../../STM32Cube_FW_N6/Drivers/CMSIS/Include/core_cm55.h ****   __OM  uint32_t DCIMVAC;                /*!< Offset: 0x25C ( /W)  D-Cache Invalidate by MVA to PoC
 555:../../STM32Cube_FW_N6/Drivers/CMSIS/Include/core_cm55.h ****   __OM  uint32_t DCISW;                  /*!< Offset: 0x260 ( /W)  D-Cache Invalidate by Set-way */
 556:../../STM32Cube_FW_N6/Drivers/CMSIS/Include/core_cm55.h ****   __OM  uint32_t DCCMVAU;                /*!< Offset: 0x264 ( /W)  D-Cache Clean by MVA to PoU */
 557:../../STM32Cube_FW_N6/Drivers/CMSIS/Include/core_cm55.h ****   __OM  uint32_t DCCMVAC;                /*!< Offset: 0x268 ( /W)  D-Cache Clean by MVA to PoC */
 558:../../STM32Cube_FW_N6/Drivers/CMSIS/Include/core_cm55.h ****   __OM  uint32_t DCCSW;                  /*!< Offset: 0x26C ( /W)  D-Cache Clean by Set-way */
 559:../../STM32Cube_FW_N6/Drivers/CMSIS/Include/core_cm55.h ****   __OM  uint32_t DCCIMVAC;               /*!< Offset: 0x270 ( /W)  D-Cache Clean and Invalidate by 
 560:../../STM32Cube_FW_N6/Drivers/CMSIS/Include/core_cm55.h ****   __OM  uint32_t DCCISW;                 /*!< Offset: 0x274 ( /W)  D-Cache Clean and Invalidate by 
 561:../../STM32Cube_FW_N6/Drivers/CMSIS/Include/core_cm55.h ****   __OM  uint32_t BPIALL;                 /*!< Offset: 0x278 ( /W)  Branch Predictor Invalidate All 
 562:../../STM32Cube_FW_N6/Drivers/CMSIS/Include/core_cm55.h **** } SCB_Type;
 563:../../STM32Cube_FW_N6/Drivers/CMSIS/Include/core_cm55.h **** 
 564:../../STM32Cube_FW_N6/Drivers/CMSIS/Include/core_cm55.h **** /* SCB CPUID Register Definitions */
 565:../../STM32Cube_FW_N6/Drivers/CMSIS/Include/core_cm55.h **** #define SCB_CPUID_IMPLEMENTER_Pos          24U                                            /*!< SCB 
ARM GAS  C:\Users\Antonio\AppData\Local\Temp\ccDsuHnY.s 			page 31


 566:../../STM32Cube_FW_N6/Drivers/CMSIS/Include/core_cm55.h **** #define SCB_CPUID_IMPLEMENTER_Msk          (0xFFUL << SCB_CPUID_IMPLEMENTER_Pos)          /*!< SCB 
 567:../../STM32Cube_FW_N6/Drivers/CMSIS/Include/core_cm55.h **** 
 568:../../STM32Cube_FW_N6/Drivers/CMSIS/Include/core_cm55.h **** #define SCB_CPUID_VARIANT_Pos              20U                                            /*!< SCB 
 569:../../STM32Cube_FW_N6/Drivers/CMSIS/Include/core_cm55.h **** #define SCB_CPUID_VARIANT_Msk              (0xFUL << SCB_CPUID_VARIANT_Pos)               /*!< SCB 
 570:../../STM32Cube_FW_N6/Drivers/CMSIS/Include/core_cm55.h **** 
 571:../../STM32Cube_FW_N6/Drivers/CMSIS/Include/core_cm55.h **** #define SCB_CPUID_ARCHITECTURE_Pos         16U                                            /*!< SCB 
 572:../../STM32Cube_FW_N6/Drivers/CMSIS/Include/core_cm55.h **** #define SCB_CPUID_ARCHITECTURE_Msk         (0xFUL << SCB_CPUID_ARCHITECTURE_Pos)          /*!< SCB 
 573:../../STM32Cube_FW_N6/Drivers/CMSIS/Include/core_cm55.h **** 
 574:../../STM32Cube_FW_N6/Drivers/CMSIS/Include/core_cm55.h **** #define SCB_CPUID_PARTNO_Pos                4U                                            /*!< SCB 
 575:../../STM32Cube_FW_N6/Drivers/CMSIS/Include/core_cm55.h **** #define SCB_CPUID_PARTNO_Msk               (0xFFFUL << SCB_CPUID_PARTNO_Pos)              /*!< SCB 
 576:../../STM32Cube_FW_N6/Drivers/CMSIS/Include/core_cm55.h **** 
 577:../../STM32Cube_FW_N6/Drivers/CMSIS/Include/core_cm55.h **** #define SCB_CPUID_REVISION_Pos              0U                                            /*!< SCB 
 578:../../STM32Cube_FW_N6/Drivers/CMSIS/Include/core_cm55.h **** #define SCB_CPUID_REVISION_Msk             (0xFUL /*<< SCB_CPUID_REVISION_Pos*/)          /*!< SCB 
 579:../../STM32Cube_FW_N6/Drivers/CMSIS/Include/core_cm55.h **** 
 580:../../STM32Cube_FW_N6/Drivers/CMSIS/Include/core_cm55.h **** /* SCB Interrupt Control State Register Definitions */
 581:../../STM32Cube_FW_N6/Drivers/CMSIS/Include/core_cm55.h **** #define SCB_ICSR_PENDNMISET_Pos            31U                                            /*!< SCB 
 582:../../STM32Cube_FW_N6/Drivers/CMSIS/Include/core_cm55.h **** #define SCB_ICSR_PENDNMISET_Msk            (1UL << SCB_ICSR_PENDNMISET_Pos)               /*!< SCB 
 583:../../STM32Cube_FW_N6/Drivers/CMSIS/Include/core_cm55.h **** 
 584:../../STM32Cube_FW_N6/Drivers/CMSIS/Include/core_cm55.h **** #define SCB_ICSR_NMIPENDSET_Pos            SCB_ICSR_PENDNMISET_Pos                        /*!< SCB 
 585:../../STM32Cube_FW_N6/Drivers/CMSIS/Include/core_cm55.h **** #define SCB_ICSR_NMIPENDSET_Msk            SCB_ICSR_PENDNMISET_Msk                        /*!< SCB 
 586:../../STM32Cube_FW_N6/Drivers/CMSIS/Include/core_cm55.h **** 
 587:../../STM32Cube_FW_N6/Drivers/CMSIS/Include/core_cm55.h **** #define SCB_ICSR_PENDNMICLR_Pos            30U                                            /*!< SCB 
 588:../../STM32Cube_FW_N6/Drivers/CMSIS/Include/core_cm55.h **** #define SCB_ICSR_PENDNMICLR_Msk            (1UL << SCB_ICSR_PENDNMICLR_Pos)               /*!< SCB 
 589:../../STM32Cube_FW_N6/Drivers/CMSIS/Include/core_cm55.h **** 
 590:../../STM32Cube_FW_N6/Drivers/CMSIS/Include/core_cm55.h **** #define SCB_ICSR_PENDSVSET_Pos             28U                                            /*!< SCB 
 591:../../STM32Cube_FW_N6/Drivers/CMSIS/Include/core_cm55.h **** #define SCB_ICSR_PENDSVSET_Msk             (1UL << SCB_ICSR_PENDSVSET_Pos)                /*!< SCB 
 592:../../STM32Cube_FW_N6/Drivers/CMSIS/Include/core_cm55.h **** 
 593:../../STM32Cube_FW_N6/Drivers/CMSIS/Include/core_cm55.h **** #define SCB_ICSR_PENDSVCLR_Pos             27U                                            /*!< SCB 
 594:../../STM32Cube_FW_N6/Drivers/CMSIS/Include/core_cm55.h **** #define SCB_ICSR_PENDSVCLR_Msk             (1UL << SCB_ICSR_PENDSVCLR_Pos)                /*!< SCB 
 595:../../STM32Cube_FW_N6/Drivers/CMSIS/Include/core_cm55.h **** 
 596:../../STM32Cube_FW_N6/Drivers/CMSIS/Include/core_cm55.h **** #define SCB_ICSR_PENDSTSET_Pos             26U                                            /*!< SCB 
 597:../../STM32Cube_FW_N6/Drivers/CMSIS/Include/core_cm55.h **** #define SCB_ICSR_PENDSTSET_Msk             (1UL << SCB_ICSR_PENDSTSET_Pos)                /*!< SCB 
 598:../../STM32Cube_FW_N6/Drivers/CMSIS/Include/core_cm55.h **** 
 599:../../STM32Cube_FW_N6/Drivers/CMSIS/Include/core_cm55.h **** #define SCB_ICSR_PENDSTCLR_Pos             25U                                            /*!< SCB 
 600:../../STM32Cube_FW_N6/Drivers/CMSIS/Include/core_cm55.h **** #define SCB_ICSR_PENDSTCLR_Msk             (1UL << SCB_ICSR_PENDSTCLR_Pos)                /*!< SCB 
 601:../../STM32Cube_FW_N6/Drivers/CMSIS/Include/core_cm55.h **** 
 602:../../STM32Cube_FW_N6/Drivers/CMSIS/Include/core_cm55.h **** #define SCB_ICSR_STTNS_Pos                 24U                                            /*!< SCB 
 603:../../STM32Cube_FW_N6/Drivers/CMSIS/Include/core_cm55.h **** #define SCB_ICSR_STTNS_Msk                 (1UL << SCB_ICSR_STTNS_Pos)                    /*!< SCB 
 604:../../STM32Cube_FW_N6/Drivers/CMSIS/Include/core_cm55.h **** 
 605:../../STM32Cube_FW_N6/Drivers/CMSIS/Include/core_cm55.h **** #define SCB_ICSR_ISRPREEMPT_Pos            23U                                            /*!< SCB 
 606:../../STM32Cube_FW_N6/Drivers/CMSIS/Include/core_cm55.h **** #define SCB_ICSR_ISRPREEMPT_Msk            (1UL << SCB_ICSR_ISRPREEMPT_Pos)               /*!< SCB 
 607:../../STM32Cube_FW_N6/Drivers/CMSIS/Include/core_cm55.h **** 
 608:../../STM32Cube_FW_N6/Drivers/CMSIS/Include/core_cm55.h **** #define SCB_ICSR_ISRPENDING_Pos            22U                                            /*!< SCB 
 609:../../STM32Cube_FW_N6/Drivers/CMSIS/Include/core_cm55.h **** #define SCB_ICSR_ISRPENDING_Msk            (1UL << SCB_ICSR_ISRPENDING_Pos)               /*!< SCB 
 610:../../STM32Cube_FW_N6/Drivers/CMSIS/Include/core_cm55.h **** 
 611:../../STM32Cube_FW_N6/Drivers/CMSIS/Include/core_cm55.h **** #define SCB_ICSR_VECTPENDING_Pos           12U                                            /*!< SCB 
 612:../../STM32Cube_FW_N6/Drivers/CMSIS/Include/core_cm55.h **** #define SCB_ICSR_VECTPENDING_Msk           (0x1FFUL << SCB_ICSR_VECTPENDING_Pos)          /*!< SCB 
 613:../../STM32Cube_FW_N6/Drivers/CMSIS/Include/core_cm55.h **** 
 614:../../STM32Cube_FW_N6/Drivers/CMSIS/Include/core_cm55.h **** #define SCB_ICSR_RETTOBASE_Pos             11U                                            /*!< SCB 
 615:../../STM32Cube_FW_N6/Drivers/CMSIS/Include/core_cm55.h **** #define SCB_ICSR_RETTOBASE_Msk             (1UL << SCB_ICSR_RETTOBASE_Pos)                /*!< SCB 
 616:../../STM32Cube_FW_N6/Drivers/CMSIS/Include/core_cm55.h **** 
 617:../../STM32Cube_FW_N6/Drivers/CMSIS/Include/core_cm55.h **** #define SCB_ICSR_VECTACTIVE_Pos             0U                                            /*!< SCB 
 618:../../STM32Cube_FW_N6/Drivers/CMSIS/Include/core_cm55.h **** #define SCB_ICSR_VECTACTIVE_Msk            (0x1FFUL /*<< SCB_ICSR_VECTACTIVE_Pos*/)       /*!< SCB 
 619:../../STM32Cube_FW_N6/Drivers/CMSIS/Include/core_cm55.h **** 
 620:../../STM32Cube_FW_N6/Drivers/CMSIS/Include/core_cm55.h **** /* SCB Vector Table Offset Register Definitions */
 621:../../STM32Cube_FW_N6/Drivers/CMSIS/Include/core_cm55.h **** #define SCB_VTOR_TBLOFF_Pos                 7U                                            /*!< SCB 
 622:../../STM32Cube_FW_N6/Drivers/CMSIS/Include/core_cm55.h **** #define SCB_VTOR_TBLOFF_Msk                (0x1FFFFFFUL << SCB_VTOR_TBLOFF_Pos)           /*!< SCB 
ARM GAS  C:\Users\Antonio\AppData\Local\Temp\ccDsuHnY.s 			page 32


 623:../../STM32Cube_FW_N6/Drivers/CMSIS/Include/core_cm55.h **** 
 624:../../STM32Cube_FW_N6/Drivers/CMSIS/Include/core_cm55.h **** /* SCB Application Interrupt and Reset Control Register Definitions */
 625:../../STM32Cube_FW_N6/Drivers/CMSIS/Include/core_cm55.h **** #define SCB_AIRCR_VECTKEY_Pos              16U                                            /*!< SCB 
 626:../../STM32Cube_FW_N6/Drivers/CMSIS/Include/core_cm55.h **** #define SCB_AIRCR_VECTKEY_Msk              (0xFFFFUL << SCB_AIRCR_VECTKEY_Pos)            /*!< SCB 
 627:../../STM32Cube_FW_N6/Drivers/CMSIS/Include/core_cm55.h **** 
 628:../../STM32Cube_FW_N6/Drivers/CMSIS/Include/core_cm55.h **** #define SCB_AIRCR_VECTKEYSTAT_Pos          16U                                            /*!< SCB 
 629:../../STM32Cube_FW_N6/Drivers/CMSIS/Include/core_cm55.h **** #define SCB_AIRCR_VECTKEYSTAT_Msk          (0xFFFFUL << SCB_AIRCR_VECTKEYSTAT_Pos)        /*!< SCB 
 630:../../STM32Cube_FW_N6/Drivers/CMSIS/Include/core_cm55.h **** 
 631:../../STM32Cube_FW_N6/Drivers/CMSIS/Include/core_cm55.h **** #define SCB_AIRCR_ENDIANESS_Pos            15U                                            /*!< SCB 
 632:../../STM32Cube_FW_N6/Drivers/CMSIS/Include/core_cm55.h **** #define SCB_AIRCR_ENDIANESS_Msk            (1UL << SCB_AIRCR_ENDIANESS_Pos)               /*!< SCB 
 633:../../STM32Cube_FW_N6/Drivers/CMSIS/Include/core_cm55.h **** 
 634:../../STM32Cube_FW_N6/Drivers/CMSIS/Include/core_cm55.h **** #define SCB_AIRCR_PRIS_Pos                 14U                                            /*!< SCB 
 635:../../STM32Cube_FW_N6/Drivers/CMSIS/Include/core_cm55.h **** #define SCB_AIRCR_PRIS_Msk                 (1UL << SCB_AIRCR_PRIS_Pos)                    /*!< SCB 
 636:../../STM32Cube_FW_N6/Drivers/CMSIS/Include/core_cm55.h **** 
 637:../../STM32Cube_FW_N6/Drivers/CMSIS/Include/core_cm55.h **** #define SCB_AIRCR_BFHFNMINS_Pos            13U                                            /*!< SCB 
 638:../../STM32Cube_FW_N6/Drivers/CMSIS/Include/core_cm55.h **** #define SCB_AIRCR_BFHFNMINS_Msk            (1UL << SCB_AIRCR_BFHFNMINS_Pos)               /*!< SCB 
 639:../../STM32Cube_FW_N6/Drivers/CMSIS/Include/core_cm55.h **** 
 640:../../STM32Cube_FW_N6/Drivers/CMSIS/Include/core_cm55.h **** #define SCB_AIRCR_PRIGROUP_Pos              8U                                            /*!< SCB 
 641:../../STM32Cube_FW_N6/Drivers/CMSIS/Include/core_cm55.h **** #define SCB_AIRCR_PRIGROUP_Msk             (7UL << SCB_AIRCR_PRIGROUP_Pos)                /*!< SCB 
 642:../../STM32Cube_FW_N6/Drivers/CMSIS/Include/core_cm55.h **** 
 643:../../STM32Cube_FW_N6/Drivers/CMSIS/Include/core_cm55.h **** #define SCB_AIRCR_IESB_Pos                  5U                                            /*!< SCB 
 644:../../STM32Cube_FW_N6/Drivers/CMSIS/Include/core_cm55.h **** #define SCB_AIRCR_IESB_Msk                 (1UL << SCB_AIRCR_IESB_Pos)                    /*!< SCB 
 645:../../STM32Cube_FW_N6/Drivers/CMSIS/Include/core_cm55.h **** 
 646:../../STM32Cube_FW_N6/Drivers/CMSIS/Include/core_cm55.h **** #define SCB_AIRCR_DIT_Pos                   4U                                            /*!< SCB 
 647:../../STM32Cube_FW_N6/Drivers/CMSIS/Include/core_cm55.h **** #define SCB_AIRCR_DIT_Msk                  (1UL << SCB_AIRCR_DIT_Pos)                     /*!< SCB 
 648:../../STM32Cube_FW_N6/Drivers/CMSIS/Include/core_cm55.h **** 
 649:../../STM32Cube_FW_N6/Drivers/CMSIS/Include/core_cm55.h **** #define SCB_AIRCR_SYSRESETREQS_Pos          3U                                            /*!< SCB 
 650:../../STM32Cube_FW_N6/Drivers/CMSIS/Include/core_cm55.h **** #define SCB_AIRCR_SYSRESETREQS_Msk         (1UL << SCB_AIRCR_SYSRESETREQS_Pos)            /*!< SCB 
 651:../../STM32Cube_FW_N6/Drivers/CMSIS/Include/core_cm55.h **** 
 652:../../STM32Cube_FW_N6/Drivers/CMSIS/Include/core_cm55.h **** #define SCB_AIRCR_SYSRESETREQ_Pos           2U                                            /*!< SCB 
 653:../../STM32Cube_FW_N6/Drivers/CMSIS/Include/core_cm55.h **** #define SCB_AIRCR_SYSRESETREQ_Msk          (1UL << SCB_AIRCR_SYSRESETREQ_Pos)             /*!< SCB 
 654:../../STM32Cube_FW_N6/Drivers/CMSIS/Include/core_cm55.h **** 
 655:../../STM32Cube_FW_N6/Drivers/CMSIS/Include/core_cm55.h **** #define SCB_AIRCR_VECTCLRACTIVE_Pos         1U                                            /*!< SCB 
 656:../../STM32Cube_FW_N6/Drivers/CMSIS/Include/core_cm55.h **** #define SCB_AIRCR_VECTCLRACTIVE_Msk        (1UL << SCB_AIRCR_VECTCLRACTIVE_Pos)           /*!< SCB 
 657:../../STM32Cube_FW_N6/Drivers/CMSIS/Include/core_cm55.h **** 
 658:../../STM32Cube_FW_N6/Drivers/CMSIS/Include/core_cm55.h **** /* SCB System Control Register Definitions */
 659:../../STM32Cube_FW_N6/Drivers/CMSIS/Include/core_cm55.h **** #define SCB_SCR_SEVONPEND_Pos               4U                                            /*!< SCB 
 660:../../STM32Cube_FW_N6/Drivers/CMSIS/Include/core_cm55.h **** #define SCB_SCR_SEVONPEND_Msk              (1UL << SCB_SCR_SEVONPEND_Pos)                 /*!< SCB 
 661:../../STM32Cube_FW_N6/Drivers/CMSIS/Include/core_cm55.h **** 
 662:../../STM32Cube_FW_N6/Drivers/CMSIS/Include/core_cm55.h **** #define SCB_SCR_SLEEPDEEPS_Pos              3U                                            /*!< SCB 
 663:../../STM32Cube_FW_N6/Drivers/CMSIS/Include/core_cm55.h **** #define SCB_SCR_SLEEPDEEPS_Msk             (1UL << SCB_SCR_SLEEPDEEPS_Pos)                /*!< SCB 
 664:../../STM32Cube_FW_N6/Drivers/CMSIS/Include/core_cm55.h **** 
 665:../../STM32Cube_FW_N6/Drivers/CMSIS/Include/core_cm55.h **** #define SCB_SCR_SLEEPDEEP_Pos               2U                                            /*!< SCB 
 666:../../STM32Cube_FW_N6/Drivers/CMSIS/Include/core_cm55.h **** #define SCB_SCR_SLEEPDEEP_Msk              (1UL << SCB_SCR_SLEEPDEEP_Pos)                 /*!< SCB 
 667:../../STM32Cube_FW_N6/Drivers/CMSIS/Include/core_cm55.h **** 
 668:../../STM32Cube_FW_N6/Drivers/CMSIS/Include/core_cm55.h **** #define SCB_SCR_SLEEPONEXIT_Pos             1U                                            /*!< SCB 
 669:../../STM32Cube_FW_N6/Drivers/CMSIS/Include/core_cm55.h **** #define SCB_SCR_SLEEPONEXIT_Msk            (1UL << SCB_SCR_SLEEPONEXIT_Pos)               /*!< SCB 
 670:../../STM32Cube_FW_N6/Drivers/CMSIS/Include/core_cm55.h **** 
 671:../../STM32Cube_FW_N6/Drivers/CMSIS/Include/core_cm55.h **** /* SCB Configuration Control Register Definitions */
 672:../../STM32Cube_FW_N6/Drivers/CMSIS/Include/core_cm55.h **** #define SCB_CCR_TRD_Pos                    20U                                            /*!< SCB 
 673:../../STM32Cube_FW_N6/Drivers/CMSIS/Include/core_cm55.h **** #define SCB_CCR_TRD_Msk                    (1UL << SCB_CCR_TRD_Pos)                       /*!< SCB 
 674:../../STM32Cube_FW_N6/Drivers/CMSIS/Include/core_cm55.h **** 
 675:../../STM32Cube_FW_N6/Drivers/CMSIS/Include/core_cm55.h **** #define SCB_CCR_LOB_Pos                    19U                                            /*!< SCB 
 676:../../STM32Cube_FW_N6/Drivers/CMSIS/Include/core_cm55.h **** #define SCB_CCR_LOB_Msk                    (1UL << SCB_CCR_LOB_Pos)                       /*!< SCB 
 677:../../STM32Cube_FW_N6/Drivers/CMSIS/Include/core_cm55.h **** 
 678:../../STM32Cube_FW_N6/Drivers/CMSIS/Include/core_cm55.h **** #define SCB_CCR_BP_Pos                     18U                                            /*!< SCB 
 679:../../STM32Cube_FW_N6/Drivers/CMSIS/Include/core_cm55.h **** #define SCB_CCR_BP_Msk                     (1UL << SCB_CCR_BP_Pos)                        /*!< SCB 
ARM GAS  C:\Users\Antonio\AppData\Local\Temp\ccDsuHnY.s 			page 33


 680:../../STM32Cube_FW_N6/Drivers/CMSIS/Include/core_cm55.h **** 
 681:../../STM32Cube_FW_N6/Drivers/CMSIS/Include/core_cm55.h **** #define SCB_CCR_IC_Pos                     17U                                            /*!< SCB 
 682:../../STM32Cube_FW_N6/Drivers/CMSIS/Include/core_cm55.h **** #define SCB_CCR_IC_Msk                     (1UL << SCB_CCR_IC_Pos)                        /*!< SCB 
 683:../../STM32Cube_FW_N6/Drivers/CMSIS/Include/core_cm55.h **** 
 684:../../STM32Cube_FW_N6/Drivers/CMSIS/Include/core_cm55.h **** #define SCB_CCR_DC_Pos                     16U                                            /*!< SCB 
 685:../../STM32Cube_FW_N6/Drivers/CMSIS/Include/core_cm55.h **** #define SCB_CCR_DC_Msk                     (1UL << SCB_CCR_DC_Pos)                        /*!< SCB 
 686:../../STM32Cube_FW_N6/Drivers/CMSIS/Include/core_cm55.h **** 
 687:../../STM32Cube_FW_N6/Drivers/CMSIS/Include/core_cm55.h **** #define SCB_CCR_STKOFHFNMIGN_Pos           10U                                            /*!< SCB 
 688:../../STM32Cube_FW_N6/Drivers/CMSIS/Include/core_cm55.h **** #define SCB_CCR_STKOFHFNMIGN_Msk           (1UL << SCB_CCR_STKOFHFNMIGN_Pos)              /*!< SCB 
 689:../../STM32Cube_FW_N6/Drivers/CMSIS/Include/core_cm55.h **** 
 690:../../STM32Cube_FW_N6/Drivers/CMSIS/Include/core_cm55.h **** #define SCB_CCR_BFHFNMIGN_Pos               8U                                            /*!< SCB 
 691:../../STM32Cube_FW_N6/Drivers/CMSIS/Include/core_cm55.h **** #define SCB_CCR_BFHFNMIGN_Msk              (1UL << SCB_CCR_BFHFNMIGN_Pos)                 /*!< SCB 
 692:../../STM32Cube_FW_N6/Drivers/CMSIS/Include/core_cm55.h **** 
 693:../../STM32Cube_FW_N6/Drivers/CMSIS/Include/core_cm55.h **** #define SCB_CCR_DIV_0_TRP_Pos               4U                                            /*!< SCB 
 694:../../STM32Cube_FW_N6/Drivers/CMSIS/Include/core_cm55.h **** #define SCB_CCR_DIV_0_TRP_Msk              (1UL << SCB_CCR_DIV_0_TRP_Pos)                 /*!< SCB 
 695:../../STM32Cube_FW_N6/Drivers/CMSIS/Include/core_cm55.h **** 
 696:../../STM32Cube_FW_N6/Drivers/CMSIS/Include/core_cm55.h **** #define SCB_CCR_UNALIGN_TRP_Pos             3U                                            /*!< SCB 
 697:../../STM32Cube_FW_N6/Drivers/CMSIS/Include/core_cm55.h **** #define SCB_CCR_UNALIGN_TRP_Msk            (1UL << SCB_CCR_UNALIGN_TRP_Pos)               /*!< SCB 
 698:../../STM32Cube_FW_N6/Drivers/CMSIS/Include/core_cm55.h **** 
 699:../../STM32Cube_FW_N6/Drivers/CMSIS/Include/core_cm55.h **** #define SCB_CCR_USERSETMPEND_Pos            1U                                            /*!< SCB 
 700:../../STM32Cube_FW_N6/Drivers/CMSIS/Include/core_cm55.h **** #define SCB_CCR_USERSETMPEND_Msk           (1UL << SCB_CCR_USERSETMPEND_Pos)              /*!< SCB 
 701:../../STM32Cube_FW_N6/Drivers/CMSIS/Include/core_cm55.h **** 
 702:../../STM32Cube_FW_N6/Drivers/CMSIS/Include/core_cm55.h **** /* SCB System Handler Control and State Register Definitions */
 703:../../STM32Cube_FW_N6/Drivers/CMSIS/Include/core_cm55.h **** #define SCB_SHCSR_HARDFAULTPENDED_Pos      21U                                            /*!< SCB 
 704:../../STM32Cube_FW_N6/Drivers/CMSIS/Include/core_cm55.h **** #define SCB_SHCSR_HARDFAULTPENDED_Msk      (1UL << SCB_SHCSR_HARDFAULTPENDED_Pos)         /*!< SCB 
 705:../../STM32Cube_FW_N6/Drivers/CMSIS/Include/core_cm55.h **** 
 706:../../STM32Cube_FW_N6/Drivers/CMSIS/Include/core_cm55.h **** #define SCB_SHCSR_SECUREFAULTPENDED_Pos    20U                                            /*!< SCB 
 707:../../STM32Cube_FW_N6/Drivers/CMSIS/Include/core_cm55.h **** #define SCB_SHCSR_SECUREFAULTPENDED_Msk    (1UL << SCB_SHCSR_SECUREFAULTPENDED_Pos)       /*!< SCB 
 708:../../STM32Cube_FW_N6/Drivers/CMSIS/Include/core_cm55.h **** 
 709:../../STM32Cube_FW_N6/Drivers/CMSIS/Include/core_cm55.h **** #define SCB_SHCSR_SECUREFAULTENA_Pos       19U                                            /*!< SCB 
 710:../../STM32Cube_FW_N6/Drivers/CMSIS/Include/core_cm55.h **** #define SCB_SHCSR_SECUREFAULTENA_Msk       (1UL << SCB_SHCSR_SECUREFAULTENA_Pos)          /*!< SCB 
 711:../../STM32Cube_FW_N6/Drivers/CMSIS/Include/core_cm55.h **** 
 712:../../STM32Cube_FW_N6/Drivers/CMSIS/Include/core_cm55.h **** #define SCB_SHCSR_USGFAULTENA_Pos          18U                                            /*!< SCB 
 713:../../STM32Cube_FW_N6/Drivers/CMSIS/Include/core_cm55.h **** #define SCB_SHCSR_USGFAULTENA_Msk          (1UL << SCB_SHCSR_USGFAULTENA_Pos)             /*!< SCB 
 714:../../STM32Cube_FW_N6/Drivers/CMSIS/Include/core_cm55.h **** 
 715:../../STM32Cube_FW_N6/Drivers/CMSIS/Include/core_cm55.h **** #define SCB_SHCSR_BUSFAULTENA_Pos          17U                                            /*!< SCB 
 716:../../STM32Cube_FW_N6/Drivers/CMSIS/Include/core_cm55.h **** #define SCB_SHCSR_BUSFAULTENA_Msk          (1UL << SCB_SHCSR_BUSFAULTENA_Pos)             /*!< SCB 
 717:../../STM32Cube_FW_N6/Drivers/CMSIS/Include/core_cm55.h **** 
 718:../../STM32Cube_FW_N6/Drivers/CMSIS/Include/core_cm55.h **** #define SCB_SHCSR_MEMFAULTENA_Pos          16U                                            /*!< SCB 
 719:../../STM32Cube_FW_N6/Drivers/CMSIS/Include/core_cm55.h **** #define SCB_SHCSR_MEMFAULTENA_Msk          (1UL << SCB_SHCSR_MEMFAULTENA_Pos)             /*!< SCB 
 720:../../STM32Cube_FW_N6/Drivers/CMSIS/Include/core_cm55.h **** 
 721:../../STM32Cube_FW_N6/Drivers/CMSIS/Include/core_cm55.h **** #define SCB_SHCSR_SVCALLPENDED_Pos         15U                                            /*!< SCB 
 722:../../STM32Cube_FW_N6/Drivers/CMSIS/Include/core_cm55.h **** #define SCB_SHCSR_SVCALLPENDED_Msk         (1UL << SCB_SHCSR_SVCALLPENDED_Pos)            /*!< SCB 
 723:../../STM32Cube_FW_N6/Drivers/CMSIS/Include/core_cm55.h **** 
 724:../../STM32Cube_FW_N6/Drivers/CMSIS/Include/core_cm55.h **** #define SCB_SHCSR_BUSFAULTPENDED_Pos       14U                                            /*!< SCB 
 725:../../STM32Cube_FW_N6/Drivers/CMSIS/Include/core_cm55.h **** #define SCB_SHCSR_BUSFAULTPENDED_Msk       (1UL << SCB_SHCSR_BUSFAULTPENDED_Pos)          /*!< SCB 
 726:../../STM32Cube_FW_N6/Drivers/CMSIS/Include/core_cm55.h **** 
 727:../../STM32Cube_FW_N6/Drivers/CMSIS/Include/core_cm55.h **** #define SCB_SHCSR_MEMFAULTPENDED_Pos       13U                                            /*!< SCB 
 728:../../STM32Cube_FW_N6/Drivers/CMSIS/Include/core_cm55.h **** #define SCB_SHCSR_MEMFAULTPENDED_Msk       (1UL << SCB_SHCSR_MEMFAULTPENDED_Pos)          /*!< SCB 
 729:../../STM32Cube_FW_N6/Drivers/CMSIS/Include/core_cm55.h **** 
 730:../../STM32Cube_FW_N6/Drivers/CMSIS/Include/core_cm55.h **** #define SCB_SHCSR_USGFAULTPENDED_Pos       12U                                            /*!< SCB 
 731:../../STM32Cube_FW_N6/Drivers/CMSIS/Include/core_cm55.h **** #define SCB_SHCSR_USGFAULTPENDED_Msk       (1UL << SCB_SHCSR_USGFAULTPENDED_Pos)          /*!< SCB 
 732:../../STM32Cube_FW_N6/Drivers/CMSIS/Include/core_cm55.h **** 
 733:../../STM32Cube_FW_N6/Drivers/CMSIS/Include/core_cm55.h **** #define SCB_SHCSR_SYSTICKACT_Pos           11U                                            /*!< SCB 
 734:../../STM32Cube_FW_N6/Drivers/CMSIS/Include/core_cm55.h **** #define SCB_SHCSR_SYSTICKACT_Msk           (1UL << SCB_SHCSR_SYSTICKACT_Pos)              /*!< SCB 
 735:../../STM32Cube_FW_N6/Drivers/CMSIS/Include/core_cm55.h **** 
 736:../../STM32Cube_FW_N6/Drivers/CMSIS/Include/core_cm55.h **** #define SCB_SHCSR_PENDSVACT_Pos            10U                                            /*!< SCB 
ARM GAS  C:\Users\Antonio\AppData\Local\Temp\ccDsuHnY.s 			page 34


 737:../../STM32Cube_FW_N6/Drivers/CMSIS/Include/core_cm55.h **** #define SCB_SHCSR_PENDSVACT_Msk            (1UL << SCB_SHCSR_PENDSVACT_Pos)               /*!< SCB 
 738:../../STM32Cube_FW_N6/Drivers/CMSIS/Include/core_cm55.h **** 
 739:../../STM32Cube_FW_N6/Drivers/CMSIS/Include/core_cm55.h **** #define SCB_SHCSR_MONITORACT_Pos            8U                                            /*!< SCB 
 740:../../STM32Cube_FW_N6/Drivers/CMSIS/Include/core_cm55.h **** #define SCB_SHCSR_MONITORACT_Msk           (1UL << SCB_SHCSR_MONITORACT_Pos)              /*!< SCB 
 741:../../STM32Cube_FW_N6/Drivers/CMSIS/Include/core_cm55.h **** 
 742:../../STM32Cube_FW_N6/Drivers/CMSIS/Include/core_cm55.h **** #define SCB_SHCSR_SVCALLACT_Pos             7U                                            /*!< SCB 
 743:../../STM32Cube_FW_N6/Drivers/CMSIS/Include/core_cm55.h **** #define SCB_SHCSR_SVCALLACT_Msk            (1UL << SCB_SHCSR_SVCALLACT_Pos)               /*!< SCB 
 744:../../STM32Cube_FW_N6/Drivers/CMSIS/Include/core_cm55.h **** 
 745:../../STM32Cube_FW_N6/Drivers/CMSIS/Include/core_cm55.h **** #define SCB_SHCSR_NMIACT_Pos                5U                                            /*!< SCB 
 746:../../STM32Cube_FW_N6/Drivers/CMSIS/Include/core_cm55.h **** #define SCB_SHCSR_NMIACT_Msk               (1UL << SCB_SHCSR_NMIACT_Pos)                  /*!< SCB 
 747:../../STM32Cube_FW_N6/Drivers/CMSIS/Include/core_cm55.h **** 
 748:../../STM32Cube_FW_N6/Drivers/CMSIS/Include/core_cm55.h **** #define SCB_SHCSR_SECUREFAULTACT_Pos        4U                                            /*!< SCB 
 749:../../STM32Cube_FW_N6/Drivers/CMSIS/Include/core_cm55.h **** #define SCB_SHCSR_SECUREFAULTACT_Msk       (1UL << SCB_SHCSR_SECUREFAULTACT_Pos)          /*!< SCB 
 750:../../STM32Cube_FW_N6/Drivers/CMSIS/Include/core_cm55.h **** 
 751:../../STM32Cube_FW_N6/Drivers/CMSIS/Include/core_cm55.h **** #define SCB_SHCSR_USGFAULTACT_Pos           3U                                            /*!< SCB 
 752:../../STM32Cube_FW_N6/Drivers/CMSIS/Include/core_cm55.h **** #define SCB_SHCSR_USGFAULTACT_Msk          (1UL << SCB_SHCSR_USGFAULTACT_Pos)             /*!< SCB 
 753:../../STM32Cube_FW_N6/Drivers/CMSIS/Include/core_cm55.h **** 
 754:../../STM32Cube_FW_N6/Drivers/CMSIS/Include/core_cm55.h **** #define SCB_SHCSR_HARDFAULTACT_Pos          2U                                            /*!< SCB 
 755:../../STM32Cube_FW_N6/Drivers/CMSIS/Include/core_cm55.h **** #define SCB_SHCSR_HARDFAULTACT_Msk         (1UL << SCB_SHCSR_HARDFAULTACT_Pos)            /*!< SCB 
 756:../../STM32Cube_FW_N6/Drivers/CMSIS/Include/core_cm55.h **** 
 757:../../STM32Cube_FW_N6/Drivers/CMSIS/Include/core_cm55.h **** #define SCB_SHCSR_BUSFAULTACT_Pos           1U                                            /*!< SCB 
 758:../../STM32Cube_FW_N6/Drivers/CMSIS/Include/core_cm55.h **** #define SCB_SHCSR_BUSFAULTACT_Msk          (1UL << SCB_SHCSR_BUSFAULTACT_Pos)             /*!< SCB 
 759:../../STM32Cube_FW_N6/Drivers/CMSIS/Include/core_cm55.h **** 
 760:../../STM32Cube_FW_N6/Drivers/CMSIS/Include/core_cm55.h **** #define SCB_SHCSR_MEMFAULTACT_Pos           0U                                            /*!< SCB 
 761:../../STM32Cube_FW_N6/Drivers/CMSIS/Include/core_cm55.h **** #define SCB_SHCSR_MEMFAULTACT_Msk          (1UL /*<< SCB_SHCSR_MEMFAULTACT_Pos*/)         /*!< SCB 
 762:../../STM32Cube_FW_N6/Drivers/CMSIS/Include/core_cm55.h **** 
 763:../../STM32Cube_FW_N6/Drivers/CMSIS/Include/core_cm55.h **** /* SCB Configurable Fault Status Register Definitions */
 764:../../STM32Cube_FW_N6/Drivers/CMSIS/Include/core_cm55.h **** #define SCB_CFSR_USGFAULTSR_Pos            16U                                            /*!< SCB 
 765:../../STM32Cube_FW_N6/Drivers/CMSIS/Include/core_cm55.h **** #define SCB_CFSR_USGFAULTSR_Msk            (0xFFFFUL << SCB_CFSR_USGFAULTSR_Pos)          /*!< SCB 
 766:../../STM32Cube_FW_N6/Drivers/CMSIS/Include/core_cm55.h **** 
 767:../../STM32Cube_FW_N6/Drivers/CMSIS/Include/core_cm55.h **** #define SCB_CFSR_BUSFAULTSR_Pos             8U                                            /*!< SCB 
 768:../../STM32Cube_FW_N6/Drivers/CMSIS/Include/core_cm55.h **** #define SCB_CFSR_BUSFAULTSR_Msk            (0xFFUL << SCB_CFSR_BUSFAULTSR_Pos)            /*!< SCB 
 769:../../STM32Cube_FW_N6/Drivers/CMSIS/Include/core_cm55.h **** 
 770:../../STM32Cube_FW_N6/Drivers/CMSIS/Include/core_cm55.h **** #define SCB_CFSR_MEMFAULTSR_Pos             0U                                            /*!< SCB 
 771:../../STM32Cube_FW_N6/Drivers/CMSIS/Include/core_cm55.h **** #define SCB_CFSR_MEMFAULTSR_Msk            (0xFFUL /*<< SCB_CFSR_MEMFAULTSR_Pos*/)        /*!< SCB 
 772:../../STM32Cube_FW_N6/Drivers/CMSIS/Include/core_cm55.h **** 
 773:../../STM32Cube_FW_N6/Drivers/CMSIS/Include/core_cm55.h **** /* MemManage Fault Status Register (part of SCB Configurable Fault Status Register) */
 774:../../STM32Cube_FW_N6/Drivers/CMSIS/Include/core_cm55.h **** #define SCB_CFSR_MMARVALID_Pos             (SCB_CFSR_MEMFAULTSR_Pos + 7U)                 /*!< SCB 
 775:../../STM32Cube_FW_N6/Drivers/CMSIS/Include/core_cm55.h **** #define SCB_CFSR_MMARVALID_Msk             (1UL << SCB_CFSR_MMARVALID_Pos)                /*!< SCB 
 776:../../STM32Cube_FW_N6/Drivers/CMSIS/Include/core_cm55.h **** 
 777:../../STM32Cube_FW_N6/Drivers/CMSIS/Include/core_cm55.h **** #define SCB_CFSR_MLSPERR_Pos               (SCB_CFSR_MEMFAULTSR_Pos + 5U)                 /*!< SCB 
 778:../../STM32Cube_FW_N6/Drivers/CMSIS/Include/core_cm55.h **** #define SCB_CFSR_MLSPERR_Msk               (1UL << SCB_CFSR_MLSPERR_Pos)                  /*!< SCB 
 779:../../STM32Cube_FW_N6/Drivers/CMSIS/Include/core_cm55.h **** 
 780:../../STM32Cube_FW_N6/Drivers/CMSIS/Include/core_cm55.h **** #define SCB_CFSR_MSTKERR_Pos               (SCB_CFSR_MEMFAULTSR_Pos + 4U)                 /*!< SCB 
 781:../../STM32Cube_FW_N6/Drivers/CMSIS/Include/core_cm55.h **** #define SCB_CFSR_MSTKERR_Msk               (1UL << SCB_CFSR_MSTKERR_Pos)                  /*!< SCB 
 782:../../STM32Cube_FW_N6/Drivers/CMSIS/Include/core_cm55.h **** 
 783:../../STM32Cube_FW_N6/Drivers/CMSIS/Include/core_cm55.h **** #define SCB_CFSR_MUNSTKERR_Pos             (SCB_CFSR_MEMFAULTSR_Pos + 3U)                 /*!< SCB 
 784:../../STM32Cube_FW_N6/Drivers/CMSIS/Include/core_cm55.h **** #define SCB_CFSR_MUNSTKERR_Msk             (1UL << SCB_CFSR_MUNSTKERR_Pos)                /*!< SCB 
 785:../../STM32Cube_FW_N6/Drivers/CMSIS/Include/core_cm55.h **** 
 786:../../STM32Cube_FW_N6/Drivers/CMSIS/Include/core_cm55.h **** #define SCB_CFSR_DACCVIOL_Pos              (SCB_CFSR_MEMFAULTSR_Pos + 1U)                 /*!< SCB 
 787:../../STM32Cube_FW_N6/Drivers/CMSIS/Include/core_cm55.h **** #define SCB_CFSR_DACCVIOL_Msk              (1UL << SCB_CFSR_DACCVIOL_Pos)                 /*!< SCB 
 788:../../STM32Cube_FW_N6/Drivers/CMSIS/Include/core_cm55.h **** 
 789:../../STM32Cube_FW_N6/Drivers/CMSIS/Include/core_cm55.h **** #define SCB_CFSR_IACCVIOL_Pos              (SCB_CFSR_MEMFAULTSR_Pos + 0U)                 /*!< SCB 
 790:../../STM32Cube_FW_N6/Drivers/CMSIS/Include/core_cm55.h **** #define SCB_CFSR_IACCVIOL_Msk              (1UL /*<< SCB_CFSR_IACCVIOL_Pos*/)             /*!< SCB 
 791:../../STM32Cube_FW_N6/Drivers/CMSIS/Include/core_cm55.h **** 
 792:../../STM32Cube_FW_N6/Drivers/CMSIS/Include/core_cm55.h **** /* BusFault Status Register (part of SCB Configurable Fault Status Register) */
 793:../../STM32Cube_FW_N6/Drivers/CMSIS/Include/core_cm55.h **** #define SCB_CFSR_BFARVALID_Pos            (SCB_CFSR_BUSFAULTSR_Pos + 7U)                  /*!< SCB 
ARM GAS  C:\Users\Antonio\AppData\Local\Temp\ccDsuHnY.s 			page 35


 794:../../STM32Cube_FW_N6/Drivers/CMSIS/Include/core_cm55.h **** #define SCB_CFSR_BFARVALID_Msk            (1UL << SCB_CFSR_BFARVALID_Pos)                 /*!< SCB 
 795:../../STM32Cube_FW_N6/Drivers/CMSIS/Include/core_cm55.h **** 
 796:../../STM32Cube_FW_N6/Drivers/CMSIS/Include/core_cm55.h **** #define SCB_CFSR_LSPERR_Pos               (SCB_CFSR_BUSFAULTSR_Pos + 5U)                  /*!< SCB 
 797:../../STM32Cube_FW_N6/Drivers/CMSIS/Include/core_cm55.h **** #define SCB_CFSR_LSPERR_Msk               (1UL << SCB_CFSR_LSPERR_Pos)                    /*!< SCB 
 798:../../STM32Cube_FW_N6/Drivers/CMSIS/Include/core_cm55.h **** 
 799:../../STM32Cube_FW_N6/Drivers/CMSIS/Include/core_cm55.h **** #define SCB_CFSR_STKERR_Pos               (SCB_CFSR_BUSFAULTSR_Pos + 4U)                  /*!< SCB 
 800:../../STM32Cube_FW_N6/Drivers/CMSIS/Include/core_cm55.h **** #define SCB_CFSR_STKERR_Msk               (1UL << SCB_CFSR_STKERR_Pos)                    /*!< SCB 
 801:../../STM32Cube_FW_N6/Drivers/CMSIS/Include/core_cm55.h **** 
 802:../../STM32Cube_FW_N6/Drivers/CMSIS/Include/core_cm55.h **** #define SCB_CFSR_UNSTKERR_Pos             (SCB_CFSR_BUSFAULTSR_Pos + 3U)                  /*!< SCB 
 803:../../STM32Cube_FW_N6/Drivers/CMSIS/Include/core_cm55.h **** #define SCB_CFSR_UNSTKERR_Msk             (1UL << SCB_CFSR_UNSTKERR_Pos)                  /*!< SCB 
 804:../../STM32Cube_FW_N6/Drivers/CMSIS/Include/core_cm55.h **** 
 805:../../STM32Cube_FW_N6/Drivers/CMSIS/Include/core_cm55.h **** #define SCB_CFSR_IMPRECISERR_Pos          (SCB_CFSR_BUSFAULTSR_Pos + 2U)                  /*!< SCB 
 806:../../STM32Cube_FW_N6/Drivers/CMSIS/Include/core_cm55.h **** #define SCB_CFSR_IMPRECISERR_Msk          (1UL << SCB_CFSR_IMPRECISERR_Pos)               /*!< SCB 
 807:../../STM32Cube_FW_N6/Drivers/CMSIS/Include/core_cm55.h **** 
 808:../../STM32Cube_FW_N6/Drivers/CMSIS/Include/core_cm55.h **** #define SCB_CFSR_PRECISERR_Pos            (SCB_CFSR_BUSFAULTSR_Pos + 1U)                  /*!< SCB 
 809:../../STM32Cube_FW_N6/Drivers/CMSIS/Include/core_cm55.h **** #define SCB_CFSR_PRECISERR_Msk            (1UL << SCB_CFSR_PRECISERR_Pos)                 /*!< SCB 
 810:../../STM32Cube_FW_N6/Drivers/CMSIS/Include/core_cm55.h **** 
 811:../../STM32Cube_FW_N6/Drivers/CMSIS/Include/core_cm55.h **** #define SCB_CFSR_IBUSERR_Pos              (SCB_CFSR_BUSFAULTSR_Pos + 0U)                  /*!< SCB 
 812:../../STM32Cube_FW_N6/Drivers/CMSIS/Include/core_cm55.h **** #define SCB_CFSR_IBUSERR_Msk              (1UL << SCB_CFSR_IBUSERR_Pos)                   /*!< SCB 
 813:../../STM32Cube_FW_N6/Drivers/CMSIS/Include/core_cm55.h **** 
 814:../../STM32Cube_FW_N6/Drivers/CMSIS/Include/core_cm55.h **** /* UsageFault Status Register (part of SCB Configurable Fault Status Register) */
 815:../../STM32Cube_FW_N6/Drivers/CMSIS/Include/core_cm55.h **** #define SCB_CFSR_DIVBYZERO_Pos            (SCB_CFSR_USGFAULTSR_Pos + 9U)                  /*!< SCB 
 816:../../STM32Cube_FW_N6/Drivers/CMSIS/Include/core_cm55.h **** #define SCB_CFSR_DIVBYZERO_Msk            (1UL << SCB_CFSR_DIVBYZERO_Pos)                 /*!< SCB 
 817:../../STM32Cube_FW_N6/Drivers/CMSIS/Include/core_cm55.h **** 
 818:../../STM32Cube_FW_N6/Drivers/CMSIS/Include/core_cm55.h **** #define SCB_CFSR_UNALIGNED_Pos            (SCB_CFSR_USGFAULTSR_Pos + 8U)                  /*!< SCB 
 819:../../STM32Cube_FW_N6/Drivers/CMSIS/Include/core_cm55.h **** #define SCB_CFSR_UNALIGNED_Msk            (1UL << SCB_CFSR_UNALIGNED_Pos)                 /*!< SCB 
 820:../../STM32Cube_FW_N6/Drivers/CMSIS/Include/core_cm55.h **** 
 821:../../STM32Cube_FW_N6/Drivers/CMSIS/Include/core_cm55.h **** #define SCB_CFSR_STKOF_Pos                (SCB_CFSR_USGFAULTSR_Pos + 4U)                  /*!< SCB 
 822:../../STM32Cube_FW_N6/Drivers/CMSIS/Include/core_cm55.h **** #define SCB_CFSR_STKOF_Msk                (1UL << SCB_CFSR_STKOF_Pos)                     /*!< SCB 
 823:../../STM32Cube_FW_N6/Drivers/CMSIS/Include/core_cm55.h **** 
 824:../../STM32Cube_FW_N6/Drivers/CMSIS/Include/core_cm55.h **** #define SCB_CFSR_NOCP_Pos                 (SCB_CFSR_USGFAULTSR_Pos + 3U)                  /*!< SCB 
 825:../../STM32Cube_FW_N6/Drivers/CMSIS/Include/core_cm55.h **** #define SCB_CFSR_NOCP_Msk                 (1UL << SCB_CFSR_NOCP_Pos)                      /*!< SCB 
 826:../../STM32Cube_FW_N6/Drivers/CMSIS/Include/core_cm55.h **** 
 827:../../STM32Cube_FW_N6/Drivers/CMSIS/Include/core_cm55.h **** #define SCB_CFSR_INVPC_Pos                (SCB_CFSR_USGFAULTSR_Pos + 2U)                  /*!< SCB 
 828:../../STM32Cube_FW_N6/Drivers/CMSIS/Include/core_cm55.h **** #define SCB_CFSR_INVPC_Msk                (1UL << SCB_CFSR_INVPC_Pos)                     /*!< SCB 
 829:../../STM32Cube_FW_N6/Drivers/CMSIS/Include/core_cm55.h **** 
 830:../../STM32Cube_FW_N6/Drivers/CMSIS/Include/core_cm55.h **** #define SCB_CFSR_INVSTATE_Pos             (SCB_CFSR_USGFAULTSR_Pos + 1U)                  /*!< SCB 
 831:../../STM32Cube_FW_N6/Drivers/CMSIS/Include/core_cm55.h **** #define SCB_CFSR_INVSTATE_Msk             (1UL << SCB_CFSR_INVSTATE_Pos)                  /*!< SCB 
 832:../../STM32Cube_FW_N6/Drivers/CMSIS/Include/core_cm55.h **** 
 833:../../STM32Cube_FW_N6/Drivers/CMSIS/Include/core_cm55.h **** #define SCB_CFSR_UNDEFINSTR_Pos           (SCB_CFSR_USGFAULTSR_Pos + 0U)                  /*!< SCB 
 834:../../STM32Cube_FW_N6/Drivers/CMSIS/Include/core_cm55.h **** #define SCB_CFSR_UNDEFINSTR_Msk           (1UL << SCB_CFSR_UNDEFINSTR_Pos)                /*!< SCB 
 835:../../STM32Cube_FW_N6/Drivers/CMSIS/Include/core_cm55.h **** 
 836:../../STM32Cube_FW_N6/Drivers/CMSIS/Include/core_cm55.h **** /* SCB Hard Fault Status Register Definitions */
 837:../../STM32Cube_FW_N6/Drivers/CMSIS/Include/core_cm55.h **** #define SCB_HFSR_DEBUGEVT_Pos              31U                                            /*!< SCB 
 838:../../STM32Cube_FW_N6/Drivers/CMSIS/Include/core_cm55.h **** #define SCB_HFSR_DEBUGEVT_Msk              (1UL << SCB_HFSR_DEBUGEVT_Pos)                 /*!< SCB 
 839:../../STM32Cube_FW_N6/Drivers/CMSIS/Include/core_cm55.h **** 
 840:../../STM32Cube_FW_N6/Drivers/CMSIS/Include/core_cm55.h **** #define SCB_HFSR_FORCED_Pos                30U                                            /*!< SCB 
 841:../../STM32Cube_FW_N6/Drivers/CMSIS/Include/core_cm55.h **** #define SCB_HFSR_FORCED_Msk                (1UL << SCB_HFSR_FORCED_Pos)                   /*!< SCB 
 842:../../STM32Cube_FW_N6/Drivers/CMSIS/Include/core_cm55.h **** 
 843:../../STM32Cube_FW_N6/Drivers/CMSIS/Include/core_cm55.h **** #define SCB_HFSR_VECTTBL_Pos                1U                                            /*!< SCB 
 844:../../STM32Cube_FW_N6/Drivers/CMSIS/Include/core_cm55.h **** #define SCB_HFSR_VECTTBL_Msk               (1UL << SCB_HFSR_VECTTBL_Pos)                  /*!< SCB 
 845:../../STM32Cube_FW_N6/Drivers/CMSIS/Include/core_cm55.h **** 
 846:../../STM32Cube_FW_N6/Drivers/CMSIS/Include/core_cm55.h **** /* SCB Debug Fault Status Register Definitions */
 847:../../STM32Cube_FW_N6/Drivers/CMSIS/Include/core_cm55.h **** #define SCB_DFSR_PMU_Pos                    5U                                            /*!< SCB 
 848:../../STM32Cube_FW_N6/Drivers/CMSIS/Include/core_cm55.h **** #define SCB_DFSR_PMU_Msk                   (1UL << SCB_DFSR_PMU_Pos)                      /*!< SCB 
 849:../../STM32Cube_FW_N6/Drivers/CMSIS/Include/core_cm55.h **** 
 850:../../STM32Cube_FW_N6/Drivers/CMSIS/Include/core_cm55.h **** #define SCB_DFSR_EXTERNAL_Pos               4U                                            /*!< SCB 
ARM GAS  C:\Users\Antonio\AppData\Local\Temp\ccDsuHnY.s 			page 36


 851:../../STM32Cube_FW_N6/Drivers/CMSIS/Include/core_cm55.h **** #define SCB_DFSR_EXTERNAL_Msk              (1UL << SCB_DFSR_EXTERNAL_Pos)                 /*!< SCB 
 852:../../STM32Cube_FW_N6/Drivers/CMSIS/Include/core_cm55.h **** 
 853:../../STM32Cube_FW_N6/Drivers/CMSIS/Include/core_cm55.h **** #define SCB_DFSR_VCATCH_Pos                 3U                                            /*!< SCB 
 854:../../STM32Cube_FW_N6/Drivers/CMSIS/Include/core_cm55.h **** #define SCB_DFSR_VCATCH_Msk                (1UL << SCB_DFSR_VCATCH_Pos)                   /*!< SCB 
 855:../../STM32Cube_FW_N6/Drivers/CMSIS/Include/core_cm55.h **** 
 856:../../STM32Cube_FW_N6/Drivers/CMSIS/Include/core_cm55.h **** #define SCB_DFSR_DWTTRAP_Pos                2U                                            /*!< SCB 
 857:../../STM32Cube_FW_N6/Drivers/CMSIS/Include/core_cm55.h **** #define SCB_DFSR_DWTTRAP_Msk               (1UL << SCB_DFSR_DWTTRAP_Pos)                  /*!< SCB 
 858:../../STM32Cube_FW_N6/Drivers/CMSIS/Include/core_cm55.h **** 
 859:../../STM32Cube_FW_N6/Drivers/CMSIS/Include/core_cm55.h **** #define SCB_DFSR_BKPT_Pos                   1U                                            /*!< SCB 
 860:../../STM32Cube_FW_N6/Drivers/CMSIS/Include/core_cm55.h **** #define SCB_DFSR_BKPT_Msk                  (1UL << SCB_DFSR_BKPT_Pos)                     /*!< SCB 
 861:../../STM32Cube_FW_N6/Drivers/CMSIS/Include/core_cm55.h **** 
 862:../../STM32Cube_FW_N6/Drivers/CMSIS/Include/core_cm55.h **** #define SCB_DFSR_HALTED_Pos                 0U                                            /*!< SCB 
 863:../../STM32Cube_FW_N6/Drivers/CMSIS/Include/core_cm55.h **** #define SCB_DFSR_HALTED_Msk                (1UL /*<< SCB_DFSR_HALTED_Pos*/)               /*!< SCB 
 864:../../STM32Cube_FW_N6/Drivers/CMSIS/Include/core_cm55.h **** 
 865:../../STM32Cube_FW_N6/Drivers/CMSIS/Include/core_cm55.h **** /* SCB Non-Secure Access Control Register Definitions */
 866:../../STM32Cube_FW_N6/Drivers/CMSIS/Include/core_cm55.h **** #define SCB_NSACR_CP11_Pos                 11U                                            /*!< SCB 
 867:../../STM32Cube_FW_N6/Drivers/CMSIS/Include/core_cm55.h **** #define SCB_NSACR_CP11_Msk                 (1UL << SCB_NSACR_CP11_Pos)                    /*!< SCB 
 868:../../STM32Cube_FW_N6/Drivers/CMSIS/Include/core_cm55.h **** 
 869:../../STM32Cube_FW_N6/Drivers/CMSIS/Include/core_cm55.h **** #define SCB_NSACR_CP10_Pos                 10U                                            /*!< SCB 
 870:../../STM32Cube_FW_N6/Drivers/CMSIS/Include/core_cm55.h **** #define SCB_NSACR_CP10_Msk                 (1UL << SCB_NSACR_CP10_Pos)                    /*!< SCB 
 871:../../STM32Cube_FW_N6/Drivers/CMSIS/Include/core_cm55.h **** 
 872:../../STM32Cube_FW_N6/Drivers/CMSIS/Include/core_cm55.h **** #define SCB_NSACR_CP7_Pos                   7U                                            /*!< SCB 
 873:../../STM32Cube_FW_N6/Drivers/CMSIS/Include/core_cm55.h **** #define SCB_NSACR_CP7_Msk                  (1UL << SCB_NSACR_CP7_Pos)                     /*!< SCB 
 874:../../STM32Cube_FW_N6/Drivers/CMSIS/Include/core_cm55.h **** 
 875:../../STM32Cube_FW_N6/Drivers/CMSIS/Include/core_cm55.h **** #define SCB_NSACR_CP6_Pos                   6U                                            /*!< SCB 
 876:../../STM32Cube_FW_N6/Drivers/CMSIS/Include/core_cm55.h **** #define SCB_NSACR_CP6_Msk                  (1UL << SCB_NSACR_CP6_Pos)                     /*!< SCB 
 877:../../STM32Cube_FW_N6/Drivers/CMSIS/Include/core_cm55.h **** 
 878:../../STM32Cube_FW_N6/Drivers/CMSIS/Include/core_cm55.h **** #define SCB_NSACR_CP5_Pos                   5U                                            /*!< SCB 
 879:../../STM32Cube_FW_N6/Drivers/CMSIS/Include/core_cm55.h **** #define SCB_NSACR_CP5_Msk                  (1UL << SCB_NSACR_CP5_Pos)                     /*!< SCB 
 880:../../STM32Cube_FW_N6/Drivers/CMSIS/Include/core_cm55.h **** 
 881:../../STM32Cube_FW_N6/Drivers/CMSIS/Include/core_cm55.h **** #define SCB_NSACR_CP4_Pos                   4U                                            /*!< SCB 
 882:../../STM32Cube_FW_N6/Drivers/CMSIS/Include/core_cm55.h **** #define SCB_NSACR_CP4_Msk                  (1UL << SCB_NSACR_CP4_Pos)                     /*!< SCB 
 883:../../STM32Cube_FW_N6/Drivers/CMSIS/Include/core_cm55.h **** 
 884:../../STM32Cube_FW_N6/Drivers/CMSIS/Include/core_cm55.h **** #define SCB_NSACR_CP3_Pos                   3U                                            /*!< SCB 
 885:../../STM32Cube_FW_N6/Drivers/CMSIS/Include/core_cm55.h **** #define SCB_NSACR_CP3_Msk                  (1UL << SCB_NSACR_CP3_Pos)                     /*!< SCB 
 886:../../STM32Cube_FW_N6/Drivers/CMSIS/Include/core_cm55.h **** 
 887:../../STM32Cube_FW_N6/Drivers/CMSIS/Include/core_cm55.h **** #define SCB_NSACR_CP2_Pos                   2U                                            /*!< SCB 
 888:../../STM32Cube_FW_N6/Drivers/CMSIS/Include/core_cm55.h **** #define SCB_NSACR_CP2_Msk                  (1UL << SCB_NSACR_CP2_Pos)                     /*!< SCB 
 889:../../STM32Cube_FW_N6/Drivers/CMSIS/Include/core_cm55.h **** 
 890:../../STM32Cube_FW_N6/Drivers/CMSIS/Include/core_cm55.h **** #define SCB_NSACR_CP1_Pos                   1U                                            /*!< SCB 
 891:../../STM32Cube_FW_N6/Drivers/CMSIS/Include/core_cm55.h **** #define SCB_NSACR_CP1_Msk                  (1UL << SCB_NSACR_CP1_Pos)                     /*!< SCB 
 892:../../STM32Cube_FW_N6/Drivers/CMSIS/Include/core_cm55.h **** 
 893:../../STM32Cube_FW_N6/Drivers/CMSIS/Include/core_cm55.h **** #define SCB_NSACR_CP0_Pos                   0U                                            /*!< SCB 
 894:../../STM32Cube_FW_N6/Drivers/CMSIS/Include/core_cm55.h **** #define SCB_NSACR_CP0_Msk                  (1UL /*<< SCB_NSACR_CP0_Pos*/)                 /*!< SCB 
 895:../../STM32Cube_FW_N6/Drivers/CMSIS/Include/core_cm55.h **** 
 896:../../STM32Cube_FW_N6/Drivers/CMSIS/Include/core_cm55.h **** /* SCB Debug Feature Register 0 Definitions */
 897:../../STM32Cube_FW_N6/Drivers/CMSIS/Include/core_cm55.h **** #define SCB_ID_DFR_UDE_Pos                 28U                                            /*!< SCB 
 898:../../STM32Cube_FW_N6/Drivers/CMSIS/Include/core_cm55.h **** #define SCB_ID_DFR_UDE_Msk                 (0xFUL << SCB_ID_DFR_UDE_Pos)                  /*!< SCB 
 899:../../STM32Cube_FW_N6/Drivers/CMSIS/Include/core_cm55.h **** 
 900:../../STM32Cube_FW_N6/Drivers/CMSIS/Include/core_cm55.h **** #define SCB_ID_DFR_MProfDbg_Pos            20U                                            /*!< SCB 
 901:../../STM32Cube_FW_N6/Drivers/CMSIS/Include/core_cm55.h **** #define SCB_ID_DFR_MProfDbg_Msk            (0xFUL << SCB_ID_DFR_MProfDbg_Pos)             /*!< SCB 
 902:../../STM32Cube_FW_N6/Drivers/CMSIS/Include/core_cm55.h **** 
 903:../../STM32Cube_FW_N6/Drivers/CMSIS/Include/core_cm55.h **** /* SCB Cache Level ID Register Definitions */
 904:../../STM32Cube_FW_N6/Drivers/CMSIS/Include/core_cm55.h **** #define SCB_CLIDR_LOUU_Pos                 27U                                            /*!< SCB 
 905:../../STM32Cube_FW_N6/Drivers/CMSIS/Include/core_cm55.h **** #define SCB_CLIDR_LOUU_Msk                 (7UL << SCB_CLIDR_LOUU_Pos)                    /*!< SCB 
 906:../../STM32Cube_FW_N6/Drivers/CMSIS/Include/core_cm55.h **** 
 907:../../STM32Cube_FW_N6/Drivers/CMSIS/Include/core_cm55.h **** #define SCB_CLIDR_LOC_Pos                  24U                                            /*!< SCB 
ARM GAS  C:\Users\Antonio\AppData\Local\Temp\ccDsuHnY.s 			page 37


 908:../../STM32Cube_FW_N6/Drivers/CMSIS/Include/core_cm55.h **** #define SCB_CLIDR_LOC_Msk                  (7UL << SCB_CLIDR_LOC_Pos)                     /*!< SCB 
 909:../../STM32Cube_FW_N6/Drivers/CMSIS/Include/core_cm55.h **** 
 910:../../STM32Cube_FW_N6/Drivers/CMSIS/Include/core_cm55.h **** /* SCB Cache Type Register Definitions */
 911:../../STM32Cube_FW_N6/Drivers/CMSIS/Include/core_cm55.h **** #define SCB_CTR_FORMAT_Pos                 29U                                            /*!< SCB 
 912:../../STM32Cube_FW_N6/Drivers/CMSIS/Include/core_cm55.h **** #define SCB_CTR_FORMAT_Msk                 (7UL << SCB_CTR_FORMAT_Pos)                    /*!< SCB 
 913:../../STM32Cube_FW_N6/Drivers/CMSIS/Include/core_cm55.h **** 
 914:../../STM32Cube_FW_N6/Drivers/CMSIS/Include/core_cm55.h **** #define SCB_CTR_CWG_Pos                    24U                                            /*!< SCB 
 915:../../STM32Cube_FW_N6/Drivers/CMSIS/Include/core_cm55.h **** #define SCB_CTR_CWG_Msk                    (0xFUL << SCB_CTR_CWG_Pos)                     /*!< SCB 
 916:../../STM32Cube_FW_N6/Drivers/CMSIS/Include/core_cm55.h **** 
 917:../../STM32Cube_FW_N6/Drivers/CMSIS/Include/core_cm55.h **** #define SCB_CTR_ERG_Pos                    20U                                            /*!< SCB 
 918:../../STM32Cube_FW_N6/Drivers/CMSIS/Include/core_cm55.h **** #define SCB_CTR_ERG_Msk                    (0xFUL << SCB_CTR_ERG_Pos)                     /*!< SCB 
 919:../../STM32Cube_FW_N6/Drivers/CMSIS/Include/core_cm55.h **** 
 920:../../STM32Cube_FW_N6/Drivers/CMSIS/Include/core_cm55.h **** #define SCB_CTR_DMINLINE_Pos               16U                                            /*!< SCB 
 921:../../STM32Cube_FW_N6/Drivers/CMSIS/Include/core_cm55.h **** #define SCB_CTR_DMINLINE_Msk               (0xFUL << SCB_CTR_DMINLINE_Pos)                /*!< SCB 
 922:../../STM32Cube_FW_N6/Drivers/CMSIS/Include/core_cm55.h **** 
 923:../../STM32Cube_FW_N6/Drivers/CMSIS/Include/core_cm55.h **** #define SCB_CTR_IMINLINE_Pos                0U                                            /*!< SCB 
 924:../../STM32Cube_FW_N6/Drivers/CMSIS/Include/core_cm55.h **** #define SCB_CTR_IMINLINE_Msk               (0xFUL /*<< SCB_CTR_IMINLINE_Pos*/)            /*!< SCB 
 925:../../STM32Cube_FW_N6/Drivers/CMSIS/Include/core_cm55.h **** 
 926:../../STM32Cube_FW_N6/Drivers/CMSIS/Include/core_cm55.h **** /* SCB Cache Size ID Register Definitions */
 927:../../STM32Cube_FW_N6/Drivers/CMSIS/Include/core_cm55.h **** #define SCB_CCSIDR_WT_Pos                  31U                                            /*!< SCB 
 928:../../STM32Cube_FW_N6/Drivers/CMSIS/Include/core_cm55.h **** #define SCB_CCSIDR_WT_Msk                  (1UL << SCB_CCSIDR_WT_Pos)                     /*!< SCB 
 929:../../STM32Cube_FW_N6/Drivers/CMSIS/Include/core_cm55.h **** 
 930:../../STM32Cube_FW_N6/Drivers/CMSIS/Include/core_cm55.h **** #define SCB_CCSIDR_WB_Pos                  30U                                            /*!< SCB 
 931:../../STM32Cube_FW_N6/Drivers/CMSIS/Include/core_cm55.h **** #define SCB_CCSIDR_WB_Msk                  (1UL << SCB_CCSIDR_WB_Pos)                     /*!< SCB 
 932:../../STM32Cube_FW_N6/Drivers/CMSIS/Include/core_cm55.h **** 
 933:../../STM32Cube_FW_N6/Drivers/CMSIS/Include/core_cm55.h **** #define SCB_CCSIDR_RA_Pos                  29U                                            /*!< SCB 
 934:../../STM32Cube_FW_N6/Drivers/CMSIS/Include/core_cm55.h **** #define SCB_CCSIDR_RA_Msk                  (1UL << SCB_CCSIDR_RA_Pos)                     /*!< SCB 
 935:../../STM32Cube_FW_N6/Drivers/CMSIS/Include/core_cm55.h **** 
 936:../../STM32Cube_FW_N6/Drivers/CMSIS/Include/core_cm55.h **** #define SCB_CCSIDR_WA_Pos                  28U                                            /*!< SCB 
 937:../../STM32Cube_FW_N6/Drivers/CMSIS/Include/core_cm55.h **** #define SCB_CCSIDR_WA_Msk                  (1UL << SCB_CCSIDR_WA_Pos)                     /*!< SCB 
 938:../../STM32Cube_FW_N6/Drivers/CMSIS/Include/core_cm55.h **** 
 939:../../STM32Cube_FW_N6/Drivers/CMSIS/Include/core_cm55.h **** #define SCB_CCSIDR_NUMSETS_Pos             13U                                            /*!< SCB 
 940:../../STM32Cube_FW_N6/Drivers/CMSIS/Include/core_cm55.h **** #define SCB_CCSIDR_NUMSETS_Msk             (0x7FFFUL << SCB_CCSIDR_NUMSETS_Pos)           /*!< SCB 
 941:../../STM32Cube_FW_N6/Drivers/CMSIS/Include/core_cm55.h **** 
 942:../../STM32Cube_FW_N6/Drivers/CMSIS/Include/core_cm55.h **** #define SCB_CCSIDR_ASSOCIATIVITY_Pos        3U                                            /*!< SCB 
 943:../../STM32Cube_FW_N6/Drivers/CMSIS/Include/core_cm55.h **** #define SCB_CCSIDR_ASSOCIATIVITY_Msk       (0x3FFUL << SCB_CCSIDR_ASSOCIATIVITY_Pos)      /*!< SCB 
 944:../../STM32Cube_FW_N6/Drivers/CMSIS/Include/core_cm55.h **** 
 945:../../STM32Cube_FW_N6/Drivers/CMSIS/Include/core_cm55.h **** #define SCB_CCSIDR_LINESIZE_Pos             0U                                            /*!< SCB 
 946:../../STM32Cube_FW_N6/Drivers/CMSIS/Include/core_cm55.h **** #define SCB_CCSIDR_LINESIZE_Msk            (7UL /*<< SCB_CCSIDR_LINESIZE_Pos*/)           /*!< SCB 
 947:../../STM32Cube_FW_N6/Drivers/CMSIS/Include/core_cm55.h **** 
 948:../../STM32Cube_FW_N6/Drivers/CMSIS/Include/core_cm55.h **** /* SCB Cache Size Selection Register Definitions */
 949:../../STM32Cube_FW_N6/Drivers/CMSIS/Include/core_cm55.h **** #define SCB_CSSELR_LEVEL_Pos                1U                                            /*!< SCB 
 950:../../STM32Cube_FW_N6/Drivers/CMSIS/Include/core_cm55.h **** #define SCB_CSSELR_LEVEL_Msk               (7UL << SCB_CSSELR_LEVEL_Pos)                  /*!< SCB 
 951:../../STM32Cube_FW_N6/Drivers/CMSIS/Include/core_cm55.h **** 
 952:../../STM32Cube_FW_N6/Drivers/CMSIS/Include/core_cm55.h **** #define SCB_CSSELR_IND_Pos                  0U                                            /*!< SCB 
 953:../../STM32Cube_FW_N6/Drivers/CMSIS/Include/core_cm55.h **** #define SCB_CSSELR_IND_Msk                 (1UL /*<< SCB_CSSELR_IND_Pos*/)                /*!< SCB 
 954:../../STM32Cube_FW_N6/Drivers/CMSIS/Include/core_cm55.h **** 
 955:../../STM32Cube_FW_N6/Drivers/CMSIS/Include/core_cm55.h **** /* SCB Software Triggered Interrupt Register Definitions */
 956:../../STM32Cube_FW_N6/Drivers/CMSIS/Include/core_cm55.h **** #define SCB_STIR_INTID_Pos                  0U                                            /*!< SCB 
 957:../../STM32Cube_FW_N6/Drivers/CMSIS/Include/core_cm55.h **** #define SCB_STIR_INTID_Msk                 (0x1FFUL /*<< SCB_STIR_INTID_Pos*/)            /*!< SCB 
 958:../../STM32Cube_FW_N6/Drivers/CMSIS/Include/core_cm55.h **** 
 959:../../STM32Cube_FW_N6/Drivers/CMSIS/Include/core_cm55.h **** /* SCB RAS Fault Status Register Definitions */
 960:../../STM32Cube_FW_N6/Drivers/CMSIS/Include/core_cm55.h **** #define SCB_RFSR_V_Pos                     31U                                            /*!< SCB 
 961:../../STM32Cube_FW_N6/Drivers/CMSIS/Include/core_cm55.h **** #define SCB_RFSR_V_Msk                     (1UL << SCB_RFSR_V_Pos)                        /*!< SCB 
 962:../../STM32Cube_FW_N6/Drivers/CMSIS/Include/core_cm55.h **** 
 963:../../STM32Cube_FW_N6/Drivers/CMSIS/Include/core_cm55.h **** #define SCB_RFSR_IS_Pos                    16U                                            /*!< SCB 
 964:../../STM32Cube_FW_N6/Drivers/CMSIS/Include/core_cm55.h **** #define SCB_RFSR_IS_Msk                    (0x7FFFUL << SCB_RFSR_IS_Pos)                  /*!< SCB 
ARM GAS  C:\Users\Antonio\AppData\Local\Temp\ccDsuHnY.s 			page 38


 965:../../STM32Cube_FW_N6/Drivers/CMSIS/Include/core_cm55.h **** 
 966:../../STM32Cube_FW_N6/Drivers/CMSIS/Include/core_cm55.h **** #define SCB_RFSR_UET_Pos                    0U                                            /*!< SCB 
 967:../../STM32Cube_FW_N6/Drivers/CMSIS/Include/core_cm55.h **** #define SCB_RFSR_UET_Msk                   (3UL /*<< SCB_RFSR_UET_Pos*/)                  /*!< SCB 
 968:../../STM32Cube_FW_N6/Drivers/CMSIS/Include/core_cm55.h **** 
 969:../../STM32Cube_FW_N6/Drivers/CMSIS/Include/core_cm55.h **** /* SCB D-Cache Invalidate by Set-way Register Definitions */
 970:../../STM32Cube_FW_N6/Drivers/CMSIS/Include/core_cm55.h **** #define SCB_DCISW_WAY_Pos                  30U                                            /*!< SCB 
 971:../../STM32Cube_FW_N6/Drivers/CMSIS/Include/core_cm55.h **** #define SCB_DCISW_WAY_Msk                  (3UL << SCB_DCISW_WAY_Pos)                     /*!< SCB 
 972:../../STM32Cube_FW_N6/Drivers/CMSIS/Include/core_cm55.h **** 
 973:../../STM32Cube_FW_N6/Drivers/CMSIS/Include/core_cm55.h **** #define SCB_DCISW_SET_Pos                   5U                                            /*!< SCB 
 974:../../STM32Cube_FW_N6/Drivers/CMSIS/Include/core_cm55.h **** #define SCB_DCISW_SET_Msk                  (0x1FFUL << SCB_DCISW_SET_Pos)                 /*!< SCB 
 975:../../STM32Cube_FW_N6/Drivers/CMSIS/Include/core_cm55.h **** 
 976:../../STM32Cube_FW_N6/Drivers/CMSIS/Include/core_cm55.h **** /* SCB D-Cache Clean by Set-way Register Definitions */
 977:../../STM32Cube_FW_N6/Drivers/CMSIS/Include/core_cm55.h **** #define SCB_DCCSW_WAY_Pos                  30U                                            /*!< SCB 
 978:../../STM32Cube_FW_N6/Drivers/CMSIS/Include/core_cm55.h **** #define SCB_DCCSW_WAY_Msk                  (3UL << SCB_DCCSW_WAY_Pos)                     /*!< SCB 
 979:../../STM32Cube_FW_N6/Drivers/CMSIS/Include/core_cm55.h **** 
 980:../../STM32Cube_FW_N6/Drivers/CMSIS/Include/core_cm55.h **** #define SCB_DCCSW_SET_Pos                   5U                                            /*!< SCB 
 981:../../STM32Cube_FW_N6/Drivers/CMSIS/Include/core_cm55.h **** #define SCB_DCCSW_SET_Msk                  (0x1FFUL << SCB_DCCSW_SET_Pos)                 /*!< SCB 
 982:../../STM32Cube_FW_N6/Drivers/CMSIS/Include/core_cm55.h **** 
 983:../../STM32Cube_FW_N6/Drivers/CMSIS/Include/core_cm55.h **** /* SCB D-Cache Clean and Invalidate by Set-way Register Definitions */
 984:../../STM32Cube_FW_N6/Drivers/CMSIS/Include/core_cm55.h **** #define SCB_DCCISW_WAY_Pos                 30U                                            /*!< SCB 
 985:../../STM32Cube_FW_N6/Drivers/CMSIS/Include/core_cm55.h **** #define SCB_DCCISW_WAY_Msk                 (3UL << SCB_DCCISW_WAY_Pos)                    /*!< SCB 
 986:../../STM32Cube_FW_N6/Drivers/CMSIS/Include/core_cm55.h **** 
 987:../../STM32Cube_FW_N6/Drivers/CMSIS/Include/core_cm55.h **** #define SCB_DCCISW_SET_Pos                  5U                                            /*!< SCB 
 988:../../STM32Cube_FW_N6/Drivers/CMSIS/Include/core_cm55.h **** #define SCB_DCCISW_SET_Msk                 (0x1FFUL << SCB_DCCISW_SET_Pos)                /*!< SCB 
 989:../../STM32Cube_FW_N6/Drivers/CMSIS/Include/core_cm55.h **** 
 990:../../STM32Cube_FW_N6/Drivers/CMSIS/Include/core_cm55.h **** /*@} end of group CMSIS_SCB */
 991:../../STM32Cube_FW_N6/Drivers/CMSIS/Include/core_cm55.h **** 
 992:../../STM32Cube_FW_N6/Drivers/CMSIS/Include/core_cm55.h **** 
 993:../../STM32Cube_FW_N6/Drivers/CMSIS/Include/core_cm55.h **** /**
 994:../../STM32Cube_FW_N6/Drivers/CMSIS/Include/core_cm55.h ****   \ingroup  CMSIS_core_register
 995:../../STM32Cube_FW_N6/Drivers/CMSIS/Include/core_cm55.h ****   \defgroup CMSIS_ICB Implementation Control Block register (ICB)
 996:../../STM32Cube_FW_N6/Drivers/CMSIS/Include/core_cm55.h ****   \brief    Type definitions for the Implementation Control Block Register
 997:../../STM32Cube_FW_N6/Drivers/CMSIS/Include/core_cm55.h ****   @{
 998:../../STM32Cube_FW_N6/Drivers/CMSIS/Include/core_cm55.h ****  */
 999:../../STM32Cube_FW_N6/Drivers/CMSIS/Include/core_cm55.h **** 
1000:../../STM32Cube_FW_N6/Drivers/CMSIS/Include/core_cm55.h **** /**
1001:../../STM32Cube_FW_N6/Drivers/CMSIS/Include/core_cm55.h ****   \brief  Structure type to access the Implementation Control Block (ICB).
1002:../../STM32Cube_FW_N6/Drivers/CMSIS/Include/core_cm55.h ****  */
1003:../../STM32Cube_FW_N6/Drivers/CMSIS/Include/core_cm55.h **** typedef struct
1004:../../STM32Cube_FW_N6/Drivers/CMSIS/Include/core_cm55.h **** {
1005:../../STM32Cube_FW_N6/Drivers/CMSIS/Include/core_cm55.h ****         uint32_t RESERVED0[1U];
1006:../../STM32Cube_FW_N6/Drivers/CMSIS/Include/core_cm55.h ****   __IM  uint32_t ICTR;                   /*!< Offset: 0x004 (R/ )  Interrupt Controller Type Regist
1007:../../STM32Cube_FW_N6/Drivers/CMSIS/Include/core_cm55.h ****   __IOM uint32_t ACTLR;                  /*!< Offset: 0x008 (R/W)  Auxiliary Control Register */
1008:../../STM32Cube_FW_N6/Drivers/CMSIS/Include/core_cm55.h ****   __IOM uint32_t CPPWR;                  /*!< Offset: 0x00C (R/W)  Coprocessor Power Control  Regis
1009:../../STM32Cube_FW_N6/Drivers/CMSIS/Include/core_cm55.h **** } ICB_Type;
1010:../../STM32Cube_FW_N6/Drivers/CMSIS/Include/core_cm55.h **** 
1011:../../STM32Cube_FW_N6/Drivers/CMSIS/Include/core_cm55.h **** /* Auxiliary Control Register Definitions */
1012:../../STM32Cube_FW_N6/Drivers/CMSIS/Include/core_cm55.h **** #define ICB_ACTLR_DISCRITAXIRUW_Pos     27U                                               /*!< ACTL
1013:../../STM32Cube_FW_N6/Drivers/CMSIS/Include/core_cm55.h **** #define ICB_ACTLR_DISCRITAXIRUW_Msk     (1UL << ICB_ACTLR_DISCRITAXIRUW_Pos)              /*!< ACTL
1014:../../STM32Cube_FW_N6/Drivers/CMSIS/Include/core_cm55.h **** 
1015:../../STM32Cube_FW_N6/Drivers/CMSIS/Include/core_cm55.h **** #define ICB_ACTLR_DISDI_Pos             16U                                               /*!< ACTL
1016:../../STM32Cube_FW_N6/Drivers/CMSIS/Include/core_cm55.h **** #define ICB_ACTLR_DISDI_Msk             (3UL << ICB_ACTLR_DISDI_Pos)                      /*!< ACTL
1017:../../STM32Cube_FW_N6/Drivers/CMSIS/Include/core_cm55.h **** 
1018:../../STM32Cube_FW_N6/Drivers/CMSIS/Include/core_cm55.h **** #define ICB_ACTLR_DISCRITAXIRUR_Pos     15U                                               /*!< ACTL
1019:../../STM32Cube_FW_N6/Drivers/CMSIS/Include/core_cm55.h **** #define ICB_ACTLR_DISCRITAXIRUR_Msk     (1UL << ICB_ACTLR_DISCRITAXIRUR_Pos)              /*!< ACTL
1020:../../STM32Cube_FW_N6/Drivers/CMSIS/Include/core_cm55.h **** 
1021:../../STM32Cube_FW_N6/Drivers/CMSIS/Include/core_cm55.h **** #define ICB_ACTLR_EVENTBUSEN_Pos        14U                                               /*!< ACTL
ARM GAS  C:\Users\Antonio\AppData\Local\Temp\ccDsuHnY.s 			page 39


1022:../../STM32Cube_FW_N6/Drivers/CMSIS/Include/core_cm55.h **** #define ICB_ACTLR_EVENTBUSEN_Msk        (1UL << ICB_ACTLR_EVENTBUSEN_Pos)                 /*!< ACTL
1023:../../STM32Cube_FW_N6/Drivers/CMSIS/Include/core_cm55.h **** 
1024:../../STM32Cube_FW_N6/Drivers/CMSIS/Include/core_cm55.h **** #define ICB_ACTLR_EVENTBUSEN_S_Pos      13U                                               /*!< ACTL
1025:../../STM32Cube_FW_N6/Drivers/CMSIS/Include/core_cm55.h **** #define ICB_ACTLR_EVENTBUSEN_S_Msk      (1UL << ICB_ACTLR_EVENTBUSEN_S_Pos)               /*!< ACTL
1026:../../STM32Cube_FW_N6/Drivers/CMSIS/Include/core_cm55.h **** 
1027:../../STM32Cube_FW_N6/Drivers/CMSIS/Include/core_cm55.h **** #define ICB_ACTLR_DISITMATBFLUSH_Pos    12U                                               /*!< ACTL
1028:../../STM32Cube_FW_N6/Drivers/CMSIS/Include/core_cm55.h **** #define ICB_ACTLR_DISITMATBFLUSH_Msk    (1UL << ICB_ACTLR_DISITMATBFLUSH_Pos)             /*!< ACTL
1029:../../STM32Cube_FW_N6/Drivers/CMSIS/Include/core_cm55.h **** 
1030:../../STM32Cube_FW_N6/Drivers/CMSIS/Include/core_cm55.h **** #define ICB_ACTLR_DISNWAMODE_Pos        11U                                               /*!< ACTL
1031:../../STM32Cube_FW_N6/Drivers/CMSIS/Include/core_cm55.h **** #define ICB_ACTLR_DISNWAMODE_Msk        (1UL << ICB_ACTLR_DISNWAMODE_Pos)                 /*!< ACTL
1032:../../STM32Cube_FW_N6/Drivers/CMSIS/Include/core_cm55.h **** 
1033:../../STM32Cube_FW_N6/Drivers/CMSIS/Include/core_cm55.h **** #define ICB_ACTLR_FPEXCODIS_Pos         10U                                               /*!< ACTL
1034:../../STM32Cube_FW_N6/Drivers/CMSIS/Include/core_cm55.h **** #define ICB_ACTLR_FPEXCODIS_Msk         (1UL << ICB_ACTLR_FPEXCODIS_Pos)                  /*!< ACTL
1035:../../STM32Cube_FW_N6/Drivers/CMSIS/Include/core_cm55.h **** 
1036:../../STM32Cube_FW_N6/Drivers/CMSIS/Include/core_cm55.h **** #define ICB_ACTLR_DISOLAP_Pos            7U                                               /*!< ACTL
1037:../../STM32Cube_FW_N6/Drivers/CMSIS/Include/core_cm55.h **** #define ICB_ACTLR_DISOLAP_Msk           (1UL << ICB_ACTLR_DISOLAP_Pos)                    /*!< ACTL
1038:../../STM32Cube_FW_N6/Drivers/CMSIS/Include/core_cm55.h **** 
1039:../../STM32Cube_FW_N6/Drivers/CMSIS/Include/core_cm55.h **** #define ICB_ACTLR_DISOLAPS_Pos           6U                                               /*!< ACTL
1040:../../STM32Cube_FW_N6/Drivers/CMSIS/Include/core_cm55.h **** #define ICB_ACTLR_DISOLAPS_Msk          (1UL << ICB_ACTLR_DISOLAPS_Pos)                   /*!< ACTL
1041:../../STM32Cube_FW_N6/Drivers/CMSIS/Include/core_cm55.h **** 
1042:../../STM32Cube_FW_N6/Drivers/CMSIS/Include/core_cm55.h **** #define ICB_ACTLR_DISLOBR_Pos            5U                                               /*!< ACTL
1043:../../STM32Cube_FW_N6/Drivers/CMSIS/Include/core_cm55.h **** #define ICB_ACTLR_DISLOBR_Msk           (1UL << ICB_ACTLR_DISLOBR_Pos)                    /*!< ACTL
1044:../../STM32Cube_FW_N6/Drivers/CMSIS/Include/core_cm55.h **** 
1045:../../STM32Cube_FW_N6/Drivers/CMSIS/Include/core_cm55.h **** #define ICB_ACTLR_DISLO_Pos              4U                                               /*!< ACTL
1046:../../STM32Cube_FW_N6/Drivers/CMSIS/Include/core_cm55.h **** #define ICB_ACTLR_DISLO_Msk             (1UL << ICB_ACTLR_DISLO_Pos)                      /*!< ACTL
1047:../../STM32Cube_FW_N6/Drivers/CMSIS/Include/core_cm55.h **** 
1048:../../STM32Cube_FW_N6/Drivers/CMSIS/Include/core_cm55.h **** #define ICB_ACTLR_DISLOLEP_Pos           3U                                               /*!< ACTL
1049:../../STM32Cube_FW_N6/Drivers/CMSIS/Include/core_cm55.h **** #define ICB_ACTLR_DISLOLEP_Msk          (1UL << ICB_ACTLR_DISLOLEP_Pos)                   /*!< ACTL
1050:../../STM32Cube_FW_N6/Drivers/CMSIS/Include/core_cm55.h **** 
1051:../../STM32Cube_FW_N6/Drivers/CMSIS/Include/core_cm55.h **** #define ICB_ACTLR_DISFOLD_Pos            2U                                               /*!< ACTL
1052:../../STM32Cube_FW_N6/Drivers/CMSIS/Include/core_cm55.h **** #define ICB_ACTLR_DISFOLD_Msk           (1UL << ICB_ACTLR_DISFOLD_Pos)                    /*!< ACTL
1053:../../STM32Cube_FW_N6/Drivers/CMSIS/Include/core_cm55.h **** 
1054:../../STM32Cube_FW_N6/Drivers/CMSIS/Include/core_cm55.h **** /* Interrupt Controller Type Register Definitions */
1055:../../STM32Cube_FW_N6/Drivers/CMSIS/Include/core_cm55.h **** #define ICB_ICTR_INTLINESNUM_Pos         0U                                               /*!< ICTR
1056:../../STM32Cube_FW_N6/Drivers/CMSIS/Include/core_cm55.h **** #define ICB_ICTR_INTLINESNUM_Msk        (0xFUL /*<< ICB_ICTR_INTLINESNUM_Pos*/)           /*!< ICTR
1057:../../STM32Cube_FW_N6/Drivers/CMSIS/Include/core_cm55.h **** 
1058:../../STM32Cube_FW_N6/Drivers/CMSIS/Include/core_cm55.h **** /*@} end of group CMSIS_ICB */
1059:../../STM32Cube_FW_N6/Drivers/CMSIS/Include/core_cm55.h **** 
1060:../../STM32Cube_FW_N6/Drivers/CMSIS/Include/core_cm55.h **** 
1061:../../STM32Cube_FW_N6/Drivers/CMSIS/Include/core_cm55.h **** /**
1062:../../STM32Cube_FW_N6/Drivers/CMSIS/Include/core_cm55.h ****   \ingroup  CMSIS_core_register
1063:../../STM32Cube_FW_N6/Drivers/CMSIS/Include/core_cm55.h ****   \defgroup CMSIS_SysTick     System Tick Timer (SysTick)
1064:../../STM32Cube_FW_N6/Drivers/CMSIS/Include/core_cm55.h ****   \brief    Type definitions for the System Timer Registers.
1065:../../STM32Cube_FW_N6/Drivers/CMSIS/Include/core_cm55.h ****   @{
1066:../../STM32Cube_FW_N6/Drivers/CMSIS/Include/core_cm55.h ****  */
1067:../../STM32Cube_FW_N6/Drivers/CMSIS/Include/core_cm55.h **** 
1068:../../STM32Cube_FW_N6/Drivers/CMSIS/Include/core_cm55.h **** /**
1069:../../STM32Cube_FW_N6/Drivers/CMSIS/Include/core_cm55.h ****   \brief  Structure type to access the System Timer (SysTick).
1070:../../STM32Cube_FW_N6/Drivers/CMSIS/Include/core_cm55.h ****  */
1071:../../STM32Cube_FW_N6/Drivers/CMSIS/Include/core_cm55.h **** typedef struct
1072:../../STM32Cube_FW_N6/Drivers/CMSIS/Include/core_cm55.h **** {
1073:../../STM32Cube_FW_N6/Drivers/CMSIS/Include/core_cm55.h ****   __IOM uint32_t CTRL;                   /*!< Offset: 0x000 (R/W)  SysTick Control and Status Regis
1074:../../STM32Cube_FW_N6/Drivers/CMSIS/Include/core_cm55.h ****   __IOM uint32_t LOAD;                   /*!< Offset: 0x004 (R/W)  SysTick Reload Value Register */
1075:../../STM32Cube_FW_N6/Drivers/CMSIS/Include/core_cm55.h ****   __IOM uint32_t VAL;                    /*!< Offset: 0x008 (R/W)  SysTick Current Value Register *
1076:../../STM32Cube_FW_N6/Drivers/CMSIS/Include/core_cm55.h ****   __IM  uint32_t CALIB;                  /*!< Offset: 0x00C (R/ )  SysTick Calibration Register */
1077:../../STM32Cube_FW_N6/Drivers/CMSIS/Include/core_cm55.h **** } SysTick_Type;
1078:../../STM32Cube_FW_N6/Drivers/CMSIS/Include/core_cm55.h **** 
ARM GAS  C:\Users\Antonio\AppData\Local\Temp\ccDsuHnY.s 			page 40


1079:../../STM32Cube_FW_N6/Drivers/CMSIS/Include/core_cm55.h **** /* SysTick Control / Status Register Definitions */
1080:../../STM32Cube_FW_N6/Drivers/CMSIS/Include/core_cm55.h **** #define SysTick_CTRL_COUNTFLAG_Pos         16U                                            /*!< SysT
1081:../../STM32Cube_FW_N6/Drivers/CMSIS/Include/core_cm55.h **** #define SysTick_CTRL_COUNTFLAG_Msk         (1UL << SysTick_CTRL_COUNTFLAG_Pos)            /*!< SysT
1082:../../STM32Cube_FW_N6/Drivers/CMSIS/Include/core_cm55.h **** 
1083:../../STM32Cube_FW_N6/Drivers/CMSIS/Include/core_cm55.h **** #define SysTick_CTRL_CLKSOURCE_Pos          2U                                            /*!< SysT
1084:../../STM32Cube_FW_N6/Drivers/CMSIS/Include/core_cm55.h **** #define SysTick_CTRL_CLKSOURCE_Msk         (1UL << SysTick_CTRL_CLKSOURCE_Pos)            /*!< SysT
1085:../../STM32Cube_FW_N6/Drivers/CMSIS/Include/core_cm55.h **** 
1086:../../STM32Cube_FW_N6/Drivers/CMSIS/Include/core_cm55.h **** #define SysTick_CTRL_TICKINT_Pos            1U                                            /*!< SysT
1087:../../STM32Cube_FW_N6/Drivers/CMSIS/Include/core_cm55.h **** #define SysTick_CTRL_TICKINT_Msk           (1UL << SysTick_CTRL_TICKINT_Pos)              /*!< SysT
1088:../../STM32Cube_FW_N6/Drivers/CMSIS/Include/core_cm55.h **** 
1089:../../STM32Cube_FW_N6/Drivers/CMSIS/Include/core_cm55.h **** #define SysTick_CTRL_ENABLE_Pos             0U                                            /*!< SysT
1090:../../STM32Cube_FW_N6/Drivers/CMSIS/Include/core_cm55.h **** #define SysTick_CTRL_ENABLE_Msk            (1UL /*<< SysTick_CTRL_ENABLE_Pos*/)           /*!< SysT
1091:../../STM32Cube_FW_N6/Drivers/CMSIS/Include/core_cm55.h **** 
1092:../../STM32Cube_FW_N6/Drivers/CMSIS/Include/core_cm55.h **** /* SysTick Reload Register Definitions */
1093:../../STM32Cube_FW_N6/Drivers/CMSIS/Include/core_cm55.h **** #define SysTick_LOAD_RELOAD_Pos             0U                                            /*!< SysT
1094:../../STM32Cube_FW_N6/Drivers/CMSIS/Include/core_cm55.h **** #define SysTick_LOAD_RELOAD_Msk            (0xFFFFFFUL /*<< SysTick_LOAD_RELOAD_Pos*/)    /*!< SysT
1095:../../STM32Cube_FW_N6/Drivers/CMSIS/Include/core_cm55.h **** 
1096:../../STM32Cube_FW_N6/Drivers/CMSIS/Include/core_cm55.h **** /* SysTick Current Register Definitions */
1097:../../STM32Cube_FW_N6/Drivers/CMSIS/Include/core_cm55.h **** #define SysTick_VAL_CURRENT_Pos             0U                                            /*!< SysT
